
kernel.elf:	file format elf64-littleriscv

Disassembly of section .init:

0000000180000000 <_start>:
180000000: f3 22 10 fc 	csrr	t0, nw
180000004: 17 03 00 00 	auipc	t1, 0x0
180000008: 13 03 c3 5b 	addi	t1, t1, 0x5bc
18000000c: 0b 90 62 00 	vx_wspawn	t0, t1
180000010: 93 02 f0 ff 	li	t0, -0x1
180000014: 0b 80 02 00 	vx_tmc	t0
180000018: ef 00 40 56 	jal	0x18000057c <init_regs>
18000001c: 93 02 10 00 	li	t0, 0x1
180000020: 0b 80 02 00 	vx_tmc	t0
180000024: f3 22 10 fc 	csrr	t0, nw
180000028: 17 03 00 00 	auipc	t1, 0x0
18000002c: 13 03 c3 5a 	addi	t1, t1, 0x5ac
180000030: 0b 90 62 00 	vx_wspawn	t0, t1
180000034: 93 02 f0 ff 	li	t0, -0x1
180000038: 0b 80 02 00 	vx_tmc	t0
18000003c: ef 00 c0 5a 	jal	0x1800005e8 <__init_tls>
180000040: 93 02 10 00 	li	t0, 0x1
180000044: 0b 80 02 00 	vx_tmc	t0
180000048: 17 45 00 00 	auipc	a0, 0x4
18000004c: 13 05 85 4f 	addi	a0, a0, 0x4f8
180000050: 17 46 00 00 	auipc	a2, 0x4
180000054: 13 06 06 53 	addi	a2, a2, 0x530
180000058: 33 06 a6 40 	sub	a2, a2, a0
18000005c: 93 05 00 00 	li	a1, 0x0
180000060: ef 20 10 67 	jal	0x180002ed0 <memset>
180000064: ef 00 80 5c 	jal	0x18000062c <__libc_init_array>
180000068: ef 00 00 08 	jal	0x1800000e8 <main>
18000006c: 6f 00 40 00 	j	0x180000070 <exit>

Disassembly of section .text:

0000000180000070 <exit>:
180000070: 13 01 01 ff 	addi	sp, sp, -0x10
180000074: 23 34 11 00 	sd	ra, 0x8(sp)
180000078: 23 30 81 00 	sd	s0, 0x0(sp)
18000007c: 13 04 05 00 	mv	s0, a0
180000080: ef 00 00 64 	jal	0x1800006c0 <__funcs_on_exit>
180000084: ef 20 d0 09 	jal	0x180002920 <libc_exit_fini>
180000088: ef 20 50 09 	jal	0x18000291c <dummy>
18000008c: 13 05 04 00 	mv	a0, s0
180000090: ef 00 80 4d 	jal	0x180000568 <_Exit>

0000000180000094 <_Z53cuda_kernel_compute_costiilP5PointiiPfS1_PiPb_wrapperPv>:
180000094: 13 01 01 ff 	addi	sp, sp, -0x10
180000098: 23 34 11 00 	sd	ra, 0x8(sp)
18000009c: 23 30 81 00 	sd	s0, 0x0(sp)
1800000a0: 97 45 00 00 	auipc	a1, 0x4
1800000a4: 83 b5 85 3e 	ld	a1, 0x3e8(a1)
1800000a8: b3 86 45 00 	add	a3, a1, tp
1800000ac: 83 a5 06 00 	lw	a1, 0x0(a3)
1800000b0: 23 20 b2 00 	sw	a1, 0x0(tp)
1800000b4: 03 a6 46 00 	lw	a2, 0x4(a3)
1800000b8: 23 22 c2 00 	sw	a2, 0x4(tp)
1800000bc: 83 a6 86 00 	lw	a3, 0x8(a3)
1800000c0: 13 04 05 00 	mv	s0, a0
1800000c4: 23 24 d2 00 	sw	a3, 0x8(tp)
1800000c8: 17 35 00 00 	auipc	a0, 0x3
1800000cc: 13 05 85 fc 	addi	a0, a0, -0x38
1800000d0: ef 00 80 69 	jal	0x180000768 <vx_printf>
1800000d4: 13 05 04 00 	mv	a0, s0
1800000d8: 83 30 81 00 	ld	ra, 0x8(sp)
1800000dc: 03 34 01 00 	ld	s0, 0x0(sp)
1800000e0: 13 01 01 01 	addi	sp, sp, 0x10
1800000e4: 6f 00 c0 43 	j	0x180000520 <kernel_compute_costiilP5PointiiPfS1_PiPb_wrapper>

00000001800000e8 <main>:
1800000e8: 13 01 01 fa 	addi	sp, sp, -0x60
1800000ec: 23 3c 11 04 	sd	ra, 0x58(sp)
1800000f0: 23 38 81 04 	sd	s0, 0x50(sp)
1800000f4: 23 34 91 04 	sd	s1, 0x48(sp)
1800000f8: 23 30 21 05 	sd	s2, 0x40(sp)
1800000fc: 73 24 00 34 	csrr	s0, mscratch
180000100: 03 25 04 00 	lw	a0, 0x0(s0)
180000104: 93 04 84 04 	addi	s1, s0, 0x48
180000108: 97 45 00 00 	auipc	a1, 0x4
18000010c: 03 26 44 00 	lw	a2, 0x4(s0)
180000110: 23 ac a5 42 	sw	a0, 0x438(a1)
180000114: 17 45 00 00 	auipc	a0, 0x4
180000118: 83 25 84 00 	lw	a1, 0x8(s0)
18000011c: 23 28 c5 42 	sw	a2, 0x430(a0)
180000120: 17 45 00 00 	auipc	a0, 0x4
180000124: 03 26 84 01 	lw	a2, 0x18(s0)
180000128: 23 24 b5 42 	sw	a1, 0x428(a0)
18000012c: 17 45 00 00 	auipc	a0, 0x4
180000130: 83 25 c4 01 	lw	a1, 0x1c(s0)
180000134: 23 20 c5 42 	sw	a2, 0x420(a0)
180000138: 03 25 04 02 	lw	a0, 0x20(s0)
18000013c: 97 46 00 00 	auipc	a3, 0x4
180000140: 23 aa b6 40 	sw	a1, 0x414(a3)
180000144: 97 46 00 00 	auipc	a3, 0x4
180000148: 23 a8 a6 40 	sw	a0, 0x410(a3)
18000014c: 33 85 c5 02 	mul	a0, a1, a2
180000150: 97 45 00 00 	auipc	a1, 0x4
180000154: 23 a4 a5 40 	sw	a0, 0x408(a1)
180000158: 17 35 00 00 	auipc	a0, 0x3
18000015c: 13 05 85 f5 	addi	a0, a0, -0xa8
180000160: 93 05 80 04 	li	a1, 0x48
180000164: 13 06 00 04 	li	a2, 0x40
180000168: 93 06 80 00 	li	a3, 0x8
18000016c: ef 00 c0 5f 	jal	0x180000768 <vx_printf>
180000170: 17 35 00 00 	auipc	a0, 0x3
180000174: 13 05 c5 f5 	addi	a0, a0, -0xa4
180000178: b7 05 18 00 	lui	a1, 0x180
18000017c: 9b 85 f5 ff 	addiw	a1, a1, -0x1
180000180: 93 95 c5 00 	slli	a1, a1, 0xc
180000184: ef 00 40 5e 	jal	0x180000768 <vx_printf>
180000188: 83 25 04 04 	lw	a1, 0x40(s0)
18000018c: 13 95 35 00 	slli	a0, a1, 0x3
180000190: 17 46 00 00 	auipc	a2, 0x4
180000194: 13 09 86 3a 	addi	s2, a2, 0x3a8
180000198: 33 05 a9 00 	add	a0, s2, a0
18000019c: 03 36 05 00 	ld	a2, 0x0(a0)
1800001a0: 83 26 04 00 	lw	a3, 0x0(s0)
1800001a4: 03 27 44 00 	lw	a4, 0x4(s0)
1800001a8: 83 27 84 00 	lw	a5, 0x8(s0)
1800001ac: 03 28 84 01 	lw	a6, 0x18(s0)
1800001b0: 83 28 c4 01 	lw	a7, 0x1c(s0)
1800001b4: 83 22 04 02 	lw	t0, 0x20(s0)
1800001b8: 03 35 84 04 	ld	a0, 0x48(s0)
1800001bc: 03 33 04 05 	ld	t1, 0x50(s0)
1800001c0: 83 33 84 05 	ld	t2, 0x58(s0)
1800001c4: 03 3e 04 06 	ld	t3, 0x60(s0)
1800001c8: 83 3e 84 06 	ld	t4, 0x68(s0)
1800001cc: 03 3f 04 07 	ld	t5, 0x70(s0)
1800001d0: 23 38 e1 03 	sd	t5, 0x30(sp)
1800001d4: 23 34 d1 03 	sd	t4, 0x28(sp)
1800001d8: 23 30 c1 03 	sd	t3, 0x20(sp)
1800001dc: 23 3c 71 00 	sd	t2, 0x18(sp)
1800001e0: 23 38 61 00 	sd	t1, 0x10(sp)
1800001e4: 23 34 a1 00 	sd	a0, 0x8(sp)
1800001e8: 17 35 00 00 	auipc	a0, 0x3
1800001ec: 13 05 15 ef 	addi	a0, a0, -0x10f
1800001f0: 23 30 51 00 	sd	t0, 0x0(sp)
1800001f4: ef 00 40 57 	jal	0x180000768 <vx_printf>
1800001f8: 83 25 84 03 	lw	a1, 0x38(s0)
1800001fc: 17 35 00 00 	auipc	a0, 0x3
180000200: 13 05 d5 f5 	addi	a0, a0, -0xa3
180000204: ef 00 40 56 	jal	0x180000768 <vx_printf>
180000208: 17 35 00 00 	auipc	a0, 0x3
18000020c: 13 05 d5 f5 	addi	a0, a0, -0xa3
180000210: ef 00 80 55 	jal	0x180000768 <vx_printf>
180000214: 03 25 04 04 	lw	a0, 0x40(s0)
180000218: 13 15 35 00 	slli	a0, a0, 0x3
18000021c: 33 05 a9 00 	add	a0, s2, a0
180000220: 83 36 05 00 	ld	a3, 0x0(a0)
180000224: 13 05 30 00 	li	a0, 0x3
180000228: 93 05 04 00 	mv	a1, s0
18000022c: 13 06 00 00 	li	a2, 0x0
180000230: 13 87 04 00 	mv	a4, s1
180000234: 83 30 81 05 	ld	ra, 0x58(sp)
180000238: 03 34 01 05 	ld	s0, 0x50(sp)
18000023c: 83 34 81 04 	ld	s1, 0x48(sp)
180000240: 03 39 01 04 	ld	s2, 0x40(sp)
180000244: 13 01 01 06 	addi	sp, sp, 0x60
180000248: 6f 00 d0 0e 	j	0x180000b34 <vx_spawn_threads>

000000018000024c <_Z6d_distiiiiPf>:
18000024c: 13 01 01 ff 	addi	sp, sp, -0x10
180000250: 23 34 11 00 	sd	ra, 0x8(sp)
180000254: 23 30 81 00 	sd	s0, 0x0(sp)
180000258: 13 04 01 01 	addi	s0, sp, 0x10
18000025c: 9b 87 06 00 	sext.w	a5, a3
180000260: 33 28 f0 00 	sgtz	a6, a5
180000264: 8b 27 18 00 	vx_split_n	a5, a6
180000268: 53 05 00 f0 	fmv.w.x	fa0, zero
18000026c: 63 0a 08 06 	beqz	a6, 0x1800002e0 <_Z6d_distiiiiPf+0x94>
180000270: 6f 00 40 00 	j	0x180000274 <_Z6d_distiiiiPf+0x28>
180000274: 1b 06 06 00 	sext.w	a2, a2
180000278: 1b 05 05 00 	sext.w	a0, a0
18000027c: 9b 85 05 00 	sext.w	a1, a1
180000280: 9b 86 06 00 	sext.w	a3, a3
180000284: 13 15 25 00 	slli	a0, a0, 0x2
180000288: 33 05 a7 00 	add	a0, a4, a0
18000028c: 93 95 25 00 	slli	a1, a1, 0x2
180000290: 33 07 b7 00 	add	a4, a4, a1
180000294: 53 05 00 f0 	fmv.w.x	fa0, zero
180000298: f3 25 40 cc 	csrr	a1, tmask
18000029c: 13 08 00 00 	li	a6, 0x0
1800002a0: 6f 00 40 00 	j	0x1800002a4 <_Z6d_distiiiiPf+0x58>
1800002a4: b3 08 c8 02 	mul	a7, a6, a2
1800002a8: 93 98 28 00 	slli	a7, a7, 0x2
1800002ac: b3 02 15 01 	add	t0, a0, a7
1800002b0: 87 a7 02 00 	flw	fa5, 0x0(t0)
1800002b4: b3 08 17 01 	add	a7, a4, a7
1800002b8: 07 a7 08 00 	flw	fa4, 0x0(a7)
1800002bc: d3 f7 e7 08 	fsub.s	fa5, fa5, fa4
1800002c0: 43 f5 f7 50 	fmadd.s	fa0, fa5, fa5, fa0
1800002c4: 13 08 18 00 	addi	a6, a6, 0x1
1800002c8: b3 48 d8 00 	xor	a7, a6, a3
1800002cc: 93 b8 18 00 	seqz	a7, a7
1800002d0: 8b d0 b8 00 	vx_pred_n	a7, a1
1800002d4: e3 88 08 fc 	beqz	a7, 0x1800002a4 <_Z6d_distiiiiPf+0x58>
1800002d8: 6f 00 40 00 	j	0x1800002dc <_Z6d_distiiiiPf+0x90>
1800002dc: 6f 00 40 00 	j	0x1800002e0 <_Z6d_distiiiiPf+0x94>
1800002e0: 0b b0 07 00 	vx_join	a5
1800002e4: 6f 00 40 00 	j	0x1800002e8 <_Z6d_distiiiiPf+0x9c>
1800002e8: 83 30 81 00 	ld	ra, 0x8(sp)
1800002ec: 03 34 01 00 	ld	s0, 0x0(sp)
1800002f0: 13 01 01 01 	addi	sp, sp, 0x10
1800002f4: 67 80 00 00 	ret

00000001800002f8 <_Z19kernel_compute_costiilP5PointiiPfS1_PiPb>:
1800002f8: 13 01 01 f6 	addi	sp, sp, -0xa0
1800002fc: 23 3c 11 08 	sd	ra, 0x98(sp)
180000300: 23 38 81 08 	sd	s0, 0x90(sp)
180000304: 23 34 91 08 	sd	s1, 0x88(sp)
180000308: 23 30 21 09 	sd	s2, 0x80(sp)
18000030c: 23 3c 31 07 	sd	s3, 0x78(sp)
180000310: 23 38 41 07 	sd	s4, 0x70(sp)
180000314: 23 34 51 07 	sd	s5, 0x68(sp)
180000318: 23 30 61 07 	sd	s6, 0x60(sp)
18000031c: 23 3c 71 05 	sd	s7, 0x58(sp)
180000320: 23 38 81 05 	sd	s8, 0x50(sp)
180000324: 23 34 91 05 	sd	s9, 0x48(sp)
180000328: 23 30 a1 05 	sd	s10, 0x40(sp)
18000032c: 23 3c b1 03 	sd	s11, 0x38(sp)
180000330: 13 04 01 0a 	addi	s0, sp, 0xa0
180000334: 93 89 06 00 	mv	s3, a3
180000338: 93 83 05 00 	mv	t2, a1
18000033c: 13 0c 05 00 	mv	s8, a0
180000340: 03 3b 84 00 	ld	s6, 0x8(s0)
180000344: 83 35 04 00 	ld	a1, 0x0(s0)
180000348: 17 45 00 00 	auipc	a0, 0x4
18000034c: 13 05 05 21 	addi	a0, a0, 0x210
180000350: 03 2a 05 00 	lw	s4, 0x0(a0)
180000354: 63 08 0a 18 	beqz	s4, 0x1800004e4 <_Z19kernel_compute_costiilP5PointiiPfS1_PiPb+0x1ec>
180000358: 6f 00 40 00 	j	0x18000035c <_Z19kernel_compute_costiilP5PointiiPfS1_PiPb+0x64>
18000035c: 23 30 b4 f8 	sd	a1, -0x80(s0)
180000360: 93 0e 02 00 	mv	t4, tp
180000364: 13 0f 42 00 	addi	t5, tp, 0x4
180000368: 17 45 00 00 	auipc	a0, 0x4
18000036c: 13 05 85 1d 	addi	a0, a0, 0x1d8
180000370: 03 25 05 00 	lw	a0, 0x0(a0)
180000374: 97 45 00 00 	auipc	a1, 0x4
180000378: 93 85 85 1d 	addi	a1, a1, 0x1d8
18000037c: 83 a5 05 00 	lw	a1, 0x0(a1)
180000380: 93 04 00 00 	li	s1, 0x0
180000384: 6f 00 40 00 	j	0x180000388 <_Z19kernel_compute_costiilP5PointiiPfS1_PiPb+0x90>
180000388: 83 a2 0e 00 	lw	t0, 0x0(t4)
18000038c: 83 26 0f 00 	lw	a3, 0x0(t5)
180000390: bb 86 a6 02 	mulw	a3, a3, a0
180000394: bb 86 56 00 	addw	a3, a3, t0
180000398: bb 82 b6 02 	mulw	t0, a3, a1
18000039c: bb e6 b4 02 	remw	a3, s1, a1
1800003a0: bb 8c d2 00 	addw	s9, t0, a3
1800003a4: 9b 06 0c 00 	sext.w	a3, s8
1800003a8: b3 a6 dc 00 	slt	a3, s9, a3
1800003ac: 0b a9 16 00 	vx_split_n	s2, a3
1800003b0: 63 8c 06 10 	beqz	a3, 0x1800004c8 <_Z19kernel_compute_costiilP5PointiiPfS1_PiPb+0x1d0>
1800003b4: 6f 00 40 00 	j	0x1800003b8 <_Z19kernel_compute_costiilP5PointiiPfS1_PiPb+0xc0>
1800003b8: 23 38 e4 f7 	sd	t5, -0x90(s0)
1800003bc: 23 3c d4 f7 	sd	t4, -0x88(s0)
1800003c0: 93 0d 07 00 	mv	s11, a4
1800003c4: 23 38 f4 f8 	sd	a5, -0x70(s0)
1800003c8: 3b 85 fc 02 	mulw	a0, s9, a5
1800003cc: 13 15 25 00 	slli	a0, a0, 0x2
1800003d0: 23 34 14 f9 	sd	a7, -0x78(s0)
1800003d4: 33 85 a8 00 	add	a0, a7, a0
1800003d8: 23 34 a4 f6 	sd	a0, -0x98(s0)
1800003dc: 13 85 0c 00 	mv	a0, s9
1800003e0: 93 0a 06 00 	mv	s5, a2
1800003e4: 93 05 06 00 	mv	a1, a2
1800003e8: 13 06 0c 00 	mv	a2, s8
1800003ec: 13 8d 03 00 	mv	s10, t2
1800003f0: 93 86 03 00 	mv	a3, t2
1800003f4: 93 0b 08 00 	mv	s7, a6
1800003f8: 13 07 08 00 	mv	a4, a6
1800003fc: ef f0 1f e5 	jal	0x18000024c <_Z6d_distiiiiPf>
180000400: 9b 8c 0c 00 	sext.w	s9, s9
180000404: 13 95 5c 00 	slli	a0, s9, 0x5
180000408: 33 85 a9 00 	add	a0, s3, a0
18000040c: 87 27 05 00 	flw	fa5, 0x0(a0)
180000410: d3 77 f5 10 	fmul.s	fa5, fa0, fa5
180000414: 07 27 85 01 	flw	fa4, 0x18(a0)
180000418: d3 96 e7 a0 	flt.s	a3, fa5, fa4
18000041c: 17 45 00 00 	auipc	a0, 0x4
180000420: 13 05 45 12 	addi	a0, a0, 0x124
180000424: 03 25 05 00 	lw	a0, 0x0(a0)
180000428: 97 45 00 00 	auipc	a1, 0x4
18000042c: 93 85 45 12 	addi	a1, a1, 0x124
180000430: 83 a5 05 00 	lw	a1, 0x0(a1)
180000434: 0b a6 16 00 	vx_split_n	a2, a3
180000438: 63 82 06 02 	beqz	a3, 0x18000045c <_Z19kernel_compute_costiilP5PointiiPfS1_PiPb+0x164>
18000043c: 6f 00 40 00 	j	0x180000440 <_Z19kernel_compute_costiilP5PointiiPfS1_PiPb+0x148>
180000440: b3 0c 9b 01 	add	s9, s6, s9
180000444: 93 06 10 00 	li	a3, 0x1
180000448: 23 80 dc 00 	sb	a3, 0x0(s9)
18000044c: d3 f7 e7 08 	fsub.s	fa5, fa5, fa4
180000450: 13 87 0d 00 	mv	a4, s11
180000454: 93 06 07 00 	mv	a3, a4
180000458: 6f 00 c0 02 	j	0x180000484 <_Z19kernel_compute_costiilP5PointiiPfS1_PiPb+0x18c>
18000045c: d3 77 f7 08 	fsub.s	fa5, fa4, fa5
180000460: 93 9c 5c 00 	slli	s9, s9, 0x5
180000464: b3 8c 99 01 	add	s9, s3, s9
180000468: 83 b6 0c 01 	ld	a3, 0x10(s9)
18000046c: 93 96 26 00 	slli	a3, a3, 0x2
180000470: 03 37 04 f8 	ld	a4, -0x80(s0)
180000474: b3 06 d7 00 	add	a3, a4, a3
180000478: 83 a6 06 00 	lw	a3, 0x0(a3)
18000047c: 13 87 0d 00 	mv	a4, s11
180000480: 6f 00 40 00 	j	0x180000484 <_Z19kernel_compute_costiilP5PointiiPfS1_PiPb+0x18c>
180000484: 0b 30 06 00 	vx_join	a2
180000488: 83 38 84 f8 	ld	a7, -0x78(s0)
18000048c: 13 88 0b 00 	mv	a6, s7
180000490: 83 37 04 f9 	ld	a5, -0x70(s0)
180000494: 13 86 0a 00 	mv	a2, s5
180000498: 93 03 0d 00 	mv	t2, s10
18000049c: 83 3e 84 f7 	ld	t4, -0x88(s0)
1800004a0: 03 3f 04 f7 	ld	t5, -0x90(s0)
1800004a4: 6f 00 40 00 	j	0x1800004a8 <_Z19kernel_compute_costiilP5PointiiPfS1_PiPb+0x1b0>
1800004a8: 9b 86 06 00 	sext.w	a3, a3
1800004ac: 93 96 26 00 	slli	a3, a3, 0x2
1800004b0: 83 32 84 f6 	ld	t0, -0x98(s0)
1800004b4: b3 86 d2 00 	add	a3, t0, a3
1800004b8: 07 a7 06 00 	flw	fa4, 0x0(a3)
1800004bc: d3 f7 e7 00 	fadd.s	fa5, fa5, fa4
1800004c0: 27 a0 f6 00 	fsw	fa5, 0x0(a3)
1800004c4: 6f 00 40 00 	j	0x1800004c8 <_Z19kernel_compute_costiilP5PointiiPfS1_PiPb+0x1d0>
1800004c8: 0b 30 09 00 	vx_join	s2
1800004cc: 6f 00 40 00 	j	0x1800004d0 <_Z19kernel_compute_costiilP5PointiiPfS1_PiPb+0x1d8>
1800004d0: 9b 84 14 00 	addiw	s1, s1, 0x1
1800004d4: 9b 06 0a 00 	sext.w	a3, s4
1800004d8: e3 98 d4 ea 	bne	s1, a3, 0x180000388 <_Z19kernel_compute_costiilP5PointiiPfS1_PiPb+0x90>
1800004dc: 6f 00 40 00 	j	0x1800004e0 <_Z19kernel_compute_costiilP5PointiiPfS1_PiPb+0x1e8>
1800004e0: 6f 00 40 00 	j	0x1800004e4 <_Z19kernel_compute_costiilP5PointiiPfS1_PiPb+0x1ec>
1800004e4: 83 30 81 09 	ld	ra, 0x98(sp)
1800004e8: 03 34 01 09 	ld	s0, 0x90(sp)
1800004ec: 83 34 81 08 	ld	s1, 0x88(sp)
1800004f0: 03 39 01 08 	ld	s2, 0x80(sp)
1800004f4: 83 39 81 07 	ld	s3, 0x78(sp)
1800004f8: 03 3a 01 07 	ld	s4, 0x70(sp)
1800004fc: 83 3a 81 06 	ld	s5, 0x68(sp)
180000500: 03 3b 01 06 	ld	s6, 0x60(sp)
180000504: 83 3b 81 05 	ld	s7, 0x58(sp)
180000508: 03 3c 01 05 	ld	s8, 0x50(sp)
18000050c: 83 3c 81 04 	ld	s9, 0x48(sp)
180000510: 03 3d 01 04 	ld	s10, 0x40(sp)
180000514: 83 3d 81 03 	ld	s11, 0x38(sp)
180000518: 13 01 01 0a 	addi	sp, sp, 0xa0
18000051c: 67 80 00 00 	ret

0000000180000520 <kernel_compute_costiilP5PointiiPfS1_PiPb_wrapper>:
180000520: 13 01 01 fe 	addi	sp, sp, -0x20
180000524: 23 3c 11 00 	sd	ra, 0x18(sp)
180000528: 03 36 05 01 	ld	a2, 0x10(a0)
18000052c: 83 36 85 01 	ld	a3, 0x18(a0)
180000530: 03 38 05 03 	ld	a6, 0x30(a0)
180000534: 83 38 85 03 	ld	a7, 0x38(a0)
180000538: 83 32 05 04 	ld	t0, 0x40(a0)
18000053c: 03 33 85 04 	ld	t1, 0x48(a0)
180000540: 83 27 85 02 	lw	a5, 0x28(a0)
180000544: 03 27 05 02 	lw	a4, 0x20(a0)
180000548: 83 25 85 00 	lw	a1, 0x8(a0)
18000054c: 03 25 05 00 	lw	a0, 0x0(a0)
180000550: 23 34 61 00 	sd	t1, 0x8(sp)
180000554: 23 30 51 00 	sd	t0, 0x0(sp)
180000558: ef f0 1f da 	jal	0x1800002f8 <_Z19kernel_compute_costiilP5PointiiPfS1_PiPb>
18000055c: 83 30 81 01 	ld	ra, 0x18(sp)
180000560: 13 01 01 02 	addi	sp, sp, 0x20
180000564: 67 80 00 00 	ret

0000000180000568 <_Exit>:
180000568: ef 00 50 30 	jal	0x18000106c <vx_perf_dump>
18000056c: 93 02 80 08 	li	t0, 0x88
180000570: 23 a0 a2 00 	sw	a0, 0x0(t0)
180000574: 0f 00 f0 0f 	fence
180000578: 0b 00 00 00 	vx_tmc	zero

000000018000057c <init_regs>:
18000057c: 97 41 00 00 	auipc	gp, 0x4
180000580: 93 81 41 6f 	addi	gp, gp, 0x6f4
180000584: 93 02 10 00 	li	t0, 0x1
180000588: 93 92 02 02 	slli	t0, t0, 0x20
18000058c: 37 01 01 00 	lui	sp, 0x10
180000590: 1b 01 f1 ff 	addiw	sp, sp, -0x1
180000594: 13 11 01 01 	slli	sp, sp, 0x10
180000598: 33 61 51 00 	or	sp, sp, t0
18000059c: f3 22 40 f1 	csrr	t0, mhartid
1800005a0: 13 93 d2 00 	slli	t1, t0, 0xd
1800005a4: 33 01 61 40 	sub	sp, sp, t1
1800005a8: 13 03 00 03 	li	t1, 0x30
1800005ac: b3 82 62 02 	mul	t0, t0, t1
1800005b0: 17 42 00 00 	auipc	tp, 0x4
1800005b4: 13 02 02 fd 	addi	tp, tp, -0x30
1800005b8: 33 02 52 00 	add	tp, tp, t0
1800005bc: 67 80 00 00 	ret

00000001800005c0 <init_regs_all>:
1800005c0: 93 02 f0 ff 	li	t0, -0x1
1800005c4: 0b 80 02 00 	vx_tmc	t0
1800005c8: ef f0 5f fb 	jal	0x18000057c <init_regs>
1800005cc: 0b 00 00 00 	vx_tmc	zero
1800005d0: 67 80 00 00 	ret

00000001800005d4 <init_tls_all>:
1800005d4: 93 02 f0 ff 	li	t0, -0x1
1800005d8: 0b 80 02 00 	vx_tmc	t0
1800005dc: ef 00 c0 00 	jal	0x1800005e8 <__init_tls>
1800005e0: 0b 00 00 00 	vx_tmc	zero
1800005e4: 67 80 00 00 	ret

00000001800005e8 <__init_tls>:
1800005e8: 13 01 01 ff 	addi	sp, sp, -0x10
1800005ec: 13 06 00 00 	li	a2, 0x0
1800005f0: 97 45 00 00 	auipc	a1, 0x4
1800005f4: 93 85 05 e8 	addi	a1, a1, -0x180
1800005f8: 13 05 02 00 	mv	a0, tp
1800005fc: 23 30 81 00 	sd	s0, 0x0(sp)
180000600: 23 34 11 00 	sd	ra, 0x8(sp)
180000604: 13 04 02 00 	mv	s0, tp
180000608: ef 20 c0 37 	jal	0x180002984 <memcpy>
18000060c: 13 05 00 00 	li	a0, 0x0
180000610: 33 05 a4 00 	add	a0, s0, a0
180000614: 03 34 01 00 	ld	s0, 0x0(sp)
180000618: 83 30 81 00 	ld	ra, 0x8(sp)
18000061c: 13 06 00 03 	li	a2, 0x30
180000620: 93 05 00 00 	li	a1, 0x0
180000624: 13 01 01 01 	addi	sp, sp, 0x10
180000628: 6f 20 90 0a 	j	0x180002ed0 <memset>

000000018000062c <__libc_init_array>:
18000062c: 13 01 01 fe 	addi	sp, sp, -0x20
180000630: 23 38 81 00 	sd	s0, 0x10(sp)
180000634: 23 30 21 01 	sd	s2, 0x0(sp)
180000638: 97 47 00 00 	auipc	a5, 0x4
18000063c: 93 87 87 e3 	addi	a5, a5, -0x1c8
180000640: 17 44 00 00 	auipc	s0, 0x4
180000644: 13 04 04 e3 	addi	s0, s0, -0x1d0
180000648: 23 3c 11 00 	sd	ra, 0x18(sp)
18000064c: 23 34 91 00 	sd	s1, 0x8(sp)
180000650: 33 89 87 40 	sub	s2, a5, s0
180000654: 63 80 87 02 	beq	a5, s0, 0x180000674 <__libc_init_array+0x48>
180000658: 13 59 39 40 	srai	s2, s2, 0x3
18000065c: 93 04 00 00 	li	s1, 0x0
180000660: 83 37 04 00 	ld	a5, 0x0(s0)
180000664: 93 84 14 00 	addi	s1, s1, 0x1
180000668: 13 04 84 00 	addi	s0, s0, 0x8
18000066c: e7 80 07 00 	jalr	a5
180000670: e3 e8 24 ff 	bltu	s1, s2, 0x180000660 <__libc_init_array+0x34>
180000674: 97 47 00 00 	auipc	a5, 0x4
180000678: 93 87 c7 df 	addi	a5, a5, -0x204
18000067c: 17 44 00 00 	auipc	s0, 0x4
180000680: 13 04 44 df 	addi	s0, s0, -0x20c
180000684: 33 89 87 40 	sub	s2, a5, s0
180000688: 13 59 39 40 	srai	s2, s2, 0x3
18000068c: 63 8e 87 00 	beq	a5, s0, 0x1800006a8 <__libc_init_array+0x7c>
180000690: 93 04 00 00 	li	s1, 0x0
180000694: 83 37 04 00 	ld	a5, 0x0(s0)
180000698: 93 84 14 00 	addi	s1, s1, 0x1
18000069c: 13 04 84 00 	addi	s0, s0, 0x8
1800006a0: e7 80 07 00 	jalr	a5
1800006a4: e3 e8 24 ff 	bltu	s1, s2, 0x180000694 <__libc_init_array+0x68>
1800006a8: 83 30 81 01 	ld	ra, 0x18(sp)
1800006ac: 03 34 01 01 	ld	s0, 0x10(sp)
1800006b0: 83 34 81 00 	ld	s1, 0x8(sp)
1800006b4: 03 39 01 00 	ld	s2, 0x0(sp)
1800006b8: 13 01 01 02 	addi	sp, sp, 0x20
1800006bc: 67 80 00 00 	ret

00000001800006c0 <__funcs_on_exit>:
1800006c0: 13 01 01 fe 	addi	sp, sp, -0x20
1800006c4: 23 38 81 00 	sd	s0, 0x10(sp)
1800006c8: 97 47 00 00 	auipc	a5, 0x4
1800006cc: 93 87 87 da 	addi	a5, a5, -0x258
1800006d0: 17 44 00 00 	auipc	s0, 0x4
1800006d4: 13 04 04 da 	addi	s0, s0, -0x260
1800006d8: 33 04 f4 40 	sub	s0, s0, a5
1800006dc: 23 34 91 00 	sd	s1, 0x8(sp)
1800006e0: 23 3c 11 00 	sd	ra, 0x18(sp)
1800006e4: 93 54 34 40 	srai	s1, s0, 0x3
1800006e8: 63 80 04 02 	beqz	s1, 0x180000708 <__funcs_on_exit+0x48>
1800006ec: 13 04 84 ff 	addi	s0, s0, -0x8
1800006f0: 33 04 f4 00 	add	s0, s0, a5
1800006f4: 83 37 04 00 	ld	a5, 0x0(s0)
1800006f8: 93 84 f4 ff 	addi	s1, s1, -0x1
1800006fc: 13 04 84 ff 	addi	s0, s0, -0x8
180000700: e7 80 07 00 	jalr	a5
180000704: e3 98 04 fe 	bnez	s1, 0x1800006f4 <__funcs_on_exit+0x34>
180000708: 83 30 81 01 	ld	ra, 0x18(sp)
18000070c: 03 34 01 01 	ld	s0, 0x10(sp)
180000710: 83 34 81 00 	ld	s1, 0x8(sp)
180000714: 13 01 01 02 	addi	sp, sp, 0x20
180000718: 67 80 00 00 	ret

000000018000071c <vx_putchar>:
18000071c: f3 22 40 f1 	csrr	t0, mhartid
180000720: 93 f2 f2 03 	andi	t0, t0, 0x3f
180000724: 13 03 00 04 	li	t1, 0x40
180000728: b3 82 62 00 	add	t0, t0, t1
18000072c: 23 80 a2 00 	sb	a0, 0x0(t0)
180000730: 67 80 00 00 	ret

0000000180000734 <__vprintf_cb>:
180000734: 83 37 85 00 	ld	a5, 0x8(a0)
180000738: 13 01 01 ff 	addi	sp, sp, -0x10
18000073c: 23 30 81 00 	sd	s0, 0x0(sp)
180000740: 83 b5 07 00 	ld	a1, 0x0(a5)
180000744: 13 04 05 00 	mv	s0, a0
180000748: 03 35 05 00 	ld	a0, 0x0(a0)
18000074c: 23 34 11 00 	sd	ra, 0x8(sp)
180000750: ef 20 c0 19 	jal	0x1800028ec <tiny_vprintf>
180000754: 83 30 81 00 	ld	ra, 0x8(sp)
180000758: 23 28 a4 00 	sw	a0, 0x10(s0)
18000075c: 03 34 01 00 	ld	s0, 0x0(sp)
180000760: 13 01 01 01 	addi	sp, sp, 0x10
180000764: 67 80 00 00 	ret

0000000180000768 <vx_printf>:
180000768: 13 01 01 f8 	addi	sp, sp, -0x80
18000076c: 23 34 f1 06 	sd	a5, 0x68(sp)
180000770: 93 07 81 04 	addi	a5, sp, 0x48
180000774: 13 03 05 00 	mv	t1, a0
180000778: 23 34 b1 04 	sd	a1, 0x48(sp)
18000077c: 23 34 f1 00 	sd	a5, 0x8(sp)
180000780: 23 38 f1 00 	sd	a5, 0x10(sp)
180000784: 17 05 00 00 	auipc	a0, 0x0
180000788: 13 05 05 fb 	addi	a0, a0, -0x50
18000078c: 93 07 01 01 	addi	a5, sp, 0x10
180000790: 93 05 81 01 	addi	a1, sp, 0x18
180000794: 23 3c 11 02 	sd	ra, 0x38(sp)
180000798: 23 38 c1 04 	sd	a2, 0x50(sp)
18000079c: 23 3c d1 04 	sd	a3, 0x58(sp)
1800007a0: 23 30 e1 06 	sd	a4, 0x60(sp)
1800007a4: 23 38 01 07 	sd	a6, 0x70(sp)
1800007a8: 23 3c 11 07 	sd	a7, 0x78(sp)
1800007ac: 23 3c 61 00 	sd	t1, 0x18(sp)
1800007b0: 23 30 f1 02 	sd	a5, 0x20(sp)
1800007b4: ef 00 d0 03 	jal	0x180000ff0 <vx_serial>
1800007b8: 83 30 81 03 	ld	ra, 0x38(sp)
1800007bc: 03 25 81 02 	lw	a0, 0x28(sp)
1800007c0: 13 01 01 08 	addi	sp, sp, 0x80
1800007c4: 67 80 00 00 	ret

00000001800007c8 <process_threads>:
1800007c8: 13 01 01 fb 	addi	sp, sp, -0x50
1800007cc: 23 34 11 04 	sd	ra, 0x48(sp)
1800007d0: 23 30 81 04 	sd	s0, 0x40(sp)
1800007d4: 23 3c 91 02 	sd	s1, 0x38(sp)
1800007d8: 23 38 21 03 	sd	s2, 0x30(sp)
1800007dc: 23 34 31 03 	sd	s3, 0x28(sp)
1800007e0: 23 30 41 03 	sd	s4, 0x20(sp)
1800007e4: 23 3c 51 01 	sd	s5, 0x18(sp)
1800007e8: 23 38 61 01 	sd	s6, 0x10(sp)
1800007ec: 23 34 71 01 	sd	s7, 0x8(sp)
1800007f0: 23 30 81 01 	sd	s8, 0x0(sp)
1800007f4: f3 26 00 34 	csrr	a3, mscratch
1800007f8: 73 25 00 fc 	csrr	a0, nt
1800007fc: 1b 0a 05 00 	sext.w	s4, a0
180000800: 73 26 10 cc 	csrr	a2, wid
180000804: 9b 08 06 00 	sext.w	a7, a2
180000808: f3 25 00 cc 	csrr	a1, tid
18000080c: 03 a8 86 01 	lw	a6, 0x18(a3)
180000810: 83 a7 c6 01 	lw	a5, 0x1c(a3)
180000814: 13 03 06 00 	mv	t1, a2
180000818: 3b 07 c8 02 	mulw	a4, a6, a2
18000081c: 63 e4 f8 00 	bltu	a7, a5, 0x180000824 <process_threads+0x5c>
180000820: 13 83 07 00 	mv	t1, a5
180000824: 3b 07 67 00 	addw	a4, a4, t1
180000828: b3 b4 f8 00 	sltu	s1, a7, a5
18000082c: bb 84 04 01 	addw	s1, s1, a6
180000830: 03 a8 06 01 	lw	a6, 0x10(a3)
180000834: 23 38 02 00 	sd	zero, 0x10(tp)
180000838: bb 07 a7 02 	mulw	a5, a4, a0
18000083c: 3b 87 05 01 	addw	a4, a1, a6
180000840: 13 08 02 01 	addi	a6, tp, 0x10
180000844: 23 26 02 00 	sw	zero, 0xc(tp)
180000848: 23 24 08 00 	sw	zero, 0x8(a6)
18000084c: 83 ba 06 00 	ld	s5, 0x0(a3)
180000850: 03 bb 86 00 	ld	s6, 0x8(a3)
180000854: bb 84 a4 02 	mulw	s1, s1, a0
180000858: 3b 84 e7 00 	addw	s0, a5, a4
18000085c: bb 84 84 00 	addw	s1, s1, s0
180000860: 63 7c 94 04 	bgeu	s0, s1, 0x1800008b8 <process_threads+0xf0>
180000864: 93 09 f0 ff 	li	s3, -0x1
180000868: 17 4c 00 00 	auipc	s8, 0x4
18000086c: 13 0c 8c d0 	addi	s8, s8, -0x2f8
180000870: 93 d9 09 02 	srli	s3, s3, 0x20
180000874: 93 0b 02 02 	addi	s7, tp, 0x20
180000878: 83 27 0c 00 	lw	a5, 0x0(s8)
18000087c: 03 26 4c 00 	lw	a2, 0x4(s8)
180000880: 13 05 0b 00 	mv	a0, s6
180000884: 3b 57 f4 02 	divuw	a4, s0, a5
180000888: bb 86 c7 02 	mulw	a3, a5, a2
18000088c: 3b 77 c7 02 	remuw	a4, a4, a2
180000890: bb 77 f4 02 	remuw	a5, s0, a5
180000894: 13 17 07 02 	slli	a4, a4, 0x20
180000898: bb 56 d4 02 	divuw	a3, s0, a3
18000089c: b3 f7 f9 00 	and	a5, s3, a5
1800008a0: b3 e7 e7 00 	or	a5, a5, a4
1800008a4: 3b 04 8a 00 	addw	s0, s4, s0
1800008a8: 23 30 f2 02 	sd	a5, 0x20(tp)
1800008ac: 23 a4 db 00 	sw	a3, 0x8(s7)
1800008b0: e7 80 0a 00 	jalr	s5
1800008b4: e3 62 94 fc 	bltu	s0, s1, 0x180000878 <process_threads+0xb0>
1800008b8: 83 30 81 04 	ld	ra, 0x48(sp)
1800008bc: 03 34 01 04 	ld	s0, 0x40(sp)
1800008c0: 83 34 81 03 	ld	s1, 0x38(sp)
1800008c4: 03 39 01 03 	ld	s2, 0x30(sp)
1800008c8: 83 39 81 02 	ld	s3, 0x28(sp)
1800008cc: 03 3a 01 02 	ld	s4, 0x20(sp)
1800008d0: 83 3a 81 01 	ld	s5, 0x18(sp)
1800008d4: 03 3b 01 01 	ld	s6, 0x10(sp)
1800008d8: 83 3b 81 00 	ld	s7, 0x8(sp)
1800008dc: 03 3c 01 00 	ld	s8, 0x0(sp)
1800008e0: 13 01 01 05 	addi	sp, sp, 0x50
1800008e4: 67 80 00 00 	ret

00000001800008e8 <process_threads_stub>:
1800008e8: 13 01 01 ff 	addi	sp, sp, -0x10
1800008ec: 23 34 11 00 	sd	ra, 0x8(sp)
1800008f0: 93 07 f0 ff 	li	a5, -0x1
1800008f4: 0b 80 07 00 	vx_tmc	a5
1800008f8: ef f0 1f ed 	jal	0x1800007c8 <process_threads>
1800008fc: 0b 00 00 00 	vx_tmc	zero
180000900: 83 30 81 00 	ld	ra, 0x8(sp)
180000904: 13 01 01 01 	addi	sp, sp, 0x10
180000908: 67 80 00 00 	ret

000000018000090c <process_thread_groups>:
18000090c: 13 01 01 fb 	addi	sp, sp, -0x50
180000910: 23 34 11 04 	sd	ra, 0x48(sp)
180000914: 23 30 81 04 	sd	s0, 0x40(sp)
180000918: 23 3c 91 02 	sd	s1, 0x38(sp)
18000091c: 23 38 21 03 	sd	s2, 0x30(sp)
180000920: 23 34 31 03 	sd	s3, 0x28(sp)
180000924: 23 30 41 03 	sd	s4, 0x20(sp)
180000928: 23 3c 51 01 	sd	s5, 0x18(sp)
18000092c: 23 38 61 01 	sd	s6, 0x10(sp)
180000930: 23 34 71 01 	sd	s7, 0x8(sp)
180000934: 23 30 81 01 	sd	s8, 0x0(sp)
180000938: f3 26 00 34 	csrr	a3, mscratch
18000093c: 73 2f 00 fc 	csrr	t5, nt
180000940: 73 26 10 cc 	csrr	a2, wid
180000944: 1b 05 06 00 	sext.w	a0, a2
180000948: f3 2e 00 cc 	csrr	t4, tid
18000094c: 83 a8 c6 01 	lw	a7, 0x1c(a3)
180000950: 97 45 00 00 	auipc	a1, 0x4
180000954: 93 85 05 c1 	addi	a1, a1, -0x3f0
180000958: 83 a4 86 01 	lw	s1, 0x18(a3)
18000095c: bb 77 16 03 	remuw	a5, a2, a7
180000960: 03 a7 05 00 	lw	a4, 0x0(a1)
180000964: 03 ae 45 00 	lw	t3, 0x4(a1)
180000968: 83 a5 46 01 	lw	a1, 0x14(a3)
18000096c: b3 34 95 00 	sltu	s1, a0, s1
180000970: 83 ba 06 00 	ld	s5, 0x0(a3)
180000974: 03 aa 06 02 	lw	s4, 0x20(a3)
180000978: 03 bb 86 00 	ld	s6, 0x8(a3)
18000097c: bb 84 b4 00 	addw	s1, s1, a1
180000980: 83 a5 06 01 	lw	a1, 0x10(a3)
180000984: 13 09 f0 ff 	li	s2, -0x1
180000988: 13 59 09 02 	srli	s2, s2, 0x20
18000098c: 13 03 02 01 	addi	t1, tp, 0x10
180000990: bb 87 e7 03 	mulw	a5, a5, t5
180000994: bb 87 d7 01 	addw	a5, a5, t4
180000998: bb d6 e7 02 	divuw	a3, a5, a4
18000099c: bb 0e c7 03 	mulw	t4, a4, t3
1800009a0: bb f6 c6 03 	remuw	a3, a3, t3
1800009a4: 3b f7 e7 02 	remuw	a4, a5, a4
1800009a8: 93 96 06 02 	slli	a3, a3, 0x20
1800009ac: 3b 56 16 03 	divuw	a2, a2, a7
1800009b0: 33 77 e9 00 	and	a4, s2, a4
1800009b4: 33 67 d7 00 	or	a4, a4, a3
1800009b8: 23 38 e2 00 	sd	a4, 0x10(tp)
1800009bc: bb d7 d7 03 	divuw	a5, a5, t4
1800009c0: 3b 04 b6 00 	addw	s0, a2, a1
1800009c4: 23 26 c2 00 	sw	a2, 0xc(tp)
1800009c8: bb 84 44 03 	mulw	s1, s1, s4
1800009cc: 23 24 f3 00 	sw	a5, 0x8(t1)
1800009d0: bb 84 84 00 	addw	s1, s1, s0
1800009d4: 63 78 94 04 	bgeu	s0, s1, 0x180000a24 <process_thread_groups+0x118>
1800009d8: 17 4c 00 00 	auipc	s8, 0x4
1800009dc: 13 0c 8c b9 	addi	s8, s8, -0x468
1800009e0: 93 0b 02 02 	addi	s7, tp, 0x20
1800009e4: 83 27 0c 00 	lw	a5, 0x0(s8)
1800009e8: 03 26 4c 00 	lw	a2, 0x4(s8)
1800009ec: 13 05 0b 00 	mv	a0, s6
1800009f0: 3b 57 f4 02 	divuw	a4, s0, a5
1800009f4: bb 86 c7 02 	mulw	a3, a5, a2
1800009f8: 3b 77 c7 02 	remuw	a4, a4, a2
1800009fc: bb 77 f4 02 	remuw	a5, s0, a5
180000a00: 13 17 07 02 	slli	a4, a4, 0x20
180000a04: bb 56 d4 02 	divuw	a3, s0, a3
180000a08: b3 77 f9 00 	and	a5, s2, a5
180000a0c: b3 e7 e7 00 	or	a5, a5, a4
180000a10: 3b 04 8a 00 	addw	s0, s4, s0
180000a14: 23 30 f2 02 	sd	a5, 0x20(tp)
180000a18: 23 a4 db 00 	sw	a3, 0x8(s7)
180000a1c: e7 80 0a 00 	jalr	s5
180000a20: e3 62 94 fc 	bltu	s0, s1, 0x1800009e4 <process_thread_groups+0xd8>
180000a24: 83 30 81 04 	ld	ra, 0x48(sp)
180000a28: 03 34 01 04 	ld	s0, 0x40(sp)
180000a2c: 83 34 81 03 	ld	s1, 0x38(sp)
180000a30: 03 39 01 03 	ld	s2, 0x30(sp)
180000a34: 83 39 81 02 	ld	s3, 0x28(sp)
180000a38: 03 3a 01 02 	ld	s4, 0x20(sp)
180000a3c: 83 3a 81 01 	ld	s5, 0x18(sp)
180000a40: 03 3b 01 01 	ld	s6, 0x10(sp)
180000a44: 83 3b 81 00 	ld	s7, 0x8(sp)
180000a48: 03 3c 01 00 	ld	s8, 0x0(sp)
180000a4c: 13 01 01 05 	addi	sp, sp, 0x50
180000a50: 67 80 00 00 	ret

0000000180000a54 <process_thread_groups_stub>:
180000a54: 13 01 01 ff 	addi	sp, sp, -0x10
180000a58: 23 34 11 00 	sd	ra, 0x8(sp)
180000a5c: 73 27 00 34 	csrr	a4, mscratch
180000a60: 83 27 c7 01 	lw	a5, 0x1c(a4)
180000a64: 03 26 47 02 	lw	a2, 0x24(a4)
180000a68: 73 27 10 cc 	csrr	a4, wid
180000a6c: 3b 77 f7 02 	remuw	a4, a4, a5
180000a70: 9b 87 f7 ff 	addiw	a5, a5, -0x1
180000a74: 9b 06 06 00 	sext.w	a3, a2
180000a78: 63 84 e7 00 	beq	a5, a4, 0x180000a80 <process_thread_groups_stub+0x2c>
180000a7c: 93 06 f0 ff 	li	a3, -0x1
180000a80: 0b 80 06 00 	vx_tmc	a3
180000a84: ef f0 9f e8 	jal	0x18000090c <process_thread_groups>
180000a88: f3 27 10 cc 	csrr	a5, wid
180000a8c: 9b 87 07 00 	sext.w	a5, a5
180000a90: 93 b7 17 00 	seqz	a5, a5
180000a94: 0b 80 07 00 	vx_tmc	a5
180000a98: 83 30 81 00 	ld	ra, 0x8(sp)
180000a9c: 13 01 01 01 	addi	sp, sp, 0x10
180000aa0: 67 80 00 00 	ret

0000000180000aa4 <process_remaining_threads>:
180000aa4: 13 01 01 fe 	addi	sp, sp, -0x20
180000aa8: 23 3c 11 00 	sd	ra, 0x18(sp)
180000aac: 23 38 81 00 	sd	s0, 0x10(sp)
180000ab0: 23 34 91 00 	sd	s1, 0x8(sp)
180000ab4: f3 24 00 34 	csrr	s1, mscratch
180000ab8: 73 24 00 cc 	csrr	s0, tid
180000abc: 83 a7 44 01 	lw	a5, 0x14(s1)
180000ac0: 9b 05 04 00 	sext.w	a1, s0
180000ac4: 17 25 00 00 	auipc	a0, 0x2
180000ac8: 13 05 45 6b 	addi	a0, a0, 0x6b4
180000acc: 3b 06 f4 00 	addw	a2, s0, a5
180000ad0: 13 04 06 00 	mv	s0, a2
180000ad4: ef f0 5f c9 	jal	0x180000768 <vx_printf>
180000ad8: 17 47 00 00 	auipc	a4, 0x4
180000adc: 13 07 87 a9 	addi	a4, a4, -0x568
180000ae0: 83 27 07 00 	lw	a5, 0x0(a4)
180000ae4: 03 26 47 00 	lw	a2, 0x4(a4)
180000ae8: 3b 57 f4 02 	divuw	a4, s0, a5
180000aec: 13 08 02 02 	addi	a6, tp, 0x20
180000af0: 83 b5 04 00 	ld	a1, 0x0(s1)
180000af4: 03 b5 84 00 	ld	a0, 0x8(s1)
180000af8: 83 30 81 01 	ld	ra, 0x18(sp)
180000afc: 83 34 81 00 	ld	s1, 0x8(sp)
180000b00: bb 88 c7 02 	mulw	a7, a5, a2
180000b04: bb 77 f4 02 	remuw	a5, s0, a5
180000b08: 3b 77 c7 02 	remuw	a4, a4, a2
180000b0c: 93 97 07 02 	slli	a5, a5, 0x20
180000b10: 93 d7 07 02 	srli	a5, a5, 0x20
180000b14: 3b 54 14 03 	divuw	s0, s0, a7
180000b18: 13 17 07 02 	slli	a4, a4, 0x20
180000b1c: b3 e7 e7 00 	or	a5, a5, a4
180000b20: 23 30 f2 02 	sd	a5, 0x20(tp)
180000b24: 23 24 88 00 	sw	s0, 0x8(a6)
180000b28: 03 34 01 01 	ld	s0, 0x10(sp)
180000b2c: 13 01 01 02 	addi	sp, sp, 0x20
180000b30: 67 80 05 00 	jr	a1

0000000180000b34 <vx_spawn_threads>:
180000b34: 13 01 01 f9 	addi	sp, sp, -0x70
180000b38: 23 3c 91 04 	sd	s1, 0x58(sp)
180000b3c: 23 38 21 05 	sd	s2, 0x50(sp)
180000b40: 23 34 11 06 	sd	ra, 0x68(sp)
180000b44: 23 30 81 06 	sd	s0, 0x60(sp)
180000b48: 23 34 31 05 	sd	s3, 0x48(sp)
180000b4c: 23 30 41 05 	sd	s4, 0x40(sp)
180000b50: 23 3c 51 03 	sd	s5, 0x38(sp)
180000b54: 23 38 61 03 	sd	s6, 0x30(sp)
180000b58: 13 89 06 00 	mv	s2, a3
180000b5c: 93 04 07 00 	mv	s1, a4
180000b60: 63 82 05 2c 	beqz	a1, 0x180000e24 <vx_spawn_threads+0x2f0>
180000b64: 63 04 06 18 	beqz	a2, 0x180000cec <vx_spawn_threads+0x1b8>
180000b68: 63 16 05 30 	bnez	a0, 0x180000e74 <vx_spawn_threads+0x340>
180000b6c: 93 07 10 00 	li	a5, 0x1
180000b70: 17 43 00 00 	auipc	t1, 0x4
180000b74: 13 03 03 a0 	addi	t1, t1, -0x600
180000b78: 97 48 00 00 	auipc	a7, 0x4
180000b7c: 93 88 88 9e 	addi	a7, a7, -0x618
180000b80: 23 20 f3 00 	sw	a5, 0x0(t1)
180000b84: 23 a0 f8 00 	sw	a5, 0x0(a7)
180000b88: 13 08 10 00 	li	a6, 0x1
180000b8c: 13 07 10 00 	li	a4, 0x1
180000b90: 23 22 e3 00 	sw	a4, 0x4(t1)
180000b94: 23 a2 e8 00 	sw	a4, 0x4(a7)
180000b98: 13 05 10 00 	li	a0, 0x1
180000b9c: 23 24 e3 00 	sw	a4, 0x8(t1)
180000ba0: 23 a4 a8 00 	sw	a0, 0x8(a7)
180000ba4: f3 2e 20 fc 	csrr	t4, nw
180000ba8: f3 25 10 fc 	csrr	a1, nw
180000bac: 1b 8e 05 00 	sext.w	t3, a1
180000bb0: 73 25 00 fc 	csrr	a0, nt
180000bb4: 73 23 20 cc 	csrr	t1, cid
180000bb8: 3b 86 a5 02 	mulw	a2, a1, a0
180000bbc: 9b 08 03 00 	sext.w	a7, t1
180000bc0: 63 68 f6 40 	bltu	a2, a5, 0x180000fd0 <vx_spawn_threads+0x49c>
180000bc4: 93 06 10 00 	li	a3, 0x1
180000bc8: 63 fc f6 16 	bgeu	a3, a5, 0x180000d40 <vx_spawn_threads+0x20c>
180000bcc: 3b f6 a7 02 	remuw	a2, a5, a0
180000bd0: 13 07 f0 ff 	li	a4, -0x1
180000bd4: bb d6 a7 02 	divuw	a3, a5, a0
180000bd8: 63 0a 06 00 	beqz	a2, 0x180000bec <vx_spawn_threads+0xb8>
180000bdc: 13 07 10 00 	li	a4, 0x1
180000be0: 3b 17 c7 00 	sllw	a4, a4, a2
180000be4: 1b 07 f7 ff 	addiw	a4, a4, -0x1
180000be8: 9b 86 16 00 	addiw	a3, a3, 0x1
180000bec: 1b 85 f5 ff 	addiw	a0, a1, -0x1
180000bf0: 1b 86 0e 00 	sext.w	a2, t4
180000bf4: bb 87 06 03 	mulw	a5, a3, a6
180000bf8: bb 87 a7 00 	addw	a5, a5, a0
180000bfc: 3b d5 b7 02 	divuw	a0, a5, a1
180000c00: 93 07 05 00 	mv	a5, a0
180000c04: 63 74 a6 00 	bgeu	a2, a0, 0x180000c0c <vx_spawn_threads+0xd8>
180000c08: 93 87 0e 00 	mv	a5, t4
180000c0c: 1b 86 07 00 	sext.w	a2, a5
180000c10: 63 f8 c8 0a 	bgeu	a7, a2, 0x180000cc0 <vx_spawn_threads+0x18c>
180000c14: 3b 7f f8 02 	remuw	t5, a6, a5
180000c18: 3b 56 f8 02 	divuw	a2, a6, a5
180000c1c: 13 05 0f 00 	mv	a0, t5
180000c20: 63 f4 e8 01 	bgeu	a7, t5, 0x180000c28 <vx_spawn_threads+0xf4>
180000c24: 1b 06 16 00 	addiw	a2, a2, 0x1
180000c28: 13 17 07 02 	slli	a4, a4, 0x20
180000c2c: bb d5 d5 02 	divuw	a1, a1, a3
180000c30: bb 8e c6 02 	mulw	t4, a3, a2
180000c34: 13 98 05 02 	slli	a6, a1, 0x20
180000c38: 13 58 08 02 	srli	a6, a6, 0x20
180000c3c: 33 68 e8 00 	or	a6, a6, a4
180000c40: 93 87 0e 00 	mv	a5, t4
180000c44: 63 66 de 29 	bltu	t3, t4, 0x180000ed0 <vx_spawn_threads+0x39c>
180000c48: 13 07 00 00 	li	a4, 0x0
180000c4c: 13 0e 10 00 	li	t3, 0x1
180000c50: 23 34 21 01 	sd	s2, 0x8(sp)
180000c54: 23 38 91 00 	sd	s1, 0x10(sp)
180000c58: bb 07 66 02 	mulw	a5, a2, t1
180000c5c: 63 f4 e8 01 	bgeu	a7, t5, 0x180000c64 <vx_spawn_threads+0x130>
180000c60: 13 05 03 00 	mv	a0, t1
180000c64: 13 06 f0 ff 	li	a2, -0x1
180000c68: 13 56 06 02 	srli	a2, a2, 0x20
180000c6c: bb 87 a7 00 	addw	a5, a5, a0
180000c70: 93 15 0e 02 	slli	a1, t3, 0x20
180000c74: b3 77 f6 00 	and	a5, a2, a5
180000c78: 13 95 06 02 	slli	a0, a3, 0x20
180000c7c: 33 77 c7 00 	and	a4, a4, a2
180000c80: b3 e7 b7 00 	or	a5, a5, a1
180000c84: 33 67 a7 00 	or	a4, a4, a0
180000c88: 23 3c f1 00 	sd	a5, 0x18(sp)
180000c8c: 23 30 e1 02 	sd	a4, 0x20(sp)
180000c90: 23 34 01 03 	sd	a6, 0x28(sp)
180000c94: 93 07 81 00 	addi	a5, sp, 0x8
180000c98: 73 90 07 34 	csrw	mscratch, a5
180000c9c: 97 47 00 00 	auipc	a5, 0x4
180000ca0: 23 a0 d7 8c 	sw	a3, -0x740(a5)
180000ca4: 97 07 00 00 	auipc	a5, 0x0
180000ca8: 93 87 07 db 	addi	a5, a5, -0x250
180000cac: 0b 90 fe 00 	vx_wspawn	t4, a5
180000cb0: ef f0 5f da 	jal	0x180000a54 <process_thread_groups_stub>
180000cb4: 93 07 10 00 	li	a5, 0x1
180000cb8: 13 07 00 00 	li	a4, 0x0
180000cbc: 0b 90 e7 00 	vx_wspawn	a5, a4
180000cc0: 13 05 00 00 	li	a0, 0x0
180000cc4: 83 30 81 06 	ld	ra, 0x68(sp)
180000cc8: 03 34 01 06 	ld	s0, 0x60(sp)
180000ccc: 83 34 81 05 	ld	s1, 0x58(sp)
180000cd0: 03 39 01 05 	ld	s2, 0x50(sp)
180000cd4: 83 39 81 04 	ld	s3, 0x48(sp)
180000cd8: 03 3a 01 04 	ld	s4, 0x40(sp)
180000cdc: 83 3a 81 03 	ld	s5, 0x38(sp)
180000ce0: 03 3b 01 03 	ld	s6, 0x30(sp)
180000ce4: 13 01 01 07 	addi	sp, sp, 0x70
180000ce8: 67 80 00 00 	ret
180000cec: 63 0e 05 1e 	beqz	a0, 0x180000ee8 <vx_spawn_threads+0x3b4>
180000cf0: 03 a8 05 00 	lw	a6, 0x0(a1)
180000cf4: 17 43 00 00 	auipc	t1, 0x4
180000cf8: 13 03 c3 87 	addi	t1, t1, -0x784
180000cfc: 97 48 00 00 	auipc	a7, 0x4
180000d00: 93 88 48 86 	addi	a7, a7, -0x79c
180000d04: 93 07 10 00 	li	a5, 0x1
180000d08: 23 20 03 01 	sw	a6, 0x0(t1)
180000d0c: 23 a0 f8 00 	sw	a5, 0x0(a7)
180000d10: 63 0c f5 1e 	beq	a0, a5, 0x180000f08 <vx_spawn_threads+0x3d4>
180000d14: 03 a7 45 00 	lw	a4, 0x4(a1)
180000d18: 93 06 20 00 	li	a3, 0x2
180000d1c: 23 a2 f8 00 	sw	a5, 0x4(a7)
180000d20: 23 22 e3 00 	sw	a4, 0x4(t1)
180000d24: 3b 08 e8 02 	mulw	a6, a6, a4
180000d28: 63 00 d5 2a 	beq	a0, a3, 0x180000fc8 <vx_spawn_threads+0x494>
180000d2c: 03 a7 85 00 	lw	a4, 0x8(a1)
180000d30: 3b 08 e8 02 	mulw	a6, a6, a4
180000d34: 13 05 10 00 	li	a0, 0x1
180000d38: 93 07 10 00 	li	a5, 0x1
180000d3c: 6f f0 1f e6 	j	0x180000b9c <vx_spawn_threads+0x68>
180000d40: 9b 07 f8 ff 	addiw	a5, a6, -0x1
180000d44: bb 87 c7 00 	addw	a5, a5, a2
180000d48: bb d6 c7 02 	divuw	a3, a5, a2
180000d4c: 17 47 00 00 	auipc	a4, 0x4
180000d50: 23 28 07 80 	sw	zero, -0x7f0(a4)
180000d54: 1b 87 0e 00 	sext.w	a4, t4
180000d58: 93 87 06 00 	mv	a5, a3
180000d5c: 63 74 d7 00 	bgeu	a4, a3, 0x180000d64 <vx_spawn_threads+0x230>
180000d60: 93 87 0e 00 	mv	a5, t4
180000d64: 1b 87 07 00 	sext.w	a4, a5
180000d68: e3 fc e8 f4 	bgeu	a7, a4, 0x180000cc0 <vx_spawn_threads+0x18c>
180000d6c: 3b 5a f8 02 	divuw	s4, a6, a5
180000d70: 93 0a 10 00 	li	s5, 0x1
180000d74: 3b 5b aa 02 	divuw	s6, s4, a0
180000d78: bb 79 aa 02 	remuw	s3, s4, a0
180000d7c: 13 07 0b 00 	mv	a4, s6
180000d80: 3b 78 f8 02 	remuw	a6, a6, a5
180000d84: 3b 05 65 03 	mulw	a0, a0, s6
180000d88: 63 70 6e 03 	bgeu	t3, s6, 0x180000da8 <vx_spawn_threads+0x274>
180000d8c: 13 0b 0e 00 	mv	s6, t3
180000d90: bb 5a b7 02 	divuw	s5, a4, a1
180000d94: 3b 77 b7 02 	remuw	a4, a4, a1
180000d98: 93 9a 0a 02 	slli	s5, s5, 0x20
180000d9c: 93 da 0a 02 	srli	s5, s5, 0x20
180000da0: 13 17 07 02 	slli	a4, a4, 0x20
180000da4: b3 ea ea 00 	or	s5, s5, a4
180000da8: 9b 07 08 00 	sext.w	a5, a6
180000dac: 3b 0a 43 03 	mulw	s4, t1, s4
180000db0: 63 e8 f8 12 	bltu	a7, a5, 0x180000ee0 <vx_spawn_threads+0x3ac>
180000db4: bb 05 0a 01 	addw	a1, s4, a6
180000db8: 3b 06 b5 00 	addw	a2, a0, a1
180000dbc: 17 25 00 00 	auipc	a0, 0x2
180000dc0: 13 05 c5 40 	addi	a0, a0, 0x40c
180000dc4: 13 8a 05 00 	mv	s4, a1
180000dc8: 13 04 06 00 	mv	s0, a2
180000dcc: ef f0 df 99 	jal	0x180000768 <vx_printf>
180000dd0: 93 07 81 00 	addi	a5, sp, 0x8
180000dd4: 23 34 21 01 	sd	s2, 0x8(sp)
180000dd8: 23 38 91 00 	sd	s1, 0x10(sp)
180000ddc: 23 2c 41 01 	sw	s4, 0x18(sp)
180000de0: 23 2e 81 00 	sw	s0, 0x1c(sp)
180000de4: 23 30 51 03 	sd	s5, 0x20(sp)
180000de8: 73 90 07 34 	csrw	mscratch, a5
180000dec: 63 14 0b 16 	bnez	s6, 0x180000f54 <vx_spawn_threads+0x420>
180000df0: 93 85 09 00 	mv	a1, s3
180000df4: 17 25 00 00 	auipc	a0, 0x2
180000df8: 13 05 45 40 	addi	a0, a0, 0x404
180000dfc: ef f0 df 96 	jal	0x180000768 <vx_printf>
180000e00: e3 8a 09 ea 	beqz	s3, 0x180000cb4 <vx_spawn_threads+0x180>
180000e04: 93 07 10 00 	li	a5, 0x1
180000e08: bb 97 37 01 	sllw	a5, a5, s3
180000e0c: 9b 87 f7 ff 	addiw	a5, a5, -0x1
180000e10: 0b 80 07 00 	vx_tmc	a5
180000e14: ef f0 1f c9 	jal	0x180000aa4 <process_remaining_threads>
180000e18: 13 05 10 00 	li	a0, 0x1
180000e1c: 0b 00 05 00 	vx_tmc	a0
180000e20: 6f f0 5f e9 	j	0x180000cb4 <vx_spawn_threads+0x180>
180000e24: 63 0a 06 14 	beqz	a2, 0x180000f78 <vx_spawn_threads+0x444>
180000e28: 63 0a 05 0e 	beqz	a0, 0x180000f1c <vx_spawn_threads+0x3e8>
180000e2c: 83 27 06 00 	lw	a5, 0x0(a2)
180000e30: 17 33 00 00 	auipc	t1, 0x3
180000e34: 13 03 03 74 	addi	t1, t1, 0x740
180000e38: 13 07 10 00 	li	a4, 0x1
180000e3c: 97 38 00 00 	auipc	a7, 0x3
180000e40: 93 88 48 72 	addi	a7, a7, 0x724
180000e44: 23 20 e3 00 	sw	a4, 0x0(t1)
180000e48: 23 a0 f8 00 	sw	a5, 0x0(a7)
180000e4c: 63 08 e5 16 	beq	a0, a4, 0x180000fbc <vx_spawn_threads+0x488>
180000e50: 83 26 46 00 	lw	a3, 0x4(a2)
180000e54: 93 05 20 00 	li	a1, 0x2
180000e58: 23 22 e3 00 	sw	a4, 0x4(t1)
180000e5c: 23 a2 d8 00 	sw	a3, 0x4(a7)
180000e60: bb 87 d7 02 	mulw	a5, a5, a3
180000e64: 63 02 b5 18 	beq	a0, a1, 0x180000fe8 <vx_spawn_threads+0x4b4>
180000e68: 03 25 86 00 	lw	a0, 0x8(a2)
180000e6c: bb 87 a7 02 	mulw	a5, a5, a0
180000e70: 6f 00 80 0d 	j	0x180000f48 <vx_spawn_threads+0x414>
180000e74: 03 a8 05 00 	lw	a6, 0x0(a1)
180000e78: 83 27 06 00 	lw	a5, 0x0(a2)
180000e7c: 17 33 00 00 	auipc	t1, 0x3
180000e80: 13 03 43 6f 	addi	t1, t1, 0x6f4
180000e84: 97 38 00 00 	auipc	a7, 0x3
180000e88: 93 88 c8 6d 	addi	a7, a7, 0x6dc
180000e8c: 23 20 03 01 	sw	a6, 0x0(t1)
180000e90: 23 a0 f8 00 	sw	a5, 0x0(a7)
180000e94: 13 07 10 00 	li	a4, 0x1
180000e98: e3 0a e5 ce 	beq	a0, a4, 0x180000b8c <vx_spawn_threads+0x58>
180000e9c: 83 a6 45 00 	lw	a3, 0x4(a1)
180000ea0: 03 27 46 00 	lw	a4, 0x4(a2)
180000ea4: 93 0e 20 00 	li	t4, 0x2
180000ea8: 23 22 d3 00 	sw	a3, 0x4(t1)
180000eac: 23 a2 e8 00 	sw	a4, 0x4(a7)
180000eb0: 3b 08 d8 02 	mulw	a6, a6, a3
180000eb4: bb 87 e7 02 	mulw	a5, a5, a4
180000eb8: 63 0c d5 0f 	beq	a0, t4, 0x180000fb0 <vx_spawn_threads+0x47c>
180000ebc: 03 a7 85 00 	lw	a4, 0x8(a1)
180000ec0: 03 25 86 00 	lw	a0, 0x8(a2)
180000ec4: 3b 08 e8 02 	mulw	a6, a6, a4
180000ec8: bb 87 a7 02 	mulw	a5, a5, a0
180000ecc: 6f f0 1f cd 	j	0x180000b9c <vx_spawn_threads+0x68>
180000ed0: bb 8e b6 02 	mulw	t4, a3, a1
180000ed4: 3b de d7 03 	divuw	t3, a5, t4
180000ed8: 3b f7 d7 03 	remuw	a4, a5, t4
180000edc: 6f f0 5f d7 	j	0x180000c50 <vx_spawn_threads+0x11c>
180000ee0: 13 08 03 00 	mv	a6, t1
180000ee4: 6f f0 1f ed 	j	0x180000db4 <vx_spawn_threads+0x280>
180000ee8: 93 07 10 00 	li	a5, 0x1
180000eec: 17 33 00 00 	auipc	t1, 0x3
180000ef0: 13 03 43 68 	addi	t1, t1, 0x684
180000ef4: 97 38 00 00 	auipc	a7, 0x3
180000ef8: 93 88 c8 66 	addi	a7, a7, 0x66c
180000efc: 23 20 f3 00 	sw	a5, 0x0(t1)
180000f00: 23 a0 f8 00 	sw	a5, 0x0(a7)
180000f04: 13 08 10 00 	li	a6, 0x1
180000f08: 93 07 10 00 	li	a5, 0x1
180000f0c: 23 22 f3 00 	sw	a5, 0x4(t1)
180000f10: 23 a2 f8 00 	sw	a5, 0x4(a7)
180000f14: 13 07 10 00 	li	a4, 0x1
180000f18: 6f f0 df e1 	j	0x180000d34 <vx_spawn_threads+0x200>
180000f1c: 93 07 10 00 	li	a5, 0x1
180000f20: 93 97 07 02 	slli	a5, a5, 0x20
180000f24: 93 87 17 00 	addi	a5, a5, 0x1
180000f28: 17 33 00 00 	auipc	t1, 0x3
180000f2c: 13 03 83 64 	addi	t1, t1, 0x648
180000f30: 97 38 00 00 	auipc	a7, 0x3
180000f34: 93 88 08 63 	addi	a7, a7, 0x630
180000f38: 23 30 f3 00 	sd	a5, 0x0(t1)
180000f3c: 23 b0 f8 00 	sd	a5, 0x0(a7)
180000f40: 13 05 10 00 	li	a0, 0x1
180000f44: 93 07 10 00 	li	a5, 0x1
180000f48: 13 07 10 00 	li	a4, 0x1
180000f4c: 13 08 10 00 	li	a6, 0x1
180000f50: 6f f0 df c4 	j	0x180000b9c <vx_spawn_threads+0x68>
180000f54: 97 07 00 00 	auipc	a5, 0x0
180000f58: 93 87 47 99 	addi	a5, a5, -0x66c
180000f5c: 0b 10 fb 00 	vx_wspawn	s6, a5
180000f60: 93 07 f0 ff 	li	a5, -0x1
180000f64: 0b 80 07 00 	vx_tmc	a5
180000f68: ef f0 1f 86 	jal	0x1800007c8 <process_threads>
180000f6c: 13 05 10 00 	li	a0, 0x1
180000f70: 0b 00 05 00 	vx_tmc	a0
180000f74: 6f f0 df e7 	j	0x180000df0 <vx_spawn_threads+0x2bc>
180000f78: 93 07 10 00 	li	a5, 0x1
180000f7c: 93 97 07 02 	slli	a5, a5, 0x20
180000f80: 93 87 17 00 	addi	a5, a5, 0x1
180000f84: 17 33 00 00 	auipc	t1, 0x3
180000f88: 13 03 c3 5e 	addi	t1, t1, 0x5ec
180000f8c: 97 38 00 00 	auipc	a7, 0x3
180000f90: 93 88 48 5d 	addi	a7, a7, 0x5d4
180000f94: 23 30 f3 00 	sd	a5, 0x0(t1)
180000f98: 23 b0 f8 00 	sd	a5, 0x0(a7)
180000f9c: 13 07 10 00 	li	a4, 0x1
180000fa0: 13 05 10 00 	li	a0, 0x1
180000fa4: 13 08 10 00 	li	a6, 0x1
180000fa8: 93 07 10 00 	li	a5, 0x1
180000fac: 6f f0 1f bf 	j	0x180000b9c <vx_spawn_threads+0x68>
180000fb0: 13 07 10 00 	li	a4, 0x1
180000fb4: 13 05 10 00 	li	a0, 0x1
180000fb8: 6f f0 5f be 	j	0x180000b9c <vx_spawn_threads+0x68>
180000fbc: 23 22 a3 00 	sw	a0, 0x4(t1)
180000fc0: 23 a2 a8 00 	sw	a0, 0x4(a7)
180000fc4: 6f f0 5f f8 	j	0x180000f48 <vx_spawn_threads+0x414>
180000fc8: 13 07 10 00 	li	a4, 0x1
180000fcc: 6f f0 9f d6 	j	0x180000d34 <vx_spawn_threads+0x200>
180000fd0: 93 85 07 00 	mv	a1, a5
180000fd4: 17 25 00 00 	auipc	a0, 0x2
180000fd8: 13 05 45 1c 	addi	a0, a0, 0x1c4
180000fdc: ef f0 cf f8 	jal	0x180000768 <vx_printf>
180000fe0: 13 05 f0 ff 	li	a0, -0x1
180000fe4: 6f f0 1f ce 	j	0x180000cc4 <vx_spawn_threads+0x190>
180000fe8: 13 05 10 00 	li	a0, 0x1
180000fec: 6f f0 df f5 	j	0x180000f48 <vx_spawn_threads+0x414>

0000000180000ff0 <vx_serial>:
180000ff0: 13 01 81 fc 	addi	sp, sp, -0x38
180000ff4: 23 38 11 02 	sd	ra, 0x30(sp)
180000ff8: 23 34 51 03 	sd	s5, 0x28(sp)
180000ffc: 23 30 41 03 	sd	s4, 0x20(sp)
180001000: 23 3c 31 01 	sd	s3, 0x18(sp)
180001004: 23 38 21 01 	sd	s2, 0x10(sp)
180001008: 23 34 91 00 	sd	s1, 0x8(sp)
18000100c: 23 30 81 00 	sd	s0, 0x0(sp)
180001010: 13 0a 05 00 	mv	s4, a0
180001014: 93 89 05 00 	mv	s3, a1
180001018: 73 29 00 fc 	csrr	s2, nt
18000101c: f3 24 00 cc 	csrr	s1, tid
180001020: 13 04 00 00 	li	s0, 0x0

0000000180001024 <label_loop>:
180001024: b3 02 94 40 	sub	t0, s0, s1
180001028: 13 b3 12 00 	seqz	t1, t0
18000102c: 8b 2a 03 00 	vx_split	s5, t1
180001030: 63 96 02 00 	bnez	t0, 0x18000103c <label_join>
180001034: 13 85 09 00 	mv	a0, s3
180001038: e7 00 0a 00 	jalr	s4

000000018000103c <label_join>:
18000103c: 0b b0 0a 00 	vx_join	s5
180001040: 13 04 14 00 	addi	s0, s0, 0x1
180001044: e3 40 24 ff 	blt	s0, s2, 0x180001024 <label_loop>
180001048: 83 30 01 03 	ld	ra, 0x30(sp)
18000104c: 83 3a 81 02 	ld	s5, 0x28(sp)
180001050: 03 3a 01 02 	ld	s4, 0x20(sp)
180001054: 83 39 81 01 	ld	s3, 0x18(sp)
180001058: 03 39 01 01 	ld	s2, 0x10(sp)
18000105c: 83 34 81 00 	ld	s1, 0x8(sp)
180001060: 03 34 01 00 	ld	s0, 0x0(sp)
180001064: 13 01 81 03 	addi	sp, sp, 0x38
180001068: 67 80 00 00 	ret

000000018000106c <vx_perf_dump>:
18000106c: 73 27 20 cc 	csrr	a4, cid
180001070: 1b 07 07 00 	sext.w	a4, a4
180001074: 13 17 87 00 	slli	a4, a4, 0x8
180001078: 93 07 07 08 	addi	a5, a4, 0x80
18000107c: f3 26 00 b0 	csrr	a3, mcycle
180001080: 23 30 d7 08 	sd	a3, 0x80(a4)
180001084: 73 27 20 b0 	csrr	a4, minstret
180001088: 23 b8 e7 00 	sd	a4, 0x10(a5)
18000108c: 73 27 30 b0 	csrr	a4, mhpmcounter3
180001090: 23 bc e7 00 	sd	a4, 0x18(a5)
180001094: 73 27 40 b0 	csrr	a4, mhpmcounter4
180001098: 23 b0 e7 02 	sd	a4, 0x20(a5)
18000109c: 73 27 50 b0 	csrr	a4, mhpmcounter5
1800010a0: 23 b4 e7 02 	sd	a4, 0x28(a5)
1800010a4: 73 27 60 b0 	csrr	a4, mhpmcounter6
1800010a8: 23 b8 e7 02 	sd	a4, 0x30(a5)
1800010ac: 73 27 70 b0 	csrr	a4, mhpmcounter7
1800010b0: 23 bc e7 02 	sd	a4, 0x38(a5)
1800010b4: 73 27 80 b0 	csrr	a4, mhpmcounter8
1800010b8: 23 b0 e7 04 	sd	a4, 0x40(a5)
1800010bc: 73 27 90 b0 	csrr	a4, mhpmcounter9
1800010c0: 23 b4 e7 04 	sd	a4, 0x48(a5)
1800010c4: 73 27 a0 b0 	csrr	a4, mhpmcounter10
1800010c8: 23 b8 e7 04 	sd	a4, 0x50(a5)
1800010cc: 73 27 b0 b0 	csrr	a4, mhpmcounter11
1800010d0: 23 bc e7 04 	sd	a4, 0x58(a5)
1800010d4: 73 27 c0 b0 	csrr	a4, mhpmcounter12
1800010d8: 23 b0 e7 06 	sd	a4, 0x60(a5)
1800010dc: 73 27 d0 b0 	csrr	a4, mhpmcounter13
1800010e0: 23 b4 e7 06 	sd	a4, 0x68(a5)
1800010e4: 73 27 e0 b0 	csrr	a4, mhpmcounter14
1800010e8: 23 b8 e7 06 	sd	a4, 0x70(a5)
1800010ec: 73 27 f0 b0 	csrr	a4, mhpmcounter15
1800010f0: 23 bc e7 06 	sd	a4, 0x78(a5)
1800010f4: 73 27 00 b1 	csrr	a4, mhpmcounter16
1800010f8: 23 b0 e7 08 	sd	a4, 0x80(a5)
1800010fc: 73 27 10 b1 	csrr	a4, mhpmcounter17
180001100: 23 b4 e7 08 	sd	a4, 0x88(a5)
180001104: 73 27 20 b1 	csrr	a4, mhpmcounter18
180001108: 23 b8 e7 08 	sd	a4, 0x90(a5)
18000110c: 73 27 30 b1 	csrr	a4, mhpmcounter19
180001110: 23 bc e7 08 	sd	a4, 0x98(a5)
180001114: 73 27 40 b1 	csrr	a4, mhpmcounter20
180001118: 23 b0 e7 0a 	sd	a4, 0xa0(a5)
18000111c: 73 27 50 b1 	csrr	a4, mhpmcounter21
180001120: 23 b4 e7 0a 	sd	a4, 0xa8(a5)
180001124: 73 27 60 b1 	csrr	a4, mhpmcounter22
180001128: 23 b8 e7 0a 	sd	a4, 0xb0(a5)
18000112c: 73 27 70 b1 	csrr	a4, mhpmcounter23
180001130: 23 bc e7 0a 	sd	a4, 0xb8(a5)
180001134: 73 27 80 b1 	csrr	a4, mhpmcounter24
180001138: 23 b0 e7 0c 	sd	a4, 0xc0(a5)
18000113c: 73 27 90 b1 	csrr	a4, mhpmcounter25
180001140: 23 b4 e7 0c 	sd	a4, 0xc8(a5)
180001144: 73 27 a0 b1 	csrr	a4, mhpmcounter26
180001148: 23 b8 e7 0c 	sd	a4, 0xd0(a5)
18000114c: 73 27 b0 b1 	csrr	a4, mhpmcounter27
180001150: 23 bc e7 0c 	sd	a4, 0xd8(a5)
180001154: 73 27 c0 b1 	csrr	a4, mhpmcounter28
180001158: 23 b0 e7 0e 	sd	a4, 0xe0(a5)
18000115c: 73 27 d0 b1 	csrr	a4, mhpmcounter29
180001160: 23 b4 e7 0e 	sd	a4, 0xe8(a5)
180001164: 73 27 e0 b1 	csrr	a4, mhpmcounter30
180001168: 23 b8 e7 0e 	sd	a4, 0xf0(a5)
18000116c: 73 27 f0 b1 	csrr	a4, mhpmcounter31
180001170: 23 bc e7 0e 	sd	a4, 0xf8(a5)
180001174: 67 80 00 00 	ret

0000000180001178 <_out_null>:
180001178: 67 80 00 00 	ret

000000018000117c <_out_rev>:
18000117c: 13 01 01 fa 	addi	sp, sp, -0x60
180001180: 23 34 91 04 	sd	s1, 0x48(sp)
180001184: 23 30 21 05 	sd	s2, 0x40(sp)
180001188: 23 3c 31 03 	sd	s3, 0x38(sp)
18000118c: 23 38 41 03 	sd	s4, 0x30(sp)
180001190: 23 34 51 03 	sd	s5, 0x28(sp)
180001194: 23 30 61 03 	sd	s6, 0x20(sp)
180001198: 93 0a 06 00 	mv	s5, a2
18000119c: 23 38 81 01 	sd	s8, 0x10(sp)
1800011a0: 23 34 91 01 	sd	s9, 0x8(sp)
1800011a4: 23 30 a1 01 	sd	s10, 0x0(sp)
1800011a8: 23 3c 11 04 	sd	ra, 0x58(sp)
1800011ac: 23 38 81 04 	sd	s0, 0x50(sp)
1800011b0: 23 3c 71 01 	sd	s7, 0x18(sp)
1800011b4: 13 f6 38 00 	andi	a2, a7, 0x3
1800011b8: 93 8c 08 00 	mv	s9, a7
1800011bc: 13 09 05 00 	mv	s2, a0
1800011c0: 93 89 05 00 	mv	s3, a1
1800011c4: 13 8a 06 00 	mv	s4, a3
1800011c8: 13 0b 07 00 	mv	s6, a4
1800011cc: 13 8d 07 00 	mv	s10, a5
1800011d0: 13 0c 08 00 	mv	s8, a6
1800011d4: 93 84 0a 00 	mv	s1, s5
1800011d8: 63 1c 06 02 	bnez	a2, 0x180001210 <_out_rev+0x94>
1800011dc: 93 17 08 02 	slli	a5, a6, 0x20
1800011e0: 93 d7 07 02 	srli	a5, a5, 0x20
1800011e4: b3 84 a7 41 	sub	s1, a5, s10
1800011e8: b3 84 54 01 	add	s1, s1, s5
1800011ec: 13 84 0a 00 	mv	s0, s5
1800011f0: 63 70 fd 0c 	bgeu	s10, a5, 0x1800012b0 <_out_rev+0x134>
1800011f4: 13 06 04 00 	mv	a2, s0
1800011f8: 93 06 0a 00 	mv	a3, s4
1800011fc: 13 04 14 00 	addi	s0, s0, 0x1
180001200: 93 85 09 00 	mv	a1, s3
180001204: 13 05 00 02 	li	a0, 0x20
180001208: e7 00 09 00 	jalr	s2
18000120c: e3 14 94 fe 	bne	s0, s1, 0x1800011f4 <_out_rev+0x78>
180001210: 33 04 ab 01 	add	s0, s6, s10
180001214: b3 0b 94 00 	add	s7, s0, s1
180001218: 63 02 0d 02 	beqz	s10, 0x18000123c <_out_rev+0xc0>
18000121c: 03 45 f4 ff 	lbu	a0, -0x1(s0)
180001220: 33 86 8b 40 	sub	a2, s7, s0
180001224: 93 06 0a 00 	mv	a3, s4
180001228: 13 04 f4 ff 	addi	s0, s0, -0x1
18000122c: 93 85 09 00 	mv	a1, s3
180001230: e7 00 09 00 	jalr	s2
180001234: e3 14 8b fe 	bne	s6, s0, 0x18000121c <_out_rev+0xa0>
180001238: b3 84 a4 01 	add	s1, s1, s10
18000123c: 93 fc 2c 00 	andi	s9, s9, 0x2
180001240: 63 8a 0c 02 	beqz	s9, 0x180001274 <_out_rev+0xf8>
180001244: 13 1c 0c 02 	slli	s8, s8, 0x20
180001248: b3 8a 54 41 	sub	s5, s1, s5
18000124c: 13 5c 0c 02 	srli	s8, s8, 0x20
180001250: 63 f2 8a 03 	bgeu	s5, s8, 0x180001274 <_out_rev+0xf8>
180001254: 13 86 04 00 	mv	a2, s1
180001258: 93 8a 1a 00 	addi	s5, s5, 0x1
18000125c: 93 06 0a 00 	mv	a3, s4
180001260: 93 85 09 00 	mv	a1, s3
180001264: 13 05 00 02 	li	a0, 0x20
180001268: 93 84 14 00 	addi	s1, s1, 0x1
18000126c: e7 00 09 00 	jalr	s2
180001270: e3 e2 8a ff 	bltu	s5, s8, 0x180001254 <_out_rev+0xd8>
180001274: 83 30 81 05 	ld	ra, 0x58(sp)
180001278: 03 34 01 05 	ld	s0, 0x50(sp)
18000127c: 03 39 01 04 	ld	s2, 0x40(sp)
180001280: 83 39 81 03 	ld	s3, 0x38(sp)
180001284: 03 3a 01 03 	ld	s4, 0x30(sp)
180001288: 83 3a 81 02 	ld	s5, 0x28(sp)
18000128c: 03 3b 01 02 	ld	s6, 0x20(sp)
180001290: 83 3b 81 01 	ld	s7, 0x18(sp)
180001294: 03 3c 01 01 	ld	s8, 0x10(sp)
180001298: 83 3c 81 00 	ld	s9, 0x8(sp)
18000129c: 03 3d 01 00 	ld	s10, 0x0(sp)
1800012a0: 13 85 04 00 	mv	a0, s1
1800012a4: 83 34 81 04 	ld	s1, 0x48(sp)
1800012a8: 13 01 01 06 	addi	sp, sp, 0x60
1800012ac: 67 80 00 00 	ret
1800012b0: 93 84 0a 00 	mv	s1, s5
1800012b4: 6f f0 df f5 	j	0x180001210 <_out_rev+0x94>

00000001800012b8 <_ntoa_long_long>:
1800012b8: 13 01 01 fb 	addi	sp, sp, -0x50
1800012bc: 23 30 81 04 	sd	s0, 0x40(sp)
1800012c0: 03 24 81 05 	lw	s0, 0x58(sp)
1800012c4: 23 3c 91 02 	sd	s1, 0x38(sp)
1800012c8: 23 38 21 03 	sd	s2, 0x30(sp)
1800012cc: 23 34 31 03 	sd	s3, 0x28(sp)
1800012d0: 23 34 11 04 	sd	ra, 0x48(sp)
1800012d4: 93 0e 08 00 	mv	t4, a6
1800012d8: 13 0e 07 00 	mv	t3, a4
1800012dc: 03 28 01 05 	lw	a6, 0x50(sp)
1800012e0: 93 84 07 00 	mv	s1, a5
1800012e4: 93 79 04 40 	andi	s3, s0, 0x400
1800012e8: 13 79 04 01 	andi	s2, s0, 0x10
1800012ec: 63 1a 07 00 	bnez	a4, 0x180001300 <_ntoa_long_long+0x48>
1800012f0: 13 09 04 00 	mv	s2, s0
1800012f4: 13 74 f4 fe 	andi	s0, s0, -0x11
1800012f8: 63 9e 09 0a 	bnez	s3, 0x1800013b4 <_ntoa_long_long+0xfc>
1800012fc: 13 09 00 00 	li	s2, 0x0
180001300: 93 77 04 02 	andi	a5, s0, 0x20
180001304: 93 02 10 06 	li	t0, 0x61
180001308: 63 9c 07 12 	bnez	a5, 0x180001440 <_ntoa_long_long+0x188>
18000130c: 93 07 00 00 	li	a5, 0x0
180001310: 13 07 01 00 	mv	a4, sp
180001314: 93 03 90 00 	li	t2, 0x9
180001318: 9b 82 62 ff 	addiw	t0, t0, -0xa
18000131c: 93 00 00 02 	li	ra, 0x20
180001320: 6f 00 c0 00 	j	0x18000132c <_ntoa_long_long+0x74>
180001324: 63 8c 17 02 	beq	a5, ra, 0x18000135c <_ntoa_long_long+0xa4>
180001328: 13 0e 03 00 	mv	t3, t1
18000132c: 33 7f de 03 	remu	t5, t3, t4
180001330: 13 73 ff 0f 	andi	t1, t5, 0xff
180001334: 9b 0f 03 03 	addiw	t6, t1, 0x30
180001338: 3b 83 62 00 	addw	t1, t0, t1
18000133c: 13 73 f3 0f 	andi	t1, t1, 0xff
180001340: 63 e4 e3 01 	bltu	t2, t5, 0x180001348 <_ntoa_long_long+0x90>
180001344: 13 f3 ff 0f 	andi	t1, t6, 0xff
180001348: 93 87 17 00 	addi	a5, a5, 0x1
18000134c: 33 0f f7 00 	add	t5, a4, a5
180001350: a3 0f 6f fe 	sb	t1, -0x1(t5)
180001354: 33 53 de 03 	divu	t1, t3, t4
180001358: e3 76 de fd 	bgeu	t3, t4, 0x180001324 <_ntoa_long_long+0x6c>
18000135c: 13 73 24 00 	andi	t1, s0, 0x2
180001360: 9b 83 0e 00 	sext.w	t2, t4
180001364: 63 02 03 06 	beqz	t1, 0x1800013c8 <_ntoa_long_long+0x110>
180001368: 63 00 09 12 	beqz	s2, 0x180001488 <_ntoa_long_long+0x1d0>
18000136c: 63 9e 09 16 	bnez	s3, 0x1800014e8 <_ntoa_long_long+0x230>
180001370: 63 9c 07 0c 	bnez	a5, 0x180001448 <_ntoa_long_long+0x190>
180001374: 93 07 00 01 	li	a5, 0x10
180001378: 63 80 fe 2c 	beq	t4, a5, 0x180001638 <_ntoa_long_long+0x380>
18000137c: 93 07 20 00 	li	a5, 0x2
180001380: 63 86 f3 2c 	beq	t2, a5, 0x18000164c <_ntoa_long_long+0x394>
180001384: 93 07 00 03 	li	a5, 0x30
180001388: 23 00 f1 00 	sb	a5, 0x0(sp)
18000138c: 13 0e 10 00 	li	t3, 0x1
180001390: 63 9e 04 18 	bnez	s1, 0x18000152c <_ntoa_long_long+0x274>
180001394: 93 77 44 00 	andi	a5, s0, 0x4
180001398: 63 86 07 22 	beqz	a5, 0x1800015c4 <_ntoa_long_long+0x30c>
18000139c: 93 07 0e 02 	addi	a5, t3, 0x20
1800013a0: b3 88 27 00 	add	a7, a5, sp
1800013a4: 13 03 b0 02 	li	t1, 0x2b
1800013a8: 93 07 1e 00 	addi	a5, t3, 0x1
1800013ac: 23 80 68 fe 	sb	t1, -0x20(a7)
1800013b0: 6f 00 40 0e 	j	0x180001494 <_ntoa_long_long+0x1dc>
1800013b4: 13 79 29 00 	andi	s2, s2, 0x2
1800013b8: 63 16 09 18 	bnez	s2, 0x180001544 <_ntoa_long_long+0x28c>
1800013bc: 9b 83 0e 00 	sext.w	t2, t4
1800013c0: 93 07 00 00 	li	a5, 0x0
1800013c4: 13 07 01 00 	mv	a4, sp
1800013c8: 13 9e 08 02 	slli	t3, a7, 0x20
1800013cc: 13 5e 0e 02 	srli	t3, t3, 0x20
1800013d0: 63 14 08 0e 	bnez	a6, 0x1800014b8 <_ntoa_long_long+0x200>
1800013d4: e3 fa c7 f9 	bgeu	a5, t3, 0x180001368 <_ntoa_long_long+0xb0>
1800013d8: 13 03 00 02 	li	t1, 0x20
1800013dc: 93 72 14 00 	andi	t0, s0, 0x1
1800013e0: 63 8e 67 26 	beq	a5, t1, 0x18000165c <_ntoa_long_long+0x3a4>
1800013e4: 13 0f 00 03 	li	t5, 0x30
1800013e8: 93 0f 00 02 	li	t6, 0x20
1800013ec: 6f 00 80 00 	j	0x1800013f4 <_ntoa_long_long+0x13c>
1800013f0: 63 8e f7 11 	beq	a5, t6, 0x18000150c <_ntoa_long_long+0x254>
1800013f4: 93 87 17 00 	addi	a5, a5, 0x1
1800013f8: 33 03 f7 00 	add	t1, a4, a5
1800013fc: a3 0f e3 ff 	sb	t5, -0x1(t1)
180001400: e3 e8 c7 ff 	bltu	a5, t3, 0x1800013f0 <_ntoa_long_long+0x138>
180001404: e3 82 02 f6 	beqz	t0, 0x180001368 <_ntoa_long_long+0xb0>
180001408: 13 1f 08 02 	slli	t5, a6, 0x20
18000140c: 13 5f 0f 02 	srli	t5, t5, 0x20
180001410: e3 fc e7 f5 	bgeu	a5, t5, 0x180001368 <_ntoa_long_long+0xb0>
180001414: 13 03 00 02 	li	t1, 0x20
180001418: 93 0f 00 03 	li	t6, 0x30
18000141c: 93 02 00 02 	li	t0, 0x20
180001420: 63 96 67 00 	bne	a5, t1, 0x18000142c <_ntoa_long_long+0x174>
180001424: 6f 00 00 0f 	j	0x180001514 <_ntoa_long_long+0x25c>
180001428: 63 8a 57 18 	beq	a5, t0, 0x1800015bc <_ntoa_long_long+0x304>
18000142c: 93 87 17 00 	addi	a5, a5, 0x1
180001430: 33 03 f7 00 	add	t1, a4, a5
180001434: a3 0f f3 ff 	sb	t6, -0x1(t1)
180001438: e3 98 e7 ff 	bne	a5, t5, 0x180001428 <_ntoa_long_long+0x170>
18000143c: 6f f0 df f2 	j	0x180001368 <_ntoa_long_long+0xb0>
180001440: 93 02 10 04 	li	t0, 0x41
180001444: 6f f0 9f ec 	j	0x18000130c <_ntoa_long_long+0x54>
180001448: 13 9e 08 02 	slli	t3, a7, 0x20
18000144c: 13 5e 0e 02 	srli	t3, t3, 0x20
180001450: 63 08 fe 00 	beq	t3, a5, 0x180001460 <_ntoa_long_long+0x1a8>
180001454: 93 18 08 02 	slli	a7, a6, 0x20
180001458: 93 d8 08 02 	srli	a7, a7, 0x20
18000145c: 63 96 f8 08 	bne	a7, a5, 0x1800014e8 <_ntoa_long_long+0x230>
180001460: 93 88 f7 ff 	addi	a7, a5, -0x1
180001464: 63 82 08 1a 	beqz	a7, 0x180001608 <_ntoa_long_long+0x350>
180001468: 13 03 00 01 	li	t1, 0x10
18000146c: 63 8e 6e 1e 	beq	t4, t1, 0x180001668 <_ntoa_long_long+0x3b0>
180001470: 13 03 20 00 	li	t1, 0x2
180001474: 63 86 63 12 	beq	t2, t1, 0x1800015a0 <_ntoa_long_long+0x2e8>
180001478: 93 88 08 02 	addi	a7, a7, 0x20
18000147c: b3 88 28 00 	add	a7, a7, sp
180001480: 13 03 00 03 	li	t1, 0x30
180001484: 23 80 68 fe 	sb	t1, -0x20(a7)
180001488: 93 08 00 02 	li	a7, 0x20
18000148c: 13 8e 07 00 	mv	t3, a5
180001490: e3 90 17 f1 	bne	a5, a7, 0x180001390 <_ntoa_long_long+0xd8>
180001494: 93 08 04 00 	mv	a7, s0
180001498: ef f0 5f ce 	jal	0x18000117c <_out_rev>
18000149c: 83 30 81 04 	ld	ra, 0x48(sp)
1800014a0: 03 34 01 04 	ld	s0, 0x40(sp)
1800014a4: 83 34 81 03 	ld	s1, 0x38(sp)
1800014a8: 03 39 01 03 	ld	s2, 0x30(sp)
1800014ac: 83 39 81 02 	ld	s3, 0x28(sp)
1800014b0: 13 01 01 05 	addi	sp, sp, 0x50
1800014b4: 67 80 00 00 	ret
1800014b8: 93 72 14 00 	andi	t0, s0, 0x1
1800014bc: 13 03 04 00 	mv	t1, s0
1800014c0: 63 88 02 08 	beqz	t0, 0x180001550 <_ntoa_long_long+0x298>
1800014c4: 63 98 04 0e 	bnez	s1, 0x1800015b4 <_ntoa_long_long+0x2fc>
1800014c8: 13 73 c3 00 	andi	t1, t1, 0xc
1800014cc: 63 14 03 0e 	bnez	t1, 0x1800015b4 <_ntoa_long_long+0x2fc>
1800014d0: e3 fc c7 f3 	bgeu	a5, t3, 0x180001408 <_ntoa_long_long+0x150>
1800014d4: 13 03 00 02 	li	t1, 0x20
1800014d8: e3 96 67 f0 	bne	a5, t1, 0x1800013e4 <_ntoa_long_long+0x12c>
1800014dc: 63 ec 07 03 	bltu	a5, a6, 0x180001514 <_ntoa_long_long+0x25c>
1800014e0: e3 0a 09 fa 	beqz	s2, 0x180001494 <_ntoa_long_long+0x1dc>
1800014e4: e3 86 09 e8 	beqz	s3, 0x180001370 <_ntoa_long_long+0xb8>
1800014e8: 93 08 00 01 	li	a7, 0x10
1800014ec: 63 8e 1e 07 	beq	t4, a7, 0x180001568 <_ntoa_long_long+0x2b0>
1800014f0: 93 08 20 00 	li	a7, 0x2
1800014f4: 63 8e 13 09 	beq	t2, a7, 0x180001590 <_ntoa_long_long+0x2d8>
1800014f8: 93 08 00 02 	li	a7, 0x20
1800014fc: e3 8c 17 f9 	beq	a5, a7, 0x180001494 <_ntoa_long_long+0x1dc>
180001500: 93 88 07 00 	mv	a7, a5
180001504: 93 87 17 00 	addi	a5, a5, 0x1
180001508: 6f f0 1f f7 	j	0x180001478 <_ntoa_long_long+0x1c0>
18000150c: 63 82 02 1a 	beqz	t0, 0x1800016b0 <_ntoa_long_long+0x3f8>
180001510: 63 f6 07 0b 	bgeu	a5, a6, 0x1800015bc <_ntoa_long_long+0x304>
180001514: 93 07 00 02 	li	a5, 0x20
180001518: e3 0e 09 f6 	beqz	s2, 0x180001494 <_ntoa_long_long+0x1dc>
18000151c: 63 90 09 18 	bnez	s3, 0x18000169c <_ntoa_long_long+0x3e4>
180001520: e3 1a fe f2 	bne	t3, a5, 0x180001454 <_ntoa_long_long+0x19c>
180001524: 93 08 f0 01 	li	a7, 0x1f
180001528: 6f f0 1f f4 	j	0x180001468 <_ntoa_long_long+0x1b0>
18000152c: 93 07 0e 02 	addi	a5, t3, 0x20
180001530: b3 88 27 00 	add	a7, a5, sp
180001534: 13 03 d0 02 	li	t1, 0x2d
180001538: 93 07 1e 00 	addi	a5, t3, 0x1
18000153c: 23 80 68 fe 	sb	t1, -0x20(a7)
180001540: 6f f0 5f f5 	j	0x180001494 <_ntoa_long_long+0x1dc>
180001544: 13 07 01 00 	mv	a4, sp
180001548: e3 86 04 e4 	beqz	s1, 0x180001394 <_ntoa_long_long+0xdc>
18000154c: 6f f0 1f fe 	j	0x18000152c <_ntoa_long_long+0x274>
180001550: e3 fc c7 e1 	bgeu	a5, t3, 0x180001368 <_ntoa_long_long+0xb0>
180001554: 13 03 00 02 	li	t1, 0x20
180001558: e3 96 67 e8 	bne	a5, t1, 0x1800013e4 <_ntoa_long_long+0x12c>
18000155c: e3 0c 09 f2 	beqz	s2, 0x180001494 <_ntoa_long_long+0x1dc>
180001560: e3 94 09 f8 	bnez	s3, 0x1800014e8 <_ntoa_long_long+0x230>
180001564: 6f f0 df ee 	j	0x180001450 <_ntoa_long_long+0x198>
180001568: 93 78 04 02 	andi	a7, s0, 0x20
18000156c: 63 8e 08 06 	beqz	a7, 0x1800015e8 <_ntoa_long_long+0x330>
180001570: 93 08 00 02 	li	a7, 0x20
180001574: e3 80 17 f3 	beq	a5, a7, 0x180001494 <_ntoa_long_long+0x1dc>
180001578: 93 88 07 02 	addi	a7, a5, 0x20
18000157c: b3 88 28 00 	add	a7, a7, sp
180001580: 13 03 80 05 	li	t1, 0x58
180001584: 23 80 68 fe 	sb	t1, -0x20(a7)
180001588: 93 87 17 00 	addi	a5, a5, 0x1
18000158c: 6f f0 df f6 	j	0x1800014f8 <_ntoa_long_long+0x240>
180001590: 93 08 00 02 	li	a7, 0x20
180001594: e3 80 17 f1 	beq	a5, a7, 0x180001494 <_ntoa_long_long+0x1dc>
180001598: 93 88 07 00 	mv	a7, a5
18000159c: 93 87 17 00 	addi	a5, a5, 0x1
1800015a0: 93 88 08 02 	addi	a7, a7, 0x20
1800015a4: b3 88 28 00 	add	a7, a7, sp
1800015a8: 13 03 20 06 	li	t1, 0x62
1800015ac: 23 80 68 fe 	sb	t1, -0x20(a7)
1800015b0: 6f f0 9f f4 	j	0x1800014f8 <_ntoa_long_long+0x240>
1800015b4: 1b 08 f8 ff 	addiw	a6, a6, -0x1
1800015b8: 6f f0 9f f1 	j	0x1800014d0 <_ntoa_long_long+0x218>
1800015bc: 93 07 00 02 	li	a5, 0x20
1800015c0: 6f f0 df f9 	j	0x18000155c <_ntoa_long_long+0x2a4>
1800015c4: 93 78 84 00 	andi	a7, s0, 0x8
1800015c8: 93 07 0e 00 	mv	a5, t3
1800015cc: e3 84 08 ec 	beqz	a7, 0x180001494 <_ntoa_long_long+0x1dc>
1800015d0: 93 08 0e 02 	addi	a7, t3, 0x20
1800015d4: 33 8e 28 00 	add	t3, a7, sp
1800015d8: 93 08 00 02 	li	a7, 0x20
1800015dc: 93 87 17 00 	addi	a5, a5, 0x1
1800015e0: 23 00 1e ff 	sb	a7, -0x20(t3)
1800015e4: 6f f0 1f eb 	j	0x180001494 <_ntoa_long_long+0x1dc>
1800015e8: 93 08 00 02 	li	a7, 0x20
1800015ec: e3 84 17 eb 	beq	a5, a7, 0x180001494 <_ntoa_long_long+0x1dc>
1800015f0: 93 88 07 02 	addi	a7, a5, 0x20
1800015f4: b3 88 28 00 	add	a7, a7, sp
1800015f8: 13 03 80 07 	li	t1, 0x78
1800015fc: 23 80 68 fe 	sb	t1, -0x20(a7)
180001600: 93 87 17 00 	addi	a5, a5, 0x1
180001604: 6f f0 5f ef 	j	0x1800014f8 <_ntoa_long_long+0x240>
180001608: 93 07 00 01 	li	a5, 0x10
18000160c: e3 98 fe d6 	bne	t4, a5, 0x18000137c <_ntoa_long_long+0xc4>
180001610: 93 78 04 02 	andi	a7, s0, 0x20
180001614: 93 07 80 07 	li	a5, 0x78
180001618: 63 84 08 00 	beqz	a7, 0x180001620 <_ntoa_long_long+0x368>
18000161c: 93 07 80 05 	li	a5, 0x58
180001620: 23 00 f1 00 	sb	a5, 0x0(sp)
180001624: 93 07 00 03 	li	a5, 0x30
180001628: a3 00 f1 00 	sb	a5, 0x1(sp)
18000162c: 13 0e 20 00 	li	t3, 0x2
180001630: e3 82 04 d6 	beqz	s1, 0x180001394 <_ntoa_long_long+0xdc>
180001634: 6f f0 9f ef 	j	0x18000152c <_ntoa_long_long+0x274>
180001638: 93 77 04 02 	andi	a5, s0, 0x20
18000163c: 63 8c 07 00 	beqz	a5, 0x180001654 <_ntoa_long_long+0x39c>
180001640: 93 07 80 05 	li	a5, 0x58
180001644: 23 00 f1 00 	sb	a5, 0x0(sp)
180001648: 6f f0 df fd 	j	0x180001624 <_ntoa_long_long+0x36c>
18000164c: 93 07 20 06 	li	a5, 0x62
180001650: 6f f0 1f fd 	j	0x180001620 <_ntoa_long_long+0x368>
180001654: 93 07 80 07 	li	a5, 0x78
180001658: 6f f0 9f fc 	j	0x180001620 <_ntoa_long_long+0x368>
18000165c: e3 80 02 f0 	beqz	t0, 0x18000155c <_ntoa_long_long+0x2a4>
180001660: e3 12 09 e8 	bnez	s2, 0x1800014e4 <_ntoa_long_long+0x22c>
180001664: 6f f0 1f e3 	j	0x180001494 <_ntoa_long_long+0x1dc>
180001668: 93 87 e7 ff 	addi	a5, a5, -0x2
18000166c: 93 87 07 02 	addi	a5, a5, 0x20
180001670: 13 73 04 02 	andi	t1, s0, 0x20
180001674: b3 87 27 00 	add	a5, a5, sp
180001678: 63 1a 03 00 	bnez	t1, 0x18000168c <_ntoa_long_long+0x3d4>
18000167c: 13 03 80 07 	li	t1, 0x78
180001680: 23 80 67 fe 	sb	t1, -0x20(a5)
180001684: 93 87 08 00 	mv	a5, a7
180001688: 6f f0 9f e7 	j	0x180001500 <_ntoa_long_long+0x248>
18000168c: 13 03 80 05 	li	t1, 0x58
180001690: 23 80 67 fe 	sb	t1, -0x20(a5)
180001694: 93 87 08 00 	mv	a5, a7
180001698: 6f f0 9f e6 	j	0x180001500 <_ntoa_long_long+0x248>
18000169c: 93 08 00 01 	li	a7, 0x10
1800016a0: e3 84 1e ed 	beq	t4, a7, 0x180001568 <_ntoa_long_long+0x2b0>
1800016a4: 93 08 20 00 	li	a7, 0x2
1800016a8: e3 98 13 e5 	bne	t2, a7, 0x1800014f8 <_ntoa_long_long+0x240>
1800016ac: 6f f0 9f de 	j	0x180001494 <_ntoa_long_long+0x1dc>
1800016b0: e3 02 09 de 	beqz	s2, 0x180001494 <_ntoa_long_long+0x1dc>
1800016b4: e3 94 09 fe 	bnez	s3, 0x18000169c <_ntoa_long_long+0x3e4>
1800016b8: e3 9e f8 d8 	bne	a7, a5, 0x180001454 <_ntoa_long_long+0x19c>
1800016bc: 93 08 f0 01 	li	a7, 0x1f
1800016c0: 6f f0 9f da 	j	0x180001468 <_ntoa_long_long+0x1b0>

00000001800016c4 <_out_char>:
1800016c4: 63 14 05 00 	bnez	a0, 0x1800016cc <_out_char+0x8>
1800016c8: 67 80 00 00 	ret
1800016cc: 6f f0 0f 85 	j	0x18000071c <vx_putchar>

00000001800016d0 <_ftoa>:
1800016d0: 53 23 a5 a2 	feq.d	t1, fa0, fa0
1800016d4: 93 08 08 00 	mv	a7, a6
1800016d8: 63 00 03 20 	beqz	t1, 0x1800018d8 <_ftoa+0x208>
1800016dc: 17 38 00 00 	auipc	a6, 0x3
1800016e0: 87 37 48 dd 	fld	fa5, -0x22c(a6)
1800016e4: 53 18 f5 a2 	flt.d	a6, fa0, fa5
1800016e8: 63 12 08 26 	bnez	a6, 0x18000194c <_ftoa+0x27c>
1800016ec: 13 01 01 fc 	addi	sp, sp, -0x40
1800016f0: 23 34 91 02 	sd	s1, 0x28(sp)
1800016f4: 93 84 06 00 	mv	s1, a3
1800016f8: 97 36 00 00 	auipc	a3, 0x3
1800016fc: 87 b7 06 dc 	fld	fa5, -0x240(a3)
180001700: d3 96 a7 a2 	flt.d	a3, fa5, fa0
180001704: 23 38 81 02 	sd	s0, 0x30(sp)
180001708: 23 3c 11 02 	sd	ra, 0x38(sp)
18000170c: 23 30 21 03 	sd	s2, 0x20(sp)
180001710: 93 02 05 00 	mv	t0, a0
180001714: 93 83 05 00 	mv	t2, a1
180001718: 13 04 06 00 	mv	s0, a2
18000171c: 63 9c 06 16 	bnez	a3, 0x180001894 <_ftoa+0x1c4>
180001720: 97 36 00 00 	auipc	a3, 0x3
180001724: 87 b7 06 d8 	fld	fa5, -0x280(a3)
180001728: d3 96 a7 a2 	flt.d	a3, fa5, fa0
18000172c: 63 9a 06 1e 	bnez	a3, 0x180001920 <_ftoa+0x250>
180001730: 97 36 00 00 	auipc	a3, 0x3
180001734: 07 b7 06 d9 	fld	fa4, -0x270(a3)
180001738: d3 16 e5 a2 	flt.d	a3, fa0, fa4
18000173c: 63 92 06 1e 	bnez	a3, 0x180001920 <_ftoa+0x250>
180001740: 53 07 00 f2 	fmv.d.x	fa4, zero
180001744: 93 05 00 00 	li	a1, 0x0
180001748: d3 16 e5 a2 	flt.d	a3, fa0, fa4
18000174c: 63 94 06 1c 	bnez	a3, 0x180001914 <_ftoa+0x244>
180001750: 93 f6 08 40 	andi	a3, a7, 0x400
180001754: 63 8c 06 18 	beqz	a3, 0x1800018ec <_ftoa+0x21c>
180001758: 93 06 90 00 	li	a3, 0x9
18000175c: 63 fa e6 38 	bgeu	a3, a4, 0x180001af0 <_ftoa+0x420>
180001760: 1b 03 77 ff 	addiw	t1, a4, -0x9
180001764: 13 13 03 02 	slli	t1, t1, 0x20
180001768: 13 53 03 02 	srli	t1, t1, 0x20
18000176c: 13 0e 00 00 	li	t3, 0x0
180001770: 13 0f 01 00 	mv	t5, sp
180001774: 13 06 00 03 	li	a2, 0x30
180001778: 93 06 00 02 	li	a3, 0x20
18000177c: 13 0e 1e 00 	addi	t3, t3, 0x1
180001780: b3 0e cf 01 	add	t4, t5, t3
180001784: a3 8f ce fe 	sb	a2, -0x1(t4)
180001788: bb 0f c7 41 	subw	t6, a4, t3
18000178c: 63 08 de 2c 	beq	t3, a3, 0x180001a5c <_ftoa+0x38c>
180001790: e3 16 6e fe 	bne	t3, t1, 0x18000177c <_ftoa+0xac>
180001794: 53 87 f7 22 	fmv.d	fa4, fa5
180001798: d3 16 05 c2 	fcvt.w.d	a3, fa0, rtz
18000179c: 17 37 00 00 	auipc	a4, 0x3
1800017a0: 87 36 c7 d2 	fld	fa3, -0x2d4(a4)
1800017a4: d3 87 06 d2 	fcvt.d.w	fa5, a3
1800017a8: 1b 8e 06 00 	sext.w	t3, a3
1800017ac: d3 77 f5 0a 	fsub.d	fa5, fa0, fa5
1800017b0: d3 f7 e7 12 	fmul.d	fa5, fa5, fa4
1800017b4: 53 97 37 c2 	fcvt.lu.d	a4, fa5, rtz
1800017b8: 53 76 37 d2 	fcvt.d.lu	fa2, a4
1800017bc: d3 f7 c7 0a 	fsub.d	fa5, fa5, fa2
1800017c0: 53 96 f6 a2 	flt.d	a2, fa3, fa5
1800017c4: 63 0e 06 22 	beqz	a2, 0x180001a00 <_ftoa+0x330>
1800017c8: 13 07 17 00 	addi	a4, a4, 0x1
1800017cc: d3 77 37 d2 	fcvt.d.lu	fa5, a4
1800017d0: 53 06 f7 a2 	fle.d	a2, fa4, fa5
1800017d4: 63 06 06 00 	beqz	a2, 0x1800017e0 <_ftoa+0x110>
1800017d8: 1b 8e 16 00 	addiw	t3, a3, 0x1
1800017dc: 13 07 00 00 	li	a4, 0x0
1800017e0: 63 9a 0f 1c 	bnez	t6, 0x1800019b4 <_ftoa+0x2e4>
1800017e4: d3 07 0e d2 	fcvt.d.w	fa5, t3
1800017e8: 53 75 f5 0a 	fsub.d	fa0, fa0, fa5
1800017ec: 53 17 d5 a2 	flt.d	a4, fa0, fa3
1800017f0: 63 06 07 00 	beqz	a4, 0x1800017fc <_ftoa+0x12c>
1800017f4: 53 97 a6 a2 	flt.d	a4, fa3, fa0
1800017f8: 63 08 07 00 	beqz	a4, 0x180001808 <_ftoa+0x138>
1800017fc: 13 77 1e 00 	andi	a4, t3, 0x1
180001800: 63 04 07 00 	beqz	a4, 0x180001808 <_ftoa+0x138>
180001804: 1b 0e 1e 00 	addiw	t3, t3, 0x1
180001808: 13 06 00 02 	li	a2, 0x20
18000180c: 13 07 a0 00 	li	a4, 0xa
180001810: 63 08 c3 14 	beq	t1, a2, 0x180001960 <_ftoa+0x290>
180001814: bb 6e ee 02 	remw	t4, t3, a4
180001818: 13 03 13 00 	addi	t1, t1, 0x1
18000181c: b3 06 6f 00 	add	a3, t5, t1
180001820: 3b 4e ee 02 	divw	t3, t3, a4
180001824: 9b 8e 0e 03 	addiw	t4, t4, 0x30
180001828: a3 8f d6 ff 	sb	t4, -0x1(a3)
18000182c: e3 12 0e fe 	bnez	t3, 0x180001810 <_ftoa+0x140>
180001830: 13 f7 38 00 	andi	a4, a7, 0x3
180001834: 93 06 10 00 	li	a3, 0x1
180001838: 63 00 d7 2e 	beq	a4, a3, 0x180001b18 <_ftoa+0x448>
18000183c: 13 07 00 02 	li	a4, 0x20
180001840: 63 0e e3 00 	beq	t1, a4, 0x18000185c <_ftoa+0x18c>
180001844: 63 86 05 22 	beqz	a1, 0x180001a70 <_ftoa+0x3a0>
180001848: 13 07 03 02 	addi	a4, t1, 0x20
18000184c: 33 07 27 00 	add	a4, a4, sp
180001850: 93 06 d0 02 	li	a3, 0x2d
180001854: 23 00 d7 fe 	sb	a3, -0x20(a4)
180001858: 13 03 13 00 	addi	t1, t1, 0x1
18000185c: 13 88 07 00 	mv	a6, a5
180001860: 93 86 04 00 	mv	a3, s1
180001864: 13 06 04 00 	mv	a2, s0
180001868: 93 07 03 00 	mv	a5, t1
18000186c: 13 07 0f 00 	mv	a4, t5
180001870: 93 85 03 00 	mv	a1, t2
180001874: 13 85 02 00 	mv	a0, t0
180001878: ef f0 5f 90 	jal	0x18000117c <_out_rev>
18000187c: 83 30 81 03 	ld	ra, 0x38(sp)
180001880: 03 34 01 03 	ld	s0, 0x30(sp)
180001884: 83 34 81 02 	ld	s1, 0x28(sp)
180001888: 03 39 01 02 	ld	s2, 0x20(sp)
18000188c: 13 01 01 04 	addi	sp, sp, 0x40
180001890: 67 80 00 00 	ret
180001894: 13 f7 48 00 	andi	a4, a7, 0x4
180001898: 63 16 07 06 	bnez	a4, 0x180001904 <_ftoa+0x234>
18000189c: 17 27 00 00 	auipc	a4, 0x2
1800018a0: 13 07 c7 97 	addi	a4, a4, -0x684
1800018a4: 93 06 30 00 	li	a3, 0x3
1800018a8: 13 06 04 00 	mv	a2, s0
1800018ac: 03 34 01 03 	ld	s0, 0x30(sp)
1800018b0: 83 30 81 03 	ld	ra, 0x38(sp)
1800018b4: 03 39 01 02 	ld	s2, 0x20(sp)
1800018b8: 13 88 07 00 	mv	a6, a5
1800018bc: 93 87 06 00 	mv	a5, a3
1800018c0: 93 86 04 00 	mv	a3, s1
1800018c4: 83 34 81 02 	ld	s1, 0x28(sp)
1800018c8: 93 85 03 00 	mv	a1, t2
1800018cc: 13 85 02 00 	mv	a0, t0
1800018d0: 13 01 01 04 	addi	sp, sp, 0x40
1800018d4: 6f f0 9f 8a 	j	0x18000117c <_out_rev>
1800018d8: 13 88 07 00 	mv	a6, a5
1800018dc: 17 27 00 00 	auipc	a4, 0x2
1800018e0: 13 07 47 94 	addi	a4, a4, -0x6bc
1800018e4: 93 07 30 00 	li	a5, 0x3
1800018e8: 6f f0 5f 89 	j	0x18000117c <_out_rev>
1800018ec: 17 37 00 00 	auipc	a4, 0x3
1800018f0: 07 37 c7 bb 	fld	fa4, -0x444(a4)
1800018f4: 93 0f 60 00 	li	t6, 0x6
1800018f8: 13 03 00 00 	li	t1, 0x0
1800018fc: 13 0f 01 00 	mv	t5, sp
180001900: 6f f0 9f e9 	j	0x180001798 <_ftoa+0xc8>
180001904: 17 27 00 00 	auipc	a4, 0x2
180001908: 13 07 c7 90 	addi	a4, a4, -0x6f4
18000190c: 93 06 40 00 	li	a3, 0x4
180001910: 6f f0 9f f9 	j	0x1800018a8 <_ftoa+0x1d8>
180001914: 53 75 a7 0a 	fsub.d	fa0, fa4, fa0
180001918: 93 05 10 00 	li	a1, 0x1
18000191c: 6f f0 5f e3 	j	0x180001750 <_ftoa+0x80>
180001920: 13 06 04 00 	mv	a2, s0
180001924: 03 34 01 03 	ld	s0, 0x30(sp)
180001928: 83 30 81 03 	ld	ra, 0x38(sp)
18000192c: 03 39 01 02 	ld	s2, 0x20(sp)
180001930: 93 86 04 00 	mv	a3, s1
180001934: 83 34 81 02 	ld	s1, 0x28(sp)
180001938: 13 88 08 00 	mv	a6, a7
18000193c: 93 85 03 00 	mv	a1, t2
180001940: 13 85 02 00 	mv	a0, t0
180001944: 13 01 01 04 	addi	sp, sp, 0x40
180001948: 6f 00 80 1d 	j	0x180001b20 <_etoa>
18000194c: 13 88 07 00 	mv	a6, a5
180001950: 17 27 00 00 	auipc	a4, 0x2
180001954: 13 07 87 8d 	addi	a4, a4, -0x728
180001958: 93 07 40 00 	li	a5, 0x4
18000195c: 6f f0 1f 82 	j	0x18000117c <_out_rev>
180001960: 13 f7 38 00 	andi	a4, a7, 0x3
180001964: 93 06 10 00 	li	a3, 0x1
180001968: e3 1a d7 ee 	bne	a4, a3, 0x18000185c <_ftoa+0x18c>
18000196c: e3 88 07 ee 	beqz	a5, 0x18000185c <_ftoa+0x18c>
180001970: 63 96 05 16 	bnez	a1, 0x180001adc <_ftoa+0x40c>
180001974: 13 f7 c8 00 	andi	a4, a7, 0xc
180001978: 63 12 07 16 	bnez	a4, 0x180001adc <_ftoa+0x40c>
18000197c: 13 96 07 02 	slli	a2, a5, 0x20
180001980: 13 56 06 02 	srli	a2, a2, 0x20
180001984: 63 72 c3 0e 	bgeu	t1, a2, 0x180001a68 <_ftoa+0x398>
180001988: 13 07 00 02 	li	a4, 0x20
18000198c: 93 06 00 03 	li	a3, 0x30
180001990: 13 05 00 02 	li	a0, 0x20
180001994: 63 0c e3 00 	beq	t1, a4, 0x1800019ac <_ftoa+0x2dc>
180001998: 13 03 13 00 	addi	t1, t1, 0x1
18000199c: 33 07 6f 00 	add	a4, t5, t1
1800019a0: a3 0f d7 fe 	sb	a3, -0x1(a4)
1800019a4: e3 0c c3 e8 	beq	t1, a2, 0x18000183c <_ftoa+0x16c>
1800019a8: e3 18 a3 fe 	bne	t1, a0, 0x180001998 <_ftoa+0x2c8>
1800019ac: 13 03 00 02 	li	t1, 0x20
1800019b0: 6f f0 df ea 	j	0x18000185c <_ftoa+0x18c>
1800019b4: 9b 80 0f fe 	addiw	ra, t6, -0x20
1800019b8: bb 80 60 00 	addw	ra, ra, t1
1800019bc: 13 06 a0 00 	li	a2, 0xa
1800019c0: 13 09 90 00 	li	s2, 0x9
1800019c4: 6f 00 80 02 	j	0x1800019ec <_ftoa+0x31c>
1800019c8: b3 76 c7 02 	remu	a3, a4, a2
1800019cc: 1b 88 ff ff 	addiw	a6, t6, -0x1
1800019d0: 9b 86 06 03 	addiw	a3, a3, 0x30
1800019d4: a3 0f d5 fe 	sb	a3, -0x1(a0)
1800019d8: b3 56 c7 02 	divu	a3, a4, a2
1800019dc: 63 7c e9 02 	bgeu	s2, a4, 0x180001a14 <_ftoa+0x344>
1800019e0: 93 0f 08 00 	mv	t6, a6
1800019e4: 13 83 0e 00 	mv	t1, t4
1800019e8: 13 87 06 00 	mv	a4, a3
1800019ec: 93 0e 13 00 	addi	t4, t1, 0x1
1800019f0: 33 05 df 01 	add	a0, t5, t4
1800019f4: e3 9a 1f fc 	bne	t6, ra, 0x1800019c8 <_ftoa+0x2f8>
1800019f8: 13 03 00 02 	li	t1, 0x20
1800019fc: 6f f0 df e0 	j	0x180001808 <_ftoa+0x138>
180001a00: d3 96 d7 a2 	flt.d	a3, fa5, fa3
180001a04: e3 9e 06 dc 	bnez	a3, 0x1800017e0 <_ftoa+0x110>
180001a08: 63 12 07 0c 	bnez	a4, 0x180001acc <_ftoa+0x3fc>
180001a0c: 13 07 17 00 	addi	a4, a4, 0x1
180001a10: 6f f0 1f dd 	j	0x1800017e0 <_ftoa+0x110>
180001a14: 13 07 00 02 	li	a4, 0x20
180001a18: e3 80 ee fe 	beq	t4, a4, 0x1800019f8 <_ftoa+0x328>
180001a1c: 9b 8f ef ff 	addiw	t6, t6, -0x2
180001a20: 63 0c 08 06 	beqz	a6, 0x180001a98 <_ftoa+0x3c8>
180001a24: 93 9f 0f 02 	slli	t6, t6, 0x20
180001a28: 13 03 23 00 	addi	t1, t1, 0x2
180001a2c: 93 df 0f 02 	srli	t6, t6, 0x20
180001a30: 33 03 f3 01 	add	t1, t1, t6
180001a34: 13 06 00 03 	li	a2, 0x30
180001a38: 93 06 00 02 	li	a3, 0x20
180001a3c: 6f 00 80 00 	j	0x180001a44 <_ftoa+0x374>
180001a40: 63 8e 6e 04 	beq	t4, t1, 0x180001a9c <_ftoa+0x3cc>
180001a44: 93 8e 1e 00 	addi	t4, t4, 0x1
180001a48: 33 07 df 01 	add	a4, t5, t4
180001a4c: a3 0f c7 fe 	sb	a2, -0x1(a4)
180001a50: e3 98 de fe 	bne	t4, a3, 0x180001a40 <_ftoa+0x370>
180001a54: 13 03 00 02 	li	t1, 0x20
180001a58: 6f f0 1f db 	j	0x180001808 <_ftoa+0x138>
180001a5c: 53 87 f7 22 	fmv.d	fa4, fa5
180001a60: 13 03 00 02 	li	t1, 0x20
180001a64: 6f f0 5f d3 	j	0x180001798 <_ftoa+0xc8>
180001a68: 13 07 00 02 	li	a4, 0x20
180001a6c: e3 08 e3 de 	beq	t1, a4, 0x18000185c <_ftoa+0x18c>
180001a70: 13 f7 48 00 	andi	a4, a7, 0x4
180001a74: 63 10 07 04 	bnez	a4, 0x180001ab4 <_ftoa+0x3e4>
180001a78: 13 f7 88 00 	andi	a4, a7, 0x8
180001a7c: e3 00 07 de 	beqz	a4, 0x18000185c <_ftoa+0x18c>
180001a80: 13 07 03 02 	addi	a4, t1, 0x20
180001a84: 33 07 27 00 	add	a4, a4, sp
180001a88: 93 06 00 02 	li	a3, 0x20
180001a8c: 23 00 d7 fe 	sb	a3, -0x20(a4)
180001a90: 13 03 13 00 	addi	t1, t1, 0x1
180001a94: 6f f0 9f dc 	j	0x18000185c <_ftoa+0x18c>
180001a98: 13 83 0e 00 	mv	t1, t4
180001a9c: 13 07 03 02 	addi	a4, t1, 0x20
180001aa0: 33 07 27 00 	add	a4, a4, sp
180001aa4: 93 06 e0 02 	li	a3, 0x2e
180001aa8: 13 03 13 00 	addi	t1, t1, 0x1
180001aac: 23 00 d7 fe 	sb	a3, -0x20(a4)
180001ab0: 6f f0 9f d5 	j	0x180001808 <_ftoa+0x138>
180001ab4: 13 07 03 02 	addi	a4, t1, 0x20
180001ab8: 33 07 27 00 	add	a4, a4, sp
180001abc: 93 06 b0 02 	li	a3, 0x2b
180001ac0: 23 00 d7 fe 	sb	a3, -0x20(a4)
180001ac4: 13 03 13 00 	addi	t1, t1, 0x1
180001ac8: 6f f0 5f d9 	j	0x18000185c <_ftoa+0x18c>
180001acc: 93 76 17 00 	andi	a3, a4, 0x1
180001ad0: e3 88 06 d0 	beqz	a3, 0x1800017e0 <_ftoa+0x110>
180001ad4: 13 07 17 00 	addi	a4, a4, 0x1
180001ad8: 6f f0 9f d0 	j	0x1800017e0 <_ftoa+0x110>
180001adc: 9b 87 f7 ff 	addiw	a5, a5, -0x1
180001ae0: 13 96 07 02 	slli	a2, a5, 0x20
180001ae4: 13 56 06 02 	srli	a2, a2, 0x20
180001ae8: e3 60 c3 ea 	bltu	t1, a2, 0x180001988 <_ftoa+0x2b8>
180001aec: 6f f0 1f d5 	j	0x18000183c <_ftoa+0x16c>
180001af0: 93 16 07 02 	slli	a3, a4, 0x20
180001af4: 13 d6 d6 01 	srli	a2, a3, 0x1d
180001af8: 97 26 00 00 	auipc	a3, 0x2
180001afc: 93 86 86 8d 	addi	a3, a3, -0x728
180001b00: b3 86 c6 00 	add	a3, a3, a2
180001b04: 07 b7 06 00 	fld	fa4, 0x0(a3)
180001b08: 93 0f 07 00 	mv	t6, a4
180001b0c: 13 03 00 00 	li	t1, 0x0
180001b10: 13 0f 01 00 	mv	t5, sp
180001b14: 6f f0 5f c8 	j	0x180001798 <_ftoa+0xc8>
180001b18: e3 82 07 d2 	beqz	a5, 0x18000183c <_ftoa+0x16c>
180001b1c: 6f f0 5f e5 	j	0x180001970 <_ftoa+0x2a0>

0000000180001b20 <_etoa>:
180001b20: d3 28 a5 a2 	feq.d	a7, fa0, fa0
180001b24: 13 01 01 f9 	addi	sp, sp, -0x70
180001b28: 23 30 81 06 	sd	s0, 0x60(sp)
180001b2c: 23 38 21 05 	sd	s2, 0x50(sp)
180001b30: 23 34 31 05 	sd	s3, 0x48(sp)
180001b34: 23 30 41 05 	sd	s4, 0x40(sp)
180001b38: 23 3c 51 03 	sd	s5, 0x38(sp)
180001b3c: 23 38 61 03 	sd	s6, 0x30(sp)
180001b40: 23 34 11 06 	sd	ra, 0x68(sp)
180001b44: 23 3c 91 04 	sd	s1, 0x58(sp)
180001b48: 23 34 71 03 	sd	s7, 0x28(sp)
180001b4c: 23 30 81 03 	sd	s8, 0x20(sp)
180001b50: 23 3c 91 01 	sd	s9, 0x18(sp)
180001b54: 13 0a 05 00 	mv	s4, a0
180001b58: 93 8a 05 00 	mv	s5, a1
180001b5c: 13 09 06 00 	mv	s2, a2
180001b60: 13 8b 06 00 	mv	s6, a3
180001b64: 93 89 07 00 	mv	s3, a5
180001b68: 13 04 08 00 	mv	s0, a6
180001b6c: 63 84 08 2e 	beqz	a7, 0x180001e54 <_etoa+0x334>
180001b70: 97 37 00 00 	auipc	a5, 0x3
180001b74: 87 b7 87 94 	fld	fa5, -0x6b8(a5)
180001b78: d3 97 a7 a2 	flt.d	a5, fa5, fa0
180001b7c: 63 9c 07 2c 	bnez	a5, 0x180001e54 <_etoa+0x334>
180001b80: 97 37 00 00 	auipc	a5, 0x3
180001b84: 87 b7 07 93 	fld	fa5, -0x6d0(a5)
180001b88: d3 17 f5 a2 	flt.d	a5, fa0, fa5
180001b8c: 63 94 07 2c 	bnez	a5, 0x180001e54 <_etoa+0x334>
180001b90: d3 07 00 f2 	fmv.d.x	fa5, zero
180001b94: d3 06 05 e2 	fmv.x.d	a3, fa0
180001b98: d3 17 f5 a2 	flt.d	a5, fa0, fa5
180001b9c: 63 86 07 00 	beqz	a5, 0x180001ba8 <_etoa+0x88>
180001ba0: d3 17 a5 22 	fneg.d	fa5, fa0
180001ba4: d3 86 07 e2 	fmv.x.d	a3, fa5
180001ba8: 93 75 04 40 	andi	a1, s0, 0x400
180001bac: 63 94 05 00 	bnez	a1, 0x180001bb4 <_etoa+0x94>
180001bb0: 13 07 60 00 	li	a4, 0x6
180001bb4: 93 d7 46 03 	srli	a5, a3, 0x34
180001bb8: 93 f7 f7 7f 	andi	a5, a5, 0x7ff
180001bbc: 17 36 00 00 	auipc	a2, 0x3
180001bc0: 87 36 46 91 	fld	fa3, -0x6ec(a2)
180001bc4: 17 36 00 00 	auipc	a2, 0x3
180001bc8: 07 37 46 91 	fld	fa4, -0x6ec(a2)
180001bcc: 9b 87 17 c0 	addiw	a5, a5, -0x3ff
180001bd0: 53 86 07 d2 	fcvt.d.w	fa2, a5
180001bd4: 13 06 f0 3f 	li	a2, 0x3ff
180001bd8: 93 97 c6 00 	slli	a5, a3, 0xc
180001bdc: 13 16 46 03 	slli	a2, a2, 0x34
180001be0: 93 d7 c7 00 	srli	a5, a5, 0xc
180001be4: b3 e7 c7 00 	or	a5, a5, a2
180001be8: 43 76 d6 72 	fmadd.d	fa2, fa2, fa3, fa4
180001bec: 53 87 07 f2 	fmv.d.x	fa4, a5
180001bf0: 17 36 00 00 	auipc	a2, 0x3
180001bf4: 87 37 06 8f 	fld	fa5, -0x710(a2)
180001bf8: 97 37 00 00 	auipc	a5, 0x3
180001bfc: 87 b5 07 8f 	fld	fa1, -0x710(a5)
180001c00: d3 77 f7 0a 	fsub.d	fa5, fa4, fa5
180001c04: 97 37 00 00 	auipc	a5, 0x3
180001c08: 87 b6 c7 8e 	fld	fa3, -0x714(a5)
180001c0c: 97 37 00 00 	auipc	a5, 0x3
180001c10: 07 b2 c7 8b 	fld	ft4, -0x744(a5)
180001c14: 97 37 00 00 	auipc	a5, 0x3
180001c18: 87 b1 47 8e 	fld	ft3, -0x71c(a5)
180001c1c: 97 37 00 00 	auipc	a5, 0x3
180001c20: 07 b1 47 8e 	fld	ft2, -0x71c(a5)
180001c24: 97 37 00 00 	auipc	a5, 0x3
180001c28: 07 b7 47 8e 	fld	fa4, -0x71c(a5)
180001c2c: 97 37 00 00 	auipc	a5, 0x3
180001c30: 87 b0 c7 8e 	fld	ft1, -0x714(a5)
180001c34: c3 f7 b7 62 	fmadd.d	fa5, fa5, fa1, fa2
180001c38: 97 37 00 00 	auipc	a5, 0x3
180001c3c: 07 b0 07 8f 	fld	ft0, -0x710(a5)
180001c40: 97 37 00 00 	auipc	a5, 0x3
180001c44: 87 b5 07 8d 	fld	fa1, -0x730(a5)
180001c48: 97 37 00 00 	auipc	a5, 0x3
180001c4c: 07 b6 87 8d 	fld	fa2, -0x728(a5)
180001c50: 53 96 07 c2 	fcvt.w.d	a2, fa5, rtz
180001c54: d3 07 06 d2 	fcvt.d.w	fa5, a2
180001c58: 1b 0c 06 00 	sext.w	s8, a2
180001c5c: c3 f6 d7 22 	fmadd.d	fa3, fa5, fa3, ft4
180001c60: d3 97 06 c2 	fcvt.w.d	a5, fa3, rtz
180001c64: d3 86 07 d2 	fcvt.d.w	fa3, a5
180001c68: 9b 87 f7 3f 	addiw	a5, a5, 0x3ff
180001c6c: 93 97 47 03 	slli	a5, a5, 0x34
180001c70: d3 f6 36 12 	fmul.d	fa3, fa3, ft3
180001c74: c7 f7 27 6a 	fmsub.d	fa5, fa5, ft2, fa3
180001c78: d3 f6 f7 12 	fmul.d	fa3, fa5, fa5
180001c7c: 53 76 f6 0a 	fsub.d	fa2, fa2, fa5
180001c80: d3 f7 f7 02 	fadd.d	fa5, fa5, fa5
180001c84: 53 f7 e6 1a 	fdiv.d	fa4, fa3, fa4
180001c88: 53 77 b7 02 	fadd.d	fa4, fa4, fa1
180001c8c: 53 f7 e6 1a 	fdiv.d	fa4, fa3, fa4
180001c90: 53 77 17 02 	fadd.d	fa4, fa4, ft1
180001c94: d3 f6 e6 1a 	fdiv.d	fa3, fa3, fa4
180001c98: 53 87 07 f2 	fmv.d.x	fa4, a5
180001c9c: d3 f6 c6 02 	fadd.d	fa3, fa3, fa2
180001ca0: d3 f7 d7 1a 	fdiv.d	fa5, fa5, fa3
180001ca4: d3 f7 07 02 	fadd.d	fa5, fa5, ft0
180001ca8: d3 f7 e7 12 	fmul.d	fa5, fa5, fa4
180001cac: 53 87 06 f2 	fmv.d.x	fa4, a3
180001cb0: d3 17 f7 a2 	flt.d	a5, fa4, fa5
180001cb4: 63 86 07 00 	beqz	a5, 0x180001cc0 <_etoa+0x1a0>
180001cb8: d3 f7 b7 1a 	fdiv.d	fa5, fa5, fa1
180001cbc: 1b 0c f6 ff 	addiw	s8, a2, -0x1
180001cc0: 9b 0c 3c 06 	addiw	s9, s8, 0x63
180001cc4: 93 57 b4 00 	srli	a5, s0, 0xb
180001cc8: 13 06 60 0c 	li	a2, 0xc6
180001ccc: b3 3c 96 01 	sltu	s9, a2, s9
180001cd0: 93 f7 17 00 	andi	a5, a5, 0x1
180001cd4: 93 8c 4c 00 	addi	s9, s9, 0x4
180001cd8: 63 84 07 04 	beqz	a5, 0x180001d20 <_etoa+0x200>
180001cdc: d3 86 06 f2 	fmv.d.x	fa3, a3
180001ce0: 97 37 00 00 	auipc	a5, 0x3
180001ce4: 07 b7 07 85 	fld	fa4, -0x7b0(a5)
180001ce8: d3 07 d7 a2 	fle.d	a5, fa4, fa3
180001cec: 63 82 07 1c 	beqz	a5, 0x180001eb0 <_etoa+0x390>
180001cf0: 97 27 00 00 	auipc	a5, 0x2
180001cf4: 07 b7 87 7b 	fld	fa4, 0x7b8(a5)
180001cf8: d3 97 e6 a2 	flt.d	a5, fa3, fa4
180001cfc: 63 8a 07 1a 	beqz	a5, 0x180001eb0 <_etoa+0x390>
180001d00: 9b 07 07 00 	sext.w	a5, a4
180001d04: 13 07 00 00 	li	a4, 0x0
180001d08: 63 56 fc 00 	bge	s8, a5, 0x180001d14 <_etoa+0x1f4>
180001d0c: bb 87 87 41 	subw	a5, a5, s8
180001d10: 1b 87 f7 ff 	addiw	a4, a5, -0x1
180001d14: 13 64 04 40 	ori	s0, s0, 0x400
180001d18: 93 0c 00 00 	li	s9, 0x0
180001d1c: 13 0c 00 00 	li	s8, 0x0
180001d20: 93 07 00 00 	li	a5, 0x0
180001d24: 63 f4 3c 01 	bgeu	s9, s3, 0x180001d2c <_etoa+0x20c>
180001d28: bb 87 99 41 	subw	a5, s3, s9
180001d2c: 93 7b 24 00 	andi	s7, s0, 0x2
180001d30: 63 88 0b 00 	beqz	s7, 0x180001d40 <_etoa+0x220>
180001d34: 13 b6 1c 00 	seqz	a2, s9
180001d38: 33 06 c0 40 	neg	a2, a2
180001d3c: b3 f7 c7 00 	and	a5, a5, a2
180001d40: 63 10 0c 16 	bnez	s8, 0x180001ea0 <_etoa+0x380>
180001d44: d3 07 00 f2 	fmv.d.x	fa5, zero
180001d48: 53 16 f5 a2 	flt.d	a2, fa0, fa5
180001d4c: 63 08 06 00 	beqz	a2, 0x180001d5c <_etoa+0x23c>
180001d50: d3 87 06 f2 	fmv.d.x	fa5, a3
180001d54: d3 97 f7 22 	fneg.d	fa5, fa5
180001d58: d3 86 07 e2 	fmv.x.d	a3, fa5
180001d5c: 53 85 06 f2 	fmv.d.x	fa0, a3
180001d60: 37 f8 ff ff 	lui	a6, 0xfffff
180001d64: 13 08 f8 7f 	addi	a6, a6, 0x7ff
180001d68: 33 78 04 01 	and	a6, s0, a6
180001d6c: 93 06 0b 00 	mv	a3, s6
180001d70: 13 06 09 00 	mv	a2, s2
180001d74: 93 85 0a 00 	mv	a1, s5
180001d78: 13 05 0a 00 	mv	a0, s4
180001d7c: ef f0 5f 95 	jal	0x1800016d0 <_ftoa>
180001d80: 93 04 05 00 	mv	s1, a0
180001d84: 63 8c 0c 08 	beqz	s9, 0x180001e1c <_etoa+0x2fc>
180001d88: 13 74 04 02 	andi	s0, s0, 0x20
180001d8c: 13 05 50 06 	li	a0, 0x65
180001d90: 63 04 04 00 	beqz	s0, 0x180001d98 <_etoa+0x278>
180001d94: 13 05 50 04 	li	a0, 0x45
180001d98: 13 86 04 00 	mv	a2, s1
180001d9c: 93 06 0b 00 	mv	a3, s6
180001da0: 93 85 0a 00 	mv	a1, s5
180001da4: e7 00 0a 00 	jalr	s4
180001da8: 1b 57 fc 41 	sraiw	a4, s8, 0x1f
180001dac: b3 46 ec 00 	xor	a3, s8, a4
180001db0: 9b 87 fc ff 	addiw	a5, s9, -0x1
180001db4: 93 05 50 00 	li	a1, 0x5
180001db8: 13 86 14 00 	addi	a2, s1, 0x1
180001dbc: 23 34 b1 00 	sd	a1, 0x8(sp)
180001dc0: 23 30 f1 00 	sd	a5, 0x0(sp)
180001dc4: 3b 87 e6 40 	subw	a4, a3, a4
180001dc8: 93 08 00 00 	li	a7, 0x0
180001dcc: 13 08 a0 00 	li	a6, 0xa
180001dd0: 9b 57 fc 01 	srliw	a5, s8, 0x1f
180001dd4: 93 06 0b 00 	mv	a3, s6
180001dd8: 93 85 0a 00 	mv	a1, s5
180001ddc: 13 05 0a 00 	mv	a0, s4
180001de0: ef f0 8f cd 	jal	0x1800012b8 <_ntoa_long_long>
180001de4: 93 04 05 00 	mv	s1, a0
180001de8: 63 8a 0b 02 	beqz	s7, 0x180001e1c <_etoa+0x2fc>
180001dec: 93 99 09 02 	slli	s3, s3, 0x20
180001df0: 33 09 25 41 	sub	s2, a0, s2
180001df4: 93 d9 09 02 	srli	s3, s3, 0x20
180001df8: 63 72 39 03 	bgeu	s2, s3, 0x180001e1c <_etoa+0x2fc>
180001dfc: 13 86 04 00 	mv	a2, s1
180001e00: 13 09 19 00 	addi	s2, s2, 0x1
180001e04: 93 06 0b 00 	mv	a3, s6
180001e08: 93 85 0a 00 	mv	a1, s5
180001e0c: 13 05 00 02 	li	a0, 0x20
180001e10: 93 84 14 00 	addi	s1, s1, 0x1
180001e14: e7 00 0a 00 	jalr	s4
180001e18: e3 62 39 ff 	bltu	s2, s3, 0x180001dfc <_etoa+0x2dc>
180001e1c: 83 30 81 06 	ld	ra, 0x68(sp)
180001e20: 03 34 01 06 	ld	s0, 0x60(sp)
180001e24: 03 39 01 05 	ld	s2, 0x50(sp)
180001e28: 83 39 81 04 	ld	s3, 0x48(sp)
180001e2c: 03 3a 01 04 	ld	s4, 0x40(sp)
180001e30: 83 3a 81 03 	ld	s5, 0x38(sp)
180001e34: 03 3b 01 03 	ld	s6, 0x30(sp)
180001e38: 83 3b 81 02 	ld	s7, 0x28(sp)
180001e3c: 03 3c 01 02 	ld	s8, 0x20(sp)
180001e40: 83 3c 81 01 	ld	s9, 0x18(sp)
180001e44: 13 85 04 00 	mv	a0, s1
180001e48: 83 34 81 05 	ld	s1, 0x58(sp)
180001e4c: 13 01 01 07 	addi	sp, sp, 0x70
180001e50: 67 80 00 00 	ret
180001e54: 13 08 04 00 	mv	a6, s0
180001e58: 03 34 01 06 	ld	s0, 0x60(sp)
180001e5c: 83 30 81 06 	ld	ra, 0x68(sp)
180001e60: 83 34 81 05 	ld	s1, 0x58(sp)
180001e64: 83 3b 81 02 	ld	s7, 0x28(sp)
180001e68: 03 3c 01 02 	ld	s8, 0x20(sp)
180001e6c: 83 3c 81 01 	ld	s9, 0x18(sp)
180001e70: 93 87 09 00 	mv	a5, s3
180001e74: 93 06 0b 00 	mv	a3, s6
180001e78: 83 39 81 04 	ld	s3, 0x48(sp)
180001e7c: 03 3b 01 03 	ld	s6, 0x30(sp)
180001e80: 13 06 09 00 	mv	a2, s2
180001e84: 93 85 0a 00 	mv	a1, s5
180001e88: 03 39 01 05 	ld	s2, 0x50(sp)
180001e8c: 83 3a 81 03 	ld	s5, 0x38(sp)
180001e90: 13 05 0a 00 	mv	a0, s4
180001e94: 03 3a 01 04 	ld	s4, 0x40(sp)
180001e98: 13 01 01 07 	addi	sp, sp, 0x70
180001e9c: 6f f0 5f 83 	j	0x1800016d0 <_ftoa>
180001ea0: 53 87 06 f2 	fmv.d.x	fa4, a3
180001ea4: d3 77 f7 1a 	fdiv.d	fa5, fa4, fa5
180001ea8: d3 86 07 e2 	fmv.x.d	a3, fa5
180001eac: 6f f0 9f e9 	j	0x180001d44 <_etoa+0x224>
180001eb0: e3 08 07 e6 	beqz	a4, 0x180001d20 <_etoa+0x200>
180001eb4: e3 86 05 e6 	beqz	a1, 0x180001d20 <_etoa+0x200>
180001eb8: 1b 07 f7 ff 	addiw	a4, a4, -0x1
180001ebc: 6f f0 5f e6 	j	0x180001d20 <_etoa+0x200>

0000000180001ec0 <_vsnprintf>:
180001ec0: 13 01 01 f6 	addi	sp, sp, -0xa0
180001ec4: 23 34 91 08 	sd	s1, 0x88(sp)
180001ec8: 23 30 21 09 	sd	s2, 0x80(sp)
180001ecc: 23 3c 31 07 	sd	s3, 0x78(sp)
180001ed0: 23 34 51 07 	sd	s5, 0x68(sp)
180001ed4: 23 38 81 05 	sd	s8, 0x50(sp)
180001ed8: 23 3c 11 08 	sd	ra, 0x98(sp)
180001edc: 23 38 81 08 	sd	s0, 0x90(sp)
180001ee0: 23 38 41 07 	sd	s4, 0x70(sp)
180001ee4: 23 30 61 07 	sd	s6, 0x60(sp)
180001ee8: 23 3c 71 05 	sd	s7, 0x58(sp)
180001eec: 23 34 91 05 	sd	s9, 0x48(sp)
180001ef0: 23 30 a1 05 	sd	s10, 0x40(sp)
180001ef4: 23 3c b1 03 	sd	s11, 0x38(sp)
180001ef8: 13 89 05 00 	mv	s2, a1
180001efc: 93 04 06 00 	mv	s1, a2
180001f00: 93 8a 06 00 	mv	s5, a3
180001f04: 13 0c 07 00 	mv	s8, a4
180001f08: 97 f9 ff ff 	auipc	s3, 0xfffff
180001f0c: 93 89 09 27 	addi	s3, s3, 0x270
180001f10: 63 84 05 00 	beqz	a1, 0x180001f18 <_vsnprintf+0x58>
180001f14: 93 09 05 00 	mv	s3, a0
180001f18: 03 c5 0a 00 	lbu	a0, 0x0(s5)
180001f1c: 93 0b 00 00 	li	s7, 0x0
180001f20: 63 0e 05 6a 	beqz	a0, 0x1800025dc <_vsnprintf+0x71c>
180001f24: b7 97 00 00 	lui	a5, 0x9
180001f28: 93 87 17 04 	addi	a5, a5, 0x41
180001f2c: 13 0a 50 02 	li	s4, 0x25
180001f30: 17 1b 00 00 	auipc	s6, 0x1
180001f34: 13 0b 0b 30 	addi	s6, s6, 0x300
180001f38: 23 3c f1 00 	sd	a5, 0x18(sp)
180001f3c: 6f 00 00 02 	j	0x180001f5c <_vsnprintf+0x9c>
180001f40: 13 86 0b 00 	mv	a2, s7
180001f44: 93 86 04 00 	mv	a3, s1
180001f48: 93 05 09 00 	mv	a1, s2
180001f4c: 93 8b 1b 00 	addi	s7, s7, 0x1
180001f50: e7 80 09 00 	jalr	s3
180001f54: 03 c5 0a 00 	lbu	a0, 0x0(s5)
180001f58: 63 06 05 1a 	beqz	a0, 0x180002104 <_vsnprintf+0x244>
180001f5c: 93 8a 1a 00 	addi	s5, s5, 0x1
180001f60: e3 10 45 ff 	bne	a0, s4, 0x180001f40 <_vsnprintf+0x80>
180001f64: 13 04 00 00 	li	s0, 0x0
180001f68: 13 07 00 01 	li	a4, 0x10
180001f6c: 03 c5 0a 00 	lbu	a0, 0x0(s5)
180001f70: 93 86 1a 00 	addi	a3, s5, 0x1
180001f74: 9b 07 05 fe 	addiw	a5, a0, -0x20
180001f78: 93 f7 f7 0f 	andi	a5, a5, 0xff
180001f7c: 63 6c f7 00 	bltu	a4, a5, 0x180001f94 <_vsnprintf+0xd4>
180001f80: 93 97 27 00 	slli	a5, a5, 0x2
180001f84: b3 87 67 01 	add	a5, a5, s6
180001f88: 83 a7 07 00 	lw	a5, 0x0(a5)
180001f8c: b3 87 67 01 	add	a5, a5, s6
180001f90: 67 80 07 00 	jr	a5
180001f94: 9b 07 05 fd 	addiw	a5, a0, -0x30
180001f98: 93 f7 f7 0f 	andi	a5, a5, 0xff
180001f9c: 13 07 90 00 	li	a4, 0x9
180001fa0: 63 72 f7 1c 	bgeu	a4, a5, 0x180002164 <_vsnprintf+0x2a4>
180001fa4: 13 07 a0 02 	li	a4, 0x2a
180001fa8: 93 0d 00 00 	li	s11, 0x0
180001fac: 63 06 e5 22 	beq	a0, a4, 0x1800021d8 <_vsnprintf+0x318>
180001fb0: 13 07 e0 02 	li	a4, 0x2e
180001fb4: 93 0c 00 00 	li	s9, 0x0
180001fb8: 63 06 e5 1e 	beq	a0, a4, 0x1800021a4 <_vsnprintf+0x2e4>
180001fbc: 1b 06 85 f9 	addiw	a2, a0, -0x68
180001fc0: 13 76 f6 0f 	andi	a2, a2, 0xff
180001fc4: 13 07 20 01 	li	a4, 0x12
180001fc8: 63 60 c7 08 	bltu	a4, a2, 0x180002048 <_vsnprintf+0x188>
180001fcc: 97 17 00 00 	auipc	a5, 0x1
180001fd0: 93 87 87 2a 	addi	a5, a5, 0x2a8
180001fd4: 13 16 26 00 	slli	a2, a2, 0x2
180001fd8: 33 06 f6 00 	add	a2, a2, a5
180001fdc: 03 27 06 00 	lw	a4, 0x0(a2)
180001fe0: 33 07 f7 00 	add	a4, a4, a5
180001fe4: 67 00 07 00 	jr	a4
180001fe8: 13 64 14 00 	ori	s0, s0, 0x1
180001fec: 1b 04 04 00 	sext.w	s0, s0
180001ff0: 93 8a 06 00 	mv	s5, a3
180001ff4: 6f f0 9f f7 	j	0x180001f6c <_vsnprintf+0xac>
180001ff8: 13 64 24 00 	ori	s0, s0, 0x2
180001ffc: 1b 04 04 00 	sext.w	s0, s0
180002000: 93 8a 06 00 	mv	s5, a3
180002004: 6f f0 9f f6 	j	0x180001f6c <_vsnprintf+0xac>
180002008: 13 64 44 00 	ori	s0, s0, 0x4
18000200c: 1b 04 04 00 	sext.w	s0, s0
180002010: 93 8a 06 00 	mv	s5, a3
180002014: 6f f0 9f f5 	j	0x180001f6c <_vsnprintf+0xac>
180002018: 13 64 04 01 	ori	s0, s0, 0x10
18000201c: 1b 04 04 00 	sext.w	s0, s0
180002020: 93 8a 06 00 	mv	s5, a3
180002024: 6f f0 9f f4 	j	0x180001f6c <_vsnprintf+0xac>
180002028: 13 64 84 00 	ori	s0, s0, 0x8
18000202c: 1b 04 04 00 	sext.w	s0, s0
180002030: 93 8a 06 00 	mv	s5, a3
180002034: 6f f0 9f f3 	j	0x180001f6c <_vsnprintf+0xac>
180002038: 03 c5 1a 00 	lbu	a0, 0x1(s5)
18000203c: 13 64 04 10 	ori	s0, s0, 0x100
180002040: 1b 04 04 00 	sext.w	s0, s0
180002044: 93 86 16 00 	addi	a3, a3, 0x1
180002048: 13 07 70 06 	li	a4, 0x67
18000204c: 93 8a 06 00 	mv	s5, a3
180002050: 63 6c a7 02 	bltu	a4, a0, 0x180002088 <_vsnprintf+0x1c8>
180002054: 13 07 40 02 	li	a4, 0x24
180002058: e3 74 a7 ee 	bgeu	a4, a0, 0x180001f40 <_vsnprintf+0x80>
18000205c: 1b 07 b5 fd 	addiw	a4, a0, -0x25
180002060: 13 77 f7 0f 	andi	a4, a4, 0xff
180002064: 93 06 20 04 	li	a3, 0x42
180002068: e3 ec e6 ec 	bltu	a3, a4, 0x180001f40 <_vsnprintf+0x80>
18000206c: 97 17 00 00 	auipc	a5, 0x1
180002070: 93 87 47 25 	addi	a5, a5, 0x254
180002074: 13 17 27 00 	slli	a4, a4, 0x2
180002078: 33 07 f7 00 	add	a4, a4, a5
18000207c: 03 27 07 00 	lw	a4, 0x0(a4)
180002080: 33 07 f7 00 	add	a4, a4, a5
180002084: 67 00 07 00 	jr	a4
180002088: 1b 07 75 f9 	addiw	a4, a0, -0x69
18000208c: 13 77 f7 0f 	andi	a4, a4, 0xff
180002090: 93 06 f0 00 	li	a3, 0xf
180002094: e3 e6 e6 ea 	bltu	a3, a4, 0x180001f40 <_vsnprintf+0x80>
180002098: 83 37 81 01 	ld	a5, 0x18(sp)
18000209c: 93 06 10 00 	li	a3, 0x1
1800020a0: b3 96 e6 00 	sll	a3, a3, a4
1800020a4: b3 f6 f6 00 	and	a3, a3, a5
1800020a8: 63 92 06 4e 	bnez	a3, 0x18000258c <_vsnprintf+0x6cc>
1800020ac: 93 06 a0 00 	li	a3, 0xa
1800020b0: 63 00 d7 2a 	beq	a4, a3, 0x180002350 <_vsnprintf+0x490>
1800020b4: 93 07 70 00 	li	a5, 0x7
1800020b8: e3 14 f7 e8 	bne	a4, a5, 0x180001f40 <_vsnprintf+0x80>
1800020bc: 93 67 14 02 	ori	a5, s0, 0x21
1800020c0: 03 37 0c 00 	ld	a4, 0x0(s8)
1800020c4: 9b 87 07 00 	sext.w	a5, a5
1800020c8: 23 34 f1 00 	sd	a5, 0x8(sp)
1800020cc: 93 07 00 01 	li	a5, 0x10
1800020d0: 13 86 0b 00 	mv	a2, s7
1800020d4: 23 30 f1 00 	sd	a5, 0x0(sp)
1800020d8: 93 88 0c 00 	mv	a7, s9
1800020dc: 13 08 00 01 	li	a6, 0x10
1800020e0: 93 07 00 00 	li	a5, 0x0
1800020e4: 93 86 04 00 	mv	a3, s1
1800020e8: 93 05 09 00 	mv	a1, s2
1800020ec: 13 85 09 00 	mv	a0, s3
1800020f0: ef f0 8f 9c 	jal	0x1800012b8 <_ntoa_long_long>
1800020f4: 93 0b 05 00 	mv	s7, a0
1800020f8: 03 c5 0a 00 	lbu	a0, 0x0(s5)
1800020fc: 13 0c 8c 00 	addi	s8, s8, 0x8
180002100: e3 1e 05 e4 	bnez	a0, 0x180001f5c <_vsnprintf+0x9c>
180002104: 1b 84 0b 00 	sext.w	s0, s7
180002108: 63 e4 9b 00 	bltu	s7, s1, 0x180002110 <_vsnprintf+0x250>
18000210c: 93 8b f4 ff 	addi	s7, s1, -0x1
180002110: 93 86 04 00 	mv	a3, s1
180002114: 13 86 0b 00 	mv	a2, s7
180002118: 93 05 09 00 	mv	a1, s2
18000211c: 13 05 00 00 	li	a0, 0x0
180002120: e7 80 09 00 	jalr	s3
180002124: 83 30 81 09 	ld	ra, 0x98(sp)
180002128: 13 05 04 00 	mv	a0, s0
18000212c: 03 34 01 09 	ld	s0, 0x90(sp)
180002130: 83 34 81 08 	ld	s1, 0x88(sp)
180002134: 03 39 01 08 	ld	s2, 0x80(sp)
180002138: 83 39 81 07 	ld	s3, 0x78(sp)
18000213c: 03 3a 01 07 	ld	s4, 0x70(sp)
180002140: 83 3a 81 06 	ld	s5, 0x68(sp)
180002144: 03 3b 01 06 	ld	s6, 0x60(sp)
180002148: 83 3b 81 05 	ld	s7, 0x58(sp)
18000214c: 03 3c 01 05 	ld	s8, 0x50(sp)
180002150: 83 3c 81 04 	ld	s9, 0x48(sp)
180002154: 03 3d 01 04 	ld	s10, 0x40(sp)
180002158: 83 3d 81 03 	ld	s11, 0x38(sp)
18000215c: 13 01 01 0a 	addi	sp, sp, 0xa0
180002160: 67 80 00 00 	ret
180002164: 93 0d 00 00 	li	s11, 0x0
180002168: 13 06 90 00 	li	a2, 0x9
18000216c: 1b 97 2d 00 	slliw	a4, s11, 0x2
180002170: 3b 07 b7 01 	addw	a4, a4, s11
180002174: 1b 17 17 00 	slliw	a4, a4, 0x1
180002178: 3b 07 a7 00 	addw	a4, a4, a0
18000217c: 03 c5 06 00 	lbu	a0, 0x0(a3)
180002180: 9b 0d 07 fd 	addiw	s11, a4, -0x30
180002184: 93 8a 06 00 	mv	s5, a3
180002188: 1b 07 05 fd 	addiw	a4, a0, -0x30
18000218c: 13 77 f7 0f 	andi	a4, a4, 0xff
180002190: 93 86 16 00 	addi	a3, a3, 0x1
180002194: e3 7c e6 fc 	bgeu	a2, a4, 0x18000216c <_vsnprintf+0x2ac>
180002198: 13 07 e0 02 	li	a4, 0x2e
18000219c: 93 0c 00 00 	li	s9, 0x0
1800021a0: e3 1e e5 e0 	bne	a0, a4, 0x180001fbc <_vsnprintf+0xfc>
1800021a4: 03 c5 1a 00 	lbu	a0, 0x1(s5)
1800021a8: 13 64 04 40 	ori	s0, s0, 0x400
1800021ac: 93 05 90 00 	li	a1, 0x9
1800021b0: 1b 07 05 fd 	addiw	a4, a0, -0x30
1800021b4: 13 77 f7 0f 	andi	a4, a4, 0xff
1800021b8: 13 86 06 00 	mv	a2, a3
1800021bc: 1b 04 04 00 	sext.w	s0, s0
1800021c0: 63 f0 e5 24 	bgeu	a1, a4, 0x180002400 <_vsnprintf+0x540>
1800021c4: 13 07 a0 02 	li	a4, 0x2a
1800021c8: 63 08 e5 26 	beq	a0, a4, 0x180002438 <_vsnprintf+0x578>
1800021cc: 93 8a 06 00 	mv	s5, a3
1800021d0: 93 86 16 00 	addi	a3, a3, 0x1
1800021d4: 6f f0 9f de 	j	0x180001fbc <_vsnprintf+0xfc>
1800021d8: 03 27 0c 00 	lw	a4, 0x0(s8)
1800021dc: 13 0c 8c 00 	addi	s8, s8, 0x8
1800021e0: 9b 0d 07 00 	sext.w	s11, a4
1800021e4: 63 4a 07 00 	bltz	a4, 0x1800021f8 <_vsnprintf+0x338>
1800021e8: 03 c5 1a 00 	lbu	a0, 0x1(s5)
1800021ec: 93 8a 06 00 	mv	s5, a3
1800021f0: 93 86 16 00 	addi	a3, a3, 0x1
1800021f4: 6f f0 df db 	j	0x180001fb0 <_vsnprintf+0xf0>
1800021f8: 13 64 24 00 	ori	s0, s0, 0x2
1800021fc: 03 c5 1a 00 	lbu	a0, 0x1(s5)
180002200: 1b 04 04 00 	sext.w	s0, s0
180002204: 93 8a 06 00 	mv	s5, a3
180002208: bb 0d e0 40 	negw	s11, a4
18000220c: 93 86 16 00 	addi	a3, a3, 0x1
180002210: 6f f0 1f da 	j	0x180001fb0 <_vsnprintf+0xf0>
180002214: 13 07 70 06 	li	a4, 0x67
180002218: 63 0e e5 30 	beq	a0, a4, 0x180002534 <_vsnprintf+0x674>
18000221c: 13 07 70 04 	li	a4, 0x47
180002220: 63 06 e5 38 	beq	a0, a4, 0x1800025ac <_vsnprintf+0x6ec>
180002224: 13 07 50 04 	li	a4, 0x45
180002228: 63 0a e5 38 	beq	a0, a4, 0x1800025bc <_vsnprintf+0x6fc>
18000222c: 07 35 0c 00 	fld	fa0, 0x0(s8)
180002230: 13 86 0b 00 	mv	a2, s7
180002234: 13 08 04 00 	mv	a6, s0
180002238: 93 87 0d 00 	mv	a5, s11
18000223c: 13 87 0c 00 	mv	a4, s9
180002240: 93 86 04 00 	mv	a3, s1
180002244: 93 05 09 00 	mv	a1, s2
180002248: 13 85 09 00 	mv	a0, s3
18000224c: ef f0 5f 8d 	jal	0x180001b20 <_etoa>
180002250: 13 0c 8c 00 	addi	s8, s8, 0x8
180002254: 93 0b 05 00 	mv	s7, a0
180002258: 6f f0 df cf 	j	0x180001f54 <_vsnprintf+0x94>
18000225c: 03 c5 1a 00 	lbu	a0, 0x1(s5)
180002260: 13 07 c0 06 	li	a4, 0x6c
180002264: e3 1c e5 dc 	bne	a0, a4, 0x18000203c <_vsnprintf+0x17c>
180002268: 13 64 04 30 	ori	s0, s0, 0x300
18000226c: 03 c5 2a 00 	lbu	a0, 0x2(s5)
180002270: 1b 04 04 00 	sext.w	s0, s0
180002274: 93 86 3a 00 	addi	a3, s5, 0x3
180002278: 6f f0 1f dd 	j	0x180002048 <_vsnprintf+0x188>
18000227c: 03 c5 1a 00 	lbu	a0, 0x1(s5)
180002280: 13 07 80 06 	li	a4, 0x68
180002284: 63 02 e5 34 	beq	a0, a4, 0x1800025c8 <_vsnprintf+0x708>
180002288: 13 64 04 08 	ori	s0, s0, 0x80
18000228c: 1b 04 04 00 	sext.w	s0, s0
180002290: 93 86 16 00 	addi	a3, a3, 0x1
180002294: 6f f0 5f db 	j	0x180002048 <_vsnprintf+0x188>
180002298: 13 07 60 04 	li	a4, 0x46
18000229c: 63 06 e5 28 	beq	a0, a4, 0x180002528 <_vsnprintf+0x668>
1800022a0: 07 35 0c 00 	fld	fa0, 0x0(s8)
1800022a4: 13 86 0b 00 	mv	a2, s7
1800022a8: 13 08 04 00 	mv	a6, s0
1800022ac: 93 87 0d 00 	mv	a5, s11
1800022b0: 13 87 0c 00 	mv	a4, s9
1800022b4: 93 86 04 00 	mv	a3, s1
1800022b8: 93 05 09 00 	mv	a1, s2
1800022bc: 13 85 09 00 	mv	a0, s3
1800022c0: ef f0 0f c1 	jal	0x1800016d0 <_ftoa>
1800022c4: 13 0c 8c 00 	addi	s8, s8, 0x8
1800022c8: 93 0b 05 00 	mv	s7, a0
1800022cc: 6f f0 9f c8 	j	0x180001f54 <_vsnprintf+0x94>
1800022d0: 13 78 24 00 	andi	a6, s0, 0x2
1800022d4: 13 0d 8c 00 	addi	s10, s8, 0x8
1800022d8: 93 8c 1b 00 	addi	s9, s7, 0x1
1800022dc: 63 0c 08 30 	beqz	a6, 0x1800025f4 <_vsnprintf+0x734>
1800022e0: 03 45 0c 00 	lbu	a0, 0x0(s8)
1800022e4: 93 86 04 00 	mv	a3, s1
1800022e8: 13 86 0b 00 	mv	a2, s7
1800022ec: 93 05 09 00 	mv	a1, s2
1800022f0: e7 80 09 00 	jalr	s3
1800022f4: 13 07 10 00 	li	a4, 0x1
1800022f8: 63 76 b7 3d 	bgeu	a4, s11, 0x1800026c4 <_vsnprintf+0x804>
1800022fc: 9b 87 ed ff 	addiw	a5, s11, -0x2
180002300: 93 97 07 02 	slli	a5, a5, 0x20
180002304: 93 8e 2b 00 	addi	t4, s7, 0x2
180002308: 93 d7 07 02 	srli	a5, a5, 0x20
18000230c: b3 8b fe 00 	add	s7, t4, a5
180002310: 13 86 0c 00 	mv	a2, s9
180002314: 93 86 04 00 	mv	a3, s1
180002318: 93 8c 1c 00 	addi	s9, s9, 0x1
18000231c: 93 05 09 00 	mv	a1, s2
180002320: 13 05 00 02 	li	a0, 0x20
180002324: e7 80 09 00 	jalr	s3
180002328: e3 94 7c ff 	bne	s9, s7, 0x180002310 <_vsnprintf+0x450>
18000232c: 13 0c 0d 00 	mv	s8, s10
180002330: 6f f0 5f c2 	j	0x180001f54 <_vsnprintf+0x94>
180002334: 13 86 0b 00 	mv	a2, s7
180002338: 93 86 04 00 	mv	a3, s1
18000233c: 93 05 09 00 	mv	a1, s2
180002340: 13 05 50 02 	li	a0, 0x25
180002344: 93 8b 1b 00 	addi	s7, s7, 0x1
180002348: e7 80 09 00 	jalr	s3
18000234c: 6f f0 9f c0 	j	0x180001f54 <_vsnprintf+0x94>
180002350: 83 37 0c 00 	ld	a5, 0x0(s8)
180002354: 93 06 f0 ff 	li	a3, -0x1
180002358: 23 38 f1 00 	sd	a5, 0x10(sp)
18000235c: 93 07 8c 00 	addi	a5, s8, 0x8
180002360: 23 34 f1 02 	sd	a5, 0x28(sp)
180002364: 63 9c 0c 0e 	bnez	s9, 0x18000245c <_vsnprintf+0x59c>
180002368: 03 3d 01 01 	ld	s10, 0x10(sp)
18000236c: 03 45 0d 00 	lbu	a0, 0x0(s10)
180002370: 63 0e 05 4e 	beqz	a0, 0x18000286c <_vsnprintf+0x9ac>
180002374: b3 06 dd 00 	add	a3, s10, a3
180002378: 6f 00 80 00 	j	0x180002380 <_vsnprintf+0x4c0>
18000237c: 63 08 dd 00 	beq	s10, a3, 0x18000238c <_vsnprintf+0x4cc>
180002380: 03 47 1d 00 	lbu	a4, 0x1(s10)
180002384: 13 0d 1d 00 	addi	s10, s10, 0x1
180002388: e3 1a 07 fe 	bnez	a4, 0x18000237c <_vsnprintf+0x4bc>
18000238c: 83 37 01 01 	ld	a5, 0x10(sp)
180002390: 3b 0d fd 40 	subw	s10, s10, a5
180002394: 93 77 04 40 	andi	a5, s0, 0x400
180002398: 23 30 f1 02 	sd	a5, 0x20(sp)
18000239c: 63 8a 07 00 	beqz	a5, 0x1800023b0 <_vsnprintf+0x4f0>
1800023a0: 13 87 0c 00 	mv	a4, s9
1800023a4: 63 74 9d 01 	bgeu	s10, s9, 0x1800023ac <_vsnprintf+0x4ec>
1800023a8: 13 07 0d 00 	mv	a4, s10
1800023ac: 1b 0d 07 00 	sext.w	s10, a4
1800023b0: 13 74 24 00 	andi	s0, s0, 0x2
1800023b4: 63 0e 04 28 	beqz	s0, 0x180002650 <_vsnprintf+0x790>
1800023b8: 63 08 05 18 	beqz	a0, 0x180002548 <_vsnprintf+0x688>
1800023bc: 83 37 01 02 	ld	a5, 0x20(sp)
1800023c0: 63 94 07 0a 	bnez	a5, 0x180002468 <_vsnprintf+0x5a8>
1800023c4: 13 8c 0b 00 	mv	s8, s7
1800023c8: 13 06 0c 00 	mv	a2, s8
1800023cc: 93 86 04 00 	mv	a3, s1
1800023d0: 93 05 09 00 	mv	a1, s2
1800023d4: e7 80 09 00 	jalr	s3
1800023d8: 83 37 01 01 	ld	a5, 0x10(sp)
1800023dc: 13 0c 1c 00 	addi	s8, s8, 0x1
1800023e0: b3 06 7c 41 	sub	a3, s8, s7
1800023e4: b3 86 d7 00 	add	a3, a5, a3
1800023e8: 03 c5 06 00 	lbu	a0, 0x0(a3)
1800023ec: e3 1e 05 fc 	bnez	a0, 0x1800023c8 <_vsnprintf+0x508>
1800023f0: 93 0b 0c 00 	mv	s7, s8
1800023f4: 63 1a 04 14 	bnez	s0, 0x180002548 <_vsnprintf+0x688>
1800023f8: 03 3c 81 02 	ld	s8, 0x28(sp)
1800023fc: 6f f0 9f b5 	j	0x180001f54 <_vsnprintf+0x94>
180002400: 93 06 90 00 	li	a3, 0x9
180002404: 1b 97 2c 00 	slliw	a4, s9, 0x2
180002408: 3b 07 97 01 	addw	a4, a4, s9
18000240c: 13 06 16 00 	addi	a2, a2, 0x1
180002410: 1b 17 17 00 	slliw	a4, a4, 0x1
180002414: 3b 07 a7 00 	addw	a4, a4, a0
180002418: 03 45 06 00 	lbu	a0, 0x0(a2)
18000241c: 9b 0c 07 fd 	addiw	s9, a4, -0x30
180002420: 1b 07 05 fd 	addiw	a4, a0, -0x30
180002424: 13 77 f7 0f 	andi	a4, a4, 0xff
180002428: e3 fe e6 fc 	bgeu	a3, a4, 0x180002404 <_vsnprintf+0x544>
18000242c: 93 0a 06 00 	mv	s5, a2
180002430: 93 06 16 00 	addi	a3, a2, 0x1
180002434: 6f f0 9f b8 	j	0x180001fbc <_vsnprintf+0xfc>
180002438: 03 27 0c 00 	lw	a4, 0x0(s8)
18000243c: 03 c5 2a 00 	lbu	a0, 0x2(s5)
180002440: 93 8a 2a 00 	addi	s5, s5, 0x2
180002444: 93 48 f7 ff 	not	a7, a4
180002448: 93 d8 f8 43 	srai	a7, a7, 0x3f
18000244c: b3 fc e8 00 	and	s9, a7, a4
180002450: 13 0c 8c 00 	addi	s8, s8, 0x8
180002454: 93 86 1a 00 	addi	a3, s5, 0x1
180002458: 6f f0 5f b6 	j	0x180001fbc <_vsnprintf+0xfc>
18000245c: 93 96 0c 02 	slli	a3, s9, 0x20
180002460: 93 d6 06 02 	srli	a3, a3, 0x20
180002464: 6f f0 5f f0 	j	0x180002368 <_vsnprintf+0x4a8>
180002468: 93 98 0c 02 	slli	a7, s9, 0x20
18000246c: 93 d8 08 02 	srli	a7, a7, 0x20
180002470: b3 8c 78 01 	add	s9, a7, s7
180002474: 13 86 0b 00 	mv	a2, s7
180002478: 63 88 cc 16 	beq	s9, a2, 0x1800025e8 <_vsnprintf+0x728>
18000247c: 93 86 04 00 	mv	a3, s1
180002480: 93 05 09 00 	mv	a1, s2
180002484: 13 0c 16 00 	addi	s8, a2, 0x1
180002488: e7 80 09 00 	jalr	s3
18000248c: 83 37 01 01 	ld	a5, 0x10(sp)
180002490: b3 06 7c 41 	sub	a3, s8, s7
180002494: b3 86 d7 00 	add	a3, a5, a3
180002498: 03 c5 06 00 	lbu	a0, 0x0(a3)
18000249c: e3 0a 05 f4 	beqz	a0, 0x1800023f0 <_vsnprintf+0x530>
1800024a0: 13 06 0c 00 	mv	a2, s8
1800024a4: 6f f0 5f fd 	j	0x180002478 <_vsnprintf+0x5b8>
1800024a8: 13 07 20 06 	li	a4, 0x62
1800024ac: 63 04 e5 26 	beq	a0, a4, 0x180002714 <_vsnprintf+0x854>
1800024b0: 13 07 80 05 	li	a4, 0x58
1800024b4: 63 0c e5 2a 	beq	a0, a4, 0x18000276c <_vsnprintf+0x8ac>
1800024b8: 13 77 04 40 	andi	a4, s0, 0x400
1800024bc: 63 14 07 1e 	bnez	a4, 0x1800026a4 <_vsnprintf+0x7e4>
1800024c0: 93 76 f4 fe 	andi	a3, s0, -0x11
1800024c4: 9b 86 06 00 	sext.w	a3, a3
1800024c8: 13 f7 06 20 	andi	a4, a3, 0x200
1800024cc: 13 04 8c 00 	addi	s0, s8, 0x8
1800024d0: 13 86 06 00 	mv	a2, a3
1800024d4: 63 1e 07 1e 	bnez	a4, 0x1800026d0 <_vsnprintf+0x810>
1800024d8: 13 f7 06 10 	andi	a4, a3, 0x100
1800024dc: 63 18 07 2e 	bnez	a4, 0x1800027cc <_vsnprintf+0x90c>
1800024e0: 13 77 06 04 	andi	a4, a2, 0x40
1800024e4: 83 27 0c 00 	lw	a5, 0x0(s8)
1800024e8: 63 08 07 30 	beqz	a4, 0x1800027f8 <_vsnprintf+0x938>
1800024ec: 93 f7 f7 0f 	andi	a5, a5, 0xff
1800024f0: 13 87 07 00 	mv	a4, a5
1800024f4: 13 86 0b 00 	mv	a2, s7
1800024f8: 23 34 d1 00 	sd	a3, 0x8(sp)
1800024fc: 23 30 b1 01 	sd	s11, 0x0(sp)
180002500: 93 88 0c 00 	mv	a7, s9
180002504: 13 08 a0 00 	li	a6, 0xa
180002508: 9b d7 f7 01 	srliw	a5, a5, 0x1f
18000250c: 93 86 04 00 	mv	a3, s1
180002510: 93 05 09 00 	mv	a1, s2
180002514: 13 85 09 00 	mv	a0, s3
180002518: ef e0 1f da 	jal	0x1800012b8 <_ntoa_long_long>
18000251c: 93 0b 05 00 	mv	s7, a0
180002520: 13 0c 04 00 	mv	s8, s0
180002524: 6f f0 1f a3 	j	0x180001f54 <_vsnprintf+0x94>
180002528: 13 64 04 02 	ori	s0, s0, 0x20
18000252c: 1b 04 04 00 	sext.w	s0, s0
180002530: 6f f0 1f d7 	j	0x1800022a0 <_vsnprintf+0x3e0>
180002534: 37 17 00 00 	lui	a4, 0x1
180002538: 13 07 07 80 	addi	a4, a4, -0x800
18000253c: 33 67 e4 00 	or	a4, s0, a4
180002540: 1b 04 07 00 	sext.w	s0, a4
180002544: 6f f0 9f ce 	j	0x18000222c <_vsnprintf+0x36c>
180002548: 13 84 0b 00 	mv	s0, s7
18000254c: e3 76 bd eb 	bgeu	s10, s11, 0x1800023f8 <_vsnprintf+0x538>
180002550: 9b 87 fd ff 	addiw	a5, s11, -0x1
180002554: bb 87 a7 41 	subw	a5, a5, s10
180002558: 93 97 07 02 	slli	a5, a5, 0x20
18000255c: 93 d7 07 02 	srli	a5, a5, 0x20
180002560: 93 8e 1b 00 	addi	t4, s7, 0x1
180002564: b3 8b d7 01 	add	s7, a5, t4
180002568: 13 06 04 00 	mv	a2, s0
18000256c: 93 86 04 00 	mv	a3, s1
180002570: 13 04 14 00 	addi	s0, s0, 0x1
180002574: 93 05 09 00 	mv	a1, s2
180002578: 13 05 00 02 	li	a0, 0x20
18000257c: e7 80 09 00 	jalr	s3
180002580: e3 14 74 ff 	bne	s0, s7, 0x180002568 <_vsnprintf+0x6a8>
180002584: 03 3c 81 02 	ld	s8, 0x28(sp)
180002588: 6f f0 df 9c 	j	0x180001f54 <_vsnprintf+0x94>
18000258c: 13 07 80 07 	li	a4, 0x78
180002590: 63 1a e5 20 	bne	a0, a4, 0x1800027a4 <_vsnprintf+0x8e4>
180002594: 13 77 04 40 	andi	a4, s0, 0x400
180002598: 63 0c 07 2e 	beqz	a4, 0x180002890 <_vsnprintf+0x9d0>
18000259c: 93 76 24 ff 	andi	a3, s0, -0xe
1800025a0: 9b 86 06 00 	sext.w	a3, a3
1800025a4: 13 08 00 01 	li	a6, 0x10
1800025a8: 6f 00 00 18 	j	0x180002728 <_vsnprintf+0x868>
1800025ac: 37 17 00 00 	lui	a4, 0x1
1800025b0: 13 07 07 80 	addi	a4, a4, -0x800
1800025b4: 33 67 e4 00 	or	a4, s0, a4
1800025b8: 1b 04 07 00 	sext.w	s0, a4
1800025bc: 13 64 04 02 	ori	s0, s0, 0x20
1800025c0: 1b 04 04 00 	sext.w	s0, s0
1800025c4: 6f f0 9f c6 	j	0x18000222c <_vsnprintf+0x36c>
1800025c8: 13 64 04 0c 	ori	s0, s0, 0xc0
1800025cc: 03 c5 2a 00 	lbu	a0, 0x2(s5)
1800025d0: 1b 04 04 00 	sext.w	s0, s0
1800025d4: 93 86 3a 00 	addi	a3, s5, 0x3
1800025d8: 6f f0 1f a7 	j	0x180002048 <_vsnprintf+0x188>
1800025dc: 13 04 00 00 	li	s0, 0x0
1800025e0: e3 e8 9b b2 	bltu	s7, s1, 0x180002110 <_vsnprintf+0x250>
1800025e4: 6f f0 9f b2 	j	0x18000210c <_vsnprintf+0x24c>
1800025e8: 93 8b 0c 00 	mv	s7, s9
1800025ec: e3 06 04 e0 	beqz	s0, 0x1800023f8 <_vsnprintf+0x538>
1800025f0: 6f f0 9f f5 	j	0x180002548 <_vsnprintf+0x688>
1800025f4: 13 07 10 00 	li	a4, 0x1
1800025f8: 63 7c b7 0b 	bgeu	a4, s11, 0x1800026b0 <_vsnprintf+0x7f0>
1800025fc: 9b 87 ed ff 	addiw	a5, s11, -0x2
180002600: 13 94 07 02 	slli	s0, a5, 0x20
180002604: 13 54 04 02 	srli	s0, s0, 0x20
180002608: b3 0c 94 01 	add	s9, s0, s9
18000260c: 93 8d 0b 00 	mv	s11, s7
180002610: 13 86 0d 00 	mv	a2, s11
180002614: 93 86 04 00 	mv	a3, s1
180002618: 93 8d 1d 00 	addi	s11, s11, 0x1
18000261c: 93 05 09 00 	mv	a1, s2
180002620: 13 05 00 02 	li	a0, 0x20
180002624: e7 80 09 00 	jalr	s3
180002628: e3 94 9d ff 	bne	s11, s9, 0x180002610 <_vsnprintf+0x750>
18000262c: 03 45 0c 00 	lbu	a0, 0x0(s8)
180002630: 93 8e 2b 00 	addi	t4, s7, 0x2
180002634: 93 86 04 00 	mv	a3, s1
180002638: 13 86 0d 00 	mv	a2, s11
18000263c: 93 05 09 00 	mv	a1, s2
180002640: b3 8b 8e 00 	add	s7, t4, s0
180002644: 13 0c 0d 00 	mv	s8, s10
180002648: e7 80 09 00 	jalr	s3
18000264c: 6f f0 9f 90 	j	0x180001f54 <_vsnprintf+0x94>
180002650: 63 76 bd 23 	bgeu	s10, s11, 0x18000287c <_vsnprintf+0x9bc>
180002654: 1b 87 fd ff 	addiw	a4, s11, -0x1
180002658: 3b 0d a7 41 	subw	s10, a4, s10
18000265c: 13 1d 0d 02 	slli	s10, s10, 0x20
180002660: 13 5d 0d 02 	srli	s10, s10, 0x20
180002664: 13 8c 1b 00 	addi	s8, s7, 0x1
180002668: 33 0d 8d 01 	add	s10, s10, s8
18000266c: 6f 00 80 00 	j	0x180002674 <_vsnprintf+0x7b4>
180002670: 13 0c 1c 00 	addi	s8, s8, 0x1
180002674: 13 86 0b 00 	mv	a2, s7
180002678: 93 86 04 00 	mv	a3, s1
18000267c: 93 05 09 00 	mv	a1, s2
180002680: 13 05 00 02 	li	a0, 0x20
180002684: 93 0b 0c 00 	mv	s7, s8
180002688: e7 80 09 00 	jalr	s3
18000268c: e3 12 ac ff 	bne	s8, s10, 0x180002670 <_vsnprintf+0x7b0>
180002690: 83 37 01 01 	ld	a5, 0x10(sp)
180002694: 1b 8d 1d 00 	addiw	s10, s11, 0x1
180002698: 03 c5 07 00 	lbu	a0, 0x0(a5)
18000269c: e3 10 05 d2 	bnez	a0, 0x1800023bc <_vsnprintf+0x4fc>
1800026a0: 6f f0 9f d5 	j	0x1800023f8 <_vsnprintf+0x538>
1800026a4: 93 76 e4 fe 	andi	a3, s0, -0x12
1800026a8: 9b 86 06 00 	sext.w	a3, a3
1800026ac: 6f f0 df e1 	j	0x1800024c8 <_vsnprintf+0x608>
1800026b0: 03 45 0c 00 	lbu	a0, 0x0(s8)
1800026b4: 93 86 04 00 	mv	a3, s1
1800026b8: 13 86 0b 00 	mv	a2, s7
1800026bc: 93 05 09 00 	mv	a1, s2
1800026c0: e7 80 09 00 	jalr	s3
1800026c4: 93 8b 0c 00 	mv	s7, s9
1800026c8: 13 0c 0d 00 	mv	s8, s10
1800026cc: 6f f0 9f 88 	j	0x180001f54 <_vsnprintf+0x94>
1800026d0: 83 37 0c 00 	ld	a5, 0x0(s8)
1800026d4: 23 34 d1 00 	sd	a3, 0x8(sp)
1800026d8: 13 86 0b 00 	mv	a2, s7
1800026dc: 13 d7 f7 43 	srai	a4, a5, 0x3f
1800026e0: b3 46 f7 00 	xor	a3, a4, a5
1800026e4: 23 30 b1 01 	sd	s11, 0x0(sp)
1800026e8: 93 88 0c 00 	mv	a7, s9
1800026ec: 13 08 a0 00 	li	a6, 0xa
1800026f0: 93 d7 f7 03 	srli	a5, a5, 0x3f
1800026f4: 33 87 e6 40 	sub	a4, a3, a4
1800026f8: 93 86 04 00 	mv	a3, s1
1800026fc: 93 05 09 00 	mv	a1, s2
180002700: 13 85 09 00 	mv	a0, s3
180002704: ef e0 5f bb 	jal	0x1800012b8 <_ntoa_long_long>
180002708: 93 0b 05 00 	mv	s7, a0
18000270c: 13 0c 04 00 	mv	s8, s0
180002710: 6f f0 5f 84 	j	0x180001f54 <_vsnprintf+0x94>
180002714: 13 77 04 40 	andi	a4, s0, 0x400
180002718: 63 0a 07 12 	beqz	a4, 0x18000284c <_vsnprintf+0x98c>
18000271c: 93 76 24 ff 	andi	a3, s0, -0xe
180002720: 9b 86 06 00 	sext.w	a3, a3
180002724: 13 08 20 00 	li	a6, 0x2
180002728: 13 f7 06 20 	andi	a4, a3, 0x200
18000272c: 13 04 8c 00 	addi	s0, s8, 0x8
180002730: 13 86 06 00 	mv	a2, a3
180002734: 63 1a 07 04 	bnez	a4, 0x180002788 <_vsnprintf+0x8c8>
180002738: 13 f7 06 10 	andi	a4, a3, 0x100
18000273c: 63 1a 07 0e 	bnez	a4, 0x180002830 <_vsnprintf+0x970>
180002740: 13 77 06 04 	andi	a4, a2, 0x40
180002744: 63 0e 07 0c 	beqz	a4, 0x180002820 <_vsnprintf+0x960>
180002748: 03 47 0c 00 	lbu	a4, 0x0(s8)
18000274c: 13 17 07 02 	slli	a4, a4, 0x20
180002750: 13 86 0b 00 	mv	a2, s7
180002754: 23 34 d1 00 	sd	a3, 0x8(sp)
180002758: 23 30 b1 01 	sd	s11, 0x0(sp)
18000275c: 93 88 0c 00 	mv	a7, s9
180002760: 93 07 00 00 	li	a5, 0x0
180002764: 13 57 07 02 	srli	a4, a4, 0x20
180002768: 6f f0 5f da 	j	0x18000250c <_vsnprintf+0x64c>
18000276c: 13 77 04 40 	andi	a4, s0, 0x400
180002770: 63 0c 07 10 	beqz	a4, 0x180002888 <_vsnprintf+0x9c8>
180002774: 93 76 24 ff 	andi	a3, s0, -0xe
180002778: 9b 86 06 00 	sext.w	a3, a3
18000277c: 93 e6 06 02 	ori	a3, a3, 0x20
180002780: 13 08 00 01 	li	a6, 0x10
180002784: 6f f0 5f fa 	j	0x180002728 <_vsnprintf+0x868>
180002788: 03 37 0c 00 	ld	a4, 0x0(s8)
18000278c: 13 86 0b 00 	mv	a2, s7
180002790: 23 34 d1 00 	sd	a3, 0x8(sp)
180002794: 23 30 b1 01 	sd	s11, 0x0(sp)
180002798: 93 88 0c 00 	mv	a7, s9
18000279c: 93 07 00 00 	li	a5, 0x0
1800027a0: 6f f0 9f f5 	j	0x1800026f8 <_vsnprintf+0x838>
1800027a4: 13 07 f0 06 	li	a4, 0x6f
1800027a8: 63 1c e5 0e 	bne	a0, a4, 0x1800028a0 <_vsnprintf+0x9e0>
1800027ac: 93 76 34 ff 	andi	a3, s0, -0xd
1800027b0: 13 77 04 40 	andi	a4, s0, 0x400
1800027b4: 13 08 80 00 	li	a6, 0x8
1800027b8: 9b 86 06 00 	sext.w	a3, a3
1800027bc: e3 06 07 f6 	beqz	a4, 0x180002728 <_vsnprintf+0x868>
1800027c0: 93 76 24 ff 	andi	a3, s0, -0xe
1800027c4: 9b 86 06 00 	sext.w	a3, a3
1800027c8: 6f f0 1f f6 	j	0x180002728 <_vsnprintf+0x868>
1800027cc: 83 37 0c 00 	ld	a5, 0x0(s8)
1800027d0: 23 34 d1 00 	sd	a3, 0x8(sp)
1800027d4: 13 86 0b 00 	mv	a2, s7
1800027d8: 13 d7 f7 43 	srai	a4, a5, 0x3f
1800027dc: b3 46 f7 00 	xor	a3, a4, a5
1800027e0: 23 30 b1 01 	sd	s11, 0x0(sp)
1800027e4: 93 88 0c 00 	mv	a7, s9
1800027e8: 13 08 a0 00 	li	a6, 0xa
1800027ec: 93 d7 f7 03 	srli	a5, a5, 0x3f
1800027f0: 33 87 e6 40 	sub	a4, a3, a4
1800027f4: 6f f0 9f d1 	j	0x18000250c <_vsnprintf+0x64c>
1800027f8: 13 76 06 08 	andi	a2, a2, 0x80
1800027fc: 63 00 06 06 	beqz	a2, 0x18000285c <_vsnprintf+0x99c>
180002800: 9b 97 07 01 	slliw	a5, a5, 0x10
180002804: 9b d7 07 41 	sraiw	a5, a5, 0x10
180002808: 1b d6 f7 40 	sraiw	a2, a5, 0xf
18000280c: 33 c7 c7 00 	xor	a4, a5, a2
180002810: 3b 07 c7 40 	subw	a4, a4, a2
180002814: 13 17 07 03 	slli	a4, a4, 0x30
180002818: 13 57 07 03 	srli	a4, a4, 0x30
18000281c: 6f f0 9f cd 	j	0x1800024f4 <_vsnprintf+0x634>
180002820: 13 76 06 08 	andi	a2, a2, 0x80
180002824: 63 08 06 04 	beqz	a2, 0x180002874 <_vsnprintf+0x9b4>
180002828: 03 57 0c 00 	lhu	a4, 0x0(s8)
18000282c: 6f f0 1f f2 	j	0x18000274c <_vsnprintf+0x88c>
180002830: 03 37 0c 00 	ld	a4, 0x0(s8)
180002834: 13 86 0b 00 	mv	a2, s7
180002838: 23 34 d1 00 	sd	a3, 0x8(sp)
18000283c: 23 30 b1 01 	sd	s11, 0x0(sp)
180002840: 93 88 0c 00 	mv	a7, s9
180002844: 93 07 00 00 	li	a5, 0x0
180002848: 6f f0 5f cc 	j	0x18000250c <_vsnprintf+0x64c>
18000284c: 93 76 34 ff 	andi	a3, s0, -0xd
180002850: 9b 86 06 00 	sext.w	a3, a3
180002854: 13 08 20 00 	li	a6, 0x2
180002858: 6f f0 1f ed 	j	0x180002728 <_vsnprintf+0x868>
18000285c: 1b d6 f7 41 	sraiw	a2, a5, 0x1f
180002860: 33 c7 c7 00 	xor	a4, a5, a2
180002864: 3b 07 c7 40 	subw	a4, a4, a2
180002868: 6f f0 df c8 	j	0x1800024f4 <_vsnprintf+0x634>
18000286c: 13 0d 00 00 	li	s10, 0x0
180002870: 6f f0 5f b2 	j	0x180002394 <_vsnprintf+0x4d4>
180002874: 03 27 0c 00 	lw	a4, 0x0(s8)
180002878: 6f f0 5f ed 	j	0x18000274c <_vsnprintf+0x88c>
18000287c: 1b 0d 1d 00 	addiw	s10, s10, 0x1
180002880: e3 1e 05 b2 	bnez	a0, 0x1800023bc <_vsnprintf+0x4fc>
180002884: 6f f0 5f b7 	j	0x1800023f8 <_vsnprintf+0x538>
180002888: 13 64 04 02 	ori	s0, s0, 0x20
18000288c: 1b 04 04 00 	sext.w	s0, s0
180002890: 93 76 34 ff 	andi	a3, s0, -0xd
180002894: 9b 86 06 00 	sext.w	a3, a3
180002898: 13 08 00 01 	li	a6, 0x10
18000289c: 6f f0 df e8 	j	0x180002728 <_vsnprintf+0x868>
1800028a0: 93 76 f4 fe 	andi	a3, s0, -0x11
1800028a4: 13 06 90 06 	li	a2, 0x69
1800028a8: 13 07 04 00 	mv	a4, s0
1800028ac: 9b 86 06 00 	sext.w	a3, a3
1800028b0: 63 1c c5 00 	bne	a0, a2, 0x1800028c8 <_vsnprintf+0xa08>
1800028b4: 13 78 04 40 	andi	a6, s0, 0x400
1800028b8: e3 08 08 c0 	beqz	a6, 0x1800024c8 <_vsnprintf+0x608>
1800028bc: 13 77 e7 fe 	andi	a4, a4, -0x12
1800028c0: 9b 06 07 00 	sext.w	a3, a4
1800028c4: 6f f0 5f c0 	j	0x1800024c8 <_vsnprintf+0x608>
1800028c8: 13 78 04 40 	andi	a6, s0, 0x400
1800028cc: 63 08 08 00 	beqz	a6, 0x1800028dc <_vsnprintf+0xa1c>
1800028d0: 13 84 06 00 	mv	s0, a3
1800028d4: 13 08 a0 00 	li	a6, 0xa
1800028d8: 6f f0 9f ee 	j	0x1800027c0 <_vsnprintf+0x900>
1800028dc: 13 77 37 fe 	andi	a4, a4, -0x1d
1800028e0: 9b 06 07 00 	sext.w	a3, a4
1800028e4: 13 08 a0 00 	li	a6, 0xa
1800028e8: 6f f0 1f e4 	j	0x180002728 <_vsnprintf+0x868>

00000001800028ec <tiny_vprintf>:
1800028ec: 13 01 01 fe 	addi	sp, sp, -0x20
1800028f0: 93 06 05 00 	mv	a3, a0
1800028f4: 13 87 05 00 	mv	a4, a1
1800028f8: 13 06 f0 ff 	li	a2, -0x1
1800028fc: 93 05 81 00 	addi	a1, sp, 0x8
180002900: 17 f5 ff ff 	auipc	a0, 0xfffff
180002904: 13 05 45 dc 	addi	a0, a0, -0x23c
180002908: 23 3c 11 00 	sd	ra, 0x18(sp)
18000290c: ef f0 4f db 	jal	0x180001ec0 <_vsnprintf>
180002910: 83 30 81 01 	ld	ra, 0x18(sp)
180002914: 13 01 01 02 	addi	sp, sp, 0x20
180002918: 67 80 00 00 	ret

000000018000291c <dummy>:
18000291c: 67 80 00 00 	ret

0000000180002920 <libc_exit_fini>:
180002920: 13 01 01 fe 	addi	sp, sp, -0x20
180002924: 23 3c 11 00 	sd	ra, 0x18(sp)
180002928: 23 38 81 00 	sd	s0, 0x10(sp)
18000292c: 23 34 91 00 	sd	s1, 0x8(sp)
180002930: 23 30 21 01 	sd	s2, 0x0(sp)
180002934: 17 25 00 00 	auipc	a0, 0x2
180002938: 03 34 c5 b5 	ld	s0, -0x4a4(a0)
18000293c: 17 25 00 00 	auipc	a0, 0x2
180002940: 83 34 c5 b5 	ld	s1, -0x4a4(a0)
180002944: 1b 05 04 00 	sext.w	a0, s0
180002948: 9b 84 04 00 	sext.w	s1, s1
18000294c: 63 f0 a4 02 	bgeu	s1, a0, 0x18000296c <libc_exit_fini+0x4c>
180002950: 13 15 04 02 	slli	a0, s0, 0x20
180002954: 13 55 05 02 	srli	a0, a0, 0x20
180002958: 83 35 85 ff 	ld	a1, -0x8(a0)
18000295c: 1b 09 85 ff 	addiw	s2, a0, -0x8
180002960: e7 80 05 00 	jalr	a1
180002964: 13 04 84 ff 	addi	s0, s0, -0x8
180002968: e3 e4 24 ff 	bltu	s1, s2, 0x180002950 <libc_exit_fini+0x30>
18000296c: 83 30 81 01 	ld	ra, 0x18(sp)
180002970: 03 34 01 01 	ld	s0, 0x10(sp)
180002974: 83 34 81 00 	ld	s1, 0x8(sp)
180002978: 03 39 01 00 	ld	s2, 0x0(sp)
18000297c: 13 01 01 02 	addi	sp, sp, 0x20
180002980: 6f f0 df f9 	j	0x18000291c <dummy>

0000000180002984 <memcpy>:
180002984: 13 01 01 fe 	addi	sp, sp, -0x20
180002988: 23 3c 81 00 	sd	s0, 0x18(sp)
18000298c: 23 38 91 00 	sd	s1, 0x10(sp)
180002990: 23 34 21 01 	sd	s2, 0x8(sp)
180002994: 23 30 31 01 	sd	s3, 0x0(sp)
180002998: 93 f6 35 00 	andi	a3, a1, 0x3
18000299c: b3 36 d0 00 	snez	a3, a3
1800029a0: 33 37 c0 00 	snez	a4, a2
1800029a4: b3 f7 e6 00 	and	a5, a3, a4
1800029a8: 0b a7 17 00 	vx_split_n	a4, a5
1800029ac: 93 06 05 00 	mv	a3, a0
1800029b0: 63 8c 07 04 	beqz	a5, 0x180002a08 <memcpy+0x84>
1800029b4: 93 87 15 00 	addi	a5, a1, 0x1
1800029b8: 73 28 40 cc 	csrr	a6, tmask
1800029bc: 93 82 05 00 	mv	t0, a1
1800029c0: 13 03 05 00 	mv	t1, a0
1800029c4: 93 08 06 00 	mv	a7, a2
1800029c8: 03 c6 02 00 	lbu	a2, 0x0(t0)
1800029cc: 93 85 12 00 	addi	a1, t0, 0x1
1800029d0: 93 06 13 00 	addi	a3, t1, 0x1
1800029d4: 23 00 c3 00 	sb	a2, 0x0(t1)
1800029d8: 1b 86 f8 ff 	addiw	a2, a7, -0x1
1800029dc: 93 f2 37 00 	andi	t0, a5, 0x3
1800029e0: 93 b2 12 00 	seqz	t0, t0
1800029e4: 93 88 f8 ff 	addi	a7, a7, -0x1
1800029e8: 93 b8 18 00 	seqz	a7, a7
1800029ec: b3 e3 12 01 	or	t2, t0, a7
1800029f0: 93 87 17 00 	addi	a5, a5, 0x1
1800029f4: 8b d0 03 01 	vx_pred_n	t2, a6
1800029f8: 93 82 05 00 	mv	t0, a1
1800029fc: 13 83 06 00 	mv	t1, a3
180002a00: 93 08 06 00 	mv	a7, a2
180002a04: e3 82 03 fc 	beqz	t2, 0x1800029c8 <memcpy+0x44>
180002a08: 0b 30 07 00 	vx_join	a4
180002a0c: 13 08 00 00 	li	a6, 0x0
180002a10: 93 fe 36 00 	andi	t4, a3, 0x3
180002a14: 33 33 d0 01 	snez	t1, t4
180002a18: 0b 27 13 00 	vx_split_n	a4, t1
180002a1c: 93 02 10 00 	li	t0, 0x1
180002a20: 63 08 03 38 	beqz	t1, 0x180002db0 <memcpy+0x42c>
180002a24: 93 37 06 02 	sltiu	a5, a2, 0x20
180002a28: 13 c3 17 00 	xori	t1, a5, 0x1
180002a2c: 8b 22 13 00 	vx_split_n	t0, t1
180002a30: 93 88 05 00 	mv	a7, a1
180002a34: 93 87 06 00 	mv	a5, a3
180002a38: 13 08 06 00 	mv	a6, a2
180002a3c: 63 0a 03 1e 	beqz	t1, 0x180002c30 <memcpy+0x2ac>
180002a40: 03 a3 05 00 	lw	t1, 0x0(a1)
180002a44: 93 a7 3e 00 	slti	a5, t4, 0x3
180002a48: 13 ce 17 00 	xori	t3, a5, 0x1
180002a4c: 8b 23 1e 00 	vx_split_n	t2, t3
180002a50: 13 0f 10 00 	li	t5, 0x1
180002a54: 63 06 0e 08 	beqz	t3, 0x180002ae0 <memcpy+0x15c>
180002a58: 93 87 16 00 	addi	a5, a3, 0x1
180002a5c: 23 80 66 00 	sb	t1, 0x0(a3)
180002a60: 13 08 f6 ff 	addi	a6, a2, -0x1
180002a64: 93 88 05 01 	addi	a7, a1, 0x10
180002a68: 73 2e 40 cc 	csrr	t3, tmask
180002a6c: 13 0f 03 00 	mv	t5, t1
180002a70: 83 af 48 ff 	lw	t6, -0xc(a7)
180002a74: 1b 5f 8f 00 	srliw	t5, t5, 0x8
180002a78: 13 94 8f 01 	slli	s0, t6, 0x18
180002a7c: 83 a4 88 ff 	lw	s1, -0x8(a7)
180002a80: 33 6f e4 01 	or	t5, s0, t5
180002a84: 23 a0 e7 01 	sw	t5, 0x0(a5)
180002a88: 1b df 8f 00 	srliw	t5, t6, 0x8
180002a8c: 93 9f 84 01 	slli	t6, s1, 0x18
180002a90: 03 a4 c8 ff 	lw	s0, -0x4(a7)
180002a94: 33 ef ef 01 	or	t5, t6, t5
180002a98: 23 a2 e7 01 	sw	t5, 0x4(a5)
180002a9c: 9b df 84 00 	srliw	t6, s1, 0x8
180002aa0: 93 14 84 01 	slli	s1, s0, 0x18
180002aa4: 03 af 08 00 	lw	t5, 0x0(a7)
180002aa8: b3 ef f4 01 	or	t6, s1, t6
180002aac: 23 a4 f7 01 	sw	t6, 0x8(a5)
180002ab0: 9b 5f 84 00 	srliw	t6, s0, 0x8
180002ab4: 13 14 8f 01 	slli	s0, t5, 0x18
180002ab8: b3 6f f4 01 	or	t6, s0, t6
180002abc: 23 a6 f7 01 	sw	t6, 0xc(a5)
180002ac0: 93 87 07 01 	addi	a5, a5, 0x10
180002ac4: 1b 08 08 ff 	addiw	a6, a6, -0x10
180002ac8: 93 88 08 01 	addi	a7, a7, 0x10
180002acc: 93 3f 38 01 	sltiu	t6, a6, 0x13
180002ad0: 8b d0 cf 01 	vx_pred_n	t6, t3
180002ad4: e3 8e 0f f8 	beqz	t6, 0x180002a70 <memcpy+0xec>
180002ad8: 13 0f 00 00 	li	t5, 0x0
180002adc: 93 88 18 ff 	addi	a7, a7, -0xf
180002ae0: 13 8e 05 01 	addi	t3, a1, 0x10
180002ae4: 0b b0 03 00 	vx_join	t2
180002ae8: 8b 23 1f 00 	vx_split_n	t2, t5
180002aec: 63 00 0f 14 	beqz	t5, 0x180002c2c <memcpy+0x2a8>
180002af0: 93 8e ee ff 	addi	t4, t4, -0x2
180002af4: 33 34 d0 01 	snez	s0, t4
180002af8: 0b 2f 14 00 	vx_split_n	t5, s0
180002afc: 93 0f 10 00 	li	t6, 0x1
180002b00: 93 5e 83 00 	srli	t4, t1, 0x8
180002b04: 63 0c 04 08 	beqz	s0, 0x180002b9c <memcpy+0x218>
180002b08: 23 80 66 00 	sb	t1, 0x0(a3)
180002b0c: a3 80 d6 01 	sb	t4, 0x1(a3)
180002b10: 13 58 03 01 	srli	a6, t1, 0x10
180002b14: 93 87 36 00 	addi	a5, a3, 0x3
180002b18: 23 81 06 01 	sb	a6, 0x2(a3)
180002b1c: 13 08 d6 ff 	addi	a6, a2, -0x3
180002b20: 93 88 05 01 	addi	a7, a1, 0x10
180002b24: f3 2f 40 cc 	csrr	t6, tmask
180002b28: 13 04 03 00 	mv	s0, t1
180002b2c: 83 a4 48 ff 	lw	s1, -0xc(a7)
180002b30: 1b 54 84 01 	srliw	s0, s0, 0x18
180002b34: 13 99 84 00 	slli	s2, s1, 0x8
180002b38: 83 a9 88 ff 	lw	s3, -0x8(a7)
180002b3c: 33 64 89 00 	or	s0, s2, s0
180002b40: 23 a0 87 00 	sw	s0, 0x0(a5)
180002b44: 1b d4 84 01 	srliw	s0, s1, 0x18
180002b48: 93 94 89 00 	slli	s1, s3, 0x8
180002b4c: 03 a9 c8 ff 	lw	s2, -0x4(a7)
180002b50: 33 e4 84 00 	or	s0, s1, s0
180002b54: 23 a2 87 00 	sw	s0, 0x4(a5)
180002b58: 9b d4 89 01 	srliw	s1, s3, 0x18
180002b5c: 93 19 89 00 	slli	s3, s2, 0x8
180002b60: 03 a4 08 00 	lw	s0, 0x0(a7)
180002b64: b3 e4 99 00 	or	s1, s3, s1
180002b68: 23 a4 97 00 	sw	s1, 0x8(a5)
180002b6c: 9b 54 89 01 	srliw	s1, s2, 0x18
180002b70: 13 19 84 00 	slli	s2, s0, 0x8
180002b74: b3 64 99 00 	or	s1, s2, s1
180002b78: 23 a6 97 00 	sw	s1, 0xc(a5)
180002b7c: 93 87 07 01 	addi	a5, a5, 0x10
180002b80: 1b 08 08 ff 	addiw	a6, a6, -0x10
180002b84: 93 88 08 01 	addi	a7, a7, 0x10
180002b88: 93 34 18 01 	sltiu	s1, a6, 0x11
180002b8c: 8b d0 f4 01 	vx_pred_n	s1, t6
180002b90: e3 8e 04 f8 	beqz	s1, 0x180002b2c <memcpy+0x1a8>
180002b94: 93 0f 00 00 	li	t6, 0x0
180002b98: 93 88 38 ff 	addi	a7, a7, -0xd
180002b9c: 0b 30 0f 00 	vx_join	t5
180002ba0: 0b af 1f 00 	vx_split_n	t5, t6
180002ba4: 63 82 0f 08 	beqz	t6, 0x180002c28 <memcpy+0x2a4>
180002ba8: 23 80 66 00 	sb	t1, 0x0(a3)
180002bac: 93 87 26 00 	addi	a5, a3, 0x2
180002bb0: a3 80 d6 01 	sb	t4, 0x1(a3)
180002bb4: 13 08 e6 ff 	addi	a6, a2, -0x2
180002bb8: f3 28 40 cc 	csrr	a7, tmask
180002bbc: 83 2e 4e ff 	lw	t4, -0xc(t3)
180002bc0: 1b 53 03 01 	srliw	t1, t1, 0x10
180002bc4: 93 9f 0e 01 	slli	t6, t4, 0x10
180002bc8: 03 24 8e ff 	lw	s0, -0x8(t3)
180002bcc: 33 e3 6f 00 	or	t1, t6, t1
180002bd0: 23 a0 67 00 	sw	t1, 0x0(a5)
180002bd4: 1b d3 0e 01 	srliw	t1, t4, 0x10
180002bd8: 93 1e 04 01 	slli	t4, s0, 0x10
180002bdc: 83 2f ce ff 	lw	t6, -0x4(t3)
180002be0: 33 e3 6e 00 	or	t1, t4, t1
180002be4: 23 a2 67 00 	sw	t1, 0x4(a5)
180002be8: 9b 5e 04 01 	srliw	t4, s0, 0x10
180002bec: 13 94 0f 01 	slli	s0, t6, 0x10
180002bf0: 03 23 0e 00 	lw	t1, 0x0(t3)
180002bf4: b3 6e d4 01 	or	t4, s0, t4
180002bf8: 23 a4 d7 01 	sw	t4, 0x8(a5)
180002bfc: 9b de 0f 01 	srliw	t4, t6, 0x10
180002c00: 93 1f 03 01 	slli	t6, t1, 0x10
180002c04: b3 ee df 01 	or	t4, t6, t4
180002c08: 23 a6 d7 01 	sw	t4, 0xc(a5)
180002c0c: 93 87 07 01 	addi	a5, a5, 0x10
180002c10: 1b 08 08 ff 	addiw	a6, a6, -0x10
180002c14: 13 0e 0e 01 	addi	t3, t3, 0x10
180002c18: 93 3e 28 01 	sltiu	t4, a6, 0x12
180002c1c: 8b d0 1e 01 	vx_pred_n	t4, a7
180002c20: e3 8e 0e f8 	beqz	t4, 0x180002bbc <memcpy+0x238>
180002c24: 93 08 2e ff 	addi	a7, t3, -0xe
180002c28: 0b 30 0f 00 	vx_join	t5
180002c2c: 0b b0 03 00 	vx_join	t2
180002c30: 0b b0 02 00 	vx_join	t0
180002c34: 9b 02 08 00 	sext.w	t0, a6
180002c38: 93 b2 02 01 	sltiu	t0, t0, 0x10
180002c3c: 13 c3 12 00 	xori	t1, t0, 0x1
180002c40: 8b 22 13 00 	vx_split_n	t0, t1
180002c44: 63 08 03 08 	beqz	t1, 0x180002cd4 <memcpy+0x350>
180002c48: 03 c3 08 00 	lbu	t1, 0x0(a7)
180002c4c: 83 c3 18 00 	lbu	t2, 0x1(a7)
180002c50: 03 ce 28 00 	lbu	t3, 0x2(a7)
180002c54: 23 80 67 00 	sb	t1, 0x0(a5)
180002c58: a3 80 77 00 	sb	t2, 0x1(a5)
180002c5c: 03 c3 38 00 	lbu	t1, 0x3(a7)
180002c60: 23 81 c7 01 	sb	t3, 0x2(a5)
180002c64: 83 c3 48 00 	lbu	t2, 0x4(a7)
180002c68: 03 ce 58 00 	lbu	t3, 0x5(a7)
180002c6c: a3 81 67 00 	sb	t1, 0x3(a5)
180002c70: 03 c3 68 00 	lbu	t1, 0x6(a7)
180002c74: 23 82 77 00 	sb	t2, 0x4(a5)
180002c78: a3 82 c7 01 	sb	t3, 0x5(a5)
180002c7c: 83 c3 78 00 	lbu	t2, 0x7(a7)
180002c80: 23 83 67 00 	sb	t1, 0x6(a5)
180002c84: 03 c3 88 00 	lbu	t1, 0x8(a7)
180002c88: 03 ce 98 00 	lbu	t3, 0x9(a7)
180002c8c: a3 83 77 00 	sb	t2, 0x7(a5)
180002c90: 83 c3 a8 00 	lbu	t2, 0xa(a7)
180002c94: 23 84 67 00 	sb	t1, 0x8(a5)
180002c98: a3 84 c7 01 	sb	t3, 0x9(a5)
180002c9c: 03 c3 b8 00 	lbu	t1, 0xb(a7)
180002ca0: 23 85 77 00 	sb	t2, 0xa(a5)
180002ca4: 83 c3 c8 00 	lbu	t2, 0xc(a7)
180002ca8: 03 ce d8 00 	lbu	t3, 0xd(a7)
180002cac: a3 85 67 00 	sb	t1, 0xb(a5)
180002cb0: 03 c3 e8 00 	lbu	t1, 0xe(a7)
180002cb4: 23 86 77 00 	sb	t2, 0xc(a5)
180002cb8: a3 86 c7 01 	sb	t3, 0xd(a5)
180002cbc: 83 c3 f8 00 	lbu	t2, 0xf(a7)
180002cc0: 23 87 67 00 	sb	t1, 0xe(a5)
180002cc4: 93 88 08 01 	addi	a7, a7, 0x10
180002cc8: 13 83 07 01 	addi	t1, a5, 0x10
180002ccc: a3 87 77 00 	sb	t2, 0xf(a5)
180002cd0: 93 07 03 00 	mv	a5, t1
180002cd4: 0b b0 02 00 	vx_join	t0
180002cd8: 93 12 c8 03 	slli	t0, a6, 0x3c
180002cdc: 13 d3 f2 03 	srli	t1, t0, 0x3f
180002ce0: 8b 22 13 00 	vx_split_n	t0, t1
180002ce4: 63 08 03 04 	beqz	t1, 0x180002d34 <memcpy+0x3b0>
180002ce8: 03 c3 08 00 	lbu	t1, 0x0(a7)
180002cec: 83 c3 18 00 	lbu	t2, 0x1(a7)
180002cf0: 03 ce 28 00 	lbu	t3, 0x2(a7)
180002cf4: 23 80 67 00 	sb	t1, 0x0(a5)
180002cf8: a3 80 77 00 	sb	t2, 0x1(a5)
180002cfc: 03 c3 38 00 	lbu	t1, 0x3(a7)
180002d00: 23 81 c7 01 	sb	t3, 0x2(a5)
180002d04: 83 c3 48 00 	lbu	t2, 0x4(a7)
180002d08: 03 ce 58 00 	lbu	t3, 0x5(a7)
180002d0c: a3 81 67 00 	sb	t1, 0x3(a5)
180002d10: 03 c3 68 00 	lbu	t1, 0x6(a7)
180002d14: 23 82 77 00 	sb	t2, 0x4(a5)
180002d18: a3 82 c7 01 	sb	t3, 0x5(a5)
180002d1c: 83 c3 78 00 	lbu	t2, 0x7(a7)
180002d20: 23 83 67 00 	sb	t1, 0x6(a5)
180002d24: 93 88 88 00 	addi	a7, a7, 0x8
180002d28: 13 83 87 00 	addi	t1, a5, 0x8
180002d2c: a3 83 77 00 	sb	t2, 0x7(a5)
180002d30: 93 07 03 00 	mv	a5, t1
180002d34: 0b b0 02 00 	vx_join	t0
180002d38: 93 12 d8 03 	slli	t0, a6, 0x3d
180002d3c: 13 d3 f2 03 	srli	t1, t0, 0x3f
180002d40: 8b 22 13 00 	vx_split_n	t0, t1
180002d44: 63 08 03 02 	beqz	t1, 0x180002d74 <memcpy+0x3f0>
180002d48: 03 c3 08 00 	lbu	t1, 0x0(a7)
180002d4c: 83 c3 18 00 	lbu	t2, 0x1(a7)
180002d50: 03 ce 28 00 	lbu	t3, 0x2(a7)
180002d54: 23 80 67 00 	sb	t1, 0x0(a5)
180002d58: a3 80 77 00 	sb	t2, 0x1(a5)
180002d5c: 03 c3 38 00 	lbu	t1, 0x3(a7)
180002d60: 23 81 c7 01 	sb	t3, 0x2(a5)
180002d64: 93 88 48 00 	addi	a7, a7, 0x4
180002d68: 93 83 47 00 	addi	t2, a5, 0x4
180002d6c: a3 81 67 00 	sb	t1, 0x3(a5)
180002d70: 93 87 03 00 	mv	a5, t2
180002d74: 0b b0 02 00 	vx_join	t0
180002d78: 93 12 e8 03 	slli	t0, a6, 0x3e
180002d7c: 13 d3 f2 03 	srli	t1, t0, 0x3f
180002d80: 8b 22 13 00 	vx_split_n	t0, t1
180002d84: 63 00 03 02 	beqz	t1, 0x180002da4 <memcpy+0x420>
180002d88: 03 c3 08 00 	lbu	t1, 0x0(a7)
180002d8c: 83 c3 18 00 	lbu	t2, 0x1(a7)
180002d90: 23 80 67 00 	sb	t1, 0x0(a5)
180002d94: 13 83 27 00 	addi	t1, a5, 0x2
180002d98: 93 88 28 00 	addi	a7, a7, 0x2
180002d9c: a3 80 77 00 	sb	t2, 0x1(a5)
180002da0: 93 07 03 00 	mv	a5, t1
180002da4: 0b b0 02 00 	vx_join	t0
180002da8: 93 02 00 00 	li	t0, 0x0
180002dac: 13 78 18 00 	andi	a6, a6, 0x1
180002db0: 0b 30 07 00 	vx_join	a4
180002db4: 0b a7 12 00 	vx_split_n	a4, t0
180002db8: 63 84 02 0e 	beqz	t0, 0x180002ea0 <memcpy+0x51c>
180002dbc: 93 37 06 01 	sltiu	a5, a2, 0x10
180002dc0: 13 c8 17 00 	xori	a6, a5, 0x1
180002dc4: 8b 27 18 00 	vx_split_n	a5, a6
180002dc8: 63 00 08 04 	beqz	a6, 0x180002e08 <memcpy+0x484>
180002dcc: 73 28 40 cc 	csrr	a6, tmask
180002dd0: 83 a8 05 00 	lw	a7, 0x0(a1)
180002dd4: 83 a2 45 00 	lw	t0, 0x4(a1)
180002dd8: 03 a3 85 00 	lw	t1, 0x8(a1)
180002ddc: 83 a3 c5 00 	lw	t2, 0xc(a1)
180002de0: 23 a0 16 01 	sw	a7, 0x0(a3)
180002de4: 23 a2 56 00 	sw	t0, 0x4(a3)
180002de8: 23 a4 66 00 	sw	t1, 0x8(a3)
180002dec: 23 a6 76 00 	sw	t2, 0xc(a3)
180002df0: 93 85 05 01 	addi	a1, a1, 0x10
180002df4: 93 86 06 01 	addi	a3, a3, 0x10
180002df8: 1b 06 06 ff 	addiw	a2, a2, -0x10
180002dfc: 93 38 06 01 	sltiu	a7, a2, 0x10
180002e00: 8b d0 08 01 	vx_pred_n	a7, a6
180002e04: e3 86 08 fc 	beqz	a7, 0x180002dd0 <memcpy+0x44c>
180002e08: 0b b0 07 00 	vx_join	a5
180002e0c: 93 37 86 00 	sltiu	a5, a2, 0x8
180002e10: 13 c8 17 00 	xori	a6, a5, 0x1
180002e14: 8b 27 18 00 	vx_split_n	a5, a6
180002e18: 63 00 08 02 	beqz	a6, 0x180002e38 <memcpy+0x4b4>
180002e1c: 03 a8 05 00 	lw	a6, 0x0(a1)
180002e20: 83 a8 45 00 	lw	a7, 0x4(a1)
180002e24: 93 85 85 00 	addi	a1, a1, 0x8
180002e28: 23 a0 06 01 	sw	a6, 0x0(a3)
180002e2c: 13 88 86 00 	addi	a6, a3, 0x8
180002e30: 23 a2 16 01 	sw	a7, 0x4(a3)
180002e34: 93 06 08 00 	mv	a3, a6
180002e38: 0b b0 07 00 	vx_join	a5
180002e3c: 93 17 d6 03 	slli	a5, a2, 0x3d
180002e40: 13 d8 f7 03 	srli	a6, a5, 0x3f
180002e44: 8b 27 18 00 	vx_split_n	a5, a6
180002e48: 63 0c 08 00 	beqz	a6, 0x180002e60 <memcpy+0x4dc>
180002e4c: 03 a8 05 00 	lw	a6, 0x0(a1)
180002e50: 93 85 45 00 	addi	a1, a1, 0x4
180002e54: 93 88 46 00 	addi	a7, a3, 0x4
180002e58: 23 a0 06 01 	sw	a6, 0x0(a3)
180002e5c: 93 86 08 00 	mv	a3, a7
180002e60: 0b b0 07 00 	vx_join	a5
180002e64: 93 17 e6 03 	slli	a5, a2, 0x3e
180002e68: 13 d8 f7 03 	srli	a6, a5, 0x3f
180002e6c: 8b 27 18 00 	vx_split_n	a5, a6
180002e70: 63 00 08 02 	beqz	a6, 0x180002e90 <memcpy+0x50c>
180002e74: 03 c8 05 00 	lbu	a6, 0x0(a1)
180002e78: 83 c8 15 00 	lbu	a7, 0x1(a1)
180002e7c: 23 80 06 01 	sb	a6, 0x0(a3)
180002e80: 13 88 26 00 	addi	a6, a3, 0x2
180002e84: 93 85 25 00 	addi	a1, a1, 0x2
180002e88: a3 80 16 01 	sb	a7, 0x1(a3)
180002e8c: 93 06 08 00 	mv	a3, a6
180002e90: 0b b0 07 00 	vx_join	a5
180002e94: 13 78 16 00 	andi	a6, a2, 0x1
180002e98: 93 88 05 00 	mv	a7, a1
180002e9c: 93 87 06 00 	mv	a5, a3
180002ea0: 0b 30 07 00 	vx_join	a4
180002ea4: 8b 25 18 00 	vx_split_n	a1, a6
180002ea8: 63 06 08 00 	beqz	a6, 0x180002eb4 <memcpy+0x530>
180002eac: 03 c6 08 00 	lbu	a2, 0x0(a7)
180002eb0: 23 80 c7 00 	sb	a2, 0x0(a5)
180002eb4: 0b b0 05 00 	vx_join	a1
180002eb8: 03 34 81 01 	ld	s0, 0x18(sp)
180002ebc: 83 34 01 01 	ld	s1, 0x10(sp)
180002ec0: 03 39 81 00 	ld	s2, 0x8(sp)
180002ec4: 83 39 01 00 	ld	s3, 0x0(sp)
180002ec8: 13 01 01 02 	addi	sp, sp, 0x20
180002ecc: 67 80 00 00 	ret

0000000180002ed0 <memset>:
180002ed0: 33 37 c0 00 	snez	a4, a2
180002ed4: 8b 26 17 00 	vx_split_n	a3, a4
180002ed8: 63 06 07 1a 	beqz	a4, 0x180003084 <memset+0x1b4>
180002edc: 23 00 b5 00 	sb	a1, 0x0(a0)
180002ee0: 13 07 f6 ff 	addi	a4, a2, -0x1
180002ee4: 13 17 07 02 	slli	a4, a4, 0x20
180002ee8: 13 57 07 02 	srli	a4, a4, 0x20
180002eec: 33 07 e5 00 	add	a4, a0, a4
180002ef0: 23 00 b7 00 	sb	a1, 0x0(a4)
180002ef4: 13 37 36 00 	sltiu	a4, a2, 0x3
180002ef8: 93 47 17 00 	xori	a5, a4, 0x1
180002efc: 0b a7 17 00 	vx_split_n	a4, a5
180002f00: 63 80 07 18 	beqz	a5, 0x180003080 <memset+0x1b0>
180002f04: a3 00 b5 00 	sb	a1, 0x1(a0)
180002f08: 23 01 b5 00 	sb	a1, 0x2(a0)
180002f0c: 93 07 e6 ff 	addi	a5, a2, -0x2
180002f10: 93 97 07 02 	slli	a5, a5, 0x20
180002f14: 93 d7 07 02 	srli	a5, a5, 0x20
180002f18: b3 07 f5 00 	add	a5, a0, a5
180002f1c: 23 80 b7 00 	sb	a1, 0x0(a5)
180002f20: 93 07 d6 ff 	addi	a5, a2, -0x3
180002f24: 93 97 07 02 	slli	a5, a5, 0x20
180002f28: 93 d7 07 02 	srli	a5, a5, 0x20
180002f2c: b3 07 f5 00 	add	a5, a0, a5
180002f30: 23 80 b7 00 	sb	a1, 0x0(a5)
180002f34: 93 37 76 00 	sltiu	a5, a2, 0x7
180002f38: 13 c8 17 00 	xori	a6, a5, 0x1
180002f3c: 8b 27 18 00 	vx_split_n	a5, a6
180002f40: 63 0e 08 12 	beqz	a6, 0x18000307c <memset+0x1ac>
180002f44: a3 01 b5 00 	sb	a1, 0x3(a0)
180002f48: 13 08 c6 ff 	addi	a6, a2, -0x4
180002f4c: 13 18 08 02 	slli	a6, a6, 0x20
180002f50: 13 58 08 02 	srli	a6, a6, 0x20
180002f54: 33 08 05 01 	add	a6, a0, a6
180002f58: 23 00 b8 00 	sb	a1, 0x0(a6)
180002f5c: 13 38 96 00 	sltiu	a6, a2, 0x9
180002f60: 93 48 18 00 	xori	a7, a6, 0x1
180002f64: 0b a8 18 00 	vx_split_n	a6, a7
180002f68: 63 88 08 10 	beqz	a7, 0x180003078 <memset+0x1a8>
180002f6c: bb 08 a0 40 	negw	a7, a0
180002f70: 93 f8 38 00 	andi	a7, a7, 0x3
180002f74: b3 02 15 01 	add	t0, a0, a7
180002f78: 3b 06 16 41 	subw	a2, a2, a7
180002f7c: 13 73 c6 ff 	andi	t1, a2, -0x4
180002f80: 93 95 85 03 	slli	a1, a1, 0x38
180002f84: b7 13 10 10 	lui	t2, 0x10101
180002f88: 93 93 43 00 	slli	t2, t2, 0x4
180002f8c: 93 83 03 10 	addi	t2, t2, 0x100
180002f90: b3 b3 75 02 	mulhu	t2, a1, t2
180002f94: 23 a0 72 00 	sw	t2, 0x0(t0)
180002f98: 9b 55 26 00 	srliw	a1, a2, 0x2
180002f9c: 93 95 25 00 	slli	a1, a1, 0x2
180002fa0: 33 8e b2 00 	add	t3, t0, a1
180002fa4: 23 2e 7e fe 	sw	t2, -0x4(t3)
180002fa8: 93 35 93 00 	sltiu	a1, t1, 0x9
180002fac: 13 c6 15 00 	xori	a2, a1, 0x1
180002fb0: 8b 25 16 00 	vx_split_n	a1, a2
180002fb4: 63 00 06 0c 	beqz	a2, 0x180003074 <memset+0x1a4>
180002fb8: 23 a2 72 00 	sw	t2, 0x4(t0)
180002fbc: 23 a4 72 00 	sw	t2, 0x8(t0)
180002fc0: 23 2a 7e fe 	sw	t2, -0xc(t3)
180002fc4: 23 2c 7e fe 	sw	t2, -0x8(t3)
180002fc8: 13 36 93 01 	sltiu	a2, t1, 0x19
180002fcc: 93 4e 16 00 	xori	t4, a2, 0x1
180002fd0: 0b a6 1e 00 	vx_split_n	a2, t4
180002fd4: 63 8e 0e 08 	beqz	t4, 0x180003070 <memset+0x1a0>
180002fd8: 23 a6 72 00 	sw	t2, 0xc(t0)
180002fdc: 23 a8 72 00 	sw	t2, 0x10(t0)
180002fe0: 23 aa 72 00 	sw	t2, 0x14(t0)
180002fe4: 23 ac 72 00 	sw	t2, 0x18(t0)
180002fe8: 23 22 7e fe 	sw	t2, -0x1c(t3)
180002fec: 23 24 7e fe 	sw	t2, -0x18(t3)
180002ff0: 23 26 7e fe 	sw	t2, -0x14(t3)
180002ff4: 23 28 7e fe 	sw	t2, -0x10(t3)
180002ff8: 93 fe 42 00 	andi	t4, t0, 0x4
180002ffc: 13 8f 8e 01 	addi	t5, t4, 0x18
180003000: 3b 0e e3 41 	subw	t3, t1, t5
180003004: 13 3e 0e 02 	sltiu	t3, t3, 0x20
180003008: 93 4f 1e 00 	xori	t6, t3, 0x1
18000300c: 0b ae 1f 00 	vx_split_n	t3, t6
180003010: 63 8e 0f 04 	beqz	t6, 0x18000306c <memset+0x19c>
180003014: 93 93 03 02 	slli	t2, t2, 0x20
180003018: 93 df 03 02 	srli	t6, t2, 0x20
18000301c: b3 e3 f3 01 	or	t2, t2, t6
180003020: b3 82 e2 01 	add	t0, t0, t5
180003024: 3b 03 d3 41 	subw	t1, t1, t4
180003028: 13 03 83 fc 	addi	t1, t1, -0x38
18000302c: 1b 53 53 00 	srliw	t1, t1, 0x5
180003030: 13 13 53 00 	slli	t1, t1, 0x5
180003034: b3 e8 1e 01 	or	a7, t4, a7
180003038: b3 68 13 01 	or	a7, t1, a7
18000303c: b3 88 a8 00 	add	a7, a7, a0
180003040: 93 88 88 03 	addi	a7, a7, 0x38
180003044: 73 23 40 cc 	csrr	t1, tmask
180003048: 23 b0 72 00 	sd	t2, 0x0(t0)
18000304c: 23 b4 72 00 	sd	t2, 0x8(t0)
180003050: 23 b8 72 00 	sd	t2, 0x10(t0)
180003054: 23 bc 72 00 	sd	t2, 0x18(t0)
180003058: 93 82 02 02 	addi	t0, t0, 0x20
18000305c: b3 ce 12 01 	xor	t4, t0, a7
180003060: 93 be 1e 00 	seqz	t4, t4
180003064: 8b d0 6e 00 	vx_pred_n	t4, t1
180003068: e3 80 0e fe 	beqz	t4, 0x180003048 <memset+0x178>
18000306c: 0b 30 0e 00 	vx_join	t3
180003070: 0b 30 06 00 	vx_join	a2
180003074: 0b b0 05 00 	vx_join	a1
180003078: 0b 30 08 00 	vx_join	a6
18000307c: 0b b0 07 00 	vx_join	a5
180003080: 0b 30 07 00 	vx_join	a4
180003084: 0b b0 06 00 	vx_join	a3
180003088: 67 80 00 00 	ret

Disassembly of section .rodata:

0000000180003090 <.rodata>:
180003090: 6b 65 72 6e 	<unknown>
180003094: 65 6c       	<unknown>
180003096: 5f 77 61 72 	<unknown>
18000309a: 70 70       	<unknown>
18000309c: 65 72       	<unknown>
18000309e: 3a 20       	<unknown>
1800030a0: 67 72 6f 75 	<unknown>
1800030a4: 70 3d       	<unknown>
1800030a6: 28 25       	<unknown>
1800030a8: 64 2c       	<unknown>
1800030aa: 20 25       	<unknown>
1800030ac: 64 29       	<unknown>
1800030ae: 0a 00       	<unknown>
1800030b0: 73 69 7a 65 	csrrsi	s2, 0x657, 0x14
1800030b4: 6f 66 20 65 	jal	a2, 0x180009706 <_end+0x5186>
1800030b8: 76 65       	<unknown>
1800030ba: 72 79       	<unknown>
1800030bc: 74 68       	<unknown>
1800030be: 69 6e       	<unknown>
1800030c0: 67 20 25 64 	<unknown>
1800030c4: 20 25       	<unknown>
1800030c6: 64 20       	<unknown>
1800030c8: 25 64       	<unknown>
1800030ca: 0a 00       	<unknown>
1800030cc: 62 61       	<unknown>
1800030ce: 73 65 3a 20 	csrrsi	a0, 0x203, 0x14
1800030d2: 30 78       	<unknown>
1800030d4: 25 6c       	<unknown>
1800030d6: 78 0a       	<unknown>
1800030d8: 00 6b       	<unknown>
1800030da: 65 72       	<unknown>
1800030dc: 6e 65       	<unknown>
1800030de: 6c 23       	<unknown>
1800030e0: 25 64       	<unknown>
1800030e2: 20 28       	<unknown>
1800030e4: 63 61 6c 6c 	bltu	s8, t1, 0x1800037a6 <STARTUP_ADDR+0x37a6>
1800030e8: 62 61       	<unknown>
1800030ea: 63 6b 3a 30 	bltu	s4, gp, 0x180003400 <pow10.0+0x30>
1800030ee: 78 25       	<unknown>
1800030f0: 6c 78       	<unknown>
1800030f2: 29 3a       	<unknown>
1800030f4: 20 67       	<unknown>
1800030f6: 72 69       	<unknown>
1800030f8: 64 44       	<unknown>
1800030fa: 69 6d       	<unknown>
1800030fc: 3d 28       	<unknown>
1800030fe: 25 64       	<unknown>
180003100: 2c 20       	<unknown>
180003102: 25 64       	<unknown>
180003104: 2c 20       	<unknown>
180003106: 25 64       	<unknown>
180003108: 29 2c       	<unknown>
18000310a: 20 62       	<unknown>
18000310c: 6c 6f       	<unknown>
18000310e: 63 6b 44 69 	bltu	s0, s4, 0x1800037a4 <STARTUP_ADDR+0x37a4>
180003112: 6d 3d       	<unknown>
180003114: 28 25       	<unknown>
180003116: 64 2c       	<unknown>
180003118: 20 25       	<unknown>
18000311a: 64 2c       	<unknown>
18000311c: 20 25       	<unknown>
18000311e: 64 29       	<unknown>
180003120: 2c 20       	<unknown>
180003122: 61 72       	<unknown>
180003124: 67 73 3d 28 	<unknown>
180003128: 30 78       	<unknown>
18000312a: 25 6c       	<unknown>
18000312c: 6c 78       	<unknown>
18000312e: 2c 20       	<unknown>
180003130: 30 78       	<unknown>
180003132: 25 6c       	<unknown>
180003134: 6c 78       	<unknown>
180003136: 2c 20       	<unknown>
180003138: 30 78       	<unknown>
18000313a: 25 6c       	<unknown>
18000313c: 6c 78       	<unknown>
18000313e: 2c 20       	<unknown>
180003140: 30 78       	<unknown>
180003142: 25 6c       	<unknown>
180003144: 6c 78       	<unknown>
180003146: 2c 20       	<unknown>
180003148: 30 78       	<unknown>
18000314a: 25 6c       	<unknown>
18000314c: 6c 78       	<unknown>
18000314e: 2c 20       	<unknown>
180003150: 30 78       	<unknown>
180003152: 25 6c       	<unknown>
180003154: 6c 78       	<unknown>
180003156: 29 0a       	<unknown>
180003158: 00 77       	<unknown>
18000315a: 6f 72 6b 64 	jal	tp, 0x1800ba7a0 <_end+0xb6220>
18000315e: 69 6d       	<unknown>
180003160: 3d 25       	<unknown>
180003162: 64 0a       	<unknown>
180003164: 00 65       	<unknown>
180003166: 78 65       	<unknown>
180003168: 63 75 74 65 	bgeu	s0, s7, 0x1800037b2 <STARTUP_ADDR+0x37b2>
18000316c: 20 73       	<unknown>
18000316e: 6f 6d 65 74 	jal	s10, 0x1800598b4 <_end+0x55334>
180003172: 68 69       	<unknown>
180003174: 6e 67       	<unknown>
180003176: 0a 00       	<unknown>
180003178: 74 68       	<unknown>
18000317a: 72 65       	<unknown>
18000317c: 61 64       	<unknown>
18000317e: 5f 69 64 3a 	<unknown>
180003182: 20 25       	<unknown>
180003184: 64 2c       	<unknown>
180003186: 20 74       	<unknown>
180003188: 61 73       	<unknown>
18000318a: 6b 5f 69 64 	<unknown>
18000318e: 3a 20       	<unknown>
180003190: 25 64       	<unknown>
180003192: 0a 00       	<unknown>
180003194: 00 00       	<unknown>
180003196: 00 00       	<unknown>
180003198: 65 72       	<unknown>
18000319a: 72 6f       	<unknown>
18000319c: 72 3a       	<unknown>
18000319e: 20 67       	<unknown>
1800031a0: 72 6f       	<unknown>
1800031a2: 75 70       	<unknown>
1800031a4: 5f 73 69 7a 	<unknown>
1800031a8: 65 20       	<unknown>
1800031aa: 3e 20       	<unknown>
1800031ac: 74 68       	<unknown>
1800031ae: 72 65       	<unknown>
1800031b0: 61 64       	<unknown>
1800031b2: 73 5f 70 65 	csrrwi	t5, 0x657, 0x0
1800031b6: 72 5f       	<unknown>
1800031b8: 63 6f 72 65 	bltu	tp, s7, 0x180003816 <STARTUP_ADDR+0x3816>
1800031bc: 20 28       	<unknown>
1800031be: 25 64       	<unknown>
1800031c0: 2c 25       	<unknown>
1800031c2: 64 29       	<unknown>
1800031c4: 0a 00       	<unknown>
1800031c6: 00 00       	<unknown>
1800031c8: 61 6c       	<unknown>
1800031ca: 6c 5f       	<unknown>
1800031cc: 74 61       	<unknown>
1800031ce: 73 6b 73 5f 	csrrsi	s6, 0x5f7, 0x6
1800031d2: 6f 66 66 73 	jal	a2, 0x180069908 <_end+0x65388>
1800031d6: 65 74       	<unknown>
1800031d8: 3a 20       	<unknown>
1800031da: 25 64       	<unknown>
1800031dc: 2c 20       	<unknown>
1800031de: 72 65       	<unknown>
1800031e0: 6d 61       	<unknown>
1800031e2: 69 6e       	<unknown>
1800031e4: 5f 74 61 73 	<unknown>
1800031e8: 6b 73 5f 6f 	<unknown>
1800031ec: 66 66       	<unknown>
1800031ee: 73 65 74 3a 	csrrsi	a0, 0x3a7, 0x8
1800031f2: 20 25       	<unknown>
1800031f4: 64 0a       	<unknown>
1800031f6: 00 00       	<unknown>
1800031f8: 72 65       	<unknown>
1800031fa: 6d 61       	<unknown>
1800031fc: 69 6e       	<unknown>
1800031fe: 69 6e       	<unknown>
180003200: 67 20 74 61 	<unknown>
180003204: 73 6b 73 3a 	csrrsi	s6, 0x3a7, 0x6
180003208: 20 25       	<unknown>
18000320a: 64 0a       	<unknown>
18000320c: 00 00       	<unknown>
18000320e: 00 00       	<unknown>
180003210: 66 6e       	<unknown>
180003212: 69 2b       	<unknown>
180003214: 00 00       	<unknown>
180003216: 00 00       	<unknown>
180003218: 66 6e       	<unknown>
18000321a: 69 00       	<unknown>
18000321c: 00 00       	<unknown>
18000321e: 00 00       	<unknown>
180003220: 6e 61       	<unknown>
180003222: 6e 00       	<unknown>
180003224: 00 00       	<unknown>
180003226: 00 00       	<unknown>
180003228: 66 6e       	<unknown>
18000322a: 69 2d       	<unknown>
18000322c: 00 00       	<unknown>
18000322e: 00 00       	<unknown>
180003230: f8 ed       	<unknown>
180003232: ff ff 64 ed 	<unknown>
180003236: ff ff 64 ed 	<unknown>
18000323a: ff ff e8 ed 	<unknown>
18000323e: ff ff 64 ed 	<unknown>
180003242: ff ff 64 ed 	<unknown>
180003246: ff ff 64 ed 	<unknown>
18000324a: ff ff 64 ed 	<unknown>
18000324e: ff ff 64 ed 	<unknown>
180003252: ff ff 64 ed 	<unknown>
180003256: ff ff 64 ed 	<unknown>
18000325a: ff ff d8 ed 	<unknown>
18000325e: ff ff 64 ed 	<unknown>
180003262: ff ff c8 ed 	<unknown>
180003266: ff ff 64 ed 	<unknown>
18000326a: ff ff 64 ed 	<unknown>
18000326e: ff ff b8 ed 	<unknown>
180003272: ff ff 08 f0 	<unknown>
180003276: ff ff d4 ed 	<unknown>
18000327a: ff ff c4 ed 	<unknown>
18000327e: ff ff d4 ed 	<unknown>
180003282: ff ff e8 ef 	<unknown>
180003286: ff ff d4 ed 	<unknown>
18000328a: ff ff d4 ed 	<unknown>
18000328e: ff ff d4 ed 	<unknown>
180003292: ff ff d4 ed 	<unknown>
180003296: ff ff d4 ed 	<unknown>
18000329a: ff ff d4 ed 	<unknown>
18000329e: ff ff d4 ed 	<unknown>
1800032a2: ff ff c4 ed 	<unknown>
1800032a6: ff ff d4 ed 	<unknown>
1800032aa: ff ff d4 ed 	<unknown>
1800032ae: ff ff d4 ed 	<unknown>
1800032b2: ff ff d4 ed 	<unknown>
1800032b6: ff ff d4 ed 	<unknown>
1800032ba: ff ff c4 ed 	<unknown>
1800032be: ff ff 74 f0 	<unknown>
1800032c2: ff ff 80 ec 	<unknown>
1800032c6: ff ff 80 ec 	<unknown>
1800032ca: ff ff 80 ec 	<unknown>
1800032ce: ff ff 80 ec 	<unknown>
1800032d2: ff ff 80 ec 	<unknown>
1800032d6: ff ff 80 ec 	<unknown>
1800032da: ff ff 80 ec 	<unknown>
1800032de: ff ff 80 ec 	<unknown>
1800032e2: ff ff 80 ec 	<unknown>
1800032e6: ff ff 80 ec 	<unknown>
1800032ea: ff ff 80 ec 	<unknown>
1800032ee: ff ff 80 ec 	<unknown>
1800032f2: ff ff 80 ec 	<unknown>
1800032f6: ff ff 80 ec 	<unknown>
1800032fa: ff ff 80 ec 	<unknown>
1800032fe: ff ff 80 ec 	<unknown>
180003302: ff ff 80 ec 	<unknown>
180003306: ff ff 80 ec 	<unknown>
18000330a: ff ff 80 ec 	<unknown>
18000330e: ff ff 80 ec 	<unknown>
180003312: ff ff 80 ec 	<unknown>
180003316: ff ff 80 ec 	<unknown>
18000331a: ff ff 80 ec 	<unknown>
18000331e: ff ff 80 ec 	<unknown>
180003322: ff ff 80 ec 	<unknown>
180003326: ff ff 80 ec 	<unknown>
18000332a: ff ff 80 ec 	<unknown>
18000332e: ff ff 80 ec 	<unknown>
180003332: ff ff 80 ec 	<unknown>
180003336: ff ff 80 ec 	<unknown>
18000333a: ff ff 80 ec 	<unknown>
18000333e: ff ff 54 ef 	<unknown>
180003342: ff ff d8 ef 	<unknown>
180003346: ff ff 54 ef 	<unknown>
18000334a: ff ff 80 ec 	<unknown>
18000334e: ff ff 80 ec 	<unknown>
180003352: ff ff 80 ec 	<unknown>
180003356: ff ff 80 ec 	<unknown>
18000335a: ff ff 80 ec 	<unknown>
18000335e: ff ff 80 ec 	<unknown>
180003362: ff ff 80 ec 	<unknown>
180003366: ff ff 80 ec 	<unknown>
18000336a: ff ff 80 ec 	<unknown>
18000336e: ff ff 80 ec 	<unknown>
180003372: ff ff 80 ec 	<unknown>
180003376: ff ff 80 ec 	<unknown>
18000337a: ff ff 80 ec 	<unknown>
18000337e: ff ff 80 ec 	<unknown>
180003382: ff ff 80 ec 	<unknown>
180003386: ff ff 80 ec 	<unknown>
18000338a: ff ff e8 f1 	<unknown>
18000338e: ff ff 80 ec 	<unknown>
180003392: ff ff 80 ec 	<unknown>
180003396: ff ff 80 ec 	<unknown>
18000339a: ff ff 80 ec 	<unknown>
18000339e: ff ff 80 ec 	<unknown>
1800033a2: ff ff 80 ec 	<unknown>
1800033a6: ff ff 80 ec 	<unknown>
1800033aa: ff ff 80 ec 	<unknown>
1800033ae: ff ff 80 ec 	<unknown>
1800033b2: ff ff e8 f1 	<unknown>
1800033b6: ff ff 10 f0 	<unknown>
1800033ba: ff ff e8 f1 	<unknown>
1800033be: ff ff 54 ef 	<unknown>
1800033c2: ff ff d8 ef 	<unknown>
1800033c6: ff ff 54 ef 	<unknown>
1800033ca: ff ff 00 00 	<unknown>
1800033ce: 00 00       	<unknown>

00000001800033d0 <pow10.0>:
1800033d0: 00 00       	<unknown>
1800033d2: 00 00       	<unknown>
1800033d4: 00 00       	<unknown>
1800033d6: f0 3f       	<unknown>
1800033d8: 00 00       	<unknown>
1800033da: 00 00       	<unknown>
1800033dc: 00 00       	<unknown>
1800033de: 24 40       	<unknown>
1800033e0: 00 00       	<unknown>
1800033e2: 00 00       	<unknown>
1800033e4: 00 00       	<unknown>
1800033e6: 59 40       	<unknown>
1800033e8: 00 00       	<unknown>
1800033ea: 00 00       	<unknown>
1800033ec: 00 40       	<unknown>
1800033ee: 8f 40 00 00 	<unknown>
1800033f2: 00 00       	<unknown>
1800033f4: 00 88       	<unknown>
1800033f6: c3 40 00 00 	fmadd.s	ft1, ft0, ft0, ft0, rmm
1800033fa: 00 00       	<unknown>
1800033fc: 00 6a       	<unknown>
1800033fe: f8 40       	<unknown>
180003400: 00 00       	<unknown>
180003402: 00 00       	<unknown>
180003404: 80 84       	<unknown>
180003406: 2e 41       	<unknown>
180003408: 00 00       	<unknown>
18000340a: 00 00       	<unknown>
18000340c: d0 12       	<unknown>
18000340e: 63 41 00 00 	bltz	zero, 0x180003410 <pow10.0+0x40>
180003412: 00 00       	<unknown>
180003414: 84 d7       	<unknown>
180003416: 97 41 00 00 	auipc	gp, 0x4
18000341a: 00 00       	<unknown>
18000341c: 65 cd       	<unknown>
18000341e: cd 41       	<unknown>

Disassembly of section .eh_frame:

0000000180003420 <.eh_frame>:
180003420: 10 00       	<unknown>
180003422: 00 00       	<unknown>
180003424: 00 00       	<unknown>
180003426: 00 00       	<unknown>
180003428: 01 7a       	<unknown>
18000342a: 52 00       	<unknown>
18000342c: 01 78       	<unknown>
18000342e: 01 01       	<unknown>
180003430: 1b 0c 02 00 	sext.w	s8, tp
180003434: 18 00       	<unknown>
180003436: 00 00       	<unknown>
180003438: 18 00       	<unknown>
18000343a: 00 00       	<unknown>
18000343c: 58 cc       	<unknown>
18000343e: ff ff 54 00 	<unknown>
180003442: 00 00       	<unknown>
180003444: 00 44       	<unknown>
180003446: 0e 10       	<unknown>
180003448: 48 81       	<unknown>
18000344a: 01 88       	<unknown>
18000344c: 02 00       	<unknown>
18000344e: 00 00       	<unknown>
180003450: 1c 00       	<unknown>
180003452: 00 00       	<unknown>
180003454: 34 00       	<unknown>
180003456: 00 00       	<unknown>
180003458: 90 cc       	<unknown>
18000345a: ff ff 64 01 	<unknown>
18000345e: 00 00       	<unknown>
180003460: 00 44       	<unknown>
180003462: 0e 60       	<unknown>
180003464: 50 81       	<unknown>
180003466: 01 88       	<unknown>
180003468: 02 89       	<unknown>
18000346a: 03 92 04 00 	lh	tp, 0x0(s1)
18000346e: 00 00       	<unknown>

Disassembly of section .tbss:

0000000180004470 <__tbss_start>:
...

Disassembly of section .got:

0000000180004470 <.got>:
180004470: ff ff ff ff 	<unknown>
180004474: ff ff ff ff 	<unknown>
		...

0000000180004480 <_GLOBAL_OFFSET_TABLE_>:
		...
180004488: 20 00       	<unknown>
18000448a: 00 00       	<unknown>
18000448c: 00 00       	<unknown>
18000448e: 00 00       	<unknown>
180004490: 70 44       	<unknown>
180004492: 00 80       	<unknown>
180004494: 01 00       	<unknown>
180004496: 00 00       	<unknown>
180004498: 70 44       	<unknown>
18000449a: 00 80       	<unknown>
18000449c: 01 00       	<unknown>
18000449e: 00 00       	<unknown>

Disassembly of section .sdata:

00000001800044a0 <__SDATA_BEGIN__>:
1800044a0: 00 00       	<unknown>
1800044a2: 00 00       	<unknown>
1800044a4: 65 cd       	<unknown>
1800044a6: cd 41       	<unknown>
1800044a8: 00 00       	<unknown>
1800044aa: 00 00       	<unknown>
1800044ac: 80 84       	<unknown>
1800044ae: 2e 41       	<unknown>
1800044b0: ff ff ff ff 	<unknown>
1800044b4: ff ff ef ff 	<unknown>
1800044b8: ff ff ff ff 	<unknown>
1800044bc: ff ff ef 7f 	<unknown>
1800044c0: 00 00       	<unknown>
1800044c2: 00 00       	<unknown>
1800044c4: 65 cd       	<unknown>
1800044c6: cd c1       	<unknown>
1800044c8: 00 00       	<unknown>
1800044ca: 00 00       	<unknown>
1800044cc: 00 00       	<unknown>
1800044ce: e0 3f       	<unknown>
1800044d0: fb 79 9f 50 	<unknown>
1800044d4: 13 44 d3 3f 	xori	s0, t1, 0x3fd
1800044d8: b3 c8 60 8b 	<unknown>
1800044dc: 28 8a       	<unknown>
1800044de: c6 3f       	<unknown>
1800044e0: 00 00       	<unknown>
1800044e2: 00 00       	<unknown>
1800044e4: 00 00       	<unknown>
1800044e6: f8 3f       	<unknown>
1800044e8: 61 43       	<unknown>
1800044ea: 6f 63 a7 87 	jal	t1, 0x17ff7a564 <__tbss_size+0x17ff7a534>
1800044ee: d2 3f       	<unknown>
1800044f0: 71 a3       	<unknown>
1800044f2: 79 09       	<unknown>
1800044f4: 4f 93 0a 40 	fnmadd.s	ft6, fs5, ft0, fs0, rtz
1800044f8: ef 39 fa fe 	jal	s3, 0x17ffa84e6 <__tbss_size+0x17ffa84b6>
1800044fc: 42 2e       	<unknown>
1800044fe: e6 3f       	<unknown>
180004500: 16 55       	<unknown>
180004502: b5 bb       	<unknown>
180004504: b1 6b       	<unknown>
180004506: 02 40       	<unknown>
180004508: 00 00       	<unknown>
18000450a: 00 00       	<unknown>
18000450c: 00 00       	<unknown>
18000450e: 2c 40       	<unknown>
180004510: 00 00       	<unknown>
180004512: 00 00       	<unknown>
180004514: 00 00       	<unknown>
180004516: 24 40       	<unknown>
180004518: 00 00       	<unknown>
18000451a: 00 00       	<unknown>
18000451c: 00 00       	<unknown>
18000451e: 18 40       	<unknown>
180004520: 00 00       	<unknown>
180004522: 00 00       	<unknown>
180004524: 00 00       	<unknown>
180004526: 00 40       	<unknown>
180004528: 00 00       	<unknown>
18000452a: 00 00       	<unknown>
18000452c: 00 00       	<unknown>
18000452e: f0 3f       	<unknown>
180004530: 2d 43       	<unknown>
180004532: 1c eb       	<unknown>
180004534: e2 36       	<unknown>
180004536: 1a 3f       	<unknown>

0000000180004538 <callbacks>:
180004538: 94 00       	<unknown>
18000453a: 00 80       	<unknown>
18000453c: 01 00       	<unknown>
18000453e: 00 00       	<unknown>

Disassembly of section .sbss:

0000000180004540 <grid_size_x>:
...

0000000180004544 <grid_size_y>:
...

0000000180004548 <grid_size_z>:
...

000000018000454c <block_size_x>:
...

0000000180004550 <block_size_y>:
...

0000000180004554 <block_size_z>:
...

0000000180004558 <block_size>:
...

000000018000455c <__warps_per_group>:
...

Disassembly of section .bss:

0000000180004560 <blockDim>:
...

0000000180004570 <gridDim>:
...

Disassembly of section .comment:

0000000000000000 <.comment>:
       0: 63 6c 61 6e  	bltu	sp, t1, 0x6f8 <.comment+0x6f8>
       4: 67 20 76 65  	<unknown>
       8: 72 73        	<unknown>
       a: 69 6f        	<unknown>
       c: 6e 20        	<unknown>
       e: 31 38        	<unknown>
      10: 2e 31        	<unknown>
      12: 2e 37        	<unknown>
      14: 20 28        	<unknown>
      16: 68 74        	<unknown>
      18: 74 70        	<unknown>
      1a: 73 3a 2f 2f  	csrrc	s4, 0x2f2, t5
      1e: 67 69 74 68  	<unknown>
      22: 75 62        	<unknown>
      24: 2e 63        	<unknown>
      26: 6f 6d 2f 76  	jal	s10, 0xf6788 <.comment+0xf6788>
      2a: 6f 72 74 65  	jal	tp, 0x47e80 <.comment+0x47e80>
      2e: 78 67        	<unknown>
      30: 70 67        	<unknown>
      32: 70 75        	<unknown>
      34: 2f 6c 6c 76  	<unknown>
      38: 6d 2e        	<unknown>
      3a: 67 69 74 20  	<unknown>
      3e: 35 32        	<unknown>
      40: 31 32        	<unknown>
      42: 62 31        	<unknown>
      44: 30 31        	<unknown>
      46: 36 30        	<unknown>
      48: 65 36        	<unknown>
      4a: 33 63 39 61  	<unknown>
      4e: 39 38        	<unknown>
      50: 38 33        	<unknown>
      52: 63 33 66 62  	<unknown>
      56: 38 62        	<unknown>
      58: 30 38        	<unknown>
      5a: 64 30        	<unknown>
      5c: 31 35        	<unknown>
      5e: 62 36        	<unknown>
      60: 36 37        	<unknown>
      62: 64 64        	<unknown>
      64: 61 62        	<unknown>
      66: 29 00        	<unknown>
      68: 63 6c 61 6e  	bltu	sp, t1, 0x760 <.comment+0x760>
      6c: 67 20 76 65  	<unknown>
      70: 72 73        	<unknown>
      72: 69 6f        	<unknown>
      74: 6e 20        	<unknown>
      76: 33 2e 38 2e  	<unknown>
      7a: 30 20        	<unknown>
      7c: 28 74        	<unknown>
      7e: 61 67        	<unknown>
      80: 73 2f 52 45  	csrrs	t5, 0x455, tp
      84: 4c 45        	<unknown>
      86: 41 53        	<unknown>
      88: 45 5f        	<unknown>
      8a: 33 38 30 2f  	<unknown>
      8e: 66 69        	<unknown>
      90: 6e 61        	<unknown>
      92: 6c 29        	<unknown>
      94: 00 47        	<unknown>
      96: 43 43 3a 20  	fmadd.s	ft6, fs4, ft3, ft4, rmm
      9a: 28 67        	<unknown>
      9c: 32 65        	<unknown>
      9e: 65 35        	<unknown>
      a0: 65 34        	<unknown>
      a2: 33 30 30 31  	<unknown>
      a6: 38 2d        	<unknown>
      a8: 64 69        	<unknown>
      aa: 72 74        	<unknown>
      ac: 79 29        	<unknown>
      ae: 20 31        	<unknown>
      b0: 32 2e        	<unknown>
      b2: 32 2e        	<unknown>
      b4: 30 00        	<unknown>
      b6: 63 6c 61 6e  	bltu	sp, t1, 0x7ae <.comment+0x7ae>
      ba: 67 20 76 65  	<unknown>
      be: 72 73        	<unknown>
      c0: 69 6f        	<unknown>
      c2: 6e 20        	<unknown>
      c4: 31 38        	<unknown>
      c6: 2e 31        	<unknown>
      c8: 2e 36        	<unknown>
      ca: 20 28        	<unknown>
      cc: 68 74        	<unknown>
      ce: 74 70        	<unknown>
      d0: 73 3a 2f 2f  	csrrc	s4, 0x2f2, t5
      d4: 67 69 74 68  	<unknown>
      d8: 75 62        	<unknown>
      da: 2e 63        	<unknown>
      dc: 6f 6d 2f 6c  	jal	s10, 0xf679e <.comment+0xf679e>
      e0: 6c 76        	<unknown>
      e2: 6d 2f        	<unknown>
      e4: 6c 6c        	<unknown>
      e6: 76 6d        	<unknown>
      e8: 2d 70        	<unknown>
      ea: 72 6f        	<unknown>
      ec: 6a 65        	<unknown>
      ee: 63 74 2e 67  	bgeu	t3, s2, 0x756 <.comment+0x756>
      f2: 69 74        	<unknown>
      f4: 20 31        	<unknown>
      f6: 64 36        	<unknown>
      f8: 31 62        	<unknown>
      fa: 34 30        	<unknown>
      fc: 34 34        	<unknown>
      fe: 64 64        	<unknown>
     100: 64 64        	<unknown>
     102: 61 36        	<unknown>
     104: 35 65        	<unknown>
     106: 39 38        	<unknown>
     108: 65 37        	<unknown>
     10a: 39 32        	<unknown>
     10c: 38 66        	<unknown>
     10e: 64 33        	<unknown>
     110: 39 35        	<unknown>
     112: 65 36        	<unknown>
     114: 61 39        	<unknown>
     116: 35 31        	<unknown>
     118: 63 35 61 38  	<unknown>
     11c: 66 29        	<unknown>
     11e: 00           	<unknown>

Disassembly of section .riscv.attributes:

0000000000000000 <.riscv.attributes>:
       0: 41 4f        	<unknown>
       2: 00 00        	<unknown>
       4: 00 72        	<unknown>
       6: 69 73        	<unknown>
       8: 63 76 00 01  	bgeu	zero, a6, 0x14 <.comment+0x14>
       c: 45 00        	<unknown>
       e: 00 00        	<unknown>
      10: 04 10        	<unknown>
      12: 05 72        	<unknown>
      14: 76 36        	<unknown>
      16: 34 69        	<unknown>
      18: 32 70        	<unknown>
      1a: 31 5f        	<unknown>
      1c: 6d 32        	<unknown>
      1e: 70 30        	<unknown>
      20: 5f 61 32 70  	<unknown>
      24: 31 5f        	<unknown>
      26: 66 32        	<unknown>
      28: 70 32        	<unknown>
      2a: 5f 64 32 70  	<unknown>
      2e: 32 5f        	<unknown>
      30: 7a 69        	<unknown>
      32: 63 6f 6e 64  	bltu	t3, t1, 0x690 <.comment+0x690>
      36: 31 70        	<unknown>
      38: 30 5f        	<unknown>
      3a: 7a 69        	<unknown>
      3c: 63 73 72 32  	bgeu	tp, t2, 0x362 <.comment+0x362>
      40: 70 30        	<unknown>
      42: 5f 7a 6d 6d  	<unknown>
      46: 75 6c        	<unknown>
      48: 31 70        	<unknown>
      4a: 30 00        	<unknown>
      4c: 08 01        	<unknown>
      4e: 0a 0b        	<unknown>

Disassembly of section .debug_info:

0000000000000000 <.debug_info>:
       0: 53 3e 00 00  	fadd.s	ft8, ft0, ft0, rup
       4: 02 00        	<unknown>
       6: 00 00        	<unknown>
       8: 00 00        	<unknown>
       a: 08 01        	<unknown>
       c: 00 00        	<unknown>
       e: 00 00        	<unknown>
      10: 1a 00        	<unknown>
      12: 68 00        	<unknown>
      14: 00 00        	<unknown>
      16: 00 00        	<unknown>
      18: 00 00        	<unknown>
      1a: 82 00        	<unknown>
      1c: 00 00        	<unknown>
      1e: 02 f7        	<unknown>
      20: 0d 00        	<unknown>
      22: 00 02        	<unknown>
      24: b0 00        	<unknown>
      26: 00 00        	<unknown>
      28: 02 b7        	<unknown>
      2a: 00 00        	<unknown>
      2c: 00 03        	<unknown>
      2e: 1e 01        	<unknown>
      30: 00 00        	<unknown>
      32: 08 01        	<unknown>
      34: 58 04        	<unknown>
      36: be 00        	<unknown>
      38: 00 00        	<unknown>
      3a: 23 04 c4 00  	sb	a2, 0x8(s0)
      3e: 00 00        	<unknown>
      40: 25 04        	<unknown>
      42: ca 00        	<unknown>
      44: 00 00        	<unknown>
      46: 32 04        	<unknown>
      48: d0 00        	<unknown>
      4a: 00 00        	<unknown>
      4c: 34 04        	<unknown>
      4e: d6 00        	<unknown>
      50: 00 00        	<unknown>
      52: 35 04        	<unknown>
      54: dc 00        	<unknown>
      56: 00 00        	<unknown>
      58: 3c 04        	<unknown>
      5a: e2 00        	<unknown>
      5c: 00 00        	<unknown>
      5e: 3d 04        	<unknown>
      60: e8 00        	<unknown>
      62: 00 00        	<unknown>
      64: 3e 04        	<unknown>
      66: ee 00        	<unknown>
      68: 00 00        	<unknown>
      6a: 46 04        	<unknown>
      6c: f4 00        	<unknown>
      6e: 00 00        	<unknown>
      70: 48 04        	<unknown>
      72: fa 00        	<unknown>
      74: 00 00        	<unknown>
      76: 4b 04 00 01  	fnmsub.s	fs0, ft0, fa6, ft0, rne
      7a: 00 00        	<unknown>
      7c: 50 04        	<unknown>
      7e: 06 01        	<unknown>
      80: 00 00        	<unknown>
      82: 56 04        	<unknown>
      84: 0c 01        	<unknown>
      86: 00 00        	<unknown>
      88: 57 04 12 01  	<unknown>
      8c: 00 00        	<unknown>
      8e: 59 04        	<unknown>
      90: 18 01        	<unknown>
      92: 00 00        	<unknown>
      94: 5a 00        	<unknown>
      96: 05 05        	<unknown>
      98: 50 01        	<unknown>
      9a: 00 00        	<unknown>
      9c: 08 01        	<unknown>
      9e: 51 06        	<unknown>
      a0: 2a 01        	<unknown>
      a2: 00 00        	<unknown>
      a4: c3 00 00 00  	fmadd.s	ft1, ft0, ft0, ft0, rne
      a8: 01 52        	<unknown>
      aa: 02 23        	<unknown>
      ac: 00 07        	<unknown>
      ae: 50 01        	<unknown>
      b0: 00 00        	<unknown>
      b2: 01 54        	<unknown>
      b4: 01 01        	<unknown>
      b6: 08 22        	<unknown>
      b8: 01 00        	<unknown>
      ba: 00 01        	<unknown>
      bc: 09 c3        	<unknown>
      be: 00 00        	<unknown>
      c0: 00 00        	<unknown>
      c2: 00 0a        	<unknown>
      c4: 1b 01 00 00  	sext.w	sp, zero
      c8: 45 01        	<unknown>
      ca: 00 00        	<unknown>
      cc: 01 32        	<unknown>
      ce: 0b 85 11 00  	<unknown>
      d2: 00 b9        	<unknown>
      d4: 11 00        	<unknown>
      d6: 00 01        	<unknown>
      d8: 8e 96        	<unknown>
      da: 00 00        	<unknown>
      dc: 00 01        	<unknown>
      de: 01 09        	<unknown>
      e0: 2d 00        	<unknown>
      e2: 00 00        	<unknown>
      e4: 00 0b        	<unknown>
      e6: c4 11        	<unknown>
      e8: 00 00        	<unknown>
      ea: f5 11        	<unknown>
      ec: 00 00        	<unknown>
      ee: 01 93        	<unknown>
      f0: 96 00        	<unknown>
      f2: 00 00        	<unknown>
      f4: 01 01        	<unknown>
      f6: 09 2d        	<unknown>
      f8: 00 00        	<unknown>
      fa: 00 00        	<unknown>
      fc: 00 0c        	<unknown>
      fe: 01 ab        	<unknown>
     100: 96 00        	<unknown>
     102: 00 00        	<unknown>
     104: 0c 01        	<unknown>
     106: ac 2d        	<unknown>
     108: 00 00        	<unknown>
     10a: 00 0c        	<unknown>
     10c: 01 ca        	<unknown>
     10e: ce 00        	<unknown>
     110: 00 00        	<unknown>
     112: 0c 01        	<unknown>
     114: cb e5 00 00  	<unknown>
     118: 00 00        	<unknown>
     11a: 00 0d        	<unknown>
     11c: 32 01        	<unknown>
     11e: 00 00        	<unknown>
     120: 07 08 0e 96  	<unknown>
     124: 00 00        	<unknown>
     126: 00 0f        	<unknown>
     128: 05 97        	<unknown>
     12a: 02 00        	<unknown>
     12c: 00 0c        	<unknown>
     12e: 02 a2        	<unknown>
     130: 01 10        	<unknown>
     132: d7 01 00 00  	<unknown>
     136: ae 01        	<unknown>
     138: 00 00        	<unknown>
     13a: 02 a4        	<unknown>
     13c: 01 02        	<unknown>
     13e: 23 00 10 1d  	sb	a7, 0x1c0(zero)
     142: 02 00        	<unknown>
     144: 00 ae        	<unknown>
     146: 01 00        	<unknown>
     148: 00 02        	<unknown>
     14a: a4 01        	<unknown>
     14c: 02 23        	<unknown>
     14e: 04 10        	<unknown>
     150: 63 02 00 00  	beqz	zero, 0x154 <.debug_info+0x154>
     154: ae 01        	<unknown>
     156: 00 00        	<unknown>
     158: 02 a4        	<unknown>
     15a: 01 02        	<unknown>
     15c: 23 08 11 97  	sb	a7, -0x690(sp)
     160: 02 00        	<unknown>
     162: 00 02        	<unknown>
     164: a7 01 01 01  	<unknown>
     168: 08 b5        	<unknown>
     16a: 01 00        	<unknown>
     16c: 00 01        	<unknown>
     16e: 09 ae        	<unknown>
     170: 01 00        	<unknown>
     172: 00 09        	<unknown>
     174: ae 01        	<unknown>
     176: 00 00        	<unknown>
     178: 09 ae        	<unknown>
     17a: 01 00        	<unknown>
     17c: 00 00        	<unknown>
     17e: 11 97        	<unknown>
     180: 02 00        	<unknown>
     182: 00 02        	<unknown>
     184: a8 01        	<unknown>
     186: 01 01        	<unknown>
     188: 08 b5        	<unknown>
     18a: 01 00        	<unknown>
     18c: 00 01        	<unknown>
     18e: 09 ba        	<unknown>
     190: 01 00        	<unknown>
     192: 00 00        	<unknown>
     194: 12 70        	<unknown>
     196: 01 00        	<unknown>
     198: 00 84        	<unknown>
     19a: 01 00        	<unknown>
     19c: 00 02        	<unknown>
     19e: a9 01        	<unknown>
     1a0: ba 01        	<unknown>
     1a2: 00 00        	<unknown>
     1a4: 01 01        	<unknown>
     1a6: 08 fa        	<unknown>
     1a8: 01 00        	<unknown>
     1aa: 00 01        	<unknown>
     1ac: 00 00        	<unknown>
     1ae: 0d 63        	<unknown>
     1b0: 01 00        	<unknown>
     1b2: 00 07        	<unknown>
     1b4: 04 0e        	<unknown>
     1b6: 27 01 00 00  	<unknown>
     1ba: 13 c6 01 00  	xori	a2, gp, 0x0
     1be: 00 8d        	<unknown>
     1c0: 01 00        	<unknown>
     1c2: 00 02        	<unknown>
     1c4: 80 01        	<unknown>
     1c6: 05 05        	<unknown>
     1c8: 8d 01        	<unknown>
     1ca: 00 00        	<unknown>
     1cc: 0c 02        	<unknown>
     1ce: c0 06        	<unknown>
     1d0: d7 01 00 00  	<unknown>
     1d4: ae 01        	<unknown>
     1d6: 00 00        	<unknown>
     1d8: 02 c2        	<unknown>
     1da: 02 23        	<unknown>
     1dc: 00 06        	<unknown>
     1de: 1d 02        	<unknown>
     1e0: 00 00        	<unknown>
     1e2: ae 01        	<unknown>
     1e4: 00 00        	<unknown>
     1e6: 02 c2        	<unknown>
     1e8: 02 23        	<unknown>
     1ea: 04 06        	<unknown>
     1ec: 63 02 00 00  	beqz	zero, 0x1f0 <.debug_info+0x1f0>
     1f0: ae 01        	<unknown>
     1f2: 00 00        	<unknown>
     1f4: 02 c2        	<unknown>
     1f6: 02 23        	<unknown>
     1f8: 08 00        	<unknown>
     1fa: 0e ff        	<unknown>
     1fc: 01 00        	<unknown>
     1fe: 00 14        	<unknown>
     200: 27 01 00 00  	<unknown>
     204: 05 04        	<unknown>
     206: c6 02        	<unknown>
     208: 00 00        	<unknown>
     20a: 01 03        	<unknown>
     20c: 41 15        	<unknown>
     20e: 93 01 00 00  	li	gp, 0x0
     212: c7 01 00 00  	fmsub.s	ft3, ft0, ft0, ft0, rne
     216: 03 42 ae 01  	lbu	tp, 0x1a(t3)
     21a: 00 00        	<unknown>
     21c: 01 01        	<unknown>
     21e: 15 d9        	<unknown>
     220: 01 00        	<unknown>
     222: 00 0d        	<unknown>
     224: 02 00        	<unknown>
     226: 00 03        	<unknown>
     228: 43 ae 01 00  	fmadd.s	ft8, ft3, ft0, ft0, rdn
     22c: 00 01        	<unknown>
     22e: 01 15        	<unknown>
     230: 1f 02 00 00  	<unknown>
     234: 53 02 00 00  	fadd.s	ft4, ft0, ft0, rne
     238: 03 44 ae 01  	lbu	s0, 0x1a(t3)
     23c: 00 00        	<unknown>
     23e: 01 01        	<unknown>
     240: 0b 65 02 00  	<unknown>
     244: 00 8e        	<unknown>
     246: 02 00        	<unknown>
     248: 00 03        	<unknown>
     24a: 47 27 01 00  	fmsub.s	fa4, ft2, ft0, ft0, rdn
     24e: 00 01        	<unknown>
     250: 01 08        	<unknown>
     252: cb 02 00 00  	fnmsub.s	ft5, ft0, ft0, ft0, rne
     256: 01 00        	<unknown>
     258: 0b 9c 02 00  	<unknown>
     25c: 00 84        	<unknown>
     25e: 01 00        	<unknown>
     260: 00 03        	<unknown>
     262: 48 c6        	<unknown>
     264: 01 00        	<unknown>
     266: 00 01        	<unknown>
     268: 01 08        	<unknown>
     26a: cb 02 00 00  	fnmsub.s	ft5, ft0, ft0, ft0, rne
     26e: 01 00        	<unknown>
     270: 16 c6        	<unknown>
     272: 02 00        	<unknown>
     274: 00 03        	<unknown>
     276: 4b 01 01 03  	fnmsub.d	ft2, ft2, fa6, ft0, rne
     27a: 08 d5        	<unknown>
     27c: 02 00        	<unknown>
     27e: 00 01        	<unknown>
     280: 00 16        	<unknown>
     282: c6 02        	<unknown>
     284: 00 00        	<unknown>
     286: 03 4b 01 01  	lbu	s6, 0x10(sp)
     28a: 03 08 d5 02  	lb	a6, 0x2d(a0)
     28e: 00 00        	<unknown>
     290: 01 09        	<unknown>
     292: da 02        	<unknown>
     294: 00 00        	<unknown>
     296: 00 17        	<unknown>
     298: e0 02        	<unknown>
     29a: 00 00        	<unknown>
     29c: 07 03 00 00  	<unknown>
     2a0: 03 4b 01 01  	lbu	s6, 0x10(sp)
     2a4: 03 08 cb 02  	lb	a6, 0x2c(s6)
     2a8: 00 00        	<unknown>
     2aa: 01 09        	<unknown>
     2ac: da 02        	<unknown>
     2ae: 00 00        	<unknown>
     2b0: 00 18        	<unknown>
     2b2: 11 03        	<unknown>
     2b4: 00 00        	<unknown>
     2b6: 35 03        	<unknown>
     2b8: 00 00        	<unknown>
     2ba: 03 4b df 02  	lbu	s6, 0x2d(t5)
     2be: 00 00        	<unknown>
     2c0: 01 01        	<unknown>
     2c2: 03 08 cb 02  	lb	a6, 0x2c(s6)
     2c6: 00 00        	<unknown>
     2c8: 01 00        	<unknown>
     2ca: 00 0e        	<unknown>
     2cc: d0 02        	<unknown>
     2ce: 00 00        	<unknown>
     2d0: 14 04        	<unknown>
     2d2: 02 00        	<unknown>
     2d4: 00 0e        	<unknown>
     2d6: 04 02        	<unknown>
     2d8: 00 00        	<unknown>
     2da: 19 d0        	<unknown>
     2dc: 02 00        	<unknown>
     2de: 00 0e        	<unknown>
     2e0: 04 02        	<unknown>
     2e2: 00 00        	<unknown>
     2e4: 05 04        	<unknown>
     2e6: 29 04        	<unknown>
     2e8: 00 00        	<unknown>
     2ea: 01 03        	<unknown>
     2ec: 5b 15 3f 03  	<unknown>
     2f0: 00 00        	<unknown>
     2f2: c7 01 00 00  	fmsub.s	ft3, ft0, ft0, ft0, rne
     2f6: 03 5c ae 01  	lhu	s8, 0x1a(t3)
     2fa: 00 00        	<unknown>
     2fc: 01 01        	<unknown>
     2fe: 15 72        	<unknown>
     300: 03 00 00 0d  	lb	zero, 0xd0(zero)
     304: 02 00        	<unknown>
     306: 00 03        	<unknown>
     308: 5d ae        	<unknown>
     30a: 01 00        	<unknown>
     30c: 00 01        	<unknown>
     30e: 01 15        	<unknown>
     310: a5 03        	<unknown>
     312: 00 00        	<unknown>
     314: 53 02 00 00  	fadd.s	ft4, ft0, ft0, rne
     318: 03 5e ae 01  	lhu	t3, 0x1a(t3)
     31c: 00 00        	<unknown>
     31e: 01 01        	<unknown>
     320: 0b d8 03 00  	<unknown>
     324: 00 8e        	<unknown>
     326: 02 00        	<unknown>
     328: 00 03        	<unknown>
     32a: 61 27        	<unknown>
     32c: 01 00        	<unknown>
     32e: 00 01        	<unknown>
     330: 01 08        	<unknown>
     332: ab 03 00 00  	vx_tex	t2, zero, zero, zero
     336: 01 00        	<unknown>
     338: 0b 00 04 00  	vx_tmc	s0
     33c: 00 84        	<unknown>
     33e: 01 00        	<unknown>
     340: 00 03        	<unknown>
     342: 62 c6        	<unknown>
     344: 01 00        	<unknown>
     346: 00 01        	<unknown>
     348: 01 08        	<unknown>
     34a: ab 03 00 00  	vx_tex	t2, zero, zero, zero
     34e: 01 00        	<unknown>
     350: 16 29        	<unknown>
     352: 04 00        	<unknown>
     354: 00 03        	<unknown>
     356: 65 01        	<unknown>
     358: 01 03        	<unknown>
     35a: 08 b5        	<unknown>
     35c: 03 00 00 01  	lb	zero, 0x10(zero)
     360: 00 16        	<unknown>
     362: 29 04        	<unknown>
     364: 00 00        	<unknown>
     366: 03 65 01 01  	lwu	a0, 0x10(sp)
     36a: 03 08 b5 03  	lb	a6, 0x3b(a0)
     36e: 00 00        	<unknown>
     370: 01 09        	<unknown>
     372: ba 03        	<unknown>
     374: 00 00        	<unknown>
     376: 00 17        	<unknown>
     378: 42 04        	<unknown>
     37a: 00 00        	<unknown>
     37c: 07 03 00 00  	<unknown>
     380: 03 65 01 01  	lwu	a0, 0x10(sp)
     384: 03 08 ab 03  	lb	a6, 0x3a(s6)
     388: 00 00        	<unknown>
     38a: 01 09        	<unknown>
     38c: ba 03        	<unknown>
     38e: 00 00        	<unknown>
     390: 00 18        	<unknown>
     392: 68 04        	<unknown>
     394: 00 00        	<unknown>
     396: 35 03        	<unknown>
     398: 00 00        	<unknown>
     39a: 03 65 bf 03  	lwu	a0, 0x3b(t5)
     39e: 00 00        	<unknown>
     3a0: 01 01        	<unknown>
     3a2: 03 08 ab 03  	lb	a6, 0x3a(s6)
     3a6: 00 00        	<unknown>
     3a8: 01 00        	<unknown>
     3aa: 00 0e        	<unknown>
     3ac: b0 03        	<unknown>
     3ae: 00 00        	<unknown>
     3b0: 14 e4        	<unknown>
     3b2: 02 00        	<unknown>
     3b4: 00 0e        	<unknown>
     3b6: e4 02        	<unknown>
     3b8: 00 00        	<unknown>
     3ba: 19 b0        	<unknown>
     3bc: 03 00 00 0e  	lb	zero, 0xe0(zero)
     3c0: e4 02        	<unknown>
     3c2: 00 00        	<unknown>
     3c4: 05 04        	<unknown>
     3c6: 7a 05        	<unknown>
     3c8: 00 00        	<unknown>
     3ca: 01 03        	<unknown>
     3cc: 4e 15        	<unknown>
     3ce: 8b 04 00 00  	<unknown>
     3d2: c7 01 00 00  	fmsub.s	ft3, ft0, ft0, ft0, rne
     3d6: 03 4f ae 01  	lbu	t5, 0x1a(t3)
     3da: 00 00        	<unknown>
     3dc: 01 01        	<unknown>
     3de: 15 bf        	<unknown>
     3e0: 04 00        	<unknown>
     3e2: 00 0d        	<unknown>
     3e4: 02 00        	<unknown>
     3e6: 00 03        	<unknown>
     3e8: 50 ae        	<unknown>
     3ea: 01 00        	<unknown>
     3ec: 00 01        	<unknown>
     3ee: 01 15        	<unknown>
     3f0: f3 04 00 00  	<unknown>
     3f4: 53 02 00 00  	fadd.s	ft4, ft0, ft0, rne
     3f8: 03 51 ae 01  	lhu	sp, 0x1a(t3)
     3fc: 00 00        	<unknown>
     3fe: 01 01        	<unknown>
     400: 0b 27 05 00  	vx_split	a4, a0
     404: 00 8e        	<unknown>
     406: 02 00        	<unknown>
     408: 00 03        	<unknown>
     40a: 54 27        	<unknown>
     40c: 01 00        	<unknown>
     40e: 00 01        	<unknown>
     410: 01 08        	<unknown>
     412: 8b 04 00 00  	<unknown>
     416: 01 00        	<unknown>
     418: 0b 50 05 00  	vx_pred	a0, zero
     41c: 00 84        	<unknown>
     41e: 01 00        	<unknown>
     420: 00 03        	<unknown>
     422: 55 c6        	<unknown>
     424: 01 00        	<unknown>
     426: 00 01        	<unknown>
     428: 01 08        	<unknown>
     42a: 8b 04 00 00  	<unknown>
     42e: 01 00        	<unknown>
     430: 16 7a        	<unknown>
     432: 05 00        	<unknown>
     434: 00 03        	<unknown>
     436: 58 01        	<unknown>
     438: 01 03        	<unknown>
     43a: 08 95        	<unknown>
     43c: 04 00        	<unknown>
     43e: 00 01        	<unknown>
     440: 00 16        	<unknown>
     442: 7a 05        	<unknown>
     444: 00 00        	<unknown>
     446: 03 58 01 01  	lhu	a6, 0x10(sp)
     44a: 03 08 95 04  	lb	a6, 0x49(a0)
     44e: 00 00        	<unknown>
     450: 01 09        	<unknown>
     452: 9a 04        	<unknown>
     454: 00 00        	<unknown>
     456: 00 17        	<unknown>
     458: 94 05        	<unknown>
     45a: 00 00        	<unknown>
     45c: 07 03 00 00  	<unknown>
     460: 03 58 01 01  	lhu	a6, 0x10(sp)
     464: 03 08 8b 04  	lb	a6, 0x48(s6)
     468: 00 00        	<unknown>
     46a: 01 09        	<unknown>
     46c: 9a 04        	<unknown>
     46e: 00 00        	<unknown>
     470: 00 18        	<unknown>
     472: bb 05 00 00  	addw	a1, zero, zero
     476: 35 03        	<unknown>
     478: 00 00        	<unknown>
     47a: 03 58 9f 04  	lhu	a6, 0x49(t5)
     47e: 00 00        	<unknown>
     480: 01 01        	<unknown>
     482: 03 08 8b 04  	lb	a6, 0x48(s6)
     486: 00 00        	<unknown>
     488: 01 00        	<unknown>
     48a: 00 0e        	<unknown>
     48c: 90 04        	<unknown>
     48e: 00 00        	<unknown>
     490: 14 c4        	<unknown>
     492: 03 00 00 0e  	lb	zero, 0xe0(zero)
     496: c4 03        	<unknown>
     498: 00 00        	<unknown>
     49a: 19 90        	<unknown>
     49c: 04 00        	<unknown>
     49e: 00 0e        	<unknown>
     4a0: c4 03        	<unknown>
     4a2: 00 00        	<unknown>
     4a4: 05 04        	<unknown>
     4a6: d3 06 00 00  	fadd.s	fa3, ft0, ft0, rne
     4aa: 01 03        	<unknown>
     4ac: 34 15        	<unknown>
     4ae: df 05 00 00  	<unknown>
     4b2: c7 01 00 00  	fmsub.s	ft3, ft0, ft0, ft0, rne
     4b6: 03 35 ae 01  	ld	a0, 0x1a(t3)
     4ba: 00 00        	<unknown>
     4bc: 01 01        	<unknown>
     4be: 15 14        	<unknown>
     4c0: 06 00        	<unknown>
     4c2: 00 0d        	<unknown>
     4c4: 02 00        	<unknown>
     4c6: 00 03        	<unknown>
     4c8: 36 ae        	<unknown>
     4ca: 01 00        	<unknown>
     4cc: 00 01        	<unknown>
     4ce: 01 15        	<unknown>
     4d0: 49 06        	<unknown>
     4d2: 00 00        	<unknown>
     4d4: 53 02 00 00  	fadd.s	ft4, ft0, ft0, rne
     4d8: 03 37 ae 01  	ld	a4, 0x1a(t3)
     4dc: 00 00        	<unknown>
     4de: 01 01        	<unknown>
     4e0: 0b 7e 06 00  	<unknown>
     4e4: 00 8e        	<unknown>
     4e6: 02 00        	<unknown>
     4e8: 00 03        	<unknown>
     4ea: 3a 27        	<unknown>
     4ec: 01 00        	<unknown>
     4ee: 00 01        	<unknown>
     4f0: 01 08        	<unknown>
     4f2: 6b 05 00 00  	<unknown>
     4f6: 01 00        	<unknown>
     4f8: 0b a8 06 00  	vx_split	a6, a3
     4fc: 00 84        	<unknown>
     4fe: 01 00        	<unknown>
     500: 00 03        	<unknown>
     502: 3b c6 01 00  	<unknown>
     506: 00 01        	<unknown>
     508: 01 08        	<unknown>
     50a: 6b 05 00 00  	<unknown>
     50e: 01 00        	<unknown>
     510: 16 d3        	<unknown>
     512: 06 00        	<unknown>
     514: 00 03        	<unknown>
     516: 3e 01        	<unknown>
     518: 01 03        	<unknown>
     51a: 08 75        	<unknown>
     51c: 05 00        	<unknown>
     51e: 00 01        	<unknown>
     520: 00 16        	<unknown>
     522: d3 06 00 00  	fadd.s	fa3, ft0, ft0, rne
     526: 03 3e 01 01  	ld	t3, 0x10(sp)
     52a: 03 08 75 05  	lb	a6, 0x57(a0)
     52e: 00 00        	<unknown>
     530: 01 09        	<unknown>
     532: 7a 05        	<unknown>
     534: 00 00        	<unknown>
     536: 00 17        	<unknown>
     538: ee 06        	<unknown>
     53a: 00 00        	<unknown>
     53c: 07 03 00 00  	<unknown>
     540: 03 3e 01 01  	ld	t3, 0x10(sp)
     544: 03 08 6b 05  	lb	a6, 0x56(s6)
     548: 00 00        	<unknown>
     54a: 01 09        	<unknown>
     54c: 7a 05        	<unknown>
     54e: 00 00        	<unknown>
     550: 00 18        	<unknown>
     552: 16 07        	<unknown>
     554: 00 00        	<unknown>
     556: 35 03        	<unknown>
     558: 00 00        	<unknown>
     55a: 03 3e 7f 05  	ld	t3, 0x57(t5)
     55e: 00 00        	<unknown>
     560: 01 01        	<unknown>
     562: 03 08 6b 05  	lb	a6, 0x56(s6)
     566: 00 00        	<unknown>
     568: 01 00        	<unknown>
     56a: 00 0e        	<unknown>
     56c: 70 05        	<unknown>
     56e: 00 00        	<unknown>
     570: 14 a4        	<unknown>
     572: 04 00        	<unknown>
     574: 00 0e        	<unknown>
     576: a4 04        	<unknown>
     578: 00 00        	<unknown>
     57a: 19 70        	<unknown>
     57c: 05 00        	<unknown>
     57e: 00 0e        	<unknown>
     580: a4 04        	<unknown>
     582: 00 00        	<unknown>
     584: 02 3b        	<unknown>
     586: 07 00 00 0c  	<unknown>
     58a: 04 c8        	<unknown>
     58c: 35 13        	<unknown>
     58e: 00 00        	<unknown>
     590: 0c 04        	<unknown>
     592: c9 52        	<unknown>
     594: 13 00 00 0c  	li	zero, 0xc0
     598: 04 ca        	<unknown>
     59a: 6f 13 00 00  	jal	t1, 0x159a <.debug_info+0x159a>
     59e: 0c 04        	<unknown>
     5a0: cb 85 13 00  	fnmsub.s	fa1, ft7, ft1, ft0, rne
     5a4: 00 0c        	<unknown>
     5a6: 04 cc        	<unknown>
     5a8: 9b 13 00 00  	slliw	t2, zero, 0x0
     5ac: 0c 04        	<unknown>
     5ae: cd b1        	<unknown>
     5b0: 13 00 00 0c  	li	zero, 0xc0
     5b4: 04 ce        	<unknown>
     5b6: c7 13 00 00  	fmsub.s	ft7, ft0, ft0, ft0, rtz
     5ba: 0c 04        	<unknown>
     5bc: cf e2 13 00  	<unknown>
     5c0: 00 0c        	<unknown>
     5c2: 04 d0        	<unknown>
     5c4: f8 13        	<unknown>
     5c6: 00 00        	<unknown>
     5c8: 0c 04        	<unknown>
     5ca: d1 0e        	<unknown>
     5cc: 14 00        	<unknown>
     5ce: 00 0c        	<unknown>
     5d0: 04 d2        	<unknown>
     5d2: 24 14        	<unknown>
     5d4: 00 00        	<unknown>
     5d6: 0c 04        	<unknown>
     5d8: d3 3f 14 00  	fadd.s	ft11, fs0, ft1, rup
     5dc: 00 0c        	<unknown>
     5de: 04 d4        	<unknown>
     5e0: 55 14        	<unknown>
     5e2: 00 00        	<unknown>
     5e4: 0c 04        	<unknown>
     5e6: d5 6b        	<unknown>
     5e8: 14 00        	<unknown>
     5ea: 00 0c        	<unknown>
     5ec: 04 d6        	<unknown>
     5ee: 81 14        	<unknown>
     5f0: 00 00        	<unknown>
     5f2: 0c 04        	<unknown>
     5f4: d7 97 14 00  	<unknown>
     5f8: 00 0c        	<unknown>
     5fa: 04 d8        	<unknown>
     5fc: ad 14        	<unknown>
     5fe: 00 00        	<unknown>
     600: 0c 04        	<unknown>
     602: d9 c3        	<unknown>
     604: 14 00        	<unknown>
     606: 00 0c        	<unknown>
     608: 04 da        	<unknown>
     60a: d9 14        	<unknown>
     60c: 00 00        	<unknown>
     60e: 0c 04        	<unknown>
     610: db ef 14 00  	<unknown>
     614: 00 0c        	<unknown>
     616: 04 dc        	<unknown>
     618: 0a 15        	<unknown>
     61a: 00 00        	<unknown>
     61c: 0c 04        	<unknown>
     61e: dd 20        	<unknown>
     620: 15 00        	<unknown>
     622: 00 0c        	<unknown>
     624: 04 de        	<unknown>
     626: 40 15        	<unknown>
     628: 00 00        	<unknown>
     62a: 0c 04        	<unknown>
     62c: df 5b 15 00  	<unknown>
     630: 00 0c        	<unknown>
     632: 04 e0        	<unknown>
     634: 76 15        	<unknown>
     636: 00 00        	<unknown>
     638: 0c 04        	<unknown>
     63a: e1 91        	<unknown>
     63c: 15 00        	<unknown>
     63e: 00 0c        	<unknown>
     640: 04 e2        	<unknown>
     642: a7 15 00 00  	<unknown>
     646: 0c 04        	<unknown>
     648: e3 c7 15 00  	blt	a1, ra, 0xe56 <.debug_info+0xe56>
     64c: 00 0c        	<unknown>
     64e: 04 e4        	<unknown>
     650: e2 15        	<unknown>
     652: 00 00        	<unknown>
     654: 0c 04        	<unknown>
     656: e5 f8        	<unknown>
     658: 15 00        	<unknown>
     65a: 00 0c        	<unknown>
     65c: 04 e6        	<unknown>
     65e: 15 16        	<unknown>
     660: 00 00        	<unknown>
     662: 0c 04        	<unknown>
     664: e7 30 16 00  	<unknown>
     668: 00 0c        	<unknown>
     66a: 04 e8        	<unknown>
     66c: 4b 16 00 00  	fnmsub.s	fa2, ft0, ft0, ft0, rtz
     670: 0c 04        	<unknown>
     672: e9 61        	<unknown>
     674: 16 00        	<unknown>
     676: 00 0c        	<unknown>
     678: 04 ea        	<unknown>
     67a: 7c 16        	<unknown>
     67c: 00 00        	<unknown>
     67e: 0c 04        	<unknown>
     680: eb 97 16 00  	<unknown>
     684: 00 0c        	<unknown>
     686: 04 ec        	<unknown>
     688: b2 16        	<unknown>
     68a: 00 00        	<unknown>
     68c: 0c 04        	<unknown>
     68e: ed c8        	<unknown>
     690: 16 00        	<unknown>
     692: 00 0c        	<unknown>
     694: 04 ee        	<unknown>
     696: de 16        	<unknown>
     698: 00 00        	<unknown>
     69a: 0c 04        	<unknown>
     69c: ef f9 16 00  	jal	s3, 0x6fe9c <.debug_info+0x6fe9c>
     6a0: 00 0c        	<unknown>
     6a2: 04 f0        	<unknown>
     6a4: 16 17        	<unknown>
     6a6: 00 00        	<unknown>
     6a8: 0c 04        	<unknown>
     6aa: f1 31        	<unknown>
     6ac: 17 00 00 0c  	auipc	zero, 0xc000
     6b0: 04 f2        	<unknown>
     6b2: 47 17 00 00  	fmsub.s	fa4, ft0, ft0, ft0, rtz
     6b6: 0c 04        	<unknown>
     6b8: f3 64 17 00  	csrrsi	s1, fflags, 0xe
     6bc: 00 0c        	<unknown>
     6be: 04 f4        	<unknown>
     6c0: 7a 17        	<unknown>
     6c2: 00 00        	<unknown>
     6c4: 0c 04        	<unknown>
     6c6: f5 90        	<unknown>
     6c8: 17 00 00 0c  	auipc	zero, 0xc000
     6cc: 04 f6        	<unknown>
     6ce: a6 17        	<unknown>
     6d0: 00 00        	<unknown>
     6d2: 0c 04        	<unknown>
     6d4: f7 bc 17 00  	<unknown>
     6d8: 00 0c        	<unknown>
     6da: 04 f8        	<unknown>
     6dc: d2 17        	<unknown>
     6de: 00 00        	<unknown>
     6e0: 0c 04        	<unknown>
     6e2: f9 e8        	<unknown>
     6e4: 17 00 00 0c  	auipc	zero, 0xc000
     6e8: 04 fa        	<unknown>
     6ea: fe 17        	<unknown>
     6ec: 00 00        	<unknown>
     6ee: 0c 04        	<unknown>
     6f0: fb 14 18 00  	<unknown>
     6f4: 00 0c        	<unknown>
     6f6: 04 fc        	<unknown>
     6f8: 2a 18        	<unknown>
     6fa: 00 00        	<unknown>
     6fc: 0c 04        	<unknown>
     6fe: fd 4a        	<unknown>
     700: 18 00        	<unknown>
     702: 00 0c        	<unknown>
     704: 04 fe        	<unknown>
     706: 78 18        	<unknown>
     708: 00 00        	<unknown>
     70a: 0c 04        	<unknown>
     70c: ff 8e 18 00  	<unknown>
     710: 00 1a        	<unknown>
     712: 04 00        	<unknown>
     714: 01 a4        	<unknown>
     716: 18 00        	<unknown>
     718: 00 1a        	<unknown>
     71a: 04 01        	<unknown>
     71c: 01 bf        	<unknown>
     71e: 18 00        	<unknown>
     720: 00 1a        	<unknown>
     722: 04 02        	<unknown>
     724: 01 da        	<unknown>
     726: 18 00        	<unknown>
     728: 00 1a        	<unknown>
     72a: 04 03        	<unknown>
     72c: 01 f5        	<unknown>
     72e: 18 00        	<unknown>
     730: 00 1a        	<unknown>
     732: 04 04        	<unknown>
     734: 01 15        	<unknown>
     736: 19 00        	<unknown>
     738: 00 1a        	<unknown>
     73a: 04 05        	<unknown>
     73c: 01 2b        	<unknown>
     73e: 19 00        	<unknown>
     740: 00 1a        	<unknown>
     742: 04 06        	<unknown>
     744: 01 41        	<unknown>
     746: 19 00        	<unknown>
     748: 00 1a        	<unknown>
     74a: 04 07        	<unknown>
     74c: 01 5c        	<unknown>
     74e: 19 00        	<unknown>
     750: 00 1a        	<unknown>
     752: 04 08        	<unknown>
     754: 01 77        	<unknown>
     756: 19 00        	<unknown>
     758: 00 1a        	<unknown>
     75a: 04 09        	<unknown>
     75c: 01 8d        	<unknown>
     75e: 19 00        	<unknown>
     760: 00 1a        	<unknown>
     762: 04 0a        	<unknown>
     764: 01 a3        	<unknown>
     766: 19 00        	<unknown>
     768: 00 1a        	<unknown>
     76a: 04 0b        	<unknown>
     76c: 01 b9        	<unknown>
     76e: 19 00        	<unknown>
     770: 00 1a        	<unknown>
     772: 04 0c        	<unknown>
     774: 01 cf        	<unknown>
     776: 19 00        	<unknown>
     778: 00 1a        	<unknown>
     77a: 04 0d        	<unknown>
     77c: 01 e5        	<unknown>
     77e: 19 00        	<unknown>
     780: 00 1a        	<unknown>
     782: 04 0e        	<unknown>
     784: 01 fb        	<unknown>
     786: 19 00        	<unknown>
     788: 00 1a        	<unknown>
     78a: 04 0f        	<unknown>
     78c: 01 11        	<unknown>
     78e: 1a 00        	<unknown>
     790: 00 0c        	<unknown>
     792: 06 34        	<unknown>
     794: 27 1a 00 00  	<unknown>
     798: 0c 08        	<unknown>
     79a: 55 3b        	<unknown>
     79c: 1a 00        	<unknown>
     79e: 00 0c        	<unknown>
     7a0: 08 68        	<unknown>
     7a2: 4e 1a        	<unknown>
     7a4: 00 00        	<unknown>
     7a6: 0c 08        	<unknown>
     7a8: 7b 61 1a 00  	<unknown>
     7ac: 00 0c        	<unknown>
     7ae: 08 8e        	<unknown>
     7b0: 74 1a        	<unknown>
     7b2: 00 00        	<unknown>
     7b4: 0c 08        	<unknown>
     7b6: 9a 8c        	<unknown>
     7b8: 1a 00        	<unknown>
     7ba: 00 0c        	<unknown>
     7bc: 08 ad        	<unknown>
     7be: 9f 1a 00 00  	<unknown>
     7c2: 0c 08        	<unknown>
     7c4: c0 b2        	<unknown>
     7c6: 1a 00        	<unknown>
     7c8: 00 0c        	<unknown>
     7ca: 08 d3        	<unknown>
     7cc: c5 1a        	<unknown>
     7ce: 00 00        	<unknown>
     7d0: 0c 08        	<unknown>
     7d2: e6 d8        	<unknown>
     7d4: 1a 00        	<unknown>
     7d6: 00 0c        	<unknown>
     7d8: 08 f9        	<unknown>
     7da: eb 1a 00 00  	<unknown>
     7de: 1a 08        	<unknown>
     7e0: 0c 01        	<unknown>
     7e2: fe 1a        	<unknown>
     7e4: 00 00        	<unknown>
     7e6: 1a 08        	<unknown>
     7e8: 18 01        	<unknown>
     7ea: 16 1b        	<unknown>
     7ec: 00 00        	<unknown>
     7ee: 1a 08        	<unknown>
     7f0: 2b 01 2e 1b  	<unknown>
     7f4: 00 00        	<unknown>
     7f6: 1a 08        	<unknown>
     7f8: 3e 01        	<unknown>
     7fa: 46 1b        	<unknown>
     7fc: 00 00        	<unknown>
     7fe: 1a 08        	<unknown>
     800: 51 01        	<unknown>
     802: 59 1b        	<unknown>
     804: 00 00        	<unknown>
     806: 1a 08        	<unknown>
     808: 64 01        	<unknown>
     80a: 6c 1b        	<unknown>
     80c: 00 00        	<unknown>
     80e: 1a 08        	<unknown>
     810: 70 01        	<unknown>
     812: 89 1b        	<unknown>
     814: 00 00        	<unknown>
     816: 1a 08        	<unknown>
     818: 8c 01        	<unknown>
     81a: a1 1b        	<unknown>
     81c: 00 00        	<unknown>
     81e: 1a 08        	<unknown>
     820: 9f 01 b4 1b  	<unknown>
     824: 00 00        	<unknown>
     826: 1a 08        	<unknown>
     828: b2 01        	<unknown>
     82a: c7 1b 00 00  	fmsub.s	fs7, ft0, ft0, ft0, rtz
     82e: 1a 08        	<unknown>
     830: c5 01        	<unknown>
     832: da 1b        	<unknown>
     834: 00 00        	<unknown>
     836: 1a 08        	<unknown>
     838: d8 01        	<unknown>
     83a: ed 1b        	<unknown>
     83c: 00 00        	<unknown>
     83e: 1a 08        	<unknown>
     840: 59 07        	<unknown>
     842: 00 1c        	<unknown>
     844: 00 00        	<unknown>
     846: 1a 08        	<unknown>
     848: 5a 07        	<unknown>
     84a: 0b 1c 00 00  	<unknown>
     84e: 1a 08        	<unknown>
     850: 5d 07        	<unknown>
     852: 16 1c        	<unknown>
     854: 00 00        	<unknown>
     856: 1a 08        	<unknown>
     858: 5e 07        	<unknown>
     85a: 29 1c        	<unknown>
     85c: 00 00        	<unknown>
     85e: 1a 08        	<unknown>
     860: 5f 07 3c 1c  	<unknown>
     864: 00 00        	<unknown>
     866: 1a 08        	<unknown>
     868: 61 07        	<unknown>
     86a: 56 1c        	<unknown>
     86c: 00 00        	<unknown>
     86e: 1a 08        	<unknown>
     870: 62 07        	<unknown>
     872: 69 1c        	<unknown>
     874: 00 00        	<unknown>
     876: 1a 08        	<unknown>
     878: 63 07 7c 1c  	beq	s8, t2, 0xa46 <.debug_info+0xa46>
     87c: 00 00        	<unknown>
     87e: 1a 08        	<unknown>
     880: 65 07        	<unknown>
     882: 8f 1c 00 00  	<unknown>
     886: 1a 08        	<unknown>
     888: 66 07        	<unknown>
     88a: a2 1c        	<unknown>
     88c: 00 00        	<unknown>
     88e: 1a 08        	<unknown>
     890: 67 07 b5 1c  	jalr	a4, 0x1cb(a0)
     894: 00 00        	<unknown>
     896: 1a 08        	<unknown>
     898: 69 07        	<unknown>
     89a: c8 1c        	<unknown>
     89c: 00 00        	<unknown>
     89e: 1a 08        	<unknown>
     8a0: 6a 07        	<unknown>
     8a2: db 1c 00 00  	<unknown>
     8a6: 1a 08        	<unknown>
     8a8: 6b 07 ee 1c  	<unknown>
     8ac: 00 00        	<unknown>
     8ae: 1a 08        	<unknown>
     8b0: 6d 07        	<unknown>
     8b2: 01 1d        	<unknown>
     8b4: 00 00        	<unknown>
     8b6: 1a 08        	<unknown>
     8b8: 6e 07        	<unknown>
     8ba: 19 1d        	<unknown>
     8bc: 00 00        	<unknown>
     8be: 1a 08        	<unknown>
     8c0: 6f 07 31 1d  	jal	a4, 0x11292 <.debug_info+0x11292>
     8c4: 00 00        	<unknown>
     8c6: 1a 08        	<unknown>
     8c8: 71 07        	<unknown>
     8ca: 49 1d        	<unknown>
     8cc: 00 00        	<unknown>
     8ce: 1a 08        	<unknown>
     8d0: 72 07        	<unknown>
     8d2: 5c 1d        	<unknown>
     8d4: 00 00        	<unknown>
     8d6: 1a 08        	<unknown>
     8d8: 73 07 6f 1d  	<unknown>
     8dc: 00 00        	<unknown>
     8de: 1a 08        	<unknown>
     8e0: 75 07        	<unknown>
     8e2: 82 1d        	<unknown>
     8e4: 00 00        	<unknown>
     8e6: 1a 08        	<unknown>
     8e8: 76 07        	<unknown>
     8ea: 95 1d        	<unknown>
     8ec: 00 00        	<unknown>
     8ee: 1a 08        	<unknown>
     8f0: 77 07 a8 1d  	<unknown>
     8f4: 00 00        	<unknown>
     8f6: 1a 08        	<unknown>
     8f8: 79 07        	<unknown>
     8fa: bb 1d 00 00  	sllw	s11, zero, zero
     8fe: 1a 08        	<unknown>
     900: 7a 07        	<unknown>
     902: ce 1d        	<unknown>
     904: 00 00        	<unknown>
     906: 1a 08        	<unknown>
     908: 7b 07 e1 1d  	<unknown>
     90c: 00 00        	<unknown>
     90e: 1a 08        	<unknown>
     910: 7d 07        	<unknown>
     912: f4 1d        	<unknown>
     914: 00 00        	<unknown>
     916: 1a 08        	<unknown>
     918: 7e 07        	<unknown>
     91a: 07 1e 00 00  	<unknown>
     91e: 1a 08        	<unknown>
     920: 7f 07 1a 1e  	<unknown>
     924: 00 00        	<unknown>
     926: 1a 08        	<unknown>
     928: 81 07        	<unknown>
     92a: 2d 1e        	<unknown>
     92c: 00 00        	<unknown>
     92e: 1a 08        	<unknown>
     930: 82 07        	<unknown>
     932: 46 1e        	<unknown>
     934: 00 00        	<unknown>
     936: 1a 08        	<unknown>
     938: 83 07 5f 1e  	lb	a5, 0x1e5(t5)
     93c: 00 00        	<unknown>
     93e: 1a 08        	<unknown>
     940: 85 07        	<unknown>
     942: 78 1e        	<unknown>
     944: 00 00        	<unknown>
     946: 1a 08        	<unknown>
     948: 86 07        	<unknown>
     94a: 96 1e        	<unknown>
     94c: 00 00        	<unknown>
     94e: 1a 08        	<unknown>
     950: 87 07 b4 1e  	<unknown>
     954: 00 00        	<unknown>
     956: 1a 08        	<unknown>
     958: 89 07        	<unknown>
     95a: d2 1e        	<unknown>
     95c: 00 00        	<unknown>
     95e: 1a 08        	<unknown>
     960: 8a 07        	<unknown>
     962: eb 1e 00 00  	<unknown>
     966: 1a 08        	<unknown>
     968: 8b 07 04 1f  	<unknown>
     96c: 00 00        	<unknown>
     96e: 1a 08        	<unknown>
     970: 8d 07        	<unknown>
     972: 1d 1f        	<unknown>
     974: 00 00        	<unknown>
     976: 1a 08        	<unknown>
     978: 8e 07        	<unknown>
     97a: 36 1f        	<unknown>
     97c: 00 00        	<unknown>
     97e: 1a 08        	<unknown>
     980: 8f 07 4f 1f  	<unknown>
     984: 00 00        	<unknown>
     986: 1a 08        	<unknown>
     988: 91 07        	<unknown>
     98a: 68 1f        	<unknown>
     98c: 00 00        	<unknown>
     98e: 1a 08        	<unknown>
     990: 92 07        	<unknown>
     992: 80 1f        	<unknown>
     994: 00 00        	<unknown>
     996: 1a 08        	<unknown>
     998: 93 07 98 1f  	addi	a5, a6, 0x1f9
     99c: 00 00        	<unknown>
     99e: 1a 08        	<unknown>
     9a0: 95 07        	<unknown>
     9a2: b0 1f        	<unknown>
     9a4: 00 00        	<unknown>
     9a6: 1a 08        	<unknown>
     9a8: 96 07        	<unknown>
     9aa: c4 1f        	<unknown>
     9ac: 00 00        	<unknown>
     9ae: 1a 08        	<unknown>
     9b0: 97 07 d8 1f  	auipc	a5, 0x1fd80
     9b4: 00 00        	<unknown>
     9b6: 1a 08        	<unknown>
     9b8: 99 07        	<unknown>
     9ba: ec 1f        	<unknown>
     9bc: 00 00        	<unknown>
     9be: 1a 08        	<unknown>
     9c0: 9a 07        	<unknown>
     9c2: ff 1f 00 00  	<unknown>
     9c6: 1a 08        	<unknown>
     9c8: 9b 07 12 20  	addiw	a5, tp, 0x201
     9cc: 00 00        	<unknown>
     9ce: 1a 08        	<unknown>
     9d0: 9e 07        	<unknown>
     9d2: 25 20        	<unknown>
     9d4: 00 00        	<unknown>
     9d6: 1a 08        	<unknown>
     9d8: 9f 07 39 20  	<unknown>
     9dc: 00 00        	<unknown>
     9de: 1a 08        	<unknown>
     9e0: a0 07        	<unknown>
     9e2: 4d 20        	<unknown>
     9e4: 00 00        	<unknown>
     9e6: 1a 08        	<unknown>
     9e8: a2 07        	<unknown>
     9ea: 61 20        	<unknown>
     9ec: 00 00        	<unknown>
     9ee: 1a 08        	<unknown>
     9f0: a3 07 75 20  	sb	t2, 0x20f(a0)
     9f4: 00 00        	<unknown>
     9f6: 1a 08        	<unknown>
     9f8: a4 07        	<unknown>
     9fa: 89 20        	<unknown>
     9fc: 00 00        	<unknown>
     9fe: 1a 08        	<unknown>
     a00: a7 07 9d 20  	<unknown>
     a04: 00 00        	<unknown>
     a06: 1a 08        	<unknown>
     a08: a8 07        	<unknown>
     a0a: b0 20        	<unknown>
     a0c: 00 00        	<unknown>
     a0e: 1a 08        	<unknown>
     a10: a9 07        	<unknown>
     a12: c3 20 00 00  	fmadd.s	ft1, ft0, ft0, ft0, rdn
     a16: 1a 08        	<unknown>
     a18: ab 07 d6 20  	vx_tex	a5, a2, a3, tp
     a1c: 00 00        	<unknown>
     a1e: 1a 08        	<unknown>
     a20: ac 07        	<unknown>
     a22: e9 20        	<unknown>
     a24: 00 00        	<unknown>
     a26: 1a 08        	<unknown>
     a28: ad 07        	<unknown>
     a2a: fc 20        	<unknown>
     a2c: 00 00        	<unknown>
     a2e: 1a 08        	<unknown>
     a30: af 07 0f 21  	<unknown>
     a34: 00 00        	<unknown>
     a36: 1a 08        	<unknown>
     a38: b0 07        	<unknown>
     a3a: 22 21        	<unknown>
     a3c: 00 00        	<unknown>
     a3e: 1a 08        	<unknown>
     a40: b1 07        	<unknown>
     a42: 35 21        	<unknown>
     a44: 00 00        	<unknown>
     a46: 1a 08        	<unknown>
     a48: b3 07 48 21  	<unknown>
     a4c: 00 00        	<unknown>
     a4e: 1a 08        	<unknown>
     a50: b4 07        	<unknown>
     a52: 5c 21        	<unknown>
     a54: 00 00        	<unknown>
     a56: 1a 08        	<unknown>
     a58: b5 07        	<unknown>
     a5a: 70 21        	<unknown>
     a5c: 00 00        	<unknown>
     a5e: 1a 08        	<unknown>
     a60: b7 07 84 21  	lui	a5, 0x21840
     a64: 00 00        	<unknown>
     a66: 1a 08        	<unknown>
     a68: b8 07        	<unknown>
     a6a: 98 21        	<unknown>
     a6c: 00 00        	<unknown>
     a6e: 1a 08        	<unknown>
     a70: b9 07        	<unknown>
     a72: ac 21        	<unknown>
     a74: 00 00        	<unknown>
     a76: 1a 08        	<unknown>
     a78: bb 07 c0 21  	<unknown>
     a7c: 00 00        	<unknown>
     a7e: 1a 08        	<unknown>
     a80: bc 07        	<unknown>
     a82: d3 21 00 00  	fadd.s	ft3, ft0, ft0, rdn
     a86: 1a 08        	<unknown>
     a88: bd 07        	<unknown>
     a8a: e6 21        	<unknown>
     a8c: 00 00        	<unknown>
     a8e: 1a 08        	<unknown>
     a90: bf 07 f9 21  	<unknown>
     a94: 00 00        	<unknown>
     a96: 1a 08        	<unknown>
     a98: c0 07        	<unknown>
     a9a: 0d 22        	<unknown>
     a9c: 00 00        	<unknown>
     a9e: 1a 08        	<unknown>
     aa0: c1 07        	<unknown>
     aa2: 21 22        	<unknown>
     aa4: 00 00        	<unknown>
     aa6: 1a 08        	<unknown>
     aa8: c3 07 35 22  	fmadd.d	fa5, fa0, ft3, ft4, rne
     aac: 00 00        	<unknown>
     aae: 1a 08        	<unknown>
     ab0: c4 07        	<unknown>
     ab2: 4e 22        	<unknown>
     ab4: 00 00        	<unknown>
     ab6: 1a 08        	<unknown>
     ab8: c5 07        	<unknown>
     aba: 67 22 00 00  	<unknown>
     abe: 1a 08        	<unknown>
     ac0: c7 07 80 22  	fmsub.d	fa5, ft0, fs0, ft4, rne
     ac4: 00 00        	<unknown>
     ac6: 1a 08        	<unknown>
     ac8: c8 07        	<unknown>
     aca: 99 22        	<unknown>
     acc: 00 00        	<unknown>
     ace: 1a 08        	<unknown>
     ad0: c9 07        	<unknown>
     ad2: b2 22        	<unknown>
     ad4: 00 00        	<unknown>
     ad6: 1a 08        	<unknown>
     ad8: cb 07 cb 22  	fnmsub.d	fa5, fs6, fa2, ft4, rne
     adc: 00 00        	<unknown>
     ade: 1a 08        	<unknown>
     ae0: cc 07        	<unknown>
     ae2: e4 22        	<unknown>
     ae4: 00 00        	<unknown>
     ae6: 1a 08        	<unknown>
     ae8: cd 07        	<unknown>
     aea: fd 22        	<unknown>
     aec: 00 00        	<unknown>
     aee: 1a 08        	<unknown>
     af0: cf 07 16 23  	fnmadd.d	fa5, fa2, fa7, ft4, rne
     af4: 00 00        	<unknown>
     af6: 1a 08        	<unknown>
     af8: d0 07        	<unknown>
     afa: 34 23        	<unknown>
     afc: 00 00        	<unknown>
     afe: 1a 08        	<unknown>
     b00: d1 07        	<unknown>
     b02: 52 23        	<unknown>
     b04: 00 00        	<unknown>
     b06: 1a 08        	<unknown>
     b08: d3 07 70 23  	fsgnj.d	fa5, ft0, fs7
     b0c: 00 00        	<unknown>
     b0e: 1a 08        	<unknown>
     b10: d4 07        	<unknown>
     b12: 84 23        	<unknown>
     b14: 00 00        	<unknown>
     b16: 1a 08        	<unknown>
     b18: d5 07        	<unknown>
     b1a: 98 23        	<unknown>
     b1c: 00 00        	<unknown>
     b1e: 1a 08        	<unknown>
     b20: d7 07 ac 23  	<unknown>
     b24: 00 00        	<unknown>
     b26: 1a 08        	<unknown>
     b28: d8 07        	<unknown>
     b2a: c0 23        	<unknown>
     b2c: 00 00        	<unknown>
     b2e: 1a 08        	<unknown>
     b30: d9 07        	<unknown>
     b32: d4 23        	<unknown>
     b34: 00 00        	<unknown>
     b36: 1a 08        	<unknown>
     b38: db 07 e8 23  	<unknown>
     b3c: 00 00        	<unknown>
     b3e: 1a 08        	<unknown>
     b40: dc 07        	<unknown>
     b42: 01 24        	<unknown>
     b44: 00 00        	<unknown>
     b46: 1a 08        	<unknown>
     b48: dd 07        	<unknown>
     b4a: 1a 24        	<unknown>
     b4c: 00 00        	<unknown>
     b4e: 1a 08        	<unknown>
     b50: df 07 33 24  	<unknown>
     b54: 00 00        	<unknown>
     b56: 1a 08        	<unknown>
     b58: e0 07        	<unknown>
     b5a: 4c 24        	<unknown>
     b5c: 00 00        	<unknown>
     b5e: 1a 08        	<unknown>
     b60: e1 07        	<unknown>
     b62: 65 24        	<unknown>
     b64: 00 00        	<unknown>
     b66: 1a 08        	<unknown>
     b68: e3 07 7e 24  	beq	t3, t2, 0x15b6 <.debug_info+0x15b6>
     b6c: 00 00        	<unknown>
     b6e: 1a 08        	<unknown>
     b70: e4 07        	<unknown>
     b72: 91 24        	<unknown>
     b74: 00 00        	<unknown>
     b76: 1a 08        	<unknown>
     b78: e5 07        	<unknown>
     b7a: a4 24        	<unknown>
     b7c: 00 00        	<unknown>
     b7e: 1a 08        	<unknown>
     b80: e7 07 b7 24  	jalr	a5, 0x24b(a4)
     b84: 00 00        	<unknown>
     b86: 1a 08        	<unknown>
     b88: e8 07        	<unknown>
     b8a: cb 24 00 00  	fnmsub.s	fs1, ft0, ft0, ft0, rdn
     b8e: 1a 08        	<unknown>
     b90: e9 07        	<unknown>
     b92: df 24 00 00  	<unknown>
     b96: 0c 0a        	<unknown>
     b98: 83 f3 24 00  	<unknown>
     b9c: 00 0c        	<unknown>
     b9e: 0a 84        	<unknown>
     ba0: 00 25        	<unknown>
     ba2: 00 00        	<unknown>
     ba4: 0c 0a        	<unknown>
     ba6: 86 2d        	<unknown>
     ba8: 25 00        	<unknown>
     baa: 00 0c        	<unknown>
     bac: 0a 8a        	<unknown>
     bae: 38 25        	<unknown>
     bb0: 00 00        	<unknown>
     bb2: 0c 0a        	<unknown>
     bb4: 8d 52        	<unknown>
     bb6: 25 00        	<unknown>
     bb8: 00 0c        	<unknown>
     bba: 0a 90        	<unknown>
     bbc: 66 25        	<unknown>
     bbe: 00 00        	<unknown>
     bc0: 0c 0a        	<unknown>
     bc2: 91 79        	<unknown>
     bc4: 25 00        	<unknown>
     bc6: 00 0c        	<unknown>
     bc8: 0a 92        	<unknown>
     bca: 8c 25        	<unknown>
     bcc: 00 00        	<unknown>
     bce: 0c 0a        	<unknown>
     bd0: 93 9f 25 00  	slli	t6, a1, 0x2
     bd4: 00 0c        	<unknown>
     bd6: 0a 94        	<unknown>
     bd8: 01 26        	<unknown>
     bda: 00 00        	<unknown>
     bdc: 0c 0a        	<unknown>
     bde: 95 1a        	<unknown>
     be0: 26 00        	<unknown>
     be2: 00 0c        	<unknown>
     be4: 0a 96        	<unknown>
     be6: 33 26 00 00  	sltz	a2, zero
     bea: 0c 0a        	<unknown>
     bec: 97 44 26 00  	auipc	s1, 0x264
     bf0: 00 0c        	<unknown>
     bf2: 0a 98        	<unknown>
     bf4: 54 26        	<unknown>
     bf6: 00 00        	<unknown>
     bf8: 0c 0a        	<unknown>
     bfa: 99 6d        	<unknown>
     bfc: 26 00        	<unknown>
     bfe: 00 0c        	<unknown>
     c00: 0a 9a        	<unknown>
     c02: 81 26        	<unknown>
     c04: 00 00        	<unknown>
     c06: 0c 0a        	<unknown>
     c08: 9b 9a 26 00  	slliw	s5, a3, 0x2
     c0c: 00 0c        	<unknown>
     c0e: 0a 9d        	<unknown>
     c10: ae 26        	<unknown>
     c12: 00 00        	<unknown>
     c14: 0c 0a        	<unknown>
     c16: 9e c7        	<unknown>
     c18: 26 00        	<unknown>
     c1a: 00 0c        	<unknown>
     c1c: 0a 9f        	<unknown>
     c1e: f1 26        	<unknown>
     c20: 00 00        	<unknown>
     c22: 0c 0a        	<unknown>
     c24: a1 0f        	<unknown>
     c26: 27 00 00 0c  	<unknown>
     c2a: 0a a4        	<unknown>
     c2c: 2e 27        	<unknown>
     c2e: 00 00        	<unknown>
     c30: 0c 0a        	<unknown>
     c32: a7 3f 27 00  	fsd	ft2, 0x1f(a4)
     c36: 00 0c        	<unknown>
     c38: 0a a8        	<unknown>
     c3a: 4d 27        	<unknown>
     c3c: 00 00        	<unknown>
     c3e: 0c 0a        	<unknown>
     c40: a9 66        	<unknown>
     c42: 27 00 00 0c  	<unknown>
     c46: 0a aa        	<unknown>
     c48: 76 27        	<unknown>
     c4a: 00 00        	<unknown>
     c4c: 0c 0a        	<unknown>
     c4e: ab 93 27 00  	<unknown>
     c52: 00 0c        	<unknown>
     c54: 0a ac        	<unknown>
     c56: b0 27        	<unknown>
     c58: 00 00        	<unknown>
     c5a: 0c 0a        	<unknown>
     c5c: ad cd        	<unknown>
     c5e: 27 00 00 0c  	<unknown>
     c62: 0a af        	<unknown>
     c64: e1 27        	<unknown>
     c66: 00 00        	<unknown>
     c68: 0c 0a        	<unknown>
     c6a: b0 09        	<unknown>
     c6c: 28 00        	<unknown>
     c6e: 00 0c        	<unknown>
     c70: 0a f4        	<unknown>
     c72: bd 28        	<unknown>
     c74: 00 00        	<unknown>
     c76: 0c 0a        	<unknown>
     c78: f6 ea        	<unknown>
     c7a: 28 00        	<unknown>
     c7c: 00 0c        	<unknown>
     c7e: 0a f8        	<unknown>
     c80: fb 28 00 00  	<unknown>
     c84: 0c 0a        	<unknown>
     c86: f9 66        	<unknown>
     c88: 28 00        	<unknown>
     c8a: 00 0c        	<unknown>
     c8c: 0a fa        	<unknown>
     c8e: 0f 29 00 00  	<unknown>
     c92: 0c 0a        	<unknown>
     c94: fc 28        	<unknown>
     c96: 29 00        	<unknown>
     c98: 00 0c        	<unknown>
     c9a: 0a fd        	<unknown>
     c9c: 75 29        	<unknown>
     c9e: 00 00        	<unknown>
     ca0: 0c 0a        	<unknown>
     ca2: fe 3b        	<unknown>
     ca4: 29 00        	<unknown>
     ca6: 00 0c        	<unknown>
     ca8: 0a ff        	<unknown>
     caa: 58 29        	<unknown>
     cac: 00 00        	<unknown>
     cae: 1a 0a        	<unknown>
     cb0: 00 01        	<unknown>
     cb2: 8d 29        	<unknown>
     cb4: 00 00        	<unknown>
     cb6: 0b b9 0e 00  	<unknown>
     cba: 00 55        	<unknown>
     cbc: 08 00        	<unknown>
     cbe: 00 06        	<unknown>
     cc0: 4f 4f 1c 00  	fnmadd.s	ft10, fs8, ft1, ft0, rmm
     cc4: 00 01        	<unknown>
     cc6: 01 09        	<unknown>
     cc8: 4f 1c 00 00  	fnmadd.s	fs8, ft0, ft0, ft0, rtz
     ccc: 00 1a        	<unknown>
     cce: 0e bb        	<unknown>
     cd0: 01 8c        	<unknown>
     cd2: 2a 00        	<unknown>
     cd4: 00 1a        	<unknown>
     cd6: 0e bc        	<unknown>
     cd8: 01 a2        	<unknown>
     cda: 2a 00        	<unknown>
     cdc: 00 1a        	<unknown>
     cde: 0e bd        	<unknown>
     ce0: 01 b8        	<unknown>
     ce2: 2a 00        	<unknown>
     ce4: 00 1a        	<unknown>
     ce6: 0e be        	<unknown>
     ce8: 01 ce        	<unknown>
     cea: 2a 00        	<unknown>
     cec: 00 1a        	<unknown>
     cee: 0e bf        	<unknown>
     cf0: 01 e4        	<unknown>
     cf2: 2a 00        	<unknown>
     cf4: 00 1a        	<unknown>
     cf6: 0e c0        	<unknown>
     cf8: 01 ff        	<unknown>
     cfa: 2a 00        	<unknown>
     cfc: 00 1a        	<unknown>
     cfe: 0e c1        	<unknown>
     d00: 01 15        	<unknown>
     d02: 2b 00 00 1a  	<unknown>
     d06: 0e c2        	<unknown>
     d08: 01 2b        	<unknown>
     d0a: 2b 00 00 1a  	<unknown>
     d0e: 0e c3        	<unknown>
     d10: 01 41        	<unknown>
     d12: 2b 00 00 1a  	<unknown>
     d16: 0e c4        	<unknown>
     d18: 01 57        	<unknown>
     d1a: 2b 00 00 1a  	<unknown>
     d1e: 0e c5        	<unknown>
     d20: 01 72        	<unknown>
     d22: 2b 00 00 1a  	<unknown>
     d26: 0e c6        	<unknown>
     d28: 01 88        	<unknown>
     d2a: 2b 00 00 1a  	<unknown>
     d2e: 0e c7        	<unknown>
     d30: 01 9e        	<unknown>
     d32: 2b 00 00 1a  	<unknown>
     d36: 0e c8        	<unknown>
     d38: 01 b4        	<unknown>
     d3a: 2b 00 00 1a  	<unknown>
     d3e: 0e c9        	<unknown>
     d40: 01 ca        	<unknown>
     d42: 2b 00 00 1a  	<unknown>
     d46: 0e ca        	<unknown>
     d48: 01 e0        	<unknown>
     d4a: 2b 00 00 1a  	<unknown>
     d4e: 0e cb        	<unknown>
     d50: 01 f6        	<unknown>
     d52: 2b 00 00 1a  	<unknown>
     d56: 0e cc        	<unknown>
     d58: 01 0c        	<unknown>
     d5a: 2c 00        	<unknown>
     d5c: 00 1a        	<unknown>
     d5e: 0e cd        	<unknown>
     d60: 01 22        	<unknown>
     d62: 2c 00        	<unknown>
     d64: 00 1a        	<unknown>
     d66: 0e ce        	<unknown>
     d68: 01 3d        	<unknown>
     d6a: 2c 00        	<unknown>
     d6c: 00 1a        	<unknown>
     d6e: 0e cf        	<unknown>
     d70: 01 53        	<unknown>
     d72: 2c 00        	<unknown>
     d74: 00 1a        	<unknown>
     d76: 0e d0        	<unknown>
     d78: 01 73        	<unknown>
     d7a: 2c 00        	<unknown>
     d7c: 00 1a        	<unknown>
     d7e: 0e d1        	<unknown>
     d80: 01 8e        	<unknown>
     d82: 2c 00        	<unknown>
     d84: 00 1a        	<unknown>
     d86: 0e d2        	<unknown>
     d88: 01 a9        	<unknown>
     d8a: 2c 00        	<unknown>
     d8c: 00 1a        	<unknown>
     d8e: 0e d3        	<unknown>
     d90: 01 c4        	<unknown>
     d92: 2c 00        	<unknown>
     d94: 00 1a        	<unknown>
     d96: 0e d4        	<unknown>
     d98: 01 df        	<unknown>
     d9a: 2c 00        	<unknown>
     d9c: 00 1a        	<unknown>
     d9e: 0e d5        	<unknown>
     da0: 01 fa        	<unknown>
     da2: 2c 00        	<unknown>
     da4: 00 1a        	<unknown>
     da6: 0e d6        	<unknown>
     da8: 01 10        	<unknown>
     daa: 2d 00        	<unknown>
     dac: 00 1a        	<unknown>
     dae: 0e d7        	<unknown>
     db0: 01 2b        	<unknown>
     db2: 2d 00        	<unknown>
     db4: 00 1a        	<unknown>
     db6: 0e d8        	<unknown>
     db8: 01 41        	<unknown>
     dba: 2d 00        	<unknown>
     dbc: 00 1a        	<unknown>
     dbe: 0e d9        	<unknown>
     dc0: 01 57        	<unknown>
     dc2: 2d 00        	<unknown>
     dc4: 00 1a        	<unknown>
     dc6: 0e da        	<unknown>
     dc8: 01 6d        	<unknown>
     dca: 2d 00        	<unknown>
     dcc: 00 1a        	<unknown>
     dce: 0e db        	<unknown>
     dd0: 01 83        	<unknown>
     dd2: 2d 00        	<unknown>
     dd4: 00 1a        	<unknown>
     dd6: 0e dc        	<unknown>
     dd8: 01 99        	<unknown>
     dda: 2d 00        	<unknown>
     ddc: 00 1a        	<unknown>
     dde: 0e dd        	<unknown>
     de0: 01 af        	<unknown>
     de2: 2d 00        	<unknown>
     de4: 00 1a        	<unknown>
     de6: 0e de        	<unknown>
     de8: 01 c5        	<unknown>
     dea: 2d 00        	<unknown>
     dec: 00 1a        	<unknown>
     dee: 0e df        	<unknown>
     df0: 01 db        	<unknown>
     df2: 2d 00        	<unknown>
     df4: 00 1a        	<unknown>
     df6: 0e e0        	<unknown>
     df8: 01 f1        	<unknown>
     dfa: 2d 00        	<unknown>
     dfc: 00 1a        	<unknown>
     dfe: 0e e1        	<unknown>
     e00: 01 07        	<unknown>
     e02: 2e 00        	<unknown>
     e04: 00 1a        	<unknown>
     e06: 0e e2        	<unknown>
     e08: 01 22        	<unknown>
     e0a: 2e 00        	<unknown>
     e0c: 00 1a        	<unknown>
     e0e: 0e e3        	<unknown>
     e10: 01 38        	<unknown>
     e12: 2e 00        	<unknown>
     e14: 00 1a        	<unknown>
     e16: 0e e4        	<unknown>
     e18: 01 53        	<unknown>
     e1a: 2e 00        	<unknown>
     e1c: 00 1a        	<unknown>
     e1e: 0e e5        	<unknown>
     e20: 01 6e        	<unknown>
     e22: 2e 00        	<unknown>
     e24: 00 1a        	<unknown>
     e26: 0e e6        	<unknown>
     e28: 01 89        	<unknown>
     e2a: 2e 00        	<unknown>
     e2c: 00 1a        	<unknown>
     e2e: 0e e7        	<unknown>
     e30: 01 a9        	<unknown>
     e32: 2e 00        	<unknown>
     e34: 00 1a        	<unknown>
     e36: 0e e8        	<unknown>
     e38: 01 c0        	<unknown>
     e3a: 2e 00        	<unknown>
     e3c: 00 1a        	<unknown>
     e3e: 0e e9        	<unknown>
     e40: 01 d6        	<unknown>
     e42: 2e 00        	<unknown>
     e44: 00 1a        	<unknown>
     e46: 0e ea        	<unknown>
     e48: 01 f2        	<unknown>
     e4a: 2e 00        	<unknown>
     e4c: 00 1a        	<unknown>
     e4e: 0e eb        	<unknown>
     e50: 01 0e        	<unknown>
     e52: 2f 00 00 1a  	<unknown>
     e56: 0e ec        	<unknown>
     e58: 01 25        	<unknown>
     e5a: 2f 00 00 1a  	<unknown>
     e5e: 0e ed        	<unknown>
     e60: 01 3c        	<unknown>
     e62: 2f 00 00 1a  	<unknown>
     e66: 0e ee        	<unknown>
     e68: 01 53        	<unknown>
     e6a: 2f 00 00 1a  	<unknown>
     e6e: 0e ef        	<unknown>
     e70: 01 6a        	<unknown>
     e72: 2f 00 00 1a  	<unknown>
     e76: 0e f0        	<unknown>
     e78: 01 81        	<unknown>
     e7a: 2f 00 00 1a  	<unknown>
     e7e: 0e f1        	<unknown>
     e80: 01 98        	<unknown>
     e82: 2f 00 00 0c  	<unknown>
     e86: 11 40        	<unknown>
     e88: af 2f 00 00  	amoadd.w	t6, zero, (zero)
     e8c: 0c 11        	<unknown>
     e8e: 8d 1c        	<unknown>
     e90: 30 00        	<unknown>
     e92: 00 0c        	<unknown>
     e94: 11 8f        	<unknown>
     e96: 27 30 00 00  	fsd	ft0, 0x0(zero)
     e9a: 0c 11        	<unknown>
     e9c: 90 3b        	<unknown>
     e9e: 30 00        	<unknown>
     ea0: 00 0c        	<unknown>
     ea2: 11 91        	<unknown>
     ea4: 65 30        	<unknown>
     ea6: 00 00        	<unknown>
     ea8: 0c 11        	<unknown>
     eaa: 92 83        	<unknown>
     eac: 30 00        	<unknown>
     eae: 00 0c        	<unknown>
     eb0: 11 93        	<unknown>
     eb2: 9c 30        	<unknown>
     eb4: 00 00        	<unknown>
     eb6: 0c 11        	<unknown>
     eb8: 94 b5        	<unknown>
     eba: 30 00        	<unknown>
     ebc: 00 0c        	<unknown>
     ebe: 11 95        	<unknown>
     ec0: ce 30        	<unknown>
     ec2: 00 00        	<unknown>
     ec4: 0c 11        	<unknown>
     ec6: 96 e8        	<unknown>
     ec8: 30 00        	<unknown>
     eca: 00 0c        	<unknown>
     ecc: 11 97        	<unknown>
     ece: 06 31        	<unknown>
     ed0: 00 00        	<unknown>
     ed2: 0c 11        	<unknown>
     ed4: 98 1a        	<unknown>
     ed6: 31 00        	<unknown>
     ed8: 00 0c        	<unknown>
     eda: 11 99        	<unknown>
     edc: 28 31        	<unknown>
     ede: 00 00        	<unknown>
     ee0: 0c 11        	<unknown>
     ee2: 9a 4b        	<unknown>
     ee4: 31 00        	<unknown>
     ee6: 00 0c        	<unknown>
     ee8: 11 9b        	<unknown>
     eea: 6e 31        	<unknown>
     eec: 00 00        	<unknown>
     eee: 0c 11        	<unknown>
     ef0: 9c 8c        	<unknown>
     ef2: 31 00        	<unknown>
     ef4: 00 0c        	<unknown>
     ef6: 11 9d        	<unknown>
     ef8: b4 31        	<unknown>
     efa: 00 00        	<unknown>
     efc: 0c 11        	<unknown>
     efe: 9e cd        	<unknown>
     f00: 31 00        	<unknown>
     f02: 00 0c        	<unknown>
     f04: 11 a0        	<unknown>
     f06: e1 31        	<unknown>
     f08: 00 00        	<unknown>
     f0a: 0c 11        	<unknown>
     f0c: a2 00        	<unknown>
     f0e: 32 00        	<unknown>
     f10: 00 0c        	<unknown>
     f12: 11 a3        	<unknown>
     f14: 1e 32        	<unknown>
     f16: 00 00        	<unknown>
     f18: 0c 11        	<unknown>
     f1a: a4 37        	<unknown>
     f1c: 32 00        	<unknown>
     f1e: 00 0c        	<unknown>
     f20: 11 a6        	<unknown>
     f22: 69 32        	<unknown>
     f24: 00 00        	<unknown>
     f26: 0c 11        	<unknown>
     f28: a9 8b        	<unknown>
     f2a: 32 00        	<unknown>
     f2c: 00 0c        	<unknown>
     f2e: 11 ac        	<unknown>
     f30: ae 32        	<unknown>
     f32: 00 00        	<unknown>
     f34: 0c 11        	<unknown>
     f36: ae d0        	<unknown>
     f38: 32 00        	<unknown>
     f3a: 00 0c        	<unknown>
     f3c: 11 b0        	<unknown>
     f3e: e9 32        	<unknown>
     f40: 00 00        	<unknown>
     f42: 0c 11        	<unknown>
     f44: b2 06        	<unknown>
     f46: 33 00 00 0c  	<unknown>
     f4a: 11 b3        	<unknown>
     f4c: 24 33        	<unknown>
     f4e: 00 00        	<unknown>
     f50: 0c 11        	<unknown>
     f52: b4 3c        	<unknown>
     f54: 33 00 00 0c  	<unknown>
     f58: 11 b5        	<unknown>
     f5a: 54 33        	<unknown>
     f5c: 00 00        	<unknown>
     f5e: 0c 11        	<unknown>
     f60: b6 6c        	<unknown>
     f62: 33 00 00 0c  	<unknown>
     f66: 11 b7        	<unknown>
     f68: 84 33        	<unknown>
     f6a: 00 00        	<unknown>
     f6c: 0c 11        	<unknown>
     f6e: b8 9c        	<unknown>
     f70: 33 00 00 0c  	<unknown>
     f74: 11 b9        	<unknown>
     f76: cf 33 00 00  	fnmadd.s	ft7, ft0, ft0, ft0, rup
     f7a: 0c 11        	<unknown>
     f7c: ba e2        	<unknown>
     f7e: 33 00 00 0c  	<unknown>
     f82: 11 bb        	<unknown>
     f84: ff 33 00 00  	<unknown>
     f88: 0c 11        	<unknown>
     f8a: bc 1c        	<unknown>
     f8c: 34 00        	<unknown>
     f8e: 00 0c        	<unknown>
     f90: 11 bd        	<unknown>
     f92: 39 34        	<unknown>
     f94: 00 00        	<unknown>
     f96: 0c 11        	<unknown>
     f98: be 61        	<unknown>
     f9a: 34 00        	<unknown>
     f9c: 00 0c        	<unknown>
     f9e: 11 bf        	<unknown>
     fa0: 79 34        	<unknown>
     fa2: 00 00        	<unknown>
     fa4: 0c 11        	<unknown>
     fa6: c1 97        	<unknown>
     fa8: 34 00        	<unknown>
     faa: 00 0c        	<unknown>
     fac: 11 c3        	<unknown>
     fae: b0 34        	<unknown>
     fb0: 00 00        	<unknown>
     fb2: 0c 11        	<unknown>
     fb4: c4 cd        	<unknown>
     fb6: 34 00        	<unknown>
     fb8: 00 0c        	<unknown>
     fba: 11 c5        	<unknown>
     fbc: eb 34 00 00  	<unknown>
     fc0: 0c 11        	<unknown>
     fc2: c6 09        	<unknown>
     fc4: 35 00        	<unknown>
     fc6: 00 0c        	<unknown>
     fc8: 11 c7        	<unknown>
     fca: 26 35        	<unknown>
     fcc: 00 00        	<unknown>
     fce: 0c 11        	<unknown>
     fd0: c8 3a        	<unknown>
     fd2: 35 00        	<unknown>
     fd4: 00 0c        	<unknown>
     fd6: 11 c9        	<unknown>
     fd8: 58 35        	<unknown>
     fda: 00 00        	<unknown>
     fdc: 0c 11        	<unknown>
     fde: ca 76        	<unknown>
     fe0: 35 00        	<unknown>
     fe2: 00 0c        	<unknown>
     fe4: 11 cb        	<unknown>
     fe6: 94 35        	<unknown>
     fe8: 00 00        	<unknown>
     fea: 0c 11        	<unknown>
     fec: cc b2        	<unknown>
     fee: 35 00        	<unknown>
     ff0: 00 0c        	<unknown>
     ff2: 11 cd        	<unknown>
     ff4: c7 35 00 00  	fmsub.s	fa1, ft0, ft0, ft0, rup
     ff8: 0c 11        	<unknown>
     ffa: ce e0        	<unknown>
     ffc: 35 00        	<unknown>
     ffe: 00 0c        	<unknown>
    1000: 11 cf        	<unknown>
    1002: f8 35        	<unknown>
    1004: 00 00        	<unknown>
    1006: 0c 11        	<unknown>
    1008: d0 10        	<unknown>
    100a: 36 00        	<unknown>
    100c: 00 0c        	<unknown>
    100e: 11 d1        	<unknown>
    1010: 28 36        	<unknown>
    1012: 00 00        	<unknown>
    1014: 0c 11        	<unknown>
    1016: d2 40        	<unknown>
    1018: 36 00        	<unknown>
    101a: 00 1a        	<unknown>
    101c: 11 0b        	<unknown>
    101e: 01 5d        	<unknown>
    1020: 36 00        	<unknown>
    1022: 00 1a        	<unknown>
    1024: 11 0c        	<unknown>
    1026: 01 76        	<unknown>
    1028: 36 00        	<unknown>
    102a: 00 1a        	<unknown>
    102c: 11 0d        	<unknown>
    102e: 01 94        	<unknown>
    1030: 36 00        	<unknown>
    1032: 00 1a        	<unknown>
    1034: 11 1b        	<unknown>
    1036: 01 97        	<unknown>
    1038: 34 00        	<unknown>
    103a: 00 1a        	<unknown>
    103c: 11 1e        	<unknown>
    103e: 01 69        	<unknown>
    1040: 32 00        	<unknown>
    1042: 00 1a        	<unknown>
    1044: 11 21        	<unknown>
    1046: 01 ae        	<unknown>
    1048: 32 00        	<unknown>
    104a: 00 1a        	<unknown>
    104c: 11 24        	<unknown>
    104e: 01 e9        	<unknown>
    1050: 32 00        	<unknown>
    1052: 00 1a        	<unknown>
    1054: 11 28        	<unknown>
    1056: 01 5d        	<unknown>
    1058: 36 00        	<unknown>
    105a: 00 1a        	<unknown>
    105c: 11 29        	<unknown>
    105e: 01 76        	<unknown>
    1060: 36 00        	<unknown>
    1062: 00 1a        	<unknown>
    1064: 11 2a        	<unknown>
    1066: 01 94        	<unknown>
    1068: 36 00        	<unknown>
    106a: 00 02        	<unknown>
    106c: 4f 14 00 00  	fnmadd.s	fs0, ft0, ft0, ft0, rtz
    1070: 1b 51 14 00  	srliw	sp, s0, 0x1
    1074: 00 01        	<unknown>
    1076: 0c 16        	<unknown>
    1078: 55 9d        	<unknown>
    107a: 10 00        	<unknown>
    107c: 00 1c        	<unknown>
    107e: ad 14        	<unknown>
    1080: 00 00        	<unknown>
    1082: e1 14        	<unknown>
    1084: 00 00        	<unknown>
    1086: 16 e6        	<unknown>
    1088: 01 01        	<unknown>
    108a: 09 b2        	<unknown>
    108c: 36 00        	<unknown>
    108e: 00 09        	<unknown>
    1090: b2 36        	<unknown>
    1092: 00 00        	<unknown>
    1094: 00 00        	<unknown>
    1096: 0c 16        	<unknown>
    1098: 42 70        	<unknown>
    109a: 10 00        	<unknown>
    109c: 00 1d        	<unknown>
    109e: 5f 14 00 00  	<unknown>
    10a2: 9b 14 00 00  	slliw	s1, zero, 0x0
    10a6: 16 51        	<unknown>
    10a8: 01 01        	<unknown>
    10aa: 01 09        	<unknown>
    10ac: 70 10        	<unknown>
    10ae: 00 00        	<unknown>
    10b0: 00 0c        	<unknown>
    10b2: 16 f3        	<unknown>
    10b4: 7d 10        	<unknown>
    10b6: 00 00        	<unknown>
    10b8: 0c 17        	<unknown>
    10ba: 35 b7        	<unknown>
    10bc: 36 00        	<unknown>
    10be: 00 0c        	<unknown>
    10c0: 17 36 bd 36  	auipc	a2, 0x36bd3
    10c4: 00 00        	<unknown>
    10c6: 0c 17        	<unknown>
    10c8: 37 d5 36 00  	lui	a0, 0x36d
    10cc: 00 0c        	<unknown>
    10ce: 1a 40        	<unknown>
    10d0: e7 36 00 00  	<unknown>
    10d4: 0c 1a        	<unknown>
    10d6: 41 fa        	<unknown>
    10d8: 36 00        	<unknown>
    10da: 00 0c        	<unknown>
    10dc: 1a 42        	<unknown>
    10de: 0d 37        	<unknown>
    10e0: 00 00        	<unknown>
    10e2: 0c 1a        	<unknown>
    10e4: 43 20 37 00  	fmadd.s	ft0, fa4, ft3, ft0, rdn
    10e8: 00 0c        	<unknown>
    10ea: 1a 44        	<unknown>
    10ec: 33 37 00 00  	snez	a4, zero
    10f0: 0c 1a        	<unknown>
    10f2: 45 46        	<unknown>
    10f4: 37 00 00 0c  	lui	zero, 0xc000
    10f8: 1a 46        	<unknown>
    10fa: 59 37        	<unknown>
    10fc: 00 00        	<unknown>
    10fe: 0c 1a        	<unknown>
    1100: 47 6c 37 00  	<unknown>
    1104: 00 0c        	<unknown>
    1106: 1a 48        	<unknown>
    1108: 7f 37 00 00  	<unknown>
    110c: 0c 1a        	<unknown>
    110e: 49 92        	<unknown>
    1110: 37 00 00 0c  	lui	zero, 0xc000
    1114: 1a 4a        	<unknown>
    1116: a5 37        	<unknown>
    1118: 00 00        	<unknown>
    111a: 0c 1a        	<unknown>
    111c: 4b b8 37 00  	fnmsub.s	fa6, fa5, ft3, ft0, rup
    1120: 00 0c        	<unknown>
    1122: 1a 4c        	<unknown>
    1124: cb 37 00 00  	fnmsub.s	fa5, ft0, ft0, ft0, rup
    1128: 0c 1a        	<unknown>
    112a: 57 de 37 00  	<unknown>
    112e: 00 1e        	<unknown>
    1130: 7e 15        	<unknown>
    1132: 00 00        	<unknown>
    1134: 0c 1d        	<unknown>
    1136: 62 fe        	<unknown>
    1138: 37 00 00 0c  	lui	zero, 0xc000
    113c: 1d 63        	<unknown>
    113e: 09 38        	<unknown>
    1140: 00 00        	<unknown>
    1142: 0c 1d        	<unknown>
    1144: 65 25        	<unknown>
    1146: 38 00        	<unknown>
    1148: 00 0c        	<unknown>
    114a: 1d 66        	<unknown>
    114c: 3a 38        	<unknown>
    114e: 00 00        	<unknown>
    1150: 0c 1d        	<unknown>
    1152: 67 4d 38 00  	<unknown>
    1156: 00 0c        	<unknown>
    1158: 1d 68        	<unknown>
    115a: 61 38        	<unknown>
    115c: 00 00        	<unknown>
    115e: 0c 1d        	<unknown>
    1160: 69 75        	<unknown>
    1162: 38 00        	<unknown>
    1164: 00 0c        	<unknown>
    1166: 1d 6a        	<unknown>
    1168: 88 38        	<unknown>
    116a: 00 00        	<unknown>
    116c: 0c 1d        	<unknown>
    116e: 6b 9c 38 00  	<unknown>
    1172: 00 0c        	<unknown>
    1174: 1d 6c        	<unknown>
    1176: ba 38        	<unknown>
    1178: 00 00        	<unknown>
    117a: 0c 1d        	<unknown>
    117c: 6d d8        	<unknown>
    117e: 38 00        	<unknown>
    1180: 00 0c        	<unknown>
    1182: 1d 6e        	<unknown>
    1184: f0 38        	<unknown>
    1186: 00 00        	<unknown>
    1188: 0c 1d        	<unknown>
    118a: 6f 0a 39 00  	jal	s4, 0x9198c <.debug_info+0x9198c>
    118e: 00 0c        	<unknown>
    1190: 1d 70        	<unknown>
    1192: 23 39 00 00  	sd	zero, 0x12(zero)
    1196: 0c 1d        	<unknown>
    1198: 71 3c        	<unknown>
    119a: 39 00        	<unknown>
    119c: 00 0c        	<unknown>
    119e: 1d 72        	<unknown>
    11a0: 5f 39 00 00  	<unknown>
    11a4: 0c 1d        	<unknown>
    11a6: 73 7c 39 00  	csrrci	s8, fcsr, 0x12
    11aa: 00 0c        	<unknown>
    11ac: 1d 74        	<unknown>
    11ae: 9a 39        	<unknown>
    11b0: 00 00        	<unknown>
    11b2: 0c 1d        	<unknown>
    11b4: 75 b8        	<unknown>
    11b6: 39 00        	<unknown>
    11b8: 00 0c        	<unknown>
    11ba: 1d 76        	<unknown>
    11bc: db 39 00 00  	<unknown>
    11c0: 0c 1d        	<unknown>
    11c2: 77 ef 39 00  	<unknown>
    11c6: 00 0c        	<unknown>
    11c8: 1d 78        	<unknown>
    11ca: 12 3a        	<unknown>
    11cc: 00 00        	<unknown>
    11ce: 0c 1d        	<unknown>
    11d0: 79 26        	<unknown>
    11d2: 3a 00        	<unknown>
    11d4: 00 0c        	<unknown>
    11d6: 1d 7c        	<unknown>
    11d8: 34 3a        	<unknown>
    11da: 00 00        	<unknown>
    11dc: 0c 1d        	<unknown>
    11de: 7e 48        	<unknown>
    11e0: 3a 00        	<unknown>
    11e2: 00 0c        	<unknown>
    11e4: 1d 7f        	<unknown>
    11e6: 58 3a        	<unknown>
    11e8: 00 00        	<unknown>
    11ea: 0c 1d        	<unknown>
    11ec: 80 6d        	<unknown>
    11ee: 3a 00        	<unknown>
    11f0: 00 0c        	<unknown>
    11f2: 1d 81        	<unknown>
    11f4: 86 3a        	<unknown>
    11f6: 00 00        	<unknown>
    11f8: 0c 1d        	<unknown>
    11fa: 82 9a        	<unknown>
    11fc: 3a 00        	<unknown>
    11fe: 00 0c        	<unknown>
    1200: 1d 83        	<unknown>
    1202: ae 3a        	<unknown>
    1204: 00 00        	<unknown>
    1206: 0c 1d        	<unknown>
    1208: 84 c1        	<unknown>
    120a: 3a 00        	<unknown>
    120c: 00 0c        	<unknown>
    120e: 1d 85        	<unknown>
    1210: d9 3a        	<unknown>
    1212: 00 00        	<unknown>
    1214: 0c 1d        	<unknown>
    1216: 86 e9        	<unknown>
    1218: 3a 00        	<unknown>
    121a: 00 0c        	<unknown>
    121c: 1d 87        	<unknown>
    121e: 02 3b        	<unknown>
    1220: 00 00        	<unknown>
    1222: 0c 1d        	<unknown>
    1224: 88 17        	<unknown>
    1226: 3b 00 00 0c  	<unknown>
    122a: 1d 89        	<unknown>
    122c: 3a 3b        	<unknown>
    122e: 00 00        	<unknown>
    1230: 0c 1d        	<unknown>
    1232: 8a 54        	<unknown>
    1234: 3b 00 00 0c  	<unknown>
    1238: 1d 8b        	<unknown>
    123a: 72 3b        	<unknown>
    123c: 00 00        	<unknown>
    123e: 0c 1d        	<unknown>
    1240: 8d 7f        	<unknown>
    1242: 3b 00 00 0c  	<unknown>
    1246: 1d 8f        	<unknown>
    1248: 92 3b        	<unknown>
    124a: 00 00        	<unknown>
    124c: 0c 1d        	<unknown>
    124e: 90 ab        	<unknown>
    1250: 3b 00 00 0c  	<unknown>
    1254: 1d 91        	<unknown>
    1256: c9 3b        	<unknown>
    1258: 00 00        	<unknown>
    125a: 0c 1d        	<unknown>
    125c: 92 e2        	<unknown>
    125e: 3b 00 00 0c  	<unknown>
    1262: 1d b9        	<unknown>
    1264: 00 3c        	<unknown>
    1266: 00 00        	<unknown>
    1268: 0c 1d        	<unknown>
    126a: ba 1f        	<unknown>
    126c: 3c 00        	<unknown>
    126e: 00 0c        	<unknown>
    1270: 1d bb        	<unknown>
    1272: 41 3c        	<unknown>
    1274: 00 00        	<unknown>
    1276: 0c 1d        	<unknown>
    1278: bc 5e        	<unknown>
    127a: 3c 00        	<unknown>
    127c: 00 0c        	<unknown>
    127e: 1d bd        	<unknown>
    1280: 81 3c        	<unknown>
    1282: 00 00        	<unknown>
    1284: 0c 22        	<unknown>
    1286: 52 a3        	<unknown>
    1288: 3c 00        	<unknown>
    128a: 00 0c        	<unknown>
    128c: 22 53        	<unknown>
    128e: c3 3c 00 00  	fmadd.s	fs9, ft0, ft0, ft0, rup
    1292: 0c 22        	<unknown>
    1294: 54 1c        	<unknown>
    1296: 30 00        	<unknown>
    1298: 00 0c        	<unknown>
    129a: 22 56        	<unknown>
    129c: ce 3c        	<unknown>
    129e: 00 00        	<unknown>
    12a0: 0c 22        	<unknown>
    12a2: 57 e1 3c 00  	<unknown>
    12a6: 00 0c        	<unknown>
    12a8: 22 59        	<unknown>
    12aa: f4 3c        	<unknown>
    12ac: 00 00        	<unknown>
    12ae: 0c 22        	<unknown>
    12b0: 5b 07 3d 00  	<unknown>
    12b4: 00 0c        	<unknown>
    12b6: 22 5c        	<unknown>
    12b8: 1a 3d        	<unknown>
    12ba: 00 00        	<unknown>
    12bc: 0c 22        	<unknown>
    12be: 5d 32        	<unknown>
    12c0: 3d 00        	<unknown>
    12c2: 00 0c        	<unknown>
    12c4: 22 5e        	<unknown>
    12c6: 45 3d        	<unknown>
    12c8: 00 00        	<unknown>
    12ca: 0c 22        	<unknown>
    12cc: 5f 58 3d 00  	<unknown>
    12d0: 00 0c        	<unknown>
    12d2: 22 60        	<unknown>
    12d4: 6b 3d 00 00  	<unknown>
    12d8: 0c 22        	<unknown>
    12da: 61 7e        	<unknown>
    12dc: 3d 00        	<unknown>
    12de: 00 0c        	<unknown>
    12e0: 22 62        	<unknown>
    12e2: 91 3d        	<unknown>
    12e4: 00 00        	<unknown>
    12e6: 0c 22        	<unknown>
    12e8: 63 a4 3d 00  	<unknown>
    12ec: 00 0c        	<unknown>
    12ee: 22 64        	<unknown>
    12f0: b7 3d 00 00  	lui	s11, 0x3
    12f4: 0c 22        	<unknown>
    12f6: 65 ca        	<unknown>
    12f8: 3d 00        	<unknown>
    12fa: 00 0c        	<unknown>
    12fc: 22 66        	<unknown>
    12fe: e2 3d        	<unknown>
    1300: 00 00        	<unknown>
    1302: 0c 22        	<unknown>
    1304: 67 f5 3d 00  	<unknown>
    1308: 00 0c        	<unknown>
    130a: 22 68        	<unknown>
    130c: 08 3e        	<unknown>
    130e: 00 00        	<unknown>
    1310: 0c 22        	<unknown>
    1312: 69 1b        	<unknown>
    1314: 3e 00        	<unknown>
    1316: 00 12        	<unknown>
    1318: 90 17        	<unknown>
    131a: 00 00        	<unknown>
    131c: e1 0f        	<unknown>
    131e: 00 00        	<unknown>
    1320: 08 6c        	<unknown>
    1322: 01 4f        	<unknown>
    1324: 1c 00        	<unknown>
    1326: 00 01        	<unknown>
    1328: 01 09        	<unknown>
    132a: 4f 1c 00 00  	fnmadd.s	fs8, ft0, ft0, ft0, rtz
    132e: 09 35        	<unknown>
    1330: 3e 00        	<unknown>
    1332: 00 00        	<unknown>
    1334: 00 1f        	<unknown>
    1336: 3f 07 00 00  	<unknown>
    133a: 55 08        	<unknown>
    133c: 00 00        	<unknown>
    133e: 04 1e        	<unknown>
    1340: 4b 13 00 00  	fnmsub.s	ft6, ft0, ft0, ft0, rtz
    1344: 01 09        	<unknown>
    1346: 4b 13 00 00  	fnmsub.s	ft6, ft0, ft0, ft0, rtz
    134a: 00 0d        	<unknown>
    134c: 6c 01        	<unknown>
    134e: 00 00        	<unknown>
    1350: 05 04        	<unknown>
    1352: 1f 48 07 00  	<unknown>
    1356: 00 52        	<unknown>
    1358: 07 00 00 04  	<unknown>
    135c: 20 68        	<unknown>
    135e: 13 00 00 01  	li	zero, 0x10
    1362: 09 68        	<unknown>
    1364: 13 00 00 00  	nop
    1368: 0d 57        	<unknown>
    136a: 07 00 00 04  	<unknown>
    136e: 04 1f        	<unknown>
    1370: 5d 07        	<unknown>
    1372: 00 00        	<unknown>
    1374: 68 07        	<unknown>
    1376: 00 00        	<unknown>
    1378: 04 22        	<unknown>
    137a: 68 13        	<unknown>
    137c: 00 00        	<unknown>
    137e: 01 09        	<unknown>
    1380: 68 13        	<unknown>
    1382: 00 00        	<unknown>
    1384: 00 1f        	<unknown>
    1386: 6e 07        	<unknown>
    1388: 00 00        	<unknown>
    138a: 78 07        	<unknown>
    138c: 00 00        	<unknown>
    138e: 04 24        	<unknown>
    1390: 68 13        	<unknown>
    1392: 00 00        	<unknown>
    1394: 01 09        	<unknown>
    1396: 68 13        	<unknown>
    1398: 00 00        	<unknown>
    139a: 00 1f        	<unknown>
    139c: 7d 07        	<unknown>
    139e: 00 00        	<unknown>
    13a0: 88 07        	<unknown>
    13a2: 00 00        	<unknown>
    13a4: 04 26        	<unknown>
    13a6: 68 13        	<unknown>
    13a8: 00 00        	<unknown>
    13aa: 01 09        	<unknown>
    13ac: 68 13        	<unknown>
    13ae: 00 00        	<unknown>
    13b0: 00 1f        	<unknown>
    13b2: 8e 07        	<unknown>
    13b4: 00 00        	<unknown>
    13b6: 98 07        	<unknown>
    13b8: 00 00        	<unknown>
    13ba: 04 2a        	<unknown>
    13bc: 68 13        	<unknown>
    13be: 00 00        	<unknown>
    13c0: 01 09        	<unknown>
    13c2: 68 13        	<unknown>
    13c4: 00 00        	<unknown>
    13c6: 00 1f        	<unknown>
    13c8: 9d 07        	<unknown>
    13ca: 00 00        	<unknown>
    13cc: a9 07        	<unknown>
    13ce: 00 00        	<unknown>
    13d0: 04 28        	<unknown>
    13d2: 68 13        	<unknown>
    13d4: 00 00        	<unknown>
    13d6: 01 09        	<unknown>
    13d8: 68 13        	<unknown>
    13da: 00 00        	<unknown>
    13dc: 09 68        	<unknown>
    13de: 13 00 00 00  	nop
    13e2: 1f af 07 00  	<unknown>
    13e6: 00 ba        	<unknown>
    13e8: 07 00 00 04  	<unknown>
    13ec: 2c 68        	<unknown>
    13ee: 13 00 00 01  	li	zero, 0x10
    13f2: 09 68        	<unknown>
    13f4: 13 00 00 00  	nop
    13f8: 1f c0 07 00  	<unknown>
    13fc: 00 ca        	<unknown>
    13fe: 07 00 00 04  	<unknown>
    1402: 2e 68        	<unknown>
    1404: 13 00 00 01  	li	zero, 0x10
    1408: 09 68        	<unknown>
    140a: 13 00 00 00  	nop
    140e: 1f cf 07 00  	<unknown>
    1412: 00 d9        	<unknown>
    1414: 07 00 00 04  	<unknown>
    1418: 30 68        	<unknown>
    141a: 13 00 00 01  	li	zero, 0x10
    141e: 09 68        	<unknown>
    1420: 13 00 00 00  	nop
    1424: 1f de 07 00  	<unknown>
    1428: 00 ed        	<unknown>
    142a: 07 00 00 04  	<unknown>
    142e: 32 68        	<unknown>
    1430: 13 00 00 01  	li	zero, 0x10
    1434: 09 68        	<unknown>
    1436: 13 00 00 09  	li	zero, 0x90
    143a: 68 13        	<unknown>
    143c: 00 00        	<unknown>
    143e: 00 1f        	<unknown>
    1440: f6 07        	<unknown>
    1442: 00 00        	<unknown>
    1444: 53 07 00 00  	fadd.s	fa4, ft0, ft0, rne
    1448: 04 34        	<unknown>
    144a: 68 13        	<unknown>
    144c: 00 00        	<unknown>
    144e: 01 09        	<unknown>
    1450: 68 13        	<unknown>
    1452: 00 00        	<unknown>
    1454: 00 1f        	<unknown>
    1456: ff 07 00 00  	<unknown>
    145a: 69 07        	<unknown>
    145c: 00 00        	<unknown>
    145e: 04 36        	<unknown>
    1460: 68 13        	<unknown>
    1462: 00 00        	<unknown>
    1464: 01 09        	<unknown>
    1466: 68 13        	<unknown>
    1468: 00 00        	<unknown>
    146a: 00 1f        	<unknown>
    146c: 09 08        	<unknown>
    146e: 00 00        	<unknown>
    1470: 39 0d        	<unknown>
    1472: 00 00        	<unknown>
    1474: 04 3a        	<unknown>
    1476: 68 13        	<unknown>
    1478: 00 00        	<unknown>
    147a: 01 09        	<unknown>
    147c: 68 13        	<unknown>
    147e: 00 00        	<unknown>
    1480: 00 1f        	<unknown>
    1482: 12 08        	<unknown>
    1484: 00 00        	<unknown>
    1486: 1c 08        	<unknown>
    1488: 00 00        	<unknown>
    148a: 04 38        	<unknown>
    148c: 68 13        	<unknown>
    148e: 00 00        	<unknown>
    1490: 01 09        	<unknown>
    1492: 68 13        	<unknown>
    1494: 00 00        	<unknown>
    1496: 00 1f        	<unknown>
    1498: 21 08        	<unknown>
    149a: 00 00        	<unknown>
    149c: 2c 0a        	<unknown>
    149e: 00 00        	<unknown>
    14a0: 04 3e        	<unknown>
    14a2: 68 13        	<unknown>
    14a4: 00 00        	<unknown>
    14a6: 01 09        	<unknown>
    14a8: 68 13        	<unknown>
    14aa: 00 00        	<unknown>
    14ac: 00 1f        	<unknown>
    14ae: 2a 08        	<unknown>
    14b0: 00 00        	<unknown>
    14b2: 34 08        	<unknown>
    14b4: 00 00        	<unknown>
    14b6: 04 3c        	<unknown>
    14b8: 68 13        	<unknown>
    14ba: 00 00        	<unknown>
    14bc: 01 09        	<unknown>
    14be: 68 13        	<unknown>
    14c0: 00 00        	<unknown>
    14c2: 00 1f        	<unknown>
    14c4: 39 08        	<unknown>
    14c6: 00 00        	<unknown>
    14c8: 44 08        	<unknown>
    14ca: 00 00        	<unknown>
    14cc: 04 40        	<unknown>
    14ce: 68 13        	<unknown>
    14d0: 00 00        	<unknown>
    14d2: 01 09        	<unknown>
    14d4: 68 13        	<unknown>
    14d6: 00 00        	<unknown>
    14d8: 00 1f        	<unknown>
    14da: 4a 08        	<unknown>
    14dc: 00 00        	<unknown>
    14de: 54 08        	<unknown>
    14e0: 00 00        	<unknown>
    14e2: 04 42        	<unknown>
    14e4: 68 13        	<unknown>
    14e6: 00 00        	<unknown>
    14e8: 01 09        	<unknown>
    14ea: 68 13        	<unknown>
    14ec: 00 00        	<unknown>
    14ee: 00 1f        	<unknown>
    14f0: 59 08        	<unknown>
    14f2: 00 00        	<unknown>
    14f4: 64 08        	<unknown>
    14f6: 00 00        	<unknown>
    14f8: 04 44        	<unknown>
    14fa: 68 13        	<unknown>
    14fc: 00 00        	<unknown>
    14fe: 01 09        	<unknown>
    1500: 68 13        	<unknown>
    1502: 00 00        	<unknown>
    1504: 09 68        	<unknown>
    1506: 13 00 00 00  	nop
    150a: 1f 69 08 00  	<unknown>
    150e: 00 74        	<unknown>
    1510: 08 00        	<unknown>
    1512: 00 04        	<unknown>
    1514: 46 68        	<unknown>
    1516: 13 00 00 01  	li	zero, 0x10
    151a: 09 68        	<unknown>
    151c: 13 00 00 00  	nop
    1520: 1f 7a 08 00  	<unknown>
    1524: 00 85        	<unknown>
    1526: 08 00        	<unknown>
    1528: 00 04        	<unknown>
    152a: 48 68        	<unknown>
    152c: 13 00 00 01  	li	zero, 0x10
    1530: 09 68        	<unknown>
    1532: 13 00 00 09  	li	zero, 0x90
    1536: 68 13        	<unknown>
    1538: 00 00        	<unknown>
    153a: 09 68        	<unknown>
    153c: 13 00 00 00  	nop
    1540: 1f 89 08 00  	<unknown>
    1544: 00 94        	<unknown>
    1546: 08 00        	<unknown>
    1548: 00 04        	<unknown>
    154a: 4a 68        	<unknown>
    154c: 13 00 00 01  	li	zero, 0x10
    1550: 09 68        	<unknown>
    1552: 13 00 00 09  	li	zero, 0x90
    1556: 68 13        	<unknown>
    1558: 00 00        	<unknown>
    155a: 00 1f        	<unknown>
    155c: 99 08        	<unknown>
    155e: 00 00        	<unknown>
    1560: a4 08        	<unknown>
    1562: 00 00        	<unknown>
    1564: 04 4c        	<unknown>
    1566: 68 13        	<unknown>
    1568: 00 00        	<unknown>
    156a: 01 09        	<unknown>
    156c: 68 13        	<unknown>
    156e: 00 00        	<unknown>
    1570: 09 68        	<unknown>
    1572: 13 00 00 00  	nop
    1576: 1f a9 08 00  	<unknown>
    157a: 00 b4        	<unknown>
    157c: 08 00        	<unknown>
    157e: 00 04        	<unknown>
    1580: 4e 68        	<unknown>
    1582: 13 00 00 01  	li	zero, 0x10
    1586: 09 68        	<unknown>
    1588: 13 00 00 09  	li	zero, 0x90
    158c: 68 13        	<unknown>
    158e: 00 00        	<unknown>
    1590: 00 1f        	<unknown>
    1592: b9 08        	<unknown>
    1594: 00 00        	<unknown>
    1596: ca 08        	<unknown>
    1598: 00 00        	<unknown>
    159a: 04 50        	<unknown>
    159c: 4b 13 00 00  	fnmsub.s	ft6, ft0, ft0, ft0, rtz
    15a0: 01 09        	<unknown>
    15a2: 68 13        	<unknown>
    15a4: 00 00        	<unknown>
    15a6: 00 1f        	<unknown>
    15a8: d5 08        	<unknown>
    15aa: 00 00        	<unknown>
    15ac: e2 08        	<unknown>
    15ae: 00 00        	<unknown>
    15b0: 04 52        	<unknown>
    15b2: 68 13        	<unknown>
    15b4: 00 00        	<unknown>
    15b6: 01 09        	<unknown>
    15b8: 68 13        	<unknown>
    15ba: 00 00        	<unknown>
    15bc: 09 c2        	<unknown>
    15be: 15 00        	<unknown>
    15c0: 00 00        	<unknown>
    15c2: 0e 4b        	<unknown>
    15c4: 13 00 00 1f  	li	zero, 0x1f0
    15c8: e8 08        	<unknown>
    15ca: 00 00        	<unknown>
    15cc: f4 08        	<unknown>
    15ce: 00 00        	<unknown>
    15d0: 04 54        	<unknown>
    15d2: 68 13        	<unknown>
    15d4: 00 00        	<unknown>
    15d6: 01 09        	<unknown>
    15d8: 68 13        	<unknown>
    15da: 00 00        	<unknown>
    15dc: 09 68        	<unknown>
    15de: 13 00 00 00  	nop
    15e2: 1f fa 08 00  	<unknown>
    15e6: 00 05        	<unknown>
    15e8: 09 00        	<unknown>
    15ea: 00 04        	<unknown>
    15ec: 56 4b        	<unknown>
    15ee: 13 00 00 01  	li	zero, 0x10
    15f2: 09 68        	<unknown>
    15f4: 13 00 00 00  	nop
    15f8: 1f 0b 09 00  	<unknown>
    15fc: 00 19        	<unknown>
    15fe: 09 00        	<unknown>
    1600: 00 04        	<unknown>
    1602: 5b 0e 16 00  	<unknown>
    1606: 00 01        	<unknown>
    1608: 09 68        	<unknown>
    160a: 13 00 00 00  	nop
    160e: 0d 22        	<unknown>
    1610: 09 00        	<unknown>
    1612: 00 02        	<unknown>
    1614: 01 1f        	<unknown>
    1616: 27 09 00 00  	<unknown>
    161a: 37 09 00 00  	lui	s2, 0x0
    161e: 04 5f        	<unknown>
    1620: 0e 16        	<unknown>
    1622: 00 00        	<unknown>
    1624: 01 09        	<unknown>
    1626: 68 13        	<unknown>
    1628: 00 00        	<unknown>
    162a: 09 68        	<unknown>
    162c: 13 00 00 00  	nop
    1630: 1f 41 09 00  	<unknown>
    1634: 00 57        	<unknown>
    1636: 09 00        	<unknown>
    1638: 00 04        	<unknown>
    163a: 5e 0e        	<unknown>
    163c: 16 00        	<unknown>
    163e: 00 01        	<unknown>
    1640: 09 68        	<unknown>
    1642: 13 00 00 09  	li	zero, 0x90
    1646: 68 13        	<unknown>
    1648: 00 00        	<unknown>
    164a: 00 1f        	<unknown>
    164c: 66 09        	<unknown>
    164e: 00 00        	<unknown>
    1650: 71 09        	<unknown>
    1652: 00 00        	<unknown>
    1654: 04 64        	<unknown>
    1656: 0e 16        	<unknown>
    1658: 00 00        	<unknown>
    165a: 01 09        	<unknown>
    165c: 68 13        	<unknown>
    165e: 00 00        	<unknown>
    1660: 00 1f        	<unknown>
    1662: 77 09 00 00  	<unknown>
    1666: 84 09        	<unknown>
    1668: 00 00        	<unknown>
    166a: 04 68        	<unknown>
    166c: 0e 16        	<unknown>
    166e: 00 00        	<unknown>
    1670: 01 09        	<unknown>
    1672: 68 13        	<unknown>
    1674: 00 00        	<unknown>
    1676: 09 68        	<unknown>
    1678: 13 00 00 00  	nop
    167c: 1f 8b 09 00  	<unknown>
    1680: 00 9e        	<unknown>
    1682: 09 00        	<unknown>
    1684: 00 04        	<unknown>
    1686: 67 0e 16 00  	jalr	t3, 0x1(a2)
    168a: 00 01        	<unknown>
    168c: 09 68        	<unknown>
    168e: 13 00 00 09  	li	zero, 0x90
    1692: 68 13        	<unknown>
    1694: 00 00        	<unknown>
    1696: 00 1f        	<unknown>
    1698: aa 09        	<unknown>
    169a: 00 00        	<unknown>
    169c: bf 09 00 00  	<unknown>
    16a0: 04 6a        	<unknown>
    16a2: 0e 16        	<unknown>
    16a4: 00 00        	<unknown>
    16a6: 01 09        	<unknown>
    16a8: 68 13        	<unknown>
    16aa: 00 00        	<unknown>
    16ac: 09 68        	<unknown>
    16ae: 13 00 00 00  	nop
    16b2: 1f cd 09 00  	<unknown>
    16b6: 00 d8        	<unknown>
    16b8: 09 00        	<unknown>
    16ba: 00 04        	<unknown>
    16bc: 6f 0e 16 00  	jal	t3, 0x61ebc <.debug_info+0x61ebc>
    16c0: 00 01        	<unknown>
    16c2: 09 68        	<unknown>
    16c4: 13 00 00 00  	nop
    16c8: 1f de 09 00  	<unknown>
    16cc: 00 ec        	<unknown>
    16ce: 09 00        	<unknown>
    16d0: 00 04        	<unknown>
    16d2: 71 0e        	<unknown>
    16d4: 16 00        	<unknown>
    16d6: 00 01        	<unknown>
    16d8: 09 68        	<unknown>
    16da: 13 00 00 00  	nop
    16de: 1f f5 09 00  	<unknown>
    16e2: 00 08        	<unknown>
    16e4: 0a 00        	<unknown>
    16e6: 00 04        	<unknown>
    16e8: 73 0e 16 00  	<unknown>
    16ec: 00 01        	<unknown>
    16ee: 09 68        	<unknown>
    16f0: 13 00 00 09  	li	zero, 0x90
    16f4: 68 13        	<unknown>
    16f6: 00 00        	<unknown>
    16f8: 00 1f        	<unknown>
    16fa: 14 0a        	<unknown>
    16fc: 00 00        	<unknown>
    16fe: 4f 0a 00 00  	fnmadd.s	fs4, ft0, ft0, ft0, rne
    1702: 04 74        	<unknown>
    1704: 0f 17 00 00  	<unknown>
    1708: 01 09        	<unknown>
    170a: 0f 17 00 00  	<unknown>
    170e: 00 0d        	<unknown>
    1710: cd 0d        	<unknown>
    1712: 00 00        	<unknown>
    1714: 05 08        	<unknown>
    1716: 1f 1e 0a 00  	<unknown>
    171a: 00 2a        	<unknown>
    171c: 0a 00        	<unknown>
    171e: 00 04        	<unknown>
    1720: 76 68        	<unknown>
    1722: 13 00 00 01  	li	zero, 0x10
    1726: 09 68        	<unknown>
    1728: 13 00 00 09  	li	zero, 0x90
    172c: 4b 13 00 00  	fnmsub.s	ft6, ft0, ft0, ft0, rtz
    1730: 00 1f        	<unknown>
    1732: 30 0a        	<unknown>
    1734: 00 00        	<unknown>
    1736: 3c 0a        	<unknown>
    1738: 00 00        	<unknown>
    173a: 04 78        	<unknown>
    173c: 68 13        	<unknown>
    173e: 00 00        	<unknown>
    1740: 01 09        	<unknown>
    1742: 68 13        	<unknown>
    1744: 00 00        	<unknown>
    1746: 00 1f        	<unknown>
    1748: 43 0a 00 00  	fmadd.s	fs4, ft0, ft0, ft0, rne
    174c: 4e 0a        	<unknown>
    174e: 00 00        	<unknown>
    1750: 04 79        	<unknown>
    1752: 5d 17        	<unknown>
    1754: 00 00        	<unknown>
    1756: 01 09        	<unknown>
    1758: 5d 17        	<unknown>
    175a: 00 00        	<unknown>
    175c: 00 0d        	<unknown>
    175e: 3b 01 00 00  	addw	sp, zero, zero
    1762: 05 08        	<unknown>
    1764: 1f 54 0a 00  	<unknown>
    1768: 00 60        	<unknown>
    176a: 0a 00        	<unknown>
    176c: 00 04        	<unknown>
    176e: 7b 5d 17 00  	<unknown>
    1772: 00 01        	<unknown>
    1774: 09 68        	<unknown>
    1776: 13 00 00 00  	nop
    177a: 1f 67 0a 00  	<unknown>
    177e: 00 70        	<unknown>
    1780: 0a 00        	<unknown>
    1782: 00 04        	<unknown>
    1784: 85 68        	<unknown>
    1786: 13 00 00 01  	li	zero, 0x10
    178a: 09 68        	<unknown>
    178c: 13 00 00 00  	nop
    1790: 1f 74 0a 00  	<unknown>
    1794: 00 7f        	<unknown>
    1796: 0a 00        	<unknown>
    1798: 00 04        	<unknown>
    179a: 7d 68        	<unknown>
    179c: 13 00 00 01  	li	zero, 0x10
    17a0: 09 68        	<unknown>
    17a2: 13 00 00 00  	nop
    17a6: 1f 85 0a 00  	<unknown>
    17aa: 00 90        	<unknown>
    17ac: 0a 00        	<unknown>
    17ae: 00 04        	<unknown>
    17b0: 7f 68 13 00  	<unknown>
    17b4: 00 01        	<unknown>
    17b6: 09 68        	<unknown>
    17b8: 13 00 00 00  	nop
    17bc: 1f 96 0a 00  	<unknown>
    17c0: 00 a0        	<unknown>
    17c2: 0a 00        	<unknown>
    17c4: 00 04        	<unknown>
    17c6: 81 68        	<unknown>
    17c8: 13 00 00 01  	li	zero, 0x10
    17cc: 09 68        	<unknown>
    17ce: 13 00 00 00  	nop
    17d2: 1f a5 0a 00  	<unknown>
    17d6: 00 06        	<unknown>
    17d8: 09 00        	<unknown>
    17da: 00 04        	<unknown>
    17dc: 83 68 13 00  	lwu	a7, 0x1(t1)
    17e0: 00 01        	<unknown>
    17e2: 09 68        	<unknown>
    17e4: 13 00 00 00  	nop
    17e8: 1f af 0a 00  	<unknown>
    17ec: 00 61        	<unknown>
    17ee: 0a 00        	<unknown>
    17f0: 00 04        	<unknown>
    17f2: 87 0f 17 00  	<unknown>
    17f6: 00 01        	<unknown>
    17f8: 09 68        	<unknown>
    17fa: 13 00 00 00  	nop
    17fe: 1f ba 0a 00  	<unknown>
    1802: 00 d4        	<unknown>
    1804: 0a 00        	<unknown>
    1806: 00 04        	<unknown>
    1808: 89 0f        	<unknown>
    180a: 17 00 00 01  	auipc	zero, 0x1000
    180e: 09 68        	<unknown>
    1810: 13 00 00 00  	nop
    1814: 1f c6 0a 00  	<unknown>
    1818: 00 d3        	<unknown>
    181a: 0a 00        	<unknown>
    181c: 00 04        	<unknown>
    181e: 8a 5d        	<unknown>
    1820: 17 00 00 01  	auipc	zero, 0x1000
    1824: 09 68        	<unknown>
    1826: 13 00 00 00  	nop
    182a: 1f db 0a 00  	<unknown>
    182e: 00 e1        	<unknown>
    1830: 0f 00 00 04  	fence	o, 0
    1834: 8c 68        	<unknown>
    1836: 13 00 00 01  	li	zero, 0x10
    183a: 09 68        	<unknown>
    183c: 13 00 00 09  	li	zero, 0x90
    1840: 45 18        	<unknown>
    1842: 00 00        	<unknown>
    1844: 00 0e        	<unknown>
    1846: 68 13        	<unknown>
    1848: 00 00        	<unknown>
    184a: 1f e7 0a 00  	<unknown>
    184e: 00 da        	<unknown>
    1850: 09 00        	<unknown>
    1852: 00 04        	<unknown>
    1854: 8d 60        	<unknown>
    1856: 18 00        	<unknown>
    1858: 00 01        	<unknown>
    185a: 09 67        	<unknown>
    185c: 18 00        	<unknown>
    185e: 00 00        	<unknown>
    1860: 0d 39        	<unknown>
    1862: 0c 00        	<unknown>
    1864: 00 04        	<unknown>
    1866: 08 0e        	<unknown>
    1868: 6c 18        	<unknown>
    186a: 00 00        	<unknown>
    186c: 14 71        	<unknown>
    186e: 18 00        	<unknown>
    1870: 00 0d        	<unknown>
    1872: 1e 16        	<unknown>
    1874: 00 00        	<unknown>
    1876: 06 01        	<unknown>
    1878: 1f f2 0a 00  	<unknown>
    187c: 00 d3        	<unknown>
    187e: 09 00        	<unknown>
    1880: 00 04        	<unknown>
    1882: 8e 68        	<unknown>
    1884: 13 00 00 01  	li	zero, 0x10
    1888: 09 67        	<unknown>
    188a: 18 00        	<unknown>
    188c: 00 00        	<unknown>
    188e: 1f fe 0a 00  	<unknown>
    1892: 00 0d        	<unknown>
    1894: 0b 00 00 04  	<unknown>
    1898: 90 68        	<unknown>
    189a: 13 00 00 01  	li	zero, 0x10
    189e: 09 68        	<unknown>
    18a0: 13 00 00 00  	nop
    18a4: 1f 17 0b 00  	<unknown>
    18a8: 00 27        	<unknown>
    18aa: 0b 00 00 04  	<unknown>
    18ae: 92 68        	<unknown>
    18b0: 13 00 00 01  	li	zero, 0x10
    18b4: 09 68        	<unknown>
    18b6: 13 00 00 09  	li	zero, 0x90
    18ba: 68 13        	<unknown>
    18bc: 00 00        	<unknown>
    18be: 00 1f        	<unknown>
    18c0: 31 0b        	<unknown>
    18c2: 00 00        	<unknown>
    18c4: 3b 0b 00 00  	addw	s6, zero, zero
    18c8: 04 96        	<unknown>
    18ca: 68 13        	<unknown>
    18cc: 00 00        	<unknown>
    18ce: 01 09        	<unknown>
    18d0: 68 13        	<unknown>
    18d2: 00 00        	<unknown>
    18d4: 09 4b        	<unknown>
    18d6: 13 00 00 00  	nop
    18da: 1f 3f 0b 00  	<unknown>
    18de: 00 4f        	<unknown>
    18e0: 0b 00 00 04  	<unknown>
    18e4: 98 68        	<unknown>
    18e6: 13 00 00 01  	li	zero, 0x10
    18ea: 09 68        	<unknown>
    18ec: 13 00 00 09  	li	zero, 0x90
    18f0: 68 13        	<unknown>
    18f2: 00 00        	<unknown>
    18f4: 00 1f        	<unknown>
    18f6: 59 0b        	<unknown>
    18f8: 00 00        	<unknown>
    18fa: 68 0b        	<unknown>
    18fc: 00 00        	<unknown>
    18fe: 04 9a        	<unknown>
    1900: 68 13        	<unknown>
    1902: 00 00        	<unknown>
    1904: 01 09        	<unknown>
    1906: 68 13        	<unknown>
    1908: 00 00        	<unknown>
    190a: 09 68        	<unknown>
    190c: 13 00 00 09  	li	zero, 0x90
    1910: c2 15        	<unknown>
    1912: 00 00        	<unknown>
    1914: 00 1f        	<unknown>
    1916: 6f 0b 00 00  	jal	s6, 0x1916 <.debug_info+0x1916>
    191a: 62 0a        	<unknown>
    191c: 00 00        	<unknown>
    191e: 04 9c        	<unknown>
    1920: 68 13        	<unknown>
    1922: 00 00        	<unknown>
    1924: 01 09        	<unknown>
    1926: 68 13        	<unknown>
    1928: 00 00        	<unknown>
    192a: 00 1f        	<unknown>
    192c: 79 0b        	<unknown>
    192e: 00 00        	<unknown>
    1930: d5 0a        	<unknown>
    1932: 00 00        	<unknown>
    1934: 04 9e        	<unknown>
    1936: 68 13        	<unknown>
    1938: 00 00        	<unknown>
    193a: 01 09        	<unknown>
    193c: 68 13        	<unknown>
    193e: 00 00        	<unknown>
    1940: 00 1f        	<unknown>
    1942: 84 0b        	<unknown>
    1944: 00 00        	<unknown>
    1946: 92 0b        	<unknown>
    1948: 00 00        	<unknown>
    194a: 04 a0        	<unknown>
    194c: 68 13        	<unknown>
    194e: 00 00        	<unknown>
    1950: 01 09        	<unknown>
    1952: 68 13        	<unknown>
    1954: 00 00        	<unknown>
    1956: 09 0f        	<unknown>
    1958: 17 00 00 00  	auipc	zero, 0x0
    195c: 1f 9a 0b 00  	<unknown>
    1960: 00 a7        	<unknown>
    1962: 0b 00 00 04  	<unknown>
    1966: a2 68        	<unknown>
    1968: 13 00 00 01  	li	zero, 0x10
    196c: 09 68        	<unknown>
    196e: 13 00 00 09  	li	zero, 0x90
    1972: 4b 13 00 00  	fnmsub.s	ft6, ft0, ft0, ft0, rtz
    1976: 00 1f        	<unknown>
    1978: ae 0b        	<unknown>
    197a: 00 00        	<unknown>
    197c: bb 0b 00 00  	addw	s7, zero, zero
    1980: 04 a7        	<unknown>
    1982: 0e 16        	<unknown>
    1984: 00 00        	<unknown>
    1986: 01 09        	<unknown>
    1988: 68 13        	<unknown>
    198a: 00 00        	<unknown>
    198c: 00 1f        	<unknown>
    198e: c3 0b 00 00  	fmadd.s	fs7, ft0, ft0, ft0, rne
    1992: 79 07        	<unknown>
    1994: 00 00        	<unknown>
    1996: 04 a9        	<unknown>
    1998: 68 13        	<unknown>
    199a: 00 00        	<unknown>
    199c: 01 09        	<unknown>
    199e: 68 13        	<unknown>
    19a0: 00 00        	<unknown>
    19a2: 00 1f        	<unknown>
    19a4: cc 0b        	<unknown>
    19a6: 00 00        	<unknown>
    19a8: 89 07        	<unknown>
    19aa: 00 00        	<unknown>
    19ac: 04 ab        	<unknown>
    19ae: 68 13        	<unknown>
    19b0: 00 00        	<unknown>
    19b2: 01 09        	<unknown>
    19b4: 68 13        	<unknown>
    19b6: 00 00        	<unknown>
    19b8: 00 1f        	<unknown>
    19ba: d6 0b        	<unknown>
    19bc: 00 00        	<unknown>
    19be: e0 0b        	<unknown>
    19c0: 00 00        	<unknown>
    19c2: 04 ad        	<unknown>
    19c4: 68 13        	<unknown>
    19c6: 00 00        	<unknown>
    19c8: 01 09        	<unknown>
    19ca: 68 13        	<unknown>
    19cc: 00 00        	<unknown>
    19ce: 00 1f        	<unknown>
    19d0: e5 0b        	<unknown>
    19d2: 00 00        	<unknown>
    19d4: 99 07        	<unknown>
    19d6: 00 00        	<unknown>
    19d8: 04 af        	<unknown>
    19da: 68 13        	<unknown>
    19dc: 00 00        	<unknown>
    19de: 01 09        	<unknown>
    19e0: 68 13        	<unknown>
    19e2: 00 00        	<unknown>
    19e4: 00 1f        	<unknown>
    19e6: ee 0b        	<unknown>
    19e8: 00 00        	<unknown>
    19ea: bb 07 00 00  	addw	a5, zero, zero
    19ee: 04 b1        	<unknown>
    19f0: 68 13        	<unknown>
    19f2: 00 00        	<unknown>
    19f4: 01 09        	<unknown>
    19f6: 68 13        	<unknown>
    19f8: 00 00        	<unknown>
    19fa: 00 1f        	<unknown>
    19fc: f8 0b        	<unknown>
    19fe: 00 00        	<unknown>
    1a00: 04 0c        	<unknown>
    1a02: 00 00        	<unknown>
    1a04: 04 b3        	<unknown>
    1a06: 68 13        	<unknown>
    1a08: 00 00        	<unknown>
    1a0a: 01 09        	<unknown>
    1a0c: 68 13        	<unknown>
    1a0e: 00 00        	<unknown>
    1a10: 00 1f        	<unknown>
    1a12: 0b 0c 00 00  	<unknown>
    1a16: 16 0c        	<unknown>
    1a18: 00 00        	<unknown>
    1a1a: 04 b5        	<unknown>
    1a1c: 68 13        	<unknown>
    1a1e: 00 00        	<unknown>
    1a20: 01 09        	<unknown>
    1a22: 68 13        	<unknown>
    1a24: 00 00        	<unknown>
    1a26: 00 20        	<unknown>
    1a28: 55 08        	<unknown>
    1a2a: 00 00        	<unknown>
    1a2c: 05 48        	<unknown>
    1a2e: 03 4b 13 00  	lbu	s6, 0x1(t1)
    1a32: 00 01        	<unknown>
    1a34: 01 09        	<unknown>
    1a36: 4b 13 00 00  	fnmsub.s	ft6, ft0, ft0, ft0, rtz
    1a3a: 00 21        	<unknown>
    1a3c: 52 07        	<unknown>
    1a3e: 00 00        	<unknown>
    1a40: 07 35 60 18  	fld	fa0, 0x186(zero)
    1a44: 00 00        	<unknown>
    1a46: 01 01        	<unknown>
    1a48: 09 60        	<unknown>
    1a4a: 18 00        	<unknown>
    1a4c: 00 00        	<unknown>
    1a4e: 21 78        	<unknown>
    1a50: 07 00 00 07  	<unknown>
    1a54: 37 60 18 00  	lui	zero, 0x186
    1a58: 00 01        	<unknown>
    1a5a: 01 09        	<unknown>
    1a5c: 60 18        	<unknown>
    1a5e: 00 00        	<unknown>
    1a60: 00 21        	<unknown>
    1a62: 98 07        	<unknown>
    1a64: 00 00        	<unknown>
    1a66: 07 39 60 18  	fld	fs2, 0x186(zero)
    1a6a: 00 00        	<unknown>
    1a6c: 01 01        	<unknown>
    1a6e: 09 60        	<unknown>
    1a70: 18 00        	<unknown>
    1a72: 00 00        	<unknown>
    1a74: 21 a9        	<unknown>
    1a76: 07 00 00 07  	<unknown>
    1a7a: 3b 60 18 00  	<unknown>
    1a7e: 00 01        	<unknown>
    1a80: 01 09        	<unknown>
    1a82: 60 18        	<unknown>
    1a84: 00 00        	<unknown>
    1a86: 09 60        	<unknown>
    1a88: 18 00        	<unknown>
    1a8a: 00 00        	<unknown>
    1a8c: 21 d9        	<unknown>
    1a8e: 07 00 00 07  	<unknown>
    1a92: 9f 60 18 00  	<unknown>
    1a96: 00 01        	<unknown>
    1a98: 01 09        	<unknown>
    1a9a: 60 18        	<unknown>
    1a9c: 00 00        	<unknown>
    1a9e: 00 21        	<unknown>
    1aa0: 53 07 00 00  	fadd.s	fa4, ft0, ft0, rne
    1aa4: 07 3e 60 18  	fld	ft8, 0x186(zero)
    1aa8: 00 00        	<unknown>
    1aaa: 01 01        	<unknown>
    1aac: 09 60        	<unknown>
    1aae: 18 00        	<unknown>
    1ab0: 00 00        	<unknown>
    1ab2: 21 69        	<unknown>
    1ab4: 07 00 00 07  	<unknown>
    1ab8: 47 60 18 00  	<unknown>
    1abc: 00 01        	<unknown>
    1abe: 01 09        	<unknown>
    1ac0: 60 18        	<unknown>
    1ac2: 00 00        	<unknown>
    1ac4: 00 21        	<unknown>
    1ac6: 2c 0a        	<unknown>
    1ac8: 00 00        	<unknown>
    1aca: 07 5f 60 18  	<unknown>
    1ace: 00 00        	<unknown>
    1ad0: 01 01        	<unknown>
    1ad2: 09 60        	<unknown>
    1ad4: 18 00        	<unknown>
    1ad6: 00 00        	<unknown>
    1ad8: 21 54        	<unknown>
    1ada: 08 00        	<unknown>
    1adc: 00 07        	<unknown>
    1ade: a2 60        	<unknown>
    1ae0: 18 00        	<unknown>
    1ae2: 00 01        	<unknown>
    1ae4: 01 09        	<unknown>
    1ae6: 60 18        	<unknown>
    1ae8: 00 00        	<unknown>
    1aea: 00 21        	<unknown>
    1aec: 74 08        	<unknown>
    1aee: 00 00        	<unknown>
    1af0: 07 a5 60 18  	flw	fa0, 0x186(ra)
    1af4: 00 00        	<unknown>
    1af6: 01 01        	<unknown>
    1af8: 09 60        	<unknown>
    1afa: 18 00        	<unknown>
    1afc: 00 00        	<unknown>
    1afe: 21 b4        	<unknown>
    1b00: 08 00        	<unknown>
    1b02: 00 07        	<unknown>
    1b04: a8 60        	<unknown>
    1b06: 18 00        	<unknown>
    1b08: 00 01        	<unknown>
    1b0a: 01 09        	<unknown>
    1b0c: 60 18        	<unknown>
    1b0e: 00 00        	<unknown>
    1b10: 09 60        	<unknown>
    1b12: 18 00        	<unknown>
    1b14: 00 00        	<unknown>
    1b16: 21 e2        	<unknown>
    1b18: 08 00        	<unknown>
    1b1a: 00 07        	<unknown>
    1b1c: 62 60        	<unknown>
    1b1e: 18 00        	<unknown>
    1b20: 00 01        	<unknown>
    1b22: 01 09        	<unknown>
    1b24: 60 18        	<unknown>
    1b26: 00 00        	<unknown>
    1b28: 09 c2        	<unknown>
    1b2a: 15 00        	<unknown>
    1b2c: 00 00        	<unknown>
    1b2e: 21 2a        	<unknown>
    1b30: 0a 00        	<unknown>
    1b32: 00 07        	<unknown>
    1b34: 65 60        	<unknown>
    1b36: 18 00        	<unknown>
    1b38: 00 01        	<unknown>
    1b3a: 01 09        	<unknown>
    1b3c: 60 18        	<unknown>
    1b3e: 00 00        	<unknown>
    1b40: 09 4b        	<unknown>
    1b42: 13 00 00 00  	nop
    1b46: 21 70        	<unknown>
    1b48: 0a 00        	<unknown>
    1b4a: 00 07        	<unknown>
    1b4c: 68 60        	<unknown>
    1b4e: 18 00        	<unknown>
    1b50: 00 01        	<unknown>
    1b52: 01 09        	<unknown>
    1b54: 60 18        	<unknown>
    1b56: 00 00        	<unknown>
    1b58: 00 21        	<unknown>
    1b5a: 7f 0a 00 00  	<unknown>
    1b5e: 07 6b 60 18  	<unknown>
    1b62: 00 00        	<unknown>
    1b64: 01 01        	<unknown>
    1b66: 09 60        	<unknown>
    1b68: 18 00        	<unknown>
    1b6a: 00 00        	<unknown>
    1b6c: 21 e1        	<unknown>
    1b6e: 0f 00 00 07  	fence	orw, 0
    1b72: 6e 60        	<unknown>
    1b74: 18 00        	<unknown>
    1b76: 00 01        	<unknown>
    1b78: 01 09        	<unknown>
    1b7a: 60 18        	<unknown>
    1b7c: 00 00        	<unknown>
    1b7e: 09 84        	<unknown>
    1b80: 1b 00 00 00  	sext.w	zero, zero
    1b84: 0e 60        	<unknown>
    1b86: 18 00        	<unknown>
    1b88: 00 21        	<unknown>
    1b8a: 3b 0b 00 00  	addw	s6, zero, zero
    1b8e: 07 8c 60 18  	<unknown>
    1b92: 00 00        	<unknown>
    1b94: 01 01        	<unknown>
    1b96: 09 60        	<unknown>
    1b98: 18 00        	<unknown>
    1b9a: 00 09        	<unknown>
    1b9c: 60 18        	<unknown>
    1b9e: 00 00        	<unknown>
    1ba0: 00 21        	<unknown>
    1ba2: 79 07        	<unknown>
    1ba4: 00 00        	<unknown>
    1ba6: 07 40 60 18  	<unknown>
    1baa: 00 00        	<unknown>
    1bac: 01 01        	<unknown>
    1bae: 09 60        	<unknown>
    1bb0: 18 00        	<unknown>
    1bb2: 00 00        	<unknown>
    1bb4: 21 89        	<unknown>
    1bb6: 07 00 00 07  	<unknown>
    1bba: 49 60        	<unknown>
    1bbc: 18 00        	<unknown>
    1bbe: 00 01        	<unknown>
    1bc0: 01 09        	<unknown>
    1bc2: 60 18        	<unknown>
    1bc4: 00 00        	<unknown>
    1bc6: 00 21        	<unknown>
    1bc8: e0 0b        	<unknown>
    1bca: 00 00        	<unknown>
    1bcc: 07 8f 60 18  	<unknown>
    1bd0: 00 00        	<unknown>
    1bd2: 01 01        	<unknown>
    1bd4: 09 60        	<unknown>
    1bd6: 18 00        	<unknown>
    1bd8: 00 00        	<unknown>
    1bda: 21 99        	<unknown>
    1bdc: 07 00 00 07  	<unknown>
    1be0: 42 60        	<unknown>
    1be2: 18 00        	<unknown>
    1be4: 00 01        	<unknown>
    1be6: 01 09        	<unknown>
    1be8: 60 18        	<unknown>
    1bea: 00 00        	<unknown>
    1bec: 00 21        	<unknown>
    1bee: bb 07 00 00  	addw	a5, zero, zero
    1bf2: 07 4b 60 18  	<unknown>
    1bf6: 00 00        	<unknown>
    1bf8: 01 01        	<unknown>
    1bfa: 09 60        	<unknown>
    1bfc: 18 00        	<unknown>
    1bfe: 00 00        	<unknown>
    1c00: 0a 60        	<unknown>
    1c02: 18 00        	<unknown>
    1c04: 00 1c        	<unknown>
    1c06: 0c 00        	<unknown>
    1c08: 00 09        	<unknown>
    1c0a: 96 0a        	<unknown>
    1c0c: 68 13        	<unknown>
    1c0e: 00 00        	<unknown>
    1c10: 25 0c        	<unknown>
    1c12: 00 00        	<unknown>
    1c14: 09 95        	<unknown>
    1c16: 21 68        	<unknown>
    1c18: 07 00 00 07  	<unknown>
    1c1c: 55 60        	<unknown>
    1c1e: 18 00        	<unknown>
    1c20: 00 01        	<unknown>
    1c22: 01 09        	<unknown>
    1c24: 60 18        	<unknown>
    1c26: 00 00        	<unknown>
    1c28: 00 21        	<unknown>
    1c2a: 61 07        	<unknown>
    1c2c: 00 00        	<unknown>
    1c2e: 07 55 68 13  	<unknown>
    1c32: 00 00        	<unknown>
    1c34: 01 01        	<unknown>
    1c36: 09 68        	<unknown>
    1c38: 13 00 00 00  	nop
    1c3c: 21 2d        	<unknown>
    1c3e: 0c 00        	<unknown>
    1c40: 00 07        	<unknown>
    1c42: 55 4f        	<unknown>
    1c44: 1c 00        	<unknown>
    1c46: 00 01        	<unknown>
    1c48: 01 09        	<unknown>
    1c4a: 4f 1c 00 00  	fnmadd.s	fs8, ft0, ft0, ft0, rtz
    1c4e: 00 0d        	<unknown>
    1c50: 34 0c        	<unknown>
    1c52: 00 00        	<unknown>
    1c54: 04 08        	<unknown>
    1c56: 21 88        	<unknown>
    1c58: 07 00 00 07  	<unknown>
    1c5c: 57 60 18 00  	<unknown>
    1c60: 00 01        	<unknown>
    1c62: 01 09        	<unknown>
    1c64: 60 18        	<unknown>
    1c66: 00 00        	<unknown>
    1c68: 00 21        	<unknown>
    1c6a: 81 07        	<unknown>
    1c6c: 00 00        	<unknown>
    1c6e: 07 57 68 13  	<unknown>
    1c72: 00 00        	<unknown>
    1c74: 01 01        	<unknown>
    1c76: 09 68        	<unknown>
    1c78: 13 00 00 00  	nop
    1c7c: 21 40        	<unknown>
    1c7e: 0c 00        	<unknown>
    1c80: 00 07        	<unknown>
    1c82: 57 4f 1c 00  	<unknown>
    1c86: 00 01        	<unknown>
    1c88: 01 09        	<unknown>
    1c8a: 4f 1c 00 00  	fnmadd.s	fs8, ft0, ft0, ft0, rtz
    1c8e: 00 21        	<unknown>
    1c90: ba 07        	<unknown>
    1c92: 00 00        	<unknown>
    1c94: 07 59 60 18  	<unknown>
    1c98: 00 00        	<unknown>
    1c9a: 01 01        	<unknown>
    1c9c: 09 60        	<unknown>
    1c9e: 18 00        	<unknown>
    1ca0: 00 00        	<unknown>
    1ca2: 21 b3        	<unknown>
    1ca4: 07 00 00 07  	<unknown>
    1ca8: 59 68        	<unknown>
    1caa: 13 00 00 01  	li	zero, 0x10
    1cae: 01 09        	<unknown>
    1cb0: 68 13        	<unknown>
    1cb2: 00 00        	<unknown>
    1cb4: 00 21        	<unknown>
    1cb6: 47 0c 00 00  	fmsub.s	fs8, ft0, ft0, ft0, rne
    1cba: 07 59 4f 1c  	<unknown>
    1cbe: 00 00        	<unknown>
    1cc0: 01 01        	<unknown>
    1cc2: 09 4f        	<unknown>
    1cc4: 1c 00        	<unknown>
    1cc6: 00 00        	<unknown>
    1cc8: 21 ca        	<unknown>
    1cca: 07 00 00 07  	<unknown>
    1cce: 98 60        	<unknown>
    1cd0: 18 00        	<unknown>
    1cd2: 00 01        	<unknown>
    1cd4: 01 09        	<unknown>
    1cd6: 60 18        	<unknown>
    1cd8: 00 00        	<unknown>
    1cda: 00 21        	<unknown>
    1cdc: c4 07        	<unknown>
    1cde: 00 00        	<unknown>
    1ce0: 07 98 68 13  	<unknown>
    1ce4: 00 00        	<unknown>
    1ce6: 01 01        	<unknown>
    1ce8: 09 68        	<unknown>
    1cea: 13 00 00 00  	nop
    1cee: 21 4e        	<unknown>
    1cf0: 0c 00        	<unknown>
    1cf2: 00 07        	<unknown>
    1cf4: 98 4f        	<unknown>
    1cf6: 1c 00        	<unknown>
    1cf8: 00 01        	<unknown>
    1cfa: 01 09        	<unknown>
    1cfc: 4f 1c 00 00  	fnmadd.s	fs8, ft0, ft0, ft0, rtz
    1d00: 00 21        	<unknown>
    1d02: ed 07        	<unknown>
    1d04: 00 00        	<unknown>
    1d06: 07 c4 60 18  	<unknown>
    1d0a: 00 00        	<unknown>
    1d0c: 01 01        	<unknown>
    1d0e: 09 60        	<unknown>
    1d10: 18 00        	<unknown>
    1d12: 00 09        	<unknown>
    1d14: 60 18        	<unknown>
    1d16: 00 00        	<unknown>
    1d18: 00 21        	<unknown>
    1d1a: 54 0c        	<unknown>
    1d1c: 00 00        	<unknown>
    1d1e: 07 c4 68 13  	<unknown>
    1d22: 00 00        	<unknown>
    1d24: 01 01        	<unknown>
    1d26: 09 68        	<unknown>
    1d28: 13 00 00 09  	li	zero, 0x90
    1d2c: 68 13        	<unknown>
    1d2e: 00 00        	<unknown>
    1d30: 00 21        	<unknown>
    1d32: 5e 0c        	<unknown>
    1d34: 00 00        	<unknown>
    1d36: 07 c4 4f 1c  	<unknown>
    1d3a: 00 00        	<unknown>
    1d3c: 01 01        	<unknown>
    1d3e: 09 4f        	<unknown>
    1d40: 1c 00        	<unknown>
    1d42: 00 09        	<unknown>
    1d44: 4f 1c 00 00  	fnmadd.s	fs8, ft0, ft0, ft0, rtz
    1d48: 00 21        	<unknown>
    1d4a: 39 0d        	<unknown>
    1d4c: 00 00        	<unknown>
    1d4e: 07 e4 60 18  	<unknown>
    1d52: 00 00        	<unknown>
    1d54: 01 01        	<unknown>
    1d56: 09 60        	<unknown>
    1d58: 18 00        	<unknown>
    1d5a: 00 00        	<unknown>
    1d5c: 21 0d        	<unknown>
    1d5e: 08 00        	<unknown>
    1d60: 00 07        	<unknown>
    1d62: e4 68        	<unknown>
    1d64: 13 00 00 01  	li	zero, 0x10
    1d68: 01 09        	<unknown>
    1d6a: 68 13        	<unknown>
    1d6c: 00 00        	<unknown>
    1d6e: 00 21        	<unknown>
    1d70: 68 0c        	<unknown>
    1d72: 00 00        	<unknown>
    1d74: 07 e4 4f 1c  	<unknown>
    1d78: 00 00        	<unknown>
    1d7a: 01 01        	<unknown>
    1d7c: 09 4f        	<unknown>
    1d7e: 1c 00        	<unknown>
    1d80: 00 00        	<unknown>
    1d82: 21 1c        	<unknown>
    1d84: 08 00        	<unknown>
    1d86: 00 07        	<unknown>
    1d88: e5 60        	<unknown>
    1d8a: 18 00        	<unknown>
    1d8c: 00 01        	<unknown>
    1d8e: 01 09        	<unknown>
    1d90: 60 18        	<unknown>
    1d92: 00 00        	<unknown>
    1d94: 00 21        	<unknown>
    1d96: 16 08        	<unknown>
    1d98: 00 00        	<unknown>
    1d9a: 07 e5 68 13  	<unknown>
    1d9e: 00 00        	<unknown>
    1da0: 01 01        	<unknown>
    1da2: 09 68        	<unknown>
    1da4: 13 00 00 00  	nop
    1da8: 21 6d        	<unknown>
    1daa: 0c 00        	<unknown>
    1dac: 00 07        	<unknown>
    1dae: e5 4f        	<unknown>
    1db0: 1c 00        	<unknown>
    1db2: 00 01        	<unknown>
    1db4: 01 09        	<unknown>
    1db6: 4f 1c 00 00  	fnmadd.s	fs8, ft0, ft0, ft0, rtz
    1dba: 00 21        	<unknown>
    1dbc: 34 08        	<unknown>
    1dbe: 00 00        	<unknown>
    1dc0: 07 82 60 18  	<unknown>
    1dc4: 00 00        	<unknown>
    1dc6: 01 01        	<unknown>
    1dc8: 09 60        	<unknown>
    1dca: 18 00        	<unknown>
    1dcc: 00 00        	<unknown>
    1dce: 21 2e        	<unknown>
    1dd0: 08 00        	<unknown>
    1dd2: 00 07        	<unknown>
    1dd4: 82 68        	<unknown>
    1dd6: 13 00 00 01  	li	zero, 0x10
    1dda: 01 09        	<unknown>
    1ddc: 68 13        	<unknown>
    1dde: 00 00        	<unknown>
    1de0: 00 21        	<unknown>
    1de2: 73 0c 00 00  	<unknown>
    1de6: 07 82 4f 1c  	<unknown>
    1dea: 00 00        	<unknown>
    1dec: 01 01        	<unknown>
    1dee: 09 4f        	<unknown>
    1df0: 1c 00        	<unknown>
    1df2: 00 00        	<unknown>
    1df4: 21 44        	<unknown>
    1df6: 08 00        	<unknown>
    1df8: 00 07        	<unknown>
    1dfa: 77 60 18 00  	<unknown>
    1dfe: 00 01        	<unknown>
    1e00: 01 09        	<unknown>
    1e02: 60 18        	<unknown>
    1e04: 00 00        	<unknown>
    1e06: 00 21        	<unknown>
    1e08: 3d 08        	<unknown>
    1e0a: 00 00        	<unknown>
    1e0c: 07 77 68 13  	<unknown>
    1e10: 00 00        	<unknown>
    1e12: 01 01        	<unknown>
    1e14: 09 68        	<unknown>
    1e16: 13 00 00 00  	nop
    1e1a: 21 79        	<unknown>
    1e1c: 0c 00        	<unknown>
    1e1e: 00 07        	<unknown>
    1e20: 77 4f 1c 00  	<unknown>
    1e24: 00 01        	<unknown>
    1e26: 01 09        	<unknown>
    1e28: 4f 1c 00 00  	fnmadd.s	fs8, ft0, ft0, ft0, rtz
    1e2c: 00 20        	<unknown>
    1e2e: 64 08        	<unknown>
    1e30: 00 00        	<unknown>
    1e32: 07 46 01 60  	<unknown>
    1e36: 18 00        	<unknown>
    1e38: 00 01        	<unknown>
    1e3a: 01 09        	<unknown>
    1e3c: 60 18        	<unknown>
    1e3e: 00 00        	<unknown>
    1e40: 09 60        	<unknown>
    1e42: 18 00        	<unknown>
    1e44: 00 00        	<unknown>
    1e46: 20 80        	<unknown>
    1e48: 0c 00        	<unknown>
    1e4a: 00 07        	<unknown>
    1e4c: 46 01        	<unknown>
    1e4e: 68 13        	<unknown>
    1e50: 00 00        	<unknown>
    1e52: 01 01        	<unknown>
    1e54: 09 68        	<unknown>
    1e56: 13 00 00 09  	li	zero, 0x90
    1e5a: 68 13        	<unknown>
    1e5c: 00 00        	<unknown>
    1e5e: 00 20        	<unknown>
    1e60: 86 0c        	<unknown>
    1e62: 00 00        	<unknown>
    1e64: 07 46 01 4f  	<unknown>
    1e68: 1c 00        	<unknown>
    1e6a: 00 01        	<unknown>
    1e6c: 01 09        	<unknown>
    1e6e: 4f 1c 00 00  	fnmadd.s	fs8, ft0, ft0, ft0, rtz
    1e72: 09 4f        	<unknown>
    1e74: 1c 00        	<unknown>
    1e76: 00 00        	<unknown>
    1e78: 20 85        	<unknown>
    1e7a: 08 00        	<unknown>
    1e7c: 00 07        	<unknown>
    1e7e: 4f 01 60 18  	fnmadd.s	ft2, ft0, ft6, ft3, rne
    1e82: 00 00        	<unknown>
    1e84: 01 01        	<unknown>
    1e86: 09 60        	<unknown>
    1e88: 18 00        	<unknown>
    1e8a: 00 09        	<unknown>
    1e8c: 60 18        	<unknown>
    1e8e: 00 00        	<unknown>
    1e90: 09 60        	<unknown>
    1e92: 18 00        	<unknown>
    1e94: 00 00        	<unknown>
    1e96: 20 8c        	<unknown>
    1e98: 0c 00        	<unknown>
    1e9a: 00 07        	<unknown>
    1e9c: 4f 01 68 13  	fnmadd.d	ft2, fa6, fs6, ft2, rne
    1ea0: 00 00        	<unknown>
    1ea2: 01 01        	<unknown>
    1ea4: 09 68        	<unknown>
    1ea6: 13 00 00 09  	li	zero, 0x90
    1eaa: 68 13        	<unknown>
    1eac: 00 00        	<unknown>
    1eae: 09 68        	<unknown>
    1eb0: 13 00 00 00  	nop
    1eb4: 20 91        	<unknown>
    1eb6: 0c 00        	<unknown>
    1eb8: 00 07        	<unknown>
    1eba: 4f 01 4f 1c  	<unknown>
    1ebe: 00 00        	<unknown>
    1ec0: 01 01        	<unknown>
    1ec2: 09 4f        	<unknown>
    1ec4: 1c 00        	<unknown>
    1ec6: 00 09        	<unknown>
    1ec8: 4f 1c 00 00  	fnmadd.s	fs8, ft0, ft0, ft0, rtz
    1ecc: 09 4f        	<unknown>
    1ece: 1c 00        	<unknown>
    1ed0: 00 00        	<unknown>
    1ed2: 20 94        	<unknown>
    1ed4: 08 00        	<unknown>
    1ed6: 00 07        	<unknown>
    1ed8: 49 01        	<unknown>
    1eda: 60 18        	<unknown>
    1edc: 00 00        	<unknown>
    1ede: 01 01        	<unknown>
    1ee0: 09 60        	<unknown>
    1ee2: 18 00        	<unknown>
    1ee4: 00 09        	<unknown>
    1ee6: 60 18        	<unknown>
    1ee8: 00 00        	<unknown>
    1eea: 00 20        	<unknown>
    1eec: 96 0c        	<unknown>
    1eee: 00 00        	<unknown>
    1ef0: 07 49 01 68  	<unknown>
    1ef4: 13 00 00 01  	li	zero, 0x10
    1ef8: 01 09        	<unknown>
    1efa: 68 13        	<unknown>
    1efc: 00 00        	<unknown>
    1efe: 09 68        	<unknown>
    1f00: 13 00 00 00  	nop
    1f04: 20 9c        	<unknown>
    1f06: 0c 00        	<unknown>
    1f08: 00 07        	<unknown>
    1f0a: 49 01        	<unknown>
    1f0c: 4f 1c 00 00  	fnmadd.s	fs8, ft0, ft0, ft0, rtz
    1f10: 01 01        	<unknown>
    1f12: 09 4f        	<unknown>
    1f14: 1c 00        	<unknown>
    1f16: 00 09        	<unknown>
    1f18: 4f 1c 00 00  	fnmadd.s	fs8, ft0, ft0, ft0, rtz
    1f1c: 00 20        	<unknown>
    1f1e: a4 08        	<unknown>
    1f20: 00 00        	<unknown>
    1f22: 07 4c 01 60  	<unknown>
    1f26: 18 00        	<unknown>
    1f28: 00 01        	<unknown>
    1f2a: 01 09        	<unknown>
    1f2c: 60 18        	<unknown>
    1f2e: 00 00        	<unknown>
    1f30: 09 60        	<unknown>
    1f32: 18 00        	<unknown>
    1f34: 00 00        	<unknown>
    1f36: 20 a2        	<unknown>
    1f38: 0c 00        	<unknown>
    1f3a: 00 07        	<unknown>
    1f3c: 4c 01        	<unknown>
    1f3e: 68 13        	<unknown>
    1f40: 00 00        	<unknown>
    1f42: 01 01        	<unknown>
    1f44: 09 68        	<unknown>
    1f46: 13 00 00 09  	li	zero, 0x90
    1f4a: 68 13        	<unknown>
    1f4c: 00 00        	<unknown>
    1f4e: 00 20        	<unknown>
    1f50: a8 0c        	<unknown>
    1f52: 00 00        	<unknown>
    1f54: 07 4c 01 4f  	<unknown>
    1f58: 1c 00        	<unknown>
    1f5a: 00 01        	<unknown>
    1f5c: 01 09        	<unknown>
    1f5e: 4f 1c 00 00  	fnmadd.s	fs8, ft0, ft0, ft0, rtz
    1f62: 09 4f        	<unknown>
    1f64: 1c 00        	<unknown>
    1f66: 00 00        	<unknown>
    1f68: 21 f4        	<unknown>
    1f6a: 08 00        	<unknown>
    1f6c: 00 07        	<unknown>
    1f6e: 93 60 18 00  	ori	ra, a6, 0x1
    1f72: 00 01        	<unknown>
    1f74: 01 09        	<unknown>
    1f76: 60 18        	<unknown>
    1f78: 00 00        	<unknown>
    1f7a: 09 60        	<unknown>
    1f7c: 18 00        	<unknown>
    1f7e: 00 00        	<unknown>
    1f80: 21 ae        	<unknown>
    1f82: 0c 00        	<unknown>
    1f84: 00 07        	<unknown>
    1f86: 93 68 13 00  	ori	a7, t1, 0x1
    1f8a: 00 01        	<unknown>
    1f8c: 01 09        	<unknown>
    1f8e: 68 13        	<unknown>
    1f90: 00 00        	<unknown>
    1f92: 09 68        	<unknown>
    1f94: 13 00 00 00  	nop
    1f98: 21 b5        	<unknown>
    1f9a: 0c 00        	<unknown>
    1f9c: 00 07        	<unknown>
    1f9e: 93 4f 1c 00  	xori	t6, s8, 0x1
    1fa2: 00 01        	<unknown>
    1fa4: 01 09        	<unknown>
    1fa6: 4f 1c 00 00  	fnmadd.s	fs8, ft0, ft0, ft0, rtz
    1faa: 09 4f        	<unknown>
    1fac: 1c 00        	<unknown>
    1fae: 00 00        	<unknown>
    1fb0: 20 05        	<unknown>
    1fb2: 09 00        	<unknown>
    1fb4: 00 07        	<unknown>
    1fb6: 18 01        	<unknown>
    1fb8: 4b 13 00 00  	fnmsub.s	ft6, ft0, ft0, ft0, rtz
    1fbc: 01 01        	<unknown>
    1fbe: 09 60        	<unknown>
    1fc0: 18 00        	<unknown>
    1fc2: 00 00        	<unknown>
    1fc4: 20 fe        	<unknown>
    1fc6: 08 00        	<unknown>
    1fc8: 00 07        	<unknown>
    1fca: 18 01        	<unknown>
    1fcc: 4b 13 00 00  	fnmsub.s	ft6, ft0, ft0, ft0, rtz
    1fd0: 01 01        	<unknown>
    1fd2: 09 68        	<unknown>
    1fd4: 13 00 00 00  	nop
    1fd8: 20 bc        	<unknown>
    1fda: 0c 00        	<unknown>
    1fdc: 00 07        	<unknown>
    1fde: 18 01        	<unknown>
    1fe0: 4b 13 00 00  	fnmsub.s	ft6, ft0, ft0, ft0, rtz
    1fe4: 01 01        	<unknown>
    1fe6: 09 4f        	<unknown>
    1fe8: 1c 00        	<unknown>
    1fea: 00 00        	<unknown>
    1fec: 21 3c        	<unknown>
    1fee: 0a 00        	<unknown>
    1ff0: 00 07        	<unknown>
    1ff2: e6 60        	<unknown>
    1ff4: 18 00        	<unknown>
    1ff6: 00 01        	<unknown>
    1ff8: 01 09        	<unknown>
    1ffa: 60 18        	<unknown>
    1ffc: 00 00        	<unknown>
    1ffe: 00 21        	<unknown>
    2000: 34 0a        	<unknown>
    2002: 00 00        	<unknown>
    2004: 07 e6 68 13  	<unknown>
    2008: 00 00        	<unknown>
    200a: 01 01        	<unknown>
    200c: 09 68        	<unknown>
    200e: 13 00 00 00  	nop
    2012: 21 c3        	<unknown>
    2014: 0c 00        	<unknown>
    2016: 00 07        	<unknown>
    2018: e6 4f        	<unknown>
    201a: 1c 00        	<unknown>
    201c: 00 01        	<unknown>
    201e: 01 09        	<unknown>
    2020: 4f 1c 00 00  	fnmadd.s	fs8, ft0, ft0, ft0, rtz
    2024: 00 20        	<unknown>
    2026: 60 0a        	<unknown>
    2028: 00 00        	<unknown>
    202a: 07 3c 01 5d  	fld	fs8, 0x5d0(sp)
    202e: 17 00 00 01  	auipc	zero, 0x1000
    2032: 01 09        	<unknown>
    2034: 60 18        	<unknown>
    2036: 00 00        	<unknown>
    2038: 00 20        	<unknown>
    203a: 58 0a        	<unknown>
    203c: 00 00        	<unknown>
    203e: 07 3c 01 5d  	fld	fs8, 0x5d0(sp)
    2042: 17 00 00 01  	auipc	zero, 0x1000
    2046: 01 09        	<unknown>
    2048: 68 13        	<unknown>
    204a: 00 00        	<unknown>
    204c: 00 20        	<unknown>
    204e: cb 0c 00 00  	fnmsub.s	fs9, ft0, ft0, ft0, rne
    2052: 07 3c 01 5d  	fld	fs8, 0x5d0(sp)
    2056: 17 00 00 01  	auipc	zero, 0x1000
    205a: 01 09        	<unknown>
    205c: 4f 1c 00 00  	fnmadd.s	fs8, ft0, ft0, ft0, rtz
    2060: 00 20        	<unknown>
    2062: d3 0a 00 00  	fadd.s	fs5, ft0, ft0, rne
    2066: 07 42 01 5d  	<unknown>
    206a: 17 00 00 01  	auipc	zero, 0x1000
    206e: 01 09        	<unknown>
    2070: 60 18        	<unknown>
    2072: 00 00        	<unknown>
    2074: 00 20        	<unknown>
    2076: ca 0a        	<unknown>
    2078: 00 00        	<unknown>
    207a: 07 42 01 5d  	<unknown>
    207e: 17 00 00 01  	auipc	zero, 0x1000
    2082: 01 09        	<unknown>
    2084: 68 13        	<unknown>
    2086: 00 00        	<unknown>
    2088: 00 20        	<unknown>
    208a: d3 0c 00 00  	fadd.s	fs9, ft0, ft0, rne
    208e: 07 42 01 5d  	<unknown>
    2092: 17 00 00 01  	auipc	zero, 0x1000
    2096: 01 09        	<unknown>
    2098: 4f 1c 00 00  	fnmadd.s	fs8, ft0, ft0, ft0, rtz
    209c: 00 21        	<unknown>
    209e: 90 0a        	<unknown>
    20a0: 00 00        	<unknown>
    20a2: 07 7a 60 18  	<unknown>
    20a6: 00 00        	<unknown>
    20a8: 01 01        	<unknown>
    20aa: 09 60        	<unknown>
    20ac: 18 00        	<unknown>
    20ae: 00 00        	<unknown>
    20b0: 21 89        	<unknown>
    20b2: 0a 00        	<unknown>
    20b4: 00 07        	<unknown>
    20b6: 7a 68        	<unknown>
    20b8: 13 00 00 01  	li	zero, 0x10
    20bc: 01 09        	<unknown>
    20be: 68 13        	<unknown>
    20c0: 00 00        	<unknown>
    20c2: 00 21        	<unknown>
    20c4: dc 0c        	<unknown>
    20c6: 00 00        	<unknown>
    20c8: 07 7a 4f 1c  	<unknown>
    20cc: 00 00        	<unknown>
    20ce: 01 01        	<unknown>
    20d0: 09 4f        	<unknown>
    20d2: 1c 00        	<unknown>
    20d4: 00 00        	<unknown>
    20d6: 21 a0        	<unknown>
    20d8: 0a 00        	<unknown>
    20da: 00 07        	<unknown>
    20dc: 85 60        	<unknown>
    20de: 18 00        	<unknown>
    20e0: 00 01        	<unknown>
    20e2: 01 09        	<unknown>
    20e4: 60 18        	<unknown>
    20e6: 00 00        	<unknown>
    20e8: 00 21        	<unknown>
    20ea: 9a 0a        	<unknown>
    20ec: 00 00        	<unknown>
    20ee: 07 85 68 13  	<unknown>
    20f2: 00 00        	<unknown>
    20f4: 01 01        	<unknown>
    20f6: 09 68        	<unknown>
    20f8: 13 00 00 00  	nop
    20fc: 21 e3        	<unknown>
    20fe: 0c 00        	<unknown>
    2100: 00 07        	<unknown>
    2102: 85 4f        	<unknown>
    2104: 1c 00        	<unknown>
    2106: 00 01        	<unknown>
    2108: 01 09        	<unknown>
    210a: 4f 1c 00 00  	fnmadd.s	fs8, ft0, ft0, ft0, rtz
    210e: 00 21        	<unknown>
    2110: 06 09        	<unknown>
    2112: 00 00        	<unknown>
    2114: 07 7d 60 18  	<unknown>
    2118: 00 00        	<unknown>
    211a: 01 01        	<unknown>
    211c: 09 60        	<unknown>
    211e: 18 00        	<unknown>
    2120: 00 00        	<unknown>
    2122: 21 a9        	<unknown>
    2124: 0a 00        	<unknown>
    2126: 00 07        	<unknown>
    2128: 7d 68        	<unknown>
    212a: 13 00 00 01  	li	zero, 0x10
    212e: 01 09        	<unknown>
    2130: 68 13        	<unknown>
    2132: 00 00        	<unknown>
    2134: 00 21        	<unknown>
    2136: bd 0c        	<unknown>
    2138: 00 00        	<unknown>
    213a: 07 7d 4f 1c  	<unknown>
    213e: 00 00        	<unknown>
    2140: 01 01        	<unknown>
    2142: 09 4f        	<unknown>
    2144: 1c 00        	<unknown>
    2146: 00 00        	<unknown>
    2148: 20 61        	<unknown>
    214a: 0a 00        	<unknown>
    214c: 00 07        	<unknown>
    214e: 3a 01        	<unknown>
    2150: 0f 17 00 00  	<unknown>
    2154: 01 01        	<unknown>
    2156: 09 60        	<unknown>
    2158: 18 00        	<unknown>
    215a: 00 00        	<unknown>
    215c: 20 b3        	<unknown>
    215e: 0a 00        	<unknown>
    2160: 00 07        	<unknown>
    2162: 3a 01        	<unknown>
    2164: 0f 17 00 00  	<unknown>
    2168: 01 01        	<unknown>
    216a: 09 68        	<unknown>
    216c: 13 00 00 00  	nop
    2170: 20 cc        	<unknown>
    2172: 0c 00        	<unknown>
    2174: 00 07        	<unknown>
    2176: 3a 01        	<unknown>
    2178: 0f 17 00 00  	<unknown>
    217c: 01 01        	<unknown>
    217e: 09 4f        	<unknown>
    2180: 1c 00        	<unknown>
    2182: 00 00        	<unknown>
    2184: 20 d4        	<unknown>
    2186: 0a 00        	<unknown>
    2188: 00 07        	<unknown>
    218a: 40 01        	<unknown>
    218c: 0f 17 00 00  	<unknown>
    2190: 01 01        	<unknown>
    2192: 09 60        	<unknown>
    2194: 18 00        	<unknown>
    2196: 00 00        	<unknown>
    2198: 20 be        	<unknown>
    219a: 0a 00        	<unknown>
    219c: 00 07        	<unknown>
    219e: 40 01        	<unknown>
    21a0: 0f 17 00 00  	<unknown>
    21a4: 01 01        	<unknown>
    21a6: 09 68        	<unknown>
    21a8: 13 00 00 00  	nop
    21ac: 20 d4        	<unknown>
    21ae: 0c 00        	<unknown>
    21b0: 00 07        	<unknown>
    21b2: 40 01        	<unknown>
    21b4: 0f 17 00 00  	<unknown>
    21b8: 01 01        	<unknown>
    21ba: 09 4f        	<unknown>
    21bc: 1c 00        	<unknown>
    21be: 00 00        	<unknown>
    21c0: 21 da        	<unknown>
    21c2: 09 00        	<unknown>
    21c4: 00 07        	<unknown>
    21c6: c9 60        	<unknown>
    21c8: 18 00        	<unknown>
    21ca: 00 01        	<unknown>
    21cc: 01 09        	<unknown>
    21ce: 67 18 00 00  	<unknown>
    21d2: 00 21        	<unknown>
    21d4: d3 09 00 00  	fadd.s	fs3, ft0, ft0, rne
    21d8: 07 c9 68 13  	<unknown>
    21dc: 00 00        	<unknown>
    21de: 01 01        	<unknown>
    21e0: 09 67        	<unknown>
    21e2: 18 00        	<unknown>
    21e4: 00 00        	<unknown>
    21e6: 21 e9        	<unknown>
    21e8: 0c 00        	<unknown>
    21ea: 00 07        	<unknown>
    21ec: c9 4f        	<unknown>
    21ee: 1c 00        	<unknown>
    21f0: 00 01        	<unknown>
    21f2: 01 09        	<unknown>
    21f4: 67 18 00 00  	<unknown>
    21f8: 00 20        	<unknown>
    21fa: 0d 0b        	<unknown>
    21fc: 00 00        	<unknown>
    21fe: 07 26 01 60  	flw	fa2, 0x600(sp)
    2202: 18 00        	<unknown>
    2204: 00 01        	<unknown>
    2206: 01 09        	<unknown>
    2208: 60 18        	<unknown>
    220a: 00 00        	<unknown>
    220c: 00 20        	<unknown>
    220e: 02 0b        	<unknown>
    2210: 00 00        	<unknown>
    2212: 07 26 01 68  	flw	fa2, 0x680(sp)
    2216: 13 00 00 01  	li	zero, 0x10
    221a: 01 09        	<unknown>
    221c: 68 13        	<unknown>
    221e: 00 00        	<unknown>
    2220: 00 20        	<unknown>
    2222: ee 0c        	<unknown>
    2224: 00 00        	<unknown>
    2226: 07 26 01 4f  	flw	fa2, 0x4f0(sp)
    222a: 1c 00        	<unknown>
    222c: 00 01        	<unknown>
    222e: 01 09        	<unknown>
    2230: 4f 1c 00 00  	fnmadd.s	fs8, ft0, ft0, ft0, rtz
    2234: 00 20        	<unknown>
    2236: 27 0b 00 00  	<unknown>
    223a: 07 03 01 60  	<unknown>
    223e: 18 00        	<unknown>
    2240: 00 01        	<unknown>
    2242: 01 09        	<unknown>
    2244: 60 18        	<unknown>
    2246: 00 00        	<unknown>
    2248: 09 60        	<unknown>
    224a: 18 00        	<unknown>
    224c: 00 00        	<unknown>
    224e: 20 f9        	<unknown>
    2250: 0c 00        	<unknown>
    2252: 00 07        	<unknown>
    2254: 03 01 68 13  	lb	sp, 0x136(a6)
    2258: 00 00        	<unknown>
    225a: 01 01        	<unknown>
    225c: 09 68        	<unknown>
    225e: 13 00 00 09  	li	zero, 0x90
    2262: 68 13        	<unknown>
    2264: 00 00        	<unknown>
    2266: 00 20        	<unknown>
    2268: 04 0d        	<unknown>
    226a: 00 00        	<unknown>
    226c: 07 03 01 4f  	<unknown>
    2270: 1c 00        	<unknown>
    2272: 00 01        	<unknown>
    2274: 01 09        	<unknown>
    2276: 4f 1c 00 00  	fnmadd.s	fs8, ft0, ft0, ft0, rtz
    227a: 09 4f        	<unknown>
    227c: 1c 00        	<unknown>
    227e: 00 00        	<unknown>
    2280: 20 0f        	<unknown>
    2282: 0d 00        	<unknown>
    2284: 00 07        	<unknown>
    2286: 05 01        	<unknown>
    2288: 60 18        	<unknown>
    228a: 00 00        	<unknown>
    228c: 01 01        	<unknown>
    228e: 09 60        	<unknown>
    2290: 18 00        	<unknown>
    2292: 00 09        	<unknown>
    2294: 4f 1c 00 00  	fnmadd.s	fs8, ft0, ft0, ft0, rtz
    2298: 00 20        	<unknown>
    229a: 1a 0d        	<unknown>
    229c: 00 00        	<unknown>
    229e: 07 05 01 68  	<unknown>
    22a2: 13 00 00 01  	li	zero, 0x10
    22a6: 01 09        	<unknown>
    22a8: 68 13        	<unknown>
    22aa: 00 00        	<unknown>
    22ac: 09 4f        	<unknown>
    22ae: 1c 00        	<unknown>
    22b0: 00 00        	<unknown>
    22b2: 20 26        	<unknown>
    22b4: 0d 00        	<unknown>
    22b6: 00 07        	<unknown>
    22b8: 05 01        	<unknown>
    22ba: 4f 1c 00 00  	fnmadd.s	fs8, ft0, ft0, ft0, rtz
    22be: 01 01        	<unknown>
    22c0: 09 4f        	<unknown>
    22c2: 1c 00        	<unknown>
    22c4: 00 09        	<unknown>
    22c6: 4f 1c 00 00  	fnmadd.s	fs8, ft0, ft0, ft0, rtz
    22ca: 00 20        	<unknown>
    22cc: 4f 0b 00 00  	fnmadd.s	fs6, ft0, ft0, ft0, rne
    22d0: 07 10 01 60  	<unknown>
    22d4: 18 00        	<unknown>
    22d6: 00 01        	<unknown>
    22d8: 01 09        	<unknown>
    22da: 60 18        	<unknown>
    22dc: 00 00        	<unknown>
    22de: 09 60        	<unknown>
    22e0: 18 00        	<unknown>
    22e2: 00 00        	<unknown>
    22e4: 20 32        	<unknown>
    22e6: 0d 00        	<unknown>
    22e8: 00 07        	<unknown>
    22ea: 10 01        	<unknown>
    22ec: 68 13        	<unknown>
    22ee: 00 00        	<unknown>
    22f0: 01 01        	<unknown>
    22f2: 09 68        	<unknown>
    22f4: 13 00 00 09  	li	zero, 0x90
    22f8: 68 13        	<unknown>
    22fa: 00 00        	<unknown>
    22fc: 00 20        	<unknown>
    22fe: 3d 0d        	<unknown>
    2300: 00 00        	<unknown>
    2302: 07 10 01 4f  	<unknown>
    2306: 1c 00        	<unknown>
    2308: 00 01        	<unknown>
    230a: 01 09        	<unknown>
    230c: 4f 1c 00 00  	fnmadd.s	fs8, ft0, ft0, ft0, rtz
    2310: 09 4f        	<unknown>
    2312: 1c 00        	<unknown>
    2314: 00 00        	<unknown>
    2316: 20 68        	<unknown>
    2318: 0b 00 00 07  	<unknown>
    231c: 33 01 60 18  	<unknown>
    2320: 00 00        	<unknown>
    2322: 01 01        	<unknown>
    2324: 09 60        	<unknown>
    2326: 18 00        	<unknown>
    2328: 00 09        	<unknown>
    232a: 60 18        	<unknown>
    232c: 00 00        	<unknown>
    232e: 09 c2        	<unknown>
    2330: 15 00        	<unknown>
    2332: 00 00        	<unknown>
    2334: 20 48        	<unknown>
    2336: 0d 00        	<unknown>
    2338: 00 07        	<unknown>
    233a: 33 01 68 13  	<unknown>
    233e: 00 00        	<unknown>
    2340: 01 01        	<unknown>
    2342: 09 68        	<unknown>
    2344: 13 00 00 09  	li	zero, 0x90
    2348: 68 13        	<unknown>
    234a: 00 00        	<unknown>
    234c: 09 c2        	<unknown>
    234e: 15 00        	<unknown>
    2350: 00 00        	<unknown>
    2352: 20 50        	<unknown>
    2354: 0d 00        	<unknown>
    2356: 00 07        	<unknown>
    2358: 33 01 4f 1c  	<unknown>
    235c: 00 00        	<unknown>
    235e: 01 01        	<unknown>
    2360: 09 4f        	<unknown>
    2362: 1c 00        	<unknown>
    2364: 00 09        	<unknown>
    2366: 4f 1c 00 00  	fnmadd.s	fs8, ft0, ft0, ft0, rtz
    236a: 09 c2        	<unknown>
    236c: 15 00        	<unknown>
    236e: 00 00        	<unknown>
    2370: 20 62        	<unknown>
    2372: 0a 00        	<unknown>
    2374: 00 07        	<unknown>
    2376: 00 01        	<unknown>
    2378: 60 18        	<unknown>
    237a: 00 00        	<unknown>
    237c: 01 01        	<unknown>
    237e: 09 60        	<unknown>
    2380: 18 00        	<unknown>
    2382: 00 00        	<unknown>
    2384: 20 73        	<unknown>
    2386: 0b 00 00 07  	<unknown>
    238a: 00 01        	<unknown>
    238c: 68 13        	<unknown>
    238e: 00 00        	<unknown>
    2390: 01 01        	<unknown>
    2392: 09 68        	<unknown>
    2394: 13 00 00 00  	nop
    2398: 20 cd        	<unknown>
    239a: 0c 00        	<unknown>
    239c: 00 07        	<unknown>
    239e: 00 01        	<unknown>
    23a0: 4f 1c 00 00  	fnmadd.s	fs8, ft0, ft0, ft0, rtz
    23a4: 01 01        	<unknown>
    23a6: 09 4f        	<unknown>
    23a8: 1c 00        	<unknown>
    23aa: 00 00        	<unknown>
    23ac: 20 d5        	<unknown>
    23ae: 0a 00        	<unknown>
    23b0: 00 07        	<unknown>
    23b2: 2a 01        	<unknown>
    23b4: 60 18        	<unknown>
    23b6: 00 00        	<unknown>
    23b8: 01 01        	<unknown>
    23ba: 09 60        	<unknown>
    23bc: 18 00        	<unknown>
    23be: 00 00        	<unknown>
    23c0: 20 7d        	<unknown>
    23c2: 0b 00 00 07  	<unknown>
    23c6: 2a 01        	<unknown>
    23c8: 68 13        	<unknown>
    23ca: 00 00        	<unknown>
    23cc: 01 01        	<unknown>
    23ce: 09 68        	<unknown>
    23d0: 13 00 00 00  	nop
    23d4: 20 d5        	<unknown>
    23d6: 0c 00        	<unknown>
    23d8: 00 07        	<unknown>
    23da: 2a 01        	<unknown>
    23dc: 4f 1c 00 00  	fnmadd.s	fs8, ft0, ft0, ft0, rtz
    23e0: 01 01        	<unknown>
    23e2: 09 4f        	<unknown>
    23e4: 1c 00        	<unknown>
    23e6: 00 00        	<unknown>
    23e8: 20 92        	<unknown>
    23ea: 0b 00 00 07  	<unknown>
    23ee: 22 01        	<unknown>
    23f0: 60 18        	<unknown>
    23f2: 00 00        	<unknown>
    23f4: 01 01        	<unknown>
    23f6: 09 60        	<unknown>
    23f8: 18 00        	<unknown>
    23fa: 00 09        	<unknown>
    23fc: 0f 17 00 00  	<unknown>
    2400: 00 20        	<unknown>
    2402: 58 0d        	<unknown>
    2404: 00 00        	<unknown>
    2406: 07 22 01 68  	flw	ft4, 0x680(sp)
    240a: 13 00 00 01  	li	zero, 0x10
    240e: 01 09        	<unknown>
    2410: 68 13        	<unknown>
    2412: 00 00        	<unknown>
    2414: 09 0f        	<unknown>
    2416: 17 00 00 00  	auipc	zero, 0x0
    241a: 20 61        	<unknown>
    241c: 0d 00        	<unknown>
    241e: 00 07        	<unknown>
    2420: 22 01        	<unknown>
    2422: 4f 1c 00 00  	fnmadd.s	fs8, ft0, ft0, ft0, rtz
    2426: 01 01        	<unknown>
    2428: 09 4f        	<unknown>
    242a: 1c 00        	<unknown>
    242c: 00 09        	<unknown>
    242e: 0f 17 00 00  	<unknown>
    2432: 00 20        	<unknown>
    2434: a7 0b 00 00  	<unknown>
    2438: 07 14 01 60  	<unknown>
    243c: 18 00        	<unknown>
    243e: 00 01        	<unknown>
    2440: 01 09        	<unknown>
    2442: 60 18        	<unknown>
    2444: 00 00        	<unknown>
    2446: 09 4b        	<unknown>
    2448: 13 00 00 00  	nop
    244c: 20 6a        	<unknown>
    244e: 0d 00        	<unknown>
    2450: 00 07        	<unknown>
    2452: 14 01        	<unknown>
    2454: 68 13        	<unknown>
    2456: 00 00        	<unknown>
    2458: 01 01        	<unknown>
    245a: 09 68        	<unknown>
    245c: 13 00 00 09  	li	zero, 0x90
    2460: 4b 13 00 00  	fnmsub.s	ft6, ft0, ft0, ft0, rtz
    2464: 00 20        	<unknown>
    2466: 72 0d        	<unknown>
    2468: 00 00        	<unknown>
    246a: 07 14 01 4f  	<unknown>
    246e: 1c 00        	<unknown>
    2470: 00 01        	<unknown>
    2472: 01 09        	<unknown>
    2474: 4f 1c 00 00  	fnmadd.s	fs8, ft0, ft0, ft0, rtz
    2478: 09 4b        	<unknown>
    247a: 13 00 00 00  	nop
    247e: 21 04        	<unknown>
    2480: 0c 00        	<unknown>
    2482: 00 07        	<unknown>
    2484: eb 60 18 00  	<unknown>
    2488: 00 01        	<unknown>
    248a: 01 09        	<unknown>
    248c: 60 18        	<unknown>
    248e: 00 00        	<unknown>
    2490: 00 21        	<unknown>
    2492: fc 0b        	<unknown>
    2494: 00 00        	<unknown>
    2496: 07 eb 68 13  	<unknown>
    249a: 00 00        	<unknown>
    249c: 01 01        	<unknown>
    249e: 09 68        	<unknown>
    24a0: 13 00 00 00  	nop
    24a4: 21 7a        	<unknown>
    24a6: 0d 00        	<unknown>
    24a8: 00 07        	<unknown>
    24aa: eb 4f 1c 00  	<unknown>
    24ae: 00 01        	<unknown>
    24b0: 01 09        	<unknown>
    24b2: 4f 1c 00 00  	fnmadd.s	fs8, ft0, ft0, ft0, rtz
    24b6: 00 20        	<unknown>
    24b8: 16 0c        	<unknown>
    24ba: 00 00        	<unknown>
    24bc: 07 2e 01 60  	flw	ft8, 0x600(sp)
    24c0: 18 00        	<unknown>
    24c2: 00 01        	<unknown>
    24c4: 01 09        	<unknown>
    24c6: 60 18        	<unknown>
    24c8: 00 00        	<unknown>
    24ca: 00 20        	<unknown>
    24cc: 0f 0c 00 00  	<unknown>
    24d0: 07 2e 01 68  	flw	ft8, 0x680(sp)
    24d4: 13 00 00 01  	li	zero, 0x10
    24d8: 01 09        	<unknown>
    24da: 68 13        	<unknown>
    24dc: 00 00        	<unknown>
    24de: 00 20        	<unknown>
    24e0: 82 0d        	<unknown>
    24e2: 00 00        	<unknown>
    24e4: 07 2e 01 4f  	flw	ft8, 0x4f0(sp)
    24e8: 1c 00        	<unknown>
    24ea: 00 01        	<unknown>
    24ec: 01 09        	<unknown>
    24ee: 4f 1c 00 00  	fnmadd.s	fs8, ft0, ft0, ft0, rtz
    24f2: 00 0a        	<unknown>
    24f4: fe 24        	<unknown>
    24f6: 00 00        	<unknown>
    24f8: 6c 0e        	<unknown>
    24fa: 00 00        	<unknown>
    24fc: 05 3e        	<unknown>
    24fe: 22 01        	<unknown>
    2500: 0a 0b        	<unknown>
    2502: 25 00        	<unknown>
    2504: 00 6b        	<unknown>
    2506: 0e 00        	<unknown>
    2508: 00 05        	<unknown>
    250a: 46 23        	<unknown>
    250c: 05 10        	<unknown>
    250e: 05 42        	<unknown>
    2510: 06 89        	<unknown>
    2512: 0d 00        	<unknown>
    2514: 00 0f        	<unknown>
    2516: 17 00 00 05  	auipc	zero, 0x5000
    251a: 44 02        	<unknown>
    251c: 23 00 06 8e  	sb	zero, -0x720(a2)
    2520: 0d 00        	<unknown>
    2522: 00 0f        	<unknown>
    2524: 17 00 00 05  	auipc	zero, 0x5000
    2528: 45 02        	<unknown>
    252a: 23 08 00 24  	sb	zero, 0x250(zero)
    252e: 92 0d        	<unknown>
    2530: 00 00        	<unknown>
    2532: 05 4f        	<unknown>
    2534: 02 01        	<unknown>
    2536: 01 01        	<unknown>
    2538: 20 98        	<unknown>
    253a: 0d 00        	<unknown>
    253c: 00 05        	<unknown>
    253e: 53 02 4b 13  	fmul.d	ft4, fs6, fs4, rne
    2542: 00 00        	<unknown>
    2544: 01 01        	<unknown>
    2546: 09 4c        	<unknown>
    2548: 25 00        	<unknown>
    254a: 00 00        	<unknown>
    254c: 0e 51        	<unknown>
    254e: 25 00        	<unknown>
    2550: 00 25        	<unknown>
    2552: 20 9f        	<unknown>
    2554: 0d 00        	<unknown>
    2556: 00 05        	<unknown>
    2558: 58 02        	<unknown>
    255a: 4b 13 00 00  	fnmsub.s	ft6, ft0, ft0, ft0, rtz
    255e: 01 01        	<unknown>
    2560: 09 4c        	<unknown>
    2562: 25 00        	<unknown>
    2564: 00 00        	<unknown>
    2566: 21 ad        	<unknown>
    2568: 0d 00        	<unknown>
    256a: 00 05        	<unknown>
    256c: 65 60        	<unknown>
    256e: 18 00        	<unknown>
    2570: 00 01        	<unknown>
    2572: 01 09        	<unknown>
    2574: 67 18 00 00  	<unknown>
    2578: 00 21        	<unknown>
    257a: b2 0d        	<unknown>
    257c: 00 00        	<unknown>
    257e: 05 68        	<unknown>
    2580: 4b 13 00 00  	fnmsub.s	ft6, ft0, ft0, ft0, rtz
    2584: 01 01        	<unknown>
    2586: 09 67        	<unknown>
    2588: 18 00        	<unknown>
    258a: 00 00        	<unknown>
    258c: 21 b7        	<unknown>
    258e: 0d 00        	<unknown>
    2590: 00 05        	<unknown>
    2592: 6b 0f 17 00  	<unknown>
    2596: 00 01        	<unknown>
    2598: 01 09        	<unknown>
    259a: 67 18 00 00  	<unknown>
    259e: 00 20        	<unknown>
    25a0: bc 0d        	<unknown>
    25a2: 00 00        	<unknown>
    25a4: 05 34        	<unknown>
    25a6: 03 c7 25 00  	lbu	a4, 0x2(a1)
    25aa: 00 01        	<unknown>
    25ac: 01 09        	<unknown>
    25ae: c8 25        	<unknown>
    25b0: 00 00        	<unknown>
    25b2: 09 c8        	<unknown>
    25b4: 25 00        	<unknown>
    25b6: 00 09        	<unknown>
    25b8: ce 25        	<unknown>
    25ba: 00 00        	<unknown>
    25bc: 09 ce        	<unknown>
    25be: 25 00        	<unknown>
    25c0: 00 09        	<unknown>
    25c2: e0 25        	<unknown>
    25c4: 00 00        	<unknown>
    25c6: 00 26        	<unknown>
    25c8: 0e cd        	<unknown>
    25ca: 25 00        	<unknown>
    25cc: 00 27        	<unknown>
    25ce: 0a d9        	<unknown>
    25d0: 25 00        	<unknown>
    25d2: 00 d2        	<unknown>
    25d4: 0d 00        	<unknown>
    25d6: 00 0b        	<unknown>
    25d8: 12 0d        	<unknown>
    25da: c4 0d        	<unknown>
    25dc: 00 00        	<unknown>
    25de: 07 08 13 ec  	<unknown>
    25e2: 25 00        	<unknown>
    25e4: 00 d9        	<unknown>
    25e6: 0d 00        	<unknown>
    25e8: 00 05        	<unknown>
    25ea: 28 03        	<unknown>
    25ec: 0e f1        	<unknown>
    25ee: 25 00        	<unknown>
    25f0: 00 28        	<unknown>
    25f2: 4b 13 00 00  	fnmsub.s	ft6, ft0, ft0, ft0, rtz
    25f6: 09 c8        	<unknown>
    25f8: 25 00        	<unknown>
    25fa: 00 09        	<unknown>
    25fc: c8 25        	<unknown>
    25fe: 00 00        	<unknown>
    2600: 00 20        	<unknown>
    2602: e7 0d 00 00  	jalr	s11, zero <.debug_info>
    2606: 05 1e        	<unknown>
    2608: 02 c7        	<unknown>
    260a: 25 00        	<unknown>
    260c: 00 01        	<unknown>
    260e: 01 09        	<unknown>
    2610: ce 25        	<unknown>
    2612: 00 00        	<unknown>
    2614: 09 ce        	<unknown>
    2616: 25 00        	<unknown>
    2618: 00 00        	<unknown>
    261a: 20 7a        	<unknown>
    261c: 0e 00        	<unknown>
    261e: 00 05        	<unknown>
    2620: 54 03        	<unknown>
    2622: f3 24 00 00  	csrr	s1, 0x0
    2626: 01 01        	<unknown>
    2628: 09 4b        	<unknown>
    262a: 13 00 00 09  	li	zero, 0x90
    262e: 4b 13 00 00  	fnmsub.s	ft6, ft0, ft0, ft0, rtz
    2632: 00 29        	<unknown>
    2634: a8 0d        	<unknown>
    2636: 00 00        	<unknown>
    2638: 05 69        	<unknown>
    263a: 02 01        	<unknown>
    263c: 01 01        	<unknown>
    263e: 09 4b        	<unknown>
    2640: 13 00 00 00  	nop
    2644: 11 ee        	<unknown>
    2646: 0d 00        	<unknown>
    2648: 00 05        	<unknown>
    264a: 35 02        	<unknown>
    264c: 01 01        	<unknown>
    264e: 09 c7        	<unknown>
    2650: 25 00        	<unknown>
    2652: 00 00        	<unknown>
    2654: 20 f3        	<unknown>
    2656: 0d 00        	<unknown>
    2658: 00 05        	<unknown>
    265a: 7a 02        	<unknown>
    265c: 68 26        	<unknown>
    265e: 00 00        	<unknown>
    2660: 01 01        	<unknown>
    2662: 09 67        	<unknown>
    2664: 18 00        	<unknown>
    2666: 00 00        	<unknown>
    2668: 0e 71        	<unknown>
    266a: 18 00        	<unknown>
    266c: 00 20        	<unknown>
    266e: 4f 0a 00 00  	fnmadd.s	fs4, ft0, ft0, ft0, rne
    2672: 05 49        	<unknown>
    2674: 03 0f 17 00  	lb	t5, 0x1(a4)
    2678: 00 01        	<unknown>
    267a: 01 09        	<unknown>
    267c: 0f 17 00 00  	<unknown>
    2680: 00 20        	<unknown>
    2682: 79 0e        	<unknown>
    2684: 00 00        	<unknown>
    2686: 05 56        	<unknown>
    2688: 03 00 25 00  	lb	zero, 0x2(a0)
    268c: 00 01        	<unknown>
    268e: 01 09        	<unknown>
    2690: 0f 17 00 00  	<unknown>
    2694: 09 0f        	<unknown>
    2696: 17 00 00 00  	auipc	zero, 0x0
    269a: 20 fa        	<unknown>
    269c: 0d 00        	<unknown>
    269e: 00 05        	<unknown>
    26a0: 1b 02 c7 25  	addiw	tp, a4, 0x25c
    26a4: 00 00        	<unknown>
    26a6: 01 01        	<unknown>
    26a8: 09 ce        	<unknown>
    26aa: 25 00        	<unknown>
    26ac: 00 00        	<unknown>
    26ae: 20 01        	<unknown>
    26b0: 0e 00        	<unknown>
    26b2: 00 05        	<unknown>
    26b4: 9a 03        	<unknown>
    26b6: 4b 13 00 00  	fnmsub.s	ft6, ft0, ft0, ft0, rtz
    26ba: 01 01        	<unknown>
    26bc: 09 67        	<unknown>
    26be: 18 00        	<unknown>
    26c0: 00 09        	<unknown>
    26c2: ce 25        	<unknown>
    26c4: 00 00        	<unknown>
    26c6: 00 20        	<unknown>
    26c8: 07 0e 00 00  	<unknown>
    26cc: 05 a5        	<unknown>
    26ce: 03 ce 25 00  	lbu	t3, 0x2(a1)
    26d2: 00 01        	<unknown>
    26d4: 01 09        	<unknown>
    26d6: e5 26        	<unknown>
    26d8: 00 00        	<unknown>
    26da: 09 67        	<unknown>
    26dc: 18 00        	<unknown>
    26de: 00 09        	<unknown>
    26e0: ce 25        	<unknown>
    26e2: 00 00        	<unknown>
    26e4: 00 0e        	<unknown>
    26e6: ea 26        	<unknown>
    26e8: 00 00        	<unknown>
    26ea: 0d 10        	<unknown>
    26ec: 0e 00        	<unknown>
    26ee: 00 05        	<unknown>
    26f0: 04 20        	<unknown>
    26f2: 18 0e        	<unknown>
    26f4: 00 00        	<unknown>
    26f6: 05 9d        	<unknown>
    26f8: 03 4b 13 00  	lbu	s6, 0x1(t1)
    26fc: 00 01        	<unknown>
    26fe: 01 09        	<unknown>
    2700: e5 26        	<unknown>
    2702: 00 00        	<unknown>
    2704: 09 67        	<unknown>
    2706: 18 00        	<unknown>
    2708: 00 09        	<unknown>
    270a: ce 25        	<unknown>
    270c: 00 00        	<unknown>
    270e: 00 11        	<unknown>
    2710: 1f 0e 00 00  	<unknown>
    2714: 05 3e        	<unknown>
    2716: 03 01 01 09  	lb	sp, 0x90(sp)
    271a: c7 25 00 00  	fmsub.s	fa1, ft0, ft0, ft0, rdn
    271e: 09 ce        	<unknown>
    2720: 25 00        	<unknown>
    2722: 00 09        	<unknown>
    2724: ce 25        	<unknown>
    2726: 00 00        	<unknown>
    2728: 09 e0        	<unknown>
    272a: 25 00        	<unknown>
    272c: 00 00        	<unknown>
    272e: 29 a2        	<unknown>
    2730: 0d 00        	<unknown>
    2732: 00 05        	<unknown>
    2734: 6f 02 01 01  	jal	tp, 0x12744 <.debug_info+0x12744>
    2738: 01 09        	<unknown>
    273a: 4b 13 00 00  	fnmsub.s	ft6, ft0, ft0, ft0, rtz
    273e: 00 2a        	<unknown>
    2740: 2e 0e        	<unknown>
    2742: 00 00        	<unknown>
    2744: 05 c5        	<unknown>
    2746: 01 4b        	<unknown>
    2748: 13 00 00 01  	li	zero, 0x10
    274c: 01 20        	<unknown>
    274e: 25 0e        	<unknown>
    2750: 00 00        	<unknown>
    2752: 05 26        	<unknown>
    2754: 02 c7        	<unknown>
    2756: 25 00        	<unknown>
    2758: 00 01        	<unknown>
    275a: 01 09        	<unknown>
    275c: c7 25 00 00  	fmsub.s	fa1, ft0, ft0, ft0, rdn
    2760: 09 ce        	<unknown>
    2762: 25 00        	<unknown>
    2764: 00 00        	<unknown>
    2766: 11 2d        	<unknown>
    2768: 0e 00        	<unknown>
    276a: 00 05        	<unknown>
    276c: c7 01 01 01  	fmsub.s	ft3, ft2, fa6, ft0, rne
    2770: 09 ae        	<unknown>
    2772: 01 00        	<unknown>
    2774: 00 00        	<unknown>
    2776: 21 33        	<unknown>
    2778: 0e 00        	<unknown>
    277a: 00 05        	<unknown>
    277c: 75 60        	<unknown>
    277e: 18 00        	<unknown>
    2780: 00 01        	<unknown>
    2782: 01 09        	<unknown>
    2784: 67 18 00 00  	<unknown>
    2788: 09 8e        	<unknown>
    278a: 27 00 00 00  	<unknown>
    278e: 0e 68        	<unknown>
    2790: 26 00        	<unknown>
    2792: 00 21        	<unknown>
    2794: 3a 0e        	<unknown>
    2796: 00 00        	<unknown>
    2798: 05 b0        	<unknown>
    279a: 0f 17 00 00  	<unknown>
    279e: 01 01        	<unknown>
    27a0: 09 67        	<unknown>
    27a2: 18 00        	<unknown>
    27a4: 00 09        	<unknown>
    27a6: 8e 27        	<unknown>
    27a8: 00 00        	<unknown>
    27aa: 09 4b        	<unknown>
    27ac: 13 00 00 00  	nop
    27b0: 21 41        	<unknown>
    27b2: 0e 00        	<unknown>
    27b4: 00 05        	<unknown>
    27b6: b4 d9        	<unknown>
    27b8: 25 00        	<unknown>
    27ba: 00 01        	<unknown>
    27bc: 01 09        	<unknown>
    27be: 67 18 00 00  	<unknown>
    27c2: 09 8e        	<unknown>
    27c4: 27 00 00 09  	<unknown>
    27c8: 4b 13 00 00  	fnmsub.s	ft6, ft0, ft0, ft0, rtz
    27cc: 00 20        	<unknown>
    27ce: 49 0e        	<unknown>
    27d0: 00 00        	<unknown>
    27d2: 05 10        	<unknown>
    27d4: 03 4b 13 00  	lbu	s6, 0x1(t1)
    27d8: 00 01        	<unknown>
    27da: 01 09        	<unknown>
    27dc: 67 18 00 00  	<unknown>
    27e0: 00 20        	<unknown>
    27e2: 50 0e        	<unknown>
    27e4: 00 00        	<unknown>
    27e6: 05 a8        	<unknown>
    27e8: 03 ce 25 00  	lbu	t3, 0x2(a1)
    27ec: 00 01        	<unknown>
    27ee: 01 09        	<unknown>
    27f0: 68 26        	<unknown>
    27f2: 00 00        	<unknown>
    27f4: 09 ff        	<unknown>
    27f6: 27 00 00 09  	<unknown>
    27fa: ce 25        	<unknown>
    27fc: 00 00        	<unknown>
    27fe: 00 0e        	<unknown>
    2800: 04 28        	<unknown>
    2802: 00 00        	<unknown>
    2804: 14 ea        	<unknown>
    2806: 26 00        	<unknown>
    2808: 00 20        	<unknown>
    280a: 59 0e        	<unknown>
    280c: 00 00        	<unknown>
    280e: 05 a1        	<unknown>
    2810: 03 4b 13 00  	lbu	s6, 0x1(t1)
    2814: 00 01        	<unknown>
    2816: 01 09        	<unknown>
    2818: 68 26        	<unknown>
    281a: 00 00        	<unknown>
    281c: 09 ea        	<unknown>
    281e: 26 00        	<unknown>
    2820: 00 00        	<unknown>
    2822: 02 60        	<unknown>
    2824: 0e 00        	<unknown>
    2826: 00 0c        	<unknown>
    2828: 0a cc        	<unknown>
    282a: bd 28        	<unknown>
    282c: 00 00        	<unknown>
    282e: 0c 0a        	<unknown>
    2830: d2 ea        	<unknown>
    2832: 28 00        	<unknown>
    2834: 00 0c        	<unknown>
    2836: 0a d6        	<unknown>
    2838: fb 28 00 00  	<unknown>
    283c: 0c 0a        	<unknown>
    283e: dc 0f        	<unknown>
    2840: 29 00        	<unknown>
    2842: 00 0c        	<unknown>
    2844: 0a e7        	<unknown>
    2846: 28 29        	<unknown>
    2848: 00 00        	<unknown>
    284a: 0c 0a        	<unknown>
    284c: e8 3b        	<unknown>
    284e: 29 00        	<unknown>
    2850: 00 0c        	<unknown>
    2852: 0a e9        	<unknown>
    2854: 58 29        	<unknown>
    2856: 00 00        	<unknown>
    2858: 0c 0a        	<unknown>
    285a: eb 75 29 00  	<unknown>
    285e: 00 0c        	<unknown>
    2860: 0a ec        	<unknown>
    2862: 8d 29        	<unknown>
    2864: 00 00        	<unknown>
    2866: 0b a4 0e 00  	vx_split	s0, t4
    286a: 00 7a        	<unknown>
    286c: 0e 00        	<unknown>
    286e: 00 0a        	<unknown>
    2870: d9 bd        	<unknown>
    2872: 28 00        	<unknown>
    2874: 00 01        	<unknown>
    2876: 01 09        	<unknown>
    2878: 5d 17        	<unknown>
    287a: 00 00        	<unknown>
    287c: 09 5d        	<unknown>
    287e: 17 00 00 00  	auipc	zero, 0x0
    2882: 0c 11        	<unknown>
    2884: fb 5d 36 00  	<unknown>
    2888: 00 1a        	<unknown>
    288a: 11 04        	<unknown>
    288c: 01 76        	<unknown>
    288e: 36 00        	<unknown>
    2890: 00 1a        	<unknown>
    2892: 11 05        	<unknown>
    2894: 01 94        	<unknown>
    2896: 36 00        	<unknown>
    2898: 00 0c        	<unknown>
    289a: 1d af        	<unknown>
    289c: 00 3c        	<unknown>
    289e: 00 00        	<unknown>
    28a0: 0c 1d        	<unknown>
    28a2: b0 1f        	<unknown>
    28a4: 3c 00        	<unknown>
    28a6: 00 0c        	<unknown>
    28a8: 1d b1        	<unknown>
    28aa: 41 3c        	<unknown>
    28ac: 00 00        	<unknown>
    28ae: 0c 1d        	<unknown>
    28b0: b2 5e        	<unknown>
    28b2: 3c 00        	<unknown>
    28b4: 00 0c        	<unknown>
    28b6: 1d b3        	<unknown>
    28b8: 81 3c        	<unknown>
    28ba: 00 00        	<unknown>
    28bc: 00 0a        	<unknown>
    28be: c8 28        	<unknown>
    28c0: 00 00        	<unknown>
    28c2: 6a 0e        	<unknown>
    28c4: 00 00        	<unknown>
    28c6: 05 50        	<unknown>
    28c8: 23 05 10 05  	sb	a7, 0x4a(zero)
    28cc: 4c 06        	<unknown>
    28ce: 89 0d        	<unknown>
    28d0: 00 00        	<unknown>
    28d2: 5d 17        	<unknown>
    28d4: 00 00        	<unknown>
    28d6: 05 4e        	<unknown>
    28d8: 02 23        	<unknown>
    28da: 00 06        	<unknown>
    28dc: 8e 0d        	<unknown>
    28de: 00 00        	<unknown>
    28e0: 5d 17        	<unknown>
    28e2: 00 00        	<unknown>
    28e4: 05 4f        	<unknown>
    28e6: 02 23        	<unknown>
    28e8: 08 00        	<unknown>
    28ea: 29 72        	<unknown>
    28ec: 0e 00        	<unknown>
    28ee: 00 05        	<unknown>
    28f0: 75 02        	<unknown>
    28f2: 01 01        	<unknown>
    28f4: 01 09        	<unknown>
    28f6: 4b 13 00 00  	fnmsub.s	ft6, ft0, ft0, ft0, rtz
    28fa: 00 20        	<unknown>
    28fc: 4e 0a        	<unknown>
    28fe: 00 00        	<unknown>
    2900: 05 4c        	<unknown>
    2902: 03 5d 17 00  	lhu	s10, 0x1(a4)
    2906: 00 01        	<unknown>
    2908: 01 09        	<unknown>
    290a: 5d 17        	<unknown>
    290c: 00 00        	<unknown>
    290e: 00 20        	<unknown>
    2910: 78 0e        	<unknown>
    2912: 00 00        	<unknown>
    2914: 05 5a        	<unknown>
    2916: 03 bd 28 00  	ld	s10, 0x2(a7)
    291a: 00 01        	<unknown>
    291c: 01 09        	<unknown>
    291e: 5d 17        	<unknown>
    2920: 00 00        	<unknown>
    2922: 09 5d        	<unknown>
    2924: 17 00 00 00  	auipc	zero, 0x0
    2928: 21 7e        	<unknown>
    292a: 0e 00        	<unknown>
    292c: 00 05        	<unknown>
    292e: 70 5d        	<unknown>
    2930: 17 00 00 01  	auipc	zero, 0x1000
    2934: 01 09        	<unknown>
    2936: 67 18 00 00  	<unknown>
    293a: 00 21        	<unknown>
    293c: 84 0e        	<unknown>
    293e: 00 00        	<unknown>
    2940: 05 c8        	<unknown>
    2942: 5d 17        	<unknown>
    2944: 00 00        	<unknown>
    2946: 01 01        	<unknown>
    2948: 09 67        	<unknown>
    294a: 18 00        	<unknown>
    294c: 00 09        	<unknown>
    294e: 8e 27        	<unknown>
    2950: 00 00        	<unknown>
    2952: 09 4b        	<unknown>
    2954: 13 00 00 00  	nop
    2958: 21 8c        	<unknown>
    295a: 0e 00        	<unknown>
    295c: 00 05        	<unknown>
    295e: cd 1b        	<unknown>
    2960: 01 00        	<unknown>
    2962: 00 01        	<unknown>
    2964: 01 09        	<unknown>
    2966: 67 18 00 00  	<unknown>
    296a: 09 8e        	<unknown>
    296c: 27 00 00 09  	<unknown>
    2970: 4b 13 00 00  	fnmsub.s	ft6, ft0, ft0, ft0, rtz
    2974: 00 21        	<unknown>
    2976: 95 0e        	<unknown>
    2978: 00 00        	<unknown>
    297a: 05 7b        	<unknown>
    297c: 68 13        	<unknown>
    297e: 00 00        	<unknown>
    2980: 01 01        	<unknown>
    2982: 09 67        	<unknown>
    2984: 18 00        	<unknown>
    2986: 00 09        	<unknown>
    2988: 8e 27        	<unknown>
    298a: 00 00        	<unknown>
    298c: 00 21        	<unknown>
    298e: 9c 0e        	<unknown>
    2990: 00 00        	<unknown>
    2992: 05 7e        	<unknown>
    2994: 4f 1c 00 00  	fnmadd.s	fs8, ft0, ft0, ft0, rtz
    2998: 01 01        	<unknown>
    299a: 09 67        	<unknown>
    299c: 18 00        	<unknown>
    299e: 00 09        	<unknown>
    29a0: 8e 27        	<unknown>
    29a2: 00 00        	<unknown>
    29a4: 00 0c        	<unknown>
    29a6: 0c 26        	<unknown>
    29a8: 2d 25        	<unknown>
    29aa: 00 00        	<unknown>
    29ac: 0c 0c        	<unknown>
    29ae: 27 38 25 00  	fsd	ft2, 0x10(a0)
    29b2: 00 0c        	<unknown>
    29b4: 0c 28        	<unknown>
    29b6: 33 26 00 00  	sltz	a2, zero
    29ba: 0c 0c        	<unknown>
    29bc: 2b 52 25 00  	<unknown>
    29c0: 00 0c        	<unknown>
    29c2: 0c 2e        	<unknown>
    29c4: 2e 27        	<unknown>
    29c6: 00 00        	<unknown>
    29c8: 0c 0c        	<unknown>
    29ca: 31 ea        	<unknown>
    29cc: 28 00        	<unknown>
    29ce: 00 0c        	<unknown>
    29d0: 0c 36        	<unknown>
    29d2: f3 24 00 00  	csrr	s1, 0x0
    29d6: 0c 0c        	<unknown>
    29d8: 37 00 25 00  	lui	zero, 0x250
    29dc: 00 0c        	<unknown>
    29de: 0c 39        	<unknown>
    29e0: b6 0c        	<unknown>
    29e2: 00 00        	<unknown>
    29e4: 0c 0c        	<unknown>
    29e6: 3a 66        	<unknown>
    29e8: 25 00        	<unknown>
    29ea: 00 0c        	<unknown>
    29ec: 0c 3b        	<unknown>
    29ee: 79 25        	<unknown>
    29f0: 00 00        	<unknown>
    29f2: 0c 0c        	<unknown>
    29f4: 3c 8c        	<unknown>
    29f6: 25 00        	<unknown>
    29f8: 00 0c        	<unknown>
    29fa: 0c 3d        	<unknown>
    29fc: 9f 25 00 00  	<unknown>
    2a00: 0c 0c        	<unknown>
    2a02: 3e 01        	<unknown>
    2a04: 26 00        	<unknown>
    2a06: 00 0c        	<unknown>
    2a08: 0c 3f        	<unknown>
    2a0a: 66 28        	<unknown>
    2a0c: 00 00        	<unknown>
    2a0e: 0c 0c        	<unknown>
    2a10: 40 44        	<unknown>
    2a12: 26 00        	<unknown>
    2a14: 00 0c        	<unknown>
    2a16: 0c 41        	<unknown>
    2a18: 54 26        	<unknown>
    2a1a: 00 00        	<unknown>
    2a1c: 0c 0c        	<unknown>
    2a1e: 42 6d        	<unknown>
    2a20: 26 00        	<unknown>
    2a22: 00 0c        	<unknown>
    2a24: 0c 43        	<unknown>
    2a26: 81 26        	<unknown>
    2a28: 00 00        	<unknown>
    2a2a: 0c 0c        	<unknown>
    2a2c: 44 9a        	<unknown>
    2a2e: 26 00        	<unknown>
    2a30: 00 0c        	<unknown>
    2a32: 0c 46        	<unknown>
    2a34: ae 26        	<unknown>
    2a36: 00 00        	<unknown>
    2a38: 0c 0c        	<unknown>
    2a3a: 47 c7 26 00  	fmsub.s	fa4, fa3, ft2, ft0, rmm
    2a3e: 00 0c        	<unknown>
    2a40: 0c 48        	<unknown>
    2a42: f1 26        	<unknown>
    2a44: 00 00        	<unknown>
    2a46: 0c 0c        	<unknown>
    2a48: 4a 0f        	<unknown>
    2a4a: 27 00 00 0c  	<unknown>
    2a4e: 0c 4b        	<unknown>
    2a50: 3f 27 00 00  	<unknown>
    2a54: 0c 0c        	<unknown>
    2a56: 4c 4d        	<unknown>
    2a58: 27 00 00 0c  	<unknown>
    2a5c: 0c 4d        	<unknown>
    2a5e: 66 27        	<unknown>
    2a60: 00 00        	<unknown>
    2a62: 0c 0c        	<unknown>
    2a64: 4e 76        	<unknown>
    2a66: 27 00 00 0c  	<unknown>
    2a6a: 0c 4f        	<unknown>
    2a6c: 93 27 00 00  	slti	a5, zero, 0x0
    2a70: 0c 0c        	<unknown>
    2a72: 50 b0        	<unknown>
    2a74: 27 00 00 0c  	<unknown>
    2a78: 0c 51        	<unknown>
    2a7a: cd 27        	<unknown>
    2a7c: 00 00        	<unknown>
    2a7e: 0c 0c        	<unknown>
    2a80: 53 e1 27 00  	<unknown>
    2a84: 00 0c        	<unknown>
    2a86: 0c 54        	<unknown>
    2a88: 09 28        	<unknown>
    2a8a: 00 00        	<unknown>
    2a8c: 1f c3 0e 00  	<unknown>
    2a90: 00 4c        	<unknown>
    2a92: 07 00 00 0d  	<unknown>
    2a96: 3b 68 13 00  	<unknown>
    2a9a: 00 01        	<unknown>
    2a9c: 09 68        	<unknown>
    2a9e: 13 00 00 00  	nop
    2aa2: 1f ce 0e 00  	<unknown>
    2aa6: 00 61        	<unknown>
    2aa8: 07 00 00 0d  	<unknown>
    2aac: 3d 68        	<unknown>
    2aae: 13 00 00 01  	li	zero, 0x10
    2ab2: 09 68        	<unknown>
    2ab4: 13 00 00 00  	nop
    2ab8: 1f da 0e 00  	<unknown>
    2abc: 00 72        	<unknown>
    2abe: 07 00 00 0d  	<unknown>
    2ac2: 3f 68 13 00  	<unknown>
    2ac6: 00 01        	<unknown>
    2ac8: 09 68        	<unknown>
    2aca: 13 00 00 00  	nop
    2ace: 1f e5 0e 00  	<unknown>
    2ad2: 00 81        	<unknown>
    2ad4: 07 00 00 0d  	<unknown>
    2ad8: 41 68        	<unknown>
    2ada: 13 00 00 01  	li	zero, 0x10
    2ade: 09 68        	<unknown>
    2ae0: 13 00 00 00  	nop
    2ae4: 1f f1 0e 00  	<unknown>
    2ae8: 00 fe        	<unknown>
    2aea: 0e 00        	<unknown>
    2aec: 00 0d        	<unknown>
    2aee: 44 68        	<unknown>
    2af0: 13 00 00 01  	li	zero, 0x10
    2af4: 09 68        	<unknown>
    2af6: 13 00 00 09  	li	zero, 0x90
    2afa: 68 13        	<unknown>
    2afc: 00 00        	<unknown>
    2afe: 00 1f        	<unknown>
    2b00: 05 0f        	<unknown>
    2b02: 00 00        	<unknown>
    2b04: 92 07        	<unknown>
    2b06: 00 00        	<unknown>
    2b08: 0d 45        	<unknown>
    2b0a: 68 13        	<unknown>
    2b0c: 00 00        	<unknown>
    2b0e: 01 09        	<unknown>
    2b10: 68 13        	<unknown>
    2b12: 00 00        	<unknown>
    2b14: 00 1f        	<unknown>
    2b16: 10 0f        	<unknown>
    2b18: 00 00        	<unknown>
    2b1a: b3 07 00 00  	add	a5, zero, zero
    2b1e: 0d 47        	<unknown>
    2b20: 68 13        	<unknown>
    2b22: 00 00        	<unknown>
    2b24: 01 09        	<unknown>
    2b26: 68 13        	<unknown>
    2b28: 00 00        	<unknown>
    2b2a: 00 1f        	<unknown>
    2b2c: 1c 0f        	<unknown>
    2b2e: 00 00        	<unknown>
    2b30: c4 07        	<unknown>
    2b32: 00 00        	<unknown>
    2b34: 0d 49        	<unknown>
    2b36: 68 13        	<unknown>
    2b38: 00 00        	<unknown>
    2b3a: 01 09        	<unknown>
    2b3c: 68 13        	<unknown>
    2b3e: 00 00        	<unknown>
    2b40: 00 1f        	<unknown>
    2b42: 27 0f 00 00  	<unknown>
    2b46: d3 07 00 00  	fadd.s	fa5, ft0, ft0, rne
    2b4a: 0d 4b        	<unknown>
    2b4c: 68 13        	<unknown>
    2b4e: 00 00        	<unknown>
    2b50: 01 09        	<unknown>
    2b52: 68 13        	<unknown>
    2b54: 00 00        	<unknown>
    2b56: 00 1f        	<unknown>
    2b58: 32 0f        	<unknown>
    2b5a: 00 00        	<unknown>
    2b5c: 54 0c        	<unknown>
    2b5e: 00 00        	<unknown>
    2b60: 0d 4f        	<unknown>
    2b62: 68 13        	<unknown>
    2b64: 00 00        	<unknown>
    2b66: 01 09        	<unknown>
    2b68: 68 13        	<unknown>
    2b6a: 00 00        	<unknown>
    2b6c: 09 68        	<unknown>
    2b6e: 13 00 00 00  	nop
    2b72: 1f 42 0f 00  	<unknown>
    2b76: 00 fa        	<unknown>
    2b78: 07 00 00 0d  	<unknown>
    2b7c: 53 68 13 00  	<unknown>
    2b80: 00 01        	<unknown>
    2b82: 09 68        	<unknown>
    2b84: 13 00 00 00  	nop
    2b88: 1f 4c 0f 00  	<unknown>
    2b8c: 00 03        	<unknown>
    2b8e: 08 00        	<unknown>
    2b90: 00 0d        	<unknown>
    2b92: 57 68 13 00  	<unknown>
    2b96: 00 01        	<unknown>
    2b98: 09 68        	<unknown>
    2b9a: 13 00 00 00  	nop
    2b9e: 1f 57 0f 00  	<unknown>
    2ba2: 00 16        	<unknown>
    2ba4: 08 00        	<unknown>
    2ba6: 00 0d        	<unknown>
    2ba8: 60 68        	<unknown>
    2baa: 13 00 00 01  	li	zero, 0x10
    2bae: 09 68        	<unknown>
    2bb0: 13 00 00 00  	nop
    2bb4: 1f 62 0f 00  	<unknown>
    2bb8: 00 0d        	<unknown>
    2bba: 08 00        	<unknown>
    2bbc: 00 0d        	<unknown>
    2bbe: 65 68        	<unknown>
    2bc0: 13 00 00 01  	li	zero, 0x10
    2bc4: 09 68        	<unknown>
    2bc6: 13 00 00 00  	nop
    2bca: 1f 6c 0f 00  	<unknown>
    2bce: 00 2e        	<unknown>
    2bd0: 08 00        	<unknown>
    2bd2: 00 0d        	<unknown>
    2bd4: 6c 68        	<unknown>
    2bd6: 13 00 00 01  	li	zero, 0x10
    2bda: 09 68        	<unknown>
    2bdc: 13 00 00 00  	nop
    2be0: 1f 77 0f 00  	<unknown>
    2be4: 00 25        	<unknown>
    2be6: 08 00        	<unknown>
    2be8: 00 0d        	<unknown>
    2bea: 6d 68        	<unknown>
    2bec: 13 00 00 01  	li	zero, 0x10
    2bf0: 09 68        	<unknown>
    2bf2: 13 00 00 00  	nop
    2bf6: 1f 81 0f 00  	<unknown>
    2bfa: 00 3d        	<unknown>
    2bfc: 08 00        	<unknown>
    2bfe: 00 0d        	<unknown>
    2c00: 6f 68 13 00  	jal	a6, 0x39400 <.debug_info+0x39400>
    2c04: 00 01        	<unknown>
    2c06: 09 68        	<unknown>
    2c08: 13 00 00 00  	nop
    2c0c: 1f 8d 0f 00  	<unknown>
    2c10: 00 4e        	<unknown>
    2c12: 08 00        	<unknown>
    2c14: 00 0d        	<unknown>
    2c16: 70 68        	<unknown>
    2c18: 13 00 00 01  	li	zero, 0x10
    2c1c: 09 68        	<unknown>
    2c1e: 13 00 00 00  	nop
    2c22: 1f 98 0f 00  	<unknown>
    2c26: 00 80        	<unknown>
    2c28: 0c 00        	<unknown>
    2c2a: 00 0d        	<unknown>
    2c2c: 72 68        	<unknown>
    2c2e: 13 00 00 01  	li	zero, 0x10
    2c32: 09 68        	<unknown>
    2c34: 13 00 00 09  	li	zero, 0x90
    2c38: 68 13        	<unknown>
    2c3a: 00 00        	<unknown>
    2c3c: 00 1f        	<unknown>
    2c3e: a4 0f        	<unknown>
    2c40: 00 00        	<unknown>
    2c42: 6d 08        	<unknown>
    2c44: 00 00        	<unknown>
    2c46: 0d 7c        	<unknown>
    2c48: 68 13        	<unknown>
    2c4a: 00 00        	<unknown>
    2c4c: 01 09        	<unknown>
    2c4e: 68 13        	<unknown>
    2c50: 00 00        	<unknown>
    2c52: 00 1f        	<unknown>
    2c54: b0 0f        	<unknown>
    2c56: 00 00        	<unknown>
    2c58: 8c 0c        	<unknown>
    2c5a: 00 00        	<unknown>
    2c5c: 0d 80        	<unknown>
    2c5e: 68 13        	<unknown>
    2c60: 00 00        	<unknown>
    2c62: 01 09        	<unknown>
    2c64: 68 13        	<unknown>
    2c66: 00 00        	<unknown>
    2c68: 09 68        	<unknown>
    2c6a: 13 00 00 09  	li	zero, 0x90
    2c6e: 68 13        	<unknown>
    2c70: 00 00        	<unknown>
    2c72: 00 1f        	<unknown>
    2c74: bc 0f        	<unknown>
    2c76: 00 00        	<unknown>
    2c78: 96 0c        	<unknown>
    2c7a: 00 00        	<unknown>
    2c7c: 0d 84        	<unknown>
    2c7e: 68 13        	<unknown>
    2c80: 00 00        	<unknown>
    2c82: 01 09        	<unknown>
    2c84: 68 13        	<unknown>
    2c86: 00 00        	<unknown>
    2c88: 09 68        	<unknown>
    2c8a: 13 00 00 00  	nop
    2c8e: 1f c8 0f 00  	<unknown>
    2c92: 00 a2        	<unknown>
    2c94: 0c 00        	<unknown>
    2c96: 00 0d        	<unknown>
    2c98: 86 68        	<unknown>
    2c9a: 13 00 00 01  	li	zero, 0x10
    2c9e: 09 68        	<unknown>
    2ca0: 13 00 00 09  	li	zero, 0x90
    2ca4: 68 13        	<unknown>
    2ca6: 00 00        	<unknown>
    2ca8: 00 1f        	<unknown>
    2caa: d4 0f        	<unknown>
    2cac: 00 00        	<unknown>
    2cae: e0 0f        	<unknown>
    2cb0: 00 00        	<unknown>
    2cb2: 0d 88        	<unknown>
    2cb4: 68 13        	<unknown>
    2cb6: 00 00        	<unknown>
    2cb8: 01 09        	<unknown>
    2cba: 68 13        	<unknown>
    2cbc: 00 00        	<unknown>
    2cbe: 09 68        	<unknown>
    2cc0: 13 00 00 00  	nop
    2cc4: 1f e6 0f 00  	<unknown>
    2cc8: 00 f4        	<unknown>
    2cca: 0f 00 00 0d  	fence	iow, 0
    2cce: 8a 68        	<unknown>
    2cd0: 13 00 00 01  	li	zero, 0x10
    2cd4: 09 68        	<unknown>
    2cd6: 13 00 00 09  	li	zero, 0x90
    2cda: c2 15        	<unknown>
    2cdc: 00 00        	<unknown>
    2cde: 00 1f        	<unknown>
    2ce0: fb 0f 00 00  	<unknown>
    2ce4: ae 0c        	<unknown>
    2ce6: 00 00        	<unknown>
    2ce8: 0d 8c        	<unknown>
    2cea: 68 13        	<unknown>
    2cec: 00 00        	<unknown>
    2cee: 01 09        	<unknown>
    2cf0: 68 13        	<unknown>
    2cf2: 00 00        	<unknown>
    2cf4: 09 68        	<unknown>
    2cf6: 13 00 00 00  	nop
    2cfa: 1f 08 10 00  	<unknown>
    2cfe: 00 fe        	<unknown>
    2d00: 08 00        	<unknown>
    2d02: 00 0d        	<unknown>
    2d04: 8e 4b        	<unknown>
    2d06: 13 00 00 01  	li	zero, 0x10
    2d0a: 09 68        	<unknown>
    2d0c: 13 00 00 00  	nop
    2d10: 1f 14 10 00  	<unknown>
    2d14: 00 21        	<unknown>
    2d16: 10 00        	<unknown>
    2d18: 00 0d        	<unknown>
    2d1a: 9b 68 13 00  	<unknown>
    2d1e: 00 01        	<unknown>
    2d20: 09 68        	<unknown>
    2d22: 13 00 00 09  	li	zero, 0x90
    2d26: 4b 13 00 00  	fnmsub.s	ft6, ft0, ft0, ft0, rtz
    2d2a: 00 1f        	<unknown>
    2d2c: 28 10        	<unknown>
    2d2e: 00 00        	<unknown>
    2d30: 34 0a        	<unknown>
    2d32: 00 00        	<unknown>
    2d34: 0d 9d        	<unknown>
    2d36: 68 13        	<unknown>
    2d38: 00 00        	<unknown>
    2d3a: 01 09        	<unknown>
    2d3c: 68 13        	<unknown>
    2d3e: 00 00        	<unknown>
    2d40: 00 1f        	<unknown>
    2d42: 35 10        	<unknown>
    2d44: 00 00        	<unknown>
    2d46: 58 0a        	<unknown>
    2d48: 00 00        	<unknown>
    2d4a: 0d a6        	<unknown>
    2d4c: 5d 17        	<unknown>
    2d4e: 00 00        	<unknown>
    2d50: 01 09        	<unknown>
    2d52: 68 13        	<unknown>
    2d54: 00 00        	<unknown>
    2d56: 00 1f        	<unknown>
    2d58: 42 10        	<unknown>
    2d5a: 00 00        	<unknown>
    2d5c: ca 0a        	<unknown>
    2d5e: 00 00        	<unknown>
    2d60: 0d a8        	<unknown>
    2d62: 5d 17        	<unknown>
    2d64: 00 00        	<unknown>
    2d66: 01 09        	<unknown>
    2d68: 68 13        	<unknown>
    2d6a: 00 00        	<unknown>
    2d6c: 00 1f        	<unknown>
    2d6e: 50 10        	<unknown>
    2d70: 00 00        	<unknown>
    2d72: 78 0a        	<unknown>
    2d74: 00 00        	<unknown>
    2d76: 0d ad        	<unknown>
    2d78: 68 13        	<unknown>
    2d7a: 00 00        	<unknown>
    2d7c: 01 09        	<unknown>
    2d7e: 68 13        	<unknown>
    2d80: 00 00        	<unknown>
    2d82: 00 1f        	<unknown>
    2d84: 5c 10        	<unknown>
    2d86: 00 00        	<unknown>
    2d88: 89 0a        	<unknown>
    2d8a: 00 00        	<unknown>
    2d8c: 0d af        	<unknown>
    2d8e: 68 13        	<unknown>
    2d90: 00 00        	<unknown>
    2d92: 01 09        	<unknown>
    2d94: 68 13        	<unknown>
    2d96: 00 00        	<unknown>
    2d98: 00 1f        	<unknown>
    2d9a: 68 10        	<unknown>
    2d9c: 00 00        	<unknown>
    2d9e: 9a 0a        	<unknown>
    2da0: 00 00        	<unknown>
    2da2: 0d b1        	<unknown>
    2da4: 68 13        	<unknown>
    2da6: 00 00        	<unknown>
    2da8: 01 09        	<unknown>
    2daa: 68 13        	<unknown>
    2dac: 00 00        	<unknown>
    2dae: 00 1f        	<unknown>
    2db0: 73 10 00 00  	csrw	0x0, zero
    2db4: a9 0a        	<unknown>
    2db6: 00 00        	<unknown>
    2db8: 0d b5        	<unknown>
    2dba: 68 13        	<unknown>
    2dbc: 00 00        	<unknown>
    2dbe: 01 09        	<unknown>
    2dc0: 68 13        	<unknown>
    2dc2: 00 00        	<unknown>
    2dc4: 00 1f        	<unknown>
    2dc6: 7e 10        	<unknown>
    2dc8: 00 00        	<unknown>
    2dca: 6b 0a 00 00  	<unknown>
    2dce: 0d b6        	<unknown>
    2dd0: 68 13        	<unknown>
    2dd2: 00 00        	<unknown>
    2dd4: 01 09        	<unknown>
    2dd6: 68 13        	<unknown>
    2dd8: 00 00        	<unknown>
    2dda: 00 1f        	<unknown>
    2ddc: 88 10        	<unknown>
    2dde: 00 00        	<unknown>
    2de0: b3 0a 00 00  	add	s5, zero, zero
    2de4: 0d bb        	<unknown>
    2de6: 0f 17 00 00  	<unknown>
    2dea: 01 09        	<unknown>
    2dec: 68 13        	<unknown>
    2dee: 00 00        	<unknown>
    2df0: 00 1f        	<unknown>
    2df2: 94 10        	<unknown>
    2df4: 00 00        	<unknown>
    2df6: be 0a        	<unknown>
    2df8: 00 00        	<unknown>
    2dfa: 0d bd        	<unknown>
    2dfc: 0f 17 00 00  	<unknown>
    2e00: 01 09        	<unknown>
    2e02: 68 13        	<unknown>
    2e04: 00 00        	<unknown>
    2e06: 00 1f        	<unknown>
    2e08: a1 10        	<unknown>
    2e0a: 00 00        	<unknown>
    2e0c: ae 08        	<unknown>
    2e0e: 00 00        	<unknown>
    2e10: 0d c7        	<unknown>
    2e12: 68 13        	<unknown>
    2e14: 00 00        	<unknown>
    2e16: 01 09        	<unknown>
    2e18: 68 13        	<unknown>
    2e1a: 00 00        	<unknown>
    2e1c: 09 45        	<unknown>
    2e1e: 18 00        	<unknown>
    2e20: 00 00        	<unknown>
    2e22: 1f ae 10 00  	<unknown>
    2e26: 00 02        	<unknown>
    2e28: 0b 00 00 0d  	<unknown>
    2e2c: c9 68        	<unknown>
    2e2e: 13 00 00 01  	li	zero, 0x10
    2e32: 09 68        	<unknown>
    2e34: 13 00 00 00  	nop
    2e38: 1f bf 10 00  	<unknown>
    2e3c: 00 f9        	<unknown>
    2e3e: 0c 00        	<unknown>
    2e40: 00 0d        	<unknown>
    2e42: cd 68        	<unknown>
    2e44: 13 00 00 01  	li	zero, 0x10
    2e48: 09 68        	<unknown>
    2e4a: 13 00 00 09  	li	zero, 0x90
    2e4e: 68 13        	<unknown>
    2e50: 00 00        	<unknown>
    2e52: 00 1f        	<unknown>
    2e54: d1 10        	<unknown>
    2e56: 00 00        	<unknown>
    2e58: dc 10        	<unknown>
    2e5a: 00 00        	<unknown>
    2e5c: 0d e7        	<unknown>
    2e5e: 68 13        	<unknown>
    2e60: 00 00        	<unknown>
    2e62: 01 09        	<unknown>
    2e64: 68 13        	<unknown>
    2e66: 00 00        	<unknown>
    2e68: 09 68        	<unknown>
    2e6a: 13 00 00 00  	nop
    2e6e: 1f e1 10 00  	<unknown>
    2e72: 00 32        	<unknown>
    2e74: 0d 00        	<unknown>
    2e76: 00 0d        	<unknown>
    2e78: ef 68 13 00  	jal	a7, 0x39678 <.debug_info+0x39678>
    2e7c: 00 01        	<unknown>
    2e7e: 09 68        	<unknown>
    2e80: 13 00 00 09  	li	zero, 0x90
    2e84: 68 13        	<unknown>
    2e86: 00 00        	<unknown>
    2e88: 00 1f        	<unknown>
    2e8a: f3 10 00 00  	csrrw	ra, 0x0, zero
    2e8e: 48 0d        	<unknown>
    2e90: 00 00        	<unknown>
    2e92: 0d f5        	<unknown>
    2e94: 68 13        	<unknown>
    2e96: 00 00        	<unknown>
    2e98: 01 09        	<unknown>
    2e9a: 68 13        	<unknown>
    2e9c: 00 00        	<unknown>
    2e9e: 09 68        	<unknown>
    2ea0: 13 00 00 09  	li	zero, 0x90
    2ea4: c2 15        	<unknown>
    2ea6: 00 00        	<unknown>
    2ea8: 00 2b        	<unknown>
    2eaa: 03 11 00 00  	lh	sp, 0x0(zero)
    2eae: 73 0b 00 00  	<unknown>
    2eb2: 0d 00        	<unknown>
    2eb4: 01 68        	<unknown>
    2eb6: 13 00 00 01  	li	zero, 0x10
    2eba: 09 68        	<unknown>
    2ebc: 13 00 00 00  	nop
    2ec0: 1f 0e 11 00  	<unknown>
    2ec4: 00 7d        	<unknown>
    2ec6: 0b 00 00 0d  	<unknown>
    2eca: aa 68        	<unknown>
    2ecc: 13 00 00 01  	li	zero, 0x10
    2ed0: 09 68        	<unknown>
    2ed2: 13 00 00 00  	nop
    2ed6: 2b 1a 11 00  	<unknown>
    2eda: 00 58        	<unknown>
    2edc: 0d 00        	<unknown>
    2ede: 00 0d        	<unknown>
    2ee0: 1e 01        	<unknown>
    2ee2: 68 13        	<unknown>
    2ee4: 00 00        	<unknown>
    2ee6: 01 09        	<unknown>
    2ee8: 68 13        	<unknown>
    2eea: 00 00        	<unknown>
    2eec: 09 0f        	<unknown>
    2eee: 17 00 00 00  	auipc	zero, 0x0
    2ef2: 2b 29 11 00  	<unknown>
    2ef6: 00 6a        	<unknown>
    2ef8: 0d 00        	<unknown>
    2efa: 00 0d        	<unknown>
    2efc: 16 01        	<unknown>
    2efe: 68 13        	<unknown>
    2f00: 00 00        	<unknown>
    2f02: 01 09        	<unknown>
    2f04: 68 13        	<unknown>
    2f06: 00 00        	<unknown>
    2f08: 09 4b        	<unknown>
    2f0a: 13 00 00 00  	nop
    2f0e: 2b 37 11 00  	<unknown>
    2f12: 00 c7        	<unknown>
    2f14: 0b 00 00 0d  	<unknown>
    2f18: 32 01        	<unknown>
    2f1a: 68 13        	<unknown>
    2f1c: 00 00        	<unknown>
    2f1e: 01 09        	<unknown>
    2f20: 68 13        	<unknown>
    2f22: 00 00        	<unknown>
    2f24: 00 2b        	<unknown>
    2f26: 41 11        	<unknown>
    2f28: 00 00        	<unknown>
    2f2a: d0 0b        	<unknown>
    2f2c: 00 00        	<unknown>
    2f2e: 0d 36        	<unknown>
    2f30: 01 68        	<unknown>
    2f32: 13 00 00 01  	li	zero, 0x10
    2f36: 09 68        	<unknown>
    2f38: 13 00 00 00  	nop
    2f3c: 2b 4c 11 00  	<unknown>
    2f40: 00 da        	<unknown>
    2f42: 0b 00 00 0d  	<unknown>
    2f46: 3a 01        	<unknown>
    2f48: 68 13        	<unknown>
    2f4a: 00 00        	<unknown>
    2f4c: 01 09        	<unknown>
    2f4e: 68 13        	<unknown>
    2f50: 00 00        	<unknown>
    2f52: 00 2b        	<unknown>
    2f54: 57 11 00 00  	<unknown>
    2f58: e9 0b        	<unknown>
    2f5a: 00 00        	<unknown>
    2f5c: 0d 3c        	<unknown>
    2f5e: 01 68        	<unknown>
    2f60: 13 00 00 01  	li	zero, 0x10
    2f64: 09 68        	<unknown>
    2f66: 13 00 00 00  	nop
    2f6a: 2b 61 11 00  	<unknown>
    2f6e: 00 f2        	<unknown>
    2f70: 0b 00 00 0d  	<unknown>
    2f74: 3e 01        	<unknown>
    2f76: 68 13        	<unknown>
    2f78: 00 00        	<unknown>
    2f7a: 01 09        	<unknown>
    2f7c: 68 13        	<unknown>
    2f7e: 00 00        	<unknown>
    2f80: 00 2b        	<unknown>
    2f82: 6c 11        	<unknown>
    2f84: 00 00        	<unknown>
    2f86: fc 0b        	<unknown>
    2f88: 00 00        	<unknown>
    2f8a: 0d 40        	<unknown>
    2f8c: 01 68        	<unknown>
    2f8e: 13 00 00 01  	li	zero, 0x10
    2f92: 09 68        	<unknown>
    2f94: 13 00 00 00  	nop
    2f98: 2b 79 11 00  	<unknown>
    2f9c: 00 0f        	<unknown>
    2f9e: 0c 00        	<unknown>
    2fa0: 00 0d        	<unknown>
    2fa2: 42 01        	<unknown>
    2fa4: 68 13        	<unknown>
    2fa6: 00 00        	<unknown>
    2fa8: 01 09        	<unknown>
    2faa: 68 13        	<unknown>
    2fac: 00 00        	<unknown>
    2fae: 00 0a        	<unknown>
    2fb0: ba 2f        	<unknown>
    2fb2: 00 00        	<unknown>
    2fb4: 31 12        	<unknown>
    2fb6: 00 00        	<unknown>
    2fb8: 10 06        	<unknown>
    2fba: 0a c5        	<unknown>
    2fbc: 2f 00 00 2f  	<unknown>
    2fc0: 12 00        	<unknown>
    2fc2: 00 0f        	<unknown>
    2fc4: 15 23        	<unknown>
    2fc6: 05 08        	<unknown>
    2fc8: 0f 0d 06 fe  	<unknown>
    2fcc: 11 00        	<unknown>
    2fce: 00 4b        	<unknown>
    2fd0: 13 00 00 0f  	li	zero, 0xf0
    2fd4: 0f 02 23 00  	<unknown>
    2fd8: 06 06        	<unknown>
    2fda: 12 00        	<unknown>
    2fdc: 00 e6        	<unknown>
    2fde: 2f 00 00 0f  	<unknown>
    2fe2: 14 02        	<unknown>
    2fe4: 23 04 2c 05  	sb	s2, 0x48(s8)
    2fe8: 04 0f        	<unknown>
    2fea: 10 06        	<unknown>
    2fec: 0e 12        	<unknown>
    2fee: 00 00        	<unknown>
    2ff0: ae 01        	<unknown>
    2ff2: 00 00        	<unknown>
    2ff4: 0f 12 02 23  	<unknown>
    2ff8: 00 06        	<unknown>
    2ffa: 14 12        	<unknown>
    2ffc: 00 00        	<unknown>
    2ffe: 09 30        	<unknown>
    3000: 00 00        	<unknown>
    3002: 0f 13 02 23  	<unknown>
    3006: 00 00        	<unknown>
    3008: 00 2d        	<unknown>
    300a: 71 18        	<unknown>
    300c: 00 00        	<unknown>
    300e: 2e 15        	<unknown>
    3010: 30 00        	<unknown>
    3012: 00 04        	<unknown>
    3014: 00 2f        	<unknown>
    3016: 1b 12 00 00  	slliw	tp, zero, 0x0
    301a: 08 07        	<unknown>
    301c: 0a ae        	<unknown>
    301e: 01 00        	<unknown>
    3020: 00 3b        	<unknown>
    3022: 12 00        	<unknown>
    3024: 00 12        	<unknown>
    3026: 14 20        	<unknown>
    3028: 19 0e        	<unknown>
    302a: 00 00        	<unknown>
    302c: 13 1c 01 1c  	<unknown>
    3030: 30 00        	<unknown>
    3032: 00 01        	<unknown>
    3034: 01 09        	<unknown>
    3036: 4b 13 00 00  	fnmsub.s	ft6, ft0, ft0, ft0, rtz
    303a: 00 20        	<unknown>
    303c: 42 12        	<unknown>
    303e: 00 00        	<unknown>
    3040: 13 d6 02 1c  	<unknown>
    3044: 30 00        	<unknown>
    3046: 00 01        	<unknown>
    3048: 01 09        	<unknown>
    304a: 4f 30 00 00  	fnmadd.s	ft0, ft0, ft0, ft0, rup
    304e: 00 0e        	<unknown>
    3050: 54 30        	<unknown>
    3052: 00 00        	<unknown>
    3054: 0a 5f        	<unknown>
    3056: 30 00        	<unknown>
    3058: 00 52        	<unknown>
    305a: 12 00        	<unknown>
    305c: 00 14        	<unknown>
    305e: 05 30        	<unknown>
    3060: 49 12        	<unknown>
    3062: 00 00        	<unknown>
    3064: 01 20        	<unknown>
    3066: 59 12        	<unknown>
    3068: 00 00        	<unknown>
    306a: 13 f3 02 e5  	andi	t1, t0, -0x1b0
    306e: 26 00        	<unknown>
    3070: 00 01        	<unknown>
    3072: 01 09        	<unknown>
    3074: e5 26        	<unknown>
    3076: 00 00        	<unknown>
    3078: 09 4b        	<unknown>
    307a: 13 00 00 09  	li	zero, 0x90
    307e: 4f 30 00 00  	fnmadd.s	ft0, ft0, ft0, ft0, rup
    3082: 00 20        	<unknown>
    3084: 60 12        	<unknown>
    3086: 00 00        	<unknown>
    3088: 13 e4 02 1c  	ori	s0, t0, 0x1c0
    308c: 30 00        	<unknown>
    308e: 00 01        	<unknown>
    3090: 01 09        	<unknown>
    3092: ea 26        	<unknown>
    3094: 00 00        	<unknown>
    3096: 09 4f        	<unknown>
    3098: 30 00        	<unknown>
    309a: 00 00        	<unknown>
    309c: 20 67        	<unknown>
    309e: 12 00        	<unknown>
    30a0: 00 13        	<unknown>
    30a2: fa 02        	<unknown>
    30a4: 4b 13 00 00  	fnmsub.s	ft6, ft0, ft0, ft0, rtz
    30a8: 01 01        	<unknown>
    30aa: 09 ff        	<unknown>
    30ac: 27 00 00 09  	<unknown>
    30b0: 4f 30 00 00  	fnmadd.s	ft0, ft0, ft0, ft0, rup
    30b4: 00 20        	<unknown>
    30b6: 6e 12        	<unknown>
    30b8: 00 00        	<unknown>
    30ba: 13 3d 02 4b  	sltiu	s10, tp, 0x4b0
    30be: 13 00 00 01  	li	zero, 0x10
    30c2: 01 09        	<unknown>
    30c4: 4f 30 00 00  	fnmadd.s	ft0, ft0, ft0, ft0, rup
    30c8: 09 4b        	<unknown>
    30ca: 13 00 00 00  	nop
    30ce: 20 d2        	<unknown>
    30d0: 12 00        	<unknown>
    30d2: 00 13        	<unknown>
    30d4: 44 02        	<unknown>
    30d6: 4b 13 00 00  	fnmsub.s	ft6, ft0, ft0, ft0, rtz
    30da: 01 01        	<unknown>
    30dc: 09 4f        	<unknown>
    30de: 30 00        	<unknown>
    30e0: 00 09        	<unknown>
    30e2: ff 27 00 00  	<unknown>
    30e6: 31 00        	<unknown>
    30e8: 12 74        	<unknown>
    30ea: 12 00        	<unknown>
    30ec: 00 7d        	<unknown>
    30ee: 12 00        	<unknown>
    30f0: 00 13        	<unknown>
    30f2: 80 02        	<unknown>
    30f4: 4b 13 00 00  	fnmsub.s	ft6, ft0, ft0, ft0, rtz
    30f8: 01 01        	<unknown>
    30fa: 09 4f        	<unknown>
    30fc: 30 00        	<unknown>
    30fe: 00 09        	<unknown>
    3100: ff 27 00 00  	<unknown>
    3104: 31 00        	<unknown>
    3106: 20 43        	<unknown>
    3108: 12 00        	<unknown>
    310a: 00 13        	<unknown>
    310c: d7 02 1c 30  	<unknown>
    3110: 00 00        	<unknown>
    3112: 01 01        	<unknown>
    3114: 09 4f        	<unknown>
    3116: 30 00        	<unknown>
    3118: 00 00        	<unknown>
    311a: 2a 85        	<unknown>
    311c: 12 00        	<unknown>
    311e: 00 13        	<unknown>
    3120: dd 02        	<unknown>
    3122: 1c 30        	<unknown>
    3124: 00 00        	<unknown>
    3126: 01 01        	<unknown>
    3128: 20 8e        	<unknown>
    312a: 12 00        	<unknown>
    312c: 00 13        	<unknown>
    312e: 33 01 ce 25  	<unknown>
    3132: 00 00        	<unknown>
    3134: 01 01        	<unknown>
    3136: 09 67        	<unknown>
    3138: 18 00        	<unknown>
    313a: 00 09        	<unknown>
    313c: ce 25        	<unknown>
    313e: 00 00        	<unknown>
    3140: 09 46        	<unknown>
    3142: 31 00        	<unknown>
    3144: 00 00        	<unknown>
    3146: 0e af        	<unknown>
    3148: 2f 00 00 20  	<unknown>
    314c: 95 12        	<unknown>
    314e: 00 00        	<unknown>
    3150: 13 28 01 ce  	slti	a6, sp, -0x320
    3154: 25 00        	<unknown>
    3156: 00 01        	<unknown>
    3158: 01 09        	<unknown>
    315a: e5 26        	<unknown>
    315c: 00 00        	<unknown>
    315e: 09 67        	<unknown>
    3160: 18 00        	<unknown>
    3162: 00 09        	<unknown>
    3164: ce 25        	<unknown>
    3166: 00 00        	<unknown>
    3168: 09 46        	<unknown>
    316a: 31 00        	<unknown>
    316c: 00 00        	<unknown>
    316e: 20 9d        	<unknown>
    3170: 12 00        	<unknown>
    3172: 00 13        	<unknown>
    3174: 24 01        	<unknown>
    3176: 4b 13 00 00  	fnmsub.s	ft6, ft0, ft0, ft0, rtz
    317a: 01 01        	<unknown>
    317c: 09 82        	<unknown>
    317e: 31 00        	<unknown>
    3180: 00 00        	<unknown>
    3182: 0e 87        	<unknown>
    3184: 31 00        	<unknown>
    3186: 00 14        	<unknown>
    3188: af 2f 00 00  	amoadd.w	t6, zero, (zero)
    318c: 20 a5        	<unknown>
    318e: 12 00        	<unknown>
    3190: 00 13        	<unknown>
    3192: 51 01        	<unknown>
    3194: ce 25        	<unknown>
    3196: 00 00        	<unknown>
    3198: 01 01        	<unknown>
    319a: 09 e5        	<unknown>
    319c: 26 00        	<unknown>
    319e: 00 09        	<unknown>
    31a0: af 31 00 00  	amoadd.d	gp, zero, (zero)
    31a4: 09 ce        	<unknown>
    31a6: 25 00        	<unknown>
    31a8: 00 09        	<unknown>
    31aa: 46 31        	<unknown>
    31ac: 00 00        	<unknown>
    31ae: 00 0e        	<unknown>
    31b0: 67 18 00 00  	<unknown>
    31b4: 20 61        	<unknown>
    31b6: 12 00        	<unknown>
    31b8: 00 13        	<unknown>
    31ba: e5 02        	<unknown>
    31bc: 1c 30        	<unknown>
    31be: 00 00        	<unknown>
    31c0: 01 01        	<unknown>
    31c2: 09 ea        	<unknown>
    31c4: 26 00        	<unknown>
    31c6: 00 09        	<unknown>
    31c8: 4f 30 00 00  	fnmadd.s	ft0, ft0, ft0, ft0, rup
    31cc: 00 20        	<unknown>
    31ce: af 12 00 00  	<unknown>
    31d2: 13 eb 02 1c  	ori	s6, t0, 0x1c0
    31d6: 30 00        	<unknown>
    31d8: 00 01        	<unknown>
    31da: 01 09        	<unknown>
    31dc: ea 26        	<unknown>
    31de: 00 00        	<unknown>
    31e0: 00 20        	<unknown>
    31e2: 0f 13 00 00  	<unknown>
    31e6: 13 4e 02 4b  	xori	t3, tp, 0x4b0
    31ea: 13 00 00 01  	li	zero, 0x10
    31ee: 01 09        	<unknown>
    31f0: e5 26        	<unknown>
    31f2: 00 00        	<unknown>
    31f4: 09 ce        	<unknown>
    31f6: 25 00        	<unknown>
    31f8: 00 09        	<unknown>
    31fa: ff 27 00 00  	<unknown>
    31fe: 31 00        	<unknown>
    3200: 12 b8        	<unknown>
    3202: 12 00        	<unknown>
    3204: 00 c1        	<unknown>
    3206: 12 00        	<unknown>
    3208: 00 13        	<unknown>
    320a: 87 02 4b 13  	<unknown>
    320e: 00 00        	<unknown>
    3210: 01 01        	<unknown>
    3212: 09 ff        	<unknown>
    3214: 27 00 00 09  	<unknown>
    3218: ff 27 00 00  	<unknown>
    321c: 31 00        	<unknown>
    321e: 20 c9        	<unknown>
    3220: 12 00        	<unknown>
    3222: 00 13        	<unknown>
    3224: 02 03        	<unknown>
    3226: 1c 30        	<unknown>
    3228: 00 00        	<unknown>
    322a: 01 01        	<unknown>
    322c: 09 1c        	<unknown>
    322e: 30 00        	<unknown>
    3230: 00 09        	<unknown>
    3232: 4f 30 00 00  	fnmadd.s	ft0, ft0, ft0, ft0, rup
    3236: 00 20        	<unknown>
    3238: d1 12        	<unknown>
    323a: 00 00        	<unknown>
    323c: 13 56 02 4b  	<unknown>
    3240: 13 00 00 01  	li	zero, 0x10
    3244: 01 09        	<unknown>
    3246: 4f 30 00 00  	fnmadd.s	ft0, ft0, ft0, ft0, rup
    324a: 09 ff        	<unknown>
    324c: 27 00 00 09  	<unknown>
    3250: 55 32        	<unknown>
    3252: 00 00        	<unknown>
    3254: 00 0a        	<unknown>
    3256: 60 32        	<unknown>
    3258: 00 00        	<unknown>
    325a: ed 12        	<unknown>
    325c: 00 00        	<unknown>
    325e: 15 0c        	<unknown>
    3260: 32 68        	<unknown>
    3262: 26 00        	<unknown>
    3264: 00 db        	<unknown>
    3266: 12 00        	<unknown>
    3268: 00 12        	<unknown>
    326a: fc 12        	<unknown>
    326c: 00 00        	<unknown>
    326e: 05 13        	<unknown>
    3270: 00 00        	<unknown>
    3272: 13 b5 02 4b  	sltiu	a0, t0, 0x4b0
    3276: 13 00 00 01  	li	zero, 0x10
    327a: 01 09        	<unknown>
    327c: 4f 30 00 00  	fnmadd.s	ft0, ft0, ft0, ft0, rup
    3280: 09 ff        	<unknown>
    3282: 27 00 00 09  	<unknown>
    3286: 55 32        	<unknown>
    3288: 00 00        	<unknown>
    328a: 00 20        	<unknown>
    328c: 0e 13        	<unknown>
    328e: 00 00        	<unknown>
    3290: 13 63 02 4b  	ori	t1, tp, 0x4b0
    3294: 13 00 00 01  	li	zero, 0x10
    3298: 01 09        	<unknown>
    329a: e5 26        	<unknown>
    329c: 00 00        	<unknown>
    329e: 09 ce        	<unknown>
    32a0: 25 00        	<unknown>
    32a2: 00 09        	<unknown>
    32a4: ff 27 00 00  	<unknown>
    32a8: 09 55        	<unknown>
    32aa: 32 00        	<unknown>
    32ac: 00 00        	<unknown>
    32ae: 12 18        	<unknown>
    32b0: 13 00 00 21  	li	zero, 0x210
    32b4: 13 00 00 13  	li	zero, 0x130
    32b8: bc 02        	<unknown>
    32ba: 4b 13 00 00  	fnmsub.s	ft6, ft0, ft0, ft0, rtz
    32be: 01 01        	<unknown>
    32c0: 09 ff        	<unknown>
    32c2: 27 00 00 09  	<unknown>
    32c6: ff 27 00 00  	<unknown>
    32ca: 09 55        	<unknown>
    32cc: 32 00        	<unknown>
    32ce: 00 00        	<unknown>
    32d0: 20 2a        	<unknown>
    32d2: 13 00 00 13  	li	zero, 0x130
    32d6: 5e 02        	<unknown>
    32d8: 4b 13 00 00  	fnmsub.s	ft6, ft0, ft0, ft0, rtz
    32dc: 01 01        	<unknown>
    32de: 09 ff        	<unknown>
    32e0: 27 00 00 09  	<unknown>
    32e4: 55 32        	<unknown>
    32e6: 00 00        	<unknown>
    32e8: 00 12        	<unknown>
    32ea: 33 13 00 00  	sll	t1, zero, zero
    32ee: 3c 13        	<unknown>
    32f0: 00 00        	<unknown>
    32f2: 13 b9 02 4b  	sltiu	s2, t0, 0x4b0
    32f6: 13 00 00 01  	li	zero, 0x10
    32fa: 01 09        	<unknown>
    32fc: ff 27 00 00  	<unknown>
    3300: 09 55        	<unknown>
    3302: 32 00        	<unknown>
    3304: 00 00        	<unknown>
    3306: 20 44        	<unknown>
    3308: 13 00 00 13  	li	zero, 0x130
    330c: 2d 01        	<unknown>
    330e: ce 25        	<unknown>
    3310: 00 00        	<unknown>
    3312: 01 01        	<unknown>
    3314: 09 68        	<unknown>
    3316: 26 00        	<unknown>
    3318: 00 09        	<unknown>
    331a: ea 26        	<unknown>
    331c: 00 00        	<unknown>
    331e: 09 46        	<unknown>
    3320: 31 00        	<unknown>
    3322: 00 00        	<unknown>
    3324: 21 4c        	<unknown>
    3326: 13 00 00 13  	li	zero, 0x130
    332a: 61 e5        	<unknown>
    332c: 26 00        	<unknown>
    332e: 00 01        	<unknown>
    3330: 01 09        	<unknown>
    3332: e5 26        	<unknown>
    3334: 00 00        	<unknown>
    3336: 09 ff        	<unknown>
    3338: 27 00 00 00  	<unknown>
    333c: 21 53        	<unknown>
    333e: 13 00 00 13  	li	zero, 0x130
    3342: 6a 4b        	<unknown>
    3344: 13 00 00 01  	li	zero, 0x10
    3348: 01 09        	<unknown>
    334a: ff 27 00 00  	<unknown>
    334e: 09 ff        	<unknown>
    3350: 27 00 00 00  	<unknown>
    3354: 21 5a        	<unknown>
    3356: 13 00 00 13  	li	zero, 0x130
    335a: 83 4b 13 00  	lbu	s7, 0x1(t1)
    335e: 00 01        	<unknown>
    3360: 01 09        	<unknown>
    3362: ff 27 00 00  	<unknown>
    3366: 09 ff        	<unknown>
    3368: 27 00 00 00  	<unknown>
    336c: 21 62        	<unknown>
    336e: 13 00 00 13  	li	zero, 0x130
    3372: 57 e5 26 00  	<unknown>
    3376: 00 01        	<unknown>
    3378: 01 09        	<unknown>
    337a: e5 26        	<unknown>
    337c: 00 00        	<unknown>
    337e: 09 ff        	<unknown>
    3380: 27 00 00 00  	<unknown>
    3384: 21 69        	<unknown>
    3386: 13 00 00 13  	li	zero, 0x130
    338a: bb ce 25 00  	<unknown>
    338e: 00 01        	<unknown>
    3390: 01 09        	<unknown>
    3392: ff 27 00 00  	<unknown>
    3396: 09 ff        	<unknown>
    3398: 27 00 00 00  	<unknown>
    339c: 20 71        	<unknown>
    339e: 13 00 00 13  	li	zero, 0x130
    33a2: 42 03        	<unknown>
    33a4: ce 25        	<unknown>
    33a6: 00 00        	<unknown>
    33a8: 01 01        	<unknown>
    33aa: 09 e5        	<unknown>
    33ac: 26 00        	<unknown>
    33ae: 00 09        	<unknown>
    33b0: ce 25        	<unknown>
    33b2: 00 00        	<unknown>
    33b4: 09 ff        	<unknown>
    33b6: 27 00 00 09  	<unknown>
    33ba: bf 33 00 00  	<unknown>
    33be: 00 0e        	<unknown>
    33c0: c4 33        	<unknown>
    33c2: 00 00        	<unknown>
    33c4: 14 c9        	<unknown>
    33c6: 33 00 00 30  	<unknown>
    33ca: 7a 13        	<unknown>
    33cc: 00 00        	<unknown>
    33ce: 01 21        	<unknown>
    33d0: 7d 13        	<unknown>
    33d2: 00 00        	<unknown>
    33d4: 13 de ce 25  	<unknown>
    33d8: 00 00        	<unknown>
    33da: 01 01        	<unknown>
    33dc: 09 ff        	<unknown>
    33de: 27 00 00 00  	<unknown>
    33e2: 21 84        	<unknown>
    33e4: 13 00 00 13  	li	zero, 0x130
    33e8: 65 e5        	<unknown>
    33ea: 26 00        	<unknown>
    33ec: 00 01        	<unknown>
    33ee: 01 09        	<unknown>
    33f0: e5 26        	<unknown>
    33f2: 00 00        	<unknown>
    33f4: 09 ff        	<unknown>
    33f6: 27 00 00 09  	<unknown>
    33fa: ce 25        	<unknown>
    33fc: 00 00        	<unknown>
    33fe: 00 21        	<unknown>
    3400: 8c 13        	<unknown>
    3402: 00 00        	<unknown>
    3404: 13 6d 4b 13  	ori	s10, s6, 0x134
    3408: 00 00        	<unknown>
    340a: 01 01        	<unknown>
    340c: 09 ff        	<unknown>
    340e: 27 00 00 09  	<unknown>
    3412: ff 27 00 00  	<unknown>
    3416: 09 ce        	<unknown>
    3418: 25 00        	<unknown>
    341a: 00 00        	<unknown>
    341c: 21 94        	<unknown>
    341e: 13 00 00 13  	li	zero, 0x130
    3422: 5c e5        	<unknown>
    3424: 26 00        	<unknown>
    3426: 00 01        	<unknown>
    3428: 01 09        	<unknown>
    342a: e5 26        	<unknown>
    342c: 00 00        	<unknown>
    342e: 09 ff        	<unknown>
    3430: 27 00 00 09  	<unknown>
    3434: ce 25        	<unknown>
    3436: 00 00        	<unknown>
    3438: 00 20        	<unknown>
    343a: 9c 13        	<unknown>
    343c: 00 00        	<unknown>
    343e: 13 57 01 ce  	<unknown>
    3442: 25 00        	<unknown>
    3444: 00 01        	<unknown>
    3446: 01 09        	<unknown>
    3448: 68 26        	<unknown>
    344a: 00 00        	<unknown>
    344c: 09 5c        	<unknown>
    344e: 34 00        	<unknown>
    3450: 00 09        	<unknown>
    3452: ce 25        	<unknown>
    3454: 00 00        	<unknown>
    3456: 09 46        	<unknown>
    3458: 31 00        	<unknown>
    345a: 00 00        	<unknown>
    345c: 0e ff        	<unknown>
    345e: 27 00 00 21  	<unknown>
    3462: a6 13        	<unknown>
    3464: 00 00        	<unknown>
    3466: 13 bf ce 25  	sltiu	t5, t4, 0x25c
    346a: 00 00        	<unknown>
    346c: 01 01        	<unknown>
    346e: 09 ff        	<unknown>
    3470: 27 00 00 09  	<unknown>
    3474: ff 27 00 00  	<unknown>
    3478: 00 20        	<unknown>
    347a: ad 13        	<unknown>
    347c: 00 00        	<unknown>
    347e: 13 79 01 60  	andi	s2, sp, 0x600
    3482: 18 00        	<unknown>
    3484: 00 01        	<unknown>
    3486: 01 09        	<unknown>
    3488: ff 27 00 00  	<unknown>
    348c: 09 92        	<unknown>
    348e: 34 00        	<unknown>
    3490: 00 00        	<unknown>
    3492: 0e e5        	<unknown>
    3494: 26 00        	<unknown>
    3496: 00 20        	<unknown>
    3498: b4 13        	<unknown>
    349a: 00 00        	<unknown>
    349c: 13 7e 01 68  	andi	t3, sp, 0x680
    34a0: 13 00 00 01  	li	zero, 0x10
    34a4: 01 09        	<unknown>
    34a6: ff 27 00 00  	<unknown>
    34aa: 09 92        	<unknown>
    34ac: 34 00        	<unknown>
    34ae: 00 00        	<unknown>
    34b0: 21 bb        	<unknown>
    34b2: 13 00 00 13  	li	zero, 0x130
    34b6: d9 e5        	<unknown>
    34b8: 26 00        	<unknown>
    34ba: 00 01        	<unknown>
    34bc: 01 09        	<unknown>
    34be: e5 26        	<unknown>
    34c0: 00 00        	<unknown>
    34c2: 09 ff        	<unknown>
    34c4: 27 00 00 09  	<unknown>
    34c8: 92 34        	<unknown>
    34ca: 00 00        	<unknown>
    34cc: 00 20        	<unknown>
    34ce: c2 13        	<unknown>
    34d0: 00 00        	<unknown>
    34d2: 13 ac 01 0f  	slti	s8, gp, 0xf0
    34d6: 17 00 00 01  	auipc	zero, 0x1000
    34da: 01 09        	<unknown>
    34dc: ff 27 00 00  	<unknown>
    34e0: 09 92        	<unknown>
    34e2: 34 00        	<unknown>
    34e4: 00 09        	<unknown>
    34e6: 4b 13 00 00  	fnmsub.s	ft6, ft0, ft0, ft0, rtz
    34ea: 00 20        	<unknown>
    34ec: c9 13        	<unknown>
    34ee: 00 00        	<unknown>
    34f0: 13 b1 01 d9  	sltiu	sp, gp, -0x270
    34f4: 25 00        	<unknown>
    34f6: 00 01        	<unknown>
    34f8: 01 09        	<unknown>
    34fa: ff 27 00 00  	<unknown>
    34fe: 09 92        	<unknown>
    3500: 34 00        	<unknown>
    3502: 00 09        	<unknown>
    3504: 4b 13 00 00  	fnmsub.s	ft6, ft0, ft0, ft0, rtz
    3508: 00 21        	<unknown>
    350a: d1 13        	<unknown>
    350c: 00 00        	<unknown>
    350e: 13 87 ce 25  	addi	a4, t4, 0x25c
    3512: 00 00        	<unknown>
    3514: 01 01        	<unknown>
    3516: 09 e5        	<unknown>
    3518: 26 00        	<unknown>
    351a: 00 09        	<unknown>
    351c: ff 27 00 00  	<unknown>
    3520: 09 ce        	<unknown>
    3522: 25 00        	<unknown>
    3524: 00 00        	<unknown>
    3526: 20 d9        	<unknown>
    3528: 13 00 00 13  	li	zero, 0x130
    352c: 20 01        	<unknown>
    352e: 4b 13 00 00  	fnmsub.s	ft6, ft0, ft0, ft0, rtz
    3532: 01 01        	<unknown>
    3534: 09 1c        	<unknown>
    3536: 30 00        	<unknown>
    3538: 00 00        	<unknown>
    353a: 20 df        	<unknown>
    353c: 13 00 00 13  	li	zero, 0x130
    3540: 02 01        	<unknown>
    3542: 4b 13 00 00  	fnmsub.s	ft6, ft0, ft0, ft0, rtz
    3546: 01 01        	<unknown>
    3548: 09 ff        	<unknown>
    354a: 27 00 00 09  	<unknown>
    354e: ff 27 00 00  	<unknown>
    3552: 09 ce        	<unknown>
    3554: 25 00        	<unknown>
    3556: 00 00        	<unknown>
    3558: 20 e7        	<unknown>
    355a: 13 00 00 13  	li	zero, 0x130
    355e: 06 01        	<unknown>
    3560: e5 26        	<unknown>
    3562: 00 00        	<unknown>
    3564: 01 01        	<unknown>
    3566: 09 e5        	<unknown>
    3568: 26 00        	<unknown>
    356a: 00 09        	<unknown>
    356c: ff 27 00 00  	<unknown>
    3570: 09 ce        	<unknown>
    3572: 25 00        	<unknown>
    3574: 00 00        	<unknown>
    3576: 20 ef        	<unknown>
    3578: 13 00 00 13  	li	zero, 0x130
    357c: 0b 01 e5 26  	<unknown>
    3580: 00 00        	<unknown>
    3582: 01 01        	<unknown>
    3584: 09 e5        	<unknown>
    3586: 26 00        	<unknown>
    3588: 00 09        	<unknown>
    358a: ff 27 00 00  	<unknown>
    358e: 09 ce        	<unknown>
    3590: 25 00        	<unknown>
    3592: 00 00        	<unknown>
    3594: 20 f8        	<unknown>
    3596: 13 00 00 13  	li	zero, 0x130
    359a: 0f 01 e5 26  	<unknown>
    359e: 00 00        	<unknown>
    35a0: 01 01        	<unknown>
    35a2: 09 e5        	<unknown>
    35a4: 26 00        	<unknown>
    35a6: 00 09        	<unknown>
    35a8: ea 26        	<unknown>
    35aa: 00 00        	<unknown>
    35ac: 09 ce        	<unknown>
    35ae: 25 00        	<unknown>
    35b0: 00 00        	<unknown>
    35b2: 20 d3        	<unknown>
    35b4: 12 00        	<unknown>
    35b6: 00 13        	<unknown>
    35b8: 4b 02 4b 13  	fnmsub.d	ft4, fs6, fs4, ft2, rne
    35bc: 00 00        	<unknown>
    35be: 01 01        	<unknown>
    35c0: 09 ff        	<unknown>
    35c2: 27 00 00 31  	<unknown>
    35c6: 00 12        	<unknown>
    35c8: 00 14        	<unknown>
    35ca: 00 00        	<unknown>
    35cc: 09 14        	<unknown>
    35ce: 00 00        	<unknown>
    35d0: 13 84 02 4b  	addi	s0, t0, 0x4b0
    35d4: 13 00 00 01  	li	zero, 0x10
    35d8: 01 09        	<unknown>
    35da: ff 27 00 00  	<unknown>
    35de: 31 00        	<unknown>
    35e0: 21 10        	<unknown>
    35e2: 14 00        	<unknown>
    35e4: 00 13        	<unknown>
    35e6: a4 e5        	<unknown>
    35e8: 26 00        	<unknown>
    35ea: 00 01        	<unknown>
    35ec: 01 09        	<unknown>
    35ee: ff 27 00 00  	<unknown>
    35f2: 09 ea        	<unknown>
    35f4: 26 00        	<unknown>
    35f6: 00 00        	<unknown>
    35f8: 21 17        	<unknown>
    35fa: 14 00        	<unknown>
    35fc: 00 13        	<unknown>
    35fe: c9 e5        	<unknown>
    3600: 26 00        	<unknown>
    3602: 00 01        	<unknown>
    3604: 01 09        	<unknown>
    3606: ff 27 00 00  	<unknown>
    360a: 09 ff        	<unknown>
    360c: 27 00 00 00  	<unknown>
    3610: 21 1f        	<unknown>
    3612: 14 00        	<unknown>
    3614: 00 13        	<unknown>
    3616: ae e5        	<unknown>
    3618: 26 00        	<unknown>
    361a: 00 01        	<unknown>
    361c: 01 09        	<unknown>
    361e: ff 27 00 00  	<unknown>
    3622: 09 ea        	<unknown>
    3624: 26 00        	<unknown>
    3626: 00 00        	<unknown>
    3628: 21 27        	<unknown>
    362a: 14 00        	<unknown>
    362c: 00 13        	<unknown>
    362e: d4 e5        	<unknown>
    3630: 26 00        	<unknown>
    3632: 00 01        	<unknown>
    3634: 01 09        	<unknown>
    3636: ff 27 00 00  	<unknown>
    363a: 09 ff        	<unknown>
    363c: 27 00 00 00  	<unknown>
    3640: 21 2e        	<unknown>
    3642: 14 00        	<unknown>
    3644: 00 13        	<unknown>
    3646: fd e5        	<unknown>
    3648: 26 00        	<unknown>
    364a: 00 01        	<unknown>
    364c: 01 09        	<unknown>
    364e: ff 27 00 00  	<unknown>
    3652: 09 ea        	<unknown>
    3654: 26 00        	<unknown>
    3656: 00 09        	<unknown>
    3658: ce 25        	<unknown>
    365a: 00 00        	<unknown>
    365c: 00 20        	<unknown>
    365e: 36 14        	<unknown>
    3660: 00 00        	<unknown>
    3662: 13 80 01 4f  	addi	zero, gp, 0x4f0
    3666: 1c 00        	<unknown>
    3668: 00 01        	<unknown>
    366a: 01 09        	<unknown>
    366c: ff 27 00 00  	<unknown>
    3670: 09 92        	<unknown>
    3672: 34 00        	<unknown>
    3674: 00 00        	<unknown>
    3676: 20 3e        	<unknown>
    3678: 14 00        	<unknown>
    367a: 00 13        	<unknown>
    367c: b9 01        	<unknown>
    367e: 5d 17        	<unknown>
    3680: 00 00        	<unknown>
    3682: 01 01        	<unknown>
    3684: 09 ff        	<unknown>
    3686: 27 00 00 09  	<unknown>
    368a: 92 34        	<unknown>
    368c: 00 00        	<unknown>
    368e: 09 4b        	<unknown>
    3690: 13 00 00 00  	nop
    3694: 20 46        	<unknown>
    3696: 14 00        	<unknown>
    3698: 00 13        	<unknown>
    369a: c0 01        	<unknown>
    369c: 1b 01 00 00  	sext.w	sp, zero
    36a0: 01 01        	<unknown>
    36a2: 09 ff        	<unknown>
    36a4: 27 00 00 09  	<unknown>
    36a8: 92 34        	<unknown>
    36aa: 00 00        	<unknown>
    36ac: 09 4b        	<unknown>
    36ae: 13 00 00 00  	nop
    36b2: 19 70        	<unknown>
    36b4: 10 00        	<unknown>
    36b6: 00 30        	<unknown>
    36b8: e6 14        	<unknown>
    36ba: 00 00        	<unknown>
    36bc: 01 21        	<unknown>
    36be: ec 14        	<unknown>
    36c0: 00 00        	<unknown>
    36c2: 18 7a        	<unknown>
    36c4: 68 26        	<unknown>
    36c6: 00 00        	<unknown>
    36c8: 01 01        	<unknown>
    36ca: 09 4b        	<unknown>
    36cc: 13 00 00 09  	li	zero, 0x90
    36d0: 67 18 00 00  	<unknown>
    36d4: 00 33        	<unknown>
    36d6: f6 14        	<unknown>
    36d8: 00 00        	<unknown>
    36da: 18 7d        	<unknown>
    36dc: e2 36        	<unknown>
    36de: 00 00        	<unknown>
    36e0: 01 01        	<unknown>
    36e2: 0e b7        	<unknown>
    36e4: 36 00        	<unknown>
    36e6: 00 21        	<unknown>
    36e8: 01 15        	<unknown>
    36ea: 00 00        	<unknown>
    36ec: 19 6c        	<unknown>
    36ee: 4b 13 00 00  	fnmsub.s	ft6, ft0, ft0, ft0, rtz
    36f2: 01 01        	<unknown>
    36f4: 09 4b        	<unknown>
    36f6: 13 00 00 00  	nop
    36fa: 21 09        	<unknown>
    36fc: 15 00        	<unknown>
    36fe: 00 19        	<unknown>
    3700: 6d 4b        	<unknown>
    3702: 13 00 00 01  	li	zero, 0x10
    3706: 01 09        	<unknown>
    3708: 4b 13 00 00  	fnmsub.s	ft6, ft0, ft0, ft0, rtz
    370c: 00 21        	<unknown>
    370e: 11 15        	<unknown>
    3710: 00 00        	<unknown>
    3712: 19 6e        	<unknown>
    3714: 4b 13 00 00  	fnmsub.s	ft6, ft0, ft0, ft0, rtz
    3718: 01 01        	<unknown>
    371a: 09 4b        	<unknown>
    371c: 13 00 00 00  	nop
    3720: 21 19        	<unknown>
    3722: 15 00        	<unknown>
    3724: 00 19        	<unknown>
    3726: 6f 4b 13 00  	jal	s6, 0x37f26 <.debug_info+0x37f26>
    372a: 00 01        	<unknown>
    372c: 01 09        	<unknown>
    372e: 4b 13 00 00  	fnmsub.s	ft6, ft0, ft0, ft0, rtz
    3732: 00 21        	<unknown>
    3734: 21 15        	<unknown>
    3736: 00 00        	<unknown>
    3738: 19 71        	<unknown>
    373a: 4b 13 00 00  	fnmsub.s	ft6, ft0, ft0, ft0, rtz
    373e: 01 01        	<unknown>
    3740: 09 4b        	<unknown>
    3742: 13 00 00 00  	nop
    3746: 21 29        	<unknown>
    3748: 15 00        	<unknown>
    374a: 00 19        	<unknown>
    374c: 70 4b        	<unknown>
    374e: 13 00 00 01  	li	zero, 0x10
    3752: 01 09        	<unknown>
    3754: 4b 13 00 00  	fnmsub.s	ft6, ft0, ft0, ft0, rtz
    3758: 00 21        	<unknown>
    375a: 31 15        	<unknown>
    375c: 00 00        	<unknown>
    375e: 19 72        	<unknown>
    3760: 4b 13 00 00  	fnmsub.s	ft6, ft0, ft0, ft0, rtz
    3764: 01 01        	<unknown>
    3766: 09 4b        	<unknown>
    3768: 13 00 00 00  	nop
    376c: 21 39        	<unknown>
    376e: 15 00        	<unknown>
    3770: 00 19        	<unknown>
    3772: 73 4b 13 00  	<unknown>
    3776: 00 01        	<unknown>
    3778: 01 09        	<unknown>
    377a: 4b 13 00 00  	fnmsub.s	ft6, ft0, ft0, ft0, rtz
    377e: 00 21        	<unknown>
    3780: 41 15        	<unknown>
    3782: 00 00        	<unknown>
    3784: 19 74        	<unknown>
    3786: 4b 13 00 00  	fnmsub.s	ft6, ft0, ft0, ft0, rtz
    378a: 01 01        	<unknown>
    378c: 09 4b        	<unknown>
    378e: 13 00 00 00  	nop
    3792: 21 49        	<unknown>
    3794: 15 00        	<unknown>
    3796: 00 19        	<unknown>
    3798: 75 4b        	<unknown>
    379a: 13 00 00 01  	li	zero, 0x10
    379e: 01 09        	<unknown>
    37a0: 4b 13 00 00  	fnmsub.s	ft6, ft0, ft0, ft0, rtz
    37a4: 00 21        	<unknown>
    37a6: 51 15        	<unknown>
    37a8: 00 00        	<unknown>
    37aa: 19 76        	<unknown>
    37ac: 4b 13 00 00  	fnmsub.s	ft6, ft0, ft0, ft0, rtz
    37b0: 01 01        	<unknown>
    37b2: 09 4b        	<unknown>
    37b4: 13 00 00 00  	nop
    37b8: 21 5a        	<unknown>
    37ba: 15 00        	<unknown>
    37bc: 00 19        	<unknown>
    37be: 7a 4b        	<unknown>
    37c0: 13 00 00 01  	li	zero, 0x10
    37c4: 01 09        	<unknown>
    37c6: 4b 13 00 00  	fnmsub.s	ft6, ft0, ft0, ft0, rtz
    37ca: 00 21        	<unknown>
    37cc: 62 15        	<unknown>
    37ce: 00 00        	<unknown>
    37d0: 19 7d        	<unknown>
    37d2: 4b 13 00 00  	fnmsub.s	ft6, ft0, ft0, ft0, rtz
    37d6: 01 01        	<unknown>
    37d8: 09 4b        	<unknown>
    37da: 13 00 00 00  	nop
    37de: 21 6a        	<unknown>
    37e0: 15 00        	<unknown>
    37e2: 00 19        	<unknown>
    37e4: 82 4b        	<unknown>
    37e6: 13 00 00 01  	li	zero, 0x10
    37ea: 01 09        	<unknown>
    37ec: 4b 13 00 00  	fnmsub.s	ft6, ft0, ft0, ft0, rtz
    37f0: 00 02        	<unknown>
    37f2: 72 15        	<unknown>
    37f4: 00 00        	<unknown>
    37f6: 34 1b        	<unknown>
    37f8: 3a 2f        	<unknown>
    37fa: 11 00        	<unknown>
    37fc: 00 00        	<unknown>
    37fe: 0a 5f        	<unknown>
    3800: 30 00        	<unknown>
    3802: 00 4d        	<unknown>
    3804: 12 00        	<unknown>
    3806: 00 1c        	<unknown>
    3808: 07 0a 14 38  	<unknown>
    380c: 00 00        	<unknown>
    380e: 89 15        	<unknown>
    3810: 00 00        	<unknown>
    3812: 1f 54 0a 1f  	<unknown>
    3816: 38 00        	<unknown>
    3818: 00 90        	<unknown>
    381a: 15 00        	<unknown>
    381c: 00 1e        	<unknown>
    381e: 0e 30        	<unknown>
    3820: 86 15        	<unknown>
    3822: 00 00        	<unknown>
    3824: 01 11        	<unknown>
    3826: 99 15        	<unknown>
    3828: 00 00        	<unknown>
    382a: 1f f5 02 01  	<unknown>
    382e: 01 09        	<unknown>
    3830: 35 38        	<unknown>
    3832: 00 00        	<unknown>
    3834: 00 0e        	<unknown>
    3836: fe 37        	<unknown>
    3838: 00 00        	<unknown>
    383a: 21 a2        	<unknown>
    383c: 15 00        	<unknown>
    383e: 00 1f        	<unknown>
    3840: d5 4b        	<unknown>
    3842: 13 00 00 01  	li	zero, 0x10
    3846: 01 09        	<unknown>
    3848: 35 38        	<unknown>
    384a: 00 00        	<unknown>
    384c: 00 20        	<unknown>
    384e: a9 15        	<unknown>
    3850: 00 00        	<unknown>
    3852: 1f f7 02 4b  	<unknown>
    3856: 13 00 00 01  	li	zero, 0x10
    385a: 01 09        	<unknown>
    385c: 35 38        	<unknown>
    385e: 00 00        	<unknown>
    3860: 00 20        	<unknown>
    3862: ae 15        	<unknown>
    3864: 00 00        	<unknown>
    3866: 1f f9 02 4b  	<unknown>
    386a: 13 00 00 01  	li	zero, 0x10
    386e: 01 09        	<unknown>
    3870: 35 38        	<unknown>
    3872: 00 00        	<unknown>
    3874: 00 21        	<unknown>
    3876: b5 15        	<unknown>
    3878: 00 00        	<unknown>
    387a: 1f da 4b 13  	<unknown>
    387e: 00 00        	<unknown>
    3880: 01 01        	<unknown>
    3882: 09 35        	<unknown>
    3884: 38 00        	<unknown>
    3886: 00 00        	<unknown>
    3888: 20 bc        	<unknown>
    388a: 15 00        	<unknown>
    388c: 00 1f        	<unknown>
    388e: e5 01        	<unknown>
    3890: 4b 13 00 00  	fnmsub.s	ft6, ft0, ft0, ft0, rtz
    3894: 01 01        	<unknown>
    3896: 09 35        	<unknown>
    3898: 38 00        	<unknown>
    389a: 00 00        	<unknown>
    389c: 20 c2        	<unknown>
    389e: 15 00        	<unknown>
    38a0: 00 1f        	<unknown>
    38a2: db 02 4b 13  	<unknown>
    38a6: 00 00        	<unknown>
    38a8: 01 01        	<unknown>
    38aa: 09 35        	<unknown>
    38ac: 38 00        	<unknown>
    38ae: 00 09        	<unknown>
    38b0: b5 38        	<unknown>
    38b2: 00 00        	<unknown>
    38b4: 00 0e        	<unknown>
    38b6: 09 38        	<unknown>
    38b8: 00 00        	<unknown>
    38ba: 20 ca        	<unknown>
    38bc: 15 00        	<unknown>
    38be: 00 1f        	<unknown>
    38c0: 34 02        	<unknown>
    38c2: 68 26        	<unknown>
    38c4: 00 00        	<unknown>
    38c6: 01 01        	<unknown>
    38c8: 09 68        	<unknown>
    38ca: 26 00        	<unknown>
    38cc: 00 09        	<unknown>
    38ce: 4b 13 00 00  	fnmsub.s	ft6, ft0, ft0, ft0, rtz
    38d2: 09 35        	<unknown>
    38d4: 38 00        	<unknown>
    38d6: 00 00        	<unknown>
    38d8: 21 d0        	<unknown>
    38da: 15 00        	<unknown>
    38dc: 00 1f        	<unknown>
    38de: f6 35        	<unknown>
    38e0: 38 00        	<unknown>
    38e2: 00 01        	<unknown>
    38e4: 01 09        	<unknown>
    38e6: 67 18 00 00  	<unknown>
    38ea: 09 67        	<unknown>
    38ec: 18 00        	<unknown>
    38ee: 00 00        	<unknown>
    38f0: 20 8c        	<unknown>
    38f2: 16 00        	<unknown>
    38f4: 00 1f        	<unknown>
    38f6: 46 01        	<unknown>
    38f8: 4b 13 00 00  	fnmsub.s	ft6, ft0, ft0, ft0, rtz
    38fc: 01 01        	<unknown>
    38fe: 09 35        	<unknown>
    3900: 38 00        	<unknown>
    3902: 00 09        	<unknown>
    3904: 67 18 00 00  	<unknown>
    3908: 31 00        	<unknown>
    390a: 20 d6        	<unknown>
    390c: 15 00        	<unknown>
    390e: 00 1f        	<unknown>
    3910: 09 02        	<unknown>
    3912: 4b 13 00 00  	fnmsub.s	ft6, ft0, ft0, ft0, rtz
    3916: 01 01        	<unknown>
    3918: 09 4b        	<unknown>
    391a: 13 00 00 09  	li	zero, 0x90
    391e: 35 38        	<unknown>
    3920: 00 00        	<unknown>
    3922: 00 20        	<unknown>
    3924: dc 15        	<unknown>
    3926: 00 00        	<unknown>
    3928: 1f 72 02 4b  	<unknown>
    392c: 13 00 00 01  	li	zero, 0x10
    3930: 01 09        	<unknown>
    3932: 67 18 00 00  	<unknown>
    3936: 09 35        	<unknown>
    3938: 38 00        	<unknown>
    393a: 00 00        	<unknown>
    393c: 20 e2        	<unknown>
    393e: 15 00        	<unknown>
    3940: 00 1f        	<unknown>
    3942: 86 02        	<unknown>
    3944: ce 25        	<unknown>
    3946: 00 00        	<unknown>
    3948: 01 01        	<unknown>
    394a: 09 c7        	<unknown>
    394c: 25 00        	<unknown>
    394e: 00 09        	<unknown>
    3950: ce 25        	<unknown>
    3952: 00 00        	<unknown>
    3954: 09 ce        	<unknown>
    3956: 25 00        	<unknown>
    3958: 00 09        	<unknown>
    395a: 35 38        	<unknown>
    395c: 00 00        	<unknown>
    395e: 00 21        	<unknown>
    3960: e8 15        	<unknown>
    3962: 00 00        	<unknown>
    3964: 1f fc 35 38  	<unknown>
    3968: 00 00        	<unknown>
    396a: 01 01        	<unknown>
    396c: 09 67        	<unknown>
    396e: 18 00        	<unknown>
    3970: 00 09        	<unknown>
    3972: 67 18 00 00  	<unknown>
    3976: 09 35        	<unknown>
    3978: 38 00        	<unknown>
    397a: 00 00        	<unknown>
    397c: 12 f0        	<unknown>
    397e: 15 00        	<unknown>
    3980: 00 f9        	<unknown>
    3982: 15 00        	<unknown>
    3984: 00 1f        	<unknown>
    3986: 97 01 4b 13  	auipc	gp, 0x134b0
    398a: 00 00        	<unknown>
    398c: 01 01        	<unknown>
    398e: 09 35        	<unknown>
    3990: 38 00        	<unknown>
    3992: 00 09        	<unknown>
    3994: 67 18 00 00  	<unknown>
    3998: 31 00        	<unknown>
    399a: 20 00        	<unknown>
    399c: 16 00        	<unknown>
    399e: 00 1f        	<unknown>
    39a0: ac 02        	<unknown>
    39a2: 4b 13 00 00  	fnmsub.s	ft6, ft0, ft0, ft0, rtz
    39a6: 01 01        	<unknown>
    39a8: 09 35        	<unknown>
    39aa: 38 00        	<unknown>
    39ac: 00 09        	<unknown>
    39ae: 0f 17 00 00  	<unknown>
    39b2: 09 4b        	<unknown>
    39b4: 13 00 00 00  	nop
    39b8: 20 06        	<unknown>
    39ba: 16 00        	<unknown>
    39bc: 00 1f        	<unknown>
    39be: e0 02        	<unknown>
    39c0: 4b 13 00 00  	fnmsub.s	ft6, ft0, ft0, ft0, rtz
    39c4: 01 01        	<unknown>
    39c6: 09 35        	<unknown>
    39c8: 38 00        	<unknown>
    39ca: 00 09        	<unknown>
    39cc: d1 39        	<unknown>
    39ce: 00 00        	<unknown>
    39d0: 00 0e        	<unknown>
    39d2: d6 39        	<unknown>
    39d4: 00 00        	<unknown>
    39d6: 14 09        	<unknown>
    39d8: 38 00        	<unknown>
    39da: 00 20        	<unknown>
    39dc: 0e 16        	<unknown>
    39de: 00 00        	<unknown>
    39e0: 1f b1 02 0f  	<unknown>
    39e4: 17 00 00 01  	auipc	zero, 0x1000
    39e8: 01 09        	<unknown>
    39ea: 35 38        	<unknown>
    39ec: 00 00        	<unknown>
    39ee: 00 20        	<unknown>
    39f0: 14 16        	<unknown>
    39f2: 00 00        	<unknown>
    39f4: 1f 8c 02 ce  	<unknown>
    39f8: 25 00        	<unknown>
    39fa: 00 01        	<unknown>
    39fc: 01 09        	<unknown>
    39fe: c8 25        	<unknown>
    3a00: 00 00        	<unknown>
    3a02: 09 ce        	<unknown>
    3a04: 25 00        	<unknown>
    3a06: 00 09        	<unknown>
    3a08: ce 25        	<unknown>
    3a0a: 00 00        	<unknown>
    3a0c: 09 35        	<unknown>
    3a0e: 38 00        	<unknown>
    3a10: 00 00        	<unknown>
    3a12: 20 bd        	<unknown>
    3a14: 15 00        	<unknown>
    3a16: 00 1f        	<unknown>
    3a18: e6 01        	<unknown>
    3a1a: 4b 13 00 00  	fnmsub.s	ft6, ft0, ft0, ft0, rtz
    3a1e: 01 01        	<unknown>
    3a20: 09 35        	<unknown>
    3a22: 38 00        	<unknown>
    3a24: 00 00        	<unknown>
    3a26: 2a 1b        	<unknown>
    3a28: 16 00        	<unknown>
    3a2a: 00 1f        	<unknown>
    3a2c: ec 01        	<unknown>
    3a2e: 4b 13 00 00  	fnmsub.s	ft6, ft0, ft0, ft0, rtz
    3a32: 01 01        	<unknown>
    3a34: 20 cb        	<unknown>
    3a36: 15 00        	<unknown>
    3a38: 00 1f        	<unknown>
    3a3a: 41 02        	<unknown>
    3a3c: 68 26        	<unknown>
    3a3e: 00 00        	<unknown>
    3a40: 01 01        	<unknown>
    3a42: 09 68        	<unknown>
    3a44: 26 00        	<unknown>
    3a46: 00 00        	<unknown>
    3a48: 11 23        	<unknown>
    3a4a: 16 00        	<unknown>
    3a4c: 00 1f        	<unknown>
    3a4e: 07 03 01 01  	<unknown>
    3a52: 09 67        	<unknown>
    3a54: 18 00        	<unknown>
    3a56: 00 00        	<unknown>
    3a58: 20 8d        	<unknown>
    3a5a: 16 00        	<unknown>
    3a5c: 00 1f        	<unknown>
    3a5e: 4c 01        	<unknown>
    3a60: 4b 13 00 00  	fnmsub.s	ft6, ft0, ft0, ft0, rtz
    3a64: 01 01        	<unknown>
    3a66: 09 67        	<unknown>
    3a68: 18 00        	<unknown>
    3a6a: 00 31        	<unknown>
    3a6c: 00 20        	<unknown>
    3a6e: d7 15 00 00  	<unknown>
    3a72: 1f 0a 02 4b  	<unknown>
    3a76: 13 00 00 01  	li	zero, 0x10
    3a7a: 01 09        	<unknown>
    3a7c: 4b 13 00 00  	fnmsub.s	ft6, ft0, ft0, ft0, rtz
    3a80: 09 35        	<unknown>
    3a82: 38 00        	<unknown>
    3a84: 00 00        	<unknown>
    3a86: 20 2a        	<unknown>
    3a88: 16 00        	<unknown>
    3a8a: 00 1f        	<unknown>
    3a8c: 10 02        	<unknown>
    3a8e: 4b 13 00 00  	fnmsub.s	ft6, ft0, ft0, ft0, rtz
    3a92: 01 01        	<unknown>
    3a94: 09 4b        	<unknown>
    3a96: 13 00 00 00  	nop
    3a9a: 20 dd        	<unknown>
    3a9c: 15 00        	<unknown>
    3a9e: 00 1f        	<unknown>
    3aa0: 78 02        	<unknown>
    3aa2: 4b 13 00 00  	fnmsub.s	ft6, ft0, ft0, ft0, rtz
    3aa6: 01 01        	<unknown>
    3aa8: 09 67        	<unknown>
    3aaa: 18 00        	<unknown>
    3aac: 00 00        	<unknown>
    3aae: 21 32        	<unknown>
    3ab0: 16 00        	<unknown>
    3ab2: 00 1f        	<unknown>
    3ab4: 92 4b        	<unknown>
    3ab6: 13 00 00 01  	li	zero, 0x10
    3aba: 01 09        	<unknown>
    3abc: 67 18 00 00  	<unknown>
    3ac0: 00 21        	<unknown>
    3ac2: 39 16        	<unknown>
    3ac4: 00 00        	<unknown>
    3ac6: 1f 94 4b 13  	<unknown>
    3aca: 00 00        	<unknown>
    3acc: 01 01        	<unknown>
    3ace: 09 67        	<unknown>
    3ad0: 18 00        	<unknown>
    3ad2: 00 09        	<unknown>
    3ad4: 67 18 00 00  	<unknown>
    3ad8: 00 11        	<unknown>
    3ada: 40 16        	<unknown>
    3adc: 00 00        	<unknown>
    3ade: 1f b6 02 01  	<unknown>
    3ae2: 01 09        	<unknown>
    3ae4: 35 38        	<unknown>
    3ae6: 00 00        	<unknown>
    3ae8: 00 12        	<unknown>
    3aea: 47 16 00 00  	fmsub.s	fa2, ft0, ft0, ft0, rtz
    3aee: 50 16        	<unknown>
    3af0: 00 00        	<unknown>
    3af2: 1f 9a 01 4b  	<unknown>
    3af6: 13 00 00 01  	li	zero, 0x10
    3afa: 01 09        	<unknown>
    3afc: 67 18 00 00  	<unknown>
    3b00: 31 00        	<unknown>
    3b02: 11 56        	<unknown>
    3b04: 16 00        	<unknown>
    3b06: 00 1f        	<unknown>
    3b08: 30 01        	<unknown>
    3b0a: 01 01        	<unknown>
    3b0c: 09 35        	<unknown>
    3b0e: 38 00        	<unknown>
    3b10: 00 09        	<unknown>
    3b12: 68 26        	<unknown>
    3b14: 00 00        	<unknown>
    3b16: 00 20        	<unknown>
    3b18: 5d 16        	<unknown>
    3b1a: 00 00        	<unknown>
    3b1c: 1f 34 01 4b  	<unknown>
    3b20: 13 00 00 01  	li	zero, 0x10
    3b24: 01 09        	<unknown>
    3b26: 35 38        	<unknown>
    3b28: 00 00        	<unknown>
    3b2a: 09 68        	<unknown>
    3b2c: 26 00        	<unknown>
    3b2e: 00 09        	<unknown>
    3b30: 4b 13 00 00  	fnmsub.s	ft6, ft0, ft0, ft0, rtz
    3b34: 09 ce        	<unknown>
    3b36: 25 00        	<unknown>
    3b38: 00 00        	<unknown>
    3b3a: 20 9d        	<unknown>
    3b3c: 16 00        	<unknown>
    3b3e: 00 1f        	<unknown>
    3b40: 4e 01        	<unknown>
    3b42: 4b 13 00 00  	fnmsub.s	ft6, ft0, ft0, ft0, rtz
    3b46: 01 01        	<unknown>
    3b48: 09 68        	<unknown>
    3b4a: 26 00        	<unknown>
    3b4c: 00 09        	<unknown>
    3b4e: 67 18 00 00  	<unknown>
    3b52: 31 00        	<unknown>
    3b54: 12 65        	<unknown>
    3b56: 16 00        	<unknown>
    3b58: 00 6e        	<unknown>
    3b5a: 16 00        	<unknown>
    3b5c: 00 1f        	<unknown>
    3b5e: 9c 01        	<unknown>
    3b60: 4b 13 00 00  	fnmsub.s	ft6, ft0, ft0, ft0, rtz
    3b64: 01 01        	<unknown>
    3b66: 09 67        	<unknown>
    3b68: 18 00        	<unknown>
    3b6a: 00 09        	<unknown>
    3b6c: 67 18 00 00  	<unknown>
    3b70: 31 00        	<unknown>
    3b72: 33 75 16 00  	and	a0, a2, ra
    3b76: 00 1f        	<unknown>
    3b78: ad 35        	<unknown>
    3b7a: 38 00        	<unknown>
    3b7c: 00 01        	<unknown>
    3b7e: 01 21        	<unknown>
    3b80: 7d 16        	<unknown>
    3b82: 00 00        	<unknown>
    3b84: 1f bb 68 26  	<unknown>
    3b88: 00 00        	<unknown>
    3b8a: 01 01        	<unknown>
    3b8c: 09 68        	<unknown>
    3b8e: 26 00        	<unknown>
    3b90: 00 00        	<unknown>
    3b92: 20 84        	<unknown>
    3b94: 16 00        	<unknown>
    3b96: 00 1f        	<unknown>
    3b98: 7f 02 4b 13  	<unknown>
    3b9c: 00 00        	<unknown>
    3b9e: 01 01        	<unknown>
    3ba0: 09 4b        	<unknown>
    3ba2: 13 00 00 09  	li	zero, 0x90
    3ba6: 35 38        	<unknown>
    3ba8: 00 00        	<unknown>
    3baa: 00 20        	<unknown>
    3bac: 8b 16 00 00  	<unknown>
    3bb0: 1f 55 01 4b  	<unknown>
    3bb4: 13 00 00 01  	li	zero, 0x10
    3bb8: 01 09        	<unknown>
    3bba: 35 38        	<unknown>
    3bbc: 00 00        	<unknown>
    3bbe: 09 67        	<unknown>
    3bc0: 18 00        	<unknown>
    3bc2: 00 09        	<unknown>
    3bc4: 55 32        	<unknown>
    3bc6: 00 00        	<unknown>
    3bc8: 00 20        	<unknown>
    3bca: 94 16        	<unknown>
    3bcc: 00 00        	<unknown>
    3bce: 1f 5b 01 4b  	<unknown>
    3bd2: 13 00 00 01  	li	zero, 0x10
    3bd6: 01 09        	<unknown>
    3bd8: 67 18 00 00  	<unknown>
    3bdc: 09 55        	<unknown>
    3bde: 32 00        	<unknown>
    3be0: 00 00        	<unknown>
    3be2: 20 9c        	<unknown>
    3be4: 16 00        	<unknown>
    3be6: 00 1f        	<unknown>
    3be8: 5d 01        	<unknown>
    3bea: 4b 13 00 00  	fnmsub.s	ft6, ft0, ft0, ft0, rtz
    3bee: 01 01        	<unknown>
    3bf0: 09 68        	<unknown>
    3bf2: 26 00        	<unknown>
    3bf4: 00 09        	<unknown>
    3bf6: 67 18 00 00  	<unknown>
    3bfa: 09 55        	<unknown>
    3bfc: 32 00        	<unknown>
    3bfe: 00 00        	<unknown>
    3c00: 20 c7        	<unknown>
    3c02: 16 00        	<unknown>
    3c04: 00 1f        	<unknown>
    3c06: 62 01        	<unknown>
    3c08: 4b 13 00 00  	fnmsub.s	ft6, ft0, ft0, ft0, rtz
    3c0c: 01 01        	<unknown>
    3c0e: 09 68        	<unknown>
    3c10: 26 00        	<unknown>
    3c12: 00 09        	<unknown>
    3c14: ce 25        	<unknown>
    3c16: 00 00        	<unknown>
    3c18: 09 67        	<unknown>
    3c1a: 18 00        	<unknown>
    3c1c: 00 31        	<unknown>
    3c1e: 00 12        	<unknown>
    3c20: a5 16        	<unknown>
    3c22: 00 00        	<unknown>
    3c24: ae 16        	<unknown>
    3c26: 00 00        	<unknown>
    3c28: 1f c3 01 4b  	<unknown>
    3c2c: 13 00 00 01  	li	zero, 0x10
    3c30: 01 09        	<unknown>
    3c32: 35 38        	<unknown>
    3c34: 00 00        	<unknown>
    3c36: 09 67        	<unknown>
    3c38: 18 00        	<unknown>
    3c3a: 00 09        	<unknown>
    3c3c: 55 32        	<unknown>
    3c3e: 00 00        	<unknown>
    3c40: 00 12        	<unknown>
    3c42: b6 16        	<unknown>
    3c44: 00 00        	<unknown>
    3c46: bf 16 00 00  	<unknown>
    3c4a: 1f c8 01 4b  	<unknown>
    3c4e: 13 00 00 01  	li	zero, 0x10
    3c52: 01 09        	<unknown>
    3c54: 67 18 00 00  	<unknown>
    3c58: 09 55        	<unknown>
    3c5a: 32 00        	<unknown>
    3c5c: 00 00        	<unknown>
    3c5e: 20 c6        	<unknown>
    3c60: 16 00        	<unknown>
    3c62: 00 1f        	<unknown>
    3c64: 66 01        	<unknown>
    3c66: 4b 13 00 00  	fnmsub.s	ft6, ft0, ft0, ft0, rtz
    3c6a: 01 01        	<unknown>
    3c6c: 09 68        	<unknown>
    3c6e: 26 00        	<unknown>
    3c70: 00 09        	<unknown>
    3c72: ce 25        	<unknown>
    3c74: 00 00        	<unknown>
    3c76: 09 67        	<unknown>
    3c78: 18 00        	<unknown>
    3c7a: 00 09        	<unknown>
    3c7c: 55 32        	<unknown>
    3c7e: 00 00        	<unknown>
    3c80: 00 12        	<unknown>
    3c82: d0 16        	<unknown>
    3c84: 00 00        	<unknown>
    3c86: d9 16        	<unknown>
    3c88: 00 00        	<unknown>
    3c8a: 1f cb 01 4b  	<unknown>
    3c8e: 13 00 00 01  	li	zero, 0x10
    3c92: 01 09        	<unknown>
    3c94: 67 18 00 00  	<unknown>
    3c98: 09 67        	<unknown>
    3c9a: 18 00        	<unknown>
    3c9c: 00 09        	<unknown>
    3c9e: 55 32        	<unknown>
    3ca0: 00 00        	<unknown>
    3ca2: 00 0a        	<unknown>
    3ca4: ae 3c        	<unknown>
    3ca6: 00 00        	<unknown>
    3ca8: eb 16 00 00  	<unknown>
    3cac: 21 30        	<unknown>
    3cae: 0e b3        	<unknown>
    3cb0: 3c 00        	<unknown>
    3cb2: 00 14        	<unknown>
    3cb4: b8 3c        	<unknown>
    3cb6: 00 00        	<unknown>
    3cb8: 0a 4b        	<unknown>
    3cba: 13 00 00 e1  	li	zero, -0x1f0
    3cbe: 16 00        	<unknown>
    3cc0: 00 20        	<unknown>
    3cc2: 29 0a        	<unknown>
    3cc4: d9 25        	<unknown>
    3cc6: 00 00        	<unknown>
    3cc8: f5 16        	<unknown>
    3cca: 00 00        	<unknown>
    3ccc: 23 26 21 fe  	sw	sp, -0x14(sp)
    3cd0: 16 00        	<unknown>
    3cd2: 00 23        	<unknown>
    3cd4: 5f 4b 13 00  	<unknown>
    3cd8: 00 01        	<unknown>
    3cda: 01 09        	<unknown>
    3cdc: 1c 30        	<unknown>
    3cde: 00 00        	<unknown>
    3ce0: 00 21        	<unknown>
    3ce2: 07 17 00 00  	<unknown>
    3ce6: 23 65 4b 13  	<unknown>
    3cea: 00 00        	<unknown>
    3cec: 01 01        	<unknown>
    3cee: 09 1c        	<unknown>
    3cf0: 30 00        	<unknown>
    3cf2: 00 00        	<unknown>
    3cf4: 21 10        	<unknown>
    3cf6: 17 00 00 23  	auipc	zero, 0x23000
    3cfa: 92 4b        	<unknown>
    3cfc: 13 00 00 01  	li	zero, 0x10
    3d00: 01 09        	<unknown>
    3d02: 1c 30        	<unknown>
    3d04: 00 00        	<unknown>
    3d06: 00 21        	<unknown>
    3d08: 19 17        	<unknown>
    3d0a: 00 00        	<unknown>
    3d0c: 23 68 4b 13  	<unknown>
    3d10: 00 00        	<unknown>
    3d12: 01 01        	<unknown>
    3d14: 09 1c        	<unknown>
    3d16: 30 00        	<unknown>
    3d18: 00 00        	<unknown>
    3d1a: 21 22        	<unknown>
    3d1c: 17 00 00 23  	auipc	zero, 0x23000
    3d20: 9f 4b 13 00  	<unknown>
    3d24: 00 01        	<unknown>
    3d26: 01 09        	<unknown>
    3d28: 1c 30        	<unknown>
    3d2a: 00 00        	<unknown>
    3d2c: 09 c3        	<unknown>
    3d2e: 3c 00        	<unknown>
    3d30: 00 00        	<unknown>
    3d32: 21 2b        	<unknown>
    3d34: 17 00 00 23  	auipc	zero, 0x23000
    3d38: 6c 4b        	<unknown>
    3d3a: 13 00 00 01  	li	zero, 0x10
    3d3e: 01 09        	<unknown>
    3d40: 1c 30        	<unknown>
    3d42: 00 00        	<unknown>
    3d44: 00 21        	<unknown>
    3d46: 34 17        	<unknown>
    3d48: 00 00        	<unknown>
    3d4a: 23 70 4b 13  	<unknown>
    3d4e: 00 00        	<unknown>
    3d50: 01 01        	<unknown>
    3d52: 09 1c        	<unknown>
    3d54: 30 00        	<unknown>
    3d56: 00 00        	<unknown>
    3d58: 21 3d        	<unknown>
    3d5a: 17 00 00 23  	auipc	zero, 0x23000
    3d5e: 75 4b        	<unknown>
    3d60: 13 00 00 01  	li	zero, 0x10
    3d64: 01 09        	<unknown>
    3d66: 1c 30        	<unknown>
    3d68: 00 00        	<unknown>
    3d6a: 00 21        	<unknown>
    3d6c: 46 17        	<unknown>
    3d6e: 00 00        	<unknown>
    3d70: 23 78 4b 13  	<unknown>
    3d74: 00 00        	<unknown>
    3d76: 01 01        	<unknown>
    3d78: 09 1c        	<unknown>
    3d7a: 30 00        	<unknown>
    3d7c: 00 00        	<unknown>
    3d7e: 21 4f        	<unknown>
    3d80: 17 00 00 23  	auipc	zero, 0x23000
    3d84: 7d 4b        	<unknown>
    3d86: 13 00 00 01  	li	zero, 0x10
    3d8a: 01 09        	<unknown>
    3d8c: 1c 30        	<unknown>
    3d8e: 00 00        	<unknown>
    3d90: 00 21        	<unknown>
    3d92: 58 17        	<unknown>
    3d94: 00 00        	<unknown>
    3d96: 23 82 4b 13  	sb	s4, 0x124(s7)
    3d9a: 00 00        	<unknown>
    3d9c: 01 01        	<unknown>
    3d9e: 09 1c        	<unknown>
    3da0: 30 00        	<unknown>
    3da2: 00 00        	<unknown>
    3da4: 21 61        	<unknown>
    3da6: 17 00 00 23  	auipc	zero, 0x23000
    3daa: 87 4b 13 00  	<unknown>
    3dae: 00 01        	<unknown>
    3db0: 01 09        	<unknown>
    3db2: 1c 30        	<unknown>
    3db4: 00 00        	<unknown>
    3db6: 00 21        	<unknown>
    3db8: 6a 17        	<unknown>
    3dba: 00 00        	<unknown>
    3dbc: 23 8c 4b 13  	sb	s4, 0x138(s7)
    3dc0: 00 00        	<unknown>
    3dc2: 01 01        	<unknown>
    3dc4: 09 1c        	<unknown>
    3dc6: 30 00        	<unknown>
    3dc8: 00 00        	<unknown>
    3dca: 21 74        	<unknown>
    3dcc: 17 00 00 21  	auipc	zero, 0x21000
    3dd0: 37 1c 30 00  	lui	s8, 0x301
    3dd4: 00 01        	<unknown>
    3dd6: 01 09        	<unknown>
    3dd8: 1c 30        	<unknown>
    3dda: 00 00        	<unknown>
    3ddc: 09 a3        	<unknown>
    3dde: 3c 00        	<unknown>
    3de0: 00 00        	<unknown>
    3de2: 21 7e        	<unknown>
    3de4: 17 00 00 23  	auipc	zero, 0x23000
    3de8: a6 1c        	<unknown>
    3dea: 30 00        	<unknown>
    3dec: 00 01        	<unknown>
    3dee: 01 09        	<unknown>
    3df0: 1c 30        	<unknown>
    3df2: 00 00        	<unknown>
    3df4: 00 21        	<unknown>
    3df6: 87 17 00 00  	<unknown>
    3dfa: 23 a9 1c 30  	sw	ra, 0x312(s9)
    3dfe: 00 00        	<unknown>
    3e00: 01 01        	<unknown>
    3e02: 09 1c        	<unknown>
    3e04: 30 00        	<unknown>
    3e06: 00 00        	<unknown>
    3e08: 21 76        	<unknown>
    3e0a: 17 00 00 21  	auipc	zero, 0x21000
    3e0e: 34 a3        	<unknown>
    3e10: 3c 00        	<unknown>
    3e12: 00 01        	<unknown>
    3e14: 01 09        	<unknown>
    3e16: 67 18 00 00  	<unknown>
    3e1a: 00 21        	<unknown>
    3e1c: 24 17        	<unknown>
    3e1e: 00 00        	<unknown>
    3e20: 23 9b c3 3c  	sh	a2, 0x3d6(t2)
    3e24: 00 00        	<unknown>
    3e26: 01 01        	<unknown>
    3e28: 09 67        	<unknown>
    3e2a: 18 00        	<unknown>
    3e2c: 00 00        	<unknown>
    3e2e: 0c 24        	<unknown>
    3e30: 26 b6        	<unknown>
    3e32: 0c 00        	<unknown>
    3e34: 00 0e        	<unknown>
    3e36: 4f 1c 00 00  	fnmadd.s	fs8, ft0, ft0, ft0, rtz
    3e3a: 0c 24        	<unknown>
    3e3c: 36 17        	<unknown>
    3e3e: 13 00 00 34  	li	zero, 0x340
    3e42: 25 23        	<unknown>
    3e44: 84 05        	<unknown>
    3e46: 00 00        	<unknown>
    3e48: 34 26        	<unknown>
    3e4a: 10 84        	<unknown>
    3e4c: 05 00        	<unknown>
    3e4e: 00 34        	<unknown>
    3e50: 27 13 84 05  	<unknown>
    3e54: 00 00        	<unknown>
    3e56: 00           	<unknown>

Disassembly of section .debug_abbrev:

0000000000000000 <.debug_abbrev>:
       0: 01 11        	<unknown>
       2: 01 25        	<unknown>
       4: 0e 13        	<unknown>
       6: 05 03        	<unknown>
       8: 0e 10        	<unknown>
       a: 06 1b        	<unknown>
       c: 0e 00        	<unknown>
       e: 00 02        	<unknown>
      10: 39 01        	<unknown>
      12: 03 0e 00 00  	lb	t3, 0x0(zero)
      16: 03 04 01 03  	lb	s0, 0x30(sp)
      1a: 0e 0b        	<unknown>
      1c: 0b 3a 0b 3b  	<unknown>
      20: 0b 00 00 04  	<unknown>
      24: 28 00        	<unknown>
      26: 03 0e 1c 0f  	lb	t3, 0xf1(s8)
      2a: 00 00        	<unknown>
      2c: 05 13        	<unknown>
      2e: 01 36        	<unknown>
      30: 0b 03 0e 0b  	<unknown>
      34: 0b 3a 0b 3b  	<unknown>
      38: 0b 00 00 06  	<unknown>
      3c: 0d 00        	<unknown>
      3e: 03 0e 49 13  	lb	t3, 0x134(s2)
      42: 3a 0b        	<unknown>
      44: 3b 0b 38 0a  	<unknown>
      48: 00 00        	<unknown>
      4a: 07 2e 01 03  	flw	ft8, 0x30(sp)
      4e: 0e 3a        	<unknown>
      50: 0b 3b 0b 3c  	<unknown>
      54: 0c 3f        	<unknown>
      56: 0c 00        	<unknown>
      58: 00 08        	<unknown>
      5a: 05 00        	<unknown>
      5c: 49 13        	<unknown>
      5e: 34 0c        	<unknown>
      60: 00 00        	<unknown>
      62: 09 05        	<unknown>
      64: 00 49        	<unknown>
      66: 13 00 00 0a  	li	zero, 0xa0
      6a: 16 00        	<unknown>
      6c: 49 13        	<unknown>
      6e: 03 0e 3a 0b  	lb	t3, 0xb3(s4)
      72: 3b 0b 00 00  	addw	s6, zero, zero
      76: 0b 2e 01 87  	<unknown>
      7a: 40 0e        	<unknown>
      7c: 03 0e 3a 0b  	lb	t3, 0xb3(s4)
      80: 3b 0b 49 13  	<unknown>
      84: 3c 0c        	<unknown>
      86: 3f 0c 00 00  	<unknown>
      8a: 0c 08        	<unknown>
      8c: 00 3a        	<unknown>
      8e: 0b 3b 0b 18  	<unknown>
      92: 13 00 00 0d  	li	zero, 0xd0
      96: 24 00        	<unknown>
      98: 03 0e 3e 0b  	lb	t3, 0xb3(t3)
      9c: 0b 0b 00 00  	<unknown>
      a0: 0e 0f        	<unknown>
      a2: 00 49        	<unknown>
      a4: 13 00 00 0f  	li	zero, 0xf0
      a8: 13 01 36 0b  	addi	sp, a2, 0xb3
      ac: 03 0e 0b 0b  	lb	t3, 0xb0(s6)
      b0: 3a 0b        	<unknown>
      b2: 3b 05 00 00  	addw	a0, zero, zero
      b6: 10 0d        	<unknown>
      b8: 00 03        	<unknown>
      ba: 0e 49        	<unknown>
      bc: 13 3a 0b 3b  	sltiu	s4, s6, 0x3b0
      c0: 05 38        	<unknown>
      c2: 0a 00        	<unknown>
      c4: 00 11        	<unknown>
      c6: 2e 01        	<unknown>
      c8: 03 0e 3a 0b  	lb	t3, 0xb3(s4)
      cc: 3b 05 3c 0c  	<unknown>
      d0: 3f 0c 00 00  	<unknown>
      d4: 12 2e        	<unknown>
      d6: 01 87        	<unknown>
      d8: 40 0e        	<unknown>
      da: 03 0e 3a 0b  	lb	t3, 0xb3(s4)
      de: 3b 05 49 13  	<unknown>
      e2: 3c 0c        	<unknown>
      e4: 3f 0c 00 00  	<unknown>
      e8: 13 16 00 49  	<unknown>
      ec: 13 03 0e 3a  	addi	t1, t3, 0x3a0
      f0: 0b 3b 05 00  	<unknown>
      f4: 00 14        	<unknown>
      f6: 26 00        	<unknown>
      f8: 49 13        	<unknown>
      fa: 00 00        	<unknown>
      fc: 15 2e        	<unknown>
      fe: 00 87        	<unknown>
     100: 40 0e        	<unknown>
     102: 03 0e 3a 0b  	lb	t3, 0xb3(s4)
     106: 3b 0b 49 13  	<unknown>
     10a: 3c 0c        	<unknown>
     10c: 3f 0c 00 00  	<unknown>
     110: 16 2e        	<unknown>
     112: 01 03        	<unknown>
     114: 0e 3a        	<unknown>
     116: 0b 3b 0b 3c  	<unknown>
     11a: 0c 3f        	<unknown>
     11c: 0c 32        	<unknown>
     11e: 0b 00 00 17  	<unknown>
     122: 2e 01        	<unknown>
     124: 87 40 0e 03  	<unknown>
     128: 0e 3a        	<unknown>
     12a: 0b 3b 0b 3c  	<unknown>
     12e: 0c 3f        	<unknown>
     130: 0c 32        	<unknown>
     132: 0b 00 00 18  	<unknown>
     136: 2e 01        	<unknown>
     138: 87 40 0e 03  	<unknown>
     13c: 0e 3a        	<unknown>
     13e: 0b 3b 0b 49  	<unknown>
     142: 13 3c 0c 3f  	sltiu	s8, s8, 0x3f0
     146: 0c 32        	<unknown>
     148: 0b 00 00 19  	<unknown>
     14c: 10 00        	<unknown>
     14e: 49 13        	<unknown>
     150: 00 00        	<unknown>
     152: 1a 08        	<unknown>
     154: 00 3a        	<unknown>
     156: 0b 3b 05 18  	<unknown>
     15a: 13 00 00 1b  	li	zero, 0x1b0
     15e: 02 00        	<unknown>
     160: 03 0e 3c 0c  	lb	t3, 0xc3(s8)
     164: 00 00        	<unknown>
     166: 1c 2e        	<unknown>
     168: 01 87        	<unknown>
     16a: 40 0e        	<unknown>
     16c: 03 0e 3a 0b  	lb	t3, 0xb3(s4)
     170: 3b 0b 3c 0c  	<unknown>
     174: 3f 0c 00 00  	<unknown>
     178: 1d 2e        	<unknown>
     17a: 01 87        	<unknown>
     17c: 40 0e        	<unknown>
     17e: 03 0e 3a 0b  	lb	t3, 0xb3(s4)
     182: 3b 0b 3c 0c  	<unknown>
     186: 3f 0c 87 01  	<unknown>
     18a: 0c 00        	<unknown>
     18c: 00 1e        	<unknown>
     18e: 39 00        	<unknown>
     190: 03 0e 00 00  	lb	t3, 0x0(zero)
     194: 1f 2e 01 87  	<unknown>
     198: 40 0e        	<unknown>
     19a: 03 0e 3a 0b  	lb	t3, 0xb3(s4)
     19e: 3b 0b 49 13  	<unknown>
     1a2: 3c 0c        	<unknown>
     1a4: 00 00        	<unknown>
     1a6: 20 2e        	<unknown>
     1a8: 01 03        	<unknown>
     1aa: 0e 3a        	<unknown>
     1ac: 0b 3b 05 49  	<unknown>
     1b0: 13 3c 0c 3f  	sltiu	s8, s8, 0x3f0
     1b4: 0c 00        	<unknown>
     1b6: 00 21        	<unknown>
     1b8: 2e 01        	<unknown>
     1ba: 03 0e 3a 0b  	lb	t3, 0xb3(s4)
     1be: 3b 0b 49 13  	<unknown>
     1c2: 3c 0c        	<unknown>
     1c4: 3f 0c 00 00  	<unknown>
     1c8: 22 13        	<unknown>
     1ca: 00 3c        	<unknown>
     1cc: 0c 00        	<unknown>
     1ce: 00 23        	<unknown>
     1d0: 13 01 36 0b  	addi	sp, a2, 0xb3
     1d4: 0b 0b 3a 0b  	<unknown>
     1d8: 3b 0b 00 00  	addw	s6, zero, zero
     1dc: 24 2e        	<unknown>
     1de: 00 03        	<unknown>
     1e0: 0e 3a        	<unknown>
     1e2: 0b 3b 05 3c  	<unknown>
     1e6: 0c 3f        	<unknown>
     1e8: 0c 87        	<unknown>
     1ea: 01 0c        	<unknown>
     1ec: 00 00        	<unknown>
     1ee: 25 15        	<unknown>
     1f0: 00 00        	<unknown>
     1f2: 00 26        	<unknown>
     1f4: 0f 00 00 00  	fence	0, 0
     1f8: 27 26 00 00  	fsw	ft0, 0xc(zero)
     1fc: 00 28        	<unknown>
     1fe: 15 01        	<unknown>
     200: 49 13        	<unknown>
     202: 00 00        	<unknown>
     204: 29 2e        	<unknown>
     206: 01 03        	<unknown>
     208: 0e 3a        	<unknown>
     20a: 0b 3b 05 3c  	<unknown>
     20e: 0c 3f        	<unknown>
     210: 0c 87        	<unknown>
     212: 01 0c        	<unknown>
     214: 00 00        	<unknown>
     216: 2a 2e        	<unknown>
     218: 00 03        	<unknown>
     21a: 0e 3a        	<unknown>
     21c: 0b 3b 05 49  	<unknown>
     220: 13 3c 0c 3f  	sltiu	s8, s8, 0x3f0
     224: 0c 00        	<unknown>
     226: 00 2b        	<unknown>
     228: 2e 01        	<unknown>
     22a: 87 40 0e 03  	<unknown>
     22e: 0e 3a        	<unknown>
     230: 0b 3b 05 49  	<unknown>
     234: 13 3c 0c 00  	sltiu	s8, s8, 0x0
     238: 00 2c        	<unknown>
     23a: 17 01 36 0b  	auipc	sp, 0xb360
     23e: 0b 0b 3a 0b  	<unknown>
     242: 3b 0b 00 00  	addw	s6, zero, zero
     246: 2d 01        	<unknown>
     248: 01 49        	<unknown>
     24a: 13 00 00 2e  	li	zero, 0x2e0
     24e: 21 00        	<unknown>
     250: 49 13        	<unknown>
     252: 37 0b 00 00  	lui	s6, 0x0
     256: 2f 24 00 03  	amoadd.w.rl	s0, a6, (zero)
     25a: 0e 0b        	<unknown>
     25c: 0b 3e 0b 00  	<unknown>
     260: 00 30        	<unknown>
     262: 13 00 03 0e  	addi	zero, t1, 0xe0
     266: 3c 0c        	<unknown>
     268: 00 00        	<unknown>
     26a: 31 18        	<unknown>
     26c: 00 00        	<unknown>
     26e: 00 32        	<unknown>
     270: 16 00        	<unknown>
     272: 49 13        	<unknown>
     274: 03 0e 00 00  	lb	t3, 0x0(zero)
     278: 33 2e 00 03  	mulhsu	t3, zero, a6
     27c: 0e 3a        	<unknown>
     27e: 0b 3b 0b 49  	<unknown>
     282: 13 3c 0c 3f  	sltiu	s8, s8, 0x3f0
     286: 0c 00        	<unknown>
     288: 00 34        	<unknown>
     28a: 3a 00        	<unknown>
     28c: 3a 0b        	<unknown>
     28e: 3b 0b 18 13  	<unknown>
     292: 00 00        	<unknown>
     294: 00           	<unknown>

Disassembly of section .debug_line:

0000000000000000 <.debug_line>:
       0: 0f 05 00 00  	<unknown>
       4: 02 00        	<unknown>
       6: 09 05        	<unknown>
       8: 00 00        	<unknown>
       a: 01 01        	<unknown>
       c: fb 0e 0d 00  	<unknown>
      10: 01 01        	<unknown>
      12: 01 01        	<unknown>
      14: 00 00        	<unknown>
      16: 00 01        	<unknown>
      18: 00 00        	<unknown>
      1a: 01 2f        	<unknown>
      1c: 6e 65        	<unknown>
      1e: 74 68        	<unknown>
      20: 6f 6d 65 2f  	jal	s10, 0x56316 <.debug_info+0x56316>
      24: 63 61 68 6e  	bltu	a6, t1, 0x706 <.debug_info+0x706>
      28: 34 35        	<unknown>
      2a: 2f 43 75 50  	<unknown>
      2e: 42 6f        	<unknown>
      30: 50 00        	<unknown>
      32: 2f 6e 65 74  	<unknown>
      36: 68 6f        	<unknown>
      38: 6d 65        	<unknown>
      3a: 2f 63 61 68  	<unknown>
      3e: 6e 34        	<unknown>
      40: 35 00        	<unknown>
      42: 2f 75 73 72  	<unknown>
      46: 2f 69 6e 63  	<unknown>
      4a: 6c 75        	<unknown>
      4c: 64 65        	<unknown>
      4e: 00 2f        	<unknown>
      50: 75 73        	<unknown>
      52: 72 2f        	<unknown>
      54: 6c 69        	<unknown>
      56: 62 2f        	<unknown>
      58: 67 63 63 2f  	<unknown>
      5c: 78 38        	<unknown>
      5e: 36 5f        	<unknown>
      60: 36 34        	<unknown>
      62: 2d 6c        	<unknown>
      64: 69 6e        	<unknown>
      66: 75 78        	<unknown>
      68: 2d 67        	<unknown>
      6a: 6e 75        	<unknown>
      6c: 2f 31 33 2f  	<unknown>
      70: 2e 2e        	<unknown>
      72: 2f 2e 2e 2f  	<unknown>
      76: 2e 2e        	<unknown>
      78: 2f 2e 2e 2f  	<unknown>
      7c: 69 6e        	<unknown>
      7e: 63 6c 75 64  	bltu	a0, t2, 0x6d6 <.debug_info+0x6d6>
      82: 65 2f        	<unknown>
      84: 63 2b 2b 2f  	<unknown>
      88: 31 33        	<unknown>
      8a: 2f 62 69 74  	<unknown>
      8e: 73 00 2f 75  	<unknown>
      92: 73 72 2f 69  	csrrci	tp, 0x692, 0x1e
      96: 6e 63        	<unknown>
      98: 6c 75        	<unknown>
      9a: 64 65        	<unknown>
      9c: 2f 78 38 36  	<unknown>
      a0: 5f 36 34 2d  	<unknown>
      a4: 6c 69        	<unknown>
      a6: 6e 75        	<unknown>
      a8: 78 2d        	<unknown>
      aa: 67 6e 75 2f  	<unknown>
      ae: 62 69        	<unknown>
      b0: 74 73        	<unknown>
      b2: 00 2f        	<unknown>
      b4: 75 73        	<unknown>
      b6: 72 2f        	<unknown>
      b8: 6c 69        	<unknown>
      ba: 62 2f        	<unknown>
      bc: 67 63 63 2f  	<unknown>
      c0: 78 38        	<unknown>
      c2: 36 5f        	<unknown>
      c4: 36 34        	<unknown>
      c6: 2d 6c        	<unknown>
      c8: 69 6e        	<unknown>
      ca: 75 78        	<unknown>
      cc: 2d 67        	<unknown>
      ce: 6e 75        	<unknown>
      d0: 2f 31 33 2f  	<unknown>
      d4: 2e 2e        	<unknown>
      d6: 2f 2e 2e 2f  	<unknown>
      da: 2e 2e        	<unknown>
      dc: 2f 2e 2e 2f  	<unknown>
      e0: 69 6e        	<unknown>
      e2: 63 6c 75 64  	bltu	a0, t2, 0x73a <.debug_info+0x73a>
      e6: 65 2f        	<unknown>
      e8: 63 2b 2b 2f  	<unknown>
      ec: 31 33        	<unknown>
      ee: 00 2f        	<unknown>
      f0: 75 73        	<unknown>
      f2: 72 2f        	<unknown>
      f4: 69 6e        	<unknown>
      f6: 63 6c 75 64  	bltu	a0, t2, 0x74e <.debug_info+0x74e>
      fa: 65 2f        	<unknown>
      fc: 78 38        	<unknown>
      fe: 36 5f        	<unknown>
     100: 36 34        	<unknown>
     102: 2d 6c        	<unknown>
     104: 69 6e        	<unknown>
     106: 75 78        	<unknown>
     108: 2d 67        	<unknown>
     10a: 6e 75        	<unknown>
     10c: 2f 62 69 74  	<unknown>
     110: 73 2f 74 79  	csrrs	t5, 0x797, s0
     114: 70 65        	<unknown>
     116: 73 00 2f 75  	<unknown>
     11a: 73 72 2f 6c  	csrrci	tp, 0x6c2, 0x1e
     11e: 69 62        	<unknown>
     120: 2f 67 63 63  	<unknown>
     124: 2f 78 38 36  	<unknown>
     128: 5f 36 34 2d  	<unknown>
     12c: 6c 69        	<unknown>
     12e: 6e 75        	<unknown>
     130: 78 2d        	<unknown>
     132: 67 6e 75 2f  	<unknown>
     136: 31 33        	<unknown>
     138: 2f 2e 2e 2f  	<unknown>
     13c: 2e 2e        	<unknown>
     13e: 2f 2e 2e 2f  	<unknown>
     142: 2e 2e        	<unknown>
     144: 2f 69 6e 63  	<unknown>
     148: 6c 75        	<unknown>
     14a: 64 65        	<unknown>
     14c: 2f 63 2b 2b  	<unknown>
     150: 2f 31 33 2f  	<unknown>
     154: 64 65        	<unknown>
     156: 62 75        	<unknown>
     158: 67 00 2e 00  	jr	0x2(t3)
     15c: 00 63        	<unknown>
     15e: 75 64        	<unknown>
     160: 61 2d        	<unknown>
     162: 31 32        	<unknown>
     164: 2e 31        	<unknown>
     166: 2f 69 6e 63  	<unknown>
     16a: 6c 75        	<unknown>
     16c: 64 65        	<unknown>
     16e: 2f 6e 76 2f  	<unknown>
     172: 74 61        	<unknown>
     174: 72 67        	<unknown>
     176: 65 74        	<unknown>
     178: 00 01        	<unknown>
     17a: 00 00        	<unknown>
     17c: 63 75 64 61  	bgeu	s0, s6, 0x786 <.debug_info+0x786>
     180: 2d 31        	<unknown>
     182: 32 2e        	<unknown>
     184: 31 2f        	<unknown>
     186: 69 6e        	<unknown>
     188: 63 6c 75 64  	bltu	a0, t2, 0x7e0 <.debug_info+0x7e0>
     18c: 65 2f        	<unknown>
     18e: 76 65        	<unknown>
     190: 63 74 6f 72  	bgeu	t5, t1, 0x8b8 <.debug_info+0x8b8>
     194: 5f 74 79 70  	<unknown>
     198: 65 73        	<unknown>
     19a: 2e 68        	<unknown>
     19c: 00 01        	<unknown>
     19e: 00 00        	<unknown>
     1a0: 6c 6c        	<unknown>
     1a2: 76 6d        	<unknown>
     1a4: 2d 76        	<unknown>
     1a6: 6f 72 74 65  	jal	tp, 0x47ffc <.debug_info+0x47ffc>
     1aa: 78 2d        	<unknown>
     1ac: 77 69 74 68  	<unknown>
     1b0: 2d 63        	<unknown>
     1b2: 75 64        	<unknown>
     1b4: 61 2d        	<unknown>
     1b6: 62 75        	<unknown>
     1b8: 69 6c        	<unknown>
     1ba: 64 2f        	<unknown>
     1bc: 6c 69        	<unknown>
     1be: 62 2f        	<unknown>
     1c0: 63 6c 61 6e  	bltu	sp, t1, 0x8b8 <.debug_info+0x8b8>
     1c4: 67 2f 31 38  	<unknown>
     1c8: 2f 69 6e 63  	<unknown>
     1cc: 6c 75        	<unknown>
     1ce: 64 65        	<unknown>
     1d0: 2f 5f 5f 63  	<unknown>
     1d4: 6c 61        	<unknown>
     1d6: 6e 67        	<unknown>
     1d8: 5f 63 75 64  	<unknown>
     1dc: 61 5f        	<unknown>
     1de: 62 75        	<unknown>
     1e0: 69 6c        	<unknown>
     1e2: 74 69        	<unknown>
     1e4: 6e 5f        	<unknown>
     1e6: 76 61        	<unknown>
     1e8: 72 73        	<unknown>
     1ea: 2e 68        	<unknown>
     1ec: 00 02        	<unknown>
     1ee: 00 00        	<unknown>
     1f0: 6c 6c        	<unknown>
     1f2: 76 6d        	<unknown>
     1f4: 2d 76        	<unknown>
     1f6: 6f 72 74 65  	jal	tp, 0x4804c <.debug_info+0x4804c>
     1fa: 78 2d        	<unknown>
     1fc: 77 69 74 68  	<unknown>
     200: 2d 63        	<unknown>
     202: 75 64        	<unknown>
     204: 61 2d        	<unknown>
     206: 62 75        	<unknown>
     208: 69 6c        	<unknown>
     20a: 64 2f        	<unknown>
     20c: 6c 69        	<unknown>
     20e: 62 2f        	<unknown>
     210: 63 6c 61 6e  	bltu	sp, t1, 0x908 <.debug_info+0x908>
     214: 67 2f 31 38  	<unknown>
     218: 2f 69 6e 63  	<unknown>
     21c: 6c 75        	<unknown>
     21e: 64 65        	<unknown>
     220: 2f 5f 5f 63  	<unknown>
     224: 6c 61        	<unknown>
     226: 6e 67        	<unknown>
     228: 5f 63 75 64  	<unknown>
     22c: 61 5f        	<unknown>
     22e: 6d 61        	<unknown>
     230: 74 68        	<unknown>
     232: 5f 66 6f 72  	<unknown>
     236: 77 61 72 64  	<unknown>
     23a: 5f 64 65 63  	<unknown>
     23e: 6c 61        	<unknown>
     240: 72 65        	<unknown>
     242: 73 2e 68 00  	csrrs	t3, 0x6, a6
     246: 02 00        	<unknown>
     248: 00 73        	<unknown>
     24a: 74 64        	<unknown>
     24c: 6c 69        	<unknown>
     24e: 62 2e        	<unknown>
     250: 68 00        	<unknown>
     252: 03 00 00 73  	lb	zero, 0x730(zero)
     256: 74 64        	<unknown>
     258: 5f 61 62 73  	<unknown>
     25c: 2e 68        	<unknown>
     25e: 00 04        	<unknown>
     260: 00 00        	<unknown>
     262: 6d 61        	<unknown>
     264: 74 68        	<unknown>
     266: 63 61 6c 6c  	bltu	s8, t1, 0x928 <.debug_info+0x928>
     26a: 73 2e 68 00  	csrrs	t3, 0x6, a6
     26e: 05 00        	<unknown>
     270: 00 63        	<unknown>
     272: 6d 61        	<unknown>
     274: 74 68        	<unknown>
     276: 00 06        	<unknown>
     278: 00 00        	<unknown>
     27a: 6d 61        	<unknown>
     27c: 74 68        	<unknown>
     27e: 2e 68        	<unknown>
     280: 00 03        	<unknown>
     282: 00 00        	<unknown>
     284: 63 73 74 64  	bgeu	s0, t2, 0x8ca <.debug_info+0x8ca>
     288: 6c 69        	<unknown>
     28a: 62 00        	<unknown>
     28c: 06 00        	<unknown>
     28e: 00 6c        	<unknown>
     290: 6c 76        	<unknown>
     292: 6d 2d        	<unknown>
     294: 76 6f        	<unknown>
     296: 72 74        	<unknown>
     298: 65 78        	<unknown>
     29a: 2d 77        	<unknown>
     29c: 69 74        	<unknown>
     29e: 68 2d        	<unknown>
     2a0: 63 75 64 61  	bgeu	s0, s6, 0x8aa <.debug_info+0x8aa>
     2a4: 2d 62        	<unknown>
     2a6: 75 69        	<unknown>
     2a8: 6c 64        	<unknown>
     2aa: 2f 6c 69 62  	<unknown>
     2ae: 2f 63 6c 61  	<unknown>
     2b2: 6e 67        	<unknown>
     2b4: 2f 31 38 2f  	<unknown>
     2b8: 69 6e        	<unknown>
     2ba: 63 6c 75 64  	bltu	a0, t2, 0x912 <.debug_info+0x912>
     2be: 65 2f        	<unknown>
     2c0: 5f 5f 73 74  	<unknown>
     2c4: 64 64        	<unknown>
     2c6: 65 66        	<unknown>
     2c8: 5f 73 69 7a  	<unknown>
     2cc: 65 5f        	<unknown>
     2ce: 74 2e        	<unknown>
     2d0: 68 00        	<unknown>
     2d2: 02 00        	<unknown>
     2d4: 00 73        	<unknown>
     2d6: 74 64        	<unknown>
     2d8: 6c 69        	<unknown>
     2da: 62 2e        	<unknown>
     2dc: 68 00        	<unknown>
     2de: 06 00        	<unknown>
     2e0: 00 6c        	<unknown>
     2e2: 6c 76        	<unknown>
     2e4: 6d 2d        	<unknown>
     2e6: 76 6f        	<unknown>
     2e8: 72 74        	<unknown>
     2ea: 65 78        	<unknown>
     2ec: 2d 77        	<unknown>
     2ee: 69 74        	<unknown>
     2f0: 68 2d        	<unknown>
     2f2: 63 75 64 61  	bgeu	s0, s6, 0x8fc <.debug_info+0x8fc>
     2f6: 2d 62        	<unknown>
     2f8: 75 69        	<unknown>
     2fa: 6c 64        	<unknown>
     2fc: 2f 6c 69 62  	<unknown>
     300: 2f 63 6c 61  	<unknown>
     304: 6e 67        	<unknown>
     306: 2f 31 38 2f  	<unknown>
     30a: 69 6e        	<unknown>
     30c: 63 6c 75 64  	bltu	a0, t2, 0x964 <.debug_info+0x964>
     310: 65 2f        	<unknown>
     312: 5f 5f 63 6c  	<unknown>
     316: 61 6e        	<unknown>
     318: 67 5f 63 75  	<unknown>
     31c: 64 61        	<unknown>
     31e: 5f 6d 61 74  	<unknown>
     322: 68 2e        	<unknown>
     324: 68 00        	<unknown>
     326: 02 00        	<unknown>
     328: 00 6c        	<unknown>
     32a: 6c 76        	<unknown>
     32c: 6d 2d        	<unknown>
     32e: 76 6f        	<unknown>
     330: 72 74        	<unknown>
     332: 65 78        	<unknown>
     334: 2d 77        	<unknown>
     336: 69 74        	<unknown>
     338: 68 2d        	<unknown>
     33a: 63 75 64 61  	bgeu	s0, s6, 0x944 <.debug_info+0x944>
     33e: 2d 62        	<unknown>
     340: 75 69        	<unknown>
     342: 6c 64        	<unknown>
     344: 2f 6c 69 62  	<unknown>
     348: 2f 63 6c 61  	<unknown>
     34c: 6e 67        	<unknown>
     34e: 2f 31 38 2f  	<unknown>
     352: 69 6e        	<unknown>
     354: 63 6c 75 64  	bltu	a0, t2, 0x9ac <.debug_info+0x9ac>
     358: 65 2f        	<unknown>
     35a: 5f 5f 63 6c  	<unknown>
     35e: 61 6e        	<unknown>
     360: 67 5f 63 75  	<unknown>
     364: 64 61        	<unknown>
     366: 5f 63 6d 61  	<unknown>
     36a: 74 68        	<unknown>
     36c: 2e 68        	<unknown>
     36e: 00 02        	<unknown>
     370: 00 00        	<unknown>
     372: 5f 5f 6d 62  	<unknown>
     376: 73 74 61 74  	csrrci	s0, 0x746, 0x2
     37a: 65 5f        	<unknown>
     37c: 74 2e        	<unknown>
     37e: 68 00        	<unknown>
     380: 07 00 00 6d  	<unknown>
     384: 62 73        	<unknown>
     386: 74 61        	<unknown>
     388: 74 65        	<unknown>
     38a: 5f 74 2e 68  	<unknown>
     38e: 00 07        	<unknown>
     390: 00 00        	<unknown>
     392: 63 77 63 68  	bgeu	t1, t1, 0xa20 <.debug_info+0xa20>
     396: 61 72        	<unknown>
     398: 00 06        	<unknown>
     39a: 00 00        	<unknown>
     39c: 77 69 6e 74  	<unknown>
     3a0: 5f 74 2e 68  	<unknown>
     3a4: 00 07        	<unknown>
     3a6: 00 00        	<unknown>
     3a8: 77 63 68 61  	<unknown>
     3ac: 72 2e        	<unknown>
     3ae: 68 00        	<unknown>
     3b0: 03 00 00 5f  	lb	zero, 0x5f0(zero)
     3b4: 5f 46 49 4c  	<unknown>
     3b8: 45 2e        	<unknown>
     3ba: 68 00        	<unknown>
     3bc: 07 00 00 6c  	<unknown>
     3c0: 6c 76        	<unknown>
     3c2: 6d 2d        	<unknown>
     3c4: 76 6f        	<unknown>
     3c6: 72 74        	<unknown>
     3c8: 65 78        	<unknown>
     3ca: 2d 77        	<unknown>
     3cc: 69 74        	<unknown>
     3ce: 68 2d        	<unknown>
     3d0: 63 75 64 61  	bgeu	s0, s6, 0x9da <.debug_info+0x9da>
     3d4: 2d 62        	<unknown>
     3d6: 75 69        	<unknown>
     3d8: 6c 64        	<unknown>
     3da: 2f 6c 69 62  	<unknown>
     3de: 2f 63 6c 61  	<unknown>
     3e2: 6e 67        	<unknown>
     3e4: 2f 31 38 2f  	<unknown>
     3e8: 69 6e        	<unknown>
     3ea: 63 6c 75 64  	bltu	a0, t2, 0xa42 <.debug_info+0xa42>
     3ee: 65 2f        	<unknown>
     3f0: 5f 5f 73 74  	<unknown>
     3f4: 64 61        	<unknown>
     3f6: 72 67        	<unknown>
     3f8: 5f 5f 5f 67  	<unknown>
     3fc: 6e 75        	<unknown>
     3fe: 63 5f 76 61  	bge	a2, s7, 0xa1c <.debug_info+0xa1c>
     402: 5f 6c 69 73  	<unknown>
     406: 74 2e        	<unknown>
     408: 68 00        	<unknown>
     40a: 02 00        	<unknown>
     40c: 00 65        	<unknown>
     40e: 78 63        	<unknown>
     410: 65 70        	<unknown>
     412: 74 69        	<unknown>
     414: 6f 6e 5f 70  	jal	t3, 0xf7318 <.debug_info+0xf7318>
     418: 74 72        	<unknown>
     41a: 2e 68        	<unknown>
     41c: 00 04        	<unknown>
     41e: 00 00        	<unknown>
     420: 63 6c 6f 63  	bltu	t5, s6, 0xa58 <.debug_info+0xa58>
     424: 61 6c        	<unknown>
     426: 65 00        	<unknown>
     428: 06 00        	<unknown>
     42a: 00 6c        	<unknown>
     42c: 6f 63 61 6c  	jal	t1, 0x16af2 <.debug_info+0x16af2>
     430: 65 2e        	<unknown>
     432: 68 00        	<unknown>
     434: 03 00 00 63  	lb	zero, 0x630(zero)
     438: 74 79        	<unknown>
     43a: 70 65        	<unknown>
     43c: 2e 68        	<unknown>
     43e: 00 03        	<unknown>
     440: 00 00        	<unknown>
     442: 63 63 74 79  	bltu	s0, s7, 0xbc8 <.debug_info+0xbc8>
     446: 70 65        	<unknown>
     448: 00 06        	<unknown>
     44a: 00 00        	<unknown>
     44c: 64 65        	<unknown>
     44e: 62 75        	<unknown>
     450: 67 2e 68 00  	<unknown>
     454: 08 00        	<unknown>
     456: 00 46        	<unknown>
     458: 49 4c        	<unknown>
     45a: 45 2e        	<unknown>
     45c: 68 00        	<unknown>
     45e: 07 00 00 63  	<unknown>
     462: 73 74 64 69  	csrrci	s0, 0x696, 0x8
     466: 6f 00 06 00  	j	0x60466 <.debug_info+0x60466>
     46a: 00 5f        	<unknown>
     46c: 5f 66 70 6f  	<unknown>
     470: 73 5f 74 2e  	csrrwi	t5, 0x2e7, 0x8
     474: 68 00        	<unknown>
     476: 07 00 00 73  	<unknown>
     47a: 74 64        	<unknown>
     47c: 69 6f        	<unknown>
     47e: 2e 68        	<unknown>
     480: 00 03        	<unknown>
     482: 00 00        	<unknown>
     484: 74 79        	<unknown>
     486: 70 65        	<unknown>
     488: 73 2e 68 00  	csrrs	t3, 0x6, a6
     48c: 05 00        	<unknown>
     48e: 00 77        	<unknown>
     490: 63 74 79 70  	bgeu	s2, t2, 0xb98 <.debug_info+0xb98>
     494: 65 2e        	<unknown>
     496: 68 00        	<unknown>
     498: 03 00 00 63  	lb	zero, 0x630(zero)
     49c: 77 63 74 79  	<unknown>
     4a0: 70 65        	<unknown>
     4a2: 00 06        	<unknown>
     4a4: 00 00        	<unknown>
     4a6: 77 63 74 79  	<unknown>
     4aa: 70 65        	<unknown>
     4ac: 2d 77        	<unknown>
     4ae: 63 68 61 72  	bltu	sp, t1, 0xbde <.debug_info+0xbde>
     4b2: 2e 68        	<unknown>
     4b4: 00 05        	<unknown>
     4b6: 00 00        	<unknown>
     4b8: 6d 61        	<unknown>
     4ba: 74 68        	<unknown>
     4bc: 2e 68        	<unknown>
     4be: 00 06        	<unknown>
     4c0: 00 00        	<unknown>
     4c2: 73 74 72 65  	csrrci	s0, 0x657, 0x4
     4c6: 61 6d        	<unknown>
     4c8: 63 6c 75 73  	bltu	a0, s7, 0xc00 <.debug_info+0xc00>
     4cc: 74 65        	<unknown>
     4ce: 72 5f        	<unknown>
     4d0: 68 65        	<unknown>
     4d2: 61 64        	<unknown>
     4d4: 65 72        	<unknown>
     4d6: 2e 68        	<unknown>
     4d8: 00 09        	<unknown>
     4da: 00 00        	<unknown>
     4dc: 73 74 72 65  	csrrci	s0, 0x657, 0x4
     4e0: 61 6d        	<unknown>
     4e2: 63 6c 75 73  	bltu	a0, s7, 0xc1a <.debug_info+0xc1a>
     4e6: 74 65        	<unknown>
     4e8: 72 5f        	<unknown>
     4ea: 63 75 64 61  	bgeu	s0, s6, 0xaf4 <.debug_info+0xaf4>
     4ee: 2e 63        	<unknown>
     4f0: 75 00        	<unknown>
     4f2: 09 00        	<unknown>
     4f4: 00 73        	<unknown>
     4f6: 74 72        	<unknown>
     4f8: 65 61        	<unknown>
     4fa: 6d 63        	<unknown>
     4fc: 6c 75        	<unknown>
     4fe: 73 74 65 72  	csrrci	s0, 0x726, 0xa
     502: 5f 63 75 64  	<unknown>
     506: 61 5f        	<unknown>
     508: 63 70 75 2e  	bgeu	a0, t2, 0x7e8 <.debug_info+0x7e8>
     50c: 63 75 00 09  	bgeu	zero, a6, 0x596 <.debug_info+0x596>
     510: 00 00        	<unknown>
     512: 00           	<unknown>

Disassembly of section .debug_frame:

0000000000000000 <.debug_frame>:
       0: 0c 00        	<unknown>
       2: 00 00        	<unknown>
       4: ff ff ff ff  	<unknown>
       8: 01 00        	<unknown>
       a: 01 78        	<unknown>
       c: 01 0c        	<unknown>
       e: 02 00        	<unknown>
      10: 24 00        	<unknown>
      12: 00 00        	<unknown>
      14: 00 00        	<unknown>
      16: 00 00        	<unknown>
      18: 4c 02        	<unknown>
      1a: 00 80        	<unknown>
      1c: 01 00        	<unknown>
      1e: 00 00        	<unknown>
      20: ac 00        	<unknown>
      22: 00 00        	<unknown>
      24: 00 00        	<unknown>
      26: 00 00        	<unknown>
      28: 44 0e        	<unknown>
      2a: 10 48        	<unknown>
      2c: 81 01        	<unknown>
      2e: 88 02        	<unknown>
      30: 44 0c        	<unknown>
      32: 08 00        	<unknown>
      34: 00 00        	<unknown>
      36: 00 00        	<unknown>
      38: 3c 00        	<unknown>
      3a: 00 00        	<unknown>
      3c: 00 00        	<unknown>
      3e: 00 00        	<unknown>
      40: f8 02        	<unknown>
      42: 00 80        	<unknown>
      44: 01 00        	<unknown>
      46: 00 00        	<unknown>
      48: 28 02        	<unknown>
      4a: 00 00        	<unknown>
      4c: 00 00        	<unknown>
      4e: 00 00        	<unknown>
      50: 44 0e        	<unknown>
      52: a0 01        	<unknown>
      54: 74 81        	<unknown>
      56: 01 88        	<unknown>
      58: 02 89        	<unknown>
      5a: 03 92 04 93  	lh	tp, -0x6d0(s1)
      5e: 05 94        	<unknown>
      60: 06 95        	<unknown>
      62: 07 96 08 97  	<unknown>
      66: 09 98        	<unknown>
      68: 0a 99        	<unknown>
      6a: 0b 9a 0c 9b  	<unknown>
      6e: 0d 44        	<unknown>
      70: 0c 08        	<unknown>
      72: 00 00        	<unknown>
      74: 00 00        	<unknown>
      76: 00 00        	<unknown>
      78: 1c 00        	<unknown>
      7a: 00 00        	<unknown>
      7c: 00 00        	<unknown>
      7e: 00 00        	<unknown>
      80: 20 05        	<unknown>
      82: 00 80        	<unknown>
      84: 01 00        	<unknown>
      86: 00 00        	<unknown>
      88: 48 00        	<unknown>
      8a: 00 00        	<unknown>
      8c: 00 00        	<unknown>
      8e: 00 00        	<unknown>
      90: 44 0e        	<unknown>
      92: 20 44        	<unknown>
      94: 81 01        	<unknown>
      96: 00 00        	<unknown>

Disassembly of section .debug_str:

0000000000000000 <.debug_str>:
       0: 63 6c 61 6e  	bltu	sp, t1, 0x6f8 <.debug_info+0x6f8>
       4: 67 20 76 65  	<unknown>
       8: 72 73        	<unknown>
       a: 69 6f        	<unknown>
       c: 6e 20        	<unknown>
       e: 31 38        	<unknown>
      10: 2e 31        	<unknown>
      12: 2e 37        	<unknown>
      14: 20 28        	<unknown>
      16: 68 74        	<unknown>
      18: 74 70        	<unknown>
      1a: 73 3a 2f 2f  	csrrc	s4, 0x2f2, t5
      1e: 67 69 74 68  	<unknown>
      22: 75 62        	<unknown>
      24: 2e 63        	<unknown>
      26: 6f 6d 2f 76  	jal	s10, 0xf6788 <.debug_info+0xf6788>
      2a: 6f 72 74 65  	jal	tp, 0x47e80 <.debug_info+0x47e80>
      2e: 78 67        	<unknown>
      30: 70 67        	<unknown>
      32: 70 75        	<unknown>
      34: 2f 6c 6c 76  	<unknown>
      38: 6d 2e        	<unknown>
      3a: 67 69 74 20  	<unknown>
      3e: 35 32        	<unknown>
      40: 31 32        	<unknown>
      42: 62 31        	<unknown>
      44: 30 31        	<unknown>
      46: 36 30        	<unknown>
      48: 65 36        	<unknown>
      4a: 33 63 39 61  	<unknown>
      4e: 39 38        	<unknown>
      50: 38 33        	<unknown>
      52: 63 33 66 62  	<unknown>
      56: 38 62        	<unknown>
      58: 30 38        	<unknown>
      5a: 64 30        	<unknown>
      5c: 31 35        	<unknown>
      5e: 62 36        	<unknown>
      60: 36 37        	<unknown>
      62: 64 64        	<unknown>
      64: 61 62        	<unknown>
      66: 29 00        	<unknown>
      68: 73 74 72 65  	csrrci	s0, 0x657, 0x4
      6c: 61 6d        	<unknown>
      6e: 63 6c 75 73  	bltu	a0, s7, 0x7a6 <.debug_info+0x7a6>
      72: 74 65        	<unknown>
      74: 72 5f        	<unknown>
      76: 63 75 64 61  	bgeu	s0, s6, 0x680 <.debug_info+0x680>
      7a: 5f 63 70 75  	<unknown>
      7e: 2e 63        	<unknown>
      80: 75 00        	<unknown>
      82: 2f 6e 65 74  	<unknown>
      86: 68 6f        	<unknown>
      88: 6d 65        	<unknown>
      8a: 2f 63 61 68  	<unknown>
      8e: 6e 34        	<unknown>
      90: 35 2f        	<unknown>
      92: 43 75 50 42  	fmadd.d	fa0, ft0, ft5, fs0
      96: 6f 50 2f 65  	j	0xf56e8 <.debug_info+0xf56e8>
      9a: 78 61        	<unknown>
      9c: 6d 70        	<unknown>
      9e: 6c 65        	<unknown>
      a0: 73 2f 73 74  	csrrs	t5, mseccfg, t1
      a4: 72 65        	<unknown>
      a6: 61 6d        	<unknown>
      a8: 63 6c 75 73  	bltu	a0, s7, 0x7e0 <.debug_info+0x7e0>
      ac: 74 65        	<unknown>
      ae: 72 00        	<unknown>
      b0: 74 61        	<unknown>
      b2: 72 67        	<unknown>
      b4: 65 74        	<unknown>
      b6: 00 64        	<unknown>
      b8: 65 74        	<unknown>
      ba: 61 69        	<unknown>
      bc: 6c 00        	<unknown>
      be: 73 6d 5f 33  	csrrsi	s10, mhpmevent21, 0x1e
      c2: 35 00        	<unknown>
      c4: 73 6d 5f 33  	csrrsi	s10, mhpmevent21, 0x1e
      c8: 37 00 73 6d  	lui	zero, 0x6d730
      cc: 5f 35 30 00  	<unknown>
      d0: 73 6d 5f 35  	csrrsi	s10, 0x355, 0x1e
      d4: 32 00        	<unknown>
      d6: 73 6d 5f 35  	csrrsi	s10, 0x355, 0x1e
      da: 33 00 73 6d  	<unknown>
      de: 5f 36 30 00  	<unknown>
      e2: 73 6d 5f 36  	csrrsi	s10, 0x365, 0x1e
      e6: 31 00        	<unknown>
      e8: 73 6d 5f 36  	csrrsi	s10, 0x365, 0x1e
      ec: 32 00        	<unknown>
      ee: 73 6d 5f 37  	csrrsi	s10, 0x375, 0x1e
      f2: 30 00        	<unknown>
      f4: 73 6d 5f 37  	csrrsi	s10, 0x375, 0x1e
      f8: 32 00        	<unknown>
      fa: 73 6d 5f 37  	csrrsi	s10, 0x375, 0x1e
      fe: 35 00        	<unknown>
     100: 73 6d 5f 38  	csrrsi	s10, 0x385, 0x1e
     104: 30 00        	<unknown>
     106: 73 6d 5f 38  	csrrsi	s10, 0x385, 0x1e
     10a: 36 00        	<unknown>
     10c: 73 6d 5f 38  	csrrsi	s10, 0x385, 0x1e
     110: 37 00 73 6d  	lui	zero, 0x6d730
     114: 5f 38 39 00  	<unknown>
     118: 73 6d 5f 39  	csrrsi	s10, 0x395, 0x1e
     11c: 30 00        	<unknown>
     11e: 73 6d 5f 73  	csrrsi	s10, 0x735, 0x1e
     122: 65 6c        	<unknown>
     124: 65 63        	<unknown>
     126: 74 6f        	<unknown>
     128: 72 00        	<unknown>
     12a: 74 61        	<unknown>
     12c: 72 67        	<unknown>
     12e: 65 74        	<unknown>
     130: 73 00 75 6e  	<unknown>
     134: 73 69 67 6e  	csrrsi	s2, 0x6e6, 0xe
     138: 65 64        	<unknown>
     13a: 20 6c        	<unknown>
     13c: 6f 6e 67 20  	jal	t3, 0x76342 <.debug_info+0x76342>
     140: 6c 6f        	<unknown>
     142: 6e 67        	<unknown>
     144: 00 62        	<unknown>
     146: 61 73        	<unknown>
     148: 65 5f        	<unknown>
     14a: 69 6e        	<unknown>
     14c: 74 5f        	<unknown>
     14e: 74 00        	<unknown>
     150: 74 61        	<unknown>
     152: 72 67        	<unknown>
     154: 65 74        	<unknown>
     156: 5f 64 65 73  	<unknown>
     15a: 63 72 69 70  	bgeu	s2, t1, 0x85e <.debug_info+0x85e>
     15e: 74 69        	<unknown>
     160: 6f 6e 00 75  	jal	t3, 0x68b0 <.debug_info+0x68b0>
     164: 6e 73        	<unknown>
     166: 69 67        	<unknown>
     168: 6e 65        	<unknown>
     16a: 64 20        	<unknown>
     16c: 69 6e        	<unknown>
     16e: 74 00        	<unknown>
     170: 5f 5a 4e 4b  	<unknown>
     174: 34 64        	<unknown>
     176: 69 6d        	<unknown>
     178: 33 63 76 35  	<unknown>
     17c: 75 69        	<unknown>
     17e: 6e 74        	<unknown>
     180: 33 45 76 00  	xor	a0, a2, t2
     184: 6f 70 65 72  	j	0x578aa <.debug_info+0x578aa>
     188: 61 74        	<unknown>
     18a: 6f 72 20 75  	jal	tp, 0x78dc <.debug_info+0x78dc>
     18e: 69 6e        	<unknown>
     190: 74 33        	<unknown>
     192: 00 5f        	<unknown>
     194: 5a 4e        	<unknown>
     196: 32 35        	<unknown>
     198: 5f 5f 63 75  	<unknown>
     19c: 64 61        	<unknown>
     19e: 5f 62 75 69  	<unknown>
     1a2: 6c 74        	<unknown>
     1a4: 69 6e        	<unknown>
     1a6: 5f 62 6c 6f  	<unknown>
     1aa: 63 6b 49 64  	bltu	s2, tp, 0x800 <.debug_info+0x800>
     1ae: 78 5f        	<unknown>
     1b0: 74 31        	<unknown>
     1b2: 37 5f 5f 66  	lui	t5, 0x665f5
     1b6: 65 74        	<unknown>
     1b8: 63 68 5f 62  	bltu	t5, t0, 0x7e8 <.debug_info+0x7e8>
     1bc: 75 69        	<unknown>
     1be: 6c 74        	<unknown>
     1c0: 69 6e        	<unknown>
     1c2: 5f 78 45 76  	<unknown>
     1c6: 00 5f        	<unknown>
     1c8: 5f 66 65 74  	<unknown>
     1cc: 63 68 5f 62  	bltu	t5, t0, 0x7fc <.debug_info+0x7fc>
     1d0: 75 69        	<unknown>
     1d2: 6c 74        	<unknown>
     1d4: 69 6e        	<unknown>
     1d6: 5f 78 00 5f  	<unknown>
     1da: 5a 4e        	<unknown>
     1dc: 32 35        	<unknown>
     1de: 5f 5f 63 75  	<unknown>
     1e2: 64 61        	<unknown>
     1e4: 5f 62 75 69  	<unknown>
     1e8: 6c 74        	<unknown>
     1ea: 69 6e        	<unknown>
     1ec: 5f 62 6c 6f  	<unknown>
     1f0: 63 6b 49 64  	bltu	s2, tp, 0x846 <.debug_info+0x846>
     1f4: 78 5f        	<unknown>
     1f6: 74 31        	<unknown>
     1f8: 37 5f 5f 66  	lui	t5, 0x665f5
     1fc: 65 74        	<unknown>
     1fe: 63 68 5f 62  	bltu	t5, t0, 0x82e <.debug_info+0x82e>
     202: 75 69        	<unknown>
     204: 6c 74        	<unknown>
     206: 69 6e        	<unknown>
     208: 5f 79 45 76  	<unknown>
     20c: 00 5f        	<unknown>
     20e: 5f 66 65 74  	<unknown>
     212: 63 68 5f 62  	bltu	t5, t0, 0x842 <.debug_info+0x842>
     216: 75 69        	<unknown>
     218: 6c 74        	<unknown>
     21a: 69 6e        	<unknown>
     21c: 5f 79 00 5f  	<unknown>
     220: 5a 4e        	<unknown>
     222: 32 35        	<unknown>
     224: 5f 5f 63 75  	<unknown>
     228: 64 61        	<unknown>
     22a: 5f 62 75 69  	<unknown>
     22e: 6c 74        	<unknown>
     230: 69 6e        	<unknown>
     232: 5f 62 6c 6f  	<unknown>
     236: 63 6b 49 64  	bltu	s2, tp, 0x88c <.debug_info+0x88c>
     23a: 78 5f        	<unknown>
     23c: 74 31        	<unknown>
     23e: 37 5f 5f 66  	lui	t5, 0x665f5
     242: 65 74        	<unknown>
     244: 63 68 5f 62  	bltu	t5, t0, 0x874 <.debug_info+0x874>
     248: 75 69        	<unknown>
     24a: 6c 74        	<unknown>
     24c: 69 6e        	<unknown>
     24e: 5f 7a 45 76  	<unknown>
     252: 00 5f        	<unknown>
     254: 5f 66 65 74  	<unknown>
     258: 63 68 5f 62  	bltu	t5, t0, 0x888 <.debug_info+0x888>
     25c: 75 69        	<unknown>
     25e: 6c 74        	<unknown>
     260: 69 6e        	<unknown>
     262: 5f 7a 00 5f  	<unknown>
     266: 5a 4e        	<unknown>
     268: 4b 32 35 5f  	<unknown>
     26c: 5f 63 75 64  	<unknown>
     270: 61 5f        	<unknown>
     272: 62 75        	<unknown>
     274: 69 6c        	<unknown>
     276: 74 69        	<unknown>
     278: 6e 5f        	<unknown>
     27a: 62 6c        	<unknown>
     27c: 6f 63 6b 49  	jal	t1, 0xb6712 <.debug_info+0xb6712>
     280: 64 78        	<unknown>
     282: 5f 74 63 76  	<unknown>
     286: 34 64        	<unknown>
     288: 69 6d        	<unknown>
     28a: 33 45 76 00  	xor	a0, a2, t2
     28e: 6f 70 65 72  	j	0x579b4 <.debug_info+0x579b4>
     292: 61 74        	<unknown>
     294: 6f 72 20 64  	jal	tp, 0x78d6 <.debug_info+0x78d6>
     298: 69 6d        	<unknown>
     29a: 33 00 5f 5a  	<unknown>
     29e: 4e 4b        	<unknown>
     2a0: 32 35        	<unknown>
     2a2: 5f 5f 63 75  	<unknown>
     2a6: 64 61        	<unknown>
     2a8: 5f 62 75 69  	<unknown>
     2ac: 6c 74        	<unknown>
     2ae: 69 6e        	<unknown>
     2b0: 5f 62 6c 6f  	<unknown>
     2b4: 63 6b 49 64  	bltu	s2, tp, 0x90a <.debug_info+0x90a>
     2b8: 78 5f        	<unknown>
     2ba: 74 63        	<unknown>
     2bc: 76 35        	<unknown>
     2be: 75 69        	<unknown>
     2c0: 6e 74        	<unknown>
     2c2: 33 45 76 00  	xor	a0, a2, t2
     2c6: 5f 5f 63 75  	<unknown>
     2ca: 64 61        	<unknown>
     2cc: 5f 62 75 69  	<unknown>
     2d0: 6c 74        	<unknown>
     2d2: 69 6e        	<unknown>
     2d4: 5f 62 6c 6f  	<unknown>
     2d8: 63 6b 49 64  	bltu	s2, tp, 0x92e <.debug_info+0x92e>
     2dc: 78 5f        	<unknown>
     2de: 74 00        	<unknown>
     2e0: 5f 5a 4e 4b  	<unknown>
     2e4: 32 35        	<unknown>
     2e6: 5f 5f 63 75  	<unknown>
     2ea: 64 61        	<unknown>
     2ec: 5f 62 75 69  	<unknown>
     2f0: 6c 74        	<unknown>
     2f2: 69 6e        	<unknown>
     2f4: 5f 62 6c 6f  	<unknown>
     2f8: 63 6b 49 64  	bltu	s2, tp, 0x94e <.debug_info+0x94e>
     2fc: 78 5f        	<unknown>
     2fe: 74 61        	<unknown>
     300: 53 45 52 4b  	<unknown>
     304: 53 5f 00 6f  	<unknown>
     308: 70 65        	<unknown>
     30a: 72 61        	<unknown>
     30c: 74 6f        	<unknown>
     30e: 72 3d        	<unknown>
     310: 00 5f        	<unknown>
     312: 5a 4e        	<unknown>
     314: 4b 32 35 5f  	<unknown>
     318: 5f 63 75 64  	<unknown>
     31c: 61 5f        	<unknown>
     31e: 62 75        	<unknown>
     320: 69 6c        	<unknown>
     322: 74 69        	<unknown>
     324: 6e 5f        	<unknown>
     326: 62 6c        	<unknown>
     328: 6f 63 6b 49  	jal	t1, 0xb67be <.debug_info+0xb67be>
     32c: 64 78        	<unknown>
     32e: 5f 74 61 64  	<unknown>
     332: 45 76        	<unknown>
     334: 00 6f        	<unknown>
     336: 70 65        	<unknown>
     338: 72 61        	<unknown>
     33a: 74 6f        	<unknown>
     33c: 72 26        	<unknown>
     33e: 00 5f        	<unknown>
     340: 5a 4e        	<unknown>
     342: 32 34        	<unknown>
     344: 5f 5f 63 75  	<unknown>
     348: 64 61        	<unknown>
     34a: 5f 62 75 69  	<unknown>
     34e: 6c 74        	<unknown>
     350: 69 6e        	<unknown>
     352: 5f 67 72 69  	<unknown>
     356: 64 44        	<unknown>
     358: 69 6d        	<unknown>
     35a: 5f 74 31 37  	<unknown>
     35e: 5f 5f 66 65  	<unknown>
     362: 74 63        	<unknown>
     364: 68 5f        	<unknown>
     366: 62 75        	<unknown>
     368: 69 6c        	<unknown>
     36a: 74 69        	<unknown>
     36c: 6e 5f        	<unknown>
     36e: 78 45        	<unknown>
     370: 76 00        	<unknown>
     372: 5f 5a 4e 32  	<unknown>
     376: 34 5f        	<unknown>
     378: 5f 63 75 64  	<unknown>
     37c: 61 5f        	<unknown>
     37e: 62 75        	<unknown>
     380: 69 6c        	<unknown>
     382: 74 69        	<unknown>
     384: 6e 5f        	<unknown>
     386: 67 72 69 64  	<unknown>
     38a: 44 69        	<unknown>
     38c: 6d 5f        	<unknown>
     38e: 74 31        	<unknown>
     390: 37 5f 5f 66  	lui	t5, 0x665f5
     394: 65 74        	<unknown>
     396: 63 68 5f 62  	bltu	t5, t0, 0x9c6 <.debug_info+0x9c6>
     39a: 75 69        	<unknown>
     39c: 6c 74        	<unknown>
     39e: 69 6e        	<unknown>
     3a0: 5f 79 45 76  	<unknown>
     3a4: 00 5f        	<unknown>
     3a6: 5a 4e        	<unknown>
     3a8: 32 34        	<unknown>
     3aa: 5f 5f 63 75  	<unknown>
     3ae: 64 61        	<unknown>
     3b0: 5f 62 75 69  	<unknown>
     3b4: 6c 74        	<unknown>
     3b6: 69 6e        	<unknown>
     3b8: 5f 67 72 69  	<unknown>
     3bc: 64 44        	<unknown>
     3be: 69 6d        	<unknown>
     3c0: 5f 74 31 37  	<unknown>
     3c4: 5f 5f 66 65  	<unknown>
     3c8: 74 63        	<unknown>
     3ca: 68 5f        	<unknown>
     3cc: 62 75        	<unknown>
     3ce: 69 6c        	<unknown>
     3d0: 74 69        	<unknown>
     3d2: 6e 5f        	<unknown>
     3d4: 7a 45        	<unknown>
     3d6: 76 00        	<unknown>
     3d8: 5f 5a 4e 4b  	<unknown>
     3dc: 32 34        	<unknown>
     3de: 5f 5f 63 75  	<unknown>
     3e2: 64 61        	<unknown>
     3e4: 5f 62 75 69  	<unknown>
     3e8: 6c 74        	<unknown>
     3ea: 69 6e        	<unknown>
     3ec: 5f 67 72 69  	<unknown>
     3f0: 64 44        	<unknown>
     3f2: 69 6d        	<unknown>
     3f4: 5f 74 63 76  	<unknown>
     3f8: 34 64        	<unknown>
     3fa: 69 6d        	<unknown>
     3fc: 33 45 76 00  	xor	a0, a2, t2
     400: 5f 5a 4e 4b  	<unknown>
     404: 32 34        	<unknown>
     406: 5f 5f 63 75  	<unknown>
     40a: 64 61        	<unknown>
     40c: 5f 62 75 69  	<unknown>
     410: 6c 74        	<unknown>
     412: 69 6e        	<unknown>
     414: 5f 67 72 69  	<unknown>
     418: 64 44        	<unknown>
     41a: 69 6d        	<unknown>
     41c: 5f 74 63 76  	<unknown>
     420: 35 75        	<unknown>
     422: 69 6e        	<unknown>
     424: 74 33        	<unknown>
     426: 45 76        	<unknown>
     428: 00 5f        	<unknown>
     42a: 5f 63 75 64  	<unknown>
     42e: 61 5f        	<unknown>
     430: 62 75        	<unknown>
     432: 69 6c        	<unknown>
     434: 74 69        	<unknown>
     436: 6e 5f        	<unknown>
     438: 67 72 69 64  	<unknown>
     43c: 44 69        	<unknown>
     43e: 6d 5f        	<unknown>
     440: 74 00        	<unknown>
     442: 5f 5a 4e 4b  	<unknown>
     446: 32 34        	<unknown>
     448: 5f 5f 63 75  	<unknown>
     44c: 64 61        	<unknown>
     44e: 5f 62 75 69  	<unknown>
     452: 6c 74        	<unknown>
     454: 69 6e        	<unknown>
     456: 5f 67 72 69  	<unknown>
     45a: 64 44        	<unknown>
     45c: 69 6d        	<unknown>
     45e: 5f 74 61 53  	<unknown>
     462: 45 52        	<unknown>
     464: 4b 53 5f 00  	<unknown>
     468: 5f 5a 4e 4b  	<unknown>
     46c: 32 34        	<unknown>
     46e: 5f 5f 63 75  	<unknown>
     472: 64 61        	<unknown>
     474: 5f 62 75 69  	<unknown>
     478: 6c 74        	<unknown>
     47a: 69 6e        	<unknown>
     47c: 5f 67 72 69  	<unknown>
     480: 64 44        	<unknown>
     482: 69 6d        	<unknown>
     484: 5f 74 61 64  	<unknown>
     488: 45 76        	<unknown>
     48a: 00 5f        	<unknown>
     48c: 5a 4e        	<unknown>
     48e: 32 35        	<unknown>
     490: 5f 5f 63 75  	<unknown>
     494: 64 61        	<unknown>
     496: 5f 62 75 69  	<unknown>
     49a: 6c 74        	<unknown>
     49c: 69 6e        	<unknown>
     49e: 5f 62 6c 6f  	<unknown>
     4a2: 63 6b 44 69  	bltu	s0, s4, 0xb38 <.debug_info+0xb38>
     4a6: 6d 5f        	<unknown>
     4a8: 74 31        	<unknown>
     4aa: 37 5f 5f 66  	lui	t5, 0x665f5
     4ae: 65 74        	<unknown>
     4b0: 63 68 5f 62  	bltu	t5, t0, 0xae0 <.debug_info+0xae0>
     4b4: 75 69        	<unknown>
     4b6: 6c 74        	<unknown>
     4b8: 69 6e        	<unknown>
     4ba: 5f 78 45 76  	<unknown>
     4be: 00 5f        	<unknown>
     4c0: 5a 4e        	<unknown>
     4c2: 32 35        	<unknown>
     4c4: 5f 5f 63 75  	<unknown>
     4c8: 64 61        	<unknown>
     4ca: 5f 62 75 69  	<unknown>
     4ce: 6c 74        	<unknown>
     4d0: 69 6e        	<unknown>
     4d2: 5f 62 6c 6f  	<unknown>
     4d6: 63 6b 44 69  	bltu	s0, s4, 0xb6c <.debug_info+0xb6c>
     4da: 6d 5f        	<unknown>
     4dc: 74 31        	<unknown>
     4de: 37 5f 5f 66  	lui	t5, 0x665f5
     4e2: 65 74        	<unknown>
     4e4: 63 68 5f 62  	bltu	t5, t0, 0xb14 <.debug_info+0xb14>
     4e8: 75 69        	<unknown>
     4ea: 6c 74        	<unknown>
     4ec: 69 6e        	<unknown>
     4ee: 5f 79 45 76  	<unknown>
     4f2: 00 5f        	<unknown>
     4f4: 5a 4e        	<unknown>
     4f6: 32 35        	<unknown>
     4f8: 5f 5f 63 75  	<unknown>
     4fc: 64 61        	<unknown>
     4fe: 5f 62 75 69  	<unknown>
     502: 6c 74        	<unknown>
     504: 69 6e        	<unknown>
     506: 5f 62 6c 6f  	<unknown>
     50a: 63 6b 44 69  	bltu	s0, s4, 0xba0 <.debug_info+0xba0>
     50e: 6d 5f        	<unknown>
     510: 74 31        	<unknown>
     512: 37 5f 5f 66  	lui	t5, 0x665f5
     516: 65 74        	<unknown>
     518: 63 68 5f 62  	bltu	t5, t0, 0xb48 <.debug_info+0xb48>
     51c: 75 69        	<unknown>
     51e: 6c 74        	<unknown>
     520: 69 6e        	<unknown>
     522: 5f 7a 45 76  	<unknown>
     526: 00 5f        	<unknown>
     528: 5a 4e        	<unknown>
     52a: 4b 32 35 5f  	<unknown>
     52e: 5f 63 75 64  	<unknown>
     532: 61 5f        	<unknown>
     534: 62 75        	<unknown>
     536: 69 6c        	<unknown>
     538: 74 69        	<unknown>
     53a: 6e 5f        	<unknown>
     53c: 62 6c        	<unknown>
     53e: 6f 63 6b 44  	jal	t1, 0xb6984 <.debug_info+0xb6984>
     542: 69 6d        	<unknown>
     544: 5f 74 63 76  	<unknown>
     548: 34 64        	<unknown>
     54a: 69 6d        	<unknown>
     54c: 33 45 76 00  	xor	a0, a2, t2
     550: 5f 5a 4e 4b  	<unknown>
     554: 32 35        	<unknown>
     556: 5f 5f 63 75  	<unknown>
     55a: 64 61        	<unknown>
     55c: 5f 62 75 69  	<unknown>
     560: 6c 74        	<unknown>
     562: 69 6e        	<unknown>
     564: 5f 62 6c 6f  	<unknown>
     568: 63 6b 44 69  	bltu	s0, s4, 0xbfe <.debug_info+0xbfe>
     56c: 6d 5f        	<unknown>
     56e: 74 63        	<unknown>
     570: 76 35        	<unknown>
     572: 75 69        	<unknown>
     574: 6e 74        	<unknown>
     576: 33 45 76 00  	xor	a0, a2, t2
     57a: 5f 5f 63 75  	<unknown>
     57e: 64 61        	<unknown>
     580: 5f 62 75 69  	<unknown>
     584: 6c 74        	<unknown>
     586: 69 6e        	<unknown>
     588: 5f 62 6c 6f  	<unknown>
     58c: 63 6b 44 69  	bltu	s0, s4, 0xc22 <.debug_info+0xc22>
     590: 6d 5f        	<unknown>
     592: 74 00        	<unknown>
     594: 5f 5a 4e 4b  	<unknown>
     598: 32 35        	<unknown>
     59a: 5f 5f 63 75  	<unknown>
     59e: 64 61        	<unknown>
     5a0: 5f 62 75 69  	<unknown>
     5a4: 6c 74        	<unknown>
     5a6: 69 6e        	<unknown>
     5a8: 5f 62 6c 6f  	<unknown>
     5ac: 63 6b 44 69  	bltu	s0, s4, 0xc42 <.debug_info+0xc42>
     5b0: 6d 5f        	<unknown>
     5b2: 74 61        	<unknown>
     5b4: 53 45 52 4b  	<unknown>
     5b8: 53 5f 00 5f  	<unknown>
     5bc: 5a 4e        	<unknown>
     5be: 4b 32 35 5f  	<unknown>
     5c2: 5f 63 75 64  	<unknown>
     5c6: 61 5f        	<unknown>
     5c8: 62 75        	<unknown>
     5ca: 69 6c        	<unknown>
     5cc: 74 69        	<unknown>
     5ce: 6e 5f        	<unknown>
     5d0: 62 6c        	<unknown>
     5d2: 6f 63 6b 44  	jal	t1, 0xb6a18 <.debug_info+0xb6a18>
     5d6: 69 6d        	<unknown>
     5d8: 5f 74 61 64  	<unknown>
     5dc: 45 76        	<unknown>
     5de: 00 5f        	<unknown>
     5e0: 5a 4e        	<unknown>
     5e2: 32 36        	<unknown>
     5e4: 5f 5f 63 75  	<unknown>
     5e8: 64 61        	<unknown>
     5ea: 5f 62 75 69  	<unknown>
     5ee: 6c 74        	<unknown>
     5f0: 69 6e        	<unknown>
     5f2: 5f 74 68 72  	<unknown>
     5f6: 65 61        	<unknown>
     5f8: 64 49        	<unknown>
     5fa: 64 78        	<unknown>
     5fc: 5f 74 31 37  	<unknown>
     600: 5f 5f 66 65  	<unknown>
     604: 74 63        	<unknown>
     606: 68 5f        	<unknown>
     608: 62 75        	<unknown>
     60a: 69 6c        	<unknown>
     60c: 74 69        	<unknown>
     60e: 6e 5f        	<unknown>
     610: 78 45        	<unknown>
     612: 76 00        	<unknown>
     614: 5f 5a 4e 32  	<unknown>
     618: 36 5f        	<unknown>
     61a: 5f 63 75 64  	<unknown>
     61e: 61 5f        	<unknown>
     620: 62 75        	<unknown>
     622: 69 6c        	<unknown>
     624: 74 69        	<unknown>
     626: 6e 5f        	<unknown>
     628: 74 68        	<unknown>
     62a: 72 65        	<unknown>
     62c: 61 64        	<unknown>
     62e: 49 64        	<unknown>
     630: 78 5f        	<unknown>
     632: 74 31        	<unknown>
     634: 37 5f 5f 66  	lui	t5, 0x665f5
     638: 65 74        	<unknown>
     63a: 63 68 5f 62  	bltu	t5, t0, 0xc6a <.debug_info+0xc6a>
     63e: 75 69        	<unknown>
     640: 6c 74        	<unknown>
     642: 69 6e        	<unknown>
     644: 5f 79 45 76  	<unknown>
     648: 00 5f        	<unknown>
     64a: 5a 4e        	<unknown>
     64c: 32 36        	<unknown>
     64e: 5f 5f 63 75  	<unknown>
     652: 64 61        	<unknown>
     654: 5f 62 75 69  	<unknown>
     658: 6c 74        	<unknown>
     65a: 69 6e        	<unknown>
     65c: 5f 74 68 72  	<unknown>
     660: 65 61        	<unknown>
     662: 64 49        	<unknown>
     664: 64 78        	<unknown>
     666: 5f 74 31 37  	<unknown>
     66a: 5f 5f 66 65  	<unknown>
     66e: 74 63        	<unknown>
     670: 68 5f        	<unknown>
     672: 62 75        	<unknown>
     674: 69 6c        	<unknown>
     676: 74 69        	<unknown>
     678: 6e 5f        	<unknown>
     67a: 7a 45        	<unknown>
     67c: 76 00        	<unknown>
     67e: 5f 5a 4e 4b  	<unknown>
     682: 32 36        	<unknown>
     684: 5f 5f 63 75  	<unknown>
     688: 64 61        	<unknown>
     68a: 5f 62 75 69  	<unknown>
     68e: 6c 74        	<unknown>
     690: 69 6e        	<unknown>
     692: 5f 74 68 72  	<unknown>
     696: 65 61        	<unknown>
     698: 64 49        	<unknown>
     69a: 64 78        	<unknown>
     69c: 5f 74 63 76  	<unknown>
     6a0: 34 64        	<unknown>
     6a2: 69 6d        	<unknown>
     6a4: 33 45 76 00  	xor	a0, a2, t2
     6a8: 5f 5a 4e 4b  	<unknown>
     6ac: 32 36        	<unknown>
     6ae: 5f 5f 63 75  	<unknown>
     6b2: 64 61        	<unknown>
     6b4: 5f 62 75 69  	<unknown>
     6b8: 6c 74        	<unknown>
     6ba: 69 6e        	<unknown>
     6bc: 5f 74 68 72  	<unknown>
     6c0: 65 61        	<unknown>
     6c2: 64 49        	<unknown>
     6c4: 64 78        	<unknown>
     6c6: 5f 74 63 76  	<unknown>
     6ca: 35 75        	<unknown>
     6cc: 69 6e        	<unknown>
     6ce: 74 33        	<unknown>
     6d0: 45 76        	<unknown>
     6d2: 00 5f        	<unknown>
     6d4: 5f 63 75 64  	<unknown>
     6d8: 61 5f        	<unknown>
     6da: 62 75        	<unknown>
     6dc: 69 6c        	<unknown>
     6de: 74 69        	<unknown>
     6e0: 6e 5f        	<unknown>
     6e2: 74 68        	<unknown>
     6e4: 72 65        	<unknown>
     6e6: 61 64        	<unknown>
     6e8: 49 64        	<unknown>
     6ea: 78 5f        	<unknown>
     6ec: 74 00        	<unknown>
     6ee: 5f 5a 4e 4b  	<unknown>
     6f2: 32 36        	<unknown>
     6f4: 5f 5f 63 75  	<unknown>
     6f8: 64 61        	<unknown>
     6fa: 5f 62 75 69  	<unknown>
     6fe: 6c 74        	<unknown>
     700: 69 6e        	<unknown>
     702: 5f 74 68 72  	<unknown>
     706: 65 61        	<unknown>
     708: 64 49        	<unknown>
     70a: 64 78        	<unknown>
     70c: 5f 74 61 53  	<unknown>
     710: 45 52        	<unknown>
     712: 4b 53 5f 00  	<unknown>
     716: 5f 5a 4e 4b  	<unknown>
     71a: 32 36        	<unknown>
     71c: 5f 5f 63 75  	<unknown>
     720: 64 61        	<unknown>
     722: 5f 62 75 69  	<unknown>
     726: 6c 74        	<unknown>
     728: 69 6e        	<unknown>
     72a: 5f 74 68 72  	<unknown>
     72e: 65 61        	<unknown>
     730: 64 49        	<unknown>
     732: 64 78        	<unknown>
     734: 5f 74 61 64  	<unknown>
     738: 45 76        	<unknown>
     73a: 00 73        	<unknown>
     73c: 74 64        	<unknown>
     73e: 00 5f        	<unknown>
     740: 5a 4c        	<unknown>
     742: 33 61 62 73  	<unknown>
     746: 69 00        	<unknown>
     748: 5f 5a 4c 34  	<unknown>
     74c: 61 63        	<unknown>
     74e: 6f 73 66 00  	jal	t1, 0x67754 <.debug_info+0x67754>
     752: 61 63        	<unknown>
     754: 6f 73 00 66  	jal	t1, 0x7db4 <.debug_info+0x7db4>
     758: 6c 6f        	<unknown>
     75a: 61 74        	<unknown>
     75c: 00 5f        	<unknown>
     75e: 5a 4c        	<unknown>
     760: 35 61        	<unknown>
     762: 63 6f 73 68  	bltu	t1, t2, 0xe00 <.debug_info+0xe00>
     766: 66 00        	<unknown>
     768: 61 63        	<unknown>
     76a: 6f 73 68 00  	jal	t1, 0x87770 <.debug_info+0x87770>
     76e: 5f 5a 4c 34  	<unknown>
     772: 61 73        	<unknown>
     774: 69 6e        	<unknown>
     776: 66 00        	<unknown>
     778: 61 73        	<unknown>
     77a: 69 6e        	<unknown>
     77c: 00 5f        	<unknown>
     77e: 5a 4c        	<unknown>
     780: 35 61        	<unknown>
     782: 73 69 6e 68  	csrrsi	s2, 0x686, 0x1c
     786: 66 00        	<unknown>
     788: 61 73        	<unknown>
     78a: 69 6e        	<unknown>
     78c: 68 00        	<unknown>
     78e: 5f 5a 4c 34  	<unknown>
     792: 61 74        	<unknown>
     794: 61 6e        	<unknown>
     796: 66 00        	<unknown>
     798: 61 74        	<unknown>
     79a: 61 6e        	<unknown>
     79c: 00 5f        	<unknown>
     79e: 5a 4c        	<unknown>
     7a0: 35 61        	<unknown>
     7a2: 74 61        	<unknown>
     7a4: 6e 32        	<unknown>
     7a6: 66 66        	<unknown>
     7a8: 00 61        	<unknown>
     7aa: 74 61        	<unknown>
     7ac: 6e 32        	<unknown>
     7ae: 00 5f        	<unknown>
     7b0: 5a 4c        	<unknown>
     7b2: 35 61        	<unknown>
     7b4: 74 61        	<unknown>
     7b6: 6e 68        	<unknown>
     7b8: 66 00        	<unknown>
     7ba: 61 74        	<unknown>
     7bc: 61 6e        	<unknown>
     7be: 68 00        	<unknown>
     7c0: 5f 5a 4c 34  	<unknown>
     7c4: 63 62 72 74  	bltu	tp, t2, 0xf08 <.debug_info+0xf08>
     7c8: 66 00        	<unknown>
     7ca: 63 62 72 74  	bltu	tp, t2, 0xf0e <.debug_info+0xf0e>
     7ce: 00 5f        	<unknown>
     7d0: 5a 4c        	<unknown>
     7d2: 34 63        	<unknown>
     7d4: 65 69        	<unknown>
     7d6: 6c 66        	<unknown>
     7d8: 00 63        	<unknown>
     7da: 65 69        	<unknown>
     7dc: 6c 00        	<unknown>
     7de: 5f 5a 4c 38  	<unknown>
     7e2: 63 6f 70 79  	bltu	zero, s7, 0xf80 <.debug_info+0xf80>
     7e6: 73 69 67 6e  	csrrsi	s2, 0x6e6, 0xe
     7ea: 66 66        	<unknown>
     7ec: 00 63        	<unknown>
     7ee: 6f 70 79 73  	j	0x98724 <.debug_info+0x98724>
     7f2: 69 67        	<unknown>
     7f4: 6e 00        	<unknown>
     7f6: 5f 5a 4c 33  	<unknown>
     7fa: 63 6f 73 66  	bltu	t1, t2, 0xe78 <.debug_info+0xe78>
     7fe: 00 5f        	<unknown>
     800: 5a 4c        	<unknown>
     802: 34 63        	<unknown>
     804: 6f 73 68 66  	jal	t1, 0x87e6a <.debug_info+0x87e6a>
     808: 00 5f        	<unknown>
     80a: 5a 4c        	<unknown>
     80c: 33 65 72 66  	<unknown>
     810: 66 00        	<unknown>
     812: 5f 5a 4c 34  	<unknown>
     816: 65 72        	<unknown>
     818: 66 63        	<unknown>
     81a: 66 00        	<unknown>
     81c: 65 72        	<unknown>
     81e: 66 63        	<unknown>
     820: 00 5f        	<unknown>
     822: 5a 4c        	<unknown>
     824: 33 65 78 70  	<unknown>
     828: 66 00        	<unknown>
     82a: 5f 5a 4c 34  	<unknown>
     82e: 65 78        	<unknown>
     830: 70 32        	<unknown>
     832: 66 00        	<unknown>
     834: 65 78        	<unknown>
     836: 70 32        	<unknown>
     838: 00 5f        	<unknown>
     83a: 5a 4c        	<unknown>
     83c: 35 65        	<unknown>
     83e: 78 70        	<unknown>
     840: 6d 31        	<unknown>
     842: 66 00        	<unknown>
     844: 65 78        	<unknown>
     846: 70 6d        	<unknown>
     848: 31 00        	<unknown>
     84a: 5f 5a 4c 34  	<unknown>
     84e: 66 61        	<unknown>
     850: 62 73        	<unknown>
     852: 66 00        	<unknown>
     854: 66 61        	<unknown>
     856: 62 73        	<unknown>
     858: 00 5f        	<unknown>
     85a: 5a 4c        	<unknown>
     85c: 34 66        	<unknown>
     85e: 64 69        	<unknown>
     860: 6d 66        	<unknown>
     862: 66 00        	<unknown>
     864: 66 64        	<unknown>
     866: 69 6d        	<unknown>
     868: 00 5f        	<unknown>
     86a: 5a 4c        	<unknown>
     86c: 35 66        	<unknown>
     86e: 6c 6f        	<unknown>
     870: 6f 72 66 00  	jal	tp, 0x67876 <.debug_info+0x67876>
     874: 66 6c        	<unknown>
     876: 6f 6f 72 00  	jal	t5, 0x2707c <.debug_info+0x2707c>
     87a: 5f 5a 4c 33  	<unknown>
     87e: 66 6d        	<unknown>
     880: 61 66        	<unknown>
     882: 66 66        	<unknown>
     884: 00 66        	<unknown>
     886: 6d 61        	<unknown>
     888: 00 5f        	<unknown>
     88a: 5a 4c        	<unknown>
     88c: 34 66        	<unknown>
     88e: 6d 61        	<unknown>
     890: 78 66        	<unknown>
     892: 66 00        	<unknown>
     894: 66 6d        	<unknown>
     896: 61 78        	<unknown>
     898: 00 5f        	<unknown>
     89a: 5a 4c        	<unknown>
     89c: 34 66        	<unknown>
     89e: 6d 69        	<unknown>
     8a0: 6e 66        	<unknown>
     8a2: 66 00        	<unknown>
     8a4: 66 6d        	<unknown>
     8a6: 69 6e        	<unknown>
     8a8: 00 5f        	<unknown>
     8aa: 5a 4c        	<unknown>
     8ac: 34 66        	<unknown>
     8ae: 6d 6f        	<unknown>
     8b0: 64 66        	<unknown>
     8b2: 66 00        	<unknown>
     8b4: 66 6d        	<unknown>
     8b6: 6f 64 00 5f  	jal	s0, 0x6ea6 <.debug_info+0x6ea6>
     8ba: 5a 4c        	<unknown>
     8bc: 31 30        	<unknown>
     8be: 66 70        	<unknown>
     8c0: 63 6c 61 73  	bltu	sp, s6, 0xff8 <.debug_info+0xff8>
     8c4: 73 69 66 79  	csrrsi	s2, 0x796, 0xc
     8c8: 66 00        	<unknown>
     8ca: 66 70        	<unknown>
     8cc: 63 6c 61 73  	bltu	sp, s6, 0x1004 <.debug_info+0x1004>
     8d0: 73 69 66 79  	csrrsi	s2, 0x796, 0xc
     8d4: 00 5f        	<unknown>
     8d6: 5a 4c        	<unknown>
     8d8: 35 66        	<unknown>
     8da: 72 65        	<unknown>
     8dc: 78 70        	<unknown>
     8de: 66 50        	<unknown>
     8e0: 69 00        	<unknown>
     8e2: 66 72        	<unknown>
     8e4: 65 78        	<unknown>
     8e6: 70 00        	<unknown>
     8e8: 5f 5a 4c 35  	<unknown>
     8ec: 68 79        	<unknown>
     8ee: 70 6f        	<unknown>
     8f0: 74 66        	<unknown>
     8f2: 66 00        	<unknown>
     8f4: 68 79        	<unknown>
     8f6: 70 6f        	<unknown>
     8f8: 74 00        	<unknown>
     8fa: 5f 5a 4c 35  	<unknown>
     8fe: 69 6c        	<unknown>
     900: 6f 67 62 66  	jal	a4, 0x26f66 <.debug_info+0x26f66>
     904: 00 69        	<unknown>
     906: 6c 6f        	<unknown>
     908: 67 62 00 5f  	<unknown>
     90c: 5a 4c        	<unknown>
     90e: 38 69        	<unknown>
     910: 73 66 69 6e  	csrrsi	a2, 0x6e6, 0x12
     914: 69 74        	<unknown>
     916: 65 66        	<unknown>
     918: 00 69        	<unknown>
     91a: 73 66 69 6e  	csrrsi	a2, 0x6e6, 0x12
     91e: 69 74        	<unknown>
     920: 65 00        	<unknown>
     922: 62 6f        	<unknown>
     924: 6f 6c 00 5f  	jal	s8, 0x6f14 <.debug_info+0x6f14>
     928: 5a 4c        	<unknown>
     92a: 39 69        	<unknown>
     92c: 73 67 72 65  	csrrsi	a4, 0x657, 0x4
     930: 61 74        	<unknown>
     932: 65 72        	<unknown>
     934: 66 66        	<unknown>
     936: 00 69        	<unknown>
     938: 73 67 72 65  	csrrsi	a4, 0x657, 0x4
     93c: 61 74        	<unknown>
     93e: 65 72        	<unknown>
     940: 00 5f        	<unknown>
     942: 5a 4c        	<unknown>
     944: 31 34        	<unknown>
     946: 69 73        	<unknown>
     948: 67 72 65 61  	<unknown>
     94c: 74 65        	<unknown>
     94e: 72 65        	<unknown>
     950: 71 75        	<unknown>
     952: 61 6c        	<unknown>
     954: 66 66        	<unknown>
     956: 00 69        	<unknown>
     958: 73 67 72 65  	csrrsi	a4, 0x657, 0x4
     95c: 61 74        	<unknown>
     95e: 65 72        	<unknown>
     960: 65 71        	<unknown>
     962: 75 61        	<unknown>
     964: 6c 00        	<unknown>
     966: 5f 5a 4c 35  	<unknown>
     96a: 69 73        	<unknown>
     96c: 69 6e        	<unknown>
     96e: 66 66        	<unknown>
     970: 00 69        	<unknown>
     972: 73 69 6e 66  	csrrsi	s2, 0x666, 0x1c
     976: 00 5f        	<unknown>
     978: 5a 4c        	<unknown>
     97a: 36 69        	<unknown>
     97c: 73 6c 65 73  	csrrsi	s8, 0x736, 0xa
     980: 73 66 66 00  	csrrsi	a2, 0x6, 0xc
     984: 69 73        	<unknown>
     986: 6c 65        	<unknown>
     988: 73 73 00 5f  	csrrci	t1, 0x5f0, 0x0
     98c: 5a 4c        	<unknown>
     98e: 31 31        	<unknown>
     990: 69 73        	<unknown>
     992: 6c 65        	<unknown>
     994: 73 73 65 71  	csrrci	t1, 0x716, 0xa
     998: 75 61        	<unknown>
     99a: 6c 66        	<unknown>
     99c: 66 00        	<unknown>
     99e: 69 73        	<unknown>
     9a0: 6c 65        	<unknown>
     9a2: 73 73 65 71  	csrrci	t1, 0x716, 0xa
     9a6: 75 61        	<unknown>
     9a8: 6c 00        	<unknown>
     9aa: 5f 5a 4c 31  	<unknown>
     9ae: 33 69 73 6c  	<unknown>
     9b2: 65 73        	<unknown>
     9b4: 73 67 72 65  	csrrsi	a4, 0x657, 0x4
     9b8: 61 74        	<unknown>
     9ba: 65 72        	<unknown>
     9bc: 66 66        	<unknown>
     9be: 00 69        	<unknown>
     9c0: 73 6c 65 73  	csrrsi	s8, 0x736, 0xa
     9c4: 73 67 72 65  	csrrsi	a4, 0x657, 0x4
     9c8: 61 74        	<unknown>
     9ca: 65 72        	<unknown>
     9cc: 00 5f        	<unknown>
     9ce: 5a 4c        	<unknown>
     9d0: 35 69        	<unknown>
     9d2: 73 6e 61 6e  	csrrsi	t3, 0x6e6, 0x2
     9d6: 66 00        	<unknown>
     9d8: 69 73        	<unknown>
     9da: 6e 61        	<unknown>
     9dc: 6e 00        	<unknown>
     9de: 5f 5a 4c 38  	<unknown>
     9e2: 69 73        	<unknown>
     9e4: 6e 6f        	<unknown>
     9e6: 72 6d        	<unknown>
     9e8: 61 6c        	<unknown>
     9ea: 66 00        	<unknown>
     9ec: 69 73        	<unknown>
     9ee: 6e 6f        	<unknown>
     9f0: 72 6d        	<unknown>
     9f2: 61 6c        	<unknown>
     9f4: 00 5f        	<unknown>
     9f6: 5a 4c        	<unknown>
     9f8: 31 31        	<unknown>
     9fa: 69 73        	<unknown>
     9fc: 75 6e        	<unknown>
     9fe: 6f 72 64 65  	jal	tp, 0x48054 <.debug_info+0x48054>
     a02: 72 65        	<unknown>
     a04: 64 66        	<unknown>
     a06: 66 00        	<unknown>
     a08: 69 73        	<unknown>
     a0a: 75 6e        	<unknown>
     a0c: 6f 72 64 65  	jal	tp, 0x48062 <.debug_info+0x48062>
     a10: 72 65        	<unknown>
     a12: 64 00        	<unknown>
     a14: 5f 5a 4c 34  	<unknown>
     a18: 6c 61        	<unknown>
     a1a: 62 73        	<unknown>
     a1c: 6c 00        	<unknown>
     a1e: 5f 5a 4c 35  	<unknown>
     a22: 6c 64        	<unknown>
     a24: 65 78        	<unknown>
     a26: 70 66        	<unknown>
     a28: 69 00        	<unknown>
     a2a: 6c 64        	<unknown>
     a2c: 65 78        	<unknown>
     a2e: 70 00        	<unknown>
     a30: 5f 5a 4c 36  	<unknown>
     a34: 6c 67        	<unknown>
     a36: 61 6d        	<unknown>
     a38: 6d 61        	<unknown>
     a3a: 66 00        	<unknown>
     a3c: 6c 67        	<unknown>
     a3e: 61 6d        	<unknown>
     a40: 6d 61        	<unknown>
     a42: 00 5f        	<unknown>
     a44: 5a 4c        	<unknown>
     a46: 35 6c        	<unknown>
     a48: 6c 61        	<unknown>
     a4a: 62 73        	<unknown>
     a4c: 78 00        	<unknown>
     a4e: 6c 6c        	<unknown>
     a50: 61 62        	<unknown>
     a52: 73 00 5f 5a  	<unknown>
     a56: 4c 36        	<unknown>
     a58: 6c 6c        	<unknown>
     a5a: 72 69        	<unknown>
     a5c: 6e 74        	<unknown>
     a5e: 66 00        	<unknown>
     a60: 6c 6c        	<unknown>
     a62: 72 69        	<unknown>
     a64: 6e 74        	<unknown>
     a66: 00 5f        	<unknown>
     a68: 5a 4c        	<unknown>
     a6a: 33 6c 6f 67  	<unknown>
     a6e: 66 00        	<unknown>
     a70: 6c 6f        	<unknown>
     a72: 67 00 5f 5a  	jr	0x5a5(t5)
     a76: 4c 35        	<unknown>
     a78: 6c 6f        	<unknown>
     a7a: 67 31 30 66  	<unknown>
     a7e: 00 6c        	<unknown>
     a80: 6f 67 31 30  	jal	a4, 0x17582 <.debug_info+0x17582>
     a84: 00 5f        	<unknown>
     a86: 5a 4c        	<unknown>
     a88: 35 6c        	<unknown>
     a8a: 6f 67 31 70  	jal	a4, 0x1798c <.debug_info+0x1798c>
     a8e: 66 00        	<unknown>
     a90: 6c 6f        	<unknown>
     a92: 67 31 70 00  	<unknown>
     a96: 5f 5a 4c 34  	<unknown>
     a9a: 6c 6f        	<unknown>
     a9c: 67 32 66 00  	<unknown>
     aa0: 6c 6f        	<unknown>
     aa2: 67 32 00 5f  	<unknown>
     aa6: 5a 4c        	<unknown>
     aa8: 34 6c        	<unknown>
     aaa: 6f 67 62 66  	jal	a4, 0x27110 <.debug_info+0x27110>
     aae: 00 5f        	<unknown>
     ab0: 5a 4c        	<unknown>
     ab2: 35 6c        	<unknown>
     ab4: 72 69        	<unknown>
     ab6: 6e 74        	<unknown>
     ab8: 66 00        	<unknown>
     aba: 5f 5a 4c 36  	<unknown>
     abe: 6c 72        	<unknown>
     ac0: 6f 75 6e 64  	jal	a0, 0xe8106 <.debug_info+0xe8106>
     ac4: 66 00        	<unknown>
     ac6: 5f 5a 4c 37  	<unknown>
     aca: 6c 6c        	<unknown>
     acc: 72 6f        	<unknown>
     ace: 75 6e        	<unknown>
     ad0: 64 66        	<unknown>
     ad2: 00 6c        	<unknown>
     ad4: 6c 72        	<unknown>
     ad6: 6f 75 6e 64  	jal	a0, 0xe811c <.debug_info+0xe811c>
     ada: 00 5f        	<unknown>
     adc: 5a 4c        	<unknown>
     ade: 34 6d        	<unknown>
     ae0: 6f 64 66 66  	jal	s0, 0x67146 <.debug_info+0x67146>
     ae4: 50 66        	<unknown>
     ae6: 00 5f        	<unknown>
     ae8: 5a 4c        	<unknown>
     aea: 33 6e 61 6e  	<unknown>
     aee: 50 4b        	<unknown>
     af0: 63 00 5f 5a  	beq	t5, t0, 0x1090 <.debug_info+0x1090>
     af4: 4c 34        	<unknown>
     af6: 6e 61        	<unknown>
     af8: 6e 66        	<unknown>
     afa: 50 4b        	<unknown>
     afc: 63 00 5f 5a  	beq	t5, t0, 0x109c <.debug_info+0x109c>
     b00: 4c 39        	<unknown>
     b02: 6e 65        	<unknown>
     b04: 61 72        	<unknown>
     b06: 62 79        	<unknown>
     b08: 69 6e        	<unknown>
     b0a: 74 66        	<unknown>
     b0c: 00 6e        	<unknown>
     b0e: 65 61        	<unknown>
     b10: 72 62        	<unknown>
     b12: 79 69        	<unknown>
     b14: 6e 74        	<unknown>
     b16: 00 5f        	<unknown>
     b18: 5a 4c        	<unknown>
     b1a: 39 6e        	<unknown>
     b1c: 65 78        	<unknown>
     b1e: 74 61        	<unknown>
     b20: 66 74        	<unknown>
     b22: 65 72        	<unknown>
     b24: 66 66        	<unknown>
     b26: 00 6e        	<unknown>
     b28: 65 78        	<unknown>
     b2a: 74 61        	<unknown>
     b2c: 66 74        	<unknown>
     b2e: 65 72        	<unknown>
     b30: 00 5f        	<unknown>
     b32: 5a 4c        	<unknown>
     b34: 33 70 6f 77  	<unknown>
     b38: 66 69        	<unknown>
     b3a: 00 70        	<unknown>
     b3c: 6f 77 00 5f  	jal	a4, 0x812c <.debug_info+0x812c>
     b40: 5a 4c        	<unknown>
     b42: 39 72        	<unknown>
     b44: 65 6d        	<unknown>
     b46: 61 69        	<unknown>
     b48: 6e 64        	<unknown>
     b4a: 65 72        	<unknown>
     b4c: 66 66        	<unknown>
     b4e: 00 72        	<unknown>
     b50: 65 6d        	<unknown>
     b52: 61 69        	<unknown>
     b54: 6e 64        	<unknown>
     b56: 65 72        	<unknown>
     b58: 00 5f        	<unknown>
     b5a: 5a 4c        	<unknown>
     b5c: 36 72        	<unknown>
     b5e: 65 6d        	<unknown>
     b60: 71 75        	<unknown>
     b62: 6f 66 66 50  	jal	a2, 0x67068 <.debug_info+0x67068>
     b66: 69 00        	<unknown>
     b68: 72 65        	<unknown>
     b6a: 6d 71        	<unknown>
     b6c: 75 6f        	<unknown>
     b6e: 00 5f        	<unknown>
     b70: 5a 4c        	<unknown>
     b72: 34 72        	<unknown>
     b74: 69 6e        	<unknown>
     b76: 74 66        	<unknown>
     b78: 00 5f        	<unknown>
     b7a: 5a 4c        	<unknown>
     b7c: 35 72        	<unknown>
     b7e: 6f 75 6e 64  	jal	a0, 0xe81c4 <.debug_info+0xe81c4>
     b82: 66 00        	<unknown>
     b84: 5f 5a 4c 37  	<unknown>
     b88: 73 63 61 6c  	csrrsi	t1, 0x6c6, 0x2
     b8c: 62 6c        	<unknown>
     b8e: 6e 66        	<unknown>
     b90: 6c 00        	<unknown>
     b92: 73 63 61 6c  	csrrsi	t1, 0x6c6, 0x2
     b96: 62 6c        	<unknown>
     b98: 6e 00        	<unknown>
     b9a: 5f 5a 4c 36  	<unknown>
     b9e: 73 63 61 6c  	csrrsi	t1, 0x6c6, 0x2
     ba2: 62 6e        	<unknown>
     ba4: 66 69        	<unknown>
     ba6: 00 73        	<unknown>
     ba8: 63 61 6c 62  	bltu	s8, t1, 0x11ca <.debug_info+0x11ca>
     bac: 6e 00        	<unknown>
     bae: 5f 5a 4c 37  	<unknown>
     bb2: 73 69 67 6e  	csrrsi	s2, 0x6e6, 0xe
     bb6: 62 69        	<unknown>
     bb8: 74 66        	<unknown>
     bba: 00 73        	<unknown>
     bbc: 69 67        	<unknown>
     bbe: 6e 62        	<unknown>
     bc0: 69 74        	<unknown>
     bc2: 00 5f        	<unknown>
     bc4: 5a 4c        	<unknown>
     bc6: 33 73 69 6e  	<unknown>
     bca: 66 00        	<unknown>
     bcc: 5f 5a 4c 34  	<unknown>
     bd0: 73 69 6e 68  	csrrsi	s2, 0x686, 0x1c
     bd4: 66 00        	<unknown>
     bd6: 5f 5a 4c 34  	<unknown>
     bda: 73 71 72 74  	csrrci	sp, mseccfg, 0x4
     bde: 66 00        	<unknown>
     be0: 73 71 72 74  	csrrci	sp, mseccfg, 0x4
     be4: 00 5f        	<unknown>
     be6: 5a 4c        	<unknown>
     be8: 33 74 61 6e  	<unknown>
     bec: 66 00        	<unknown>
     bee: 5f 5a 4c 34  	<unknown>
     bf2: 74 61        	<unknown>
     bf4: 6e 68        	<unknown>
     bf6: 66 00        	<unknown>
     bf8: 5f 5a 4c 36  	<unknown>
     bfc: 74 67        	<unknown>
     bfe: 61 6d        	<unknown>
     c00: 6d 61        	<unknown>
     c02: 66 00        	<unknown>
     c04: 74 67        	<unknown>
     c06: 61 6d        	<unknown>
     c08: 6d 61        	<unknown>
     c0a: 00 5f        	<unknown>
     c0c: 5a 4c        	<unknown>
     c0e: 35 74        	<unknown>
     c10: 72 75        	<unknown>
     c12: 6e 63        	<unknown>
     c14: 66 00        	<unknown>
     c16: 74 72        	<unknown>
     c18: 75 6e        	<unknown>
     c1a: 63 00 64 6f  	beq	s0, s6, 0x12fa <.debug_info+0x12fa>
     c1e: 75 62        	<unknown>
     c20: 6c 65        	<unknown>
     c22: 5f 74 00 66  	<unknown>
     c26: 6c 6f        	<unknown>
     c28: 61 74        	<unknown>
     c2a: 5f 74 00 61  	<unknown>
     c2e: 63 6f 73 68  	bltu	t1, t2, 0x12cc <.debug_info+0x12cc>
     c32: 6c 00        	<unknown>
     c34: 6c 6f        	<unknown>
     c36: 6e 67        	<unknown>
     c38: 20 64        	<unknown>
     c3a: 6f 75 62 6c  	jal	a0, 0x28300 <.debug_info+0x28300>
     c3e: 65 00        	<unknown>
     c40: 61 73        	<unknown>
     c42: 69 6e        	<unknown>
     c44: 68 6c        	<unknown>
     c46: 00 61        	<unknown>
     c48: 74 61        	<unknown>
     c4a: 6e 68        	<unknown>
     c4c: 6c 00        	<unknown>
     c4e: 63 62 72 74  	bltu	tp, t2, 0x1392 <.debug_info+0x1392>
     c52: 6c 00        	<unknown>
     c54: 63 6f 70 79  	bltu	zero, s7, 0x13f2 <.debug_info+0x13f2>
     c58: 73 69 67 6e  	csrrsi	s2, 0x6e6, 0xe
     c5c: 66 00        	<unknown>
     c5e: 63 6f 70 79  	bltu	zero, s7, 0x13fc <.debug_info+0x13fc>
     c62: 73 69 67 6e  	csrrsi	s2, 0x6e6, 0xe
     c66: 6c 00        	<unknown>
     c68: 65 72        	<unknown>
     c6a: 66 6c        	<unknown>
     c6c: 00 65        	<unknown>
     c6e: 72 66        	<unknown>
     c70: 63 6c 00 65  	bltu	zero, a6, 0x12c8 <.debug_info+0x12c8>
     c74: 78 70        	<unknown>
     c76: 32 6c        	<unknown>
     c78: 00 65        	<unknown>
     c7a: 78 70        	<unknown>
     c7c: 6d 31        	<unknown>
     c7e: 6c 00        	<unknown>
     c80: 66 64        	<unknown>
     c82: 69 6d        	<unknown>
     c84: 66 00        	<unknown>
     c86: 66 64        	<unknown>
     c88: 69 6d        	<unknown>
     c8a: 6c 00        	<unknown>
     c8c: 66 6d        	<unknown>
     c8e: 61 66        	<unknown>
     c90: 00 66        	<unknown>
     c92: 6d 61        	<unknown>
     c94: 6c 00        	<unknown>
     c96: 66 6d        	<unknown>
     c98: 61 78        	<unknown>
     c9a: 66 00        	<unknown>
     c9c: 66 6d        	<unknown>
     c9e: 61 78        	<unknown>
     ca0: 6c 00        	<unknown>
     ca2: 66 6d        	<unknown>
     ca4: 69 6e        	<unknown>
     ca6: 66 00        	<unknown>
     ca8: 66 6d        	<unknown>
     caa: 69 6e        	<unknown>
     cac: 6c 00        	<unknown>
     cae: 68 79        	<unknown>
     cb0: 70 6f        	<unknown>
     cb2: 74 66        	<unknown>
     cb4: 00 68        	<unknown>
     cb6: 79 70        	<unknown>
     cb8: 6f 74 6c 00  	jal	s0, 0xc7cbe <.debug_info+0xc7cbe>
     cbc: 69 6c        	<unknown>
     cbe: 6f 67 62 6c  	jal	a4, 0x27384 <.debug_info+0x27384>
     cc2: 00 6c        	<unknown>
     cc4: 67 61 6d 6d  	<unknown>
     cc8: 61 6c        	<unknown>
     cca: 00 6c        	<unknown>
     ccc: 6c 72        	<unknown>
     cce: 69 6e        	<unknown>
     cd0: 74 6c        	<unknown>
     cd2: 00 6c        	<unknown>
     cd4: 6c 72        	<unknown>
     cd6: 6f 75 6e 64  	jal	a0, 0xe831c <.debug_info+0xe831c>
     cda: 6c 00        	<unknown>
     cdc: 6c 6f        	<unknown>
     cde: 67 31 70 6c  	<unknown>
     ce2: 00 6c        	<unknown>
     ce4: 6f 67 32 6c  	jal	a4, 0x27ba6 <.debug_info+0x27ba6>
     ce8: 00 6e        	<unknown>
     cea: 61 6e        	<unknown>
     cec: 6c 00        	<unknown>
     cee: 6e 65        	<unknown>
     cf0: 61 72        	<unknown>
     cf2: 62 79        	<unknown>
     cf4: 69 6e        	<unknown>
     cf6: 74 6c        	<unknown>
     cf8: 00 6e        	<unknown>
     cfa: 65 78        	<unknown>
     cfc: 74 61        	<unknown>
     cfe: 66 74        	<unknown>
     d00: 65 72        	<unknown>
     d02: 66 00        	<unknown>
     d04: 6e 65        	<unknown>
     d06: 78 74        	<unknown>
     d08: 61 66        	<unknown>
     d0a: 74 65        	<unknown>
     d0c: 72 6c        	<unknown>
     d0e: 00 6e        	<unknown>
     d10: 65 78        	<unknown>
     d12: 74 74        	<unknown>
     d14: 6f 77 61 72  	jal	a4, 0x1843a <.debug_info+0x1843a>
     d18: 64 00        	<unknown>
     d1a: 6e 65        	<unknown>
     d1c: 78 74        	<unknown>
     d1e: 74 6f        	<unknown>
     d20: 77 61 72 64  	<unknown>
     d24: 66 00        	<unknown>
     d26: 6e 65        	<unknown>
     d28: 78 74        	<unknown>
     d2a: 74 6f        	<unknown>
     d2c: 77 61 72 64  	<unknown>
     d30: 6c 00        	<unknown>
     d32: 72 65        	<unknown>
     d34: 6d 61        	<unknown>
     d36: 69 6e        	<unknown>
     d38: 64 65        	<unknown>
     d3a: 72 66        	<unknown>
     d3c: 00 72        	<unknown>
     d3e: 65 6d        	<unknown>
     d40: 61 69        	<unknown>
     d42: 6e 64        	<unknown>
     d44: 65 72        	<unknown>
     d46: 6c 00        	<unknown>
     d48: 72 65        	<unknown>
     d4a: 6d 71        	<unknown>
     d4c: 75 6f        	<unknown>
     d4e: 66 00        	<unknown>
     d50: 72 65        	<unknown>
     d52: 6d 71        	<unknown>
     d54: 75 6f        	<unknown>
     d56: 6c 00        	<unknown>
     d58: 73 63 61 6c  	csrrsi	t1, 0x6c6, 0x2
     d5c: 62 6c        	<unknown>
     d5e: 6e 66        	<unknown>
     d60: 00 73        	<unknown>
     d62: 63 61 6c 62  	bltu	s8, t1, 0x1384 <.debug_info+0x1384>
     d66: 6c 6e        	<unknown>
     d68: 6c 00        	<unknown>
     d6a: 73 63 61 6c  	csrrsi	t1, 0x6c6, 0x2
     d6e: 62 6e        	<unknown>
     d70: 66 00        	<unknown>
     d72: 73 63 61 6c  	csrrsi	t1, 0x6c6, 0x2
     d76: 62 6e        	<unknown>
     d78: 6c 00        	<unknown>
     d7a: 74 67        	<unknown>
     d7c: 61 6d        	<unknown>
     d7e: 6d 61        	<unknown>
     d80: 6c 00        	<unknown>
     d82: 74 72        	<unknown>
     d84: 75 6e        	<unknown>
     d86: 63 6c 00 71  	bltu	zero, a6, 0x149e <.debug_info+0x149e>
     d8a: 75 6f        	<unknown>
     d8c: 74 00        	<unknown>
     d8e: 72 65        	<unknown>
     d90: 6d 00        	<unknown>
     d92: 61 62        	<unknown>
     d94: 6f 72 74 00  	jal	tp, 0x4859a <.debug_info+0x4859a>
     d98: 61 74        	<unknown>
     d9a: 65 78        	<unknown>
     d9c: 69 74        	<unknown>
     d9e: 00 61        	<unknown>
     da0: 74 5f        	<unknown>
     da2: 71 75        	<unknown>
     da4: 69 63        	<unknown>
     da6: 6b 5f 65 78  	<unknown>
     daa: 69 74        	<unknown>
     dac: 00 61        	<unknown>
     dae: 74 6f        	<unknown>
     db0: 66 00        	<unknown>
     db2: 61 74        	<unknown>
     db4: 6f 69 00 61  	jal	s2, 0x73c4 <.debug_info+0x73c4>
     db8: 74 6f        	<unknown>
     dba: 6c 00        	<unknown>
     dbc: 62 73        	<unknown>
     dbe: 65 61        	<unknown>
     dc0: 72 63        	<unknown>
     dc2: 68 00        	<unknown>
     dc4: 75 6e        	<unknown>
     dc6: 73 69 67 6e  	csrrsi	s2, 0x6e6, 0xe
     dca: 65 64        	<unknown>
     dcc: 20 6c        	<unknown>
     dce: 6f 6e 67 00  	jal	t3, 0x76dd4 <.debug_info+0x76dd4>
     dd2: 73 69 7a 65  	csrrsi	s2, 0x657, 0x14
     dd6: 5f 74 00 5f  	<unknown>
     dda: 5f 63 6f 6d  	<unknown>
     dde: 70 61        	<unknown>
     de0: 72 5f        	<unknown>
     de2: 66 6e        	<unknown>
     de4: 5f 74 00 63  	<unknown>
     de8: 61 6c        	<unknown>
     dea: 6c 6f        	<unknown>
     dec: 63 00 66 72  	beq	a2, t1, 0x150c <.debug_info+0x150c>
     df0: 65 65        	<unknown>
     df2: 00 67        	<unknown>
     df4: 65 74        	<unknown>
     df6: 65 6e        	<unknown>
     df8: 76 00        	<unknown>
     dfa: 6d 61        	<unknown>
     dfc: 6c 6c        	<unknown>
     dfe: 6f 63 00 6d  	jal	t1, 0x74ce <.debug_info+0x74ce>
     e02: 62 6c        	<unknown>
     e04: 65 6e        	<unknown>
     e06: 00 6d        	<unknown>
     e08: 62 73        	<unknown>
     e0a: 74 6f        	<unknown>
     e0c: 77 63 73 00  	<unknown>
     e10: 77 63 68 61  	<unknown>
     e14: 72 5f        	<unknown>
     e16: 74 00        	<unknown>
     e18: 6d 62        	<unknown>
     e1a: 74 6f        	<unknown>
     e1c: 77 63 00 71  	<unknown>
     e20: 73 6f 72 74  	csrrsi	t5, mseccfg, 0x4
     e24: 00 72        	<unknown>
     e26: 65 61        	<unknown>
     e28: 6c 6c        	<unknown>
     e2a: 6f 63 00 73  	jal	t1, 0x755a <.debug_info+0x755a>
     e2e: 72 61        	<unknown>
     e30: 6e 64        	<unknown>
     e32: 00 73        	<unknown>
     e34: 74 72        	<unknown>
     e36: 74 6f        	<unknown>
     e38: 64 00        	<unknown>
     e3a: 73 74 72 74  	csrrci	s0, mseccfg, 0x4
     e3e: 6f 6c 00 73  	jal	s8, 0x756e <.debug_info+0x756e>
     e42: 74 72        	<unknown>
     e44: 74 6f        	<unknown>
     e46: 75 6c        	<unknown>
     e48: 00 73        	<unknown>
     e4a: 79 73        	<unknown>
     e4c: 74 65        	<unknown>
     e4e: 6d 00        	<unknown>
     e50: 77 63 73 74  	<unknown>
     e54: 6f 6d 62 73  	jal	s10, 0x2758a <.debug_info+0x2758a>
     e58: 00 77        	<unknown>
     e5a: 63 74 6f 6d  	bgeu	t5, s6, 0x1522 <.debug_info+0x1522>
     e5e: 62 00        	<unknown>
     e60: 5f 5f 67 6e  	<unknown>
     e64: 75 5f        	<unknown>
     e66: 63 78 78 00  	bgeu	a6, t2, 0xe76 <.debug_info+0xe76>
     e6a: 6c 6c        	<unknown>
     e6c: 64 69        	<unknown>
     e6e: 76 5f        	<unknown>
     e70: 74 00        	<unknown>
     e72: 5f 45 78 69  	<unknown>
     e76: 74 00        	<unknown>
     e78: 6c 6c        	<unknown>
     e7a: 64 69        	<unknown>
     e7c: 76 00        	<unknown>
     e7e: 61 74        	<unknown>
     e80: 6f 6c 6c 00  	jal	s8, 0xc6e86 <.debug_info+0xc6e86>
     e84: 73 74 72 74  	csrrci	s0, mseccfg, 0x4
     e88: 6f 6c 6c 00  	jal	s8, 0xc6e8e <.debug_info+0xc6e8e>
     e8c: 73 74 72 74  	csrrci	s0, mseccfg, 0x4
     e90: 6f 75 6c 6c  	jal	a0, 0xc8556 <.debug_info+0xc8556>
     e94: 00 73        	<unknown>
     e96: 74 72        	<unknown>
     e98: 74 6f        	<unknown>
     e9a: 66 00        	<unknown>
     e9c: 73 74 72 74  	csrrci	s0, mseccfg, 0x4
     ea0: 6f 6c 64 00  	jal	s8, 0x46ea6 <.debug_info+0x46ea6>
     ea4: 5f 5a 4e 39  	<unknown>
     ea8: 5f 5f 67 6e  	<unknown>
     eac: 75 5f        	<unknown>
     eae: 63 78 78 33  	bgeu	a6, s7, 0x11de <.debug_info+0x11de>
     eb2: 64 69        	<unknown>
     eb4: 76 45        	<unknown>
     eb6: 78 78        	<unknown>
     eb8: 00 5f        	<unknown>
     eba: 5a 53        	<unknown>
     ebc: 74 33        	<unknown>
     ebe: 61 62        	<unknown>
     ec0: 73 65 00 5f  	csrrsi	a0, 0x5f0, 0x0
     ec4: 5a 4c        	<unknown>
     ec6: 35 61        	<unknown>
     ec8: 63 6f 73 66  	bltu	t1, t2, 0x1546 <.debug_info+0x1546>
     ecc: 66 00        	<unknown>
     ece: 5f 5a 4c 36  	<unknown>
     ed2: 61 63        	<unknown>
     ed4: 6f 73 68 66  	jal	t1, 0x8853a <.debug_info+0x8853a>
     ed8: 66 00        	<unknown>
     eda: 5f 5a 4c 35  	<unknown>
     ede: 61 73        	<unknown>
     ee0: 69 6e        	<unknown>
     ee2: 66 66        	<unknown>
     ee4: 00 5f        	<unknown>
     ee6: 5a 4c        	<unknown>
     ee8: 36 61        	<unknown>
     eea: 73 69 6e 68  	csrrsi	s2, 0x686, 0x1c
     eee: 66 66        	<unknown>
     ef0: 00 5f        	<unknown>
     ef2: 5a 4c        	<unknown>
     ef4: 36 61        	<unknown>
     ef6: 74 61        	<unknown>
     ef8: 6e 32        	<unknown>
     efa: 66 66        	<unknown>
     efc: 66 00        	<unknown>
     efe: 61 74        	<unknown>
     f00: 61 6e        	<unknown>
     f02: 32 66        	<unknown>
     f04: 00 5f        	<unknown>
     f06: 5a 4c        	<unknown>
     f08: 35 61        	<unknown>
     f0a: 74 61        	<unknown>
     f0c: 6e 66        	<unknown>
     f0e: 66 00        	<unknown>
     f10: 5f 5a 4c 36  	<unknown>
     f14: 61 74        	<unknown>
     f16: 61 6e        	<unknown>
     f18: 68 66        	<unknown>
     f1a: 66 00        	<unknown>
     f1c: 5f 5a 4c 35  	<unknown>
     f20: 63 62 72 74  	bltu	tp, t2, 0x1664 <.debug_info+0x1664>
     f24: 66 66        	<unknown>
     f26: 00 5f        	<unknown>
     f28: 5a 4c        	<unknown>
     f2a: 35 63        	<unknown>
     f2c: 65 69        	<unknown>
     f2e: 6c 66        	<unknown>
     f30: 66 00        	<unknown>
     f32: 5f 5a 4c 39  	<unknown>
     f36: 63 6f 70 79  	bltu	zero, s7, 0x16d4 <.debug_info+0x16d4>
     f3a: 73 69 67 6e  	csrrsi	s2, 0x6e6, 0xe
     f3e: 66 66        	<unknown>
     f40: 66 00        	<unknown>
     f42: 5f 5a 4c 34  	<unknown>
     f46: 63 6f 73 66  	bltu	t1, t2, 0x15c4 <.debug_info+0x15c4>
     f4a: 66 00        	<unknown>
     f4c: 5f 5a 4c 35  	<unknown>
     f50: 63 6f 73 68  	bltu	t1, t2, 0x15ee <.debug_info+0x15ee>
     f54: 66 66        	<unknown>
     f56: 00 5f        	<unknown>
     f58: 5a 4c        	<unknown>
     f5a: 35 65        	<unknown>
     f5c: 72 66        	<unknown>
     f5e: 63 66 66 00  	bltu	a2, t1, 0xf6a <.debug_info+0xf6a>
     f62: 5f 5a 4c 34  	<unknown>
     f66: 65 72        	<unknown>
     f68: 66 66        	<unknown>
     f6a: 66 00        	<unknown>
     f6c: 5f 5a 4c 35  	<unknown>
     f70: 65 78        	<unknown>
     f72: 70 32        	<unknown>
     f74: 66 66        	<unknown>
     f76: 00 5f        	<unknown>
     f78: 5a 4c        	<unknown>
     f7a: 34 65        	<unknown>
     f7c: 78 70        	<unknown>
     f7e: 66 66        	<unknown>
     f80: 00 5f        	<unknown>
     f82: 5a 4c        	<unknown>
     f84: 36 65        	<unknown>
     f86: 78 70        	<unknown>
     f88: 6d 31        	<unknown>
     f8a: 66 66        	<unknown>
     f8c: 00 5f        	<unknown>
     f8e: 5a 4c        	<unknown>
     f90: 35 66        	<unknown>
     f92: 61 62        	<unknown>
     f94: 73 66 66 00  	csrrsi	a2, 0x6, 0xc
     f98: 5f 5a 4c 35  	<unknown>
     f9c: 66 64        	<unknown>
     f9e: 69 6d        	<unknown>
     fa0: 66 66        	<unknown>
     fa2: 66 00        	<unknown>
     fa4: 5f 5a 4c 36  	<unknown>
     fa8: 66 6c        	<unknown>
     faa: 6f 6f 72 66  	jal	t5, 0x27e10 <.debug_info+0x27e10>
     fae: 66 00        	<unknown>
     fb0: 5f 5a 4c 34  	<unknown>
     fb4: 66 6d        	<unknown>
     fb6: 61 66        	<unknown>
     fb8: 66 66        	<unknown>
     fba: 66 00        	<unknown>
     fbc: 5f 5a 4c 35  	<unknown>
     fc0: 66 6d        	<unknown>
     fc2: 61 78        	<unknown>
     fc4: 66 66        	<unknown>
     fc6: 66 00        	<unknown>
     fc8: 5f 5a 4c 35  	<unknown>
     fcc: 66 6d        	<unknown>
     fce: 69 6e        	<unknown>
     fd0: 66 66        	<unknown>
     fd2: 66 00        	<unknown>
     fd4: 5f 5a 4c 35  	<unknown>
     fd8: 66 6d        	<unknown>
     fda: 6f 64 66 66  	jal	s0, 0x67640 <.debug_info+0x67640>
     fde: 66 00        	<unknown>
     fe0: 66 6d        	<unknown>
     fe2: 6f 64 66 00  	jal	s0, 0x66fe8 <.debug_info+0x66fe8>
     fe6: 5f 5a 4c 36  	<unknown>
     fea: 66 72        	<unknown>
     fec: 65 78        	<unknown>
     fee: 70 66        	<unknown>
     ff0: 66 50        	<unknown>
     ff2: 69 00        	<unknown>
     ff4: 66 72        	<unknown>
     ff6: 65 78        	<unknown>
     ff8: 70 66        	<unknown>
     ffa: 00 5f        	<unknown>
     ffc: 5a 4c        	<unknown>
     ffe: 36 68        	<unknown>
    1000: 79 70        	<unknown>
    1002: 6f 74 66 66  	jal	s0, 0x68668 <.debug_info+0x68668>
    1006: 66 00        	<unknown>
    1008: 5f 5a 4c 36  	<unknown>
    100c: 69 6c        	<unknown>
    100e: 6f 67 62 66  	jal	a4, 0x27674 <.debug_info+0x27674>
    1012: 66 00        	<unknown>
    1014: 5f 5a 4c 36  	<unknown>
    1018: 6c 64        	<unknown>
    101a: 65 78        	<unknown>
    101c: 70 66        	<unknown>
    101e: 66 69        	<unknown>
    1020: 00 6c        	<unknown>
    1022: 64 65        	<unknown>
    1024: 78 70        	<unknown>
    1026: 66 00        	<unknown>
    1028: 5f 5a 4c 37  	<unknown>
    102c: 6c 67        	<unknown>
    102e: 61 6d        	<unknown>
    1030: 6d 61        	<unknown>
    1032: 66 66        	<unknown>
    1034: 00 5f        	<unknown>
    1036: 5a 4c        	<unknown>
    1038: 37 6c 6c 72  	lui	s8, 0x726c6
    103c: 69 6e        	<unknown>
    103e: 74 66        	<unknown>
    1040: 66 00        	<unknown>
    1042: 5f 5a 4c 38  	<unknown>
    1046: 6c 6c        	<unknown>
    1048: 72 6f        	<unknown>
    104a: 75 6e        	<unknown>
    104c: 64 66        	<unknown>
    104e: 66 00        	<unknown>
    1050: 5f 5a 4c 36  	<unknown>
    1054: 6c 6f        	<unknown>
    1056: 67 31 30 66  	<unknown>
    105a: 66 00        	<unknown>
    105c: 5f 5a 4c 36  	<unknown>
    1060: 6c 6f        	<unknown>
    1062: 67 31 70 66  	<unknown>
    1066: 66 00        	<unknown>
    1068: 5f 5a 4c 35  	<unknown>
    106c: 6c 6f        	<unknown>
    106e: 67 32 66 66  	<unknown>
    1072: 00 5f        	<unknown>
    1074: 5a 4c        	<unknown>
    1076: 35 6c        	<unknown>
    1078: 6f 67 62 66  	jal	a4, 0x276de <.debug_info+0x276de>
    107c: 66 00        	<unknown>
    107e: 5f 5a 4c 34  	<unknown>
    1082: 6c 6f        	<unknown>
    1084: 67 66 66 00  	<unknown>
    1088: 5f 5a 4c 36  	<unknown>
    108c: 6c 72        	<unknown>
    108e: 69 6e        	<unknown>
    1090: 74 66        	<unknown>
    1092: 66 00        	<unknown>
    1094: 5f 5a 4c 37  	<unknown>
    1098: 6c 72        	<unknown>
    109a: 6f 75 6e 64  	jal	a0, 0xe86e0 <.debug_info+0xe86e0>
    109e: 66 66        	<unknown>
    10a0: 00 5f        	<unknown>
    10a2: 5a 4c        	<unknown>
    10a4: 35 6d        	<unknown>
    10a6: 6f 64 66 66  	jal	s0, 0x6770c <.debug_info+0x6770c>
    10aa: 66 50        	<unknown>
    10ac: 66 00        	<unknown>
    10ae: 5f 5a 4c 31  	<unknown>
    10b2: 30 6e        	<unknown>
    10b4: 65 61        	<unknown>
    10b6: 72 62        	<unknown>
    10b8: 79 69        	<unknown>
    10ba: 6e 74        	<unknown>
    10bc: 66 66        	<unknown>
    10be: 00 5f        	<unknown>
    10c0: 5a 4c        	<unknown>
    10c2: 31 30        	<unknown>
    10c4: 6e 65        	<unknown>
    10c6: 78 74        	<unknown>
    10c8: 61 66        	<unknown>
    10ca: 74 65        	<unknown>
    10cc: 72 66        	<unknown>
    10ce: 66 66        	<unknown>
    10d0: 00 5f        	<unknown>
    10d2: 5a 4c        	<unknown>
    10d4: 34 70        	<unknown>
    10d6: 6f 77 66 66  	jal	a4, 0x6873c <.debug_info+0x6873c>
    10da: 66 00        	<unknown>
    10dc: 70 6f        	<unknown>
    10de: 77 66 00 5f  	<unknown>
    10e2: 5a 4c        	<unknown>
    10e4: 31 30        	<unknown>
    10e6: 72 65        	<unknown>
    10e8: 6d 61        	<unknown>
    10ea: 69 6e        	<unknown>
    10ec: 64 65        	<unknown>
    10ee: 72 66        	<unknown>
    10f0: 66 66        	<unknown>
    10f2: 00 5f        	<unknown>
    10f4: 5a 4c        	<unknown>
    10f6: 37 72 65 6d  	lui	tp, 0x6d657
    10fa: 71 75        	<unknown>
    10fc: 6f 66 66 66  	jal	a2, 0x67762 <.debug_info+0x67762>
    1100: 50 69        	<unknown>
    1102: 00 5f        	<unknown>
    1104: 5a 4c        	<unknown>
    1106: 35 72        	<unknown>
    1108: 69 6e        	<unknown>
    110a: 74 66        	<unknown>
    110c: 66 00        	<unknown>
    110e: 5f 5a 4c 36  	<unknown>
    1112: 72 6f        	<unknown>
    1114: 75 6e        	<unknown>
    1116: 64 66        	<unknown>
    1118: 66 00        	<unknown>
    111a: 5f 5a 4c 38  	<unknown>
    111e: 73 63 61 6c  	csrrsi	t1, 0x6c6, 0x2
    1122: 62 6c        	<unknown>
    1124: 6e 66        	<unknown>
    1126: 66 6c        	<unknown>
    1128: 00 5f        	<unknown>
    112a: 5a 4c        	<unknown>
    112c: 37 73 63 61  	lui	t1, 0x61637
    1130: 6c 62        	<unknown>
    1132: 6e 66        	<unknown>
    1134: 66 69        	<unknown>
    1136: 00 5f        	<unknown>
    1138: 5a 4c        	<unknown>
    113a: 34 73        	<unknown>
    113c: 69 6e        	<unknown>
    113e: 66 66        	<unknown>
    1140: 00 5f        	<unknown>
    1142: 5a 4c        	<unknown>
    1144: 35 73        	<unknown>
    1146: 69 6e        	<unknown>
    1148: 68 66        	<unknown>
    114a: 66 00        	<unknown>
    114c: 5f 5a 4c 35  	<unknown>
    1150: 73 71 72 74  	csrrci	sp, mseccfg, 0x4
    1154: 66 66        	<unknown>
    1156: 00 5f        	<unknown>
    1158: 5a 4c        	<unknown>
    115a: 34 74        	<unknown>
    115c: 61 6e        	<unknown>
    115e: 66 66        	<unknown>
    1160: 00 5f        	<unknown>
    1162: 5a 4c        	<unknown>
    1164: 35 74        	<unknown>
    1166: 61 6e        	<unknown>
    1168: 68 66        	<unknown>
    116a: 66 00        	<unknown>
    116c: 5f 5a 4c 37  	<unknown>
    1170: 74 67        	<unknown>
    1172: 61 6d        	<unknown>
    1174: 6d 61        	<unknown>
    1176: 66 66        	<unknown>
    1178: 00 5f        	<unknown>
    117a: 5a 4c        	<unknown>
    117c: 36 74        	<unknown>
    117e: 72 75        	<unknown>
    1180: 6e 63        	<unknown>
    1182: 66 66        	<unknown>
    1184: 00 5f        	<unknown>
    1186: 5a 4e        	<unknown>
    1188: 32 6e        	<unknown>
    118a: 76 36        	<unknown>
    118c: 74 61        	<unknown>
    118e: 72 67        	<unknown>
    1190: 65 74        	<unknown>
    1192: 36 64        	<unknown>
    1194: 65 74        	<unknown>
    1196: 61 69        	<unknown>
    1198: 6c 31        	<unknown>
    119a: 30 69        	<unknown>
    119c: 73 5f 65 78  	csrrwi	t5, 0x786, 0xa
    11a0: 61 63        	<unknown>
    11a2: 74 6c        	<unknown>
    11a4: 79 45        	<unknown>
    11a6: 4e 53        	<unknown>
    11a8: 31 5f        	<unknown>
    11aa: 31 31        	<unknown>
    11ac: 73 6d 5f 73  	csrrsi	s10, 0x735, 0x1e
    11b0: 65 6c        	<unknown>
    11b2: 65 63        	<unknown>
    11b4: 74 6f        	<unknown>
    11b6: 72 45        	<unknown>
    11b8: 00 69        	<unknown>
    11ba: 73 5f 65 78  	csrrwi	t5, 0x786, 0xa
    11be: 61 63        	<unknown>
    11c0: 74 6c        	<unknown>
    11c2: 79 00        	<unknown>
    11c4: 5f 5a 4e 32  	<unknown>
    11c8: 6e 76        	<unknown>
    11ca: 36 74        	<unknown>
    11cc: 61 72        	<unknown>
    11ce: 67 65 74 36  	<unknown>
    11d2: 64 65        	<unknown>
    11d4: 74 61        	<unknown>
    11d6: 69 6c        	<unknown>
    11d8: 38 70        	<unknown>
    11da: 72 6f        	<unknown>
    11dc: 76 69        	<unknown>
    11de: 64 65        	<unknown>
    11e0: 73 45 4e 53  	<unknown>
    11e4: 31 5f        	<unknown>
    11e6: 31 31        	<unknown>
    11e8: 73 6d 5f 73  	csrrsi	s10, 0x735, 0x1e
    11ec: 65 6c        	<unknown>
    11ee: 65 63        	<unknown>
    11f0: 74 6f        	<unknown>
    11f2: 72 45        	<unknown>
    11f4: 00 70        	<unknown>
    11f6: 72 6f        	<unknown>
    11f8: 76 69        	<unknown>
    11fa: 64 65        	<unknown>
    11fc: 73 00 5f 5f  	<unknown>
    1200: 63 6f 75 6e  	bltu	a0, t2, 0x18fe <.debug_info+0x18fe>
    1204: 74 00        	<unknown>
    1206: 5f 5f 76 61  	<unknown>
    120a: 6c 75        	<unknown>
    120c: 65 00        	<unknown>
    120e: 5f 5f 77 63  	<unknown>
    1212: 68 00        	<unknown>
    1214: 5f 5f 77 63  	<unknown>
    1218: 68 62        	<unknown>
    121a: 00 5f        	<unknown>
    121c: 5f 41 52 52  	<unknown>
    1220: 41 59        	<unknown>
    1222: 5f 53 49 5a  	<unknown>
    1226: 45 5f        	<unknown>
    1228: 54 59        	<unknown>
    122a: 50 45        	<unknown>
    122c: 5f 5f 00 5f  	<unknown>
    1230: 5f 6d 62 73  	<unknown>
    1234: 74 61        	<unknown>
    1236: 74 65        	<unknown>
    1238: 5f 74 00 77  	<unknown>
    123c: 69 6e        	<unknown>
    123e: 74 5f        	<unknown>
    1240: 74 00        	<unknown>
    1242: 66 67        	<unknown>
    1244: 65 74        	<unknown>
    1246: 77 63 00 5f  	<unknown>
    124a: 49 4f        	<unknown>
    124c: 5f 46 49 4c  	<unknown>
    1250: 45 00        	<unknown>
    1252: 5f 5f 46 49  	<unknown>
    1256: 4c 45        	<unknown>
    1258: 00 66        	<unknown>
    125a: 67 65 74 77  	<unknown>
    125e: 73 00 66 70  	<unknown>
    1262: 75 74        	<unknown>
    1264: 77 63 00 66  	<unknown>
    1268: 70 75        	<unknown>
    126a: 74 77        	<unknown>
    126c: 73 00 66 77  	<unknown>
    1270: 69 64        	<unknown>
    1272: 65 00        	<unknown>
    1274: 5f 5f 69 73  	<unknown>
    1278: 6f 63 39 39  	jal	t1, 0x97e0a <.debug_info+0x97e0a>
    127c: 5f 66 77 73  	<unknown>
    1280: 63 61 6e 66  	bltu	t3, t1, 0x18e2 <.debug_info+0x18e2>
    1284: 00 67        	<unknown>
    1286: 65 74        	<unknown>
    1288: 77 63 68 61  	<unknown>
    128c: 72 00        	<unknown>
    128e: 6d 62        	<unknown>
    1290: 72 6c        	<unknown>
    1292: 65 6e        	<unknown>
    1294: 00 6d        	<unknown>
    1296: 62 72        	<unknown>
    1298: 74 6f        	<unknown>
    129a: 77 63 00 6d  	<unknown>
    129e: 62 73        	<unknown>
    12a0: 69 6e        	<unknown>
    12a2: 69 74        	<unknown>
    12a4: 00 6d        	<unknown>
    12a6: 62 73        	<unknown>
    12a8: 72 74        	<unknown>
    12aa: 6f 77 63 73  	jal	a4, 0x389e0 <.debug_info+0x389e0>
    12ae: 00 70        	<unknown>
    12b0: 75 74        	<unknown>
    12b2: 77 63 68 61  	<unknown>
    12b6: 72 00        	<unknown>
    12b8: 5f 5f 69 73  	<unknown>
    12bc: 6f 63 39 39  	jal	t1, 0x97e4e <.debug_info+0x97e4e>
    12c0: 5f 73 77 73  	<unknown>
    12c4: 63 61 6e 66  	bltu	t3, t1, 0x1926 <.debug_info+0x1926>
    12c8: 00 75        	<unknown>
    12ca: 6e 67        	<unknown>
    12cc: 65 74        	<unknown>
    12ce: 77 63 00 76  	<unknown>
    12d2: 66 77        	<unknown>
    12d4: 70 72        	<unknown>
    12d6: 69 6e        	<unknown>
    12d8: 74 66        	<unknown>
    12da: 00 5f        	<unknown>
    12dc: 5f 62 75 69  	<unknown>
    12e0: 6c 74        	<unknown>
    12e2: 69 6e        	<unknown>
    12e4: 5f 76 61 5f  	<unknown>
    12e8: 6c 69        	<unknown>
    12ea: 73 74 00 5f  	csrrci	s0, 0x5f0, 0x0
    12ee: 5f 67 6e 75  	<unknown>
    12f2: 63 5f 76 61  	bge	a2, s7, 0x1910 <.debug_info+0x1910>
    12f6: 5f 6c 69 73  	<unknown>
    12fa: 74 00        	<unknown>
    12fc: 5f 5f 69 73  	<unknown>
    1300: 6f 63 39 39  	jal	t1, 0x97e92 <.debug_info+0x97e92>
    1304: 5f 76 66 77  	<unknown>
    1308: 73 63 61 6e  	csrrsi	t1, 0x6e6, 0x2
    130c: 66 00        	<unknown>
    130e: 76 73        	<unknown>
    1310: 77 70 72 69  	<unknown>
    1314: 6e 74        	<unknown>
    1316: 66 00        	<unknown>
    1318: 5f 5f 69 73  	<unknown>
    131c: 6f 63 39 39  	jal	t1, 0x97eae <.debug_info+0x97eae>
    1320: 5f 76 73 77  	<unknown>
    1324: 73 63 61 6e  	csrrsi	t1, 0x6e6, 0x2
    1328: 66 00        	<unknown>
    132a: 76 77        	<unknown>
    132c: 70 72        	<unknown>
    132e: 69 6e        	<unknown>
    1330: 74 66        	<unknown>
    1332: 00 5f        	<unknown>
    1334: 5f 69 73 6f  	<unknown>
    1338: 63 39 39 5f  	<unknown>
    133c: 76 77        	<unknown>
    133e: 73 63 61 6e  	csrrsi	t1, 0x6e6, 0x2
    1342: 66 00        	<unknown>
    1344: 77 63 72 74  	<unknown>
    1348: 6f 6d 62 00  	jal	s10, 0x2734e <.debug_info+0x2734e>
    134c: 77 63 73 63  	<unknown>
    1350: 61 74        	<unknown>
    1352: 00 77        	<unknown>
    1354: 63 73 63 6d  	bgeu	t1, s6, 0x1a1a <.debug_info+0x1a1a>
    1358: 70 00        	<unknown>
    135a: 77 63 73 63  	<unknown>
    135e: 6f 6c 6c 00  	jal	s8, 0xc7364 <.debug_info+0xc7364>
    1362: 77 63 73 63  	<unknown>
    1366: 70 79        	<unknown>
    1368: 00 77        	<unknown>
    136a: 63 73 63 73  	bgeu	t1, s6, 0x1a90 <.debug_info+0x1a90>
    136e: 70 6e        	<unknown>
    1370: 00 77        	<unknown>
    1372: 63 73 66 74  	bgeu	a2, t1, 0x1ab8 <.debug_info+0x1ab8>
    1376: 69 6d        	<unknown>
    1378: 65 00        	<unknown>
    137a: 74 6d        	<unknown>
    137c: 00 77        	<unknown>
    137e: 63 73 6c 65  	bgeu	s8, s6, 0x19c4 <.debug_info+0x19c4>
    1382: 6e 00        	<unknown>
    1384: 77 63 73 6e  	<unknown>
    1388: 63 61 74 00  	bltu	s0, t2, 0x138a <.debug_info+0x138a>
    138c: 77 63 73 6e  	<unknown>
    1390: 63 6d 70 00  	bltu	zero, t2, 0x13aa <.debug_info+0x13aa>
    1394: 77 63 73 6e  	<unknown>
    1398: 63 70 79 00  	bgeu	s2, t2, 0x1398 <.debug_info+0x1398>
    139c: 77 63 73 72  	<unknown>
    13a0: 74 6f        	<unknown>
    13a2: 6d 62        	<unknown>
    13a4: 73 00 77 63  	<unknown>
    13a8: 73 73 70 6e  	csrrci	t1, 0x6e7, 0x0
    13ac: 00 77        	<unknown>
    13ae: 63 73 74 6f  	bgeu	s0, s7, 0x1a94 <.debug_info+0x1a94>
    13b2: 64 00        	<unknown>
    13b4: 77 63 73 74  	<unknown>
    13b8: 6f 66 00 77  	jal	a2, 0x7b28 <.debug_info+0x7b28>
    13bc: 63 73 74 6f  	bgeu	s0, s7, 0x1aa2 <.debug_info+0x1aa2>
    13c0: 6b 00 77 63  	<unknown>
    13c4: 73 74 6f 6c  	csrrci	s0, 0x6c6, 0x1e
    13c8: 00 77        	<unknown>
    13ca: 63 73 74 6f  	bgeu	s0, s7, 0x1ab0 <.debug_info+0x1ab0>
    13ce: 75 6c        	<unknown>
    13d0: 00 77        	<unknown>
    13d2: 63 73 78 66  	bgeu	a6, t2, 0x1a38 <.debug_info+0x1a38>
    13d6: 72 6d        	<unknown>
    13d8: 00 77        	<unknown>
    13da: 63 74 6f 62  	bgeu	t5, t1, 0x1a02 <.debug_info+0x1a02>
    13de: 00 77        	<unknown>
    13e0: 6d 65        	<unknown>
    13e2: 6d 63        	<unknown>
    13e4: 6d 70        	<unknown>
