	.text
	.file	"streamcluster_cuda_cpu.cu"
                                        # Start of file scope inline assembly
	.globl	_ZSt21ios_base_library_initv

                                        # End of file scope inline assembly
	.file	0 "/nethome/cahn45/CuPBoP/examples/streamcluster" "streamcluster_cuda_cpu.cu" md5 0xc950cfbbb845af60b447586050b8e68c
	.file	1 "." "streamcluster_cuda.cu"
	.file	2 "." "streamcluster_header.h"
	.file	3 "." "streamcluster_cuda_cpu.cu"
	.file	4 "/nethome/cahn45/CuPBoP" "cuda-12.1/include/nv/target"
	.file	5 "/nethome/cahn45/CuPBoP" "cuda-12.1/include/driver_types.h"
	.file	6 "/usr/include/x86_64-linux-gnu/bits" "pthreadtypes.h"
	.file	7 "/nethome/cahn45/CuPBoP" "cuda-12.1/include/vector_types.h"
	.globl	_Z34__device_stub__kernel_compute_costiilP5PointiiPfS1_PiPb # -- Begin function _Z34__device_stub__kernel_compute_costiilP5PointiiPfS1_PiPb
	.p2align	4, 0x90
	.type	_Z34__device_stub__kernel_compute_costiilP5PointiiPfS1_PiPb,@function
_Z34__device_stub__kernel_compute_costiilP5PointiiPfS1_PiPb: # @_Z34__device_stub__kernel_compute_costiilP5PointiiPfS1_PiPb
.Lfunc_begin0:
	.loc	1 63 0                          # ./streamcluster_cuda.cu:63:0
	.cfi_startproc
# %bb.0:                                # %entry
	pushq	%rbp
	.cfi_def_cfa_offset 16
	.cfi_offset %rbp, -16
	movq	%rsp, %rbp
	.cfi_def_cfa_register %rbp
	subq	$208, %rsp
	movq	40(%rbp), %rax
	movq	32(%rbp), %rax
	movq	24(%rbp), %rax
	movq	16(%rbp), %rax
	movl	%edi, -4(%rbp)
	movl	%esi, -8(%rbp)
	movq	%rdx, -16(%rbp)
	movq	%rcx, -24(%rbp)
	movl	%r8d, -28(%rbp)
	movl	%r9d, -32(%rbp)
.Ltmp0:
	.loc	1 63 64 prologue_end            # ./streamcluster_cuda.cu:63:64
	leaq	-4(%rbp), %rax
	movq	%rax, -192(%rbp)
	leaq	-8(%rbp), %rax
	movq	%rax, -184(%rbp)
	leaq	-16(%rbp), %rax
	movq	%rax, -176(%rbp)
	leaq	-24(%rbp), %rax
	movq	%rax, -168(%rbp)
	leaq	-28(%rbp), %rax
	movq	%rax, -160(%rbp)
	leaq	-32(%rbp), %rax
	movq	%rax, -152(%rbp)
	leaq	16(%rbp), %rax
	movq	%rax, -144(%rbp)
	leaq	24(%rbp), %rax
	movq	%rax, -136(%rbp)
	leaq	32(%rbp), %rax
	movq	%rax, -128(%rbp)
	leaq	40(%rbp), %rax
	movq	%rax, -120(%rbp)
	leaq	-48(%rbp), %rdi
	leaq	-64(%rbp), %rsi
	leaq	-72(%rbp), %rdx
	leaq	-80(%rbp), %rcx
	callq	__cudaPopCallConfiguration@PLT
	movq	-72(%rbp), %r10
	movq	-80(%rbp), %rax
	movq	-48(%rbp), %rcx
	movq	%rcx, -96(%rbp)
	movl	-40(%rbp), %ecx
	movl	%ecx, -88(%rbp)
	movq	-96(%rbp), %rsi
	movl	-88(%rbp), %edx
	movq	-64(%rbp), %rcx
	movq	%rcx, -112(%rbp)
	movl	-56(%rbp), %ecx
	movl	%ecx, -104(%rbp)
	movq	-112(%rbp), %rcx
	movl	-104(%rbp), %r8d
	leaq	_Z34__device_stub__kernel_compute_costiilP5PointiiPfS1_PiPb(%rip), %rdi
	leaq	-192(%rbp), %r9
	movq	%r10, (%rsp)
	movq	%rax, 8(%rsp)
	callq	cudaLaunchKernel@PLT
# %bb.1:                                # %setup.end
	.loc	1 85 1 epilogue_begin           # ./streamcluster_cuda.cu:85:1
	addq	$208, %rsp
	popq	%rbp
	.cfi_def_cfa %rsp, 8
	retq
.Ltmp1:
.Lfunc_end0:
	.size	_Z34__device_stub__kernel_compute_costiilP5PointiiPfS1_PiPb, .Lfunc_end0-_Z34__device_stub__kernel_compute_costiilP5PointiiPfS1_PiPb
	.cfi_endproc
                                        # -- End function
	.globl	_Z11allocDevMemii               # -- Begin function _Z11allocDevMemii
	.p2align	4, 0x90
	.type	_Z11allocDevMemii,@function
_Z11allocDevMemii:                      # @_Z11allocDevMemii
.Lfunc_begin1:
	.loc	1 90 0                          # ./streamcluster_cuda.cu:90:0
	.cfi_startproc
# %bb.0:                                # %entry
	pushq	%rbp
	.cfi_def_cfa_offset 16
	.cfi_offset %rbp, -16
	movq	%rsp, %rbp
	.cfi_def_cfa_register %rbp
	subq	$64, %rsp
	movl	%edi, -4(%rbp)
	movl	%esi, -8(%rbp)
# %bb.1:                                # %do.body
.Ltmp2:
	.loc	1 91 61 prologue_end            # ./streamcluster_cuda.cu:91:61
	movslq	-4(%rbp), %rsi
	.loc	1 91 65 is_stmt 0               # ./streamcluster_cuda.cu:91:65
	shlq	$2, %rsi
	.loc	1 91 24                         # ./streamcluster_cuda.cu:91:24
	leaq	center_table_d(%rip), %rdi
	callq	cudaMalloc@PLT
	.loc	1 91 18                         # ./streamcluster_cuda.cu:91:18
	movl	%eax, -12(%rbp)
	.loc	1 91 85                         # ./streamcluster_cuda.cu:91:85
	xorl	%eax, %eax
.Ltmp3:
	.loc	1 91 97                         # ./streamcluster_cuda.cu:91:97
	cmpl	-12(%rbp), %eax
.Ltmp4:
	.loc	1 91 85                         # ./streamcluster_cuda.cu:91:85
	je	.LBB1_3
# %bb.2:                                # %if.then
.Ltmp5:
	.loc	1 91 115                        # ./streamcluster_cuda.cu:91:115
	movq	stderr@GOTPCREL(%rip), %rax
	movq	(%rax), %rax
	movq	%rax, -32(%rbp)                 # 8-byte Spill
	.loc	1 91 219                        # ./streamcluster_cuda.cu:91:219
	movl	-12(%rbp), %edi
	.loc	1 91 200                        # ./streamcluster_cuda.cu:91:200
	callq	cudaGetErrorString@PLT
	movq	-32(%rbp), %rdi                 # 8-byte Reload
	movq	%rax, %r8
	.loc	1 91 107                        # ./streamcluster_cuda.cu:91:107
	leaq	.L.str(%rip), %rsi
	leaq	.L.str.1(%rip), %rdx
	movl	$91, %ecx
	movb	$0, %al
	callq	fprintf@PLT
	.loc	1 91 226                        # ./streamcluster_cuda.cu:91:226
	movl	$1, %edi
	callq	exit@PLT
.Ltmp6:
.LBB1_3:                                # %if.end
	.loc	1 91 237                        # ./streamcluster_cuda.cu:91:237
	jmp	.LBB1_4
.Ltmp7:
.LBB1_4:                                # %do.end
	.loc	1 92 3 is_stmt 1                # ./streamcluster_cuda.cu:92:3
	jmp	.LBB1_5
.LBB1_5:                                # %do.body3
.Ltmp8:
	.loc	1 92 66 is_stmt 0               # ./streamcluster_cuda.cu:92:66
	movslq	-4(%rbp), %rsi
	.loc	1 92 70                         # ./streamcluster_cuda.cu:92:70
	shlq	$0, %rsi
	.loc	1 92 24                         # ./streamcluster_cuda.cu:92:24
	leaq	switch_membership_d(%rip), %rdi
	callq	cudaMalloc@PLT
	.loc	1 92 18                         # ./streamcluster_cuda.cu:92:18
	movl	%eax, -16(%rbp)
	.loc	1 92 91                         # ./streamcluster_cuda.cu:92:91
	xorl	%eax, %eax
.Ltmp9:
	.loc	1 92 103                        # ./streamcluster_cuda.cu:92:103
	cmpl	-16(%rbp), %eax
.Ltmp10:
	.loc	1 92 91                         # ./streamcluster_cuda.cu:92:91
	je	.LBB1_7
# %bb.6:                                # %if.then9
.Ltmp11:
	.loc	1 92 121                        # ./streamcluster_cuda.cu:92:121
	movq	stderr@GOTPCREL(%rip), %rax
	movq	(%rax), %rax
	movq	%rax, -40(%rbp)                 # 8-byte Spill
	.loc	1 92 225                        # ./streamcluster_cuda.cu:92:225
	movl	-16(%rbp), %edi
	.loc	1 92 206                        # ./streamcluster_cuda.cu:92:206
	callq	cudaGetErrorString@PLT
	movq	-40(%rbp), %rdi                 # 8-byte Reload
	movq	%rax, %r8
	.loc	1 92 113                        # ./streamcluster_cuda.cu:92:113
	leaq	.L.str(%rip), %rsi
	leaq	.L.str.1(%rip), %rdx
	movl	$92, %ecx
	movb	$0, %al
	callq	fprintf@PLT
	.loc	1 92 232                        # ./streamcluster_cuda.cu:92:232
	movl	$1, %edi
	callq	exit@PLT
.Ltmp12:
.LBB1_7:                                # %if.end12
	.loc	1 92 243                        # ./streamcluster_cuda.cu:92:243
	jmp	.LBB1_8
.Ltmp13:
.LBB1_8:                                # %do.end13
	.loc	1 93 3 is_stmt 1                # ./streamcluster_cuda.cu:93:3
	jmp	.LBB1_9
.LBB1_9:                                # %do.body14
.Ltmp14:
	.loc	1 93 48 is_stmt 0               # ./streamcluster_cuda.cu:93:48
	movslq	-4(%rbp), %rsi
	.loc	1 93 52                         # ./streamcluster_cuda.cu:93:52
	shlq	$5, %rsi
	.loc	1 93 24                         # ./streamcluster_cuda.cu:93:24
	leaq	p(%rip), %rdi
	callq	cudaMalloc@PLT
	.loc	1 93 18                         # ./streamcluster_cuda.cu:93:18
	movl	%eax, -20(%rbp)
	.loc	1 93 74                         # ./streamcluster_cuda.cu:93:74
	xorl	%eax, %eax
.Ltmp15:
	.loc	1 93 86                         # ./streamcluster_cuda.cu:93:86
	cmpl	-20(%rbp), %eax
.Ltmp16:
	.loc	1 93 74                         # ./streamcluster_cuda.cu:93:74
	je	.LBB1_11
# %bb.10:                               # %if.then20
.Ltmp17:
	.loc	1 93 104                        # ./streamcluster_cuda.cu:93:104
	movq	stderr@GOTPCREL(%rip), %rax
	movq	(%rax), %rax
	movq	%rax, -48(%rbp)                 # 8-byte Spill
	.loc	1 93 208                        # ./streamcluster_cuda.cu:93:208
	movl	-20(%rbp), %edi
	.loc	1 93 189                        # ./streamcluster_cuda.cu:93:189
	callq	cudaGetErrorString@PLT
	movq	-48(%rbp), %rdi                 # 8-byte Reload
	movq	%rax, %r8
	.loc	1 93 96                         # ./streamcluster_cuda.cu:93:96
	leaq	.L.str(%rip), %rsi
	leaq	.L.str.1(%rip), %rdx
	movl	$93, %ecx
	movb	$0, %al
	callq	fprintf@PLT
	.loc	1 93 215                        # ./streamcluster_cuda.cu:93:215
	movl	$1, %edi
	callq	exit@PLT
.Ltmp18:
.LBB1_11:                               # %if.end23
	.loc	1 93 226                        # ./streamcluster_cuda.cu:93:226
	jmp	.LBB1_12
.Ltmp19:
.LBB1_12:                               # %do.end24
	.loc	1 94 3 is_stmt 1                # ./streamcluster_cuda.cu:94:3
	jmp	.LBB1_13
.LBB1_13:                               # %do.body25
.Ltmp20:
	.loc	1 94 54 is_stmt 0               # ./streamcluster_cuda.cu:94:54
	movl	-4(%rbp), %eax
	.loc	1 94 58                         # ./streamcluster_cuda.cu:94:58
	imull	-8(%rbp), %eax
	.loc	1 94 54                         # ./streamcluster_cuda.cu:94:54
	movslq	%eax, %rsi
	.loc	1 94 64                         # ./streamcluster_cuda.cu:94:64
	shlq	$2, %rsi
	.loc	1 94 24                         # ./streamcluster_cuda.cu:94:24
	leaq	coord_d(%rip), %rdi
	callq	cudaMalloc@PLT
	.loc	1 94 18                         # ./streamcluster_cuda.cu:94:18
	movl	%eax, -24(%rbp)
	.loc	1 94 86                         # ./streamcluster_cuda.cu:94:86
	xorl	%eax, %eax
.Ltmp21:
	.loc	1 94 98                         # ./streamcluster_cuda.cu:94:98
	cmpl	-24(%rbp), %eax
.Ltmp22:
	.loc	1 94 86                         # ./streamcluster_cuda.cu:94:86
	je	.LBB1_15
# %bb.14:                               # %if.then32
.Ltmp23:
	.loc	1 94 116                        # ./streamcluster_cuda.cu:94:116
	movq	stderr@GOTPCREL(%rip), %rax
	movq	(%rax), %rax
	movq	%rax, -56(%rbp)                 # 8-byte Spill
	.loc	1 94 220                        # ./streamcluster_cuda.cu:94:220
	movl	-24(%rbp), %edi
	.loc	1 94 201                        # ./streamcluster_cuda.cu:94:201
	callq	cudaGetErrorString@PLT
	movq	-56(%rbp), %rdi                 # 8-byte Reload
	movq	%rax, %r8
	.loc	1 94 108                        # ./streamcluster_cuda.cu:94:108
	leaq	.L.str(%rip), %rsi
	leaq	.L.str.1(%rip), %rdx
	movl	$94, %ecx
	movb	$0, %al
	callq	fprintf@PLT
	.loc	1 94 227                        # ./streamcluster_cuda.cu:94:227
	movl	$1, %edi
	callq	exit@PLT
.Ltmp24:
.LBB1_15:                               # %if.end35
	.loc	1 94 238                        # ./streamcluster_cuda.cu:94:238
	jmp	.LBB1_16
.Ltmp25:
.LBB1_16:                               # %do.end36
	.loc	1 95 1 epilogue_begin is_stmt 1 # ./streamcluster_cuda.cu:95:1
	addq	$64, %rsp
	popq	%rbp
	.cfi_def_cfa %rsp, 8
	retq
.Ltmp26:
.Lfunc_end1:
	.size	_Z11allocDevMemii, .Lfunc_end1-_Z11allocDevMemii
	.cfi_endproc
                                        # -- End function
	.globl	_Z12allocHostMemii              # -- Begin function _Z12allocHostMemii
	.p2align	4, 0x90
	.type	_Z12allocHostMemii,@function
_Z12allocHostMemii:                     # @_Z12allocHostMemii
.Lfunc_begin2:
	.loc	1 100 0                         # ./streamcluster_cuda.cu:100:0
	.cfi_startproc
# %bb.0:                                # %entry
	pushq	%rbp
	.cfi_def_cfa_offset 16
	.cfi_offset %rbp, -16
	movq	%rsp, %rbp
	.cfi_def_cfa_register %rbp
	subq	$16, %rsp
	movl	%edi, -4(%rbp)
	movl	%esi, -8(%rbp)
.Ltmp27:
	.loc	1 101 29 prologue_end           # ./streamcluster_cuda.cu:101:29
	movl	-4(%rbp), %eax
	.loc	1 101 33 is_stmt 0              # ./streamcluster_cuda.cu:101:33
	imull	-8(%rbp), %eax
	.loc	1 101 29                        # ./streamcluster_cuda.cu:101:29
	movslq	%eax, %rdi
	.loc	1 101 39                        # ./streamcluster_cuda.cu:101:39
	shlq	$2, %rdi
	.loc	1 101 22                        # ./streamcluster_cuda.cu:101:22
	callq	malloc@PLT
	.loc	1 101 11                        # ./streamcluster_cuda.cu:101:11
	movq	%rax, coord_h(%rip)
	.loc	1 102 1 epilogue_begin is_stmt 1 # ./streamcluster_cuda.cu:102:1
	addq	$16, %rsp
	popq	%rbp
	.cfi_def_cfa %rsp, 8
	retq
.Ltmp28:
.Lfunc_end2:
	.size	_Z12allocHostMemii, .Lfunc_end2-_Z12allocHostMemii
	.cfi_endproc
                                        # -- End function
	.globl	_Z10freeDevMemv                 # -- Begin function _Z10freeDevMemv
	.p2align	4, 0x90
	.type	_Z10freeDevMemv,@function
_Z10freeDevMemv:                        # @_Z10freeDevMemv
.Lfunc_begin3:
	.loc	1 107 0                         # ./streamcluster_cuda.cu:107:0
	.cfi_startproc
# %bb.0:                                # %entry
	pushq	%rbp
	.cfi_def_cfa_offset 16
	.cfi_offset %rbp, -16
	movq	%rsp, %rbp
	.cfi_def_cfa_register %rbp
	subq	$48, %rsp
# %bb.1:                                # %do.body
.Ltmp29:
	.loc	1 108 33 prologue_end           # ./streamcluster_cuda.cu:108:33
	movq	center_table_d(%rip), %rdi
	.loc	1 108 24 is_stmt 0              # ./streamcluster_cuda.cu:108:24
	callq	cudaFree@PLT
	.loc	1 108 18                        # ./streamcluster_cuda.cu:108:18
	movl	%eax, -4(%rbp)
	.loc	1 108 54                        # ./streamcluster_cuda.cu:108:54
	xorl	%eax, %eax
.Ltmp30:
	.loc	1 108 66                        # ./streamcluster_cuda.cu:108:66
	cmpl	-4(%rbp), %eax
.Ltmp31:
	.loc	1 108 54                        # ./streamcluster_cuda.cu:108:54
	je	.LBB3_3
# %bb.2:                                # %if.then
.Ltmp32:
	.loc	1 108 84                        # ./streamcluster_cuda.cu:108:84
	movq	stderr@GOTPCREL(%rip), %rax
	movq	(%rax), %rax
	movq	%rax, -24(%rbp)                 # 8-byte Spill
	.loc	1 108 189                       # ./streamcluster_cuda.cu:108:189
	movl	-4(%rbp), %edi
	.loc	1 108 170                       # ./streamcluster_cuda.cu:108:170
	callq	cudaGetErrorString@PLT
	movq	-24(%rbp), %rdi                 # 8-byte Reload
	movq	%rax, %r8
	.loc	1 108 76                        # ./streamcluster_cuda.cu:108:76
	leaq	.L.str(%rip), %rsi
	leaq	.L.str.1(%rip), %rdx
	movl	$108, %ecx
	movb	$0, %al
	callq	fprintf@PLT
	.loc	1 108 196                       # ./streamcluster_cuda.cu:108:196
	movl	$1, %edi
	callq	exit@PLT
.Ltmp33:
.LBB3_3:                                # %if.end
	.loc	1 108 207                       # ./streamcluster_cuda.cu:108:207
	jmp	.LBB3_4
.Ltmp34:
.LBB3_4:                                # %do.end
	.loc	1 109 3 is_stmt 1               # ./streamcluster_cuda.cu:109:3
	jmp	.LBB3_5
.LBB3_5:                                # %do.body3
.Ltmp35:
	.loc	1 109 33 is_stmt 0              # ./streamcluster_cuda.cu:109:33
	movq	switch_membership_d(%rip), %rdi
	.loc	1 109 24                        # ./streamcluster_cuda.cu:109:24
	callq	cudaFree@PLT
	.loc	1 109 18                        # ./streamcluster_cuda.cu:109:18
	movl	%eax, -8(%rbp)
	.loc	1 109 59                        # ./streamcluster_cuda.cu:109:59
	xorl	%eax, %eax
.Ltmp36:
	.loc	1 109 71                        # ./streamcluster_cuda.cu:109:71
	cmpl	-8(%rbp), %eax
.Ltmp37:
	.loc	1 109 59                        # ./streamcluster_cuda.cu:109:59
	je	.LBB3_7
# %bb.6:                                # %if.then7
.Ltmp38:
	.loc	1 109 89                        # ./streamcluster_cuda.cu:109:89
	movq	stderr@GOTPCREL(%rip), %rax
	movq	(%rax), %rax
	movq	%rax, -32(%rbp)                 # 8-byte Spill
	.loc	1 109 194                       # ./streamcluster_cuda.cu:109:194
	movl	-8(%rbp), %edi
	.loc	1 109 175                       # ./streamcluster_cuda.cu:109:175
	callq	cudaGetErrorString@PLT
	movq	-32(%rbp), %rdi                 # 8-byte Reload
	movq	%rax, %r8
	.loc	1 109 81                        # ./streamcluster_cuda.cu:109:81
	leaq	.L.str(%rip), %rsi
	leaq	.L.str.1(%rip), %rdx
	movl	$109, %ecx
	movb	$0, %al
	callq	fprintf@PLT
	.loc	1 109 201                       # ./streamcluster_cuda.cu:109:201
	movl	$1, %edi
	callq	exit@PLT
.Ltmp39:
.LBB3_7:                                # %if.end10
	.loc	1 109 212                       # ./streamcluster_cuda.cu:109:212
	jmp	.LBB3_8
.Ltmp40:
.LBB3_8:                                # %do.end11
	.loc	1 110 3 is_stmt 1               # ./streamcluster_cuda.cu:110:3
	jmp	.LBB3_9
.LBB3_9:                                # %do.body12
.Ltmp41:
	.loc	1 110 33 is_stmt 0              # ./streamcluster_cuda.cu:110:33
	movq	p(%rip), %rdi
	.loc	1 110 24                        # ./streamcluster_cuda.cu:110:24
	callq	cudaFree@PLT
	.loc	1 110 18                        # ./streamcluster_cuda.cu:110:18
	movl	%eax, -12(%rbp)
	.loc	1 110 41                        # ./streamcluster_cuda.cu:110:41
	xorl	%eax, %eax
.Ltmp42:
	.loc	1 110 53                        # ./streamcluster_cuda.cu:110:53
	cmpl	-12(%rbp), %eax
.Ltmp43:
	.loc	1 110 41                        # ./streamcluster_cuda.cu:110:41
	je	.LBB3_11
# %bb.10:                               # %if.then16
.Ltmp44:
	.loc	1 110 71                        # ./streamcluster_cuda.cu:110:71
	movq	stderr@GOTPCREL(%rip), %rax
	movq	(%rax), %rax
	movq	%rax, -40(%rbp)                 # 8-byte Spill
	.loc	1 110 176                       # ./streamcluster_cuda.cu:110:176
	movl	-12(%rbp), %edi
	.loc	1 110 157                       # ./streamcluster_cuda.cu:110:157
	callq	cudaGetErrorString@PLT
	movq	-40(%rbp), %rdi                 # 8-byte Reload
	movq	%rax, %r8
	.loc	1 110 63                        # ./streamcluster_cuda.cu:110:63
	leaq	.L.str(%rip), %rsi
	leaq	.L.str.1(%rip), %rdx
	movl	$110, %ecx
	movb	$0, %al
	callq	fprintf@PLT
	.loc	1 110 183                       # ./streamcluster_cuda.cu:110:183
	movl	$1, %edi
	callq	exit@PLT
.Ltmp45:
.LBB3_11:                               # %if.end19
	.loc	1 110 194                       # ./streamcluster_cuda.cu:110:194
	jmp	.LBB3_12
.Ltmp46:
.LBB3_12:                               # %do.end20
	.loc	1 111 3 is_stmt 1               # ./streamcluster_cuda.cu:111:3
	jmp	.LBB3_13
.LBB3_13:                               # %do.body21
.Ltmp47:
	.loc	1 111 33 is_stmt 0              # ./streamcluster_cuda.cu:111:33
	movq	coord_d(%rip), %rdi
	.loc	1 111 24                        # ./streamcluster_cuda.cu:111:24
	callq	cudaFree@PLT
	.loc	1 111 18                        # ./streamcluster_cuda.cu:111:18
	movl	%eax, -16(%rbp)
	.loc	1 111 47                        # ./streamcluster_cuda.cu:111:47
	xorl	%eax, %eax
.Ltmp48:
	.loc	1 111 59                        # ./streamcluster_cuda.cu:111:59
	cmpl	-16(%rbp), %eax
.Ltmp49:
	.loc	1 111 47                        # ./streamcluster_cuda.cu:111:47
	je	.LBB3_15
# %bb.14:                               # %if.then25
.Ltmp50:
	.loc	1 111 77                        # ./streamcluster_cuda.cu:111:77
	movq	stderr@GOTPCREL(%rip), %rax
	movq	(%rax), %rax
	movq	%rax, -48(%rbp)                 # 8-byte Spill
	.loc	1 111 182                       # ./streamcluster_cuda.cu:111:182
	movl	-16(%rbp), %edi
	.loc	1 111 163                       # ./streamcluster_cuda.cu:111:163
	callq	cudaGetErrorString@PLT
	movq	-48(%rbp), %rdi                 # 8-byte Reload
	movq	%rax, %r8
	.loc	1 111 69                        # ./streamcluster_cuda.cu:111:69
	leaq	.L.str(%rip), %rsi
	leaq	.L.str.1(%rip), %rdx
	movl	$111, %ecx
	movb	$0, %al
	callq	fprintf@PLT
	.loc	1 111 189                       # ./streamcluster_cuda.cu:111:189
	movl	$1, %edi
	callq	exit@PLT
.Ltmp51:
.LBB3_15:                               # %if.end28
	.loc	1 111 200                       # ./streamcluster_cuda.cu:111:200
	jmp	.LBB3_16
.Ltmp52:
.LBB3_16:                               # %do.end29
	.loc	1 112 1 epilogue_begin is_stmt 1 # ./streamcluster_cuda.cu:112:1
	addq	$48, %rsp
	popq	%rbp
	.cfi_def_cfa %rsp, 8
	retq
.Ltmp53:
.Lfunc_end3:
	.size	_Z10freeDevMemv, .Lfunc_end3-_Z10freeDevMemv
	.cfi_endproc
                                        # -- End function
	.globl	_Z11freeHostMemv                # -- Begin function _Z11freeHostMemv
	.p2align	4, 0x90
	.type	_Z11freeHostMemv,@function
_Z11freeHostMemv:                       # @_Z11freeHostMemv
.Lfunc_begin4:
	.loc	1 117 0                         # ./streamcluster_cuda.cu:117:0
	.cfi_startproc
# %bb.0:                                # %entry
	pushq	%rbp
	.cfi_def_cfa_offset 16
	.cfi_offset %rbp, -16
	movq	%rsp, %rbp
	.cfi_def_cfa_register %rbp
.Ltmp54:
	.loc	1 117 27 prologue_end           # ./streamcluster_cuda.cu:117:27
	movq	coord_h(%rip), %rdi
	.loc	1 117 22 is_stmt 0              # ./streamcluster_cuda.cu:117:22
	callq	free@PLT
	.loc	1 117 37 epilogue_begin         # ./streamcluster_cuda.cu:117:37
	popq	%rbp
	.cfi_def_cfa %rsp, 8
	retq
.Ltmp55:
.Lfunc_end4:
	.size	_Z11freeHostMemv, .Lfunc_end4-_Z11freeHostMemv
	.cfi_endproc
                                        # -- End function
	.section	.rodata.cst4,"aM",@progbits,4
	.p2align	2, 0x0                          # -- Begin function _Z5pgainlP6PointsfPliPbPiS2_bPdS4_S4_S4_S4_S4_
.LCPI5_0:
	.long	0x47800000                      # float 65536
.LCPI5_1:
	.long	0x43000000                      # float 128
	.text
	.globl	_Z5pgainlP6PointsfPliPbPiS2_bPdS4_S4_S4_S4_S4_
	.p2align	4, 0x90
	.type	_Z5pgainlP6PointsfPliPbPiS2_bPdS4_S4_S4_S4_S4_,@function
_Z5pgainlP6PointsfPliPbPiS2_bPdS4_S4_S4_S4_S4_: # @_Z5pgainlP6PointsfPliPbPiS2_bPdS4_S4_S4_S4_S4_
.Lfunc_begin5:
	.loc	1 126 0 is_stmt 1               # ./streamcluster_cuda.cu:126:0
	.cfi_startproc
# %bb.0:                                # %entry
	pushq	%rbp
	.cfi_def_cfa_offset 16
	.cfi_offset %rbp, -16
	movq	%rsp, %rbp
	.cfi_def_cfa_register %rbp
	pushq	%rbx
	subq	$472, %rsp                      # imm = 0x1D8
	.cfi_offset %rbx, -24
	movq	72(%rbp), %rax
	movq	64(%rbp), %rax
	movq	56(%rbp), %rax
	movq	48(%rbp), %rax
	movq	40(%rbp), %rax
	movq	32(%rbp), %rax
	movb	24(%rbp), %al
	movq	16(%rbp), %r10
	movq	%rdi, -16(%rbp)
	movq	%rsi, -24(%rbp)
	movss	%xmm0, -28(%rbp)
	movq	%rdx, -40(%rbp)
	movl	%ecx, -44(%rbp)
	movq	%r8, -56(%rbp)
	movq	%r9, -64(%rbp)
	andb	$1, %al
	movb	%al, -65(%rbp)
.Ltmp56:
	.loc	1 138 17 prologue_end           # ./streamcluster_cuda.cu:138:17
	movq	-40(%rbp), %rax
	.loc	1 138 16 is_stmt 0              # ./streamcluster_cuda.cu:138:16
	movq	(%rax), %rax
	.loc	1 138 28                        # ./streamcluster_cuda.cu:138:28
	addq	$1, %rax
                                        # kill: def $eax killed $eax killed $rax
	.loc	1 138 7                         # ./streamcluster_cuda.cu:138:7
	movl	%eax, -76(%rbp)
	.loc	1 139 12 is_stmt 1              # ./streamcluster_cuda.cu:139:12
	movq	-40(%rbp), %rax
	.loc	1 139 11 is_stmt 0              # ./streamcluster_cuda.cu:139:11
	movq	(%rax), %rax
                                        # kill: def $eax killed $eax killed $rax
	.loc	1 139 7                         # ./streamcluster_cuda.cu:139:7
	movl	%eax, -80(%rbp)
	.loc	1 140 13 is_stmt 1              # ./streamcluster_cuda.cu:140:13
	movq	-24(%rbp), %rax
	.loc	1 140 21 is_stmt 0              # ./streamcluster_cuda.cu:140:21
	movq	(%rax), %rax
                                        # kill: def $eax killed $eax killed $rax
	.loc	1 140 7                         # ./streamcluster_cuda.cu:140:7
	movl	%eax, -84(%rbp)
	.loc	1 141 13 is_stmt 1              # ./streamcluster_cuda.cu:141:13
	movq	-24(%rbp), %rax
	.loc	1 141 21 is_stmt 0              # ./streamcluster_cuda.cu:141:21
	movl	8(%rax), %eax
	.loc	1 141 7                         # ./streamcluster_cuda.cu:141:7
	movl	%eax, -88(%rbp)
	.loc	1 142 17 is_stmt 1              # ./streamcluster_cuda.cu:142:17
	movl	-84(%rbp), %eax
	.loc	1 142 7 is_stmt 0               # ./streamcluster_cuda.cu:142:7
	movl	%eax, -92(%rbp)
	.loc	1 147 32 is_stmt 1              # ./streamcluster_cuda.cu:147:32
	movl	-76(%rbp), %eax
	.loc	1 147 42 is_stmt 0              # ./streamcluster_cuda.cu:147:42
	movl	-92(%rbp), %ecx
	.loc	1 147 50                        # ./streamcluster_cuda.cu:147:50
	addl	$1, %ecx
	.loc	1 147 39                        # ./streamcluster_cuda.cu:147:39
	imull	%ecx, %eax
	.loc	1 147 32                        # ./streamcluster_cuda.cu:147:32
	movslq	%eax, %rdi
	.loc	1 147 55                        # ./streamcluster_cuda.cu:147:55
	shlq	$2, %rdi
	.loc	1 147 25                        # ./streamcluster_cuda.cu:147:25
	callq	malloc@PLT
	.loc	1 147 14                        # ./streamcluster_cuda.cu:147:14
	movq	%rax, work_mem_h(%rip)
.Ltmp57:
	.loc	1 149 12 is_stmt 1              # ./streamcluster_cuda.cu:149:12
	cmpl	$0, _ZL4iter(%rip)
.Ltmp58:
	.loc	1 149 7 is_stmt 0               # ./streamcluster_cuda.cu:149:7
	jne	.LBB5_2
# %bb.1:                                # %if.then
.Ltmp59:
	.loc	1 150 18 is_stmt 1              # ./streamcluster_cuda.cu:150:18
	movl	-84(%rbp), %edi
	.loc	1 150 23 is_stmt 0              # ./streamcluster_cuda.cu:150:23
	movl	-88(%rbp), %esi
	.loc	1 150 5                         # ./streamcluster_cuda.cu:150:5
	callq	_Z12allocHostMemii
.Ltmp60:
.LBB5_2:                                # %if.end
	.loc	1 154 7 is_stmt 1               # ./streamcluster_cuda.cu:154:7
	movl	$0, -96(%rbp)
.Ltmp61:
	.loc	1 155 12                        # ./streamcluster_cuda.cu:155:12
	movl	$0, -100(%rbp)
.LBB5_3:                                # %for.cond
                                        # =>This Inner Loop Header: Depth=1
.Ltmp62:
	.loc	1 155 19 is_stmt 0              # ./streamcluster_cuda.cu:155:19
	movl	-100(%rbp), %eax
	.loc	1 155 21                        # ./streamcluster_cuda.cu:155:21
	cmpl	-84(%rbp), %eax
.Ltmp63:
	.loc	1 155 3                         # ./streamcluster_cuda.cu:155:3
	jge	.LBB5_8
# %bb.4:                                # %for.body
                                        #   in Loop: Header=BB5_3 Depth=1
.Ltmp64:
	.loc	1 156 9 is_stmt 1               # ./streamcluster_cuda.cu:156:9
	movq	-56(%rbp), %rax
	movslq	-100(%rbp), %rcx
.Ltmp65:
	.loc	1 156 9 is_stmt 0               # ./streamcluster_cuda.cu:156:9
	testb	$1, (%rax,%rcx)
	je	.LBB5_6
# %bb.5:                                # %if.then9
                                        #   in Loop: Header=BB5_3 Depth=1
.Ltmp66:
	.loc	1 157 30 is_stmt 1              # ./streamcluster_cuda.cu:157:30
	movl	-96(%rbp), %edx
	movl	%edx, %eax
	addl	$1, %eax
	movl	%eax, -96(%rbp)
	.loc	1 157 7 is_stmt 0               # ./streamcluster_cuda.cu:157:7
	movq	-64(%rbp), %rax
	movslq	-100(%rbp), %rcx
	.loc	1 157 23                        # ./streamcluster_cuda.cu:157:23
	movl	%edx, (%rax,%rcx,4)
.Ltmp67:
.LBB5_6:                                # %if.end12
                                        #   in Loop: Header=BB5_3 Depth=1
	.loc	1 159 3 is_stmt 1               # ./streamcluster_cuda.cu:159:3
	jmp	.LBB5_7
.Ltmp68:
.LBB5_7:                                # %for.inc
                                        #   in Loop: Header=BB5_3 Depth=1
	.loc	1 155 29                        # ./streamcluster_cuda.cu:155:29
	movl	-100(%rbp), %eax
	addl	$1, %eax
	movl	%eax, -100(%rbp)
	.loc	1 155 3 is_stmt 0               # ./streamcluster_cuda.cu:155:3
	jmp	.LBB5_3
.Ltmp69:
.LBB5_8:                                # %for.end
	.loc	1 163 22 is_stmt 1              # ./streamcluster_cuda.cu:163:22
	testb	$1, -65(%rbp)
	jne	.LBB5_10
# %bb.9:                                # %lor.lhs.false
	.loc	1 163 30 is_stmt 0              # ./streamcluster_cuda.cu:163:30
	cmpl	$0, _ZL4iter(%rip)
.Ltmp70:
	.loc	1 163 7                         # ./streamcluster_cuda.cu:163:7
	jne	.LBB5_19
.LBB5_10:                               # %if.then16
.Ltmp71:
	.loc	1 164 14 is_stmt 1              # ./streamcluster_cuda.cu:164:14
	movl	$0, -104(%rbp)
.LBB5_11:                               # %for.cond18
                                        # =>This Loop Header: Depth=1
                                        #     Child Loop BB5_13 Depth 2
.Ltmp72:
	.loc	1 164 21 is_stmt 0              # ./streamcluster_cuda.cu:164:21
	movl	-104(%rbp), %eax
	.loc	1 164 23                        # ./streamcluster_cuda.cu:164:23
	cmpl	-88(%rbp), %eax
.Ltmp73:
	.loc	1 164 5                         # ./streamcluster_cuda.cu:164:5
	jge	.LBB5_18
# %bb.12:                               # %for.body20
                                        #   in Loop: Header=BB5_11 Depth=1
.Ltmp74:
	.loc	1 165 16 is_stmt 1              # ./streamcluster_cuda.cu:165:16
	movl	$0, -108(%rbp)
.LBB5_13:                               # %for.cond21
                                        #   Parent Loop BB5_11 Depth=1
                                        # =>  This Inner Loop Header: Depth=2
.Ltmp75:
	.loc	1 165 23 is_stmt 0              # ./streamcluster_cuda.cu:165:23
	movl	-108(%rbp), %eax
	.loc	1 165 25                        # ./streamcluster_cuda.cu:165:25
	cmpl	-84(%rbp), %eax
.Ltmp76:
	.loc	1 165 7                         # ./streamcluster_cuda.cu:165:7
	jge	.LBB5_16
# %bb.14:                               # %for.body23
                                        #   in Loop: Header=BB5_13 Depth=2
.Ltmp77:
	.loc	1 166 34 is_stmt 1              # ./streamcluster_cuda.cu:166:34
	movq	-24(%rbp), %rax
	.loc	1 166 42 is_stmt 0              # ./streamcluster_cuda.cu:166:42
	movq	16(%rax), %rax
	.loc	1 166 34                        # ./streamcluster_cuda.cu:166:34
	movslq	-108(%rbp), %rcx
	shlq	$5, %rcx
	addq	%rcx, %rax
	.loc	1 166 47                        # ./streamcluster_cuda.cu:166:47
	movq	8(%rax), %rax
	.loc	1 166 34                        # ./streamcluster_cuda.cu:166:34
	movslq	-104(%rbp), %rcx
	movss	(%rax,%rcx,4), %xmm0            # xmm0 = mem[0],zero,zero,zero
	.loc	1 166 9                         # ./streamcluster_cuda.cu:166:9
	movq	coord_h(%rip), %rax
	.loc	1 166 18                        # ./streamcluster_cuda.cu:166:18
	movl	-84(%rbp), %ecx
	.loc	1 166 22                        # ./streamcluster_cuda.cu:166:22
	imull	-104(%rbp), %ecx
	.loc	1 166 27                        # ./streamcluster_cuda.cu:166:27
	addl	-108(%rbp), %ecx
	.loc	1 166 9                         # ./streamcluster_cuda.cu:166:9
	movslq	%ecx, %rcx
	.loc	1 166 32                        # ./streamcluster_cuda.cu:166:32
	movss	%xmm0, (%rax,%rcx,4)
.Ltmp78:
# %bb.15:                               # %for.inc32
                                        #   in Loop: Header=BB5_13 Depth=2
	.loc	1 165 33 is_stmt 1              # ./streamcluster_cuda.cu:165:33
	movl	-108(%rbp), %eax
	addl	$1, %eax
	movl	%eax, -108(%rbp)
	.loc	1 165 7 is_stmt 0               # ./streamcluster_cuda.cu:165:7
	jmp	.LBB5_13
.Ltmp79:
.LBB5_16:                               # %for.end34
                                        #   in Loop: Header=BB5_11 Depth=1
	.loc	1 168 5 is_stmt 1               # ./streamcluster_cuda.cu:168:5
	jmp	.LBB5_17
.Ltmp80:
.LBB5_17:                               # %for.inc35
                                        #   in Loop: Header=BB5_11 Depth=1
	.loc	1 164 31                        # ./streamcluster_cuda.cu:164:31
	movl	-104(%rbp), %eax
	addl	$1, %eax
	movl	%eax, -104(%rbp)
	.loc	1 164 5 is_stmt 0               # ./streamcluster_cuda.cu:164:5
	jmp	.LBB5_11
.Ltmp81:
.LBB5_18:                               # %for.end37
	.loc	1 169 3 is_stmt 1               # ./streamcluster_cuda.cu:169:3
	jmp	.LBB5_19
.Ltmp82:
.LBB5_19:                               # %if.end38
	.loc	1 183 3                         # ./streamcluster_cuda.cu:183:3
	jmp	.LBB5_20
.LBB5_20:                               # %do.body
.Ltmp83:
	.loc	1 183 57 is_stmt 0              # ./streamcluster_cuda.cu:183:57
	movl	-76(%rbp), %eax
	.loc	1 183 67                        # ./streamcluster_cuda.cu:183:67
	movl	-92(%rbp), %ecx
	.loc	1 183 75                        # ./streamcluster_cuda.cu:183:75
	addl	$1, %ecx
	.loc	1 183 64                        # ./streamcluster_cuda.cu:183:64
	imull	%ecx, %eax
	.loc	1 183 57                        # ./streamcluster_cuda.cu:183:57
	movslq	%eax, %rsi
	.loc	1 183 80                        # ./streamcluster_cuda.cu:183:80
	shlq	$2, %rsi
	.loc	1 183 24                        # ./streamcluster_cuda.cu:183:24
	leaq	work_mem_d(%rip), %rdi
	callq	cudaMalloc@PLT
	.loc	1 183 18                        # ./streamcluster_cuda.cu:183:18
	movl	%eax, -112(%rbp)
	.loc	1 183 102                       # ./streamcluster_cuda.cu:183:102
	xorl	%eax, %eax
.Ltmp84:
	.loc	1 183 114                       # ./streamcluster_cuda.cu:183:114
	cmpl	-112(%rbp), %eax
.Ltmp85:
	.loc	1 183 102                       # ./streamcluster_cuda.cu:183:102
	je	.LBB5_22
# %bb.21:                               # %if.then45
.Ltmp86:
	.loc	1 183 132                       # ./streamcluster_cuda.cu:183:132
	movq	stderr@GOTPCREL(%rip), %rax
	movq	(%rax), %rax
	movq	%rax, -344(%rbp)                # 8-byte Spill
	.loc	1 183 237                       # ./streamcluster_cuda.cu:183:237
	movl	-112(%rbp), %edi
	.loc	1 183 218                       # ./streamcluster_cuda.cu:183:218
	callq	cudaGetErrorString@PLT
	movq	-344(%rbp), %rdi                # 8-byte Reload
	movq	%rax, %r8
	.loc	1 183 124                       # ./streamcluster_cuda.cu:183:124
	leaq	.L.str(%rip), %rsi
	leaq	.L.str.1(%rip), %rdx
	movl	$184, %ecx
	movb	$0, %al
	callq	fprintf@PLT
	.loc	1 183 244                       # ./streamcluster_cuda.cu:183:244
	movl	$1, %edi
	callq	exit@PLT
.Ltmp87:
.LBB5_22:                               # %if.end48
	.loc	1 183 255                       # ./streamcluster_cuda.cu:183:255
	jmp	.LBB5_23
.Ltmp88:
.LBB5_23:                               # %do.end
	.loc	1 186 12 is_stmt 1              # ./streamcluster_cuda.cu:186:12
	cmpl	$0, _ZL4iter(%rip)
.Ltmp89:
	.loc	1 186 7 is_stmt 0               # ./streamcluster_cuda.cu:186:7
	jne	.LBB5_25
# %bb.24:                               # %if.then50
.Ltmp90:
	.loc	1 187 17 is_stmt 1              # ./streamcluster_cuda.cu:187:17
	movl	-84(%rbp), %edi
	.loc	1 187 22 is_stmt 0              # ./streamcluster_cuda.cu:187:22
	movl	-88(%rbp), %esi
	.loc	1 187 5                         # ./streamcluster_cuda.cu:187:5
	callq	_Z11allocDevMemii
.Ltmp91:
.LBB5_25:                               # %if.end51
	.loc	1 203 22 is_stmt 1              # ./streamcluster_cuda.cu:203:22
	testb	$1, -65(%rbp)
	jne	.LBB5_27
# %bb.26:                               # %lor.lhs.false53
	.loc	1 203 30 is_stmt 0              # ./streamcluster_cuda.cu:203:30
	cmpl	$0, _ZL4iter(%rip)
.Ltmp92:
	.loc	1 203 7                         # ./streamcluster_cuda.cu:203:7
	jne	.LBB5_32
.LBB5_27:                               # %if.then55
.Ltmp93:
	.loc	1 204 5 is_stmt 1               # ./streamcluster_cuda.cu:204:5
	jmp	.LBB5_28
.LBB5_28:                               # %do.body56
.Ltmp94:
	.loc	1 204 37 is_stmt 0              # ./streamcluster_cuda.cu:204:37
	movq	coord_d(%rip), %rdi
	.loc	1 204 46                        # ./streamcluster_cuda.cu:204:46
	movq	coord_h(%rip), %rsi
	.loc	1 204 55                        # ./streamcluster_cuda.cu:204:55
	movl	-84(%rbp), %eax
	.loc	1 204 59                        # ./streamcluster_cuda.cu:204:59
	imull	-88(%rbp), %eax
	.loc	1 204 55                        # ./streamcluster_cuda.cu:204:55
	movslq	%eax, %rdx
	.loc	1 204 65                        # ./streamcluster_cuda.cu:204:65
	shlq	$2, %rdx
	.loc	1 204 26                        # ./streamcluster_cuda.cu:204:26
	movl	$1, %ecx
	callq	cudaMemcpy@PLT
	.loc	1 204 20                        # ./streamcluster_cuda.cu:204:20
	movl	%eax, -116(%rbp)
	.loc	1 204 111                       # ./streamcluster_cuda.cu:204:111
	xorl	%eax, %eax
.Ltmp95:
	.loc	1 204 123                       # ./streamcluster_cuda.cu:204:123
	cmpl	-116(%rbp), %eax
.Ltmp96:
	.loc	1 204 111                       # ./streamcluster_cuda.cu:204:111
	je	.LBB5_30
# %bb.29:                               # %if.then63
.Ltmp97:
	.loc	1 204 141                       # ./streamcluster_cuda.cu:204:141
	movq	stderr@GOTPCREL(%rip), %rax
	movq	(%rax), %rax
	movq	%rax, -352(%rbp)                # 8-byte Spill
	.loc	1 204 246                       # ./streamcluster_cuda.cu:204:246
	movl	-116(%rbp), %edi
	.loc	1 204 227                       # ./streamcluster_cuda.cu:204:227
	callq	cudaGetErrorString@PLT
	movq	-352(%rbp), %rdi                # 8-byte Reload
	movq	%rax, %r8
	.loc	1 204 133                       # ./streamcluster_cuda.cu:204:133
	leaq	.L.str(%rip), %rsi
	leaq	.L.str.1(%rip), %rdx
	movl	$205, %ecx
	movb	$0, %al
	callq	fprintf@PLT
	.loc	1 204 253                       # ./streamcluster_cuda.cu:204:253
	movl	$1, %edi
	callq	exit@PLT
.Ltmp98:
.LBB5_30:                               # %if.end66
	.loc	1 204 264                       # ./streamcluster_cuda.cu:204:264
	jmp	.LBB5_31
.Ltmp99:
.LBB5_31:                               # %do.end67
	.loc	1 206 3 is_stmt 1               # ./streamcluster_cuda.cu:206:3
	jmp	.LBB5_32
.Ltmp100:
.LBB5_32:                               # %if.end68
	.loc	1 207 3                         # ./streamcluster_cuda.cu:207:3
	jmp	.LBB5_33
.LBB5_33:                               # %do.body69
.Ltmp101:
	.loc	1 207 35 is_stmt 0              # ./streamcluster_cuda.cu:207:35
	movq	center_table_d(%rip), %rdi
	.loc	1 207 51                        # ./streamcluster_cuda.cu:207:51
	movq	-64(%rbp), %rsi
	.loc	1 207 65                        # ./streamcluster_cuda.cu:207:65
	movslq	-84(%rbp), %rdx
	.loc	1 207 69                        # ./streamcluster_cuda.cu:207:69
	shlq	$2, %rdx
	.loc	1 207 24                        # ./streamcluster_cuda.cu:207:24
	movl	$1, %ecx
	callq	cudaMemcpy@PLT
	.loc	1 207 18                        # ./streamcluster_cuda.cu:207:18
	movl	%eax, -120(%rbp)
	.loc	1 207 113                       # ./streamcluster_cuda.cu:207:113
	xorl	%eax, %eax
.Ltmp102:
	.loc	1 207 125                       # ./streamcluster_cuda.cu:207:125
	cmpl	-120(%rbp), %eax
.Ltmp103:
	.loc	1 207 113                       # ./streamcluster_cuda.cu:207:113
	je	.LBB5_35
# %bb.34:                               # %if.then75
.Ltmp104:
	.loc	1 207 143                       # ./streamcluster_cuda.cu:207:143
	movq	stderr@GOTPCREL(%rip), %rax
	movq	(%rax), %rax
	movq	%rax, -360(%rbp)                # 8-byte Spill
	.loc	1 207 248                       # ./streamcluster_cuda.cu:207:248
	movl	-120(%rbp), %edi
	.loc	1 207 229                       # ./streamcluster_cuda.cu:207:229
	callq	cudaGetErrorString@PLT
	movq	-360(%rbp), %rdi                # 8-byte Reload
	movq	%rax, %r8
	.loc	1 207 135                       # ./streamcluster_cuda.cu:207:135
	leaq	.L.str(%rip), %rsi
	leaq	.L.str.1(%rip), %rdx
	movl	$208, %ecx
	movb	$0, %al
	callq	fprintf@PLT
	.loc	1 207 255                       # ./streamcluster_cuda.cu:207:255
	movl	$1, %edi
	callq	exit@PLT
.Ltmp105:
.LBB5_35:                               # %if.end78
	.loc	1 207 266                       # ./streamcluster_cuda.cu:207:266
	jmp	.LBB5_36
.Ltmp106:
.LBB5_36:                               # %do.end79
	.loc	1 209 3 is_stmt 1               # ./streamcluster_cuda.cu:209:3
	jmp	.LBB5_37
.LBB5_37:                               # %do.body80
.Ltmp107:
	.loc	1 209 35 is_stmt 0              # ./streamcluster_cuda.cu:209:35
	movq	p(%rip), %rdi
	.loc	1 209 38                        # ./streamcluster_cuda.cu:209:38
	movq	-24(%rbp), %rax
	.loc	1 209 46                        # ./streamcluster_cuda.cu:209:46
	movq	16(%rax), %rsi
	.loc	1 209 49                        # ./streamcluster_cuda.cu:209:49
	movslq	-84(%rbp), %rdx
	.loc	1 209 53                        # ./streamcluster_cuda.cu:209:53
	shlq	$5, %rdx
	.loc	1 209 24                        # ./streamcluster_cuda.cu:209:24
	movl	$1, %ecx
	callq	cudaMemcpy@PLT
	.loc	1 209 18                        # ./streamcluster_cuda.cu:209:18
	movl	%eax, -124(%rbp)
	.loc	1 209 99                        # ./streamcluster_cuda.cu:209:99
	xorl	%eax, %eax
.Ltmp108:
	.loc	1 209 111                       # ./streamcluster_cuda.cu:209:111
	cmpl	-124(%rbp), %eax
.Ltmp109:
	.loc	1 209 99                        # ./streamcluster_cuda.cu:209:99
	je	.LBB5_39
# %bb.38:                               # %if.then87
.Ltmp110:
	.loc	1 209 129                       # ./streamcluster_cuda.cu:209:129
	movq	stderr@GOTPCREL(%rip), %rax
	movq	(%rax), %rax
	movq	%rax, -368(%rbp)                # 8-byte Spill
	.loc	1 209 234                       # ./streamcluster_cuda.cu:209:234
	movl	-124(%rbp), %edi
	.loc	1 209 215                       # ./streamcluster_cuda.cu:209:215
	callq	cudaGetErrorString@PLT
	movq	-368(%rbp), %rdi                # 8-byte Reload
	movq	%rax, %r8
	.loc	1 209 121                       # ./streamcluster_cuda.cu:209:121
	leaq	.L.str(%rip), %rsi
	leaq	.L.str.1(%rip), %rdx
	movl	$210, %ecx
	movb	$0, %al
	callq	fprintf@PLT
	.loc	1 209 241                       # ./streamcluster_cuda.cu:209:241
	movl	$1, %edi
	callq	exit@PLT
.Ltmp111:
.LBB5_39:                               # %if.end90
	.loc	1 209 252                       # ./streamcluster_cuda.cu:209:252
	jmp	.LBB5_40
.Ltmp112:
.LBB5_40:                               # %do.end91
	.loc	1 212 3 is_stmt 1               # ./streamcluster_cuda.cu:212:3
	jmp	.LBB5_41
.LBB5_41:                               # %do.body92
.Ltmp113:
	.loc	1 212 43 is_stmt 0              # ./streamcluster_cuda.cu:212:43
	movq	switch_membership_d(%rip), %rdi
	.loc	1 212 67                        # ./streamcluster_cuda.cu:212:67
	movslq	-84(%rbp), %rdx
	.loc	1 212 71                        # ./streamcluster_cuda.cu:212:71
	shlq	$0, %rdx
	.loc	1 212 24                        # ./streamcluster_cuda.cu:212:24
	xorl	%esi, %esi
	callq	cudaMemset@PLT
	.loc	1 212 18                        # ./streamcluster_cuda.cu:212:18
	movl	%eax, -128(%rbp)
	.loc	1 212 92                        # ./streamcluster_cuda.cu:212:92
	xorl	%eax, %eax
.Ltmp114:
	.loc	1 212 104                       # ./streamcluster_cuda.cu:212:104
	cmpl	-128(%rbp), %eax
.Ltmp115:
	.loc	1 212 92                        # ./streamcluster_cuda.cu:212:92
	je	.LBB5_43
# %bb.42:                               # %if.then98
.Ltmp116:
	.loc	1 212 122                       # ./streamcluster_cuda.cu:212:122
	movq	stderr@GOTPCREL(%rip), %rax
	movq	(%rax), %rax
	movq	%rax, -376(%rbp)                # 8-byte Spill
	.loc	1 212 227                       # ./streamcluster_cuda.cu:212:227
	movl	-128(%rbp), %edi
	.loc	1 212 208                       # ./streamcluster_cuda.cu:212:208
	callq	cudaGetErrorString@PLT
	movq	-376(%rbp), %rdi                # 8-byte Reload
	movq	%rax, %r8
	.loc	1 212 114                       # ./streamcluster_cuda.cu:212:114
	leaq	.L.str(%rip), %rsi
	leaq	.L.str.1(%rip), %rdx
	movl	$213, %ecx
	movb	$0, %al
	callq	fprintf@PLT
	.loc	1 212 234                       # ./streamcluster_cuda.cu:212:234
	movl	$1, %edi
	callq	exit@PLT
.Ltmp117:
.LBB5_43:                               # %if.end101
	.loc	1 212 245                       # ./streamcluster_cuda.cu:212:245
	jmp	.LBB5_44
.Ltmp118:
.LBB5_44:                               # %do.end102
	.loc	1 214 3 is_stmt 1               # ./streamcluster_cuda.cu:214:3
	jmp	.LBB5_45
.LBB5_45:                               # %do.body103
.Ltmp119:
	.loc	1 214 43 is_stmt 0              # ./streamcluster_cuda.cu:214:43
	movq	work_mem_d(%rip), %rdi
	.loc	1 214 58                        # ./streamcluster_cuda.cu:214:58
	movl	-76(%rbp), %eax
	.loc	1 214 68                        # ./streamcluster_cuda.cu:214:68
	movl	-92(%rbp), %ecx
	.loc	1 214 76                        # ./streamcluster_cuda.cu:214:76
	addl	$1, %ecx
	.loc	1 214 65                        # ./streamcluster_cuda.cu:214:65
	imull	%ecx, %eax
	.loc	1 214 58                        # ./streamcluster_cuda.cu:214:58
	movslq	%eax, %rdx
	.loc	1 214 81                        # ./streamcluster_cuda.cu:214:81
	shlq	$2, %rdx
	.loc	1 214 24                        # ./streamcluster_cuda.cu:214:24
	xorl	%esi, %esi
	callq	cudaMemset@PLT
	.loc	1 214 18                        # ./streamcluster_cuda.cu:214:18
	movl	%eax, -132(%rbp)
	.loc	1 214 103                       # ./streamcluster_cuda.cu:214:103
	xorl	%eax, %eax
.Ltmp120:
	.loc	1 214 115                       # ./streamcluster_cuda.cu:214:115
	cmpl	-132(%rbp), %eax
.Ltmp121:
	.loc	1 214 103                       # ./streamcluster_cuda.cu:214:103
	je	.LBB5_47
# %bb.46:                               # %if.then111
.Ltmp122:
	.loc	1 214 133                       # ./streamcluster_cuda.cu:214:133
	movq	stderr@GOTPCREL(%rip), %rax
	movq	(%rax), %rax
	movq	%rax, -384(%rbp)                # 8-byte Spill
	.loc	1 214 238                       # ./streamcluster_cuda.cu:214:238
	movl	-132(%rbp), %edi
	.loc	1 214 219                       # ./streamcluster_cuda.cu:214:219
	callq	cudaGetErrorString@PLT
	movq	-384(%rbp), %rdi                # 8-byte Reload
	movq	%rax, %r8
	.loc	1 214 125                       # ./streamcluster_cuda.cu:214:125
	leaq	.L.str(%rip), %rsi
	leaq	.L.str.1(%rip), %rdx
	movl	$215, %ecx
	movb	$0, %al
	callq	fprintf@PLT
	.loc	1 214 245                       # ./streamcluster_cuda.cu:214:245
	movl	$1, %edi
	callq	exit@PLT
.Ltmp123:
.LBB5_47:                               # %if.end114
	.loc	1 214 256                       # ./streamcluster_cuda.cu:214:256
	jmp	.LBB5_48
.Ltmp124:
.LBB5_48:                               # %do.end115
	.loc	1 231 21 is_stmt 1              # ./streamcluster_cuda.cu:231:21
	movl	-84(%rbp), %eax
	.loc	1 231 25 is_stmt 0              # ./streamcluster_cuda.cu:231:25
	addl	$128, %eax
	.loc	1 231 31                        # ./streamcluster_cuda.cu:231:31
	subl	$1, %eax
	.loc	1 231 20                        # ./streamcluster_cuda.cu:231:20
	cvtsi2ss	%eax, %xmm0
	.loc	1 231 36                        # ./streamcluster_cuda.cu:231:36
	movss	.LCPI5_1(%rip), %xmm1           # xmm1 = [1.28E+2,0.0E+0,0.0E+0,0.0E+0]
	divss	%xmm1, %xmm0
	.loc	1 231 12                        # ./streamcluster_cuda.cu:231:12
	cvttss2si	%xmm0, %eax
	.loc	1 230 7 is_stmt 1               # ./streamcluster_cuda.cu:230:7
	movl	%eax, -136(%rbp)
	.loc	1 233 21                        # ./streamcluster_cuda.cu:233:21
	movl	-136(%rbp), %eax
	.loc	1 233 32 is_stmt 0              # ./streamcluster_cuda.cu:233:32
	addl	$65536, %eax                    # imm = 0x10000
	.loc	1 233 40                        # ./streamcluster_cuda.cu:233:40
	subl	$1, %eax
	.loc	1 233 20                        # ./streamcluster_cuda.cu:233:20
	cvtsi2ss	%eax, %xmm0
	.loc	1 233 45                        # ./streamcluster_cuda.cu:233:45
	movss	.LCPI5_0(%rip), %xmm1           # xmm1 = [6.5536E+4,0.0E+0,0.0E+0,0.0E+0]
	divss	%xmm1, %xmm0
	.loc	1 233 12                        # ./streamcluster_cuda.cu:233:12
	cvttss2si	%xmm0, %eax
	.loc	1 232 7 is_stmt 1               # ./streamcluster_cuda.cu:232:7
	movl	%eax, -140(%rbp)
	.loc	1 235 21                        # ./streamcluster_cuda.cu:235:21
	movl	-136(%rbp), %eax
	.loc	1 235 32 is_stmt 0              # ./streamcluster_cuda.cu:235:32
	addl	-140(%rbp), %eax
	.loc	1 235 47                        # ./streamcluster_cuda.cu:235:47
	subl	$1, %eax
	.loc	1 235 20                        # ./streamcluster_cuda.cu:235:20
	cvtsi2ss	%eax, %xmm0
	.loc	1 235 61                        # ./streamcluster_cuda.cu:235:61
	cvtsi2ssl	-140(%rbp), %xmm1
	.loc	1 235 52                        # ./streamcluster_cuda.cu:235:52
	divss	%xmm1, %xmm0
	.loc	1 235 12                        # ./streamcluster_cuda.cu:235:12
	cvttss2si	%xmm0, %eax
	.loc	1 234 7 is_stmt 1               # ./streamcluster_cuda.cu:234:7
	movl	%eax, -144(%rbp)
	.loc	1 236 18                        # ./streamcluster_cuda.cu:236:18
	movl	-144(%rbp), %esi
	.loc	1 236 32 is_stmt 0              # ./streamcluster_cuda.cu:236:32
	movl	-140(%rbp), %edx
	.loc	1 236 8                         # ./streamcluster_cuda.cu:236:8
	leaq	-156(%rbp), %rdi
	movl	$1, %ecx
	callq	_ZN4dim3C2Ejjj
	.loc	1 238 25 is_stmt 1              # ./streamcluster_cuda.cu:238:25
	movq	-156(%rbp), %rax
	movq	%rax, -168(%rbp)
	movl	-148(%rbp), %eax
	movl	%eax, -160(%rbp)
	.loc	1 238 36 is_stmt 0              # ./streamcluster_cuda.cu:238:36
	leaq	-180(%rbp), %rdi
	movl	$128, %esi
	movl	$1, %ecx
	movl	%ecx, %edx
	callq	_ZN4dim3C2Ejjj
	.loc	1 238 22                        # ./streamcluster_cuda.cu:238:22
	movq	-168(%rbp), %rax
	movq	%rax, -196(%rbp)
	movl	-160(%rbp), %eax
	movl	%eax, -188(%rbp)
	movq	-196(%rbp), %rdi
	movl	-188(%rbp), %esi
	movq	-180(%rbp), %rax
	movq	%rax, -212(%rbp)
	movl	-172(%rbp), %eax
	movl	%eax, -204(%rbp)
	movq	-212(%rbp), %rdx
	movl	-204(%rbp), %ecx
	xorl	%eax, %eax
	movl	%eax, %r9d
	movq	%r9, %r8
	callq	__cudaPushCallConfiguration@PLT
	cmpl	$0, %eax
	.loc	1 238 3                         # ./streamcluster_cuda.cu:238:3
	jne	.LBB5_50
# %bb.49:                               # %kcall.configok
	.loc	1 239 7 is_stmt 1               # ./streamcluster_cuda.cu:239:7
	movl	-84(%rbp), %edi
	.loc	1 240 7                         # ./streamcluster_cuda.cu:240:7
	movl	-88(%rbp), %esi
	.loc	1 241 7                         # ./streamcluster_cuda.cu:241:7
	movq	-16(%rbp), %rdx
	.loc	1 242 7                         # ./streamcluster_cuda.cu:242:7
	movq	p(%rip), %rcx
	.loc	1 243 7                         # ./streamcluster_cuda.cu:243:7
	movl	-80(%rbp), %r8d
	.loc	1 244 7                         # ./streamcluster_cuda.cu:244:7
	movl	-76(%rbp), %r9d
	.loc	1 245 7                         # ./streamcluster_cuda.cu:245:7
	movq	coord_d(%rip), %rbx
	.loc	1 246 7                         # ./streamcluster_cuda.cu:246:7
	movq	work_mem_d(%rip), %r11
	.loc	1 247 7                         # ./streamcluster_cuda.cu:247:7
	movq	center_table_d(%rip), %r10
	.loc	1 248 7                         # ./streamcluster_cuda.cu:248:7
	movq	switch_membership_d(%rip), %rax
	.loc	1 238 3                         # ./streamcluster_cuda.cu:238:3
	movq	%rbx, (%rsp)
	movq	%r11, 8(%rsp)
	movq	%r10, 16(%rsp)
	movq	%rax, 24(%rsp)
	callq	_Z34__device_stub__kernel_compute_costiilP5PointiiPfS1_PiPb
.LBB5_50:                               # %kcall.end
	.loc	1 250 3                         # ./streamcluster_cuda.cu:250:3
	callq	cudaThreadSynchronize@PLT
	.loc	1 253 11                        # ./streamcluster_cuda.cu:253:11
	callq	cudaGetLastError@PLT
	.loc	1 253 9 is_stmt 0               # ./streamcluster_cuda.cu:253:9
	movl	%eax, -72(%rbp)
.Ltmp125:
	.loc	1 254 13 is_stmt 1              # ./streamcluster_cuda.cu:254:13
	cmpl	$0, -72(%rbp)
.Ltmp126:
	.loc	1 254 7 is_stmt 0               # ./streamcluster_cuda.cu:254:7
	je	.LBB5_52
# %bb.51:                               # %if.then136
.Ltmp127:
	.loc	1 255 53 is_stmt 1              # ./streamcluster_cuda.cu:255:53
	movl	-72(%rbp), %edi
	.loc	1 255 34 is_stmt 0              # ./streamcluster_cuda.cu:255:34
	callq	cudaGetErrorString@PLT
	movq	%rax, %rsi
	.loc	1 255 5                         # ./streamcluster_cuda.cu:255:5
	leaq	.L.str.2(%rip), %rdi
	movb	$0, %al
	callq	printf@PLT
	.loc	1 256 5 is_stmt 1               # ./streamcluster_cuda.cu:256:5
	movl	$1, %edi
	callq	exit@PLT
.Ltmp128:
.LBB5_52:                               # %if.end139
	.loc	1 271 3                         # ./streamcluster_cuda.cu:271:3
	jmp	.LBB5_53
.LBB5_53:                               # %do.body140
.Ltmp129:
	.loc	1 271 35 is_stmt 0              # ./streamcluster_cuda.cu:271:35
	movq	work_mem_h(%rip), %rdi
	.loc	1 271 47                        # ./streamcluster_cuda.cu:271:47
	movq	work_mem_d(%rip), %rsi
	.loc	1 271 59                        # ./streamcluster_cuda.cu:271:59
	movl	-76(%rbp), %eax
	.loc	1 271 69                        # ./streamcluster_cuda.cu:271:69
	movl	-92(%rbp), %ecx
	.loc	1 271 77                        # ./streamcluster_cuda.cu:271:77
	addl	$1, %ecx
	.loc	1 271 66                        # ./streamcluster_cuda.cu:271:66
	imull	%ecx, %eax
	.loc	1 271 59                        # ./streamcluster_cuda.cu:271:59
	movslq	%eax, %rdx
	.loc	1 271 82                        # ./streamcluster_cuda.cu:271:82
	shlq	$2, %rdx
	.loc	1 271 24                        # ./streamcluster_cuda.cu:271:24
	movl	$2, %ecx
	callq	cudaMemcpy@PLT
	.loc	1 271 18                        # ./streamcluster_cuda.cu:271:18
	movl	%eax, -216(%rbp)
	.loc	1 271 128                       # ./streamcluster_cuda.cu:271:128
	xorl	%eax, %eax
.Ltmp130:
	.loc	1 271 140                       # ./streamcluster_cuda.cu:271:140
	cmpl	-216(%rbp), %eax
.Ltmp131:
	.loc	1 271 128                       # ./streamcluster_cuda.cu:271:128
	je	.LBB5_55
# %bb.54:                               # %if.then148
.Ltmp132:
	.loc	1 271 158                       # ./streamcluster_cuda.cu:271:158
	movq	stderr@GOTPCREL(%rip), %rax
	movq	(%rax), %rax
	movq	%rax, -392(%rbp)                # 8-byte Spill
	.loc	1 271 263                       # ./streamcluster_cuda.cu:271:263
	movl	-216(%rbp), %edi
	.loc	1 271 244                       # ./streamcluster_cuda.cu:271:244
	callq	cudaGetErrorString@PLT
	movq	-392(%rbp), %rdi                # 8-byte Reload
	movq	%rax, %r8
	.loc	1 271 150                       # ./streamcluster_cuda.cu:271:150
	leaq	.L.str(%rip), %rsi
	leaq	.L.str.1(%rip), %rdx
	movl	$273, %ecx                      # imm = 0x111
	movb	$0, %al
	callq	fprintf@PLT
	.loc	1 271 270                       # ./streamcluster_cuda.cu:271:270
	movl	$1, %edi
	callq	exit@PLT
.Ltmp133:
.LBB5_55:                               # %if.end151
	.loc	1 271 281                       # ./streamcluster_cuda.cu:271:281
	jmp	.LBB5_56
.Ltmp134:
.LBB5_56:                               # %do.end152
	.loc	1 274 3 is_stmt 1               # ./streamcluster_cuda.cu:274:3
	jmp	.LBB5_57
.LBB5_57:                               # %do.body153
.Ltmp135:
	.loc	1 274 35 is_stmt 0              # ./streamcluster_cuda.cu:274:35
	movq	16(%rbp), %rdi
	.loc	1 274 54                        # ./streamcluster_cuda.cu:274:54
	movq	switch_membership_d(%rip), %rsi
	.loc	1 274 75                        # ./streamcluster_cuda.cu:274:75
	movslq	-84(%rbp), %rdx
	.loc	1 274 79                        # ./streamcluster_cuda.cu:274:79
	shlq	$0, %rdx
	.loc	1 274 24                        # ./streamcluster_cuda.cu:274:24
	movl	$2, %ecx
	callq	cudaMemcpy@PLT
	.loc	1 274 18                        # ./streamcluster_cuda.cu:274:18
	movl	%eax, -220(%rbp)
	.loc	1 274 124                       # ./streamcluster_cuda.cu:274:124
	xorl	%eax, %eax
.Ltmp136:
	.loc	1 274 136                       # ./streamcluster_cuda.cu:274:136
	cmpl	-220(%rbp), %eax
.Ltmp137:
	.loc	1 274 124                       # ./streamcluster_cuda.cu:274:124
	je	.LBB5_59
# %bb.58:                               # %if.then159
.Ltmp138:
	.loc	1 274 154                       # ./streamcluster_cuda.cu:274:154
	movq	stderr@GOTPCREL(%rip), %rax
	movq	(%rax), %rax
	movq	%rax, -400(%rbp)                # 8-byte Spill
	.loc	1 274 259                       # ./streamcluster_cuda.cu:274:259
	movl	-220(%rbp), %edi
	.loc	1 274 240                       # ./streamcluster_cuda.cu:274:240
	callq	cudaGetErrorString@PLT
	movq	-400(%rbp), %rdi                # 8-byte Reload
	movq	%rax, %r8
	.loc	1 274 146                       # ./streamcluster_cuda.cu:274:146
	leaq	.L.str(%rip), %rsi
	leaq	.L.str.1(%rip), %rdx
	movl	$275, %ecx                      # imm = 0x113
	movb	$0, %al
	callq	fprintf@PLT
	.loc	1 274 266                       # ./streamcluster_cuda.cu:274:266
	movl	$1, %edi
	callq	exit@PLT
.Ltmp139:
.LBB5_59:                               # %if.end162
	.loc	1 274 277                       # ./streamcluster_cuda.cu:274:277
	jmp	.LBB5_60
.Ltmp140:
.LBB5_60:                               # %do.end163
	.loc	1 289 7 is_stmt 1               # ./streamcluster_cuda.cu:289:7
	movl	$0, -224(%rbp)
	.loc	1 290 32                        # ./streamcluster_cuda.cu:290:32
	movss	-28(%rbp), %xmm0                # xmm0 = mem[0],zero,zero,zero
	.loc	1 290 9 is_stmt 0               # ./streamcluster_cuda.cu:290:9
	movss	%xmm0, -228(%rbp)
	.loc	1 291 22 is_stmt 1              # ./streamcluster_cuda.cu:291:22
	movq	work_mem_h(%rip), %rax
	.loc	1 291 33 is_stmt 0              # ./streamcluster_cuda.cu:291:33
	movl	-76(%rbp), %ecx
	.loc	1 291 40                        # ./streamcluster_cuda.cu:291:40
	imull	-92(%rbp), %ecx
	.loc	1 291 22                        # ./streamcluster_cuda.cu:291:22
	movslq	%ecx, %rcx
	shlq	$2, %rcx
	addq	%rcx, %rax
	.loc	1 291 10                        # ./streamcluster_cuda.cu:291:10
	movq	%rax, -240(%rbp)
.Ltmp141:
	.loc	1 293 12 is_stmt 1              # ./streamcluster_cuda.cu:293:12
	movl	$0, -244(%rbp)
.LBB5_61:                               # %for.cond168
                                        # =>This Loop Header: Depth=1
                                        #     Child Loop BB5_64 Depth 2
.Ltmp142:
	.loc	1 293 19 is_stmt 0              # ./streamcluster_cuda.cu:293:19
	movl	-244(%rbp), %eax
	.loc	1 293 21                        # ./streamcluster_cuda.cu:293:21
	cmpl	-84(%rbp), %eax
.Ltmp143:
	.loc	1 293 3                         # ./streamcluster_cuda.cu:293:3
	jge	.LBB5_72
# %bb.62:                               # %for.body170
                                        #   in Loop: Header=BB5_61 Depth=1
.Ltmp144:
	.loc	1 294 9 is_stmt 1               # ./streamcluster_cuda.cu:294:9
	movq	-56(%rbp), %rax
	movslq	-244(%rbp), %rcx
.Ltmp145:
	.loc	1 294 9 is_stmt 0               # ./streamcluster_cuda.cu:294:9
	testb	$1, (%rax,%rcx)
	je	.LBB5_70
# %bb.63:                               # %if.then174
                                        #   in Loop: Header=BB5_61 Depth=1
.Ltmp146:
	.loc	1 295 19 is_stmt 1              # ./streamcluster_cuda.cu:295:19
	movss	-28(%rbp), %xmm0                # xmm0 = mem[0],zero,zero,zero
	.loc	1 295 13 is_stmt 0              # ./streamcluster_cuda.cu:295:13
	movss	%xmm0, -248(%rbp)
.Ltmp147:
	.loc	1 296 16 is_stmt 1              # ./streamcluster_cuda.cu:296:16
	movl	$0, -252(%rbp)
.LBB5_64:                               # %for.cond176
                                        #   Parent Loop BB5_61 Depth=1
                                        # =>  This Inner Loop Header: Depth=2
.Ltmp148:
	.loc	1 296 23 is_stmt 0              # ./streamcluster_cuda.cu:296:23
	movl	-252(%rbp), %eax
	.loc	1 296 25                        # ./streamcluster_cuda.cu:296:25
	cmpl	-84(%rbp), %eax
.Ltmp149:
	.loc	1 296 7                         # ./streamcluster_cuda.cu:296:7
	jge	.LBB5_67
# %bb.65:                               # %for.body178
                                        #   in Loop: Header=BB5_64 Depth=2
.Ltmp150:
	.loc	1 297 16 is_stmt 1              # ./streamcluster_cuda.cu:297:16
	movq	work_mem_h(%rip), %rax
	.loc	1 297 27 is_stmt 0              # ./streamcluster_cuda.cu:297:27
	movl	-252(%rbp), %ecx
	.loc	1 297 29                        # ./streamcluster_cuda.cu:297:29
	imull	-76(%rbp), %ecx
	.loc	1 297 40                        # ./streamcluster_cuda.cu:297:40
	movq	-64(%rbp), %rdx
	movslq	-244(%rbp), %rsi
	.loc	1 297 38                        # ./streamcluster_cuda.cu:297:38
	addl	(%rdx,%rsi,4), %ecx
	.loc	1 297 16                        # ./streamcluster_cuda.cu:297:16
	movslq	%ecx, %rcx
	movss	(%rax,%rcx,4), %xmm0            # xmm0 = mem[0],zero,zero,zero
	.loc	1 297 13                        # ./streamcluster_cuda.cu:297:13
	addss	-248(%rbp), %xmm0
	movss	%xmm0, -248(%rbp)
.Ltmp151:
# %bb.66:                               # %for.inc186
                                        #   in Loop: Header=BB5_64 Depth=2
	.loc	1 296 33 is_stmt 1              # ./streamcluster_cuda.cu:296:33
	movl	-252(%rbp), %eax
	addl	$1, %eax
	movl	%eax, -252(%rbp)
	.loc	1 296 7 is_stmt 0               # ./streamcluster_cuda.cu:296:7
	jmp	.LBB5_64
.Ltmp152:
.LBB5_67:                               # %for.end188
                                        #   in Loop: Header=BB5_61 Depth=1
	.loc	1 300 35 is_stmt 1              # ./streamcluster_cuda.cu:300:35
	movss	-248(%rbp), %xmm0               # xmm0 = mem[0],zero,zero,zero
	.loc	1 300 7 is_stmt 0               # ./streamcluster_cuda.cu:300:7
	movq	-240(%rbp), %rax
	.loc	1 300 16                        # ./streamcluster_cuda.cu:300:16
	movq	-64(%rbp), %rcx
	movslq	-244(%rbp), %rdx
	.loc	1 300 7                         # ./streamcluster_cuda.cu:300:7
	movslq	(%rcx,%rdx,4), %rcx
	.loc	1 300 33                        # ./streamcluster_cuda.cu:300:33
	movss	%xmm0, (%rax,%rcx,4)
.Ltmp153:
	.loc	1 302 11 is_stmt 1              # ./streamcluster_cuda.cu:302:11
	movss	-248(%rbp), %xmm0               # xmm0 = mem[0],zero,zero,zero
.Ltmp154:
	.loc	1 302 11 is_stmt 0              # ./streamcluster_cuda.cu:302:11
	xorps	%xmm1, %xmm1
.Ltmp155:
	.loc	1 302 15                        # ./streamcluster_cuda.cu:302:15
	ucomiss	%xmm1, %xmm0
.Ltmp156:
	.loc	1 302 11                        # ./streamcluster_cuda.cu:302:11
	jbe	.LBB5_69
# %bb.68:                               # %if.then194
                                        #   in Loop: Header=BB5_61 Depth=1
.Ltmp157:
	.loc	1 303 9 is_stmt 1               # ./streamcluster_cuda.cu:303:9
	movl	-224(%rbp), %eax
	addl	$1, %eax
	movl	%eax, -224(%rbp)
	.loc	1 304 39                        # ./streamcluster_cuda.cu:304:39
	movss	-248(%rbp), %xmm1               # xmm1 = mem[0],zero,zero,zero
	.loc	1 304 9 is_stmt 0               # ./streamcluster_cuda.cu:304:9
	movq	work_mem_h(%rip), %rax
	.loc	1 304 20                        # ./streamcluster_cuda.cu:304:20
	movl	-244(%rbp), %ecx
	.loc	1 304 22                        # ./streamcluster_cuda.cu:304:22
	imull	-76(%rbp), %ecx
	.loc	1 304 31                        # ./streamcluster_cuda.cu:304:31
	addl	-80(%rbp), %ecx
	.loc	1 304 9                         # ./streamcluster_cuda.cu:304:9
	movslq	%ecx, %rcx
	.loc	1 304 36                        # ./streamcluster_cuda.cu:304:36
	movss	(%rax,%rcx,4), %xmm0            # xmm0 = mem[0],zero,zero,zero
	subss	%xmm1, %xmm0
	movss	%xmm0, (%rax,%rcx,4)
.Ltmp158:
.LBB5_69:                               # %if.end201
                                        #   in Loop: Header=BB5_61 Depth=1
	.loc	1 306 5 is_stmt 1               # ./streamcluster_cuda.cu:306:5
	jmp	.LBB5_70
.Ltmp159:
.LBB5_70:                               # %if.end202
                                        #   in Loop: Header=BB5_61 Depth=1
	.loc	1 307 29                        # ./streamcluster_cuda.cu:307:29
	movq	work_mem_h(%rip), %rax
	.loc	1 307 40 is_stmt 0              # ./streamcluster_cuda.cu:307:40
	movl	-244(%rbp), %ecx
	.loc	1 307 42                        # ./streamcluster_cuda.cu:307:42
	imull	-76(%rbp), %ecx
	.loc	1 307 51                        # ./streamcluster_cuda.cu:307:51
	addl	-80(%rbp), %ecx
	.loc	1 307 29                        # ./streamcluster_cuda.cu:307:29
	movslq	%ecx, %rcx
	movss	(%rax,%rcx,4), %xmm0            # xmm0 = mem[0],zero,zero,zero
	.loc	1 307 26                        # ./streamcluster_cuda.cu:307:26
	addss	-228(%rbp), %xmm0
	movss	%xmm0, -228(%rbp)
.Ltmp160:
# %bb.71:                               # %for.inc208
                                        #   in Loop: Header=BB5_61 Depth=1
	.loc	1 293 29 is_stmt 1              # ./streamcluster_cuda.cu:293:29
	movl	-244(%rbp), %eax
	addl	$1, %eax
	movl	%eax, -244(%rbp)
	.loc	1 293 3 is_stmt 0               # ./streamcluster_cuda.cu:293:3
	jmp	.LBB5_61
.Ltmp161:
.LBB5_72:                               # %for.end210
	.loc	1 312 7 is_stmt 1               # ./streamcluster_cuda.cu:312:7
	xorps	%xmm0, %xmm0
.Ltmp162:
	.loc	1 312 28 is_stmt 0              # ./streamcluster_cuda.cu:312:28
	ucomiss	-228(%rbp), %xmm0
.Ltmp163:
	.loc	1 312 7                         # ./streamcluster_cuda.cu:312:7
	jbe	.LBB5_91
# %bb.73:                               # %if.then212
.Ltmp164:
	.loc	1 313 14 is_stmt 1              # ./streamcluster_cuda.cu:313:14
	movl	$0, -256(%rbp)
.LBB5_74:                               # %for.cond214
                                        # =>This Inner Loop Header: Depth=1
.Ltmp165:
	.loc	1 313 21 is_stmt 0              # ./streamcluster_cuda.cu:313:21
	movl	-256(%rbp), %eax
	.loc	1 313 23                        # ./streamcluster_cuda.cu:313:23
	cmpl	-84(%rbp), %eax
.Ltmp166:
	.loc	1 313 5                         # ./streamcluster_cuda.cu:313:5
	jge	.LBB5_80
# %bb.75:                               # %for.body216
                                        #   in Loop: Header=BB5_74 Depth=1
.Ltmp167:
	.loc	1 314 27 is_stmt 1              # ./streamcluster_cuda.cu:314:27
	movq	-240(%rbp), %rax
	.loc	1 314 36 is_stmt 0              # ./streamcluster_cuda.cu:314:36
	movq	-64(%rbp), %rcx
	.loc	1 314 49                        # ./streamcluster_cuda.cu:314:49
	movq	-24(%rbp), %rdx
	.loc	1 314 57                        # ./streamcluster_cuda.cu:314:57
	movq	16(%rdx), %rdx
	.loc	1 314 49                        # ./streamcluster_cuda.cu:314:49
	movslq	-256(%rbp), %rsi
	shlq	$5, %rsi
	addq	%rsi, %rdx
	.loc	1 314 62                        # ./streamcluster_cuda.cu:314:62
	movq	16(%rdx), %rdx
	.loc	1 314 27                        # ./streamcluster_cuda.cu:314:27
	movslq	(%rcx,%rdx,4), %rcx
	movss	(%rax,%rcx,4), %xmm0            # xmm0 = mem[0],zero,zero,zero
	.loc	1 314 71                        # ./streamcluster_cuda.cu:314:71
	xorps	%xmm1, %xmm1
	ucomiss	%xmm1, %xmm0
	seta	%al
	.loc	1 314 12                        # ./streamcluster_cuda.cu:314:12
	andb	$1, %al
	movb	%al, -257(%rbp)
.Ltmp168:
	.loc	1 315 11 is_stmt 1              # ./streamcluster_cuda.cu:315:11
	movq	16(%rbp), %rax
	movslq	-256(%rbp), %rcx
	.loc	1 315 32 is_stmt 0              # ./streamcluster_cuda.cu:315:32
	testb	$1, (%rax,%rcx)
	jne	.LBB5_77
.Ltmp169:
# %bb.76:                               # %lor.lhs.false228
                                        #   in Loop: Header=BB5_74 Depth=1
	.loc	1 315 11                        # ./streamcluster_cuda.cu:315:11
	testb	$1, -257(%rbp)
	je	.LBB5_78
.LBB5_77:                               # %if.then230
                                        #   in Loop: Header=BB5_74 Depth=1
.Ltmp170:
	.loc	1 317 18 is_stmt 1              # ./streamcluster_cuda.cu:317:18
	movq	-24(%rbp), %rax
	.loc	1 317 26 is_stmt 0              # ./streamcluster_cuda.cu:317:26
	movq	16(%rax), %rax
	.loc	1 317 18                        # ./streamcluster_cuda.cu:317:18
	movslq	-256(%rbp), %rcx
	shlq	$5, %rcx
	addq	%rcx, %rax
	movq	(%rax), %rcx
	movq	%rcx, -296(%rbp)
	movq	8(%rax), %rcx
	movq	%rcx, -288(%rbp)
	movq	16(%rax), %rcx
	movq	%rcx, -280(%rbp)
	movq	24(%rax), %rax
	movq	%rax, -272(%rbp)
	.loc	1 317 32                        # ./streamcluster_cuda.cu:317:32
	movq	-24(%rbp), %rax
	.loc	1 317 40                        # ./streamcluster_cuda.cu:317:40
	movq	16(%rax), %rax
	.loc	1 317 42                        # ./streamcluster_cuda.cu:317:42
	movq	-16(%rbp), %rcx
	.loc	1 317 32                        # ./streamcluster_cuda.cu:317:32
	shlq	$5, %rcx
	addq	%rcx, %rax
	movq	(%rax), %rcx
	movq	%rcx, -328(%rbp)
	movq	8(%rax), %rcx
	movq	%rcx, -320(%rbp)
	movq	16(%rax), %rcx
	movq	%rcx, -312(%rbp)
	movq	24(%rax), %rax
	movq	%rax, -304(%rbp)
	.loc	1 317 46                        # ./streamcluster_cuda.cu:317:46
	movl	-88(%rbp), %edi
	.loc	1 317 13                        # ./streamcluster_cuda.cu:317:13
	leaq	-296(%rbp), %rcx
	leaq	-328(%rbp), %rax
	movq	(%rcx), %rdx
	movq	%rdx, (%rsp)
	movq	8(%rcx), %rdx
	movq	%rdx, 8(%rsp)
	movq	16(%rcx), %rdx
	movq	%rdx, 16(%rsp)
	movq	24(%rcx), %rcx
	movq	%rcx, 24(%rsp)
	movq	(%rax), %rcx
	movq	%rcx, 32(%rsp)
	movq	8(%rax), %rcx
	movq	%rcx, 40(%rsp)
	movq	16(%rax), %rcx
	movq	%rcx, 48(%rsp)
	movq	24(%rax), %rax
	movq	%rax, 56(%rsp)
	callq	_Z4dist5PointS_i
	.loc	1 317 53                        # ./streamcluster_cuda.cu:317:53
	movq	-24(%rbp), %rax
	.loc	1 317 61                        # ./streamcluster_cuda.cu:317:61
	movq	16(%rax), %rax
	.loc	1 317 53                        # ./streamcluster_cuda.cu:317:53
	movslq	-256(%rbp), %rcx
	shlq	$5, %rcx
	addq	%rcx, %rax
	.loc	1 317 51                        # ./streamcluster_cuda.cu:317:51
	mulss	(%rax), %xmm0
	.loc	1 316 9 is_stmt 1               # ./streamcluster_cuda.cu:316:9
	movq	-24(%rbp), %rax
	.loc	1 316 17 is_stmt 0              # ./streamcluster_cuda.cu:316:17
	movq	16(%rax), %rax
	.loc	1 316 9                         # ./streamcluster_cuda.cu:316:9
	movslq	-256(%rbp), %rcx
	shlq	$5, %rcx
	addq	%rcx, %rax
	.loc	1 316 27                        # ./streamcluster_cuda.cu:316:27
	movss	%xmm0, 24(%rax)
	.loc	1 318 31 is_stmt 1              # ./streamcluster_cuda.cu:318:31
	movq	-16(%rbp), %rcx
	.loc	1 318 9 is_stmt 0               # ./streamcluster_cuda.cu:318:9
	movq	-24(%rbp), %rax
	.loc	1 318 17                        # ./streamcluster_cuda.cu:318:17
	movq	16(%rax), %rax
	.loc	1 318 9                         # ./streamcluster_cuda.cu:318:9
	movslq	-256(%rbp), %rdx
	shlq	$5, %rdx
	addq	%rdx, %rax
	.loc	1 318 29                        # ./streamcluster_cuda.cu:318:29
	movq	%rcx, 16(%rax)
.Ltmp171:
.LBB5_78:                               # %if.end250
                                        #   in Loop: Header=BB5_74 Depth=1
	.loc	1 320 5 is_stmt 1               # ./streamcluster_cuda.cu:320:5
	jmp	.LBB5_79
.Ltmp172:
.LBB5_79:                               # %for.inc251
                                        #   in Loop: Header=BB5_74 Depth=1
	.loc	1 313 31                        # ./streamcluster_cuda.cu:313:31
	movl	-256(%rbp), %eax
	addl	$1, %eax
	movl	%eax, -256(%rbp)
	.loc	1 313 5 is_stmt 0               # ./streamcluster_cuda.cu:313:5
	jmp	.LBB5_74
.Ltmp173:
.LBB5_80:                               # %for.end253
	.loc	1 322 14 is_stmt 1              # ./streamcluster_cuda.cu:322:14
	movl	$0, -332(%rbp)
.LBB5_81:                               # %for.cond255
                                        # =>This Inner Loop Header: Depth=1
.Ltmp174:
	.loc	1 322 21 is_stmt 0              # ./streamcluster_cuda.cu:322:21
	movl	-332(%rbp), %eax
	.loc	1 322 23                        # ./streamcluster_cuda.cu:322:23
	cmpl	-84(%rbp), %eax
.Ltmp175:
	.loc	1 322 5                         # ./streamcluster_cuda.cu:322:5
	jge	.LBB5_87
# %bb.82:                               # %for.body257
                                        #   in Loop: Header=BB5_81 Depth=1
.Ltmp176:
	.loc	1 323 11 is_stmt 1              # ./streamcluster_cuda.cu:323:11
	movq	-56(%rbp), %rax
	movslq	-332(%rbp), %rcx
	.loc	1 323 24 is_stmt 0              # ./streamcluster_cuda.cu:323:24
	testb	$1, (%rax,%rcx)
	je	.LBB5_85
# %bb.83:                               # %land.lhs.true
                                        #   in Loop: Header=BB5_81 Depth=1
	.loc	1 323 27                        # ./streamcluster_cuda.cu:323:27
	movq	-240(%rbp), %rax
	.loc	1 323 36                        # ./streamcluster_cuda.cu:323:36
	movq	-64(%rbp), %rcx
	movslq	-332(%rbp), %rdx
	.loc	1 323 27                        # ./streamcluster_cuda.cu:323:27
	movslq	(%rcx,%rdx,4), %rcx
	movss	(%rax,%rcx,4), %xmm0            # xmm0 = mem[0],zero,zero,zero
.Ltmp177:
	.loc	1 323 11                        # ./streamcluster_cuda.cu:323:11
	xorps	%xmm1, %xmm1
.Ltmp178:
	.loc	1 323 53                        # ./streamcluster_cuda.cu:323:53
	ucomiss	%xmm1, %xmm0
.Ltmp179:
	.loc	1 323 11                        # ./streamcluster_cuda.cu:323:11
	jbe	.LBB5_85
# %bb.84:                               # %if.then266
                                        #   in Loop: Header=BB5_81 Depth=1
.Ltmp180:
	.loc	1 324 9 is_stmt 1               # ./streamcluster_cuda.cu:324:9
	movq	-56(%rbp), %rax
	movslq	-332(%rbp), %rcx
	.loc	1 324 22 is_stmt 0              # ./streamcluster_cuda.cu:324:22
	movb	$0, (%rax,%rcx)
.Ltmp181:
.LBB5_85:                               # %if.end269
                                        #   in Loop: Header=BB5_81 Depth=1
	.loc	1 326 5 is_stmt 1               # ./streamcluster_cuda.cu:326:5
	jmp	.LBB5_86
.Ltmp182:
.LBB5_86:                               # %for.inc270
                                        #   in Loop: Header=BB5_81 Depth=1
	.loc	1 322 31                        # ./streamcluster_cuda.cu:322:31
	movl	-332(%rbp), %eax
	addl	$1, %eax
	movl	%eax, -332(%rbp)
	.loc	1 322 5 is_stmt 0               # ./streamcluster_cuda.cu:322:5
	jmp	.LBB5_81
.Ltmp183:
.LBB5_87:                               # %for.end272
	.loc	1 328 11 is_stmt 1              # ./streamcluster_cuda.cu:328:11
	cmpq	$0, -16(%rbp)
	.loc	1 328 16 is_stmt 0              # ./streamcluster_cuda.cu:328:16
	jl	.LBB5_90
# %bb.88:                               # %land.lhs.true274
	.loc	1 328 19                        # ./streamcluster_cuda.cu:328:19
	movq	-16(%rbp), %rax
	.loc	1 328 23                        # ./streamcluster_cuda.cu:328:23
	movslq	-84(%rbp), %rcx
	.loc	1 328 21                        # ./streamcluster_cuda.cu:328:21
	cmpq	%rcx, %rax
.Ltmp184:
	.loc	1 328 9                         # ./streamcluster_cuda.cu:328:9
	jge	.LBB5_90
# %bb.89:                               # %if.then277
.Ltmp185:
	.loc	1 329 7 is_stmt 1               # ./streamcluster_cuda.cu:329:7
	movq	-56(%rbp), %rax
	.loc	1 329 17 is_stmt 0              # ./streamcluster_cuda.cu:329:17
	movq	-16(%rbp), %rcx
	.loc	1 329 20                        # ./streamcluster_cuda.cu:329:20
	movb	$1, (%rax,%rcx)
.Ltmp186:
.LBB5_90:                               # %if.end279
	.loc	1 331 20 is_stmt 1              # ./streamcluster_cuda.cu:331:20
	movq	-40(%rbp), %rax
	.loc	1 331 19 is_stmt 0              # ./streamcluster_cuda.cu:331:19
	movq	(%rax), %rcx
	.loc	1 331 31                        # ./streamcluster_cuda.cu:331:31
	addq	$1, %rcx
	.loc	1 331 37                        # ./streamcluster_cuda.cu:331:37
	movslq	-224(%rbp), %rax
	.loc	1 331 35                        # ./streamcluster_cuda.cu:331:35
	subq	%rax, %rcx
	.loc	1 331 6                         # ./streamcluster_cuda.cu:331:6
	movq	-40(%rbp), %rax
	.loc	1 331 17                        # ./streamcluster_cuda.cu:331:17
	movq	%rcx, (%rax)
	.loc	1 332 3 is_stmt 1               # ./streamcluster_cuda.cu:332:3
	jmp	.LBB5_92
.Ltmp187:
.LBB5_91:                               # %if.else
	.loc	1 333 26                        # ./streamcluster_cuda.cu:333:26
	xorps	%xmm0, %xmm0
	movss	%xmm0, -228(%rbp)
.Ltmp188:
.LBB5_92:                               # %if.end283
	.loc	1 339 8                         # ./streamcluster_cuda.cu:339:8
	movq	work_mem_h(%rip), %rdi
	.loc	1 339 3 is_stmt 0               # ./streamcluster_cuda.cu:339:3
	callq	free@PLT
# %bb.93:                               # %do.body284
.Ltmp189:
	.loc	1 353 33 is_stmt 1              # ./streamcluster_cuda.cu:353:33
	movq	work_mem_d(%rip), %rdi
	.loc	1 353 24 is_stmt 0              # ./streamcluster_cuda.cu:353:24
	callq	cudaFree@PLT
	.loc	1 353 18                        # ./streamcluster_cuda.cu:353:18
	movl	%eax, -336(%rbp)
	.loc	1 353 50                        # ./streamcluster_cuda.cu:353:50
	xorl	%eax, %eax
.Ltmp190:
	.loc	1 353 62                        # ./streamcluster_cuda.cu:353:62
	cmpl	-336(%rbp), %eax
.Ltmp191:
	.loc	1 353 50                        # ./streamcluster_cuda.cu:353:50
	je	.LBB5_95
# %bb.94:                               # %if.then288
.Ltmp192:
	.loc	1 353 80                        # ./streamcluster_cuda.cu:353:80
	movq	stderr@GOTPCREL(%rip), %rax
	movq	(%rax), %rax
	movq	%rax, -408(%rbp)                # 8-byte Spill
	.loc	1 353 185                       # ./streamcluster_cuda.cu:353:185
	movl	-336(%rbp), %edi
	.loc	1 353 166                       # ./streamcluster_cuda.cu:353:166
	callq	cudaGetErrorString@PLT
	movq	-408(%rbp), %rdi                # 8-byte Reload
	movq	%rax, %r8
	.loc	1 353 72                        # ./streamcluster_cuda.cu:353:72
	leaq	.L.str(%rip), %rsi
	leaq	.L.str.1(%rip), %rdx
	movl	$353, %ecx                      # imm = 0x161
	movb	$0, %al
	callq	fprintf@PLT
	.loc	1 353 192                       # ./streamcluster_cuda.cu:353:192
	movl	$1, %edi
	callq	exit@PLT
.Ltmp193:
.LBB5_95:                               # %if.end291
	.loc	1 353 203                       # ./streamcluster_cuda.cu:353:203
	jmp	.LBB5_96
.Ltmp194:
.LBB5_96:                               # %do.end292
	.loc	1 361 7 is_stmt 1               # ./streamcluster_cuda.cu:361:7
	movl	_ZL4iter(%rip), %eax
	addl	$1, %eax
	movl	%eax, _ZL4iter(%rip)
	.loc	1 362 11                        # ./streamcluster_cuda.cu:362:11
	movss	-228(%rbp), %xmm0               # xmm0 = mem[0],zero,zero,zero
	.loc	1 362 10 is_stmt 0              # ./streamcluster_cuda.cu:362:10
	movd	%xmm0, %eax
	xorl	$2147483648, %eax               # imm = 0x80000000
	movd	%eax, %xmm0
	.loc	1 362 3 epilogue_begin          # ./streamcluster_cuda.cu:362:3
	addq	$472, %rsp                      # imm = 0x1D8
	popq	%rbx
	popq	%rbp
	.cfi_def_cfa %rsp, 8
	retq
.Ltmp195:
.Lfunc_end5:
	.size	_Z5pgainlP6PointsfPliPbPiS2_bPdS4_S4_S4_S4_S4_, .Lfunc_end5-_Z5pgainlP6PointsfPliPbPiS2_bPdS4_S4_S4_S4_S4_
	.cfi_endproc
                                        # -- End function
	.section	.text._ZN4dim3C2Ejjj,"axG",@progbits,_ZN4dim3C2Ejjj,comdat
	.weak	_ZN4dim3C2Ejjj                  # -- Begin function _ZN4dim3C2Ejjj
	.p2align	4, 0x90
	.type	_ZN4dim3C2Ejjj,@function
_ZN4dim3C2Ejjj:                         # @_ZN4dim3C2Ejjj
.Lfunc_begin6:
	.loc	7 423 0 is_stmt 1               # cuda-12.1/include/vector_types.h:423:0
	.cfi_startproc
# %bb.0:                                # %entry
	pushq	%rbp
	.cfi_def_cfa_offset 16
	.cfi_offset %rbp, -16
	movq	%rsp, %rbp
	.cfi_def_cfa_register %rbp
	movq	%rdi, -8(%rbp)
	movl	%esi, -12(%rbp)
	movl	%edx, -16(%rbp)
	movl	%ecx, -20(%rbp)
	movq	-8(%rbp), %rax
.Ltmp196:
	.loc	7 423 133 prologue_end          # cuda-12.1/include/vector_types.h:423:133
	movl	-12(%rbp), %ecx
	.loc	7 423 131 is_stmt 0             # cuda-12.1/include/vector_types.h:423:131
	movl	%ecx, (%rax)
	.loc	7 423 140                       # cuda-12.1/include/vector_types.h:423:140
	movl	-16(%rbp), %ecx
	.loc	7 423 138                       # cuda-12.1/include/vector_types.h:423:138
	movl	%ecx, 4(%rax)
	.loc	7 423 147                       # cuda-12.1/include/vector_types.h:423:147
	movl	-20(%rbp), %ecx
	.loc	7 423 145                       # cuda-12.1/include/vector_types.h:423:145
	movl	%ecx, 8(%rax)
	.loc	7 423 152 epilogue_begin        # cuda-12.1/include/vector_types.h:423:152
	popq	%rbp
	.cfi_def_cfa %rsp, 8
	retq
.Ltmp197:
.Lfunc_end6:
	.size	_ZN4dim3C2Ejjj, .Lfunc_end6-_ZN4dim3C2Ejjj
	.cfi_endproc
                                        # -- End function
	.text
	.globl	_Z4dist5PointS_i                # -- Begin function _Z4dist5PointS_i
	.p2align	4, 0x90
	.type	_Z4dist5PointS_i,@function
_Z4dist5PointS_i:                       # @_Z4dist5PointS_i
.Lfunc_begin7:
	.loc	3 148 0 is_stmt 1               # ./streamcluster_cuda_cpu.cu:148:0
	.cfi_startproc
# %bb.0:                                # %entry
	pushq	%rbp
	.cfi_def_cfa_offset 16
	.cfi_offset %rbp, -16
	movq	%rsp, %rbp
	.cfi_def_cfa_register %rbp
	leaq	48(%rbp), %rax
	movq	%rax, -32(%rbp)                 # 8-byte Spill
	leaq	16(%rbp), %rax
	movq	%rax, -24(%rbp)                 # 8-byte Spill
	movl	%edi, -4(%rbp)
.Ltmp198:
	.loc	3 150 9 prologue_end            # ./streamcluster_cuda_cpu.cu:150:9
	xorps	%xmm0, %xmm0
	movss	%xmm0, -12(%rbp)
.Ltmp199:
	.loc	3 151 10                        # ./streamcluster_cuda_cpu.cu:151:10
	movl	$0, -8(%rbp)
.LBB7_1:                                # %for.cond
                                        # =>This Inner Loop Header: Depth=1
.Ltmp200:
	.loc	3 151 15 is_stmt 0              # ./streamcluster_cuda_cpu.cu:151:15
	movl	-8(%rbp), %eax
	.loc	3 151 17                        # ./streamcluster_cuda_cpu.cu:151:17
	cmpl	-4(%rbp), %eax
.Ltmp201:
	.loc	3 151 3                         # ./streamcluster_cuda_cpu.cu:151:3
	jge	.LBB7_4
# %bb.2:                                # %for.body
                                        #   in Loop: Header=BB7_1 Depth=1
	.loc	3 0 3                           # ./streamcluster_cuda_cpu.cu:0:3
	movq	-32(%rbp), %rax                 # 8-byte Reload
	movq	-24(%rbp), %rcx                 # 8-byte Reload
.Ltmp202:
	.loc	3 152 19 is_stmt 1              # ./streamcluster_cuda_cpu.cu:152:19
	movq	8(%rcx), %rdx
	.loc	3 152 16 is_stmt 0              # ./streamcluster_cuda_cpu.cu:152:16
	movslq	-8(%rbp), %rsi
	movss	(%rdx,%rsi,4), %xmm0            # xmm0 = mem[0],zero,zero,zero
	.loc	3 152 33                        # ./streamcluster_cuda_cpu.cu:152:33
	movq	8(%rax), %rdx
	.loc	3 152 30                        # ./streamcluster_cuda_cpu.cu:152:30
	movslq	-8(%rbp), %rsi
	.loc	3 152 28                        # ./streamcluster_cuda_cpu.cu:152:28
	subss	(%rdx,%rsi,4), %xmm0
	.loc	3 152 49                        # ./streamcluster_cuda_cpu.cu:152:49
	movq	8(%rcx), %rcx
	.loc	3 152 46                        # ./streamcluster_cuda_cpu.cu:152:46
	movslq	-8(%rbp), %rdx
	movss	(%rcx,%rdx,4), %xmm2            # xmm2 = mem[0],zero,zero,zero
	.loc	3 152 63                        # ./streamcluster_cuda_cpu.cu:152:63
	movq	8(%rax), %rax
	.loc	3 152 60                        # ./streamcluster_cuda_cpu.cu:152:60
	movslq	-8(%rbp), %rcx
	.loc	3 152 58                        # ./streamcluster_cuda_cpu.cu:152:58
	subss	(%rax,%rcx,4), %xmm2
	.loc	3 152 12                        # ./streamcluster_cuda_cpu.cu:152:12
	movss	-12(%rbp), %xmm1                # xmm1 = mem[0],zero,zero,zero
	mulss	%xmm2, %xmm0
	addss	%xmm1, %xmm0
	movss	%xmm0, -12(%rbp)
# %bb.3:                                # %for.inc
                                        #   in Loop: Header=BB7_1 Depth=1
	.loc	3 151 25 is_stmt 1              # ./streamcluster_cuda_cpu.cu:151:25
	movl	-8(%rbp), %eax
	addl	$1, %eax
	movl	%eax, -8(%rbp)
	.loc	3 151 3 is_stmt 0               # ./streamcluster_cuda_cpu.cu:151:3
	jmp	.LBB7_1
.Ltmp203:
.LBB7_4:                                # %for.end
	.loc	3 158 11 is_stmt 1              # ./streamcluster_cuda_cpu.cu:158:11
	movss	-12(%rbp), %xmm0                # xmm0 = mem[0],zero,zero,zero
	.loc	3 158 3 epilogue_begin is_stmt 0 # ./streamcluster_cuda_cpu.cu:158:3
	popq	%rbp
	.cfi_def_cfa %rsp, 8
	retq
.Ltmp204:
.Lfunc_end7:
	.size	_Z4dist5PointS_i, .Lfunc_end7-_Z4dist5PointS_i
	.cfi_endproc
                                        # -- End function
	.globl	_Z9inttofileiPc                 # -- Begin function _Z9inttofileiPc
	.p2align	4, 0x90
	.type	_Z9inttofileiPc,@function
_Z9inttofileiPc:                        # @_Z9inttofileiPc
.Lfunc_begin8:
	.loc	3 58 0 is_stmt 1                # ./streamcluster_cuda_cpu.cu:58:0
	.cfi_startproc
# %bb.0:                                # %entry
	pushq	%rbp
	.cfi_def_cfa_offset 16
	.cfi_offset %rbp, -16
	movq	%rsp, %rbp
	.cfi_def_cfa_register %rbp
	subq	$32, %rsp
	movl	%edi, -4(%rbp)
	movq	%rsi, -16(%rbp)
.Ltmp205:
	.loc	3 59 20 prologue_end            # ./streamcluster_cuda_cpu.cu:59:20
	movq	-16(%rbp), %rdi
	.loc	3 59 14 is_stmt 0               # ./streamcluster_cuda_cpu.cu:59:14
	leaq	.L.str.3(%rip), %rsi
	callq	fopen@PLT
	.loc	3 59 9                          # ./streamcluster_cuda_cpu.cu:59:9
	movq	%rax, -24(%rbp)
	.loc	3 60 11 is_stmt 1               # ./streamcluster_cuda_cpu.cu:60:11
	movq	-24(%rbp), %rdi
	.loc	3 60 22 is_stmt 0               # ./streamcluster_cuda_cpu.cu:60:22
	movl	-4(%rbp), %edx
	.loc	3 60 3                          # ./streamcluster_cuda_cpu.cu:60:3
	leaq	.L.str.4(%rip), %rsi
	movb	$0, %al
	callq	fprintf@PLT
	.loc	3 61 10 is_stmt 1               # ./streamcluster_cuda_cpu.cu:61:10
	movq	-24(%rbp), %rdi
	.loc	3 61 3 is_stmt 0                # ./streamcluster_cuda_cpu.cu:61:3
	callq	fclose@PLT
	.loc	3 62 1 epilogue_begin is_stmt 1 # ./streamcluster_cuda_cpu.cu:62:1
	addq	$32, %rsp
	popq	%rbp
	.cfi_def_cfa %rsp, 8
	retq
.Ltmp206:
.Lfunc_end8:
	.size	_Z9inttofileiPc, .Lfunc_end8-_Z9inttofileiPc
	.cfi_endproc
                                        # -- End function
	.section	.rodata.cst8,"aM",@progbits,8
	.p2align	3, 0x0                          # -- Begin function _Z7gettimev
.LCPI9_0:
	.quad	0x3eb0c6f7a0b5ed8d              # double 9.9999999999999995E-7
	.text
	.globl	_Z7gettimev
	.p2align	4, 0x90
	.type	_Z7gettimev,@function
_Z7gettimev:                            # @_Z7gettimev
.Lfunc_begin9:
	.loc	3 64 0                          # ./streamcluster_cuda_cpu.cu:64:0
	.cfi_startproc
# %bb.0:                                # %entry
	pushq	%rbp
	.cfi_def_cfa_offset 16
	.cfi_offset %rbp, -16
	movq	%rsp, %rbp
	.cfi_def_cfa_register %rbp
	subq	$16, %rsp
.Ltmp207:
	.loc	3 66 3 prologue_end             # ./streamcluster_cuda_cpu.cu:66:3
	leaq	-16(%rbp), %rdi
	xorl	%eax, %eax
	movl	%eax, %esi
	callq	gettimeofday@PLT
	.loc	3 67 10                         # ./streamcluster_cuda_cpu.cu:67:10
	cvtsi2sdq	-16(%rbp), %xmm1
	.loc	3 67 21 is_stmt 0               # ./streamcluster_cuda_cpu.cu:67:21
	cvtsi2sdq	-8(%rbp), %xmm0
	movsd	.LCPI9_0(%rip), %xmm2           # xmm2 = [9.9999999999999995E-7,0.0E+0]
	.loc	3 67 19                         # ./streamcluster_cuda_cpu.cu:67:19
	mulsd	%xmm2, %xmm0
	addsd	%xmm1, %xmm0
	.loc	3 67 3 epilogue_begin           # ./streamcluster_cuda_cpu.cu:67:3
	addq	$16, %rsp
	popq	%rbp
	.cfi_def_cfa %rsp, 8
	retq
.Ltmp208:
.Lfunc_end9:
	.size	_Z7gettimev, .Lfunc_end9-_Z7gettimev
	.cfi_endproc
                                        # -- End function
	.globl	_Z11isIdenticalPfS_i            # -- Begin function _Z11isIdenticalPfS_i
	.p2align	4, 0x90
	.type	_Z11isIdenticalPfS_i,@function
_Z11isIdenticalPfS_i:                   # @_Z11isIdenticalPfS_i
.Lfunc_begin10:
	.loc	3 70 0 is_stmt 1                # ./streamcluster_cuda_cpu.cu:70:0
	.cfi_startproc
# %bb.0:                                # %entry
	pushq	%rbp
	.cfi_def_cfa_offset 16
	.cfi_offset %rbp, -16
	movq	%rsp, %rbp
	.cfi_def_cfa_register %rbp
	movq	%rdi, -16(%rbp)
	movq	%rsi, -24(%rbp)
	movl	%edx, -28(%rbp)
.Ltmp209:
	.loc	3 73 7 prologue_end             # ./streamcluster_cuda_cpu.cu:73:7
	movl	$0, -32(%rbp)
	.loc	3 74 7                          # ./streamcluster_cuda_cpu.cu:74:7
	movl	$1, -36(%rbp)
.LBB10_1:                               # %while.cond
                                        # =>This Inner Loop Header: Depth=1
	.loc	3 76 10                         # ./streamcluster_cuda_cpu.cu:76:10
	xorl	%eax, %eax
                                        # kill: def $al killed $al killed $eax
	cmpl	$0, -36(%rbp)
	movb	%al, -37(%rbp)                  # 1-byte Spill
	.loc	3 76 16 is_stmt 0               # ./streamcluster_cuda_cpu.cu:76:16
	je	.LBB10_3
# %bb.2:                                # %land.rhs
                                        #   in Loop: Header=BB10_1 Depth=1
	.loc	3 76 19                         # ./streamcluster_cuda_cpu.cu:76:19
	movl	-32(%rbp), %eax
	.loc	3 76 21                         # ./streamcluster_cuda_cpu.cu:76:21
	cmpl	-28(%rbp), %eax
	setl	%al
	movb	%al, -37(%rbp)                  # 1-byte Spill
.LBB10_3:                               # %land.end
                                        #   in Loop: Header=BB10_1 Depth=1
	.loc	3 0 21                          # ./streamcluster_cuda_cpu.cu:0:21
	movb	-37(%rbp), %al                  # 1-byte Reload
	.loc	3 76 3                          # ./streamcluster_cuda_cpu.cu:76:3
	testb	$1, %al
	jne	.LBB10_4
	jmp	.LBB10_8
.LBB10_4:                               # %while.body
                                        #   in Loop: Header=BB10_1 Depth=1
.Ltmp210:
	.loc	3 77 9 is_stmt 1                # ./streamcluster_cuda_cpu.cu:77:9
	movq	-16(%rbp), %rax
	movslq	-32(%rbp), %rcx
	movss	(%rax,%rcx,4), %xmm0            # xmm0 = mem[0],zero,zero,zero
	.loc	3 77 17 is_stmt 0               # ./streamcluster_cuda_cpu.cu:77:17
	movq	-24(%rbp), %rax
	movslq	-32(%rbp), %rcx
	.loc	3 77 14                         # ./streamcluster_cuda_cpu.cu:77:14
	ucomiss	(%rax,%rcx,4), %xmm0
.Ltmp211:
	.loc	3 77 9                          # ./streamcluster_cuda_cpu.cu:77:9
	jne	.LBB10_5
	jp	.LBB10_5
	jmp	.LBB10_6
.LBB10_5:                               # %if.then
                                        #   in Loop: Header=BB10_1 Depth=1
.Ltmp212:
	.loc	3 78 13 is_stmt 1               # ./streamcluster_cuda_cpu.cu:78:13
	movl	$0, -36(%rbp)
	.loc	3 78 7 is_stmt 0                # ./streamcluster_cuda_cpu.cu:78:7
	jmp	.LBB10_7
.LBB10_6:                               # %if.else
                                        #   in Loop: Header=BB10_1 Depth=1
	.loc	3 80 8 is_stmt 1                # ./streamcluster_cuda_cpu.cu:80:8
	movl	-32(%rbp), %eax
	addl	$1, %eax
	movl	%eax, -32(%rbp)
.Ltmp213:
.LBB10_7:                               # %if.end
                                        #   in Loop: Header=BB10_1 Depth=1
	.loc	3 76 3                          # ./streamcluster_cuda_cpu.cu:76:3
	jmp	.LBB10_1
.LBB10_8:                               # %while.end
.Ltmp214:
	.loc	3 82 7                          # ./streamcluster_cuda_cpu.cu:82:7
	cmpl	$0, -36(%rbp)
.Ltmp215:
	.loc	3 82 7 is_stmt 0                # ./streamcluster_cuda_cpu.cu:82:7
	je	.LBB10_10
# %bb.9:                                # %if.then5
.Ltmp216:
	.loc	3 83 5 is_stmt 1                # ./streamcluster_cuda_cpu.cu:83:5
	movl	$1, -4(%rbp)
	jmp	.LBB10_11
.LBB10_10:                              # %if.else6
	.loc	3 85 5                          # ./streamcluster_cuda_cpu.cu:85:5
	movl	$0, -4(%rbp)
.Ltmp217:
.LBB10_11:                              # %return
	.loc	3 86 1                          # ./streamcluster_cuda_cpu.cu:86:1
	movl	-4(%rbp), %eax
	.loc	3 86 1 epilogue_begin is_stmt 0 # ./streamcluster_cuda_cpu.cu:86:1
	popq	%rbp
	.cfi_def_cfa %rsp, 8
	retq
.Ltmp218:
.Lfunc_end10:
	.size	_Z11isIdenticalPfS_i, .Lfunc_end10-_Z11isIdenticalPfS_i
	.cfi_endproc
                                        # -- End function
	.globl	_Z7shuffleP6Points              # -- Begin function _Z7shuffleP6Points
	.p2align	4, 0x90
	.type	_Z7shuffleP6Points,@function
_Z7shuffleP6Points:                     # @_Z7shuffleP6Points
.Lfunc_begin11:
	.loc	3 101 0 is_stmt 1               # ./streamcluster_cuda_cpu.cu:101:0
	.cfi_startproc
# %bb.0:                                # %entry
	pushq	%rbp
	.cfi_def_cfa_offset 16
	.cfi_offset %rbp, -16
	movq	%rsp, %rbp
	.cfi_def_cfa_register %rbp
	subq	$80, %rsp
	movq	%rdi, -8(%rbp)
.Ltmp219:
	.loc	3 103 15 prologue_end           # ./streamcluster_cuda_cpu.cu:103:15
	callq	_Z7gettimev
	.loc	3 103 10 is_stmt 0              # ./streamcluster_cuda_cpu.cu:103:10
	movsd	%xmm0, -16(%rbp)
.Ltmp220:
	.loc	3 107 10 is_stmt 1              # ./streamcluster_cuda_cpu.cu:107:10
	movq	$0, -24(%rbp)
.LBB11_1:                               # %for.cond
                                        # =>This Inner Loop Header: Depth=1
.Ltmp221:
	.loc	3 107 15 is_stmt 0              # ./streamcluster_cuda_cpu.cu:107:15
	movq	-24(%rbp), %rax
	.loc	3 107 19                        # ./streamcluster_cuda_cpu.cu:107:19
	movq	-8(%rbp), %rcx
	.loc	3 107 27                        # ./streamcluster_cuda_cpu.cu:107:27
	movq	(%rcx), %rcx
	.loc	3 107 31                        # ./streamcluster_cuda_cpu.cu:107:31
	subq	$1, %rcx
	.loc	3 107 17                        # ./streamcluster_cuda_cpu.cu:107:17
	cmpq	%rcx, %rax
.Ltmp222:
	.loc	3 107 3                         # ./streamcluster_cuda_cpu.cu:107:3
	jge	.LBB11_4
# %bb.2:                                # %for.body
                                        #   in Loop: Header=BB11_1 Depth=1
.Ltmp223:
	.loc	3 108 10 is_stmt 1              # ./streamcluster_cuda_cpu.cu:108:10
	callq	lrand48@PLT
	.loc	3 108 23 is_stmt 0              # ./streamcluster_cuda_cpu.cu:108:23
	movq	-8(%rbp), %rcx
	.loc	3 108 31                        # ./streamcluster_cuda_cpu.cu:108:31
	movq	(%rcx), %rcx
	.loc	3 108 35                        # ./streamcluster_cuda_cpu.cu:108:35
	subq	-24(%rbp), %rcx
	.loc	3 108 20                        # ./streamcluster_cuda_cpu.cu:108:20
	cqto
	idivq	%rcx
	.loc	3 108 41                        # ./streamcluster_cuda_cpu.cu:108:41
	addq	-24(%rbp), %rdx
	.loc	3 108 7                         # ./streamcluster_cuda_cpu.cu:108:7
	movq	%rdx, -32(%rbp)
	.loc	3 109 12 is_stmt 1              # ./streamcluster_cuda_cpu.cu:109:12
	movq	-8(%rbp), %rax
	.loc	3 109 20 is_stmt 0              # ./streamcluster_cuda_cpu.cu:109:20
	movq	16(%rax), %rax
	.loc	3 109 22                        # ./streamcluster_cuda_cpu.cu:109:22
	movq	-24(%rbp), %rcx
	.loc	3 109 12                        # ./streamcluster_cuda_cpu.cu:109:12
	shlq	$5, %rcx
	addq	%rcx, %rax
	.loc	3 109 10                        # ./streamcluster_cuda_cpu.cu:109:10
	movq	(%rax), %rcx
	movq	%rcx, -64(%rbp)
	movq	8(%rax), %rcx
	movq	%rcx, -56(%rbp)
	movq	16(%rax), %rcx
	movq	%rcx, -48(%rbp)
	movq	24(%rax), %rax
	movq	%rax, -40(%rbp)
	.loc	3 110 20 is_stmt 1              # ./streamcluster_cuda_cpu.cu:110:20
	movq	-8(%rbp), %rax
	.loc	3 110 28 is_stmt 0              # ./streamcluster_cuda_cpu.cu:110:28
	movq	16(%rax), %rcx
	.loc	3 110 30                        # ./streamcluster_cuda_cpu.cu:110:30
	movq	-32(%rbp), %rax
	.loc	3 110 20                        # ./streamcluster_cuda_cpu.cu:110:20
	shlq	$5, %rax
	addq	%rax, %rcx
	.loc	3 110 5                         # ./streamcluster_cuda_cpu.cu:110:5
	movq	-8(%rbp), %rax
	.loc	3 110 13                        # ./streamcluster_cuda_cpu.cu:110:13
	movq	16(%rax), %rax
	.loc	3 110 15                        # ./streamcluster_cuda_cpu.cu:110:15
	movq	-24(%rbp), %rdx
	.loc	3 110 5                         # ./streamcluster_cuda_cpu.cu:110:5
	shlq	$5, %rdx
	addq	%rdx, %rax
	.loc	3 110 18                        # ./streamcluster_cuda_cpu.cu:110:18
	movq	(%rcx), %rdx
	movq	%rdx, (%rax)
	movq	8(%rcx), %rdx
	movq	%rdx, 8(%rax)
	movq	16(%rcx), %rdx
	movq	%rdx, 16(%rax)
	movq	24(%rcx), %rcx
	movq	%rcx, 24(%rax)
	.loc	3 111 5 is_stmt 1               # ./streamcluster_cuda_cpu.cu:111:5
	movq	-8(%rbp), %rax
	.loc	3 111 13 is_stmt 0              # ./streamcluster_cuda_cpu.cu:111:13
	movq	16(%rax), %rax
	.loc	3 111 15                        # ./streamcluster_cuda_cpu.cu:111:15
	movq	-32(%rbp), %rcx
	.loc	3 111 5                         # ./streamcluster_cuda_cpu.cu:111:5
	shlq	$5, %rcx
	addq	%rcx, %rax
	.loc	3 111 18                        # ./streamcluster_cuda_cpu.cu:111:18
	movq	-64(%rbp), %rcx
	movq	%rcx, (%rax)
	movq	-56(%rbp), %rcx
	movq	%rcx, 8(%rax)
	movq	-48(%rbp), %rcx
	movq	%rcx, 16(%rax)
	movq	-40(%rbp), %rcx
	movq	%rcx, 24(%rax)
.Ltmp224:
# %bb.3:                                # %for.inc
                                        #   in Loop: Header=BB11_1 Depth=1
	.loc	3 107 37 is_stmt 1              # ./streamcluster_cuda_cpu.cu:107:37
	movq	-24(%rbp), %rax
	addq	$1, %rax
	movq	%rax, -24(%rbp)
	.loc	3 107 3 is_stmt 0               # ./streamcluster_cuda_cpu.cu:107:3
	jmp	.LBB11_1
.Ltmp225:
.LBB11_4:                               # %for.end
	.loc	3 114 15 is_stmt 1              # ./streamcluster_cuda_cpu.cu:114:15
	callq	_Z7gettimev
	.loc	3 114 10 is_stmt 0              # ./streamcluster_cuda_cpu.cu:114:10
	movsd	%xmm0, -72(%rbp)
	.loc	3 115 19 is_stmt 1              # ./streamcluster_cuda_cpu.cu:115:19
	movsd	-72(%rbp), %xmm0                # xmm0 = mem[0],zero
	.loc	3 115 22 is_stmt 0              # ./streamcluster_cuda_cpu.cu:115:22
	subsd	-16(%rbp), %xmm0
	.loc	3 115 16                        # ./streamcluster_cuda_cpu.cu:115:16
	addsd	time_shuffle(%rip), %xmm0
	movsd	%xmm0, time_shuffle(%rip)
	.loc	3 117 1 epilogue_begin is_stmt 1 # ./streamcluster_cuda_cpu.cu:117:1
	addq	$80, %rsp
	popq	%rbp
	.cfi_def_cfa %rsp, 8
	retq
.Ltmp226:
.Lfunc_end11:
	.size	_Z7shuffleP6Points, .Lfunc_end11-_Z7shuffleP6Points
	.cfi_endproc
                                        # -- End function
	.globl	_Z10intshufflePii               # -- Begin function _Z10intshufflePii
	.p2align	4, 0x90
	.type	_Z10intshufflePii,@function
_Z10intshufflePii:                      # @_Z10intshufflePii
.Lfunc_begin12:
	.loc	3 120 0                         # ./streamcluster_cuda_cpu.cu:120:0
	.cfi_startproc
# %bb.0:                                # %entry
	pushq	%rbp
	.cfi_def_cfa_offset 16
	.cfi_offset %rbp, -16
	movq	%rsp, %rbp
	.cfi_def_cfa_register %rbp
	subq	$64, %rsp
	movq	%rdi, -8(%rbp)
	movl	%esi, -12(%rbp)
.Ltmp227:
	.loc	3 122 15 prologue_end           # ./streamcluster_cuda_cpu.cu:122:15
	callq	_Z7gettimev
	.loc	3 122 10 is_stmt 0              # ./streamcluster_cuda_cpu.cu:122:10
	movsd	%xmm0, -24(%rbp)
.Ltmp228:
	.loc	3 126 10 is_stmt 1              # ./streamcluster_cuda_cpu.cu:126:10
	movq	$0, -32(%rbp)
.LBB12_1:                               # %for.cond
                                        # =>This Inner Loop Header: Depth=1
.Ltmp229:
	.loc	3 126 15 is_stmt 0              # ./streamcluster_cuda_cpu.cu:126:15
	movq	-32(%rbp), %rax
	.loc	3 126 19                        # ./streamcluster_cuda_cpu.cu:126:19
	movslq	-12(%rbp), %rcx
	.loc	3 126 17                        # ./streamcluster_cuda_cpu.cu:126:17
	cmpq	%rcx, %rax
.Ltmp230:
	.loc	3 126 3                         # ./streamcluster_cuda_cpu.cu:126:3
	jge	.LBB12_4
# %bb.2:                                # %for.body
                                        #   in Loop: Header=BB12_1 Depth=1
.Ltmp231:
	.loc	3 127 10 is_stmt 1              # ./streamcluster_cuda_cpu.cu:127:10
	callq	lrand48@PLT
	.loc	3 127 23 is_stmt 0              # ./streamcluster_cuda_cpu.cu:127:23
	movslq	-12(%rbp), %rcx
	.loc	3 127 30                        # ./streamcluster_cuda_cpu.cu:127:30
	subq	-32(%rbp), %rcx
	.loc	3 127 20                        # ./streamcluster_cuda_cpu.cu:127:20
	cqto
	idivq	%rcx
	.loc	3 127 36                        # ./streamcluster_cuda_cpu.cu:127:36
	addq	-32(%rbp), %rdx
	.loc	3 127 7                         # ./streamcluster_cuda_cpu.cu:127:7
	movq	%rdx, -40(%rbp)
	.loc	3 128 12 is_stmt 1              # ./streamcluster_cuda_cpu.cu:128:12
	movq	-8(%rbp), %rax
	.loc	3 128 21 is_stmt 0              # ./streamcluster_cuda_cpu.cu:128:21
	movq	-32(%rbp), %rcx
	.loc	3 128 12                        # ./streamcluster_cuda_cpu.cu:128:12
	movl	(%rax,%rcx,4), %eax
	.loc	3 128 10                        # ./streamcluster_cuda_cpu.cu:128:10
	movl	%eax, -44(%rbp)
	.loc	3 129 19 is_stmt 1              # ./streamcluster_cuda_cpu.cu:129:19
	movq	-8(%rbp), %rax
	.loc	3 129 28 is_stmt 0              # ./streamcluster_cuda_cpu.cu:129:28
	movq	-40(%rbp), %rcx
	.loc	3 129 19                        # ./streamcluster_cuda_cpu.cu:129:19
	movl	(%rax,%rcx,4), %edx
	.loc	3 129 5                         # ./streamcluster_cuda_cpu.cu:129:5
	movq	-8(%rbp), %rax
	.loc	3 129 14                        # ./streamcluster_cuda_cpu.cu:129:14
	movq	-32(%rbp), %rcx
	.loc	3 129 17                        # ./streamcluster_cuda_cpu.cu:129:17
	movl	%edx, (%rax,%rcx,4)
	.loc	3 130 19 is_stmt 1              # ./streamcluster_cuda_cpu.cu:130:19
	movl	-44(%rbp), %edx
	.loc	3 130 5 is_stmt 0               # ./streamcluster_cuda_cpu.cu:130:5
	movq	-8(%rbp), %rax
	.loc	3 130 14                        # ./streamcluster_cuda_cpu.cu:130:14
	movq	-40(%rbp), %rcx
	.loc	3 130 17                        # ./streamcluster_cuda_cpu.cu:130:17
	movl	%edx, (%rax,%rcx,4)
.Ltmp232:
# %bb.3:                                # %for.inc
                                        #   in Loop: Header=BB12_1 Depth=1
	.loc	3 126 28 is_stmt 1              # ./streamcluster_cuda_cpu.cu:126:28
	movq	-32(%rbp), %rax
	addq	$1, %rax
	movq	%rax, -32(%rbp)
	.loc	3 126 3 is_stmt 0               # ./streamcluster_cuda_cpu.cu:126:3
	jmp	.LBB12_1
.Ltmp233:
.LBB12_4:                               # %for.end
	.loc	3 133 15 is_stmt 1              # ./streamcluster_cuda_cpu.cu:133:15
	callq	_Z7gettimev
	.loc	3 133 10 is_stmt 0              # ./streamcluster_cuda_cpu.cu:133:10
	movsd	%xmm0, -56(%rbp)
	.loc	3 134 19 is_stmt 1              # ./streamcluster_cuda_cpu.cu:134:19
	movsd	-56(%rbp), %xmm0                # xmm0 = mem[0],zero
	.loc	3 134 22 is_stmt 0              # ./streamcluster_cuda_cpu.cu:134:22
	subsd	-24(%rbp), %xmm0
	.loc	3 134 16                        # ./streamcluster_cuda_cpu.cu:134:16
	addsd	time_shuffle(%rip), %xmm0
	movsd	%xmm0, time_shuffle(%rip)
	.loc	3 136 1 epilogue_begin is_stmt 1 # ./streamcluster_cuda_cpu.cu:136:1
	addq	$64, %rsp
	popq	%rbp
	.cfi_def_cfa %rsp, 8
	retq
.Ltmp234:
.Lfunc_end12:
	.size	_Z10intshufflePii, .Lfunc_end12-_Z10intshufflePii
	.cfi_endproc
                                        # -- End function
	.section	.rodata.cst4,"aM",@progbits,4
	.p2align	2, 0x0                          # -- Begin function _Z7pspeedyP6PointsfPliP17pthread_barrier_t
.LCPI13_0:
	.long	0x4f000000                      # float 2.14748365E+9
	.text
	.globl	_Z7pspeedyP6PointsfPliP17pthread_barrier_t
	.p2align	4, 0x90
	.type	_Z7pspeedyP6PointsfPliP17pthread_barrier_t,@function
_Z7pspeedyP6PointsfPliP17pthread_barrier_t: # @_Z7pspeedyP6PointsfPliP17pthread_barrier_t
.Lfunc_begin13:
	.loc	3 163 0                         # ./streamcluster_cuda_cpu.cu:163:0
	.cfi_startproc
# %bb.0:                                # %entry
	pushq	%rbp
	.cfi_def_cfa_offset 16
	.cfi_offset %rbp, -16
	movq	%rsp, %rbp
	.cfi_def_cfa_register %rbp
	subq	$384, %rsp                      # imm = 0x180
	movq	%rdi, -8(%rbp)
	movss	%xmm0, -12(%rbp)
	movq	%rsi, -24(%rbp)
	movl	%edx, -28(%rbp)
	movq	%rcx, -40(%rbp)
.Ltmp235:
	.loc	3 165 15 prologue_end           # ./streamcluster_cuda_cpu.cu:165:15
	callq	_Z7gettimev
	.loc	3 165 10 is_stmt 0              # ./streamcluster_cuda_cpu.cu:165:10
	movsd	%xmm0, -48(%rbp)
	.loc	3 172 16 is_stmt 1              # ./streamcluster_cuda_cpu.cu:172:16
	movq	-8(%rbp), %rax
	.loc	3 172 24 is_stmt 0              # ./streamcluster_cuda_cpu.cu:172:24
	movq	(%rax), %rax
	.loc	3 172 30                        # ./streamcluster_cuda_cpu.cu:172:30
	movslq	_ZL5nproc(%rip), %rcx
	.loc	3 172 28                        # ./streamcluster_cuda_cpu.cu:172:28
	cqto
	idivq	%rcx
	.loc	3 172 8                         # ./streamcluster_cuda_cpu.cu:172:8
	movq	%rax, -56(%rbp)
	.loc	3 173 13 is_stmt 1              # ./streamcluster_cuda_cpu.cu:173:13
	movq	-56(%rbp), %rax
	.loc	3 173 21 is_stmt 0              # ./streamcluster_cuda_cpu.cu:173:21
	movslq	-28(%rbp), %rcx
	.loc	3 173 19                        # ./streamcluster_cuda_cpu.cu:173:19
	imulq	%rcx, %rax
	.loc	3 173 8                         # ./streamcluster_cuda_cpu.cu:173:8
	movq	%rax, -64(%rbp)
	.loc	3 174 13 is_stmt 1              # ./streamcluster_cuda_cpu.cu:174:13
	movq	-64(%rbp), %rax
	.loc	3 174 16 is_stmt 0              # ./streamcluster_cuda_cpu.cu:174:16
	addq	-56(%rbp), %rax
	.loc	3 174 8                         # ./streamcluster_cuda_cpu.cu:174:8
	movq	%rax, -72(%rbp)
.Ltmp236:
	.loc	3 175 7 is_stmt 1               # ./streamcluster_cuda_cpu.cu:175:7
	movl	-28(%rbp), %eax
	.loc	3 175 14 is_stmt 0              # ./streamcluster_cuda_cpu.cu:175:14
	movl	_ZL5nproc(%rip), %ecx
	.loc	3 175 20                        # ./streamcluster_cuda_cpu.cu:175:20
	subl	$1, %ecx
	.loc	3 175 11                        # ./streamcluster_cuda_cpu.cu:175:11
	cmpl	%ecx, %eax
.Ltmp237:
	.loc	3 175 7                         # ./streamcluster_cuda_cpu.cu:175:7
	jne	.LBB13_2
# %bb.1:                                # %if.then
.Ltmp238:
	.loc	3 176 10 is_stmt 1              # ./streamcluster_cuda_cpu.cu:176:10
	movq	-8(%rbp), %rax
	.loc	3 176 18 is_stmt 0              # ./streamcluster_cuda_cpu.cu:176:18
	movq	(%rax), %rax
	.loc	3 176 8                         # ./streamcluster_cuda_cpu.cu:176:8
	movq	%rax, -72(%rbp)
.Ltmp239:
.LBB13_2:                               # %if.end
	.loc	3 196 16 is_stmt 1              # ./streamcluster_cuda_cpu.cu:196:16
	movq	-64(%rbp), %rax
                                        # kill: def $eax killed $eax killed $rax
	.loc	3 196 12 is_stmt 0              # ./streamcluster_cuda_cpu.cu:196:12
	movl	%eax, -76(%rbp)
.LBB13_3:                               # %for.cond
                                        # =>This Inner Loop Header: Depth=1
.Ltmp240:
	.loc	3 196 20                        # ./streamcluster_cuda_cpu.cu:196:20
	movslq	-76(%rbp), %rax
	.loc	3 196 22                        # ./streamcluster_cuda_cpu.cu:196:22
	cmpq	-72(%rbp), %rax
.Ltmp241:
	.loc	3 196 3                         # ./streamcluster_cuda_cpu.cu:196:3
	jge	.LBB13_6
# %bb.4:                                # %for.body
                                        #   in Loop: Header=BB13_3 Depth=1
.Ltmp242:
	.loc	3 197 27 is_stmt 1              # ./streamcluster_cuda_cpu.cu:197:27
	movq	-8(%rbp), %rax
	.loc	3 197 35 is_stmt 0              # ./streamcluster_cuda_cpu.cu:197:35
	movq	16(%rax), %rax
	.loc	3 197 27                        # ./streamcluster_cuda_cpu.cu:197:27
	movslq	-76(%rbp), %rcx
	shlq	$5, %rcx
	addq	%rcx, %rax
	movq	(%rax), %rcx
	movq	%rcx, -112(%rbp)
	movq	8(%rax), %rcx
	movq	%rcx, -104(%rbp)
	movq	16(%rax), %rcx
	movq	%rcx, -96(%rbp)
	movq	24(%rax), %rax
	movq	%rax, -88(%rbp)
	.loc	3 197 41                        # ./streamcluster_cuda_cpu.cu:197:41
	movq	-8(%rbp), %rax
	.loc	3 197 49                        # ./streamcluster_cuda_cpu.cu:197:49
	movq	16(%rax), %rax
	.loc	3 197 41                        # ./streamcluster_cuda_cpu.cu:197:41
	movq	(%rax), %rcx
	movq	%rcx, -144(%rbp)
	movq	8(%rax), %rcx
	movq	%rcx, -136(%rbp)
	movq	16(%rax), %rcx
	movq	%rcx, -128(%rbp)
	movq	24(%rax), %rax
	movq	%rax, -120(%rbp)
	.loc	3 197 55                        # ./streamcluster_cuda_cpu.cu:197:55
	movq	-8(%rbp), %rax
	.loc	3 197 63                        # ./streamcluster_cuda_cpu.cu:197:63
	movl	8(%rax), %edi
	.loc	3 197 22                        # ./streamcluster_cuda_cpu.cu:197:22
	leaq	-112(%rbp), %rcx
	leaq	-144(%rbp), %rax
	movq	(%rcx), %rdx
	movq	%rdx, (%rsp)
	movq	8(%rcx), %rdx
	movq	%rdx, 8(%rsp)
	movq	16(%rcx), %rdx
	movq	%rdx, 16(%rsp)
	movq	24(%rcx), %rcx
	movq	%rcx, 24(%rsp)
	movq	(%rax), %rcx
	movq	%rcx, 32(%rsp)
	movq	8(%rax), %rcx
	movq	%rcx, 40(%rsp)
	movq	16(%rax), %rcx
	movq	%rcx, 48(%rsp)
	movq	24(%rax), %rax
	movq	%rax, 56(%rsp)
	callq	_Z4dist5PointS_i
	.loc	3 197 11                        # ./streamcluster_cuda_cpu.cu:197:11
	movss	%xmm0, -80(%rbp)
	.loc	3 198 25 is_stmt 1              # ./streamcluster_cuda_cpu.cu:198:25
	movss	-80(%rbp), %xmm0                # xmm0 = mem[0],zero,zero,zero
	.loc	3 198 36 is_stmt 0              # ./streamcluster_cuda_cpu.cu:198:36
	movq	-8(%rbp), %rax
	.loc	3 198 44                        # ./streamcluster_cuda_cpu.cu:198:44
	movq	16(%rax), %rax
	.loc	3 198 36                        # ./streamcluster_cuda_cpu.cu:198:36
	movslq	-76(%rbp), %rcx
	shlq	$5, %rcx
	addq	%rcx, %rax
	.loc	3 198 34                        # ./streamcluster_cuda_cpu.cu:198:34
	mulss	(%rax), %xmm0
	.loc	3 198 5                         # ./streamcluster_cuda_cpu.cu:198:5
	movq	-8(%rbp), %rax
	.loc	3 198 13                        # ./streamcluster_cuda_cpu.cu:198:13
	movq	16(%rax), %rax
	.loc	3 198 5                         # ./streamcluster_cuda_cpu.cu:198:5
	movslq	-76(%rbp), %rcx
	shlq	$5, %rcx
	addq	%rcx, %rax
	.loc	3 198 23                        # ./streamcluster_cuda_cpu.cu:198:23
	movss	%xmm0, 24(%rax)
	.loc	3 199 5 is_stmt 1               # ./streamcluster_cuda_cpu.cu:199:5
	movq	-8(%rbp), %rax
	.loc	3 199 13 is_stmt 0              # ./streamcluster_cuda_cpu.cu:199:13
	movq	16(%rax), %rax
	.loc	3 199 5                         # ./streamcluster_cuda_cpu.cu:199:5
	movslq	-76(%rbp), %rcx
	shlq	$5, %rcx
	addq	%rcx, %rax
	.loc	3 199 25                        # ./streamcluster_cuda_cpu.cu:199:25
	movq	$0, 16(%rax)
.Ltmp243:
# %bb.5:                                # %for.inc
                                        #   in Loop: Header=BB13_3 Depth=1
	.loc	3 196 29 is_stmt 1              # ./streamcluster_cuda_cpu.cu:196:29
	movl	-76(%rbp), %eax
	addl	$1, %eax
	movl	%eax, -76(%rbp)
	.loc	3 196 3 is_stmt 0               # ./streamcluster_cuda_cpu.cu:196:3
	jmp	.LBB13_3
.Ltmp244:
.LBB13_6:                               # %for.end
	.loc	3 202 11 is_stmt 1              # ./streamcluster_cuda_cpu.cu:202:11
	cmpl	$0, -28(%rbp)
.Ltmp245:
	.loc	3 202 7 is_stmt 0               # ./streamcluster_cuda_cpu.cu:202:7
	jne	.LBB13_8
# %bb.7:                                # %if.then21
.Ltmp246:
	.loc	3 203 6 is_stmt 1               # ./streamcluster_cuda_cpu.cu:203:6
	movq	-24(%rbp), %rax
	.loc	3 203 14 is_stmt 0              # ./streamcluster_cuda_cpu.cu:203:14
	movq	$1, (%rax)
	.loc	3 204 45 is_stmt 1              # ./streamcluster_cuda_cpu.cu:204:45
	movslq	_ZL5nproc(%rip), %rdi
	.loc	3 204 43 is_stmt 0              # ./streamcluster_cuda_cpu.cu:204:43
	shlq	$2, %rdi
	.loc	3 204 22                        # ./streamcluster_cuda_cpu.cu:204:22
	callq	malloc@PLT
	.loc	3 204 11                        # ./streamcluster_cuda_cpu.cu:204:11
	movq	%rax, _ZZ7pspeedyP6PointsfPliP17pthread_barrier_tE5costs(%rip)
.Ltmp247:
.LBB13_8:                               # %if.end25
	.loc	3 207 11 is_stmt 1              # ./streamcluster_cuda_cpu.cu:207:11
	cmpl	$0, -28(%rbp)
.Ltmp248:
	.loc	3 207 7 is_stmt 0               # ./streamcluster_cuda_cpu.cu:207:7
	je	.LBB13_20
# %bb.9:                                # %if.then27
.Ltmp249:
	.loc	3 209 5 is_stmt 1               # ./streamcluster_cuda_cpu.cu:209:5
	jmp	.LBB13_10
.LBB13_10:                              # %while.body
                                        # =>This Loop Header: Depth=1
                                        #     Child Loop BB13_13 Depth 2
.Ltmp250:
	.loc	3 216 11                        # ./streamcluster_cuda_cpu.cu:216:11
	movslq	_ZZ7pspeedyP6PointsfPliP17pthread_barrier_tE1i(%rip), %rax
	.loc	3 216 16 is_stmt 0              # ./streamcluster_cuda_cpu.cu:216:16
	movq	-8(%rbp), %rcx
	.loc	3 216 13                        # ./streamcluster_cuda_cpu.cu:216:13
	cmpq	(%rcx), %rax
.Ltmp251:
	.loc	3 216 11                        # ./streamcluster_cuda_cpu.cu:216:11
	jl	.LBB13_12
# %bb.11:                               # %if.then31
.Ltmp252:
	.loc	3 217 9 is_stmt 1               # ./streamcluster_cuda_cpu.cu:217:9
	jmp	.LBB13_19
.Ltmp253:
.LBB13_12:                              # %if.end32
                                        #   in Loop: Header=BB13_10 Depth=1
	.loc	3 218 20                        # ./streamcluster_cuda_cpu.cu:218:20
	movq	-64(%rbp), %rax
                                        # kill: def $eax killed $eax killed $rax
	.loc	3 218 16 is_stmt 0              # ./streamcluster_cuda_cpu.cu:218:16
	movl	%eax, -148(%rbp)
.LBB13_13:                              # %for.cond35
                                        #   Parent Loop BB13_10 Depth=1
                                        # =>  This Inner Loop Header: Depth=2
.Ltmp254:
	.loc	3 218 24                        # ./streamcluster_cuda_cpu.cu:218:24
	movslq	-148(%rbp), %rax
	.loc	3 218 26                        # ./streamcluster_cuda_cpu.cu:218:26
	cmpq	-72(%rbp), %rax
.Ltmp255:
	.loc	3 218 7                         # ./streamcluster_cuda_cpu.cu:218:7
	jge	.LBB13_18
# %bb.14:                               # %for.body38
                                        #   in Loop: Header=BB13_13 Depth=2
.Ltmp256:
	.loc	3 219 31 is_stmt 1              # ./streamcluster_cuda_cpu.cu:219:31
	movq	-8(%rbp), %rax
	.loc	3 219 39 is_stmt 0              # ./streamcluster_cuda_cpu.cu:219:39
	movq	16(%rax), %rax
	.loc	3 219 31                        # ./streamcluster_cuda_cpu.cu:219:31
	movslq	_ZZ7pspeedyP6PointsfPliP17pthread_barrier_tE1i(%rip), %rcx
	shlq	$5, %rcx
	addq	%rcx, %rax
	movq	(%rax), %rcx
	movq	%rcx, -184(%rbp)
	movq	8(%rax), %rcx
	movq	%rcx, -176(%rbp)
	movq	16(%rax), %rcx
	movq	%rcx, -168(%rbp)
	movq	24(%rax), %rax
	movq	%rax, -160(%rbp)
	.loc	3 219 45                        # ./streamcluster_cuda_cpu.cu:219:45
	movq	-8(%rbp), %rax
	.loc	3 219 53                        # ./streamcluster_cuda_cpu.cu:219:53
	movq	16(%rax), %rax
	.loc	3 219 45                        # ./streamcluster_cuda_cpu.cu:219:45
	movslq	-148(%rbp), %rcx
	shlq	$5, %rcx
	addq	%rcx, %rax
	movq	(%rax), %rcx
	movq	%rcx, -216(%rbp)
	movq	8(%rax), %rcx
	movq	%rcx, -208(%rbp)
	movq	16(%rax), %rcx
	movq	%rcx, -200(%rbp)
	movq	24(%rax), %rax
	movq	%rax, -192(%rbp)
	.loc	3 219 59                        # ./streamcluster_cuda_cpu.cu:219:59
	movq	-8(%rbp), %rax
	.loc	3 219 67                        # ./streamcluster_cuda_cpu.cu:219:67
	movl	8(%rax), %edi
	.loc	3 219 26                        # ./streamcluster_cuda_cpu.cu:219:26
	leaq	-184(%rbp), %rcx
	leaq	-216(%rbp), %rax
	movq	(%rcx), %rdx
	movq	%rdx, (%rsp)
	movq	8(%rcx), %rdx
	movq	%rdx, 8(%rsp)
	movq	16(%rcx), %rdx
	movq	%rdx, 16(%rsp)
	movq	24(%rcx), %rcx
	movq	%rcx, 24(%rsp)
	movq	(%rax), %rcx
	movq	%rcx, 32(%rsp)
	movq	8(%rax), %rcx
	movq	%rcx, 40(%rsp)
	movq	16(%rax), %rcx
	movq	%rcx, 48(%rsp)
	movq	24(%rax), %rax
	movq	%rax, 56(%rsp)
	callq	_Z4dist5PointS_i
	.loc	3 219 15                        # ./streamcluster_cuda_cpu.cu:219:15
	movss	%xmm0, -152(%rbp)
.Ltmp257:
	.loc	3 220 13 is_stmt 1              # ./streamcluster_cuda_cpu.cu:220:13
	movss	-152(%rbp), %xmm1               # xmm1 = mem[0],zero,zero,zero
	.loc	3 220 24 is_stmt 0              # ./streamcluster_cuda_cpu.cu:220:24
	movq	-8(%rbp), %rax
	.loc	3 220 32                        # ./streamcluster_cuda_cpu.cu:220:32
	movq	16(%rax), %rax
	.loc	3 220 24                        # ./streamcluster_cuda_cpu.cu:220:24
	movslq	-148(%rbp), %rcx
	shlq	$5, %rcx
	addq	%rcx, %rax
	.loc	3 220 22                        # ./streamcluster_cuda_cpu.cu:220:22
	mulss	(%rax), %xmm1
	.loc	3 220 46                        # ./streamcluster_cuda_cpu.cu:220:46
	movq	-8(%rbp), %rax
	.loc	3 220 54                        # ./streamcluster_cuda_cpu.cu:220:54
	movq	16(%rax), %rax
	.loc	3 220 46                        # ./streamcluster_cuda_cpu.cu:220:46
	movslq	-148(%rbp), %rcx
	shlq	$5, %rcx
	addq	%rcx, %rax
	.loc	3 220 59                        # ./streamcluster_cuda_cpu.cu:220:59
	movss	24(%rax), %xmm0                 # xmm0 = mem[0],zero,zero,zero
	.loc	3 220 44                        # ./streamcluster_cuda_cpu.cu:220:44
	ucomiss	%xmm1, %xmm0
.Ltmp258:
	.loc	3 220 13                        # ./streamcluster_cuda_cpu.cu:220:13
	jbe	.LBB13_16
# %bb.15:                               # %if.then60
                                        #   in Loop: Header=BB13_13 Depth=2
.Ltmp259:
	.loc	3 221 31 is_stmt 1              # ./streamcluster_cuda_cpu.cu:221:31
	movss	-152(%rbp), %xmm0               # xmm0 = mem[0],zero,zero,zero
	.loc	3 221 42 is_stmt 0              # ./streamcluster_cuda_cpu.cu:221:42
	movq	-8(%rbp), %rax
	.loc	3 221 50                        # ./streamcluster_cuda_cpu.cu:221:50
	movq	16(%rax), %rax
	.loc	3 221 42                        # ./streamcluster_cuda_cpu.cu:221:42
	movslq	-148(%rbp), %rcx
	shlq	$5, %rcx
	addq	%rcx, %rax
	.loc	3 221 40                        # ./streamcluster_cuda_cpu.cu:221:40
	mulss	(%rax), %xmm0
	.loc	3 221 11                        # ./streamcluster_cuda_cpu.cu:221:11
	movq	-8(%rbp), %rax
	.loc	3 221 19                        # ./streamcluster_cuda_cpu.cu:221:19
	movq	16(%rax), %rax
	.loc	3 221 11                        # ./streamcluster_cuda_cpu.cu:221:11
	movslq	-148(%rbp), %rcx
	shlq	$5, %rcx
	addq	%rcx, %rax
	.loc	3 221 29                        # ./streamcluster_cuda_cpu.cu:221:29
	movss	%xmm0, 24(%rax)
	.loc	3 222 33 is_stmt 1              # ./streamcluster_cuda_cpu.cu:222:33
	movslq	_ZZ7pspeedyP6PointsfPliP17pthread_barrier_tE1i(%rip), %rcx
	.loc	3 222 11 is_stmt 0              # ./streamcluster_cuda_cpu.cu:222:11
	movq	-8(%rbp), %rax
	.loc	3 222 19                        # ./streamcluster_cuda_cpu.cu:222:19
	movq	16(%rax), %rax
	.loc	3 222 11                        # ./streamcluster_cuda_cpu.cu:222:11
	movslq	-148(%rbp), %rdx
	shlq	$5, %rdx
	addq	%rdx, %rax
	.loc	3 222 31                        # ./streamcluster_cuda_cpu.cu:222:31
	movq	%rcx, 16(%rax)
.Ltmp260:
.LBB13_16:                              # %if.end75
                                        #   in Loop: Header=BB13_13 Depth=2
	.loc	3 224 7 is_stmt 1               # ./streamcluster_cuda_cpu.cu:224:7
	jmp	.LBB13_17
.Ltmp261:
.LBB13_17:                              # %for.inc76
                                        #   in Loop: Header=BB13_13 Depth=2
	.loc	3 218 33                        # ./streamcluster_cuda_cpu.cu:218:33
	movl	-148(%rbp), %eax
	addl	$1, %eax
	movl	%eax, -148(%rbp)
	.loc	3 218 7 is_stmt 0               # ./streamcluster_cuda_cpu.cu:218:7
	jmp	.LBB13_13
.Ltmp262:
.LBB13_18:                              # %for.end78
                                        #   in Loop: Header=BB13_10 Depth=1
	.loc	3 209 5 is_stmt 1               # ./streamcluster_cuda_cpu.cu:209:5
	jmp	.LBB13_10
.LBB13_19:                              # %while.end
	.loc	3 230 3                         # ./streamcluster_cuda_cpu.cu:230:3
	jmp	.LBB13_33
.Ltmp263:
.LBB13_20:                              # %if.else
	.loc	3 232 12                        # ./streamcluster_cuda_cpu.cu:232:12
	movl	$1, _ZZ7pspeedyP6PointsfPliP17pthread_barrier_tE1i(%rip)
.LBB13_21:                              # %for.cond79
                                        # =>This Loop Header: Depth=1
                                        #     Child Loop BB13_24 Depth 2
.Ltmp264:
	.loc	3 232 17 is_stmt 0              # ./streamcluster_cuda_cpu.cu:232:17
	movslq	_ZZ7pspeedyP6PointsfPliP17pthread_barrier_tE1i(%rip), %rax
	.loc	3 232 21                        # ./streamcluster_cuda_cpu.cu:232:21
	movq	-8(%rbp), %rcx
	.loc	3 232 19                        # ./streamcluster_cuda_cpu.cu:232:19
	cmpq	(%rcx), %rax
.Ltmp265:
	.loc	3 232 5                         # ./streamcluster_cuda_cpu.cu:232:5
	jge	.LBB13_32
# %bb.22:                               # %for.body83
                                        #   in Loop: Header=BB13_21 Depth=1
.Ltmp266:
	.loc	3 234 19 is_stmt 1              # ./streamcluster_cuda_cpu.cu:234:19
	callq	lrand48@PLT
	cvtsi2ss	%rax, %xmm1
	.loc	3 234 29 is_stmt 0              # ./streamcluster_cuda_cpu.cu:234:29
	movss	.LCPI13_0(%rip), %xmm0          # xmm0 = [2.14748365E+9,0.0E+0,0.0E+0,0.0E+0]
	divss	%xmm0, %xmm1
	.loc	3 234 53                        # ./streamcluster_cuda_cpu.cu:234:53
	movq	-8(%rbp), %rax
	.loc	3 234 61                        # ./streamcluster_cuda_cpu.cu:234:61
	movq	16(%rax), %rax
	.loc	3 234 53                        # ./streamcluster_cuda_cpu.cu:234:53
	movslq	_ZZ7pspeedyP6PointsfPliP17pthread_barrier_tE1i(%rip), %rcx
	shlq	$5, %rcx
	addq	%rcx, %rax
	.loc	3 234 66                        # ./streamcluster_cuda_cpu.cu:234:66
	movss	24(%rax), %xmm0                 # xmm0 = mem[0],zero,zero,zero
	.loc	3 234 71                        # ./streamcluster_cuda_cpu.cu:234:71
	divss	-12(%rbp), %xmm0
	.loc	3 234 50                        # ./streamcluster_cuda_cpu.cu:234:50
	ucomiss	%xmm1, %xmm0
	seta	%al
	.loc	3 233 12 is_stmt 1              # ./streamcluster_cuda_cpu.cu:233:12
	andb	$1, %al
	movb	%al, -217(%rbp)
	.loc	3 235 11                        # ./streamcluster_cuda_cpu.cu:235:11
	testb	$1, -217(%rbp)
	je	.LBB13_30
# %bb.23:                               # %if.then93
                                        #   in Loop: Header=BB13_21 Depth=1
.Ltmp267:
	.loc	3 236 11                        # ./streamcluster_cuda_cpu.cu:236:11
	movq	-24(%rbp), %rax
	.loc	3 236 19 is_stmt 0              # ./streamcluster_cuda_cpu.cu:236:19
	movq	(%rax), %rcx
	addq	$1, %rcx
	movq	%rcx, (%rax)
	.loc	3 240 14 is_stmt 1              # ./streamcluster_cuda_cpu.cu:240:14
	movb	$1, _ZZ7pspeedyP6PointsfPliP17pthread_barrier_tE4open(%rip)
.Ltmp268:
	.loc	3 245 22                        # ./streamcluster_cuda_cpu.cu:245:22
	movq	-64(%rbp), %rax
                                        # kill: def $eax killed $eax killed $rax
	.loc	3 245 18 is_stmt 0              # ./streamcluster_cuda_cpu.cu:245:18
	movl	%eax, -224(%rbp)
.LBB13_24:                              # %for.cond97
                                        #   Parent Loop BB13_21 Depth=1
                                        # =>  This Inner Loop Header: Depth=2
.Ltmp269:
	.loc	3 245 26                        # ./streamcluster_cuda_cpu.cu:245:26
	movslq	-224(%rbp), %rax
	.loc	3 245 28                        # ./streamcluster_cuda_cpu.cu:245:28
	cmpq	-72(%rbp), %rax
.Ltmp270:
	.loc	3 245 9                         # ./streamcluster_cuda_cpu.cu:245:9
	jge	.LBB13_29
# %bb.25:                               # %for.body100
                                        #   in Loop: Header=BB13_24 Depth=2
.Ltmp271:
	.loc	3 246 33 is_stmt 1              # ./streamcluster_cuda_cpu.cu:246:33
	movq	-8(%rbp), %rax
	.loc	3 246 41 is_stmt 0              # ./streamcluster_cuda_cpu.cu:246:41
	movq	16(%rax), %rax
	.loc	3 246 33                        # ./streamcluster_cuda_cpu.cu:246:33
	movslq	_ZZ7pspeedyP6PointsfPliP17pthread_barrier_tE1i(%rip), %rcx
	shlq	$5, %rcx
	addq	%rcx, %rax
	movq	(%rax), %rcx
	movq	%rcx, -264(%rbp)
	movq	8(%rax), %rcx
	movq	%rcx, -256(%rbp)
	movq	16(%rax), %rcx
	movq	%rcx, -248(%rbp)
	movq	24(%rax), %rax
	movq	%rax, -240(%rbp)
	.loc	3 246 47                        # ./streamcluster_cuda_cpu.cu:246:47
	movq	-8(%rbp), %rax
	.loc	3 246 55                        # ./streamcluster_cuda_cpu.cu:246:55
	movq	16(%rax), %rax
	.loc	3 246 47                        # ./streamcluster_cuda_cpu.cu:246:47
	movslq	-224(%rbp), %rcx
	shlq	$5, %rcx
	addq	%rcx, %rax
	movq	(%rax), %rcx
	movq	%rcx, -296(%rbp)
	movq	8(%rax), %rcx
	movq	%rcx, -288(%rbp)
	movq	16(%rax), %rcx
	movq	%rcx, -280(%rbp)
	movq	24(%rax), %rax
	movq	%rax, -272(%rbp)
	.loc	3 246 61                        # ./streamcluster_cuda_cpu.cu:246:61
	movq	-8(%rbp), %rax
	.loc	3 246 69                        # ./streamcluster_cuda_cpu.cu:246:69
	movl	8(%rax), %edi
	.loc	3 246 28                        # ./streamcluster_cuda_cpu.cu:246:28
	leaq	-264(%rbp), %rcx
	leaq	-296(%rbp), %rax
	movq	(%rcx), %rdx
	movq	%rdx, (%rsp)
	movq	8(%rcx), %rdx
	movq	%rdx, 8(%rsp)
	movq	16(%rcx), %rdx
	movq	%rdx, 16(%rsp)
	movq	24(%rcx), %rcx
	movq	%rcx, 24(%rsp)
	movq	(%rax), %rcx
	movq	%rcx, 32(%rsp)
	movq	8(%rax), %rcx
	movq	%rcx, 40(%rsp)
	movq	16(%rax), %rcx
	movq	%rcx, 48(%rsp)
	movq	24(%rax), %rax
	movq	%rax, 56(%rsp)
	callq	_Z4dist5PointS_i
	.loc	3 246 17                        # ./streamcluster_cuda_cpu.cu:246:17
	movss	%xmm0, -228(%rbp)
.Ltmp272:
	.loc	3 247 15 is_stmt 1              # ./streamcluster_cuda_cpu.cu:247:15
	movss	-228(%rbp), %xmm1               # xmm1 = mem[0],zero,zero,zero
	.loc	3 247 26 is_stmt 0              # ./streamcluster_cuda_cpu.cu:247:26
	movq	-8(%rbp), %rax
	.loc	3 247 34                        # ./streamcluster_cuda_cpu.cu:247:34
	movq	16(%rax), %rax
	.loc	3 247 26                        # ./streamcluster_cuda_cpu.cu:247:26
	movslq	-224(%rbp), %rcx
	shlq	$5, %rcx
	addq	%rcx, %rax
	.loc	3 247 24                        # ./streamcluster_cuda_cpu.cu:247:24
	mulss	(%rax), %xmm1
	.loc	3 247 48                        # ./streamcluster_cuda_cpu.cu:247:48
	movq	-8(%rbp), %rax
	.loc	3 247 56                        # ./streamcluster_cuda_cpu.cu:247:56
	movq	16(%rax), %rax
	.loc	3 247 48                        # ./streamcluster_cuda_cpu.cu:247:48
	movslq	-224(%rbp), %rcx
	shlq	$5, %rcx
	addq	%rcx, %rax
	.loc	3 247 61                        # ./streamcluster_cuda_cpu.cu:247:61
	movss	24(%rax), %xmm0                 # xmm0 = mem[0],zero,zero,zero
	.loc	3 247 46                        # ./streamcluster_cuda_cpu.cu:247:46
	ucomiss	%xmm1, %xmm0
.Ltmp273:
	.loc	3 247 15                        # ./streamcluster_cuda_cpu.cu:247:15
	jbe	.LBB13_27
# %bb.26:                               # %if.then122
                                        #   in Loop: Header=BB13_24 Depth=2
.Ltmp274:
	.loc	3 248 33 is_stmt 1              # ./streamcluster_cuda_cpu.cu:248:33
	movss	-228(%rbp), %xmm0               # xmm0 = mem[0],zero,zero,zero
	.loc	3 248 44 is_stmt 0              # ./streamcluster_cuda_cpu.cu:248:44
	movq	-8(%rbp), %rax
	.loc	3 248 52                        # ./streamcluster_cuda_cpu.cu:248:52
	movq	16(%rax), %rax
	.loc	3 248 44                        # ./streamcluster_cuda_cpu.cu:248:44
	movslq	-224(%rbp), %rcx
	shlq	$5, %rcx
	addq	%rcx, %rax
	.loc	3 248 42                        # ./streamcluster_cuda_cpu.cu:248:42
	mulss	(%rax), %xmm0
	.loc	3 248 13                        # ./streamcluster_cuda_cpu.cu:248:13
	movq	-8(%rbp), %rax
	.loc	3 248 21                        # ./streamcluster_cuda_cpu.cu:248:21
	movq	16(%rax), %rax
	.loc	3 248 13                        # ./streamcluster_cuda_cpu.cu:248:13
	movslq	-224(%rbp), %rcx
	shlq	$5, %rcx
	addq	%rcx, %rax
	.loc	3 248 31                        # ./streamcluster_cuda_cpu.cu:248:31
	movss	%xmm0, 24(%rax)
	.loc	3 249 35 is_stmt 1              # ./streamcluster_cuda_cpu.cu:249:35
	movslq	_ZZ7pspeedyP6PointsfPliP17pthread_barrier_tE1i(%rip), %rcx
	.loc	3 249 13 is_stmt 0              # ./streamcluster_cuda_cpu.cu:249:13
	movq	-8(%rbp), %rax
	.loc	3 249 21                        # ./streamcluster_cuda_cpu.cu:249:21
	movq	16(%rax), %rax
	.loc	3 249 13                        # ./streamcluster_cuda_cpu.cu:249:13
	movslq	-224(%rbp), %rdx
	shlq	$5, %rdx
	addq	%rdx, %rax
	.loc	3 249 33                        # ./streamcluster_cuda_cpu.cu:249:33
	movq	%rcx, 16(%rax)
.Ltmp275:
.LBB13_27:                              # %if.end137
                                        #   in Loop: Header=BB13_24 Depth=2
	.loc	3 251 9 is_stmt 1               # ./streamcluster_cuda_cpu.cu:251:9
	jmp	.LBB13_28
.Ltmp276:
.LBB13_28:                              # %for.inc138
                                        #   in Loop: Header=BB13_24 Depth=2
	.loc	3 245 35                        # ./streamcluster_cuda_cpu.cu:245:35
	movl	-224(%rbp), %eax
	addl	$1, %eax
	movl	%eax, -224(%rbp)
	.loc	3 245 9 is_stmt 0               # ./streamcluster_cuda_cpu.cu:245:9
	jmp	.LBB13_24
.Ltmp277:
.LBB13_29:                              # %for.end140
                                        #   in Loop: Header=BB13_21 Depth=1
	.loc	3 255 14 is_stmt 1              # ./streamcluster_cuda_cpu.cu:255:14
	movb	$0, _ZZ7pspeedyP6PointsfPliP17pthread_barrier_tE4open(%rip)
.Ltmp278:
.LBB13_30:                              # %if.end141
                                        #   in Loop: Header=BB13_21 Depth=1
	.loc	3 260 5                         # ./streamcluster_cuda_cpu.cu:260:5
	jmp	.LBB13_31
.Ltmp279:
.LBB13_31:                              # %for.inc142
                                        #   in Loop: Header=BB13_21 Depth=1
	.loc	3 232 35                        # ./streamcluster_cuda_cpu.cu:232:35
	movl	_ZZ7pspeedyP6PointsfPliP17pthread_barrier_tE1i(%rip), %eax
	addl	$1, %eax
	movl	%eax, _ZZ7pspeedyP6PointsfPliP17pthread_barrier_tE1i(%rip)
	.loc	3 232 5 is_stmt 0               # ./streamcluster_cuda_cpu.cu:232:5
	jmp	.LBB13_21
.Ltmp280:
.LBB13_32:                              # %for.end144
	.loc	3 264 10 is_stmt 1              # ./streamcluster_cuda_cpu.cu:264:10
	movb	$1, _ZZ7pspeedyP6PointsfPliP17pthread_barrier_tE4open(%rip)
.Ltmp281:
.LBB13_33:                              # %if.end145
	.loc	3 273 8                         # ./streamcluster_cuda_cpu.cu:273:8
	movb	$0, _ZZ7pspeedyP6PointsfPliP17pthread_barrier_tE4open(%rip)
	.loc	3 274 9                         # ./streamcluster_cuda_cpu.cu:274:9
	xorps	%xmm0, %xmm0
	movss	%xmm0, -300(%rbp)
.Ltmp282:
	.loc	3 275 16                        # ./streamcluster_cuda_cpu.cu:275:16
	movq	-64(%rbp), %rax
                                        # kill: def $eax killed $eax killed $rax
	.loc	3 275 12 is_stmt 0              # ./streamcluster_cuda_cpu.cu:275:12
	movl	%eax, -304(%rbp)
.LBB13_34:                              # %for.cond148
                                        # =>This Inner Loop Header: Depth=1
.Ltmp283:
	.loc	3 275 20                        # ./streamcluster_cuda_cpu.cu:275:20
	movslq	-304(%rbp), %rax
	.loc	3 275 22                        # ./streamcluster_cuda_cpu.cu:275:22
	cmpq	-72(%rbp), %rax
.Ltmp284:
	.loc	3 275 3                         # ./streamcluster_cuda_cpu.cu:275:3
	jge	.LBB13_37
# %bb.35:                               # %for.body151
                                        #   in Loop: Header=BB13_34 Depth=1
.Ltmp285:
	.loc	3 276 16 is_stmt 1              # ./streamcluster_cuda_cpu.cu:276:16
	movq	-8(%rbp), %rax
	.loc	3 276 24 is_stmt 0              # ./streamcluster_cuda_cpu.cu:276:24
	movq	16(%rax), %rax
	.loc	3 276 16                        # ./streamcluster_cuda_cpu.cu:276:16
	movslq	-304(%rbp), %rcx
	shlq	$5, %rcx
	addq	%rcx, %rax
	.loc	3 276 29                        # ./streamcluster_cuda_cpu.cu:276:29
	movss	24(%rax), %xmm0                 # xmm0 = mem[0],zero,zero,zero
	.loc	3 276 13                        # ./streamcluster_cuda_cpu.cu:276:13
	addss	-300(%rbp), %xmm0
	movss	%xmm0, -300(%rbp)
.Ltmp286:
# %bb.36:                               # %for.inc157
                                        #   in Loop: Header=BB13_34 Depth=1
	.loc	3 275 29 is_stmt 1              # ./streamcluster_cuda_cpu.cu:275:29
	movl	-304(%rbp), %eax
	addl	$1, %eax
	movl	%eax, -304(%rbp)
	.loc	3 275 3 is_stmt 0               # ./streamcluster_cuda_cpu.cu:275:3
	jmp	.LBB13_34
.Ltmp287:
.LBB13_37:                              # %for.end159
	.loc	3 278 16 is_stmt 1              # ./streamcluster_cuda_cpu.cu:278:16
	movss	-300(%rbp), %xmm0               # xmm0 = mem[0],zero,zero,zero
	.loc	3 278 3 is_stmt 0               # ./streamcluster_cuda_cpu.cu:278:3
	movq	_ZZ7pspeedyP6PointsfPliP17pthread_barrier_tE5costs(%rip), %rax
	movslq	-28(%rbp), %rcx
	.loc	3 278 14                        # ./streamcluster_cuda_cpu.cu:278:14
	movss	%xmm0, (%rax,%rcx,4)
.Ltmp288:
	.loc	3 283 11 is_stmt 1              # ./streamcluster_cuda_cpu.cu:283:11
	cmpl	$0, -28(%rbp)
.Ltmp289:
	.loc	3 283 7 is_stmt 0               # ./streamcluster_cuda_cpu.cu:283:7
	jne	.LBB13_43
# %bb.38:                               # %if.then163
.Ltmp290:
	.loc	3 284 17 is_stmt 1              # ./streamcluster_cuda_cpu.cu:284:17
	movss	-12(%rbp), %xmm0                # xmm0 = mem[0],zero,zero,zero
	.loc	3 284 23 is_stmt 0              # ./streamcluster_cuda_cpu.cu:284:23
	movq	-24(%rbp), %rax
	.loc	3 284 21                        # ./streamcluster_cuda_cpu.cu:284:21
	cvtsi2ssq	(%rax), %xmm1
	.loc	3 284 19                        # ./streamcluster_cuda_cpu.cu:284:19
	mulss	%xmm1, %xmm0
	.loc	3 284 15                        # ./streamcluster_cuda_cpu.cu:284:15
	movss	%xmm0, _ZZ7pspeedyP6PointsfPliP17pthread_barrier_tE9totalcost(%rip)
.Ltmp291:
	.loc	3 285 14 is_stmt 1              # ./streamcluster_cuda_cpu.cu:285:14
	movl	$0, -308(%rbp)
.LBB13_39:                              # %for.cond166
                                        # =>This Inner Loop Header: Depth=1
.Ltmp292:
	.loc	3 285 21 is_stmt 0              # ./streamcluster_cuda_cpu.cu:285:21
	movl	-308(%rbp), %eax
	.loc	3 285 23                        # ./streamcluster_cuda_cpu.cu:285:23
	cmpl	_ZL5nproc(%rip), %eax
.Ltmp293:
	.loc	3 285 5                         # ./streamcluster_cuda_cpu.cu:285:5
	jge	.LBB13_42
# %bb.40:                               # %for.body168
                                        #   in Loop: Header=BB13_39 Depth=1
.Ltmp294:
	.loc	3 286 20 is_stmt 1              # ./streamcluster_cuda_cpu.cu:286:20
	movq	_ZZ7pspeedyP6PointsfPliP17pthread_barrier_tE5costs(%rip), %rax
	movslq	-308(%rbp), %rcx
	movss	(%rax,%rcx,4), %xmm0            # xmm0 = mem[0],zero,zero,zero
	.loc	3 286 17 is_stmt 0              # ./streamcluster_cuda_cpu.cu:286:17
	addss	_ZZ7pspeedyP6PointsfPliP17pthread_barrier_tE9totalcost(%rip), %xmm0
	movss	%xmm0, _ZZ7pspeedyP6PointsfPliP17pthread_barrier_tE9totalcost(%rip)
.Ltmp295:
# %bb.41:                               # %for.inc172
                                        #   in Loop: Header=BB13_39 Depth=1
	.loc	3 285 33 is_stmt 1              # ./streamcluster_cuda_cpu.cu:285:33
	movl	-308(%rbp), %eax
	addl	$1, %eax
	movl	%eax, -308(%rbp)
	.loc	3 285 5 is_stmt 0               # ./streamcluster_cuda_cpu.cu:285:5
	jmp	.LBB13_39
.Ltmp296:
.LBB13_42:                              # %for.end174
	.loc	3 288 10 is_stmt 1              # ./streamcluster_cuda_cpu.cu:288:10
	movq	_ZZ7pspeedyP6PointsfPliP17pthread_barrier_tE5costs(%rip), %rdi
	.loc	3 288 5 is_stmt 0               # ./streamcluster_cuda_cpu.cu:288:5
	callq	free@PLT
.Ltmp297:
.LBB13_43:                              # %if.end175
	.loc	3 303 15 is_stmt 1              # ./streamcluster_cuda_cpu.cu:303:15
	callq	_Z7gettimev
	.loc	3 303 10 is_stmt 0              # ./streamcluster_cuda_cpu.cu:303:10
	movsd	%xmm0, -320(%rbp)
.Ltmp298:
	.loc	3 304 11 is_stmt 1              # ./streamcluster_cuda_cpu.cu:304:11
	cmpl	$0, -28(%rbp)
.Ltmp299:
	.loc	3 304 7 is_stmt 0               # ./streamcluster_cuda_cpu.cu:304:7
	jne	.LBB13_45
# %bb.44:                               # %if.then178
.Ltmp300:
	.loc	3 305 20 is_stmt 1              # ./streamcluster_cuda_cpu.cu:305:20
	movsd	-320(%rbp), %xmm0               # xmm0 = mem[0],zero
	.loc	3 305 23 is_stmt 0              # ./streamcluster_cuda_cpu.cu:305:23
	subsd	-48(%rbp), %xmm0
	.loc	3 305 17                        # ./streamcluster_cuda_cpu.cu:305:17
	addsd	time_speedy(%rip), %xmm0
	movsd	%xmm0, time_speedy(%rip)
.Ltmp301:
.LBB13_45:                              # %if.end181
	.loc	3 308 11 is_stmt 1              # ./streamcluster_cuda_cpu.cu:308:11
	movss	_ZZ7pspeedyP6PointsfPliP17pthread_barrier_tE9totalcost(%rip), %xmm0 # xmm0 = mem[0],zero,zero,zero
	.loc	3 308 3 epilogue_begin is_stmt 0 # ./streamcluster_cuda_cpu.cu:308:3
	addq	$384, %rsp                      # imm = 0x180
	popq	%rbp
	.cfi_def_cfa %rsp, 8
	retq
.Ltmp302:
.Lfunc_end13:
	.size	_Z7pspeedyP6PointsfPliP17pthread_barrier_t, .Lfunc_end13-_Z7pspeedyP6PointsfPliP17pthread_barrier_t
	.cfi_endproc
                                        # -- End function
	.section	.rodata.cst8,"aM",@progbits,8
	.p2align	3, 0x0                          # -- Begin function _Z3pFLP6PointsPiifPliflfiP17pthread_barrier_t
.LCPI14_0:
	.quad	0x3ff0000000000000              # double 1
	.text
	.globl	_Z3pFLP6PointsPiifPliflfiP17pthread_barrier_t
	.p2align	4, 0x90
	.type	_Z3pFLP6PointsPiifPliflfiP17pthread_barrier_t,@function
_Z3pFLP6PointsPiifPliflfiP17pthread_barrier_t: # @_Z3pFLP6PointsPiifPliflfiP17pthread_barrier_t
.Lfunc_begin14:
	.loc	3 320 0 is_stmt 1               # ./streamcluster_cuda_cpu.cu:320:0
	.cfi_startproc
# %bb.0:                                # %entry
	pushq	%rbp
	.cfi_def_cfa_offset 16
	.cfi_offset %rbp, -16
	movq	%rsp, %rbp
	.cfi_def_cfa_register %rbp
	pushq	%r15
	pushq	%r14
	pushq	%r13
	pushq	%r12
	pushq	%rbx
	subq	$152, %rsp
	.cfi_offset %rbx, -56
	.cfi_offset %r12, -48
	.cfi_offset %r13, -40
	.cfi_offset %r14, -32
	.cfi_offset %r15, -24
	movq	24(%rbp), %rax
	movl	16(%rbp), %eax
	movq	%rdi, -48(%rbp)
	movq	%rsi, -56(%rbp)
	movl	%edx, -60(%rbp)
	movss	%xmm0, -64(%rbp)
	movq	%rcx, -72(%rbp)
	movl	%r8d, -76(%rbp)
	movss	%xmm1, -80(%rbp)
	movq	%r9, -88(%rbp)
	movss	%xmm2, -92(%rbp)
.Ltmp303:
	.loc	3 329 12 prologue_end           # ./streamcluster_cuda_cpu.cu:329:12
	movss	-80(%rbp), %xmm0                # xmm0 = mem[0],zero,zero,zero
	.loc	3 329 10 is_stmt 0              # ./streamcluster_cuda_cpu.cu:329:10
	movss	%xmm0, -116(%rbp)
.LBB14_1:                               # %while.cond
                                        # =>This Loop Header: Depth=1
                                        #     Child Loop BB14_5 Depth 2
	.loc	3 332 10 is_stmt 1              # ./streamcluster_cuda_cpu.cu:332:10
	movss	-116(%rbp), %xmm0               # xmm0 = mem[0],zero,zero,zero
	.loc	3 332 17 is_stmt 0              # ./streamcluster_cuda_cpu.cu:332:17
	divss	-80(%rbp), %xmm0
	.loc	3 332 10                        # ./streamcluster_cuda_cpu.cu:332:10
	cvtss2sd	%xmm0, %xmm0
	.loc	3 332 32                        # ./streamcluster_cuda_cpu.cu:332:32
	movss	-92(%rbp), %xmm1                # xmm1 = mem[0],zero,zero,zero
	cvtss2sd	%xmm1, %xmm2
	.loc	3 332 30                        # ./streamcluster_cuda_cpu.cu:332:30
	movsd	.LCPI14_0(%rip), %xmm1          # xmm1 = [1.0E+0,0.0E+0]
	mulsd	%xmm2, %xmm1
	.loc	3 332 24                        # ./streamcluster_cuda_cpu.cu:332:24
	ucomisd	%xmm1, %xmm0
	.loc	3 332 3                         # ./streamcluster_cuda_cpu.cu:332:3
	jbe	.LBB14_9
# %bb.2:                                # %while.body
                                        #   in Loop: Header=BB14_1 Depth=1
.Ltmp304:
	.loc	3 333 12 is_stmt 1              # ./streamcluster_cuda_cpu.cu:333:12
	xorps	%xmm0, %xmm0
	movss	%xmm0, -116(%rbp)
	.loc	3 334 22                        # ./streamcluster_cuda_cpu.cu:334:22
	movq	-48(%rbp), %rax
	.loc	3 334 30 is_stmt 0              # ./streamcluster_cuda_cpu.cu:334:30
	movq	(%rax), %rax
	.loc	3 334 20                        # ./streamcluster_cuda_cpu.cu:334:20
	movq	%rax, -128(%rbp)
.Ltmp305:
	.loc	3 337 13 is_stmt 1              # ./streamcluster_cuda_cpu.cu:337:13
	cmpl	$0, 16(%rbp)
.Ltmp306:
	.loc	3 337 9 is_stmt 0               # ./streamcluster_cuda_cpu.cu:337:9
	jne	.LBB14_4
# %bb.3:                                # %if.then
                                        #   in Loop: Header=BB14_1 Depth=1
.Ltmp307:
	.loc	3 338 18 is_stmt 1              # ./streamcluster_cuda_cpu.cu:338:18
	movq	-56(%rbp), %rdi
	.loc	3 338 28 is_stmt 0              # ./streamcluster_cuda_cpu.cu:338:28
	movl	-60(%rbp), %esi
	.loc	3 338 7                         # ./streamcluster_cuda_cpu.cu:338:7
	callq	_Z10intshufflePii
.Ltmp308:
.LBB14_4:                               # %if.end
                                        #   in Loop: Header=BB14_1 Depth=1
	.loc	3 344 12 is_stmt 1              # ./streamcluster_cuda_cpu.cu:344:12
	movq	$0, -104(%rbp)
.LBB14_5:                               # %for.cond
                                        #   Parent Loop BB14_1 Depth=1
                                        # =>  This Inner Loop Header: Depth=2
.Ltmp309:
	.loc	3 344 17 is_stmt 0              # ./streamcluster_cuda_cpu.cu:344:17
	movq	-104(%rbp), %rax
	.loc	3 344 19                        # ./streamcluster_cuda_cpu.cu:344:19
	cmpq	-88(%rbp), %rax
.Ltmp310:
	.loc	3 344 5                         # ./streamcluster_cuda_cpu.cu:344:5
	jge	.LBB14_8
# %bb.6:                                # %for.body
                                        #   in Loop: Header=BB14_5 Depth=2
.Ltmp311:
	.loc	3 345 11 is_stmt 1              # ./streamcluster_cuda_cpu.cu:345:11
	movq	-104(%rbp), %rax
	.loc	3 345 15 is_stmt 0              # ./streamcluster_cuda_cpu.cu:345:15
	movslq	-60(%rbp), %rcx
	.loc	3 345 13                        # ./streamcluster_cuda_cpu.cu:345:13
	cqto
	idivq	%rcx
	.loc	3 345 9                         # ./streamcluster_cuda_cpu.cu:345:9
	movq	%rdx, -112(%rbp)
	.loc	3 346 37 is_stmt 1              # ./streamcluster_cuda_cpu.cu:346:37
	movq	-104(%rbp), %rsi
	.loc	3 346 40 is_stmt 0              # ./streamcluster_cuda_cpu.cu:346:40
	movq	-88(%rbp), %rdx
	.loc	3 346 7                         # ./streamcluster_cuda_cpu.cu:346:7
	leaq	.L.str.5(%rip), %rdi
	movb	$0, %al
	callq	printf@PLT
	.loc	3 348 17 is_stmt 1              # ./streamcluster_cuda_cpu.cu:348:17
	movq	-56(%rbp), %rax
	.loc	3 348 26 is_stmt 0              # ./streamcluster_cuda_cpu.cu:348:26
	movq	-112(%rbp), %rcx
	.loc	3 348 17                        # ./streamcluster_cuda_cpu.cu:348:17
	movslq	(%rax,%rcx,4), %rdi
	.loc	3 348 30                        # ./streamcluster_cuda_cpu.cu:348:30
	movq	-48(%rbp), %rsi
	.loc	3 348 38                        # ./streamcluster_cuda_cpu.cu:348:38
	movss	-64(%rbp), %xmm0                # xmm0 = mem[0],zero,zero,zero
	.loc	3 348 41                        # ./streamcluster_cuda_cpu.cu:348:41
	movq	-72(%rbp), %rdx
	.loc	3 348 44                        # ./streamcluster_cuda_cpu.cu:348:44
	movl	-76(%rbp), %ecx
	.loc	3 348 50                        # ./streamcluster_cuda_cpu.cu:348:50
	movq	_ZL9is_center(%rip), %r8
	.loc	3 348 61                        # ./streamcluster_cuda_cpu.cu:348:61
	movq	_ZL12center_table(%rip), %r9
	.loc	3 349 17 is_stmt 1              # ./streamcluster_cuda_cpu.cu:349:17
	movq	_ZL17switch_membership(%rip), %r13
	.loc	3 349 36 is_stmt 0              # ./streamcluster_cuda_cpu.cu:349:36
	movb	isCoordChanged(%rip), %r12b
	.loc	3 348 11 is_stmt 1              # ./streamcluster_cuda_cpu.cu:348:11
	leaq	serial_t(%rip), %r15
	leaq	cpu_to_gpu_t(%rip), %r14
	leaq	gpu_to_cpu_t(%rip), %rbx
	leaq	alloc_t(%rip), %r11
	leaq	kernel_t(%rip), %r10
	leaq	free_t(%rip), %rax
	andb	$1, %r12b
	movq	%r13, (%rsp)
	movzbl	%r12b, %r12d
	movl	%r12d, 8(%rsp)
	movq	%r15, 16(%rsp)
	movq	%r14, 24(%rsp)
	movq	%rbx, 32(%rsp)
	movq	%r11, 40(%rsp)
	movq	%r10, 48(%rsp)
	movq	%rax, 56(%rsp)
	callq	_Z5pgainlP6PointsfPliPbPiS2_bPdS4_S4_S4_S4_S4_
	.loc	3 347 14                        # ./streamcluster_cuda_cpu.cu:347:14
	addss	-116(%rbp), %xmm0
	movss	%xmm0, -116(%rbp)
.Ltmp312:
# %bb.7:                                # %for.inc
                                        #   in Loop: Header=BB14_5 Depth=2
	.loc	3 344 28                        # ./streamcluster_cuda_cpu.cu:344:28
	movq	-104(%rbp), %rax
	addq	$1, %rax
	movq	%rax, -104(%rbp)
	.loc	3 344 5 is_stmt 0               # ./streamcluster_cuda_cpu.cu:344:5
	jmp	.LBB14_5
.Ltmp313:
.LBB14_8:                               # %for.end
                                        #   in Loop: Header=BB14_1 Depth=1
	.loc	3 353 13 is_stmt 1              # ./streamcluster_cuda_cpu.cu:353:13
	movss	-116(%rbp), %xmm1               # xmm1 = mem[0],zero,zero,zero
	.loc	3 353 10 is_stmt 0              # ./streamcluster_cuda_cpu.cu:353:10
	movss	-80(%rbp), %xmm0                # xmm0 = mem[0],zero,zero,zero
	subss	%xmm1, %xmm0
	movss	%xmm0, -80(%rbp)
.Ltmp314:
	.loc	3 332 3 is_stmt 1               # ./streamcluster_cuda_cpu.cu:332:3
	jmp	.LBB14_1
.LBB14_9:                               # %while.end
	.loc	3 364 11                        # ./streamcluster_cuda_cpu.cu:364:11
	movss	-80(%rbp), %xmm0                # xmm0 = mem[0],zero,zero,zero
	.loc	3 364 3 epilogue_begin is_stmt 0 # ./streamcluster_cuda_cpu.cu:364:3
	addq	$152, %rsp
	popq	%rbx
	popq	%r12
	popq	%r13
	popq	%r14
	popq	%r15
	popq	%rbp
	.cfi_def_cfa %rsp, 8
	retq
.Ltmp315:
.Lfunc_end14:
	.size	_Z3pFLP6PointsPiifPliflfiP17pthread_barrier_t, .Lfunc_end14-_Z3pFLP6PointsPiifPliflfiP17pthread_barrier_t
	.cfi_endproc
                                        # -- End function
	.section	.rodata.cst4,"aM",@progbits,4
	.p2align	2, 0x0                          # -- Begin function _Z19selectfeasible_fastP6PointsPPiiiP17pthread_barrier_t
.LCPI15_0:
	.long	0x4f000000                      # float 2.14748365E+9
	.text
	.globl	_Z19selectfeasible_fastP6PointsPPiiiP17pthread_barrier_t
	.p2align	4, 0x90
	.type	_Z19selectfeasible_fastP6PointsPPiiiP17pthread_barrier_t,@function
_Z19selectfeasible_fastP6PointsPPiiiP17pthread_barrier_t: # @_Z19selectfeasible_fastP6PointsPPiiiP17pthread_barrier_t
.Lfunc_begin15:
	.loc	3 368 0 is_stmt 1               # ./streamcluster_cuda_cpu.cu:368:0
	.cfi_startproc
# %bb.0:                                # %entry
	pushq	%rbp
	.cfi_def_cfa_offset 16
	.cfi_offset %rbp, -16
	movq	%rsp, %rbp
	.cfi_def_cfa_register %rbp
	subq	$144, %rsp
	movq	%rdi, -16(%rbp)
	movq	%rsi, -24(%rbp)
	movl	%edx, -28(%rbp)
	movl	%ecx, -32(%rbp)
	movq	%r8, -40(%rbp)
.Ltmp316:
	.loc	3 370 15 prologue_end           # ./streamcluster_cuda_cpu.cu:370:15
	callq	_Z7gettimev
	.loc	3 370 10 is_stmt 0              # ./streamcluster_cuda_cpu.cu:370:10
	movsd	%xmm0, -48(%rbp)
	.loc	3 373 21 is_stmt 1              # ./streamcluster_cuda_cpu.cu:373:21
	movq	-16(%rbp), %rax
	.loc	3 373 29 is_stmt 0              # ./streamcluster_cuda_cpu.cu:373:29
	movq	(%rax), %rax
                                        # kill: def $eax killed $eax killed $rax
	.loc	3 373 7                         # ./streamcluster_cuda_cpu.cu:373:7
	movl	%eax, -52(%rbp)
.Ltmp317:
	.loc	3 374 7 is_stmt 1               # ./streamcluster_cuda_cpu.cu:374:7
	cvtsi2ssl	-52(%rbp), %xmm0
	movss	%xmm0, -132(%rbp)               # 4-byte Spill
	.loc	3 374 24 is_stmt 0              # ./streamcluster_cuda_cpu.cu:374:24
	imull	$3, -28(%rbp), %eax
	.loc	3 374 22                        # ./streamcluster_cuda_cpu.cu:374:22
	cvtsi2ss	%eax, %xmm0
	movss	%xmm0, -136(%rbp)               # 4-byte Spill
	.loc	3 374 44                        # ./streamcluster_cuda_cpu.cu:374:44
	cvtsi2ssl	-28(%rbp), %xmm0
	.loc	3 374 33                        # ./streamcluster_cuda_cpu.cu:374:33
	callq	_ZSt3logf
	movss	-136(%rbp), %xmm1               # 4-byte Reload
                                        # xmm1 = mem[0],zero,zero,zero
	movaps	%xmm0, %xmm2
	movss	-132(%rbp), %xmm0               # 4-byte Reload
                                        # xmm0 = mem[0],zero,zero,zero
	.loc	3 374 31                        # ./streamcluster_cuda_cpu.cu:374:31
	mulss	%xmm2, %xmm1
	.loc	3 374 19                        # ./streamcluster_cuda_cpu.cu:374:19
	ucomiss	%xmm1, %xmm0
.Ltmp318:
	.loc	3 374 7                         # ./streamcluster_cuda_cpu.cu:374:7
	jbe	.LBB15_2
# %bb.1:                                # %if.then
.Ltmp319:
	.loc	3 375 27 is_stmt 1              # ./streamcluster_cuda_cpu.cu:375:27
	imull	$3, -28(%rbp), %eax
	.loc	3 375 25 is_stmt 0              # ./streamcluster_cuda_cpu.cu:375:25
	cvtsi2ss	%eax, %xmm0
	movss	%xmm0, -140(%rbp)               # 4-byte Spill
	.loc	3 375 47                        # ./streamcluster_cuda_cpu.cu:375:47
	cvtsi2ssl	-28(%rbp), %xmm0
	.loc	3 375 36                        # ./streamcluster_cuda_cpu.cu:375:36
	callq	_ZSt3logf
	movaps	%xmm0, %xmm1
	movss	-140(%rbp), %xmm0               # 4-byte Reload
                                        # xmm0 = mem[0],zero,zero,zero
	.loc	3 375 34                        # ./streamcluster_cuda_cpu.cu:375:34
	mulss	%xmm1, %xmm0
	.loc	3 375 24                        # ./streamcluster_cuda_cpu.cu:375:24
	cvttss2si	%xmm0, %eax
	.loc	3 375 17                        # ./streamcluster_cuda_cpu.cu:375:17
	movl	%eax, -52(%rbp)
.Ltmp320:
.LBB15_2:                               # %if.end
	.loc	3 376 29 is_stmt 1              # ./streamcluster_cuda_cpu.cu:376:29
	movslq	-52(%rbp), %rdi
	.loc	3 376 41 is_stmt 0              # ./streamcluster_cuda_cpu.cu:376:41
	shlq	$2, %rdi
	.loc	3 376 22                        # ./streamcluster_cuda_cpu.cu:376:22
	callq	malloc@PLT
	movq	%rax, %rcx
	.loc	3 376 4                         # ./streamcluster_cuda_cpu.cu:376:4
	movq	-24(%rbp), %rax
	.loc	3 376 13                        # ./streamcluster_cuda_cpu.cu:376:13
	movq	%rcx, (%rax)
	.loc	3 391 8 is_stmt 1               # ./streamcluster_cuda_cpu.cu:391:8
	movq	$0, -80(%rbp)
	.loc	3 392 13                        # ./streamcluster_cuda_cpu.cu:392:13
	movslq	-52(%rbp), %rax
	.loc	3 392 8 is_stmt 0               # ./streamcluster_cuda_cpu.cu:392:8
	movq	%rax, -88(%rbp)
.Ltmp321:
	.loc	3 398 7 is_stmt 1               # ./streamcluster_cuda_cpu.cu:398:7
	movslq	-52(%rbp), %rax
	.loc	3 398 22 is_stmt 0              # ./streamcluster_cuda_cpu.cu:398:22
	movq	-16(%rbp), %rcx
	.loc	3 398 19                        # ./streamcluster_cuda_cpu.cu:398:19
	cmpq	(%rcx), %rax
.Ltmp322:
	.loc	3 398 7                         # ./streamcluster_cuda_cpu.cu:398:7
	jne	.LBB15_8
# %bb.3:                                # %if.then19
.Ltmp323:
	.loc	3 399 18 is_stmt 1              # ./streamcluster_cuda_cpu.cu:399:18
	movq	-80(%rbp), %rax
                                        # kill: def $eax killed $eax killed $rax
	.loc	3 399 14 is_stmt 0              # ./streamcluster_cuda_cpu.cu:399:14
	movl	%eax, -108(%rbp)
.LBB15_4:                               # %for.cond
                                        # =>This Inner Loop Header: Depth=1
.Ltmp324:
	.loc	3 399 22                        # ./streamcluster_cuda_cpu.cu:399:22
	movslq	-108(%rbp), %rax
	.loc	3 399 24                        # ./streamcluster_cuda_cpu.cu:399:24
	cmpq	-88(%rbp), %rax
.Ltmp325:
	.loc	3 399 5                         # ./streamcluster_cuda_cpu.cu:399:5
	jge	.LBB15_7
# %bb.5:                                # %for.body
                                        #   in Loop: Header=BB15_4 Depth=1
.Ltmp326:
	.loc	3 400 24 is_stmt 1              # ./streamcluster_cuda_cpu.cu:400:24
	movl	-108(%rbp), %edx
	.loc	3 400 9 is_stmt 0               # ./streamcluster_cuda_cpu.cu:400:9
	movq	-24(%rbp), %rax
	.loc	3 400 8                         # ./streamcluster_cuda_cpu.cu:400:8
	movq	(%rax), %rax
	.loc	3 400 7                         # ./streamcluster_cuda_cpu.cu:400:7
	movslq	-108(%rbp), %rcx
	.loc	3 400 22                        # ./streamcluster_cuda_cpu.cu:400:22
	movl	%edx, (%rax,%rcx,4)
# %bb.6:                                # %for.inc
                                        #   in Loop: Header=BB15_4 Depth=1
	.loc	3 399 31 is_stmt 1              # ./streamcluster_cuda_cpu.cu:399:31
	movl	-108(%rbp), %eax
	addl	$1, %eax
	movl	%eax, -108(%rbp)
	.loc	3 399 5 is_stmt 0               # ./streamcluster_cuda_cpu.cu:399:5
	jmp	.LBB15_4
.Ltmp327:
.LBB15_7:                               # %for.end
	.loc	3 401 12 is_stmt 1              # ./streamcluster_cuda_cpu.cu:401:12
	movl	-52(%rbp), %eax
	.loc	3 401 5 is_stmt 0               # ./streamcluster_cuda_cpu.cu:401:5
	movl	%eax, -4(%rbp)
	jmp	.LBB15_25
.Ltmp328:
.LBB15_8:                               # %if.end23
	.loc	3 404 49 is_stmt 1              # ./streamcluster_cuda_cpu.cu:404:49
	movq	-16(%rbp), %rax
	.loc	3 404 57 is_stmt 0              # ./streamcluster_cuda_cpu.cu:404:57
	movq	(%rax), %rdi
	.loc	3 404 47                        # ./streamcluster_cuda_cpu.cu:404:47
	shlq	$2, %rdi
	.loc	3 404 26                        # ./streamcluster_cuda_cpu.cu:404:26
	callq	malloc@PLT
	.loc	3 404 15                        # ./streamcluster_cuda_cpu.cu:404:15
	movq	%rax, -64(%rbp)
	.loc	3 405 20 is_stmt 1              # ./streamcluster_cuda_cpu.cu:405:20
	movq	-16(%rbp), %rax
	.loc	3 405 28 is_stmt 0              # ./streamcluster_cuda_cpu.cu:405:28
	movq	16(%rax), %rax
	.loc	3 405 33                        # ./streamcluster_cuda_cpu.cu:405:33
	movss	(%rax), %xmm0                   # xmm0 = mem[0],zero,zero,zero
	.loc	3 405 3                         # ./streamcluster_cuda_cpu.cu:405:3
	movq	-64(%rbp), %rax
	.loc	3 405 18                        # ./streamcluster_cuda_cpu.cu:405:18
	movss	%xmm0, (%rax)
	.loc	3 406 15 is_stmt 1              # ./streamcluster_cuda_cpu.cu:406:15
	xorps	%xmm0, %xmm0
	movss	%xmm0, -68(%rbp)
.Ltmp329:
	.loc	3 407 12                        # ./streamcluster_cuda_cpu.cu:407:12
	movl	$1, -112(%rbp)
.LBB15_9:                               # %for.cond30
                                        # =>This Inner Loop Header: Depth=1
.Ltmp330:
	.loc	3 407 19 is_stmt 0              # ./streamcluster_cuda_cpu.cu:407:19
	movslq	-112(%rbp), %rax
	.loc	3 407 23                        # ./streamcluster_cuda_cpu.cu:407:23
	movq	-16(%rbp), %rcx
	.loc	3 407 21                        # ./streamcluster_cuda_cpu.cu:407:21
	cmpq	(%rcx), %rax
.Ltmp331:
	.loc	3 407 3                         # ./streamcluster_cuda_cpu.cu:407:3
	jge	.LBB15_12
# %bb.10:                               # %for.body34
                                        #   in Loop: Header=BB15_9 Depth=1
.Ltmp332:
	.loc	3 408 22 is_stmt 1              # ./streamcluster_cuda_cpu.cu:408:22
	movq	-64(%rbp), %rax
	.loc	3 408 34 is_stmt 0              # ./streamcluster_cuda_cpu.cu:408:34
	movl	-112(%rbp), %ecx
	.loc	3 408 36                        # ./streamcluster_cuda_cpu.cu:408:36
	subl	$1, %ecx
	.loc	3 408 22                        # ./streamcluster_cuda_cpu.cu:408:22
	movslq	%ecx, %rcx
	movss	(%rax,%rcx,4), %xmm0            # xmm0 = mem[0],zero,zero,zero
	.loc	3 408 43                        # ./streamcluster_cuda_cpu.cu:408:43
	movq	-16(%rbp), %rax
	.loc	3 408 51                        # ./streamcluster_cuda_cpu.cu:408:51
	movq	16(%rax), %rax
	.loc	3 408 43                        # ./streamcluster_cuda_cpu.cu:408:43
	movslq	-112(%rbp), %rcx
	shlq	$5, %rcx
	addq	%rcx, %rax
	.loc	3 408 41                        # ./streamcluster_cuda_cpu.cu:408:41
	addss	(%rax), %xmm0
	.loc	3 408 5                         # ./streamcluster_cuda_cpu.cu:408:5
	movq	-64(%rbp), %rax
	movslq	-112(%rbp), %rcx
	.loc	3 408 20                        # ./streamcluster_cuda_cpu.cu:408:20
	movss	%xmm0, (%rax,%rcx,4)
.Ltmp333:
# %bb.11:                               # %for.inc43
                                        #   in Loop: Header=BB15_9 Depth=1
	.loc	3 407 37 is_stmt 1              # ./streamcluster_cuda_cpu.cu:407:37
	movl	-112(%rbp), %eax
	addl	$1, %eax
	movl	%eax, -112(%rbp)
	.loc	3 407 3 is_stmt 0               # ./streamcluster_cuda_cpu.cu:407:3
	jmp	.LBB15_9
.Ltmp334:
.LBB15_12:                              # %for.end45
	.loc	3 410 17 is_stmt 1              # ./streamcluster_cuda_cpu.cu:410:17
	movq	-64(%rbp), %rax
	.loc	3 410 29 is_stmt 0              # ./streamcluster_cuda_cpu.cu:410:29
	movq	-16(%rbp), %rcx
	.loc	3 410 37                        # ./streamcluster_cuda_cpu.cu:410:37
	movq	(%rcx), %rcx
	.loc	3 410 41                        # ./streamcluster_cuda_cpu.cu:410:41
	subq	$1, %rcx
	.loc	3 410 17                        # ./streamcluster_cuda_cpu.cu:410:17
	movss	(%rax,%rcx,4), %xmm0            # xmm0 = mem[0],zero,zero,zero
	.loc	3 410 15                        # ./streamcluster_cuda_cpu.cu:410:15
	movss	%xmm0, -68(%rbp)
.Ltmp335:
	.loc	3 412 16 is_stmt 1              # ./streamcluster_cuda_cpu.cu:412:16
	movq	-80(%rbp), %rax
                                        # kill: def $eax killed $eax killed $rax
	.loc	3 412 12 is_stmt 0              # ./streamcluster_cuda_cpu.cu:412:12
	movl	%eax, -116(%rbp)
.LBB15_13:                              # %for.cond51
                                        # =>This Loop Header: Depth=1
                                        #     Child Loop BB15_17 Depth 2
.Ltmp336:
	.loc	3 412 20                        # ./streamcluster_cuda_cpu.cu:412:20
	movslq	-116(%rbp), %rax
	.loc	3 412 22                        # ./streamcluster_cuda_cpu.cu:412:22
	cmpq	-88(%rbp), %rax
.Ltmp337:
	.loc	3 412 3                         # ./streamcluster_cuda_cpu.cu:412:3
	jge	.LBB15_24
# %bb.14:                               # %for.body54
                                        #   in Loop: Header=BB15_13 Depth=1
.Ltmp338:
	.loc	3 413 10 is_stmt 1              # ./streamcluster_cuda_cpu.cu:413:10
	callq	lrand48@PLT
	cvtsi2ss	%rax, %xmm0
	.loc	3 413 20 is_stmt 0              # ./streamcluster_cuda_cpu.cu:413:20
	movss	.LCPI15_0(%rip), %xmm1          # xmm1 = [2.14748365E+9,0.0E+0,0.0E+0,0.0E+0]
	divss	%xmm1, %xmm0
	.loc	3 413 41                        # ./streamcluster_cuda_cpu.cu:413:41
	mulss	-68(%rbp), %xmm0
	.loc	3 413 7                         # ./streamcluster_cuda_cpu.cu:413:7
	movss	%xmm0, -92(%rbp)
	.loc	3 415 7 is_stmt 1               # ./streamcluster_cuda_cpu.cu:415:7
	movl	$0, -96(%rbp)
	.loc	3 416 9                         # ./streamcluster_cuda_cpu.cu:416:9
	movq	-16(%rbp), %rax
	.loc	3 416 17 is_stmt 0              # ./streamcluster_cuda_cpu.cu:416:17
	movq	(%rax), %rax
	.loc	3 416 21                        # ./streamcluster_cuda_cpu.cu:416:21
	subq	$1, %rax
                                        # kill: def $eax killed $eax killed $rax
	.loc	3 416 7                         # ./streamcluster_cuda_cpu.cu:416:7
	movl	%eax, -100(%rbp)
.Ltmp339:
	.loc	3 417 9 is_stmt 1               # ./streamcluster_cuda_cpu.cu:417:9
	movq	-64(%rbp), %rax
	movss	(%rax), %xmm0                   # xmm0 = mem[0],zero,zero,zero
	.loc	3 417 24 is_stmt 0              # ./streamcluster_cuda_cpu.cu:417:24
	ucomiss	-92(%rbp), %xmm0
.Ltmp340:
	.loc	3 417 9                         # ./streamcluster_cuda_cpu.cu:417:9
	jbe	.LBB15_16
# %bb.15:                               # %if.then63
                                        #   in Loop: Header=BB15_13 Depth=1
.Ltmp341:
	.loc	3 418 9 is_stmt 1               # ./streamcluster_cuda_cpu.cu:418:9
	movq	-24(%rbp), %rax
	.loc	3 418 8 is_stmt 0               # ./streamcluster_cuda_cpu.cu:418:8
	movq	(%rax), %rax
	.loc	3 418 7                         # ./streamcluster_cuda_cpu.cu:418:7
	movslq	-116(%rbp), %rcx
	.loc	3 418 22                        # ./streamcluster_cuda_cpu.cu:418:22
	movl	$0, (%rax,%rcx,4)
	.loc	3 419 7 is_stmt 1               # ./streamcluster_cuda_cpu.cu:419:7
	jmp	.LBB15_23
.Ltmp342:
.LBB15_16:                              # %if.end66
                                        #   in Loop: Header=BB15_13 Depth=1
	.loc	3 421 5                         # ./streamcluster_cuda_cpu.cu:421:5
	jmp	.LBB15_17
.LBB15_17:                              # %while.cond
                                        #   Parent Loop BB15_13 Depth=1
                                        # =>  This Inner Loop Header: Depth=2
	.loc	3 421 12 is_stmt 0              # ./streamcluster_cuda_cpu.cu:421:12
	movl	-96(%rbp), %eax
	.loc	3 421 14                        # ./streamcluster_cuda_cpu.cu:421:14
	addl	$1, %eax
	.loc	3 421 18                        # ./streamcluster_cuda_cpu.cu:421:18
	cmpl	-100(%rbp), %eax
	.loc	3 421 5                         # ./streamcluster_cuda_cpu.cu:421:5
	jge	.LBB15_22
# %bb.18:                               # %while.body
                                        #   in Loop: Header=BB15_17 Depth=2
.Ltmp343:
	.loc	3 422 12 is_stmt 1              # ./streamcluster_cuda_cpu.cu:422:12
	movl	-96(%rbp), %eax
	.loc	3 422 14 is_stmt 0              # ./streamcluster_cuda_cpu.cu:422:14
	addl	-100(%rbp), %eax
	.loc	3 422 19                        # ./streamcluster_cuda_cpu.cu:422:19
	movl	$2, %ecx
	cltd
	idivl	%ecx
	.loc	3 422 9                         # ./streamcluster_cuda_cpu.cu:422:9
	movl	%eax, -104(%rbp)
.Ltmp344:
	.loc	3 423 11 is_stmt 1              # ./streamcluster_cuda_cpu.cu:423:11
	movq	-64(%rbp), %rax
	movslq	-104(%rbp), %rcx
	movss	(%rax,%rcx,4), %xmm0            # xmm0 = mem[0],zero,zero,zero
	.loc	3 423 26 is_stmt 0              # ./streamcluster_cuda_cpu.cu:423:26
	ucomiss	-92(%rbp), %xmm0
.Ltmp345:
	.loc	3 423 11                        # ./streamcluster_cuda_cpu.cu:423:11
	jbe	.LBB15_20
# %bb.19:                               # %if.then74
                                        #   in Loop: Header=BB15_17 Depth=2
.Ltmp346:
	.loc	3 424 13 is_stmt 1              # ./streamcluster_cuda_cpu.cu:424:13
	movl	-104(%rbp), %eax
	.loc	3 424 11 is_stmt 0              # ./streamcluster_cuda_cpu.cu:424:11
	movl	%eax, -100(%rbp)
	.loc	3 425 7 is_stmt 1               # ./streamcluster_cuda_cpu.cu:425:7
	jmp	.LBB15_21
.Ltmp347:
.LBB15_20:                              # %if.else
                                        #   in Loop: Header=BB15_17 Depth=2
	.loc	3 426 13                        # ./streamcluster_cuda_cpu.cu:426:13
	movl	-104(%rbp), %eax
	.loc	3 426 11 is_stmt 0              # ./streamcluster_cuda_cpu.cu:426:11
	movl	%eax, -96(%rbp)
.Ltmp348:
.LBB15_21:                              # %if.end75
                                        #   in Loop: Header=BB15_17 Depth=2
	.loc	3 421 5 is_stmt 1               # ./streamcluster_cuda_cpu.cu:421:5
	jmp	.LBB15_17
.LBB15_22:                              # %while.end
                                        #   in Loop: Header=BB15_13 Depth=1
	.loc	3 429 22                        # ./streamcluster_cuda_cpu.cu:429:22
	movl	-100(%rbp), %edx
	.loc	3 429 7 is_stmt 0               # ./streamcluster_cuda_cpu.cu:429:7
	movq	-24(%rbp), %rax
	.loc	3 429 6                         # ./streamcluster_cuda_cpu.cu:429:6
	movq	(%rax), %rax
	.loc	3 429 5                         # ./streamcluster_cuda_cpu.cu:429:5
	movslq	-116(%rbp), %rcx
	.loc	3 429 20                        # ./streamcluster_cuda_cpu.cu:429:20
	movl	%edx, (%rax,%rcx,4)
.Ltmp349:
.LBB15_23:                              # %for.inc78
                                        #   in Loop: Header=BB15_13 Depth=1
	.loc	3 412 29 is_stmt 1              # ./streamcluster_cuda_cpu.cu:412:29
	movl	-116(%rbp), %eax
	addl	$1, %eax
	movl	%eax, -116(%rbp)
	.loc	3 412 3 is_stmt 0               # ./streamcluster_cuda_cpu.cu:412:3
	jmp	.LBB15_13
.Ltmp350:
.LBB15_24:                              # %for.end80
	.loc	3 432 8 is_stmt 1               # ./streamcluster_cuda_cpu.cu:432:8
	movq	-64(%rbp), %rdi
	.loc	3 432 3 is_stmt 0               # ./streamcluster_cuda_cpu.cu:432:3
	callq	free@PLT
	.loc	3 435 15 is_stmt 1              # ./streamcluster_cuda_cpu.cu:435:15
	callq	_Z7gettimev
	.loc	3 435 10 is_stmt 0              # ./streamcluster_cuda_cpu.cu:435:10
	movsd	%xmm0, -128(%rbp)
	.loc	3 436 27 is_stmt 1              # ./streamcluster_cuda_cpu.cu:436:27
	movsd	-128(%rbp), %xmm0               # xmm0 = mem[0],zero
	.loc	3 436 30 is_stmt 0              # ./streamcluster_cuda_cpu.cu:436:30
	subsd	-48(%rbp), %xmm0
	.loc	3 436 24                        # ./streamcluster_cuda_cpu.cu:436:24
	addsd	time_select_feasible(%rip), %xmm0
	movsd	%xmm0, time_select_feasible(%rip)
	.loc	3 438 10 is_stmt 1              # ./streamcluster_cuda_cpu.cu:438:10
	movl	-52(%rbp), %eax
	.loc	3 438 3 is_stmt 0               # ./streamcluster_cuda_cpu.cu:438:3
	movl	%eax, -4(%rbp)
.LBB15_25:                              # %return
	.loc	3 439 1 is_stmt 1               # ./streamcluster_cuda_cpu.cu:439:1
	movl	-4(%rbp), %eax
	.loc	3 439 1 epilogue_begin is_stmt 0 # ./streamcluster_cuda_cpu.cu:439:1
	addq	$144, %rsp
	popq	%rbp
	.cfi_def_cfa %rsp, 8
	retq
.Ltmp351:
.Lfunc_end15:
	.size	_Z19selectfeasible_fastP6PointsPPiiiP17pthread_barrier_t, .Lfunc_end15-_Z19selectfeasible_fastP6PointsPPiiiP17pthread_barrier_t
	.cfi_endproc
                                        # -- End function
	.section	.text._ZSt3logf,"axG",@progbits,_ZSt3logf,comdat
	.weak	_ZSt3logf                       # -- Begin function _ZSt3logf
	.p2align	4, 0x90
	.type	_ZSt3logf,@function
_ZSt3logf:                              # @_ZSt3logf
.Lfunc_begin16:
	.file	8 "/usr/lib/gcc/x86_64-linux-gnu/13/../../../../include/c++/13" "cmath"
	.loc	8 323 0 is_stmt 1               # /usr/lib/gcc/x86_64-linux-gnu/13/../../../../include/c++/13/cmath:323:0
	.cfi_startproc
# %bb.0:                                # %entry
	pushq	%rbp
	.cfi_def_cfa_offset 16
	.cfi_offset %rbp, -16
	movq	%rsp, %rbp
	.cfi_def_cfa_register %rbp
	subq	$16, %rsp
	movss	%xmm0, -4(%rbp)
.Ltmp352:
	.loc	8 323 27 prologue_end           # /usr/lib/gcc/x86_64-linux-gnu/13/../../../../include/c++/13/cmath:323:27
	movss	-4(%rbp), %xmm0                 # xmm0 = mem[0],zero,zero,zero
	.loc	8 323 12 is_stmt 0              # /usr/lib/gcc/x86_64-linux-gnu/13/../../../../include/c++/13/cmath:323:12
	callq	logf@PLT
	.loc	8 323 5 epilogue_begin          # /usr/lib/gcc/x86_64-linux-gnu/13/../../../../include/c++/13/cmath:323:5
	addq	$16, %rsp
	popq	%rbp
	.cfi_def_cfa %rsp, 8
	retq
.Ltmp353:
.Lfunc_end16:
	.size	_ZSt3logf, .Lfunc_end16-_ZSt3logf
	.cfi_endproc
                                        # -- End function
	.section	.rodata.cst8,"aM",@progbits,8
	.p2align	3, 0x0                          # -- Begin function _Z8pkmedianP6PointsllPliP17pthread_barrier_t
.LCPI17_0:
	.quad	0x4000000000000000              # double 2
.LCPI17_1:
	.quad	0x3ff199999999999a              # double 1.1000000000000001
.LCPI17_3:
	.quad	0x3feccccccccccccd              # double 0.90000000000000002
.LCPI17_5:
	.quad	0x3feff7ced916872b              # double 0.99899999999999999
	.section	.rodata.cst4,"aM",@progbits,4
	.p2align	2, 0x0
.LCPI17_2:
	.long	0x3dcccccd                      # float 0.100000001
.LCPI17_4:
	.long	0x3a83126f                      # float 0.00100000005
	.text
	.globl	_Z8pkmedianP6PointsllPliP17pthread_barrier_t
	.p2align	4, 0x90
	.type	_Z8pkmedianP6PointsllPliP17pthread_barrier_t,@function
_Z8pkmedianP6PointsllPliP17pthread_barrier_t: # @_Z8pkmedianP6PointsllPliP17pthread_barrier_t
.Lfunc_begin17:
	.loc	3 443 0 is_stmt 1               # ./streamcluster_cuda_cpu.cu:443:0
	.cfi_startproc
# %bb.0:                                # %entry
	pushq	%rbp
	.cfi_def_cfa_offset 16
	.cfi_offset %rbp, -16
	movq	%rsp, %rbp
	.cfi_def_cfa_register %rbp
	subq	$384, %rsp                      # imm = 0x180
	movq	%rdi, -16(%rbp)
	movq	%rsi, -24(%rbp)
	movq	%rdx, -32(%rbp)
	movq	%rcx, -40(%rbp)
	movl	%r8d, -44(%rbp)
	movq	%r9, -56(%rbp)
.Ltmp354:
	.loc	3 454 11 prologue_end           # ./streamcluster_cuda_cpu.cu:454:11
	cmpl	$0, -44(%rbp)
.Ltmp355:
	.loc	3 454 7 is_stmt 0               # ./streamcluster_cuda_cpu.cu:454:7
	jne	.LBB17_2
# %bb.1:                                # %if.then
.Ltmp356:
	.loc	3 455 28 is_stmt 1              # ./streamcluster_cuda_cpu.cu:455:28
	movslq	_ZL5nproc(%rip), %rdi
	.loc	3 455 21 is_stmt 0              # ./streamcluster_cuda_cpu.cu:455:21
	movl	$4, %esi
	callq	calloc@PLT
	.loc	3 455 10                        # ./streamcluster_cuda_cpu.cu:455:10
	movq	%rax, _ZZ8pkmedianP6PointsllPliP17pthread_barrier_tE4hizs(%rip)
.Ltmp357:
.LBB17_2:                               # %if.end
	.loc	3 456 13 is_stmt 1              # ./streamcluster_cuda_cpu.cu:456:13
	xorps	%xmm0, %xmm0
	movss	%xmm0, -76(%rbp)
	.loc	3 456 7 is_stmt 0               # ./streamcluster_cuda_cpu.cu:456:7
	xorps	%xmm0, %xmm0
	movss	%xmm0, -72(%rbp)
	.loc	3 457 25 is_stmt 1              # ./streamcluster_cuda_cpu.cu:457:25
	movq	-16(%rbp), %rax
	.loc	3 457 33 is_stmt 0              # ./streamcluster_cuda_cpu.cu:457:33
	movq	(%rax), %rax
	.loc	3 457 8                         # ./streamcluster_cuda_cpu.cu:457:8
	movq	%rax, -88(%rbp)
	.loc	3 458 22 is_stmt 1              # ./streamcluster_cuda_cpu.cu:458:22
	movq	-16(%rbp), %rax
	movslq	8(%rax), %rax
	.loc	3 458 8 is_stmt 0               # ./streamcluster_cuda_cpu.cu:458:8
	movq	%rax, -96(%rbp)
	.loc	3 461 16 is_stmt 1              # ./streamcluster_cuda_cpu.cu:461:16
	movq	-16(%rbp), %rax
	.loc	3 461 24 is_stmt 0              # ./streamcluster_cuda_cpu.cu:461:24
	movq	(%rax), %rax
	.loc	3 461 30                        # ./streamcluster_cuda_cpu.cu:461:30
	movslq	_ZL5nproc(%rip), %rcx
	.loc	3 461 28                        # ./streamcluster_cuda_cpu.cu:461:28
	cqto
	idivq	%rcx
	.loc	3 461 8                         # ./streamcluster_cuda_cpu.cu:461:8
	movq	%rax, -104(%rbp)
	.loc	3 462 13 is_stmt 1              # ./streamcluster_cuda_cpu.cu:462:13
	movq	-104(%rbp), %rax
	.loc	3 462 21 is_stmt 0              # ./streamcluster_cuda_cpu.cu:462:21
	movslq	-44(%rbp), %rcx
	.loc	3 462 19                        # ./streamcluster_cuda_cpu.cu:462:19
	imulq	%rcx, %rax
	.loc	3 462 8                         # ./streamcluster_cuda_cpu.cu:462:8
	movq	%rax, -112(%rbp)
	.loc	3 463 13 is_stmt 1              # ./streamcluster_cuda_cpu.cu:463:13
	movq	-112(%rbp), %rax
	.loc	3 463 16 is_stmt 0              # ./streamcluster_cuda_cpu.cu:463:16
	addq	-104(%rbp), %rax
	.loc	3 463 8                         # ./streamcluster_cuda_cpu.cu:463:8
	movq	%rax, -120(%rbp)
.Ltmp358:
	.loc	3 464 7 is_stmt 1               # ./streamcluster_cuda_cpu.cu:464:7
	movl	-44(%rbp), %eax
	.loc	3 464 14 is_stmt 0              # ./streamcluster_cuda_cpu.cu:464:14
	movl	_ZL5nproc(%rip), %ecx
	.loc	3 464 20                        # ./streamcluster_cuda_cpu.cu:464:20
	subl	$1, %ecx
	.loc	3 464 11                        # ./streamcluster_cuda_cpu.cu:464:11
	cmpl	%ecx, %eax
.Ltmp359:
	.loc	3 464 7                         # ./streamcluster_cuda_cpu.cu:464:7
	jne	.LBB17_4
# %bb.3:                                # %if.then6
.Ltmp360:
	.loc	3 465 10 is_stmt 1              # ./streamcluster_cuda_cpu.cu:465:10
	movq	-16(%rbp), %rax
	.loc	3 465 18 is_stmt 0              # ./streamcluster_cuda_cpu.cu:465:18
	movq	(%rax), %rax
	.loc	3 465 8                         # ./streamcluster_cuda_cpu.cu:465:8
	movq	%rax, -120(%rbp)
.Ltmp361:
.LBB17_4:                               # %if.end8
	.loc	3 478 9 is_stmt 1               # ./streamcluster_cuda_cpu.cu:478:9
	xorps	%xmm0, %xmm0
	movss	%xmm0, -124(%rbp)
.Ltmp362:
	.loc	3 479 18                        # ./streamcluster_cuda_cpu.cu:479:18
	movq	-112(%rbp), %rax
	.loc	3 479 13 is_stmt 0              # ./streamcluster_cuda_cpu.cu:479:13
	movq	%rax, -136(%rbp)
.LBB17_5:                               # %for.cond
                                        # =>This Inner Loop Header: Depth=1
.Ltmp363:
	.loc	3 479 22                        # ./streamcluster_cuda_cpu.cu:479:22
	movq	-136(%rbp), %rax
	.loc	3 479 25                        # ./streamcluster_cuda_cpu.cu:479:25
	cmpq	-120(%rbp), %rax
.Ltmp364:
	.loc	3 479 3                         # ./streamcluster_cuda_cpu.cu:479:3
	jge	.LBB17_8
# %bb.6:                                # %for.body
                                        #   in Loop: Header=BB17_5 Depth=1
.Ltmp365:
	.loc	3 481 14 is_stmt 1              # ./streamcluster_cuda_cpu.cu:481:14
	movq	-16(%rbp), %rax
	.loc	3 481 22 is_stmt 0              # ./streamcluster_cuda_cpu.cu:481:22
	movq	16(%rax), %rax
	.loc	3 481 24                        # ./streamcluster_cuda_cpu.cu:481:24
	movq	-136(%rbp), %rcx
	.loc	3 481 14                        # ./streamcluster_cuda_cpu.cu:481:14
	shlq	$5, %rcx
	addq	%rcx, %rax
	movq	(%rax), %rcx
	movq	%rcx, -168(%rbp)
	movq	8(%rax), %rcx
	movq	%rcx, -160(%rbp)
	movq	16(%rax), %rcx
	movq	%rcx, -152(%rbp)
	movq	24(%rax), %rax
	movq	%rax, -144(%rbp)
	.loc	3 481 29                        # ./streamcluster_cuda_cpu.cu:481:29
	movq	-16(%rbp), %rax
	.loc	3 481 37                        # ./streamcluster_cuda_cpu.cu:481:37
	movq	16(%rax), %rax
	.loc	3 481 29                        # ./streamcluster_cuda_cpu.cu:481:29
	movq	(%rax), %rcx
	movq	%rcx, -200(%rbp)
	movq	8(%rax), %rcx
	movq	%rcx, -192(%rbp)
	movq	16(%rax), %rcx
	movq	%rcx, -184(%rbp)
	movq	24(%rax), %rax
	movq	%rax, -176(%rbp)
	.loc	3 481 43                        # ./streamcluster_cuda_cpu.cu:481:43
	movq	-96(%rbp), %rax
	movl	%eax, %edi
	.loc	3 481 9                         # ./streamcluster_cuda_cpu.cu:481:9
	leaq	-168(%rbp), %rcx
	leaq	-200(%rbp), %rax
	movq	(%rcx), %rdx
	movq	%rdx, (%rsp)
	movq	8(%rcx), %rdx
	movq	%rdx, 8(%rsp)
	movq	16(%rcx), %rdx
	movq	%rdx, 16(%rsp)
	movq	24(%rcx), %rcx
	movq	%rcx, 24(%rsp)
	movq	(%rax), %rcx
	movq	%rcx, 32(%rsp)
	movq	8(%rax), %rcx
	movq	%rcx, 40(%rsp)
	movq	16(%rax), %rcx
	movq	%rcx, 48(%rsp)
	movq	24(%rax), %rax
	movq	%rax, 56(%rsp)
	callq	_Z4dist5PointS_i
	.loc	3 481 58                        # ./streamcluster_cuda_cpu.cu:481:58
	movq	-16(%rbp), %rax
	.loc	3 481 66                        # ./streamcluster_cuda_cpu.cu:481:66
	movq	16(%rax), %rax
	.loc	3 481 68                        # ./streamcluster_cuda_cpu.cu:481:68
	movq	-136(%rbp), %rcx
	.loc	3 481 58                        # ./streamcluster_cuda_cpu.cu:481:58
	shlq	$5, %rcx
	addq	%rcx, %rax
	.loc	3 481 72                        # ./streamcluster_cuda_cpu.cu:481:72
	movss	(%rax), %xmm2                   # xmm2 = mem[0],zero,zero,zero
	.loc	3 480 11 is_stmt 1              # ./streamcluster_cuda_cpu.cu:480:11
	movss	-124(%rbp), %xmm1               # xmm1 = mem[0],zero,zero,zero
	mulss	%xmm2, %xmm0
	addss	%xmm1, %xmm0
	movss	%xmm0, -124(%rbp)
.Ltmp366:
# %bb.7:                                # %for.inc
                                        #   in Loop: Header=BB17_5 Depth=1
	.loc	3 479 33                        # ./streamcluster_cuda_cpu.cu:479:33
	movq	-136(%rbp), %rax
	addq	$1, %rax
	movq	%rax, -136(%rbp)
	.loc	3 479 3 is_stmt 0               # ./streamcluster_cuda_cpu.cu:479:3
	jmp	.LBB17_5
.Ltmp367:
.LBB17_8:                               # %for.end
	.loc	3 483 15 is_stmt 1              # ./streamcluster_cuda_cpu.cu:483:15
	movss	-124(%rbp), %xmm0               # xmm0 = mem[0],zero,zero,zero
	.loc	3 483 3 is_stmt 0               # ./streamcluster_cuda_cpu.cu:483:3
	movq	_ZZ8pkmedianP6PointsllPliP17pthread_barrier_tE4hizs(%rip), %rax
	movslq	-44(%rbp), %rcx
	.loc	3 483 13                        # ./streamcluster_cuda_cpu.cu:483:13
	movss	%xmm0, (%rax,%rcx,4)
.Ltmp368:
	.loc	3 489 12 is_stmt 1              # ./streamcluster_cuda_cpu.cu:489:12
	movl	$0, -204(%rbp)
.LBB17_9:                               # %for.cond20
                                        # =>This Inner Loop Header: Depth=1
.Ltmp369:
	.loc	3 489 19 is_stmt 0              # ./streamcluster_cuda_cpu.cu:489:19
	movl	-204(%rbp), %eax
	.loc	3 489 21                        # ./streamcluster_cuda_cpu.cu:489:21
	cmpl	_ZL5nproc(%rip), %eax
.Ltmp370:
	.loc	3 489 3                         # ./streamcluster_cuda_cpu.cu:489:3
	jge	.LBB17_12
# %bb.10:                               # %for.body22
                                        #   in Loop: Header=BB17_9 Depth=1
.Ltmp371:
	.loc	3 490 12 is_stmt 1              # ./streamcluster_cuda_cpu.cu:490:12
	movq	_ZZ8pkmedianP6PointsllPliP17pthread_barrier_tE4hizs(%rip), %rax
	movslq	-204(%rbp), %rcx
	movss	(%rax,%rcx,4), %xmm0            # xmm0 = mem[0],zero,zero,zero
	.loc	3 490 9 is_stmt 0               # ./streamcluster_cuda_cpu.cu:490:9
	addss	-72(%rbp), %xmm0
	movss	%xmm0, -72(%rbp)
.Ltmp372:
# %bb.11:                               # %for.inc26
                                        #   in Loop: Header=BB17_9 Depth=1
	.loc	3 489 31 is_stmt 1              # ./streamcluster_cuda_cpu.cu:489:31
	movl	-204(%rbp), %eax
	addl	$1, %eax
	movl	%eax, -204(%rbp)
	.loc	3 489 3 is_stmt 0               # ./streamcluster_cuda_cpu.cu:489:3
	jmp	.LBB17_9
.Ltmp373:
.LBB17_12:                              # %for.end28
	.loc	3 493 7 is_stmt 1               # ./streamcluster_cuda_cpu.cu:493:7
	xorps	%xmm0, %xmm0
	movss	%xmm0, -76(%rbp)
	.loc	3 494 8                         # ./streamcluster_cuda_cpu.cu:494:8
	movss	-72(%rbp), %xmm0                # xmm0 = mem[0],zero,zero,zero
	.loc	3 494 12 is_stmt 0              # ./streamcluster_cuda_cpu.cu:494:12
	addss	-76(%rbp), %xmm0
	.loc	3 494 7                         # ./streamcluster_cuda_cpu.cu:494:7
	cvtss2sd	%xmm0, %xmm0
	.loc	3 494 19                        # ./streamcluster_cuda_cpu.cu:494:19
	movsd	.LCPI17_0(%rip), %xmm1          # xmm1 = [2.0E+0,0.0E+0]
	divsd	%xmm1, %xmm0
	.loc	3 494 7                         # ./streamcluster_cuda_cpu.cu:494:7
	cvtsd2ss	%xmm0, %xmm0
	.loc	3 494 5                         # ./streamcluster_cuda_cpu.cu:494:5
	movss	%xmm0, -80(%rbp)
.Ltmp374:
	.loc	3 496 7 is_stmt 1               # ./streamcluster_cuda_cpu.cu:496:7
	movq	-16(%rbp), %rax
	.loc	3 496 15 is_stmt 0              # ./streamcluster_cuda_cpu.cu:496:15
	movq	(%rax), %rax
	.loc	3 496 19                        # ./streamcluster_cuda_cpu.cu:496:19
	cmpq	-32(%rbp), %rax
.Ltmp375:
	.loc	3 496 7                         # ./streamcluster_cuda_cpu.cu:496:7
	jg	.LBB17_20
# %bb.13:                               # %if.then35
.Ltmp376:
	.loc	3 498 20 is_stmt 1              # ./streamcluster_cuda_cpu.cu:498:20
	movq	-112(%rbp), %rax
	.loc	3 498 15 is_stmt 0              # ./streamcluster_cuda_cpu.cu:498:15
	movq	%rax, -216(%rbp)
.LBB17_14:                              # %for.cond37
                                        # =>This Inner Loop Header: Depth=1
.Ltmp377:
	.loc	3 498 24                        # ./streamcluster_cuda_cpu.cu:498:24
	movq	-216(%rbp), %rax
	.loc	3 498 27                        # ./streamcluster_cuda_cpu.cu:498:27
	cmpq	-120(%rbp), %rax
.Ltmp378:
	.loc	3 498 5                         # ./streamcluster_cuda_cpu.cu:498:5
	jge	.LBB17_17
# %bb.15:                               # %for.body39
                                        #   in Loop: Header=BB17_14 Depth=1
.Ltmp379:
	.loc	3 499 30 is_stmt 1              # ./streamcluster_cuda_cpu.cu:499:30
	movq	-216(%rbp), %rcx
	.loc	3 499 7 is_stmt 0               # ./streamcluster_cuda_cpu.cu:499:7
	movq	-16(%rbp), %rax
	.loc	3 499 15                        # ./streamcluster_cuda_cpu.cu:499:15
	movq	16(%rax), %rax
	.loc	3 499 17                        # ./streamcluster_cuda_cpu.cu:499:17
	movq	-216(%rbp), %rdx
	.loc	3 499 7                         # ./streamcluster_cuda_cpu.cu:499:7
	shlq	$5, %rdx
	addq	%rdx, %rax
	.loc	3 499 28                        # ./streamcluster_cuda_cpu.cu:499:28
	movq	%rcx, 16(%rax)
	.loc	3 500 7 is_stmt 1               # ./streamcluster_cuda_cpu.cu:500:7
	movq	-16(%rbp), %rax
	.loc	3 500 15 is_stmt 0              # ./streamcluster_cuda_cpu.cu:500:15
	movq	16(%rax), %rax
	.loc	3 500 17                        # ./streamcluster_cuda_cpu.cu:500:17
	movq	-216(%rbp), %rcx
	.loc	3 500 7                         # ./streamcluster_cuda_cpu.cu:500:7
	shlq	$5, %rcx
	addq	%rcx, %rax
	.loc	3 500 26                        # ./streamcluster_cuda_cpu.cu:500:26
	xorps	%xmm0, %xmm0
	movss	%xmm0, 24(%rax)
.Ltmp380:
# %bb.16:                               # %for.inc45
                                        #   in Loop: Header=BB17_14 Depth=1
	.loc	3 498 35 is_stmt 1              # ./streamcluster_cuda_cpu.cu:498:35
	movq	-216(%rbp), %rax
	addq	$1, %rax
	movq	%rax, -216(%rbp)
	.loc	3 498 5 is_stmt 0               # ./streamcluster_cuda_cpu.cu:498:5
	jmp	.LBB17_14
.Ltmp381:
.LBB17_17:                              # %for.end47
	.loc	3 502 10 is_stmt 1              # ./streamcluster_cuda_cpu.cu:502:10
	xorps	%xmm0, %xmm0
	movss	%xmm0, -64(%rbp)
.Ltmp382:
	.loc	3 503 13                        # ./streamcluster_cuda_cpu.cu:503:13
	cmpl	$0, -44(%rbp)
.Ltmp383:
	.loc	3 503 9 is_stmt 0               # ./streamcluster_cuda_cpu.cu:503:9
	jne	.LBB17_19
# %bb.18:                               # %if.then49
.Ltmp384:
	.loc	3 504 12 is_stmt 1              # ./streamcluster_cuda_cpu.cu:504:12
	movq	_ZZ8pkmedianP6PointsllPliP17pthread_barrier_tE4hizs(%rip), %rdi
	.loc	3 504 7 is_stmt 0               # ./streamcluster_cuda_cpu.cu:504:7
	callq	free@PLT
	.loc	3 505 17 is_stmt 1              # ./streamcluster_cuda_cpu.cu:505:17
	movq	_ZZ8pkmedianP6PointsllPliP17pthread_barrier_tE1k(%rip), %rcx
	.loc	3 505 8 is_stmt 0               # ./streamcluster_cuda_cpu.cu:505:8
	movq	-40(%rbp), %rax
	.loc	3 505 15                        # ./streamcluster_cuda_cpu.cu:505:15
	movq	%rcx, (%rax)
.Ltmp385:
.LBB17_19:                              # %if.end50
	.loc	3 507 12 is_stmt 1              # ./streamcluster_cuda_cpu.cu:507:12
	movss	-64(%rbp), %xmm0                # xmm0 = mem[0],zero,zero,zero
	.loc	3 507 5 is_stmt 0               # ./streamcluster_cuda_cpu.cu:507:5
	movss	%xmm0, -4(%rbp)
	jmp	.LBB17_58
.Ltmp386:
.LBB17_20:                              # %if.end51
	.loc	3 510 11 is_stmt 1              # ./streamcluster_cuda_cpu.cu:510:11
	cmpl	$0, -44(%rbp)
.Ltmp387:
	.loc	3 510 7 is_stmt 0               # ./streamcluster_cuda_cpu.cu:510:7
	jne	.LBB17_22
# %bb.21:                               # %if.then53
.Ltmp388:
	.loc	3 511 13 is_stmt 1              # ./streamcluster_cuda_cpu.cu:511:13
	movq	-16(%rbp), %rdi
	.loc	3 511 5 is_stmt 0               # ./streamcluster_cuda_cpu.cu:511:5
	callq	_Z7shuffleP6Points
.Ltmp389:
.LBB17_22:                              # %if.end54
	.loc	3 512 18 is_stmt 1              # ./streamcluster_cuda_cpu.cu:512:18
	movq	-16(%rbp), %rdi
	.loc	3 512 26 is_stmt 0              # ./streamcluster_cuda_cpu.cu:512:26
	movss	-80(%rbp), %xmm0                # xmm0 = mem[0],zero,zero,zero
	.loc	3 512 33                        # ./streamcluster_cuda_cpu.cu:512:33
	movl	-44(%rbp), %edx
	.loc	3 512 38                        # ./streamcluster_cuda_cpu.cu:512:38
	movq	-56(%rbp), %rcx
	.loc	3 512 10                        # ./streamcluster_cuda_cpu.cu:512:10
	leaq	_ZZ8pkmedianP6PointsllPliP17pthread_barrier_tE1k(%rip), %rsi
	callq	_Z7pspeedyP6PointsfPliP17pthread_barrier_t
	.loc	3 512 8                         # ./streamcluster_cuda_cpu.cu:512:8
	movss	%xmm0, -64(%rbp)
	.loc	3 519 5 is_stmt 1               # ./streamcluster_cuda_cpu.cu:519:5
	movl	$0, -60(%rbp)
.LBB17_23:                              # %while.cond
                                        # =>This Inner Loop Header: Depth=1
	.loc	3 521 11                        # ./streamcluster_cuda_cpu.cu:521:11
	movq	_ZZ8pkmedianP6PointsllPliP17pthread_barrier_tE1k(%rip), %rcx
	.loc	3 521 13 is_stmt 0              # ./streamcluster_cuda_cpu.cu:521:13
	xorl	%eax, %eax
                                        # kill: def $al killed $al killed $eax
	cmpq	-24(%rbp), %rcx
	movb	%al, -221(%rbp)                 # 1-byte Spill
	.loc	3 521 21                        # ./streamcluster_cuda_cpu.cu:521:21
	jge	.LBB17_25
# %bb.24:                               # %land.rhs
                                        #   in Loop: Header=BB17_23 Depth=1
	.loc	3 521 27                        # ./streamcluster_cuda_cpu.cu:521:27
	cmpl	$1, -60(%rbp)
	setl	%al
	movb	%al, -221(%rbp)                 # 1-byte Spill
.LBB17_25:                              # %land.end
                                        #   in Loop: Header=BB17_23 Depth=1
	.loc	3 0 27                          # ./streamcluster_cuda_cpu.cu:0:27
	movb	-221(%rbp), %al                 # 1-byte Reload
	.loc	3 521 3                         # ./streamcluster_cuda_cpu.cu:521:3
	testb	$1, %al
	jne	.LBB17_26
	jmp	.LBB17_27
.LBB17_26:                              # %while.body
                                        #   in Loop: Header=BB17_23 Depth=1
.Ltmp390:
	.loc	3 522 20 is_stmt 1              # ./streamcluster_cuda_cpu.cu:522:20
	movq	-16(%rbp), %rdi
	.loc	3 522 28 is_stmt 0              # ./streamcluster_cuda_cpu.cu:522:28
	movss	-80(%rbp), %xmm0                # xmm0 = mem[0],zero,zero,zero
	.loc	3 522 35                        # ./streamcluster_cuda_cpu.cu:522:35
	movl	-44(%rbp), %edx
	.loc	3 522 40                        # ./streamcluster_cuda_cpu.cu:522:40
	movq	-56(%rbp), %rcx
	.loc	3 522 12                        # ./streamcluster_cuda_cpu.cu:522:12
	leaq	_ZZ8pkmedianP6PointsllPliP17pthread_barrier_tE1k(%rip), %rsi
	callq	_Z7pspeedyP6PointsfPliP17pthread_barrier_t
	.loc	3 522 10                        # ./streamcluster_cuda_cpu.cu:522:10
	movss	%xmm0, -64(%rbp)
	.loc	3 523 6 is_stmt 1               # ./streamcluster_cuda_cpu.cu:523:6
	movl	-60(%rbp), %eax
	addl	$1, %eax
	movl	%eax, -60(%rbp)
.Ltmp391:
	.loc	3 521 3                         # ./streamcluster_cuda_cpu.cu:521:3
	jmp	.LBB17_23
.LBB17_27:                              # %while.end
	.loc	3 531 3                         # ./streamcluster_cuda_cpu.cu:531:3
	jmp	.LBB17_28
.LBB17_28:                              # %while.cond60
                                        # =>This Inner Loop Header: Depth=1
	.loc	3 531 10 is_stmt 0              # ./streamcluster_cuda_cpu.cu:531:10
	movq	_ZZ8pkmedianP6PointsllPliP17pthread_barrier_tE1k(%rip), %rax
	.loc	3 531 12                        # ./streamcluster_cuda_cpu.cu:531:12
	cmpq	-24(%rbp), %rax
	.loc	3 531 3                         # ./streamcluster_cuda_cpu.cu:531:3
	jge	.LBB17_34
# %bb.29:                               # %while.body62
                                        #   in Loop: Header=BB17_28 Depth=1
.Ltmp392:
	.loc	3 538 11 is_stmt 1              # ./streamcluster_cuda_cpu.cu:538:11
	cmpl	$1, -60(%rbp)
.Ltmp393:
	.loc	3 538 9 is_stmt 0               # ./streamcluster_cuda_cpu.cu:538:9
	jl	.LBB17_31
# %bb.30:                               # %if.then64
                                        #   in Loop: Header=BB17_28 Depth=1
.Ltmp394:
	.loc	3 539 13 is_stmt 1              # ./streamcluster_cuda_cpu.cu:539:13
	movss	-80(%rbp), %xmm0                # xmm0 = mem[0],zero,zero,zero
	.loc	3 539 11 is_stmt 0              # ./streamcluster_cuda_cpu.cu:539:11
	movss	%xmm0, -72(%rbp)
	.loc	3 540 12 is_stmt 1              # ./streamcluster_cuda_cpu.cu:540:12
	movss	-72(%rbp), %xmm0                # xmm0 = mem[0],zero,zero,zero
	.loc	3 540 16 is_stmt 0              # ./streamcluster_cuda_cpu.cu:540:16
	addss	-76(%rbp), %xmm0
	.loc	3 540 11                        # ./streamcluster_cuda_cpu.cu:540:11
	cvtss2sd	%xmm0, %xmm0
	.loc	3 540 23                        # ./streamcluster_cuda_cpu.cu:540:23
	movsd	.LCPI17_0(%rip), %xmm1          # xmm1 = [2.0E+0,0.0E+0]
	divsd	%xmm1, %xmm0
	.loc	3 540 11                        # ./streamcluster_cuda_cpu.cu:540:11
	cvtsd2ss	%xmm0, %xmm0
	.loc	3 540 9                         # ./streamcluster_cuda_cpu.cu:540:9
	movss	%xmm0, -80(%rbp)
	.loc	3 541 9 is_stmt 1               # ./streamcluster_cuda_cpu.cu:541:9
	movl	$0, -60(%rbp)
.Ltmp395:
.LBB17_31:                              # %if.end69
                                        #   in Loop: Header=BB17_28 Depth=1
	.loc	3 543 13                        # ./streamcluster_cuda_cpu.cu:543:13
	cmpl	$0, -44(%rbp)
.Ltmp396:
	.loc	3 543 9 is_stmt 0               # ./streamcluster_cuda_cpu.cu:543:9
	jne	.LBB17_33
# %bb.32:                               # %if.then71
                                        #   in Loop: Header=BB17_28 Depth=1
.Ltmp397:
	.loc	3 544 15 is_stmt 1              # ./streamcluster_cuda_cpu.cu:544:15
	movq	-16(%rbp), %rdi
	.loc	3 544 7 is_stmt 0               # ./streamcluster_cuda_cpu.cu:544:7
	callq	_Z7shuffleP6Points
.Ltmp398:
.LBB17_33:                              # %if.end72
                                        #   in Loop: Header=BB17_28 Depth=1
	.loc	3 545 20 is_stmt 1              # ./streamcluster_cuda_cpu.cu:545:20
	movq	-16(%rbp), %rdi
	.loc	3 545 28 is_stmt 0              # ./streamcluster_cuda_cpu.cu:545:28
	movss	-80(%rbp), %xmm0                # xmm0 = mem[0],zero,zero,zero
	.loc	3 545 35                        # ./streamcluster_cuda_cpu.cu:545:35
	movl	-44(%rbp), %edx
	.loc	3 545 40                        # ./streamcluster_cuda_cpu.cu:545:40
	movq	-56(%rbp), %rcx
	.loc	3 545 12                        # ./streamcluster_cuda_cpu.cu:545:12
	leaq	_ZZ8pkmedianP6PointsllPliP17pthread_barrier_tE1k(%rip), %rsi
	callq	_Z7pspeedyP6PointsfPliP17pthread_barrier_t
	.loc	3 545 10                        # ./streamcluster_cuda_cpu.cu:545:10
	movss	%xmm0, -64(%rbp)
	.loc	3 546 6 is_stmt 1               # ./streamcluster_cuda_cpu.cu:546:6
	movl	-60(%rbp), %eax
	addl	$1, %eax
	movl	%eax, -60(%rbp)
.Ltmp399:
	.loc	3 531 3                         # ./streamcluster_cuda_cpu.cu:531:3
	jmp	.LBB17_28
.LBB17_34:                              # %while.end75
.Ltmp400:
	.loc	3 554 11                        # ./streamcluster_cuda_cpu.cu:554:11
	cmpl	$0, -44(%rbp)
.Ltmp401:
	.loc	3 554 7 is_stmt 0               # ./streamcluster_cuda_cpu.cu:554:7
	jne	.LBB17_40
# %bb.35:                               # %if.then77
.Ltmp402:
	.loc	3 555 39 is_stmt 1              # ./streamcluster_cuda_cpu.cu:555:39
	movq	-16(%rbp), %rdi
	.loc	3 555 58 is_stmt 0              # ./streamcluster_cuda_cpu.cu:555:58
	movq	-24(%rbp), %rax
	movl	%eax, %edx
	.loc	3 555 64                        # ./streamcluster_cuda_cpu.cu:555:64
	movl	-44(%rbp), %ecx
	.loc	3 555 69                        # ./streamcluster_cuda_cpu.cu:555:69
	movq	-56(%rbp), %r8
	.loc	3 555 19                        # ./streamcluster_cuda_cpu.cu:555:19
	leaq	_ZZ8pkmedianP6PointsllPliP17pthread_barrier_tE8feasible(%rip), %rsi
	callq	_Z19selectfeasible_fastP6PointsPPiiiP17pthread_barrier_t
	.loc	3 555 17                        # ./streamcluster_cuda_cpu.cu:555:17
	movl	%eax, _ZZ8pkmedianP6PointsllPliP17pthread_barrier_tE11numfeasible(%rip)
.Ltmp403:
	.loc	3 556 14 is_stmt 1              # ./streamcluster_cuda_cpu.cu:556:14
	movl	$0, -220(%rbp)
.LBB17_36:                              # %for.cond81
                                        # =>This Inner Loop Header: Depth=1
.Ltmp404:
	.loc	3 556 21 is_stmt 0              # ./streamcluster_cuda_cpu.cu:556:21
	movslq	-220(%rbp), %rax
	.loc	3 556 25                        # ./streamcluster_cuda_cpu.cu:556:25
	movq	-16(%rbp), %rcx
	.loc	3 556 23                        # ./streamcluster_cuda_cpu.cu:556:23
	cmpq	(%rcx), %rax
.Ltmp405:
	.loc	3 556 5                         # ./streamcluster_cuda_cpu.cu:556:5
	jge	.LBB17_39
# %bb.37:                               # %for.body85
                                        #   in Loop: Header=BB17_36 Depth=1
.Ltmp406:
	.loc	3 557 7 is_stmt 1               # ./streamcluster_cuda_cpu.cu:557:7
	movq	_ZL9is_center(%rip), %rax
	.loc	3 557 17 is_stmt 0              # ./streamcluster_cuda_cpu.cu:557:17
	movq	-16(%rbp), %rcx
	.loc	3 557 25                        # ./streamcluster_cuda_cpu.cu:557:25
	movq	16(%rcx), %rcx
	.loc	3 557 17                        # ./streamcluster_cuda_cpu.cu:557:17
	movslq	-220(%rbp), %rdx
	shlq	$5, %rdx
	addq	%rdx, %rcx
	.loc	3 557 30                        # ./streamcluster_cuda_cpu.cu:557:30
	movq	16(%rcx), %rcx
	.loc	3 557 38                        # ./streamcluster_cuda_cpu.cu:557:38
	movb	$1, (%rax,%rcx)
.Ltmp407:
# %bb.38:                               # %for.inc91
                                        #   in Loop: Header=BB17_36 Depth=1
	.loc	3 556 39 is_stmt 1              # ./streamcluster_cuda_cpu.cu:556:39
	movl	-220(%rbp), %eax
	addl	$1, %eax
	movl	%eax, -220(%rbp)
	.loc	3 556 5 is_stmt 0               # ./streamcluster_cuda_cpu.cu:556:5
	jmp	.LBB17_36
.Ltmp408:
.LBB17_39:                              # %for.end93
	.loc	3 559 3 is_stmt 1               # ./streamcluster_cuda_cpu.cu:559:3
	jmp	.LBB17_40
.Ltmp409:
.LBB17_40:                              # %if.end94
	.loc	3 565 3                         # ./streamcluster_cuda_cpu.cu:565:3
	jmp	.LBB17_41
.LBB17_41:                              # %while.body96
                                        # =>This Inner Loop Header: Depth=1
.Ltmp410:
	.loc	3 575 16                        # ./streamcluster_cuda_cpu.cu:575:16
	movss	-64(%rbp), %xmm0                # xmm0 = mem[0],zero,zero,zero
	.loc	3 575 14 is_stmt 0              # ./streamcluster_cuda_cpu.cu:575:14
	movss	%xmm0, -68(%rbp)
	.loc	3 576 16 is_stmt 1              # ./streamcluster_cuda_cpu.cu:576:16
	movq	-16(%rbp), %rax
	movq	%rax, -264(%rbp)                # 8-byte Spill
	.loc	3 576 24 is_stmt 0              # ./streamcluster_cuda_cpu.cu:576:24
	movq	_ZZ8pkmedianP6PointsllPliP17pthread_barrier_tE8feasible(%rip), %rax
	movq	%rax, -256(%rbp)                # 8-byte Spill
	.loc	3 576 34                        # ./streamcluster_cuda_cpu.cu:576:34
	movl	_ZZ8pkmedianP6PointsllPliP17pthread_barrier_tE11numfeasible(%rip), %eax
	movl	%eax, -244(%rbp)                # 4-byte Spill
	.loc	3 576 47                        # ./streamcluster_cuda_cpu.cu:576:47
	movss	-80(%rbp), %xmm0                # xmm0 = mem[0],zero,zero,zero
	movss	%xmm0, -232(%rbp)               # 4-byte Spill
	.loc	3 576 54                        # ./streamcluster_cuda_cpu.cu:576:54
	movq	-32(%rbp), %rax
                                        # kill: def $eax killed $eax killed $rax
	movl	%eax, -240(%rbp)                # 4-byte Spill
	.loc	3 576 60                        # ./streamcluster_cuda_cpu.cu:576:60
	movss	-64(%rbp), %xmm0                # xmm0 = mem[0],zero,zero,zero
	movss	%xmm0, -236(%rbp)               # 4-byte Spill
	.loc	3 577 25 is_stmt 1              # ./streamcluster_cuda_cpu.cu:577:25
	imulq	$3, -32(%rbp), %rax
	.loc	3 577 23 is_stmt 0              # ./streamcluster_cuda_cpu.cu:577:23
	cvtsi2ss	%rax, %xmm0
	movss	%xmm0, -268(%rbp)               # 4-byte Spill
	.loc	3 577 45                        # ./streamcluster_cuda_cpu.cu:577:45
	cvtsi2ssq	-32(%rbp), %xmm0
	.loc	3 577 34                        # ./streamcluster_cuda_cpu.cu:577:34
	callq	_ZSt3logf
	movss	-268(%rbp), %xmm2               # 4-byte Reload
                                        # xmm2 = mem[0],zero,zero,zero
	movq	-264(%rbp), %rdi                # 8-byte Reload
	movq	-256(%rbp), %rsi                # 8-byte Reload
	movl	-244(%rbp), %edx                # 4-byte Reload
	movl	-240(%rbp), %r8d                # 4-byte Reload
	movss	-236(%rbp), %xmm1               # 4-byte Reload
                                        # xmm1 = mem[0],zero,zero,zero
	movaps	%xmm0, %xmm3
	movss	-232(%rbp), %xmm0               # 4-byte Reload
                                        # xmm0 = mem[0],zero,zero,zero
	.loc	3 577 32                        # ./streamcluster_cuda_cpu.cu:577:32
	mulss	%xmm3, %xmm2
	.loc	3 577 22                        # ./streamcluster_cuda_cpu.cu:577:22
	cvttss2si	%xmm2, %r9
	.loc	3 577 58                        # ./streamcluster_cuda_cpu.cu:577:58
	movl	-44(%rbp), %r10d
	.loc	3 577 63                        # ./streamcluster_cuda_cpu.cu:577:63
	movq	-56(%rbp), %rax
	.loc	3 576 12 is_stmt 1              # ./streamcluster_cuda_cpu.cu:576:12
	leaq	_ZZ8pkmedianP6PointsllPliP17pthread_barrier_tE1k(%rip), %rcx
	movss	.LCPI17_2(%rip), %xmm2          # xmm2 = [1.00000001E-1,0.0E+0,0.0E+0,0.0E+0]
	movl	%r10d, (%rsp)
	movq	%rax, 8(%rsp)
	callq	_Z3pFLP6PointsPiifPliflfiP17pthread_barrier_t
	.loc	3 576 10 is_stmt 0              # ./streamcluster_cuda_cpu.cu:576:10
	movss	%xmm0, -64(%rbp)
	.loc	3 578 54 is_stmt 1              # ./streamcluster_cuda_cpu.cu:578:54
	imulq	$3, -32(%rbp), %rax
	.loc	3 578 52 is_stmt 0              # ./streamcluster_cuda_cpu.cu:578:52
	cvtsi2ss	%rax, %xmm0
	movss	%xmm0, -228(%rbp)               # 4-byte Spill
	.loc	3 578 74                        # ./streamcluster_cuda_cpu.cu:578:74
	cvtsi2ssq	-32(%rbp), %xmm0
	.loc	3 578 63                        # ./streamcluster_cuda_cpu.cu:578:63
	callq	_ZSt3logf
	movaps	%xmm0, %xmm1
	movss	-228(%rbp), %xmm0               # 4-byte Reload
                                        # xmm0 = mem[0],zero,zero,zero
	.loc	3 578 61                        # ./streamcluster_cuda_cpu.cu:578:61
	mulss	%xmm1, %xmm0
	.loc	3 578 51                        # ./streamcluster_cuda_cpu.cu:578:51
	cvttss2si	%xmm0, %rsi
	.loc	3 578 5                         # ./streamcluster_cuda_cpu.cu:578:5
	leaq	.L.str.6(%rip), %rdi
	movb	$0, %al
	callq	printf@PLT
.Ltmp411:
	.loc	3 581 11 is_stmt 1              # ./streamcluster_cuda_cpu.cu:581:11
	cvtsi2sdq	_ZZ8pkmedianP6PointsllPliP17pthread_barrier_tE1k(%rip), %xmm1
	.loc	3 581 24 is_stmt 0              # ./streamcluster_cuda_cpu.cu:581:24
	cvtsi2sdq	-32(%rbp), %xmm2
	.loc	3 581 22                        # ./streamcluster_cuda_cpu.cu:581:22
	movsd	.LCPI17_1(%rip), %xmm0          # xmm0 = [1.1000000000000001E+0,0.0E+0]
	mulsd	%xmm2, %xmm0
	.loc	3 581 13                        # ./streamcluster_cuda_cpu.cu:581:13
	ucomisd	%xmm1, %xmm0
	.loc	3 581 30                        # ./streamcluster_cuda_cpu.cu:581:30
	jb	.LBB17_43
# %bb.42:                               # %land.lhs.true
                                        #   in Loop: Header=BB17_41 Depth=1
	.loc	3 581 34                        # ./streamcluster_cuda_cpu.cu:581:34
	cvtsi2sdq	_ZZ8pkmedianP6PointsllPliP17pthread_barrier_tE1k(%rip), %xmm0
	.loc	3 581 47                        # ./streamcluster_cuda_cpu.cu:581:47
	cvtsi2sdq	-24(%rbp), %xmm2
	.loc	3 581 45                        # ./streamcluster_cuda_cpu.cu:581:45
	movsd	.LCPI17_3(%rip), %xmm1          # xmm1 = [9.0000000000000002E-1,0.0E+0]
	mulsd	%xmm2, %xmm1
	.loc	3 581 36                        # ./streamcluster_cuda_cpu.cu:581:36
	ucomisd	%xmm1, %xmm0
	.loc	3 581 54                        # ./streamcluster_cuda_cpu.cu:581:54
	jae	.LBB17_45
.LBB17_43:                              # %lor.lhs.false
                                        #   in Loop: Header=BB17_41 Depth=1
	.loc	3 582 11 is_stmt 1              # ./streamcluster_cuda_cpu.cu:582:11
	movq	_ZZ8pkmedianP6PointsllPliP17pthread_barrier_tE1k(%rip), %rax
	.loc	3 582 16 is_stmt 0              # ./streamcluster_cuda_cpu.cu:582:16
	movq	-32(%rbp), %rcx
	.loc	3 582 21                        # ./streamcluster_cuda_cpu.cu:582:21
	addq	$2, %rcx
	.loc	3 582 13                        # ./streamcluster_cuda_cpu.cu:582:13
	cmpq	%rcx, %rax
	.loc	3 582 26                        # ./streamcluster_cuda_cpu.cu:582:26
	jg	.LBB17_46
# %bb.44:                               # %land.lhs.true122
                                        #   in Loop: Header=BB17_41 Depth=1
	.loc	3 582 30                        # ./streamcluster_cuda_cpu.cu:582:30
	movq	_ZZ8pkmedianP6PointsllPliP17pthread_barrier_tE1k(%rip), %rax
	.loc	3 582 35                        # ./streamcluster_cuda_cpu.cu:582:35
	movq	-24(%rbp), %rcx
	.loc	3 582 40                        # ./streamcluster_cuda_cpu.cu:582:40
	subq	$2, %rcx
	.loc	3 582 32                        # ./streamcluster_cuda_cpu.cu:582:32
	cmpq	%rcx, %rax
.Ltmp412:
	.loc	3 581 9 is_stmt 1               # ./streamcluster_cuda_cpu.cu:581:9
	jl	.LBB17_46
.LBB17_45:                              # %if.then125
                                        #   in Loop: Header=BB17_41 Depth=1
.Ltmp413:
	.loc	3 592 18                        # ./streamcluster_cuda_cpu.cu:592:18
	movq	-16(%rbp), %rax
	movq	%rax, -304(%rbp)                # 8-byte Spill
	.loc	3 592 26 is_stmt 0              # ./streamcluster_cuda_cpu.cu:592:26
	movq	_ZZ8pkmedianP6PointsllPliP17pthread_barrier_tE8feasible(%rip), %rax
	movq	%rax, -296(%rbp)                # 8-byte Spill
	.loc	3 592 36                        # ./streamcluster_cuda_cpu.cu:592:36
	movl	_ZZ8pkmedianP6PointsllPliP17pthread_barrier_tE11numfeasible(%rip), %eax
	movl	%eax, -284(%rbp)                # 4-byte Spill
	.loc	3 592 49                        # ./streamcluster_cuda_cpu.cu:592:49
	movss	-80(%rbp), %xmm0                # xmm0 = mem[0],zero,zero,zero
	movss	%xmm0, -272(%rbp)               # 4-byte Spill
	.loc	3 592 56                        # ./streamcluster_cuda_cpu.cu:592:56
	movq	-32(%rbp), %rax
                                        # kill: def $eax killed $eax killed $rax
	movl	%eax, -280(%rbp)                # 4-byte Spill
	.loc	3 592 62                        # ./streamcluster_cuda_cpu.cu:592:62
	movss	-64(%rbp), %xmm0                # xmm0 = mem[0],zero,zero,zero
	movss	%xmm0, -276(%rbp)               # 4-byte Spill
	.loc	3 593 27 is_stmt 1              # ./streamcluster_cuda_cpu.cu:593:27
	imulq	$3, -32(%rbp), %rax
	.loc	3 593 25 is_stmt 0              # ./streamcluster_cuda_cpu.cu:593:25
	cvtsi2ss	%rax, %xmm0
	movss	%xmm0, -308(%rbp)               # 4-byte Spill
	.loc	3 593 47                        # ./streamcluster_cuda_cpu.cu:593:47
	cvtsi2ssq	-32(%rbp), %xmm0
	.loc	3 593 36                        # ./streamcluster_cuda_cpu.cu:593:36
	callq	_ZSt3logf
	movss	-308(%rbp), %xmm2               # 4-byte Reload
                                        # xmm2 = mem[0],zero,zero,zero
	movq	-304(%rbp), %rdi                # 8-byte Reload
	movq	-296(%rbp), %rsi                # 8-byte Reload
	movl	-284(%rbp), %edx                # 4-byte Reload
	movl	-280(%rbp), %r8d                # 4-byte Reload
	movss	-276(%rbp), %xmm1               # 4-byte Reload
                                        # xmm1 = mem[0],zero,zero,zero
	movaps	%xmm0, %xmm3
	movss	-272(%rbp), %xmm0               # 4-byte Reload
                                        # xmm0 = mem[0],zero,zero,zero
	.loc	3 593 34                        # ./streamcluster_cuda_cpu.cu:593:34
	mulss	%xmm3, %xmm2
	.loc	3 593 24                        # ./streamcluster_cuda_cpu.cu:593:24
	cvttss2si	%xmm2, %r9
	.loc	3 593 62                        # ./streamcluster_cuda_cpu.cu:593:62
	movl	-44(%rbp), %r10d
	.loc	3 593 67                        # ./streamcluster_cuda_cpu.cu:593:67
	movq	-56(%rbp), %rax
	.loc	3 592 14 is_stmt 1              # ./streamcluster_cuda_cpu.cu:592:14
	leaq	_ZZ8pkmedianP6PointsllPliP17pthread_barrier_tE1k(%rip), %rcx
	movss	.LCPI17_4(%rip), %xmm2          # xmm2 = [1.00000005E-3,0.0E+0,0.0E+0,0.0E+0]
	movl	%r10d, (%rsp)
	movq	%rax, 8(%rsp)
	callq	_Z3pFLP6PointsPiifPliflfiP17pthread_barrier_t
	.loc	3 592 12 is_stmt 0              # ./streamcluster_cuda_cpu.cu:592:12
	movss	%xmm0, -64(%rbp)
.Ltmp414:
.LBB17_46:                              # %if.end134
                                        #   in Loop: Header=BB17_41 Depth=1
	.loc	3 596 9 is_stmt 1               # ./streamcluster_cuda_cpu.cu:596:9
	movq	_ZZ8pkmedianP6PointsllPliP17pthread_barrier_tE1k(%rip), %rax
	.loc	3 596 11 is_stmt 0              # ./streamcluster_cuda_cpu.cu:596:11
	cmpq	-32(%rbp), %rax
.Ltmp415:
	.loc	3 596 9                         # ./streamcluster_cuda_cpu.cu:596:9
	jle	.LBB17_48
# %bb.47:                               # %if.then136
                                        #   in Loop: Header=BB17_41 Depth=1
.Ltmp416:
	.loc	3 599 13 is_stmt 1              # ./streamcluster_cuda_cpu.cu:599:13
	movss	-80(%rbp), %xmm0                # xmm0 = mem[0],zero,zero,zero
	.loc	3 599 11 is_stmt 0              # ./streamcluster_cuda_cpu.cu:599:11
	movss	%xmm0, -76(%rbp)
	.loc	3 600 12 is_stmt 1              # ./streamcluster_cuda_cpu.cu:600:12
	movss	-72(%rbp), %xmm0                # xmm0 = mem[0],zero,zero,zero
	.loc	3 600 16 is_stmt 0              # ./streamcluster_cuda_cpu.cu:600:16
	addss	-76(%rbp), %xmm0
	.loc	3 600 11                        # ./streamcluster_cuda_cpu.cu:600:11
	cvtss2sd	%xmm0, %xmm0
	.loc	3 600 23                        # ./streamcluster_cuda_cpu.cu:600:23
	movsd	.LCPI17_0(%rip), %xmm1          # xmm1 = [2.0E+0,0.0E+0]
	divsd	%xmm1, %xmm0
	.loc	3 600 11                        # ./streamcluster_cuda_cpu.cu:600:11
	cvtsd2ss	%xmm0, %xmm0
	.loc	3 600 9                         # ./streamcluster_cuda_cpu.cu:600:9
	movss	%xmm0, -80(%rbp)
	.loc	3 601 16 is_stmt 1              # ./streamcluster_cuda_cpu.cu:601:16
	movss	-80(%rbp), %xmm0                # xmm0 = mem[0],zero,zero,zero
	.loc	3 601 18 is_stmt 0              # ./streamcluster_cuda_cpu.cu:601:18
	subss	-76(%rbp), %xmm0
	.loc	3 601 27                        # ./streamcluster_cuda_cpu.cu:601:27
	cvtsi2ssq	_ZZ8pkmedianP6PointsllPliP17pthread_barrier_tE1k(%rip), %xmm2
	.loc	3 601 12                        # ./streamcluster_cuda_cpu.cu:601:12
	movss	-64(%rbp), %xmm1                # xmm1 = mem[0],zero,zero,zero
	mulss	%xmm2, %xmm0
	addss	%xmm1, %xmm0
	movss	%xmm0, -64(%rbp)
.Ltmp417:
.LBB17_48:                              # %if.end144
                                        #   in Loop: Header=BB17_41 Depth=1
	.loc	3 603 9 is_stmt 1               # ./streamcluster_cuda_cpu.cu:603:9
	movq	_ZZ8pkmedianP6PointsllPliP17pthread_barrier_tE1k(%rip), %rax
	.loc	3 603 11 is_stmt 0              # ./streamcluster_cuda_cpu.cu:603:11
	cmpq	-24(%rbp), %rax
.Ltmp418:
	.loc	3 603 9                         # ./streamcluster_cuda_cpu.cu:603:9
	jge	.LBB17_50
# %bb.49:                               # %if.then146
                                        #   in Loop: Header=BB17_41 Depth=1
.Ltmp419:
	.loc	3 606 13 is_stmt 1              # ./streamcluster_cuda_cpu.cu:606:13
	movss	-80(%rbp), %xmm0                # xmm0 = mem[0],zero,zero,zero
	.loc	3 606 11 is_stmt 0              # ./streamcluster_cuda_cpu.cu:606:11
	movss	%xmm0, -72(%rbp)
	.loc	3 607 12 is_stmt 1              # ./streamcluster_cuda_cpu.cu:607:12
	movss	-72(%rbp), %xmm0                # xmm0 = mem[0],zero,zero,zero
	.loc	3 607 16 is_stmt 0              # ./streamcluster_cuda_cpu.cu:607:16
	addss	-76(%rbp), %xmm0
	.loc	3 607 11                        # ./streamcluster_cuda_cpu.cu:607:11
	cvtss2sd	%xmm0, %xmm0
	.loc	3 607 23                        # ./streamcluster_cuda_cpu.cu:607:23
	movsd	.LCPI17_0(%rip), %xmm1          # xmm1 = [2.0E+0,0.0E+0]
	divsd	%xmm1, %xmm0
	.loc	3 607 11                        # ./streamcluster_cuda_cpu.cu:607:11
	cvtsd2ss	%xmm0, %xmm0
	.loc	3 607 9                         # ./streamcluster_cuda_cpu.cu:607:9
	movss	%xmm0, -80(%rbp)
	.loc	3 608 16 is_stmt 1              # ./streamcluster_cuda_cpu.cu:608:16
	movss	-80(%rbp), %xmm0                # xmm0 = mem[0],zero,zero,zero
	.loc	3 608 18 is_stmt 0              # ./streamcluster_cuda_cpu.cu:608:18
	subss	-72(%rbp), %xmm0
	.loc	3 608 27                        # ./streamcluster_cuda_cpu.cu:608:27
	cvtsi2ssq	_ZZ8pkmedianP6PointsllPliP17pthread_barrier_tE1k(%rip), %xmm2
	.loc	3 608 12                        # ./streamcluster_cuda_cpu.cu:608:12
	movss	-64(%rbp), %xmm1                # xmm1 = mem[0],zero,zero,zero
	mulss	%xmm2, %xmm0
	addss	%xmm1, %xmm0
	movss	%xmm0, -64(%rbp)
.Ltmp420:
.LBB17_50:                              # %if.end154
                                        #   in Loop: Header=BB17_41 Depth=1
	.loc	3 613 11 is_stmt 1              # ./streamcluster_cuda_cpu.cu:613:11
	movq	_ZZ8pkmedianP6PointsllPliP17pthread_barrier_tE1k(%rip), %rax
	.loc	3 613 13 is_stmt 0              # ./streamcluster_cuda_cpu.cu:613:13
	cmpq	-32(%rbp), %rax
	.loc	3 613 22                        # ./streamcluster_cuda_cpu.cu:613:22
	jg	.LBB17_52
# %bb.51:                               # %land.lhs.true156
                                        #   in Loop: Header=BB17_41 Depth=1
	.loc	3 613 26                        # ./streamcluster_cuda_cpu.cu:613:26
	movq	_ZZ8pkmedianP6PointsllPliP17pthread_barrier_tE1k(%rip), %rax
	.loc	3 613 28                        # ./streamcluster_cuda_cpu.cu:613:28
	cmpq	-24(%rbp), %rax
	.loc	3 613 38                        # ./streamcluster_cuda_cpu.cu:613:38
	jge	.LBB17_53
.LBB17_52:                              # %lor.lhs.false158
                                        #   in Loop: Header=BB17_41 Depth=1
	.loc	3 613 43                        # ./streamcluster_cuda_cpu.cu:613:43
	movss	-76(%rbp), %xmm0                # xmm0 = mem[0],zero,zero,zero
	cvtss2sd	%xmm0, %xmm0
	.loc	3 613 60                        # ./streamcluster_cuda_cpu.cu:613:60
	movss	-72(%rbp), %xmm1                # xmm1 = mem[0],zero,zero,zero
	cvtss2sd	%xmm1, %xmm2
	.loc	3 613 58                        # ./streamcluster_cuda_cpu.cu:613:58
	movsd	.LCPI17_5(%rip), %xmm1          # xmm1 = [9.9899999999999999E-1,0.0E+0]
	mulsd	%xmm2, %xmm1
	.loc	3 613 47                        # ./streamcluster_cuda_cpu.cu:613:47
	ucomisd	%xmm1, %xmm0
.Ltmp421:
	.loc	3 613 9                         # ./streamcluster_cuda_cpu.cu:613:9
	jb	.LBB17_54
.LBB17_53:                              # %if.then163
.Ltmp422:
	.loc	3 614 7 is_stmt 1               # ./streamcluster_cuda_cpu.cu:614:7
	jmp	.LBB17_55
.Ltmp423:
.LBB17_54:                              # %if.end164
                                        #   in Loop: Header=BB17_41 Depth=1
	.loc	3 565 3                         # ./streamcluster_cuda_cpu.cu:565:3
	jmp	.LBB17_41
.LBB17_55:                              # %while.end165
.Ltmp424:
	.loc	3 622 11                        # ./streamcluster_cuda_cpu.cu:622:11
	cmpl	$0, -44(%rbp)
.Ltmp425:
	.loc	3 622 7 is_stmt 0               # ./streamcluster_cuda_cpu.cu:622:7
	jne	.LBB17_57
# %bb.56:                               # %if.then167
.Ltmp426:
	.loc	3 623 10 is_stmt 1              # ./streamcluster_cuda_cpu.cu:623:10
	movq	_ZZ8pkmedianP6PointsllPliP17pthread_barrier_tE8feasible(%rip), %rdi
	.loc	3 623 5 is_stmt 0               # ./streamcluster_cuda_cpu.cu:623:5
	callq	free@PLT
	.loc	3 624 10 is_stmt 1              # ./streamcluster_cuda_cpu.cu:624:10
	movq	_ZZ8pkmedianP6PointsllPliP17pthread_barrier_tE4hizs(%rip), %rdi
	.loc	3 624 5 is_stmt 0               # ./streamcluster_cuda_cpu.cu:624:5
	callq	free@PLT
	.loc	3 625 15 is_stmt 1              # ./streamcluster_cuda_cpu.cu:625:15
	movq	_ZZ8pkmedianP6PointsllPliP17pthread_barrier_tE1k(%rip), %rcx
	.loc	3 625 6 is_stmt 0               # ./streamcluster_cuda_cpu.cu:625:6
	movq	-40(%rbp), %rax
	.loc	3 625 13                        # ./streamcluster_cuda_cpu.cu:625:13
	movq	%rcx, (%rax)
.Ltmp427:
.LBB17_57:                              # %if.end168
	.loc	3 628 10 is_stmt 1              # ./streamcluster_cuda_cpu.cu:628:10
	movss	-64(%rbp), %xmm0                # xmm0 = mem[0],zero,zero,zero
	.loc	3 628 3 is_stmt 0               # ./streamcluster_cuda_cpu.cu:628:3
	movss	%xmm0, -4(%rbp)
.LBB17_58:                              # %return
	.loc	3 629 1 is_stmt 1               # ./streamcluster_cuda_cpu.cu:629:1
	movss	-4(%rbp), %xmm0                 # xmm0 = mem[0],zero,zero,zero
	.loc	3 629 1 epilogue_begin is_stmt 0 # ./streamcluster_cuda_cpu.cu:629:1
	addq	$384, %rsp                      # imm = 0x180
	popq	%rbp
	.cfi_def_cfa %rsp, 8
	retq
.Ltmp428:
.Lfunc_end17:
	.size	_Z8pkmedianP6PointsllPliP17pthread_barrier_t, .Lfunc_end17-_Z8pkmedianP6PointsllPliP17pthread_barrier_t
	.cfi_endproc
                                        # -- End function
	.section	.rodata.cst8,"aM",@progbits,8
	.p2align	3, 0x0                          # -- Begin function _Z11contcentersP6Points
.LCPI18_0:
	.quad	0x3ff0000000000000              # double 1
	.text
	.globl	_Z11contcentersP6Points
	.p2align	4, 0x90
	.type	_Z11contcentersP6Points,@function
_Z11contcentersP6Points:                # @_Z11contcentersP6Points
.Lfunc_begin18:
	.loc	3 632 0 is_stmt 1               # ./streamcluster_cuda_cpu.cu:632:0
	.cfi_startproc
# %bb.0:                                # %entry
	pushq	%rbp
	.cfi_def_cfa_offset 16
	.cfi_offset %rbp, -16
	movq	%rsp, %rbp
	.cfi_def_cfa_register %rbp
	movq	%rdi, -8(%rbp)
.Ltmp429:
	.loc	3 636 10 prologue_end           # ./streamcluster_cuda_cpu.cu:636:10
	movq	$0, -16(%rbp)
.LBB18_1:                               # %for.cond
                                        # =>This Loop Header: Depth=1
                                        #     Child Loop BB18_4 Depth 2
.Ltmp430:
	.loc	3 636 15 is_stmt 0              # ./streamcluster_cuda_cpu.cu:636:15
	movq	-16(%rbp), %rax
	.loc	3 636 19                        # ./streamcluster_cuda_cpu.cu:636:19
	movq	-8(%rbp), %rcx
	.loc	3 636 17                        # ./streamcluster_cuda_cpu.cu:636:17
	cmpq	(%rcx), %rax
.Ltmp431:
	.loc	3 636 3                         # ./streamcluster_cuda_cpu.cu:636:3
	jge	.LBB18_10
# %bb.2:                                # %for.body
                                        #   in Loop: Header=BB18_1 Depth=1
.Ltmp432:
	.loc	3 638 9 is_stmt 1               # ./streamcluster_cuda_cpu.cu:638:9
	movq	-8(%rbp), %rax
	.loc	3 638 17 is_stmt 0              # ./streamcluster_cuda_cpu.cu:638:17
	movq	16(%rax), %rax
	.loc	3 638 19                        # ./streamcluster_cuda_cpu.cu:638:19
	movq	-16(%rbp), %rcx
	.loc	3 638 9                         # ./streamcluster_cuda_cpu.cu:638:9
	shlq	$5, %rcx
	addq	%rcx, %rax
	.loc	3 638 22                        # ./streamcluster_cuda_cpu.cu:638:22
	movq	16(%rax), %rax
	.loc	3 638 29                        # ./streamcluster_cuda_cpu.cu:638:29
	cmpq	-16(%rbp), %rax
.Ltmp433:
	.loc	3 638 9                         # ./streamcluster_cuda_cpu.cu:638:9
	je	.LBB18_8
# %bb.3:                                # %if.then
                                        #   in Loop: Header=BB18_1 Depth=1
.Ltmp434:
	.loc	3 639 19 is_stmt 1              # ./streamcluster_cuda_cpu.cu:639:19
	movq	-8(%rbp), %rax
	.loc	3 639 27 is_stmt 0              # ./streamcluster_cuda_cpu.cu:639:27
	movq	16(%rax), %rax
	.loc	3 639 29                        # ./streamcluster_cuda_cpu.cu:639:29
	movq	-8(%rbp), %rcx
	.loc	3 639 37                        # ./streamcluster_cuda_cpu.cu:639:37
	movq	16(%rcx), %rcx
	.loc	3 639 39                        # ./streamcluster_cuda_cpu.cu:639:39
	movq	-16(%rbp), %rdx
	.loc	3 639 29                        # ./streamcluster_cuda_cpu.cu:639:29
	shlq	$5, %rdx
	addq	%rdx, %rcx
	.loc	3 639 42                        # ./streamcluster_cuda_cpu.cu:639:42
	movq	16(%rcx), %rcx
	.loc	3 639 19                        # ./streamcluster_cuda_cpu.cu:639:19
	shlq	$5, %rcx
	addq	%rcx, %rax
	.loc	3 639 50                        # ./streamcluster_cuda_cpu.cu:639:50
	movss	(%rax), %xmm0                   # xmm0 = mem[0],zero,zero,zero
	.loc	3 639 59                        # ./streamcluster_cuda_cpu.cu:639:59
	movq	-8(%rbp), %rax
	.loc	3 639 67                        # ./streamcluster_cuda_cpu.cu:639:67
	movq	16(%rax), %rax
	.loc	3 639 69                        # ./streamcluster_cuda_cpu.cu:639:69
	movq	-16(%rbp), %rcx
	.loc	3 639 59                        # ./streamcluster_cuda_cpu.cu:639:59
	shlq	$5, %rcx
	addq	%rcx, %rax
	.loc	3 639 57                        # ./streamcluster_cuda_cpu.cu:639:57
	addss	(%rax), %xmm0
	.loc	3 639 17                        # ./streamcluster_cuda_cpu.cu:639:17
	movss	%xmm0, -28(%rbp)
	.loc	3 640 19 is_stmt 1              # ./streamcluster_cuda_cpu.cu:640:19
	movq	-8(%rbp), %rax
	.loc	3 640 27 is_stmt 0              # ./streamcluster_cuda_cpu.cu:640:27
	movq	16(%rax), %rax
	.loc	3 640 29                        # ./streamcluster_cuda_cpu.cu:640:29
	movq	-16(%rbp), %rcx
	.loc	3 640 19                        # ./streamcluster_cuda_cpu.cu:640:19
	shlq	$5, %rcx
	addq	%rcx, %rax
	.loc	3 640 32                        # ./streamcluster_cuda_cpu.cu:640:32
	movss	(%rax), %xmm0                   # xmm0 = mem[0],zero,zero,zero
	.loc	3 640 39                        # ./streamcluster_cuda_cpu.cu:640:39
	divss	-28(%rbp), %xmm0
	.loc	3 640 17                        # ./streamcluster_cuda_cpu.cu:640:17
	movss	%xmm0, -28(%rbp)
.Ltmp435:
	.loc	3 641 15 is_stmt 1              # ./streamcluster_cuda_cpu.cu:641:15
	movq	$0, -24(%rbp)
.LBB18_4:                               # %for.cond13
                                        #   Parent Loop BB18_1 Depth=1
                                        # =>  This Inner Loop Header: Depth=2
.Ltmp436:
	.loc	3 641 20 is_stmt 0              # ./streamcluster_cuda_cpu.cu:641:20
	movq	-24(%rbp), %rax
	.loc	3 641 25                        # ./streamcluster_cuda_cpu.cu:641:25
	movq	-8(%rbp), %rcx
	movslq	8(%rcx), %rcx
	.loc	3 641 23                        # ./streamcluster_cuda_cpu.cu:641:23
	cmpq	%rcx, %rax
.Ltmp437:
	.loc	3 641 7                         # ./streamcluster_cuda_cpu.cu:641:7
	jge	.LBB18_7
# %bb.5:                                # %for.body15
                                        #   in Loop: Header=BB18_4 Depth=2
.Ltmp438:
	.loc	3 642 59 is_stmt 1              # ./streamcluster_cuda_cpu.cu:642:59
	movss	-28(%rbp), %xmm0                # xmm0 = mem[0],zero,zero,zero
	cvtss2sd	%xmm0, %xmm0
	.loc	3 642 57 is_stmt 0              # ./streamcluster_cuda_cpu.cu:642:57
	movsd	.LCPI18_0(%rip), %xmm1          # xmm1 = [1.0E+0,0.0E+0]
	subsd	%xmm0, %xmm1
	.loc	3 642 9                         # ./streamcluster_cuda_cpu.cu:642:9
	movq	-8(%rbp), %rax
	.loc	3 642 17                        # ./streamcluster_cuda_cpu.cu:642:17
	movq	16(%rax), %rax
	.loc	3 642 19                        # ./streamcluster_cuda_cpu.cu:642:19
	movq	-8(%rbp), %rcx
	.loc	3 642 27                        # ./streamcluster_cuda_cpu.cu:642:27
	movq	16(%rcx), %rcx
	.loc	3 642 29                        # ./streamcluster_cuda_cpu.cu:642:29
	movq	-16(%rbp), %rdx
	.loc	3 642 19                        # ./streamcluster_cuda_cpu.cu:642:19
	shlq	$5, %rdx
	addq	%rdx, %rcx
	.loc	3 642 32                        # ./streamcluster_cuda_cpu.cu:642:32
	movq	16(%rcx), %rcx
	.loc	3 642 9                         # ./streamcluster_cuda_cpu.cu:642:9
	shlq	$5, %rcx
	addq	%rcx, %rax
	.loc	3 642 40                        # ./streamcluster_cuda_cpu.cu:642:40
	movq	8(%rax), %rax
	.loc	3 642 46                        # ./streamcluster_cuda_cpu.cu:642:46
	movq	-24(%rbp), %rcx
	.loc	3 642 50                        # ./streamcluster_cuda_cpu.cu:642:50
	movss	(%rax,%rcx,4), %xmm0            # xmm0 = mem[0],zero,zero,zero
	cvtss2sd	%xmm0, %xmm0
	mulsd	%xmm1, %xmm0
	cvtsd2ss	%xmm0, %xmm0
	movss	%xmm0, (%rax,%rcx,4)
	.loc	3 644 13 is_stmt 1              # ./streamcluster_cuda_cpu.cu:644:13
	movq	-8(%rbp), %rax
	.loc	3 644 21 is_stmt 0              # ./streamcluster_cuda_cpu.cu:644:21
	movq	16(%rax), %rax
	.loc	3 644 23                        # ./streamcluster_cuda_cpu.cu:644:23
	movq	-16(%rbp), %rcx
	.loc	3 644 13                        # ./streamcluster_cuda_cpu.cu:644:13
	shlq	$5, %rcx
	addq	%rcx, %rax
	.loc	3 644 26                        # ./streamcluster_cuda_cpu.cu:644:26
	movq	8(%rax), %rax
	.loc	3 644 32                        # ./streamcluster_cuda_cpu.cu:644:32
	movq	-24(%rbp), %rcx
	.loc	3 644 13                        # ./streamcluster_cuda_cpu.cu:644:13
	movss	(%rax,%rcx,4), %xmm0            # xmm0 = mem[0],zero,zero,zero
	.loc	3 644 38                        # ./streamcluster_cuda_cpu.cu:644:38
	movss	-28(%rbp), %xmm2                # xmm2 = mem[0],zero,zero,zero
	.loc	3 643 9 is_stmt 1               # ./streamcluster_cuda_cpu.cu:643:9
	movq	-8(%rbp), %rax
	.loc	3 643 17 is_stmt 0              # ./streamcluster_cuda_cpu.cu:643:17
	movq	16(%rax), %rax
	.loc	3 643 19                        # ./streamcluster_cuda_cpu.cu:643:19
	movq	-8(%rbp), %rcx
	.loc	3 643 27                        # ./streamcluster_cuda_cpu.cu:643:27
	movq	16(%rcx), %rcx
	.loc	3 643 29                        # ./streamcluster_cuda_cpu.cu:643:29
	movq	-16(%rbp), %rdx
	.loc	3 643 19                        # ./streamcluster_cuda_cpu.cu:643:19
	shlq	$5, %rdx
	addq	%rdx, %rcx
	.loc	3 643 32                        # ./streamcluster_cuda_cpu.cu:643:32
	movq	16(%rcx), %rcx
	.loc	3 643 9                         # ./streamcluster_cuda_cpu.cu:643:9
	shlq	$5, %rcx
	addq	%rcx, %rax
	.loc	3 643 40                        # ./streamcluster_cuda_cpu.cu:643:40
	movq	8(%rax), %rax
	.loc	3 643 46                        # ./streamcluster_cuda_cpu.cu:643:46
	movq	-24(%rbp), %rcx
	.loc	3 643 50                        # ./streamcluster_cuda_cpu.cu:643:50
	movss	(%rax,%rcx,4), %xmm1            # xmm1 = mem[0],zero,zero,zero
	mulss	%xmm2, %xmm0
	addss	%xmm1, %xmm0
	movss	%xmm0, (%rax,%rcx,4)
.Ltmp439:
# %bb.6:                                # %for.inc
                                        #   in Loop: Header=BB18_4 Depth=2
	.loc	3 641 40 is_stmt 1              # ./streamcluster_cuda_cpu.cu:641:40
	movq	-24(%rbp), %rax
	addq	$1, %rax
	movq	%rax, -24(%rbp)
	.loc	3 641 7 is_stmt 0               # ./streamcluster_cuda_cpu.cu:641:7
	jmp	.LBB18_4
.Ltmp440:
.LBB18_7:                               # %for.end
                                        #   in Loop: Header=BB18_1 Depth=1
	.loc	3 646 48 is_stmt 1              # ./streamcluster_cuda_cpu.cu:646:48
	movq	-8(%rbp), %rax
	.loc	3 646 56 is_stmt 0              # ./streamcluster_cuda_cpu.cu:646:56
	movq	16(%rax), %rax
	.loc	3 646 58                        # ./streamcluster_cuda_cpu.cu:646:58
	movq	-16(%rbp), %rcx
	.loc	3 646 48                        # ./streamcluster_cuda_cpu.cu:646:48
	shlq	$5, %rcx
	addq	%rcx, %rax
	.loc	3 646 61                        # ./streamcluster_cuda_cpu.cu:646:61
	movss	(%rax), %xmm0                   # xmm0 = mem[0],zero,zero,zero
	.loc	3 646 7                         # ./streamcluster_cuda_cpu.cu:646:7
	movq	-8(%rbp), %rax
	.loc	3 646 15                        # ./streamcluster_cuda_cpu.cu:646:15
	movq	16(%rax), %rax
	.loc	3 646 17                        # ./streamcluster_cuda_cpu.cu:646:17
	movq	-8(%rbp), %rcx
	.loc	3 646 25                        # ./streamcluster_cuda_cpu.cu:646:25
	movq	16(%rcx), %rcx
	.loc	3 646 27                        # ./streamcluster_cuda_cpu.cu:646:27
	movq	-16(%rbp), %rdx
	.loc	3 646 17                        # ./streamcluster_cuda_cpu.cu:646:17
	shlq	$5, %rdx
	addq	%rdx, %rcx
	.loc	3 646 30                        # ./streamcluster_cuda_cpu.cu:646:30
	movq	16(%rcx), %rcx
	.loc	3 646 7                         # ./streamcluster_cuda_cpu.cu:646:7
	shlq	$5, %rcx
	addq	%rcx, %rax
	.loc	3 646 45                        # ./streamcluster_cuda_cpu.cu:646:45
	addss	(%rax), %xmm0
	movss	%xmm0, (%rax)
.Ltmp441:
.LBB18_8:                               # %if.end
                                        #   in Loop: Header=BB18_1 Depth=1
	.loc	3 648 3 is_stmt 1               # ./streamcluster_cuda_cpu.cu:648:3
	jmp	.LBB18_9
.Ltmp442:
.LBB18_9:                               # %for.inc47
                                        #   in Loop: Header=BB18_1 Depth=1
	.loc	3 636 33                        # ./streamcluster_cuda_cpu.cu:636:33
	movq	-16(%rbp), %rax
	addq	$1, %rax
	movq	%rax, -16(%rbp)
	.loc	3 636 3 is_stmt 0               # ./streamcluster_cuda_cpu.cu:636:3
	jmp	.LBB18_1
.Ltmp443:
.LBB18_10:                              # %for.end49
	.loc	3 650 3 is_stmt 1               # ./streamcluster_cuda_cpu.cu:650:3
	xorl	%eax, %eax
	.loc	3 650 3 epilogue_begin is_stmt 0 # ./streamcluster_cuda_cpu.cu:650:3
	popq	%rbp
	.cfi_def_cfa %rsp, 8
	retq
.Ltmp444:
.Lfunc_end18:
	.size	_Z11contcentersP6Points, .Lfunc_end18-_Z11contcentersP6Points
	.cfi_endproc
                                        # -- End function
	.globl	_Z11copycentersP6PointsS0_Pll   # -- Begin function _Z11copycentersP6PointsS0_Pll
	.p2align	4, 0x90
	.type	_Z11copycentersP6PointsS0_Pll,@function
_Z11copycentersP6PointsS0_Pll:          # @_Z11copycentersP6PointsS0_Pll
.Lfunc_begin19:
	.loc	3 655 0 is_stmt 1               # ./streamcluster_cuda_cpu.cu:655:0
	.cfi_startproc
# %bb.0:                                # %entry
	pushq	%rbp
	.cfi_def_cfa_offset 16
	.cfi_offset %rbp, -16
	movq	%rsp, %rbp
	.cfi_def_cfa_register %rbp
	subq	$64, %rsp
	movq	%rdi, -8(%rbp)
	movq	%rsi, -16(%rbp)
	movq	%rdx, -24(%rbp)
	movq	%rcx, -32(%rbp)
.Ltmp445:
	.loc	3 659 38 prologue_end           # ./streamcluster_cuda_cpu.cu:659:38
	movq	-8(%rbp), %rax
	.loc	3 659 46 is_stmt 0              # ./streamcluster_cuda_cpu.cu:659:46
	movq	(%rax), %rdi
	.loc	3 659 31                        # ./streamcluster_cuda_cpu.cu:659:31
	movl	$1, %esi
	callq	calloc@PLT
	.loc	3 659 9                         # ./streamcluster_cuda_cpu.cu:659:9
	movq	%rax, -56(%rbp)
.Ltmp446:
	.loc	3 662 10 is_stmt 1              # ./streamcluster_cuda_cpu.cu:662:10
	movq	$0, -40(%rbp)
.LBB19_1:                               # %for.cond
                                        # =>This Inner Loop Header: Depth=1
.Ltmp447:
	.loc	3 662 15 is_stmt 0              # ./streamcluster_cuda_cpu.cu:662:15
	movq	-40(%rbp), %rax
	.loc	3 662 19                        # ./streamcluster_cuda_cpu.cu:662:19
	movq	-8(%rbp), %rcx
	.loc	3 662 17                        # ./streamcluster_cuda_cpu.cu:662:17
	cmpq	(%rcx), %rax
.Ltmp448:
	.loc	3 662 3                         # ./streamcluster_cuda_cpu.cu:662:3
	jge	.LBB19_4
# %bb.2:                                # %for.body
                                        #   in Loop: Header=BB19_1 Depth=1
.Ltmp449:
	.loc	3 663 5 is_stmt 1               # ./streamcluster_cuda_cpu.cu:663:5
	movq	-56(%rbp), %rax
	.loc	3 663 17 is_stmt 0              # ./streamcluster_cuda_cpu.cu:663:17
	movq	-8(%rbp), %rcx
	.loc	3 663 25                        # ./streamcluster_cuda_cpu.cu:663:25
	movq	16(%rcx), %rcx
	.loc	3 663 27                        # ./streamcluster_cuda_cpu.cu:663:27
	movq	-40(%rbp), %rdx
	.loc	3 663 17                        # ./streamcluster_cuda_cpu.cu:663:17
	shlq	$5, %rdx
	addq	%rdx, %rcx
	.loc	3 663 30                        # ./streamcluster_cuda_cpu.cu:663:30
	movq	16(%rcx), %rcx
	.loc	3 663 38                        # ./streamcluster_cuda_cpu.cu:663:38
	movb	$1, (%rax,%rcx)
.Ltmp450:
# %bb.3:                                # %for.inc
                                        #   in Loop: Header=BB19_1 Depth=1
	.loc	3 662 33 is_stmt 1              # ./streamcluster_cuda_cpu.cu:662:33
	movq	-40(%rbp), %rax
	addq	$1, %rax
	movq	%rax, -40(%rbp)
	.loc	3 662 3 is_stmt 0               # ./streamcluster_cuda_cpu.cu:662:3
	jmp	.LBB19_1
.Ltmp451:
.LBB19_4:                               # %for.end
	.loc	3 666 7 is_stmt 1               # ./streamcluster_cuda_cpu.cu:666:7
	movq	-16(%rbp), %rax
	.loc	3 666 16 is_stmt 0              # ./streamcluster_cuda_cpu.cu:666:16
	movq	(%rax), %rax
	.loc	3 666 5                         # ./streamcluster_cuda_cpu.cu:666:5
	movq	%rax, -48(%rbp)
.Ltmp452:
	.loc	3 669 10 is_stmt 1              # ./streamcluster_cuda_cpu.cu:669:10
	movq	$0, -40(%rbp)
.LBB19_5:                               # %for.cond4
                                        # =>This Inner Loop Header: Depth=1
.Ltmp453:
	.loc	3 669 15 is_stmt 0              # ./streamcluster_cuda_cpu.cu:669:15
	movq	-40(%rbp), %rax
	.loc	3 669 19                        # ./streamcluster_cuda_cpu.cu:669:19
	movq	-8(%rbp), %rcx
	.loc	3 669 17                        # ./streamcluster_cuda_cpu.cu:669:17
	cmpq	(%rcx), %rax
.Ltmp454:
	.loc	3 669 3                         # ./streamcluster_cuda_cpu.cu:669:3
	jge	.LBB19_10
# %bb.6:                                # %for.body7
                                        #   in Loop: Header=BB19_5 Depth=1
.Ltmp455:
	.loc	3 670 9 is_stmt 1               # ./streamcluster_cuda_cpu.cu:670:9
	movq	-56(%rbp), %rax
	.loc	3 670 21 is_stmt 0              # ./streamcluster_cuda_cpu.cu:670:21
	movq	-40(%rbp), %rcx
.Ltmp456:
	.loc	3 670 9                         # ./streamcluster_cuda_cpu.cu:670:9
	testb	$1, (%rax,%rcx)
	je	.LBB19_8
# %bb.7:                                # %if.then
                                        #   in Loop: Header=BB19_5 Depth=1
.Ltmp457:
	.loc	3 671 14 is_stmt 1              # ./streamcluster_cuda_cpu.cu:671:14
	movq	-16(%rbp), %rax
	.loc	3 671 23 is_stmt 0              # ./streamcluster_cuda_cpu.cu:671:23
	movq	16(%rax), %rax
	.loc	3 671 25                        # ./streamcluster_cuda_cpu.cu:671:25
	movq	-48(%rbp), %rcx
	.loc	3 671 14                        # ./streamcluster_cuda_cpu.cu:671:14
	shlq	$5, %rcx
	addq	%rcx, %rax
	.loc	3 671 28                        # ./streamcluster_cuda_cpu.cu:671:28
	movq	8(%rax), %rdi
	.loc	3 671 35                        # ./streamcluster_cuda_cpu.cu:671:35
	movq	-8(%rbp), %rax
	.loc	3 671 43                        # ./streamcluster_cuda_cpu.cu:671:43
	movq	16(%rax), %rax
	.loc	3 671 45                        # ./streamcluster_cuda_cpu.cu:671:45
	movq	-40(%rbp), %rcx
	.loc	3 671 35                        # ./streamcluster_cuda_cpu.cu:671:35
	shlq	$5, %rcx
	addq	%rcx, %rax
	.loc	3 671 48                        # ./streamcluster_cuda_cpu.cu:671:48
	movq	8(%rax), %rsi
	.loc	3 672 14 is_stmt 1              # ./streamcluster_cuda_cpu.cu:672:14
	movq	-8(%rbp), %rax
	movslq	8(%rax), %rdx
	.loc	3 672 26 is_stmt 0              # ./streamcluster_cuda_cpu.cu:672:26
	shlq	$2, %rdx
	.loc	3 671 7 is_stmt 1               # ./streamcluster_cuda_cpu.cu:671:7
	callq	memcpy@PLT
	.loc	3 673 30                        # ./streamcluster_cuda_cpu.cu:673:30
	movq	-8(%rbp), %rax
	.loc	3 673 38 is_stmt 0              # ./streamcluster_cuda_cpu.cu:673:38
	movq	16(%rax), %rax
	.loc	3 673 40                        # ./streamcluster_cuda_cpu.cu:673:40
	movq	-40(%rbp), %rcx
	.loc	3 673 30                        # ./streamcluster_cuda_cpu.cu:673:30
	shlq	$5, %rcx
	addq	%rcx, %rax
	.loc	3 673 43                        # ./streamcluster_cuda_cpu.cu:673:43
	movss	(%rax), %xmm0                   # xmm0 = mem[0],zero,zero,zero
	.loc	3 673 7                         # ./streamcluster_cuda_cpu.cu:673:7
	movq	-16(%rbp), %rax
	.loc	3 673 16                        # ./streamcluster_cuda_cpu.cu:673:16
	movq	16(%rax), %rax
	.loc	3 673 18                        # ./streamcluster_cuda_cpu.cu:673:18
	movq	-48(%rbp), %rcx
	.loc	3 673 7                         # ./streamcluster_cuda_cpu.cu:673:7
	shlq	$5, %rcx
	addq	%rcx, %rax
	.loc	3 673 28                        # ./streamcluster_cuda_cpu.cu:673:28
	movss	%xmm0, (%rax)
	.loc	3 674 22 is_stmt 1              # ./streamcluster_cuda_cpu.cu:674:22
	movq	-40(%rbp), %rdx
	.loc	3 674 24 is_stmt 0              # ./streamcluster_cuda_cpu.cu:674:24
	addq	-32(%rbp), %rdx
	.loc	3 674 7                         # ./streamcluster_cuda_cpu.cu:674:7
	movq	-24(%rbp), %rax
	.loc	3 674 17                        # ./streamcluster_cuda_cpu.cu:674:17
	movq	-48(%rbp), %rcx
	.loc	3 674 20                        # ./streamcluster_cuda_cpu.cu:674:20
	movq	%rdx, (%rax,%rcx,8)
	.loc	3 675 8 is_stmt 1               # ./streamcluster_cuda_cpu.cu:675:8
	movq	-48(%rbp), %rax
	addq	$1, %rax
	movq	%rax, -48(%rbp)
.Ltmp458:
.LBB19_8:                               # %if.end
                                        #   in Loop: Header=BB19_5 Depth=1
	.loc	3 677 3                         # ./streamcluster_cuda_cpu.cu:677:3
	jmp	.LBB19_9
.Ltmp459:
.LBB19_9:                               # %for.inc21
                                        #   in Loop: Header=BB19_5 Depth=1
	.loc	3 669 33                        # ./streamcluster_cuda_cpu.cu:669:33
	movq	-40(%rbp), %rax
	addq	$1, %rax
	movq	%rax, -40(%rbp)
	.loc	3 669 3 is_stmt 0               # ./streamcluster_cuda_cpu.cu:669:3
	jmp	.LBB19_5
.Ltmp460:
.LBB19_10:                              # %for.end23
	.loc	3 679 18 is_stmt 1              # ./streamcluster_cuda_cpu.cu:679:18
	movq	-48(%rbp), %rcx
	.loc	3 679 3 is_stmt 0               # ./streamcluster_cuda_cpu.cu:679:3
	movq	-16(%rbp), %rax
	.loc	3 679 16                        # ./streamcluster_cuda_cpu.cu:679:16
	movq	%rcx, (%rax)
	.loc	3 681 8 is_stmt 1               # ./streamcluster_cuda_cpu.cu:681:8
	movq	-56(%rbp), %rdi
	.loc	3 681 3 is_stmt 0               # ./streamcluster_cuda_cpu.cu:681:3
	callq	free@PLT
	.loc	3 682 1 epilogue_begin is_stmt 1 # ./streamcluster_cuda_cpu.cu:682:1
	addq	$64, %rsp
	popq	%rbp
	.cfi_def_cfa %rsp, 8
	retq
.Ltmp461:
.Lfunc_end19:
	.size	_Z11copycentersP6PointsS0_Pll, .Lfunc_end19-_Z11copycentersP6PointsS0_Pll
	.cfi_endproc
                                        # -- End function
	.globl	_Z14localSearchSubPv            # -- Begin function _Z14localSearchSubPv
	.p2align	4, 0x90
	.type	_Z14localSearchSubPv,@function
_Z14localSearchSubPv:                   # @_Z14localSearchSubPv
.Lfunc_begin20:
	.loc	3 684 0                         # ./streamcluster_cuda_cpu.cu:684:0
	.cfi_startproc
# %bb.0:                                # %entry
	pushq	%rbp
	.cfi_def_cfa_offset 16
	.cfi_offset %rbp, -16
	movq	%rsp, %rbp
	.cfi_def_cfa_register %rbp
	subq	$16, %rsp
	movq	%rdi, -8(%rbp)
.Ltmp462:
	.loc	3 685 43 prologue_end           # ./streamcluster_cuda_cpu.cu:685:43
	movq	-8(%rbp), %rax
	.loc	3 685 19 is_stmt 0              # ./streamcluster_cuda_cpu.cu:685:19
	movq	%rax, -16(%rbp)
	.loc	3 686 12 is_stmt 1              # ./streamcluster_cuda_cpu.cu:686:12
	movq	-16(%rbp), %rax
	.loc	3 686 17 is_stmt 0              # ./streamcluster_cuda_cpu.cu:686:17
	movq	(%rax), %rdi
	.loc	3 686 25                        # ./streamcluster_cuda_cpu.cu:686:25
	movq	-16(%rbp), %rax
	.loc	3 686 30                        # ./streamcluster_cuda_cpu.cu:686:30
	movq	8(%rax), %rsi
	.loc	3 686 36                        # ./streamcluster_cuda_cpu.cu:686:36
	movq	-16(%rbp), %rax
	.loc	3 686 41                        # ./streamcluster_cuda_cpu.cu:686:41
	movq	16(%rax), %rdx
	.loc	3 686 47                        # ./streamcluster_cuda_cpu.cu:686:47
	movq	-16(%rbp), %rax
	.loc	3 686 52                        # ./streamcluster_cuda_cpu.cu:686:52
	movq	24(%rax), %rcx
	.loc	3 686 60                        # ./streamcluster_cuda_cpu.cu:686:60
	movq	-16(%rbp), %rax
	.loc	3 686 65                        # ./streamcluster_cuda_cpu.cu:686:65
	movl	32(%rax), %r8d
	.loc	3 687 12 is_stmt 1              # ./streamcluster_cuda_cpu.cu:687:12
	movq	-16(%rbp), %rax
	.loc	3 687 17 is_stmt 0              # ./streamcluster_cuda_cpu.cu:687:17
	movq	40(%rax), %r9
	.loc	3 686 3 is_stmt 1               # ./streamcluster_cuda_cpu.cu:686:3
	callq	_Z8pkmedianP6PointsllPliP17pthread_barrier_t
	.loc	3 689 3                         # ./streamcluster_cuda_cpu.cu:689:3
	xorl	%eax, %eax
                                        # kill: def $rax killed $eax
	.loc	3 689 3 epilogue_begin is_stmt 0 # ./streamcluster_cuda_cpu.cu:689:3
	addq	$16, %rsp
	popq	%rbp
	.cfi_def_cfa %rsp, 8
	retq
.Ltmp463:
.Lfunc_end20:
	.size	_Z14localSearchSubPv, .Lfunc_end20-_Z14localSearchSubPv
	.cfi_endproc
                                        # -- End function
	.globl	_Z11localSearchP6PointsllPl     # -- Begin function _Z11localSearchP6PointsllPl
	.p2align	4, 0x90
	.type	_Z11localSearchP6PointsllPl,@function
_Z11localSearchP6PointsllPl:            # @_Z11localSearchP6PointsllPl
.Lfunc_begin21:
	.loc	3 692 0 is_stmt 1               # ./streamcluster_cuda_cpu.cu:692:0
	.cfi_startproc
# %bb.0:                                # %entry
	pushq	%rbp
	.cfi_def_cfa_offset 16
	.cfi_offset %rbp, -16
	movq	%rsp, %rbp
	.cfi_def_cfa_register %rbp
	subq	$128, %rsp
	movq	%rdi, -8(%rbp)
	movq	%rsi, -16(%rbp)
	movq	%rdx, -24(%rbp)
	movq	%rcx, -32(%rbp)
.Ltmp464:
	.loc	3 694 15 prologue_end           # ./streamcluster_cuda_cpu.cu:694:15
	callq	_Z7gettimev
	.loc	3 694 10 is_stmt 0              # ./streamcluster_cuda_cpu.cu:694:10
	movsd	%xmm0, -40(%rbp)
	.loc	3 701 24 is_stmt 1              # ./streamcluster_cuda_cpu.cu:701:24
	movslq	_ZL5nproc(%rip), %rax
	movl	$8, %ecx
	mulq	%rcx
	movq	%rax, %rdi
	seto	%cl
	movq	$-1, %rax
	testb	$1, %cl
	cmovneq	%rax, %rdi
	callq	_Znam@PLT
	.loc	3 701 14 is_stmt 0              # ./streamcluster_cuda_cpu.cu:701:14
	movq	%rax, -80(%rbp)
	.loc	3 702 25 is_stmt 1              # ./streamcluster_cuda_cpu.cu:702:25
	movslq	_ZL5nproc(%rip), %rax
	movl	$48, %ecx
	mulq	%rcx
	movq	%rax, %rdi
	seto	%cl
	movq	$-1, %rax
	testb	$1, %cl
	cmovneq	%rax, %rdi
	callq	_Znam@PLT
	.loc	3 702 19 is_stmt 0              # ./streamcluster_cuda_cpu.cu:702:19
	movq	%rax, -88(%rbp)
.Ltmp465:
	.loc	3 704 12 is_stmt 1              # ./streamcluster_cuda_cpu.cu:704:12
	movl	$0, -92(%rbp)
.LBB21_1:                               # %for.cond
                                        # =>This Inner Loop Header: Depth=1
.Ltmp466:
	.loc	3 704 19 is_stmt 0              # ./streamcluster_cuda_cpu.cu:704:19
	movl	-92(%rbp), %eax
	.loc	3 704 21                        # ./streamcluster_cuda_cpu.cu:704:21
	cmpl	_ZL5nproc(%rip), %eax
.Ltmp467:
	.loc	3 704 3                         # ./streamcluster_cuda_cpu.cu:704:3
	jge	.LBB21_4
# %bb.2:                                # %for.body
                                        #   in Loop: Header=BB21_1 Depth=1
.Ltmp468:
	.loc	3 705 21 is_stmt 1              # ./streamcluster_cuda_cpu.cu:705:21
	movq	-8(%rbp), %rcx
	.loc	3 705 5 is_stmt 0               # ./streamcluster_cuda_cpu.cu:705:5
	movq	-88(%rbp), %rax
	movslq	-92(%rbp), %rdx
	imulq	$48, %rdx, %rdx
	addq	%rdx, %rax
	.loc	3 705 19                        # ./streamcluster_cuda_cpu.cu:705:19
	movq	%rcx, (%rax)
	.loc	3 706 19 is_stmt 1              # ./streamcluster_cuda_cpu.cu:706:19
	movq	-16(%rbp), %rcx
	.loc	3 706 5 is_stmt 0               # ./streamcluster_cuda_cpu.cu:706:5
	movq	-88(%rbp), %rax
	movslq	-92(%rbp), %rdx
	imulq	$48, %rdx, %rdx
	addq	%rdx, %rax
	.loc	3 706 17                        # ./streamcluster_cuda_cpu.cu:706:17
	movq	%rcx, 8(%rax)
	.loc	3 707 19 is_stmt 1              # ./streamcluster_cuda_cpu.cu:707:19
	movq	-24(%rbp), %rcx
	.loc	3 707 5 is_stmt 0               # ./streamcluster_cuda_cpu.cu:707:5
	movq	-88(%rbp), %rax
	movslq	-92(%rbp), %rdx
	imulq	$48, %rdx, %rdx
	addq	%rdx, %rax
	.loc	3 707 17                        # ./streamcluster_cuda_cpu.cu:707:17
	movq	%rcx, 16(%rax)
	.loc	3 708 18 is_stmt 1              # ./streamcluster_cuda_cpu.cu:708:18
	movl	-92(%rbp), %ecx
	.loc	3 708 5 is_stmt 0               # ./streamcluster_cuda_cpu.cu:708:5
	movq	-88(%rbp), %rax
	movslq	-92(%rbp), %rdx
	imulq	$48, %rdx, %rdx
	addq	%rdx, %rax
	.loc	3 708 16                        # ./streamcluster_cuda_cpu.cu:708:16
	movl	%ecx, 32(%rax)
	.loc	3 709 21 is_stmt 1              # ./streamcluster_cuda_cpu.cu:709:21
	movq	-32(%rbp), %rcx
	.loc	3 709 5 is_stmt 0               # ./streamcluster_cuda_cpu.cu:709:5
	movq	-88(%rbp), %rax
	movslq	-92(%rbp), %rdx
	imulq	$48, %rdx, %rdx
	addq	%rdx, %rax
	.loc	3 709 19                        # ./streamcluster_cuda_cpu.cu:709:19
	movq	%rcx, 24(%rax)
	.loc	3 711 5 is_stmt 1               # ./streamcluster_cuda_cpu.cu:711:5
	movq	-88(%rbp), %rax
	movslq	-92(%rbp), %rcx
	imulq	$48, %rcx, %rcx
	addq	%rcx, %rax
	.loc	3 711 20 is_stmt 0              # ./streamcluster_cuda_cpu.cu:711:20
	leaq	-72(%rbp), %rcx
	movq	%rcx, 40(%rax)
	.loc	3 715 21 is_stmt 1              # ./streamcluster_cuda_cpu.cu:715:21
	movq	-88(%rbp), %rdi
	.loc	3 715 5 is_stmt 0               # ./streamcluster_cuda_cpu.cu:715:5
	callq	_Z14localSearchSubPv
.Ltmp469:
# %bb.3:                                # %for.inc
                                        #   in Loop: Header=BB21_1 Depth=1
	.loc	3 704 31 is_stmt 1              # ./streamcluster_cuda_cpu.cu:704:31
	movl	-92(%rbp), %eax
	addl	$1, %eax
	movl	%eax, -92(%rbp)
	.loc	3 704 3 is_stmt 0               # ./streamcluster_cuda_cpu.cu:704:3
	jmp	.LBB21_1
.Ltmp470:
.LBB21_4:                               # %for.end
	.loc	3 719 12 is_stmt 1              # ./streamcluster_cuda_cpu.cu:719:12
	movl	$0, -96(%rbp)
.LBB21_5:                               # %for.cond21
                                        # =>This Inner Loop Header: Depth=1
.Ltmp471:
	.loc	3 719 19 is_stmt 0              # ./streamcluster_cuda_cpu.cu:719:19
	movl	-96(%rbp), %eax
	.loc	3 719 21                        # ./streamcluster_cuda_cpu.cu:719:21
	cmpl	_ZL5nproc(%rip), %eax
.Ltmp472:
	.loc	3 719 3                         # ./streamcluster_cuda_cpu.cu:719:3
	jge	.LBB21_8
# %bb.6:                                # %for.body23
                                        #   in Loop: Header=BB21_5 Depth=1
.Ltmp473:
	.loc	3 723 3 is_stmt 1               # ./streamcluster_cuda_cpu.cu:723:3
	jmp	.LBB21_7
.Ltmp474:
.LBB21_7:                               # %for.inc24
                                        #   in Loop: Header=BB21_5 Depth=1
	.loc	3 719 31                        # ./streamcluster_cuda_cpu.cu:719:31
	movl	-96(%rbp), %eax
	addl	$1, %eax
	movl	%eax, -96(%rbp)
	.loc	3 719 3 is_stmt 0               # ./streamcluster_cuda_cpu.cu:719:3
	jmp	.LBB21_5
.Ltmp475:
.LBB21_8:                               # %for.end26
	.loc	3 725 12 is_stmt 1              # ./streamcluster_cuda_cpu.cu:725:12
	movq	-80(%rbp), %rax
	movq	%rax, -112(%rbp)                # 8-byte Spill
	.loc	3 725 3 is_stmt 0               # ./streamcluster_cuda_cpu.cu:725:3
	cmpq	$0, %rax
	je	.LBB21_10
# %bb.9:                                # %delete.notnull
	.loc	3 0 3                           # ./streamcluster_cuda_cpu.cu:0:3
	movq	-112(%rbp), %rdi                # 8-byte Reload
	.loc	3 725 3                         # ./streamcluster_cuda_cpu.cu:725:3
	callq	_ZdaPv@PLT
.LBB21_10:                              # %delete.end
	.loc	3 726 12 is_stmt 1              # ./streamcluster_cuda_cpu.cu:726:12
	movq	-88(%rbp), %rax
	movq	%rax, -120(%rbp)                # 8-byte Spill
	.loc	3 726 3 is_stmt 0               # ./streamcluster_cuda_cpu.cu:726:3
	cmpq	$0, %rax
	je	.LBB21_12
# %bb.11:                               # %delete.notnull28
	.loc	3 0 3                           # ./streamcluster_cuda_cpu.cu:0:3
	movq	-120(%rbp), %rdi                # 8-byte Reload
	.loc	3 726 3                         # ./streamcluster_cuda_cpu.cu:726:3
	callq	_ZdaPv@PLT
.LBB21_12:                              # %delete.end29
	.loc	3 732 15 is_stmt 1              # ./streamcluster_cuda_cpu.cu:732:15
	callq	_Z7gettimev
	.loc	3 732 10 is_stmt 0              # ./streamcluster_cuda_cpu.cu:732:10
	movsd	%xmm0, -104(%rbp)
	.loc	3 733 24 is_stmt 1              # ./streamcluster_cuda_cpu.cu:733:24
	movsd	-104(%rbp), %xmm0               # xmm0 = mem[0],zero
	.loc	3 733 27 is_stmt 0              # ./streamcluster_cuda_cpu.cu:733:27
	subsd	-40(%rbp), %xmm0
	.loc	3 733 21                        # ./streamcluster_cuda_cpu.cu:733:21
	addsd	time_local_search(%rip), %xmm0
	movsd	%xmm0, time_local_search(%rip)
	.loc	3 735 1 epilogue_begin is_stmt 1 # ./streamcluster_cuda_cpu.cu:735:1
	addq	$128, %rsp
	popq	%rbp
	.cfi_def_cfa %rsp, 8
	retq
.Ltmp476:
.Lfunc_end21:
	.size	_Z11localSearchP6PointsllPl, .Lfunc_end21-_Z11localSearchP6PointsllPl
	.cfi_endproc
                                        # -- End function
	.globl	_Z12outcenterIDsP6PointsPlPc    # -- Begin function _Z12outcenterIDsP6PointsPlPc
	.p2align	4, 0x90
	.type	_Z12outcenterIDsP6PointsPlPc,@function
_Z12outcenterIDsP6PointsPlPc:           # @_Z12outcenterIDsP6PointsPlPc
.Lfunc_begin22:
	.loc	3 737 0                         # ./streamcluster_cuda_cpu.cu:737:0
	.cfi_startproc
# %bb.0:                                # %entry
	pushq	%rbp
	.cfi_def_cfa_offset 16
	.cfi_offset %rbp, -16
	movq	%rsp, %rbp
	.cfi_def_cfa_register %rbp
	subq	$64, %rsp
	movq	%rdi, -8(%rbp)
	movq	%rsi, -16(%rbp)
	movq	%rdx, -24(%rbp)
.Ltmp477:
	.loc	3 738 20 prologue_end           # ./streamcluster_cuda_cpu.cu:738:20
	movq	-24(%rbp), %rdi
	.loc	3 738 14 is_stmt 0              # ./streamcluster_cuda_cpu.cu:738:14
	leaq	.L.str.3(%rip), %rsi
	callq	fopen@PLT
	.loc	3 738 9                         # ./streamcluster_cuda_cpu.cu:738:9
	movq	%rax, -32(%rbp)
.Ltmp478:
	.loc	3 739 10 is_stmt 1              # ./streamcluster_cuda_cpu.cu:739:10
	cmpq	$0, -32(%rbp)
.Ltmp479:
	.loc	3 739 7 is_stmt 0               # ./streamcluster_cuda_cpu.cu:739:7
	jne	.LBB22_2
# %bb.1:                                # %if.then
.Ltmp480:
	.loc	3 740 13 is_stmt 1              # ./streamcluster_cuda_cpu.cu:740:13
	movq	stderr@GOTPCREL(%rip), %rax
	movq	(%rax), %rdi
	.loc	3 740 43 is_stmt 0              # ./streamcluster_cuda_cpu.cu:740:43
	movq	-24(%rbp), %rdx
	.loc	3 740 5                         # ./streamcluster_cuda_cpu.cu:740:5
	leaq	.L.str.7(%rip), %rsi
	movb	$0, %al
	callq	fprintf@PLT
	.loc	3 741 5 is_stmt 1               # ./streamcluster_cuda_cpu.cu:741:5
	movl	$1, %edi
	callq	exit@PLT
.Ltmp481:
.LBB22_2:                               # %if.end
	.loc	3 743 49                        # ./streamcluster_cuda_cpu.cu:743:49
	movq	-8(%rbp), %rax
	.loc	3 743 58 is_stmt 0              # ./streamcluster_cuda_cpu.cu:743:58
	movq	(%rax), %rsi
	.loc	3 743 29                        # ./streamcluster_cuda_cpu.cu:743:29
	movl	$4, %edi
	callq	calloc@PLT
	.loc	3 743 8                         # ./streamcluster_cuda_cpu.cu:743:8
	movq	%rax, -40(%rbp)
.Ltmp482:
	.loc	3 744 12 is_stmt 1              # ./streamcluster_cuda_cpu.cu:744:12
	movl	$0, -44(%rbp)
.LBB22_3:                               # %for.cond
                                        # =>This Inner Loop Header: Depth=1
.Ltmp483:
	.loc	3 744 19 is_stmt 0              # ./streamcluster_cuda_cpu.cu:744:19
	movslq	-44(%rbp), %rax
	.loc	3 744 23                        # ./streamcluster_cuda_cpu.cu:744:23
	movq	-8(%rbp), %rcx
	.loc	3 744 21                        # ./streamcluster_cuda_cpu.cu:744:21
	cmpq	(%rcx), %rax
.Ltmp484:
	.loc	3 744 3                         # ./streamcluster_cuda_cpu.cu:744:3
	jge	.LBB22_6
# %bb.4:                                # %for.body
                                        #   in Loop: Header=BB22_3 Depth=1
.Ltmp485:
	.loc	3 745 5 is_stmt 1               # ./streamcluster_cuda_cpu.cu:745:5
	movq	-40(%rbp), %rax
	.loc	3 745 17 is_stmt 0              # ./streamcluster_cuda_cpu.cu:745:17
	movq	-8(%rbp), %rcx
	.loc	3 745 26                        # ./streamcluster_cuda_cpu.cu:745:26
	movq	16(%rcx), %rcx
	.loc	3 745 17                        # ./streamcluster_cuda_cpu.cu:745:17
	movslq	-44(%rbp), %rdx
	shlq	$5, %rdx
	addq	%rdx, %rcx
	.loc	3 745 31                        # ./streamcluster_cuda_cpu.cu:745:31
	movq	16(%rcx), %rcx
	.loc	3 745 39                        # ./streamcluster_cuda_cpu.cu:745:39
	movl	$1, (%rax,%rcx,4)
.Ltmp486:
# %bb.5:                                # %for.inc
                                        #   in Loop: Header=BB22_3 Depth=1
	.loc	3 744 38 is_stmt 1              # ./streamcluster_cuda_cpu.cu:744:38
	movl	-44(%rbp), %eax
	addl	$1, %eax
	movl	%eax, -44(%rbp)
	.loc	3 744 3 is_stmt 0               # ./streamcluster_cuda_cpu.cu:744:3
	jmp	.LBB22_3
.Ltmp487:
.LBB22_6:                               # %for.end
	.loc	3 748 12 is_stmt 1              # ./streamcluster_cuda_cpu.cu:748:12
	movl	$0, -48(%rbp)
.LBB22_7:                               # %for.cond7
                                        # =>This Loop Header: Depth=1
                                        #     Child Loop BB22_10 Depth 2
.Ltmp488:
	.loc	3 748 19 is_stmt 0              # ./streamcluster_cuda_cpu.cu:748:19
	movslq	-48(%rbp), %rax
	.loc	3 748 23                        # ./streamcluster_cuda_cpu.cu:748:23
	movq	-8(%rbp), %rcx
	.loc	3 748 21                        # ./streamcluster_cuda_cpu.cu:748:21
	cmpq	(%rcx), %rax
.Ltmp489:
	.loc	3 748 3                         # ./streamcluster_cuda_cpu.cu:748:3
	jge	.LBB22_16
# %bb.8:                                # %for.body11
                                        #   in Loop: Header=BB22_7 Depth=1
.Ltmp490:
	.loc	3 749 9 is_stmt 1               # ./streamcluster_cuda_cpu.cu:749:9
	movq	-40(%rbp), %rax
	movslq	-48(%rbp), %rcx
	cmpl	$0, (%rax,%rcx,4)
.Ltmp491:
	.loc	3 749 9 is_stmt 0               # ./streamcluster_cuda_cpu.cu:749:9
	je	.LBB22_14
# %bb.9:                                # %if.then14
                                        #   in Loop: Header=BB22_7 Depth=1
.Ltmp492:
	.loc	3 750 15 is_stmt 1              # ./streamcluster_cuda_cpu.cu:750:15
	movq	-32(%rbp), %rdi
	.loc	3 750 27 is_stmt 0              # ./streamcluster_cuda_cpu.cu:750:27
	movq	-16(%rbp), %rax
	movslq	-48(%rbp), %rcx
	movq	(%rax,%rcx,8), %rdx
	.loc	3 750 7                         # ./streamcluster_cuda_cpu.cu:750:7
	leaq	.L.str.8(%rip), %rsi
	movb	$0, %al
	callq	fprintf@PLT
	.loc	3 751 15 is_stmt 1              # ./streamcluster_cuda_cpu.cu:751:15
	movq	-32(%rbp), %rdi
	.loc	3 751 28 is_stmt 0              # ./streamcluster_cuda_cpu.cu:751:28
	movq	-8(%rbp), %rax
	.loc	3 751 37                        # ./streamcluster_cuda_cpu.cu:751:37
	movq	16(%rax), %rax
	.loc	3 751 28                        # ./streamcluster_cuda_cpu.cu:751:28
	movslq	-48(%rbp), %rcx
	shlq	$5, %rcx
	addq	%rcx, %rax
	.loc	3 751 42                        # ./streamcluster_cuda_cpu.cu:751:42
	movss	(%rax), %xmm0                   # xmm0 = mem[0],zero,zero,zero
	.loc	3 751 28                        # ./streamcluster_cuda_cpu.cu:751:28
	cvtss2sd	%xmm0, %xmm0
	.loc	3 751 7                         # ./streamcluster_cuda_cpu.cu:751:7
	leaq	.L.str.9(%rip), %rsi
	movb	$1, %al
	callq	fprintf@PLT
.Ltmp493:
	.loc	3 752 16 is_stmt 1              # ./streamcluster_cuda_cpu.cu:752:16
	movl	$0, -52(%rbp)
.LBB22_10:                              # %for.cond23
                                        #   Parent Loop BB22_7 Depth=1
                                        # =>  This Inner Loop Header: Depth=2
.Ltmp494:
	.loc	3 752 23 is_stmt 0              # ./streamcluster_cuda_cpu.cu:752:23
	movl	-52(%rbp), %eax
	.loc	3 752 27                        # ./streamcluster_cuda_cpu.cu:752:27
	movq	-8(%rbp), %rcx
	.loc	3 752 25                        # ./streamcluster_cuda_cpu.cu:752:25
	cmpl	8(%rcx), %eax
.Ltmp495:
	.loc	3 752 7                         # ./streamcluster_cuda_cpu.cu:752:7
	jge	.LBB22_13
# %bb.11:                               # %for.body25
                                        #   in Loop: Header=BB22_10 Depth=2
.Ltmp496:
	.loc	3 753 17 is_stmt 1              # ./streamcluster_cuda_cpu.cu:753:17
	movq	-32(%rbp), %rdi
	.loc	3 753 29 is_stmt 0              # ./streamcluster_cuda_cpu.cu:753:29
	movq	-8(%rbp), %rax
	.loc	3 753 38                        # ./streamcluster_cuda_cpu.cu:753:38
	movq	16(%rax), %rax
	.loc	3 753 29                        # ./streamcluster_cuda_cpu.cu:753:29
	movslq	-48(%rbp), %rcx
	shlq	$5, %rcx
	addq	%rcx, %rax
	.loc	3 753 43                        # ./streamcluster_cuda_cpu.cu:753:43
	movq	8(%rax), %rax
	.loc	3 753 29                        # ./streamcluster_cuda_cpu.cu:753:29
	movslq	-52(%rbp), %rcx
	movss	(%rax,%rcx,4), %xmm0            # xmm0 = mem[0],zero,zero,zero
	cvtss2sd	%xmm0, %xmm0
	.loc	3 753 9                         # ./streamcluster_cuda_cpu.cu:753:9
	leaq	.L.str.10(%rip), %rsi
	movb	$1, %al
	callq	fprintf@PLT
.Ltmp497:
# %bb.12:                               # %for.inc33
                                        #   in Loop: Header=BB22_10 Depth=2
	.loc	3 752 42 is_stmt 1              # ./streamcluster_cuda_cpu.cu:752:42
	movl	-52(%rbp), %eax
	addl	$1, %eax
	movl	%eax, -52(%rbp)
	.loc	3 752 7 is_stmt 0               # ./streamcluster_cuda_cpu.cu:752:7
	jmp	.LBB22_10
.Ltmp498:
.LBB22_13:                              # %for.end35
                                        #   in Loop: Header=BB22_7 Depth=1
	.loc	3 755 15 is_stmt 1              # ./streamcluster_cuda_cpu.cu:755:15
	movq	-32(%rbp), %rdi
	.loc	3 755 7 is_stmt 0               # ./streamcluster_cuda_cpu.cu:755:7
	leaq	.L.str.11(%rip), %rsi
	movb	$0, %al
	callq	fprintf@PLT
.Ltmp499:
.LBB22_14:                              # %if.end37
                                        #   in Loop: Header=BB22_7 Depth=1
	.loc	3 757 3 is_stmt 1               # ./streamcluster_cuda_cpu.cu:757:3
	jmp	.LBB22_15
.Ltmp500:
.LBB22_15:                              # %for.inc38
                                        #   in Loop: Header=BB22_7 Depth=1
	.loc	3 748 38                        # ./streamcluster_cuda_cpu.cu:748:38
	movl	-48(%rbp), %eax
	addl	$1, %eax
	movl	%eax, -48(%rbp)
	.loc	3 748 3 is_stmt 0               # ./streamcluster_cuda_cpu.cu:748:3
	jmp	.LBB22_7
.Ltmp501:
.LBB22_16:                              # %for.end40
	.loc	3 758 10 is_stmt 1              # ./streamcluster_cuda_cpu.cu:758:10
	movq	-32(%rbp), %rdi
	.loc	3 758 3 is_stmt 0               # ./streamcluster_cuda_cpu.cu:758:3
	callq	fclose@PLT
	.loc	3 759 1 epilogue_begin is_stmt 1 # ./streamcluster_cuda_cpu.cu:759:1
	addq	$64, %rsp
	popq	%rbp
	.cfi_def_cfa %rsp, 8
	retq
.Ltmp502:
.Lfunc_end22:
	.size	_Z12outcenterIDsP6PointsPlPc, .Lfunc_end22-_Z12outcenterIDsP6PointsPlPc
	.cfi_endproc
                                        # -- End function
	.section	.rodata.cst4,"aM",@progbits,4
	.p2align	2, 0x0                          # -- Begin function _Z13streamClusterP7PStreamllillPc
.LCPI23_0:
	.long	0x3f800000                      # float 1
	.text
	.globl	_Z13streamClusterP7PStreamllillPc
	.p2align	4, 0x90
	.type	_Z13streamClusterP7PStreamllillPc,@function
_Z13streamClusterP7PStreamllillPc:      # @_Z13streamClusterP7PStreamllillPc
.Lfunc_begin23:
	.loc	3 762 0                         # ./streamcluster_cuda_cpu.cu:762:0
	.cfi_startproc
# %bb.0:                                # %entry
	pushq	%rbp
	.cfi_def_cfa_offset 16
	.cfi_offset %rbp, -16
	movq	%rsp, %rbp
	.cfi_def_cfa_register %rbp
	subq	$176, %rsp
	movq	16(%rbp), %rax
	movq	%rdi, -8(%rbp)
	movq	%rsi, -16(%rbp)
	movq	%rdx, -24(%rbp)
	movl	%ecx, -28(%rbp)
	movq	%r8, -40(%rbp)
	movq	%r9, -48(%rbp)
.Ltmp503:
	.loc	3 763 34 prologue_end           # ./streamcluster_cuda_cpu.cu:763:34
	movq	-40(%rbp), %rdi
	.loc	3 763 46 is_stmt 0              # ./streamcluster_cuda_cpu.cu:763:46
	movslq	-28(%rbp), %rax
	.loc	3 763 44                        # ./streamcluster_cuda_cpu.cu:763:44
	imulq	%rax, %rdi
	.loc	3 763 50                        # ./streamcluster_cuda_cpu.cu:763:50
	shlq	$2, %rdi
	.loc	3 763 27                        # ./streamcluster_cuda_cpu.cu:763:27
	callq	malloc@PLT
	.loc	3 763 10                        # ./streamcluster_cuda_cpu.cu:763:10
	movq	%rax, -56(%rbp)
	.loc	3 764 40 is_stmt 1              # ./streamcluster_cuda_cpu.cu:764:40
	movq	-48(%rbp), %rdi
	.loc	3 764 53 is_stmt 0              # ./streamcluster_cuda_cpu.cu:764:53
	movslq	-28(%rbp), %rax
	.loc	3 764 51                        # ./streamcluster_cuda_cpu.cu:764:51
	imulq	%rax, %rdi
	.loc	3 764 57                        # ./streamcluster_cuda_cpu.cu:764:57
	shlq	$2, %rdi
	.loc	3 764 33                        # ./streamcluster_cuda_cpu.cu:764:33
	callq	malloc@PLT
	.loc	3 764 10                        # ./streamcluster_cuda_cpu.cu:764:10
	movq	%rax, -64(%rbp)
	.loc	3 765 36 is_stmt 1              # ./streamcluster_cuda_cpu.cu:765:36
	movq	-48(%rbp), %rdi
	.loc	3 765 49 is_stmt 0              # ./streamcluster_cuda_cpu.cu:765:49
	movslq	-28(%rbp), %rax
	.loc	3 765 47                        # ./streamcluster_cuda_cpu.cu:765:47
	imulq	%rax, %rdi
	.loc	3 765 53                        # ./streamcluster_cuda_cpu.cu:765:53
	shlq	$3, %rdi
	.loc	3 765 29                        # ./streamcluster_cuda_cpu.cu:765:29
	callq	malloc@PLT
