; ModuleID = 'sfilter-cuda-nvptx64-nvidia-cuda-sm_50.bc'
source_filename = "./sfilter.cu"
target datalayout = "e-m:e-p:64:64-i64:64-i128:128-n32:64-S128"
target triple = "riscv64-unknown-unknown-elf"

%printf_args = type { i32 }

@.str = private unnamed_addr constant [15 x i8] c"blockidx.y= %d\00", align 1, !dbg !0
@block_size_x = external local_unnamed_addr global i32
@block_size_y = external local_unnamed_addr global i32
@__warps_per_group = external local_unnamed_addr global i32
@block_index_x = external dso_local thread_local global i32
@block_index_y = external dso_local thread_local global i32
@thread_id_x = external dso_local thread_local global i32
@thread_id_y = external dso_local thread_local global i32
@__local_group_id = external dso_local thread_local local_unnamed_addr global i32

; Function Attrs: convergent mustprogress noinline norecurse nounwind optnone
define dso_local void @_Z14sfilter_kernelPKfPfifffffffff(ptr noalias noundef %src, ptr noalias noundef %dst, i32 noundef %ldc, float noundef %m0, float noundef %m1, float noundef %m2, float noundef %m3, float noundef %m4, float noundef %m5, float noundef %m6, float noundef %m7, float noundef %m8) local_unnamed_addr #0 {
entry:
  %0 = load i32, ptr @__local_group_id, align 4
  %1 = load i32, ptr @__warps_per_group, align 4
  tail call void @vx_barrier(i32 %0, i32 %1) #4, !divergence !1402
  tail call void @llvm.dbg.value(metadata ptr %src, metadata !1403, metadata !DIExpression()), !dbg !1412
  tail call void @llvm.dbg.value(metadata ptr %dst, metadata !1413, metadata !DIExpression()), !dbg !1412
  tail call void @llvm.dbg.value(metadata i32 %ldc, metadata !1414, metadata !DIExpression()), !dbg !1412
  tail call void @llvm.dbg.value(metadata float %m0, metadata !1415, metadata !DIExpression()), !dbg !1412
  tail call void @llvm.dbg.value(metadata float %m1, metadata !1416, metadata !DIExpression()), !dbg !1412
  tail call void @llvm.dbg.value(metadata float %m2, metadata !1417, metadata !DIExpression()), !dbg !1412
  tail call void @llvm.dbg.value(metadata float %m3, metadata !1418, metadata !DIExpression()), !dbg !1412
  tail call void @llvm.dbg.value(metadata float %m4, metadata !1419, metadata !DIExpression()), !dbg !1412
  tail call void @llvm.dbg.value(metadata float %m5, metadata !1420, metadata !DIExpression()), !dbg !1412
  tail call void @llvm.dbg.value(metadata float %m6, metadata !1421, metadata !DIExpression()), !dbg !1412
  tail call void @llvm.dbg.value(metadata float %m7, metadata !1422, metadata !DIExpression()), !dbg !1412
  tail call void @llvm.dbg.value(metadata float %m8, metadata !1423, metadata !DIExpression()), !dbg !1412
  %sub = add nsw i32 %ldc, -2, !dbg !1424
  tail call void @llvm.dbg.value(metadata i32 %sub, metadata !1425, metadata !DIExpression()), !dbg !1412
  tail call void @llvm.dbg.value(metadata i32 %sub, metadata !1427, metadata !DIExpression()), !dbg !1412
  %2 = tail call ptr @llvm.threadlocal.address.p0(ptr @block_index_x), !dbg !1428
  %3 = load i32, ptr %2, align 4, !dbg !1428
  %4 = load i32, ptr @block_size_x, align 4, !dbg !1431
  %mul = mul i32 %4, %3, !dbg !1434
  %5 = tail call ptr @llvm.threadlocal.address.p0(ptr @thread_id_x), !dbg !1435
  %tidx = load i32, ptr %5, align 4, !dbg !1435, !divergence !1402
  %add = add i32 %mul, %tidx, !dbg !1438
  tail call void @llvm.dbg.value(metadata i32 %add, metadata !1439, metadata !DIExpression()), !dbg !1412
  %6 = tail call ptr @llvm.threadlocal.address.p0(ptr @block_index_y), !dbg !1440
  %7 = load i32, ptr %6, align 4, !dbg !1440
  %8 = load i32, ptr @block_size_y, align 4, !dbg !1443
  %mul6 = mul i32 %8, %7, !dbg !1446
  %9 = tail call ptr @llvm.threadlocal.address.p0(ptr @thread_id_y), !dbg !1447
  %tidy = load i32, ptr %9, align 4, !dbg !1447, !divergence !1402
  %add8 = add i32 %mul6, %tidy, !dbg !1450
  tail call void @llvm.dbg.value(metadata i32 %add8, metadata !1451, metadata !DIExpression()), !dbg !1412
  tail call void @llvm.dbg.value(metadata i32 poison, metadata !1452, metadata !DIExpression()), !dbg !1412
  %add10 = add nsw i32 %add8, 1, !dbg !1453
  tail call void @llvm.dbg.value(metadata i32 %add10, metadata !1454, metadata !DIExpression()), !dbg !1412
  %mul11 = mul nsw i32 %add10, %ldc, !dbg !1455
  %add9 = add i32 %mul11, %add, !dbg !1456
  %add12 = add i32 %add9, 1, !dbg !1457
  tail call void @llvm.dbg.value(metadata i32 %add12, metadata !1458, metadata !DIExpression()), !dbg !1412
  %cmp = icmp eq i32 %add, 0, !dbg !1459
  br i1 %cmp, label %if.then, label %if.end, !dbg !1461

if.then:                                          ; preds = %entry
  %.fca.0.insert = insertvalue %printf_args poison, i32 %7, 0
  %10 = tail call i32 (ptr, ...) @vx_printf(ptr nonnull @.str, %printf_args %.fca.0.insert) #4
  br label %if.end, !dbg !1462

if.end:                                           ; preds = %if.then, %entry
  %cmp14.not = icmp slt i32 %add, %sub, !dbg !1464
  %cmp15.not = icmp slt i32 %add8, %sub
  %or.cond = select i1 %cmp14.not, i1 %cmp15.not, i1 false, !dbg !1466
  br i1 %or.cond, label %if.end17, label %return, !dbg !1466

if.end17:                                         ; preds = %if.end
  %sub20 = sub nsw i32 %add9, %ldc, !dbg !1467
  %idxprom = sext i32 %sub20 to i64, !dbg !1468
  %arrayidx = getelementptr inbounds float, ptr %src, i64 %idxprom, !dbg !1468
  %11 = load float, ptr %arrayidx, align 4, !dbg !1468
  %mul21 = fmul contract float %11, %m0, !dbg !1469
  tail call void @llvm.dbg.value(metadata float %mul21, metadata !1470, metadata !DIExpression()), !dbg !1412
  %sub24 = sub nsw i32 %add12, %ldc, !dbg !1471
  %idxprom25 = sext i32 %sub24 to i64, !dbg !1472
  %arrayidx26 = getelementptr inbounds float, ptr %src, i64 %idxprom25, !dbg !1472
  %12 = load float, ptr %arrayidx26, align 4, !dbg !1472
  %mul27 = fmul contract float %12, %m1, !dbg !1473
  tail call void @llvm.dbg.value(metadata float %mul27, metadata !1474, metadata !DIExpression()), !dbg !1412
  %add28 = add i32 %add9, 2, !dbg !1475
  %sub30 = sub nsw i32 %add28, %ldc, !dbg !1476
  %idxprom31 = sext i32 %sub30 to i64, !dbg !1477
  %arrayidx32 = getelementptr inbounds float, ptr %src, i64 %idxprom31, !dbg !1477
  %13 = load float, ptr %arrayidx32, align 4, !dbg !1477
  %mul33 = fmul contract float %13, %m2, !dbg !1478
  tail call void @llvm.dbg.value(metadata float %mul33, metadata !1479, metadata !DIExpression()), !dbg !1412
  %idxprom37 = sext i32 %add9 to i64, !dbg !1480
  %arrayidx38 = getelementptr inbounds float, ptr %src, i64 %idxprom37, !dbg !1480
  %14 = load float, ptr %arrayidx38, align 4, !dbg !1480
  %mul39 = fmul contract float %14, %m3, !dbg !1481
  tail call void @llvm.dbg.value(metadata float %mul39, metadata !1482, metadata !DIExpression()), !dbg !1412
  %idxprom43 = sext i32 %add12 to i64, !dbg !1483
  %arrayidx44 = getelementptr inbounds float, ptr %src, i64 %idxprom43, !dbg !1483
  %15 = load float, ptr %arrayidx44, align 4, !dbg !1483
  %mul45 = fmul contract float %15, %m4, !dbg !1484
  tail call void @llvm.dbg.value(metadata float %mul45, metadata !1485, metadata !DIExpression()), !dbg !1412
  %idxprom49 = sext i32 %add28 to i64, !dbg !1486
  %arrayidx50 = getelementptr inbounds float, ptr %src, i64 %idxprom49, !dbg !1486
  %16 = load float, ptr %arrayidx50, align 4, !dbg !1486
  %mul51 = fmul contract float %16, %m5, !dbg !1487
  tail call void @llvm.dbg.value(metadata float %mul51, metadata !1488, metadata !DIExpression()), !dbg !1412
  %add54 = add nsw i32 %add9, %ldc, !dbg !1489
  %idxprom55 = sext i32 %add54 to i64, !dbg !1490
  %arrayidx56 = getelementptr inbounds float, ptr %src, i64 %idxprom55, !dbg !1490
  %17 = load float, ptr %arrayidx56, align 4, !dbg !1490
  %mul57 = fmul contract float %17, %m6, !dbg !1491
  tail call void @llvm.dbg.value(metadata float %mul57, metadata !1492, metadata !DIExpression()), !dbg !1412
  %add60 = add nsw i32 %add12, %ldc, !dbg !1493
  %idxprom61 = sext i32 %add60 to i64, !dbg !1494
  %arrayidx62 = getelementptr inbounds float, ptr %src, i64 %idxprom61, !dbg !1494
  %18 = load float, ptr %arrayidx62, align 4, !dbg !1494
  %mul63 = fmul contract float %18, %m7, !dbg !1495
  tail call void @llvm.dbg.value(metadata float %mul63, metadata !1496, metadata !DIExpression()), !dbg !1412
  %add66 = add nsw i32 %add28, %ldc, !dbg !1497
  %idxprom67 = sext i32 %add66 to i64, !dbg !1498
  %arrayidx68 = getelementptr inbounds float, ptr %src, i64 %idxprom67, !dbg !1498
  %19 = load float, ptr %arrayidx68, align 4, !dbg !1498
  %mul69 = fmul contract float %19, %m8, !dbg !1499
  tail call void @llvm.dbg.value(metadata float %mul69, metadata !1500, metadata !DIExpression()), !dbg !1412
  %add70 = fadd contract float %mul21, %mul27, !dbg !1501
  %add71 = fadd contract float %add70, %mul33, !dbg !1502
  %add72 = fadd contract float %add71, %mul39, !dbg !1503
  %add73 = fadd contract float %add72, %mul45, !dbg !1504
  %add74 = fadd contract float %add73, %mul51, !dbg !1505
  %add75 = fadd contract float %add74, %mul57, !dbg !1506
  %add76 = fadd contract float %add75, %mul63, !dbg !1507
  %add77 = fadd contract float %add76, %mul69, !dbg !1508
  %arrayidx79 = getelementptr inbounds float, ptr %dst, i64 %idxprom43, !dbg !1509
  store float %add77, ptr %arrayidx79, align 4, !dbg !1510
  br label %return, !dbg !1511

return:                                           ; preds = %if.end, %if.end17
  %20 = load i32, ptr @__local_group_id, align 4
  %21 = load i32, ptr @__warps_per_group, align 4
  tail call void @vx_barrier(i32 %20, i32 %21) #4, !divergence !1402
  ret void, !dbg !1511
}

declare void @vx_barrier(i32, i32) local_unnamed_addr

; Function Attrs: mustprogress nocallback nofree nosync nounwind speculatable willreturn memory(none)
declare nonnull ptr @llvm.threadlocal.address.p0(ptr noalias nonnull) #1

declare i32 @vx_printf(ptr noalias, ...) local_unnamed_addr

; Function Attrs: norecurse nounwind
define void @sfilter_kernelPKfPfifffffffff_wrapper(ptr noalias nocapture readonly %0) local_unnamed_addr #2 {
  %2 = load ptr, ptr %0, align 8
  %3 = getelementptr ptr, ptr %0, i64 1
  %4 = load ptr, ptr %3, align 8
  %5 = getelementptr ptr, ptr %0, i64 2
  %6 = load i32, ptr %5, align 4
  %7 = getelementptr ptr, ptr %0, i64 3
  %8 = load float, ptr %7, align 4
  %9 = getelementptr ptr, ptr %0, i64 4
  %10 = load float, ptr %9, align 4
  %11 = getelementptr ptr, ptr %0, i64 5
  %12 = load float, ptr %11, align 4
  %13 = getelementptr ptr, ptr %0, i64 6
  %14 = load float, ptr %13, align 4
  %15 = getelementptr ptr, ptr %0, i64 7
  %16 = load float, ptr %15, align 4
  %17 = getelementptr ptr, ptr %0, i64 8
  %18 = load float, ptr %17, align 4
  %19 = getelementptr ptr, ptr %0, i64 9
  %20 = load float, ptr %19, align 4
  %21 = getelementptr ptr, ptr %0, i64 10
  %22 = load float, ptr %21, align 4
  %23 = getelementptr ptr, ptr %0, i64 11
  %24 = load float, ptr %23, align 4
  tail call void @_Z14sfilter_kernelPKfPfifffffffff(ptr %2, ptr %4, i32 %6, float %8, float %10, float %12, float %14, float %16, float %18, float %20, float %22, float %24)
  ret void
}

; Function Attrs: nocallback nofree nosync nounwind speculatable willreturn memory(none)
declare void @llvm.dbg.value(metadata, metadata, metadata) #3

attributes #0 = { convergent mustprogress noinline norecurse nounwind optnone "frame-pointer"="all" "no-trapping-math"="true" "stack-protector-buffer-size"="8" "uniform-work-group-size"="true" }
attributes #1 = { mustprogress nocallback nofree nosync nounwind speculatable willreturn memory(none) }
attributes #2 = { norecurse nounwind }
attributes #3 = { nocallback nofree nosync nounwind speculatable willreturn memory(none) }
attributes #4 = { nounwind }

!llvm.module.flags = !{!8, !9, !10, !11, !12, !13}
!llvm.dbg.cu = !{!14}
!nvvm.annotations = !{!1398}
!llvm.ident = !{!1399, !1400}
!nvvmir.version = !{!1401}

!0 = !DIGlobalVariableExpression(var: !1, expr: !DIExpression())
!1 = distinct !DIGlobalVariable(scope: null, file: !2, line: 153, type: !3, isLocal: true, isDefinition: true)
!2 = !DIFile(filename: "./sfilter.cu", directory: "/nethome/cahn45/CuPBoP/examples/sfilter")
!3 = !DICompositeType(tag: DW_TAG_array_type, baseType: !4, size: 120, elements: !6)
!4 = !DIDerivedType(tag: DW_TAG_const_type, baseType: !5)
!5 = !DIBasicType(name: "char", size: 8, encoding: DW_ATE_signed_char)
!6 = !{!7}
!7 = !DISubrange(count: 15)
!8 = !{i32 2, !"SDK Version", [2 x i32] [i32 12, i32 1]}
!9 = !{i32 7, !"Dwarf Version", i32 2}
!10 = !{i32 2, !"Debug Info Version", i32 3}
!11 = !{i32 1, !"wchar_size", i32 4}
!12 = !{i32 4, !"nvvm-reflect-ftz", i32 0}
!13 = !{i32 7, !"frame-pointer", i32 2}
!14 = distinct !DICompileUnit(language: DW_LANG_C_plus_plus_11, file: !15, producer: "clang version 18.1.7 (https://github.com/vortexgpgpu/llvm.git a5ebf7f2c1f246a5e3a081a4fd1576247e574b30)", isOptimized: false, runtimeVersion: 0, emissionKind: FullDebug, enums: !16, retainedTypes: !41, globals: !161, imports: !162, splitDebugInlining: false, nameTableKind: None)
!15 = !DIFile(filename: "sfilter.cu", directory: "/nethome/cahn45/CuPBoP/examples/sfilter")
!16 = !{!17}
!17 = !DICompositeType(tag: DW_TAG_enumeration_type, name: "sm_selector", scope: !19, file: !18, line: 88, baseType: !22, size: 64, flags: DIFlagEnumClass, elements: !24, identifier: "_ZTSN2nv6target6detail11sm_selectorE")
!18 = !DIFile(filename: "cuda-12.1/include/nv/target", directory: "/nethome/cahn45/CuPBoP")
!19 = !DINamespace(name: "detail", scope: !20)
!20 = !DINamespace(name: "target", scope: !21)
!21 = !DINamespace(name: "nv", scope: null)
!22 = !DIDerivedType(tag: DW_TAG_typedef, name: "base_int_t", scope: !19, file: !18, line: 50, baseType: !23)
!23 = !DIBasicType(name: "unsigned long long", size: 64, encoding: DW_ATE_unsigned)
!24 = !{!25, !26, !27, !28, !29, !30, !31, !32, !33, !34, !35, !36, !37, !38, !39, !40}
!25 = !DIEnumerator(name: "sm_35", value: 35, isUnsigned: true)
!26 = !DIEnumerator(name: "sm_37", value: 37, isUnsigned: true)
!27 = !DIEnumerator(name: "sm_50", value: 50, isUnsigned: true)
!28 = !DIEnumerator(name: "sm_52", value: 52, isUnsigned: true)
!29 = !DIEnumerator(name: "sm_53", value: 53, isUnsigned: true)
!30 = !DIEnumerator(name: "sm_60", value: 60, isUnsigned: true)
!31 = !DIEnumerator(name: "sm_61", value: 61, isUnsigned: true)
!32 = !DIEnumerator(name: "sm_62", value: 62, isUnsigned: true)
!33 = !DIEnumerator(name: "sm_70", value: 70, isUnsigned: true)
!34 = !DIEnumerator(name: "sm_72", value: 72, isUnsigned: true)
!35 = !DIEnumerator(name: "sm_75", value: 75, isUnsigned: true)
!36 = !DIEnumerator(name: "sm_80", value: 80, isUnsigned: true)
!37 = !DIEnumerator(name: "sm_86", value: 86, isUnsigned: true)
!38 = !DIEnumerator(name: "sm_87", value: 87, isUnsigned: true)
!39 = !DIEnumerator(name: "sm_89", value: 89, isUnsigned: true)
!40 = !DIEnumerator(name: "sm_90", value: 90, isUnsigned: true)
!41 = !{!42, !49, !74, !105, !133}
!42 = distinct !DICompositeType(tag: DW_TAG_structure_type, name: "target_description", scope: !19, file: !18, line: 81, size: 64, flags: DIFlagTypePassByValue | DIFlagNonTrivial, elements: !43, identifier: "_ZTSN2nv6target6detail18target_descriptionE")
!43 = !{!44, !45}
!44 = !DIDerivedType(tag: DW_TAG_member, name: "targets", scope: !42, file: !18, line: 82, baseType: !22, size: 64)
!45 = !DISubprogram(name: "target_description", scope: !42, file: !18, line: 84, type: !46, scopeLine: 84, flags: DIFlagPrototyped, spFlags: 0)
!46 = !DISubroutineType(types: !47)
!47 = !{null, !48, !22}
!48 = !DIDerivedType(tag: DW_TAG_pointer_type, baseType: !42, size: 64, flags: DIFlagArtificial | DIFlagObjectPointer)
!49 = distinct !DICompositeType(tag: DW_TAG_structure_type, name: "dim3", file: !50, line: 418, size: 96, flags: DIFlagTypePassByValue | DIFlagNonTrivial, elements: !51, identifier: "_ZTS4dim3")
!50 = !DIFile(filename: "cuda-12.1/include/vector_types.h", directory: "/nethome/cahn45/CuPBoP")
!51 = !{!52, !54, !55, !56, !60, !69}
!52 = !DIDerivedType(tag: DW_TAG_member, name: "x", scope: !49, file: !50, line: 420, baseType: !53, size: 32)
!53 = !DIBasicType(name: "unsigned int", size: 32, encoding: DW_ATE_unsigned)
!54 = !DIDerivedType(tag: DW_TAG_member, name: "y", scope: !49, file: !50, line: 420, baseType: !53, size: 32, offset: 32)
!55 = !DIDerivedType(tag: DW_TAG_member, name: "z", scope: !49, file: !50, line: 420, baseType: !53, size: 32, offset: 64)
!56 = !DISubprogram(name: "dim3", scope: !49, file: !50, line: 423, type: !57, scopeLine: 423, flags: DIFlagPrototyped, spFlags: 0)
!57 = !DISubroutineType(types: !58)
!58 = !{null, !59, !53, !53, !53}
!59 = !DIDerivedType(tag: DW_TAG_pointer_type, baseType: !49, size: 64, flags: DIFlagArtificial | DIFlagObjectPointer)
!60 = !DISubprogram(name: "dim3", scope: !49, file: !50, line: 424, type: !61, scopeLine: 424, flags: DIFlagPrototyped, spFlags: 0)
!61 = !DISubroutineType(types: !62)
!62 = !{null, !59, !63}
!63 = !DIDerivedType(tag: DW_TAG_typedef, name: "uint3", file: !50, line: 384, baseType: !64)
!64 = distinct !DICompositeType(tag: DW_TAG_structure_type, name: "uint3", file: !50, line: 192, size: 96, flags: DIFlagTypePassByValue, elements: !65, identifier: "_ZTS5uint3")
!65 = !{!66, !67, !68}
!66 = !DIDerivedType(tag: DW_TAG_member, name: "x", scope: !64, file: !50, line: 194, baseType: !53, size: 32)
!67 = !DIDerivedType(tag: DW_TAG_member, name: "y", scope: !64, file: !50, line: 194, baseType: !53, size: 32, offset: 32)
!68 = !DIDerivedType(tag: DW_TAG_member, name: "z", scope: !64, file: !50, line: 194, baseType: !53, size: 32, offset: 64)
!69 = !DISubprogram(name: "operator uint3", linkageName: "_ZNK4dim3cv5uint3Ev", scope: !49, file: !50, line: 425, type: !70, scopeLine: 425, flags: DIFlagPrototyped, spFlags: 0)
!70 = !DISubroutineType(types: !71)
!71 = !{!63, !72}
!72 = !DIDerivedType(tag: DW_TAG_pointer_type, baseType: !73, size: 64, flags: DIFlagArtificial | DIFlagObjectPointer)
!73 = !DIDerivedType(tag: DW_TAG_const_type, baseType: !49)
!74 = distinct !DICompositeType(tag: DW_TAG_structure_type, name: "__cuda_builtin_blockIdx_t", file: !75, line: 65, size: 8, flags: DIFlagTypePassByReference, elements: !76, identifier: "_ZTS25__cuda_builtin_blockIdx_t")
!75 = !DIFile(filename: "llvm-vortex-with-cuda-build/lib/clang/18/include/__clang_cuda_builtin_vars.h", directory: "/nethome/cahn45")
!76 = !{!77, !80, !81, !82, !87, !90, !94, !98, !101}
!77 = !DISubprogram(name: "__fetch_builtin_x", linkageName: "_ZN25__cuda_builtin_blockIdx_t17__fetch_builtin_xEv", scope: !74, file: !75, line: 66, type: !78, scopeLine: 66, flags: DIFlagPrototyped | DIFlagStaticMember, spFlags: 0)
!78 = !DISubroutineType(types: !79)
!79 = !{!53}
!80 = !DISubprogram(name: "__fetch_builtin_y", linkageName: "_ZN25__cuda_builtin_blockIdx_t17__fetch_builtin_yEv", scope: !74, file: !75, line: 67, type: !78, scopeLine: 67, flags: DIFlagPrototyped | DIFlagStaticMember, spFlags: 0)
!81 = !DISubprogram(name: "__fetch_builtin_z", linkageName: "_ZN25__cuda_builtin_blockIdx_t17__fetch_builtin_zEv", scope: !74, file: !75, line: 68, type: !78, scopeLine: 68, flags: DIFlagPrototyped | DIFlagStaticMember, spFlags: 0)
!82 = !DISubprogram(name: "operator dim3", linkageName: "_ZNK25__cuda_builtin_blockIdx_tcv4dim3Ev", scope: !74, file: !75, line: 71, type: !83, scopeLine: 71, flags: DIFlagPrototyped, spFlags: 0)
!83 = !DISubroutineType(types: !84)
!84 = !{!49, !85}
!85 = !DIDerivedType(tag: DW_TAG_pointer_type, baseType: !86, size: 64, flags: DIFlagArtificial | DIFlagObjectPointer)
!86 = !DIDerivedType(tag: DW_TAG_const_type, baseType: !74)
!87 = !DISubprogram(name: "operator uint3", linkageName: "_ZNK25__cuda_builtin_blockIdx_tcv5uint3Ev", scope: !74, file: !75, line: 72, type: !88, scopeLine: 72, flags: DIFlagPrototyped, spFlags: 0)
!88 = !DISubroutineType(types: !89)
!89 = !{!64, !85}
!90 = !DISubprogram(name: "__cuda_builtin_blockIdx_t", scope: !74, file: !75, line: 75, type: !91, scopeLine: 75, flags: DIFlagPrivate | DIFlagPrototyped, spFlags: DISPFlagDeleted)
!91 = !DISubroutineType(types: !92)
!92 = !{null, !93}
!93 = !DIDerivedType(tag: DW_TAG_pointer_type, baseType: !74, size: 64, flags: DIFlagArtificial | DIFlagObjectPointer)
!94 = !DISubprogram(name: "__cuda_builtin_blockIdx_t", scope: !74, file: !75, line: 75, type: !95, scopeLine: 75, flags: DIFlagPrivate | DIFlagPrototyped, spFlags: DISPFlagDeleted)
!95 = !DISubroutineType(types: !96)
!96 = !{null, !93, !97}
!97 = !DIDerivedType(tag: DW_TAG_reference_type, baseType: !86, size: 64)
!98 = !DISubprogram(name: "operator=", linkageName: "_ZNK25__cuda_builtin_blockIdx_taSERKS_", scope: !74, file: !75, line: 75, type: !99, scopeLine: 75, flags: DIFlagPrivate | DIFlagPrototyped, spFlags: DISPFlagDeleted)
!99 = !DISubroutineType(types: !100)
!100 = !{null, !85, !97}
!101 = !DISubprogram(name: "operator&", linkageName: "_ZNK25__cuda_builtin_blockIdx_tadEv", scope: !74, file: !75, line: 75, type: !102, scopeLine: 75, flags: DIFlagPrivate | DIFlagPrototyped, spFlags: DISPFlagDeleted)
!102 = !DISubroutineType(types: !103)
!103 = !{!104, !85}
!104 = !DIDerivedType(tag: DW_TAG_pointer_type, baseType: !74, size: 64)
!105 = distinct !DICompositeType(tag: DW_TAG_structure_type, name: "__cuda_builtin_blockDim_t", file: !75, line: 78, size: 8, flags: DIFlagTypePassByReference, elements: !106, identifier: "_ZTS25__cuda_builtin_blockDim_t")
!106 = !{!107, !108, !109, !110, !115, !118, !122, !126, !129}
!107 = !DISubprogram(name: "__fetch_builtin_x", linkageName: "_ZN25__cuda_builtin_blockDim_t17__fetch_builtin_xEv", scope: !105, file: !75, line: 79, type: !78, scopeLine: 79, flags: DIFlagPrototyped | DIFlagStaticMember, spFlags: 0)
!108 = !DISubprogram(name: "__fetch_builtin_y", linkageName: "_ZN25__cuda_builtin_blockDim_t17__fetch_builtin_yEv", scope: !105, file: !75, line: 80, type: !78, scopeLine: 80, flags: DIFlagPrototyped | DIFlagStaticMember, spFlags: 0)
!109 = !DISubprogram(name: "__fetch_builtin_z", linkageName: "_ZN25__cuda_builtin_blockDim_t17__fetch_builtin_zEv", scope: !105, file: !75, line: 81, type: !78, scopeLine: 81, flags: DIFlagPrototyped | DIFlagStaticMember, spFlags: 0)
!110 = !DISubprogram(name: "operator dim3", linkageName: "_ZNK25__cuda_builtin_blockDim_tcv4dim3Ev", scope: !105, file: !75, line: 84, type: !111, scopeLine: 84, flags: DIFlagPrototyped, spFlags: 0)
!111 = !DISubroutineType(types: !112)
!112 = !{!49, !113}
!113 = !DIDerivedType(tag: DW_TAG_pointer_type, baseType: !114, size: 64, flags: DIFlagArtificial | DIFlagObjectPointer)
!114 = !DIDerivedType(tag: DW_TAG_const_type, baseType: !105)
!115 = !DISubprogram(name: "operator uint3", linkageName: "_ZNK25__cuda_builtin_blockDim_tcv5uint3Ev", scope: !105, file: !75, line: 85, type: !116, scopeLine: 85, flags: DIFlagPrototyped, spFlags: 0)
!116 = !DISubroutineType(types: !117)
!117 = !{!64, !113}
!118 = !DISubprogram(name: "__cuda_builtin_blockDim_t", scope: !105, file: !75, line: 88, type: !119, scopeLine: 88, flags: DIFlagPrivate | DIFlagPrototyped, spFlags: DISPFlagDeleted)
!119 = !DISubroutineType(types: !120)
!120 = !{null, !121}
!121 = !DIDerivedType(tag: DW_TAG_pointer_type, baseType: !105, size: 64, flags: DIFlagArtificial | DIFlagObjectPointer)
!122 = !DISubprogram(name: "__cuda_builtin_blockDim_t", scope: !105, file: !75, line: 88, type: !123, scopeLine: 88, flags: DIFlagPrivate | DIFlagPrototyped, spFlags: DISPFlagDeleted)
!123 = !DISubroutineType(types: !124)
!124 = !{null, !121, !125}
!125 = !DIDerivedType(tag: DW_TAG_reference_type, baseType: !114, size: 64)
!126 = !DISubprogram(name: "operator=", linkageName: "_ZNK25__cuda_builtin_blockDim_taSERKS_", scope: !105, file: !75, line: 88, type: !127, scopeLine: 88, flags: DIFlagPrivate | DIFlagPrototyped, spFlags: DISPFlagDeleted)
!127 = !DISubroutineType(types: !128)
!128 = !{null, !113, !125}
!129 = !DISubprogram(name: "operator&", linkageName: "_ZNK25__cuda_builtin_blockDim_tadEv", scope: !105, file: !75, line: 88, type: !130, scopeLine: 88, flags: DIFlagPrivate | DIFlagPrototyped, spFlags: DISPFlagDeleted)
!130 = !DISubroutineType(types: !131)
!131 = !{!132, !113}
!132 = !DIDerivedType(tag: DW_TAG_pointer_type, baseType: !105, size: 64)
!133 = distinct !DICompositeType(tag: DW_TAG_structure_type, name: "__cuda_builtin_threadIdx_t", file: !75, line: 52, size: 8, flags: DIFlagTypePassByReference, elements: !134, identifier: "_ZTS26__cuda_builtin_threadIdx_t")
!134 = !{!135, !136, !137, !138, !143, !146, !150, !154, !157}
!135 = !DISubprogram(name: "__fetch_builtin_x", linkageName: "_ZN26__cuda_builtin_threadIdx_t17__fetch_builtin_xEv", scope: !133, file: !75, line: 53, type: !78, scopeLine: 53, flags: DIFlagPrototyped | DIFlagStaticMember, spFlags: 0)
!136 = !DISubprogram(name: "__fetch_builtin_y", linkageName: "_ZN26__cuda_builtin_threadIdx_t17__fetch_builtin_yEv", scope: !133, file: !75, line: 54, type: !78, scopeLine: 54, flags: DIFlagPrototyped | DIFlagStaticMember, spFlags: 0)
!137 = !DISubprogram(name: "__fetch_builtin_z", linkageName: "_ZN26__cuda_builtin_threadIdx_t17__fetch_builtin_zEv", scope: !133, file: !75, line: 55, type: !78, scopeLine: 55, flags: DIFlagPrototyped | DIFlagStaticMember, spFlags: 0)
!138 = !DISubprogram(name: "operator dim3", linkageName: "_ZNK26__cuda_builtin_threadIdx_tcv4dim3Ev", scope: !133, file: !75, line: 58, type: !139, scopeLine: 58, flags: DIFlagPrototyped, spFlags: 0)
!139 = !DISubroutineType(types: !140)
!140 = !{!49, !141}
!141 = !DIDerivedType(tag: DW_TAG_pointer_type, baseType: !142, size: 64, flags: DIFlagArtificial | DIFlagObjectPointer)
!142 = !DIDerivedType(tag: DW_TAG_const_type, baseType: !133)
!143 = !DISubprogram(name: "operator uint3", linkageName: "_ZNK26__cuda_builtin_threadIdx_tcv5uint3Ev", scope: !133, file: !75, line: 59, type: !144, scopeLine: 59, flags: DIFlagPrototyped, spFlags: 0)
!144 = !DISubroutineType(types: !145)
!145 = !{!64, !141}
!146 = !DISubprogram(name: "__cuda_builtin_threadIdx_t", scope: !133, file: !75, line: 62, type: !147, scopeLine: 62, flags: DIFlagPrivate | DIFlagPrototyped, spFlags: DISPFlagDeleted)
!147 = !DISubroutineType(types: !148)
!148 = !{null, !149}
!149 = !DIDerivedType(tag: DW_TAG_pointer_type, baseType: !133, size: 64, flags: DIFlagArtificial | DIFlagObjectPointer)
!150 = !DISubprogram(name: "__cuda_builtin_threadIdx_t", scope: !133, file: !75, line: 62, type: !151, scopeLine: 62, flags: DIFlagPrivate | DIFlagPrototyped, spFlags: DISPFlagDeleted)
!151 = !DISubroutineType(types: !152)
!152 = !{null, !149, !153}
!153 = !DIDerivedType(tag: DW_TAG_reference_type, baseType: !142, size: 64)
!154 = !DISubprogram(name: "operator=", linkageName: "_ZNK26__cuda_builtin_threadIdx_taSERKS_", scope: !133, file: !75, line: 62, type: !155, scopeLine: 62, flags: DIFlagPrivate | DIFlagPrototyped, spFlags: DISPFlagDeleted)
!155 = !DISubroutineType(types: !156)
!156 = !{null, !141, !153}
!157 = !DISubprogram(name: "operator&", linkageName: "_ZNK26__cuda_builtin_threadIdx_tadEv", scope: !133, file: !75, line: 62, type: !158, scopeLine: 62, flags: DIFlagPrivate | DIFlagPrototyped, spFlags: DISPFlagDeleted)
!158 = !DISubroutineType(types: !159)
!159 = !{!160, !141}
!160 = !DIDerivedType(tag: DW_TAG_pointer_type, baseType: !133, size: 64)
!161 = !{!0}
!162 = !{!163, !170, !175, !177, !179, !181, !183, !187, !189, !191, !193, !195, !197, !199, !201, !203, !205, !207, !209, !211, !213, !215, !219, !221, !223, !225, !229, !234, !236, !238, !243, !247, !249, !251, !253, !255, !257, !259, !261, !263, !268, !272, !274, !279, !283, !285, !287, !289, !291, !293, !297, !299, !301, !306, !312, !316, !318, !320, !322, !324, !328, !330, !332, !336, !338, !340, !342, !344, !346, !348, !350, !352, !354, !358, !364, !366, !368, !372, !374, !376, !378, !380, !382, !384, !386, !390, !394, !396, !398, !403, !405, !407, !409, !411, !413, !415, !418, !420, !422, !424, !429, !431, !433, !435, !437, !439, !441, !443, !445, !447, !449, !451, !455, !457, !459, !461, !463, !465, !467, !469, !471, !473, !475, !477, !479, !481, !483, !485, !489, !491, !495, !497, !499, !501, !503, !505, !507, !509, !511, !513, !517, !519, !523, !525, !527, !529, !533, !535, !539, !541, !543, !545, !547, !549, !551, !553, !555, !557, !559, !561, !563, !567, !569, !573, !575, !577, !579, !581, !583, !587, !589, !591, !593, !595, !597, !599, !603, !607, !609, !611, !613, !615, !619, !621, !625, !627, !629, !631, !633, !635, !637, !641, !643, !647, !649, !651, !655, !657, !659, !661, !663, !665, !667, !671, !677, !681, !686, !688, !690, !694, !698, !712, !716, !720, !724, !728, !733, !735, !739, !743, !747, !755, !759, !763, !765, !769, !773, !777, !783, !787, !791, !793, !801, !805, !812, !814, !816, !820, !824, !828, !832, !836, !840, !841, !842, !843, !845, !846, !847, !848, !849, !850, !851, !853, !854, !855, !856, !857, !858, !859, !860, !862, !863, !864, !865, !866, !867, !868, !869, !870, !871, !872, !873, !874, !875, !876, !877, !878, !879, !880, !881, !882, !883, !884, !885, !886, !890, !892, !894, !896, !898, !900, !902, !904, !906, !908, !910, !912, !914, !916, !918, !920, !922, !924, !926, !928, !930, !932, !934, !936, !938, !940, !942, !944, !946, !948, !950, !952, !954, !956, !958, !960, !962, !964, !966, !968, !970, !972, !974, !976, !978, !980, !982, !984, !986, !988, !990, !992, !994, !996, !998, !999, !1000, !1004, !1006, !1012, !1018, !1023, !1027, !1029, !1031, !1033, !1035, !1042, !1046, !1050, !1054, !1058, !1062, !1067, !1071, !1073, !1077, !1083, !1087, !1092, !1094, !1096, !1100, !1104, !1108, !1110, !1112, !1114, !1116, !1120, !1122, !1124, !1128, !1132, !1136, !1140, !1144, !1146, !1148, !1155, !1159, !1163, !1167, !1169, !1171, !1175, !1179, !1180, !1181, !1182, !1183, !1184, !1190, !1194, !1199, !1201, !1205, !1209, !1211, !1213, !1215, !1219, !1223, !1227, !1231, !1235, !1237, !1239, !1241, !1245, !1249, !1253, !1255, !1257, !1261, !1268, !1272, !1275, !1278, !1281, !1283, !1285, !1287, !1290, !1293, !1296, !1299, !1302, !1304, !1309, !1313, !1316, !1319, !1321, !1323, !1325, !1327, !1330, !1333, !1336, !1339, !1342, !1344, !1349, !1353, !1356, !1361, !1365, !1370, !1375, !1381, !1387, !1391, !1393}
!163 = !DIImportedEntity(tag: DW_TAG_imported_declaration, scope: !164, entity: !165, file: !166, line: 200)
!164 = !DINamespace(name: "std", scope: null)
!165 = !DISubprogram(name: "abs", linkageName: "_ZL3absi", scope: !166, file: !166, line: 30, type: !167, flags: DIFlagPrototyped, spFlags: DISPFlagLocalToUnit)
!166 = !DIFile(filename: "llvm-vortex-with-cuda-build/lib/clang/18/include/__clang_cuda_math_forward_declares.h", directory: "/nethome/cahn45")
!167 = !DISubroutineType(types: !168)
!168 = !{!169, !169}
!169 = !DIBasicType(name: "int", size: 32, encoding: DW_ATE_signed)
!170 = !DIImportedEntity(tag: DW_TAG_imported_declaration, scope: !164, entity: !171, file: !166, line: 201)
!171 = !DISubprogram(name: "acos", linkageName: "_ZL4acosf", scope: !166, file: !166, line: 32, type: !172, flags: DIFlagPrototyped, spFlags: DISPFlagLocalToUnit)
!172 = !DISubroutineType(types: !173)
!173 = !{!174, !174}
!174 = !DIBasicType(name: "float", size: 32, encoding: DW_ATE_float)
!175 = !DIImportedEntity(tag: DW_TAG_imported_declaration, scope: !164, entity: !176, file: !166, line: 202)
!176 = !DISubprogram(name: "acosh", linkageName: "_ZL5acoshf", scope: !166, file: !166, line: 34, type: !172, flags: DIFlagPrototyped, spFlags: DISPFlagLocalToUnit)
!177 = !DIImportedEntity(tag: DW_TAG_imported_declaration, scope: !164, entity: !178, file: !166, line: 203)
!178 = !DISubprogram(name: "asin", linkageName: "_ZL4asinf", scope: !166, file: !166, line: 36, type: !172, flags: DIFlagPrototyped, spFlags: DISPFlagLocalToUnit)
!179 = !DIImportedEntity(tag: DW_TAG_imported_declaration, scope: !164, entity: !180, file: !166, line: 204)
!180 = !DISubprogram(name: "asinh", linkageName: "_ZL5asinhf", scope: !166, file: !166, line: 38, type: !172, flags: DIFlagPrototyped, spFlags: DISPFlagLocalToUnit)
!181 = !DIImportedEntity(tag: DW_TAG_imported_declaration, scope: !164, entity: !182, file: !166, line: 205)
!182 = !DISubprogram(name: "atan", linkageName: "_ZL4atanf", scope: !166, file: !166, line: 42, type: !172, flags: DIFlagPrototyped, spFlags: DISPFlagLocalToUnit)
!183 = !DIImportedEntity(tag: DW_TAG_imported_declaration, scope: !164, entity: !184, file: !166, line: 206)
!184 = !DISubprogram(name: "atan2", linkageName: "_ZL5atan2ff", scope: !166, file: !166, line: 40, type: !185, flags: DIFlagPrototyped, spFlags: DISPFlagLocalToUnit)
!185 = !DISubroutineType(types: !186)
!186 = !{!174, !174, !174}
!187 = !DIImportedEntity(tag: DW_TAG_imported_declaration, scope: !164, entity: !188, file: !166, line: 207)
!188 = !DISubprogram(name: "atanh", linkageName: "_ZL5atanhf", scope: !166, file: !166, line: 44, type: !172, flags: DIFlagPrototyped, spFlags: DISPFlagLocalToUnit)
!189 = !DIImportedEntity(tag: DW_TAG_imported_declaration, scope: !164, entity: !190, file: !166, line: 208)
!190 = !DISubprogram(name: "cbrt", linkageName: "_ZL4cbrtf", scope: !166, file: !166, line: 46, type: !172, flags: DIFlagPrototyped, spFlags: DISPFlagLocalToUnit)
!191 = !DIImportedEntity(tag: DW_TAG_imported_declaration, scope: !164, entity: !192, file: !166, line: 209)
!192 = !DISubprogram(name: "ceil", linkageName: "_ZL4ceilf", scope: !166, file: !166, line: 48, type: !172, flags: DIFlagPrototyped, spFlags: DISPFlagLocalToUnit)
!193 = !DIImportedEntity(tag: DW_TAG_imported_declaration, scope: !164, entity: !194, file: !166, line: 210)
!194 = !DISubprogram(name: "copysign", linkageName: "_ZL8copysignff", scope: !166, file: !166, line: 50, type: !185, flags: DIFlagPrototyped, spFlags: DISPFlagLocalToUnit)
!195 = !DIImportedEntity(tag: DW_TAG_imported_declaration, scope: !164, entity: !196, file: !166, line: 211)
!196 = !DISubprogram(name: "cos", linkageName: "_ZL3cosf", scope: !166, file: !166, line: 52, type: !172, flags: DIFlagPrototyped, spFlags: DISPFlagLocalToUnit)
!197 = !DIImportedEntity(tag: DW_TAG_imported_declaration, scope: !164, entity: !198, file: !166, line: 212)
!198 = !DISubprogram(name: "cosh", linkageName: "_ZL4coshf", scope: !166, file: !166, line: 54, type: !172, flags: DIFlagPrototyped, spFlags: DISPFlagLocalToUnit)
!199 = !DIImportedEntity(tag: DW_TAG_imported_declaration, scope: !164, entity: !200, file: !166, line: 213)
!200 = !DISubprogram(name: "erf", linkageName: "_ZL3erff", scope: !166, file: !166, line: 58, type: !172, flags: DIFlagPrototyped, spFlags: DISPFlagLocalToUnit)
!201 = !DIImportedEntity(tag: DW_TAG_imported_declaration, scope: !164, entity: !202, file: !166, line: 214)
!202 = !DISubprogram(name: "erfc", linkageName: "_ZL4erfcf", scope: !166, file: !166, line: 56, type: !172, flags: DIFlagPrototyped, spFlags: DISPFlagLocalToUnit)
!203 = !DIImportedEntity(tag: DW_TAG_imported_declaration, scope: !164, entity: !204, file: !166, line: 215)
!204 = !DISubprogram(name: "exp", linkageName: "_ZL3expf", scope: !166, file: !166, line: 62, type: !172, flags: DIFlagPrototyped, spFlags: DISPFlagLocalToUnit)
!205 = !DIImportedEntity(tag: DW_TAG_imported_declaration, scope: !164, entity: !206, file: !166, line: 216)
!206 = !DISubprogram(name: "exp2", linkageName: "_ZL4exp2f", scope: !166, file: !166, line: 60, type: !172, flags: DIFlagPrototyped, spFlags: DISPFlagLocalToUnit)
!207 = !DIImportedEntity(tag: DW_TAG_imported_declaration, scope: !164, entity: !208, file: !166, line: 217)
!208 = !DISubprogram(name: "expm1", linkageName: "_ZL5expm1f", scope: !166, file: !166, line: 64, type: !172, flags: DIFlagPrototyped, spFlags: DISPFlagLocalToUnit)
!209 = !DIImportedEntity(tag: DW_TAG_imported_declaration, scope: !164, entity: !210, file: !166, line: 218)
!210 = !DISubprogram(name: "fabs", linkageName: "_ZL4fabsf", scope: !166, file: !166, line: 66, type: !172, flags: DIFlagPrototyped, spFlags: DISPFlagLocalToUnit)
!211 = !DIImportedEntity(tag: DW_TAG_imported_declaration, scope: !164, entity: !212, file: !166, line: 219)
!212 = !DISubprogram(name: "fdim", linkageName: "_ZL4fdimff", scope: !166, file: !166, line: 68, type: !185, flags: DIFlagPrototyped, spFlags: DISPFlagLocalToUnit)
!213 = !DIImportedEntity(tag: DW_TAG_imported_declaration, scope: !164, entity: !214, file: !166, line: 220)
!214 = !DISubprogram(name: "floor", linkageName: "_ZL5floorf", scope: !166, file: !166, line: 70, type: !172, flags: DIFlagPrototyped, spFlags: DISPFlagLocalToUnit)
!215 = !DIImportedEntity(tag: DW_TAG_imported_declaration, scope: !164, entity: !216, file: !166, line: 221)
!216 = !DISubprogram(name: "fma", linkageName: "_ZL3fmafff", scope: !166, file: !166, line: 72, type: !217, flags: DIFlagPrototyped, spFlags: DISPFlagLocalToUnit)
!217 = !DISubroutineType(types: !218)
!218 = !{!174, !174, !174, !174}
!219 = !DIImportedEntity(tag: DW_TAG_imported_declaration, scope: !164, entity: !220, file: !166, line: 222)
!220 = !DISubprogram(name: "fmax", linkageName: "_ZL4fmaxff", scope: !166, file: !166, line: 74, type: !185, flags: DIFlagPrototyped, spFlags: DISPFlagLocalToUnit)
!221 = !DIImportedEntity(tag: DW_TAG_imported_declaration, scope: !164, entity: !222, file: !166, line: 223)
!222 = !DISubprogram(name: "fmin", linkageName: "_ZL4fminff", scope: !166, file: !166, line: 76, type: !185, flags: DIFlagPrototyped, spFlags: DISPFlagLocalToUnit)
!223 = !DIImportedEntity(tag: DW_TAG_imported_declaration, scope: !164, entity: !224, file: !166, line: 224)
!224 = !DISubprogram(name: "fmod", linkageName: "_ZL4fmodff", scope: !166, file: !166, line: 78, type: !185, flags: DIFlagPrototyped, spFlags: DISPFlagLocalToUnit)
!225 = !DIImportedEntity(tag: DW_TAG_imported_declaration, scope: !164, entity: !226, file: !166, line: 225)
!226 = !DISubprogram(name: "fpclassify", linkageName: "_ZL10fpclassifyf", scope: !166, file: !166, line: 80, type: !227, flags: DIFlagPrototyped, spFlags: DISPFlagLocalToUnit)
!227 = !DISubroutineType(types: !228)
!228 = !{!169, !174}
!229 = !DIImportedEntity(tag: DW_TAG_imported_declaration, scope: !164, entity: !230, file: !166, line: 226)
!230 = !DISubprogram(name: "frexp", linkageName: "_ZL5frexpfPi", scope: !166, file: !166, line: 82, type: !231, flags: DIFlagPrototyped, spFlags: DISPFlagLocalToUnit)
!231 = !DISubroutineType(types: !232)
!232 = !{!174, !174, !233}
!233 = !DIDerivedType(tag: DW_TAG_pointer_type, baseType: !169, size: 64)
!234 = !DIImportedEntity(tag: DW_TAG_imported_declaration, scope: !164, entity: !235, file: !166, line: 227)
!235 = !DISubprogram(name: "hypot", linkageName: "_ZL5hypotff", scope: !166, file: !166, line: 84, type: !185, flags: DIFlagPrototyped, spFlags: DISPFlagLocalToUnit)
!236 = !DIImportedEntity(tag: DW_TAG_imported_declaration, scope: !164, entity: !237, file: !166, line: 228)
!237 = !DISubprogram(name: "ilogb", linkageName: "_ZL5ilogbf", scope: !166, file: !166, line: 86, type: !227, flags: DIFlagPrototyped, spFlags: DISPFlagLocalToUnit)
!238 = !DIImportedEntity(tag: DW_TAG_imported_declaration, scope: !164, entity: !239, file: !166, line: 229)
!239 = !DISubprogram(name: "isfinite", linkageName: "_ZL8isfinitef", scope: !166, file: !166, line: 91, type: !240, flags: DIFlagPrototyped, spFlags: DISPFlagLocalToUnit)
!240 = !DISubroutineType(types: !241)
!241 = !{!242, !174}
!242 = !DIBasicType(name: "bool", size: 8, encoding: DW_ATE_boolean)
!243 = !DIImportedEntity(tag: DW_TAG_imported_declaration, scope: !164, entity: !244, file: !166, line: 230)
!244 = !DISubprogram(name: "isgreater", linkageName: "_ZL9isgreaterff", scope: !166, file: !166, line: 95, type: !245, flags: DIFlagPrototyped, spFlags: DISPFlagLocalToUnit)
!245 = !DISubroutineType(types: !246)
!246 = !{!242, !174, !174}
!247 = !DIImportedEntity(tag: DW_TAG_imported_declaration, scope: !164, entity: !248, file: !166, line: 231)
!248 = !DISubprogram(name: "isgreaterequal", linkageName: "_ZL14isgreaterequalff", scope: !166, file: !166, line: 94, type: !245, flags: DIFlagPrototyped, spFlags: DISPFlagLocalToUnit)
!249 = !DIImportedEntity(tag: DW_TAG_imported_declaration, scope: !164, entity: !250, file: !166, line: 232)
!250 = !DISubprogram(name: "isinf", linkageName: "_ZL5isinff", scope: !166, file: !166, line: 100, type: !240, flags: DIFlagPrototyped, spFlags: DISPFlagLocalToUnit)
!251 = !DIImportedEntity(tag: DW_TAG_imported_declaration, scope: !164, entity: !252, file: !166, line: 233)
!252 = !DISubprogram(name: "isless", linkageName: "_ZL6islessff", scope: !166, file: !166, line: 104, type: !245, flags: DIFlagPrototyped, spFlags: DISPFlagLocalToUnit)
!253 = !DIImportedEntity(tag: DW_TAG_imported_declaration, scope: !164, entity: !254, file: !166, line: 234)
!254 = !DISubprogram(name: "islessequal", linkageName: "_ZL11islessequalff", scope: !166, file: !166, line: 103, type: !245, flags: DIFlagPrototyped, spFlags: DISPFlagLocalToUnit)
!255 = !DIImportedEntity(tag: DW_TAG_imported_declaration, scope: !164, entity: !256, file: !166, line: 235)
!256 = !DISubprogram(name: "islessgreater", linkageName: "_ZL13islessgreaterff", scope: !166, file: !166, line: 106, type: !245, flags: DIFlagPrototyped, spFlags: DISPFlagLocalToUnit)
!257 = !DIImportedEntity(tag: DW_TAG_imported_declaration, scope: !164, entity: !258, file: !166, line: 236)
!258 = !DISubprogram(name: "isnan", linkageName: "_ZL5isnanf", scope: !166, file: !166, line: 111, type: !240, flags: DIFlagPrototyped, spFlags: DISPFlagLocalToUnit)
!259 = !DIImportedEntity(tag: DW_TAG_imported_declaration, scope: !164, entity: !260, file: !166, line: 237)
!260 = !DISubprogram(name: "isnormal", linkageName: "_ZL8isnormalf", scope: !166, file: !166, line: 113, type: !240, flags: DIFlagPrototyped, spFlags: DISPFlagLocalToUnit)
!261 = !DIImportedEntity(tag: DW_TAG_imported_declaration, scope: !164, entity: !262, file: !166, line: 238)
!262 = !DISubprogram(name: "isunordered", linkageName: "_ZL11isunorderedff", scope: !166, file: !166, line: 115, type: !245, flags: DIFlagPrototyped, spFlags: DISPFlagLocalToUnit)
!263 = !DIImportedEntity(tag: DW_TAG_imported_declaration, scope: !164, entity: !264, file: !166, line: 239)
!264 = !DISubprogram(name: "labs", linkageName: "_ZL4labsl", scope: !166, file: !166, line: 116, type: !265, flags: DIFlagPrototyped, spFlags: DISPFlagLocalToUnit)
!265 = !DISubroutineType(types: !266)
!266 = !{!267, !267}
!267 = !DIBasicType(name: "long", size: 64, encoding: DW_ATE_signed)
!268 = !DIImportedEntity(tag: DW_TAG_imported_declaration, scope: !164, entity: !269, file: !166, line: 240)
!269 = !DISubprogram(name: "ldexp", linkageName: "_ZL5ldexpfi", scope: !166, file: !166, line: 118, type: !270, flags: DIFlagPrototyped, spFlags: DISPFlagLocalToUnit)
!270 = !DISubroutineType(types: !271)
!271 = !{!174, !174, !169}
!272 = !DIImportedEntity(tag: DW_TAG_imported_declaration, scope: !164, entity: !273, file: !166, line: 241)
!273 = !DISubprogram(name: "lgamma", linkageName: "_ZL6lgammaf", scope: !166, file: !166, line: 120, type: !172, flags: DIFlagPrototyped, spFlags: DISPFlagLocalToUnit)
!274 = !DIImportedEntity(tag: DW_TAG_imported_declaration, scope: !164, entity: !275, file: !166, line: 242)
!275 = !DISubprogram(name: "llabs", linkageName: "_ZL5llabsx", scope: !166, file: !166, line: 121, type: !276, flags: DIFlagPrototyped, spFlags: DISPFlagLocalToUnit)
!276 = !DISubroutineType(types: !277)
!277 = !{!278, !278}
!278 = !DIBasicType(name: "long long", size: 64, encoding: DW_ATE_signed)
!279 = !DIImportedEntity(tag: DW_TAG_imported_declaration, scope: !164, entity: !280, file: !166, line: 243)
!280 = !DISubprogram(name: "llrint", linkageName: "_ZL6llrintf", scope: !166, file: !166, line: 123, type: !281, flags: DIFlagPrototyped, spFlags: DISPFlagLocalToUnit)
!281 = !DISubroutineType(types: !282)
!282 = !{!278, !174}
!283 = !DIImportedEntity(tag: DW_TAG_imported_declaration, scope: !164, entity: !284, file: !166, line: 244)
!284 = !DISubprogram(name: "log", linkageName: "_ZL3logf", scope: !166, file: !166, line: 133, type: !172, flags: DIFlagPrototyped, spFlags: DISPFlagLocalToUnit)
!285 = !DIImportedEntity(tag: DW_TAG_imported_declaration, scope: !164, entity: !286, file: !166, line: 245)
!286 = !DISubprogram(name: "log10", linkageName: "_ZL5log10f", scope: !166, file: !166, line: 125, type: !172, flags: DIFlagPrototyped, spFlags: DISPFlagLocalToUnit)
!287 = !DIImportedEntity(tag: DW_TAG_imported_declaration, scope: !164, entity: !288, file: !166, line: 246)
!288 = !DISubprogram(name: "log1p", linkageName: "_ZL5log1pf", scope: !166, file: !166, line: 127, type: !172, flags: DIFlagPrototyped, spFlags: DISPFlagLocalToUnit)
!289 = !DIImportedEntity(tag: DW_TAG_imported_declaration, scope: !164, entity: !290, file: !166, line: 247)
!290 = !DISubprogram(name: "log2", linkageName: "_ZL4log2f", scope: !166, file: !166, line: 129, type: !172, flags: DIFlagPrototyped, spFlags: DISPFlagLocalToUnit)
!291 = !DIImportedEntity(tag: DW_TAG_imported_declaration, scope: !164, entity: !292, file: !166, line: 248)
!292 = !DISubprogram(name: "logb", linkageName: "_ZL4logbf", scope: !166, file: !166, line: 131, type: !172, flags: DIFlagPrototyped, spFlags: DISPFlagLocalToUnit)
!293 = !DIImportedEntity(tag: DW_TAG_imported_declaration, scope: !164, entity: !294, file: !166, line: 249)
!294 = !DISubprogram(name: "lrint", linkageName: "_ZL5lrintf", scope: !166, file: !166, line: 135, type: !295, flags: DIFlagPrototyped, spFlags: DISPFlagLocalToUnit)
!295 = !DISubroutineType(types: !296)
!296 = !{!267, !174}
!297 = !DIImportedEntity(tag: DW_TAG_imported_declaration, scope: !164, entity: !298, file: !166, line: 250)
!298 = !DISubprogram(name: "lround", linkageName: "_ZL6lroundf", scope: !166, file: !166, line: 137, type: !295, flags: DIFlagPrototyped, spFlags: DISPFlagLocalToUnit)
!299 = !DIImportedEntity(tag: DW_TAG_imported_declaration, scope: !164, entity: !300, file: !166, line: 251)
!300 = !DISubprogram(name: "llround", linkageName: "_ZL7llroundf", scope: !166, file: !166, line: 138, type: !281, flags: DIFlagPrototyped, spFlags: DISPFlagLocalToUnit)
!301 = !DIImportedEntity(tag: DW_TAG_imported_declaration, scope: !164, entity: !302, file: !166, line: 252)
!302 = !DISubprogram(name: "modf", linkageName: "_ZL4modffPf", scope: !166, file: !166, line: 140, type: !303, flags: DIFlagPrototyped, spFlags: DISPFlagLocalToUnit)
!303 = !DISubroutineType(types: !304)
!304 = !{!174, !174, !305}
!305 = !DIDerivedType(tag: DW_TAG_pointer_type, baseType: !174, size: 64)
!306 = !DIImportedEntity(tag: DW_TAG_imported_declaration, scope: !164, entity: !307, file: !166, line: 253)
!307 = !DISubprogram(name: "nan", linkageName: "_ZL3nanPKc", scope: !166, file: !166, line: 141, type: !308, flags: DIFlagPrototyped, spFlags: DISPFlagLocalToUnit)
!308 = !DISubroutineType(types: !309)
!309 = !{!310, !311}
!310 = !DIBasicType(name: "double", size: 64, encoding: DW_ATE_float)
!311 = !DIDerivedType(tag: DW_TAG_pointer_type, baseType: !4, size: 64)
!312 = !DIImportedEntity(tag: DW_TAG_imported_declaration, scope: !164, entity: !313, file: !166, line: 254)
!313 = !DISubprogram(name: "nanf", linkageName: "_ZL4nanfPKc", scope: !166, file: !166, line: 142, type: !314, flags: DIFlagPrototyped, spFlags: DISPFlagLocalToUnit)
!314 = !DISubroutineType(types: !315)
!315 = !{!174, !311}
!316 = !DIImportedEntity(tag: DW_TAG_imported_declaration, scope: !164, entity: !317, file: !166, line: 255)
!317 = !DISubprogram(name: "nearbyint", linkageName: "_ZL9nearbyintf", scope: !166, file: !166, line: 144, type: !172, flags: DIFlagPrototyped, spFlags: DISPFlagLocalToUnit)
!318 = !DIImportedEntity(tag: DW_TAG_imported_declaration, scope: !164, entity: !319, file: !166, line: 256)
!319 = !DISubprogram(name: "nextafter", linkageName: "_ZL9nextafterff", scope: !166, file: !166, line: 146, type: !185, flags: DIFlagPrototyped, spFlags: DISPFlagLocalToUnit)
!320 = !DIImportedEntity(tag: DW_TAG_imported_declaration, scope: !164, entity: !321, file: !166, line: 257)
!321 = !DISubprogram(name: "pow", linkageName: "_ZL3powfi", scope: !166, file: !166, line: 150, type: !270, flags: DIFlagPrototyped, spFlags: DISPFlagLocalToUnit)
!322 = !DIImportedEntity(tag: DW_TAG_imported_declaration, scope: !164, entity: !323, file: !166, line: 258)
!323 = !DISubprogram(name: "remainder", linkageName: "_ZL9remainderff", scope: !166, file: !166, line: 152, type: !185, flags: DIFlagPrototyped, spFlags: DISPFlagLocalToUnit)
!324 = !DIImportedEntity(tag: DW_TAG_imported_declaration, scope: !164, entity: !325, file: !166, line: 259)
!325 = !DISubprogram(name: "remquo", linkageName: "_ZL6remquoffPi", scope: !166, file: !166, line: 154, type: !326, flags: DIFlagPrototyped, spFlags: DISPFlagLocalToUnit)
!326 = !DISubroutineType(types: !327)
!327 = !{!174, !174, !174, !233}
!328 = !DIImportedEntity(tag: DW_TAG_imported_declaration, scope: !164, entity: !329, file: !166, line: 260)
!329 = !DISubprogram(name: "rint", linkageName: "_ZL4rintf", scope: !166, file: !166, line: 156, type: !172, flags: DIFlagPrototyped, spFlags: DISPFlagLocalToUnit)
!330 = !DIImportedEntity(tag: DW_TAG_imported_declaration, scope: !164, entity: !331, file: !166, line: 261)
!331 = !DISubprogram(name: "round", linkageName: "_ZL5roundf", scope: !166, file: !166, line: 158, type: !172, flags: DIFlagPrototyped, spFlags: DISPFlagLocalToUnit)
!332 = !DIImportedEntity(tag: DW_TAG_imported_declaration, scope: !164, entity: !333, file: !166, line: 262)
!333 = !DISubprogram(name: "scalbln", linkageName: "_ZL7scalblnfl", scope: !166, file: !166, line: 160, type: !334, flags: DIFlagPrototyped, spFlags: DISPFlagLocalToUnit)
!334 = !DISubroutineType(types: !335)
!335 = !{!174, !174, !267}
!336 = !DIImportedEntity(tag: DW_TAG_imported_declaration, scope: !164, entity: !337, file: !166, line: 263)
!337 = !DISubprogram(name: "scalbn", linkageName: "_ZL6scalbnfi", scope: !166, file: !166, line: 162, type: !270, flags: DIFlagPrototyped, spFlags: DISPFlagLocalToUnit)
!338 = !DIImportedEntity(tag: DW_TAG_imported_declaration, scope: !164, entity: !339, file: !166, line: 264)
!339 = !DISubprogram(name: "signbit", linkageName: "_ZL7signbitf", scope: !166, file: !166, line: 167, type: !240, flags: DIFlagPrototyped, spFlags: DISPFlagLocalToUnit)
!340 = !DIImportedEntity(tag: DW_TAG_imported_declaration, scope: !164, entity: !341, file: !166, line: 265)
!341 = !DISubprogram(name: "sin", linkageName: "_ZL3sinf", scope: !166, file: !166, line: 169, type: !172, flags: DIFlagPrototyped, spFlags: DISPFlagLocalToUnit)
!342 = !DIImportedEntity(tag: DW_TAG_imported_declaration, scope: !164, entity: !343, file: !166, line: 266)
!343 = !DISubprogram(name: "sinh", linkageName: "_ZL4sinhf", scope: !166, file: !166, line: 171, type: !172, flags: DIFlagPrototyped, spFlags: DISPFlagLocalToUnit)
!344 = !DIImportedEntity(tag: DW_TAG_imported_declaration, scope: !164, entity: !345, file: !166, line: 267)
!345 = !DISubprogram(name: "sqrt", linkageName: "_ZL4sqrtf", scope: !166, file: !166, line: 173, type: !172, flags: DIFlagPrototyped, spFlags: DISPFlagLocalToUnit)
!346 = !DIImportedEntity(tag: DW_TAG_imported_declaration, scope: !164, entity: !347, file: !166, line: 268)
!347 = !DISubprogram(name: "tan", linkageName: "_ZL3tanf", scope: !166, file: !166, line: 175, type: !172, flags: DIFlagPrototyped, spFlags: DISPFlagLocalToUnit)
!348 = !DIImportedEntity(tag: DW_TAG_imported_declaration, scope: !164, entity: !349, file: !166, line: 269)
!349 = !DISubprogram(name: "tanh", linkageName: "_ZL4tanhf", scope: !166, file: !166, line: 177, type: !172, flags: DIFlagPrototyped, spFlags: DISPFlagLocalToUnit)
!350 = !DIImportedEntity(tag: DW_TAG_imported_declaration, scope: !164, entity: !351, file: !166, line: 270)
!351 = !DISubprogram(name: "tgamma", linkageName: "_ZL6tgammaf", scope: !166, file: !166, line: 179, type: !172, flags: DIFlagPrototyped, spFlags: DISPFlagLocalToUnit)
!352 = !DIImportedEntity(tag: DW_TAG_imported_declaration, scope: !164, entity: !353, file: !166, line: 271)
!353 = !DISubprogram(name: "trunc", linkageName: "_ZL5truncf", scope: !166, file: !166, line: 181, type: !172, flags: DIFlagPrototyped, spFlags: DISPFlagLocalToUnit)
!354 = !DIImportedEntity(tag: DW_TAG_imported_declaration, scope: !164, entity: !355, file: !357, line: 52)
!355 = !DISubprogram(name: "abs", scope: !356, file: !356, line: 840, type: !167, flags: DIFlagPrototyped, spFlags: 0)
!356 = !DIFile(filename: "/usr/include/stdlib.h", directory: "")
!357 = !DIFile(filename: "/usr/lib/gcc/x86_64-linux-gnu/13/../../../../include/c++/13/bits/std_abs.h", directory: "")
!358 = !DIImportedEntity(tag: DW_TAG_imported_declaration, scope: !164, entity: !359, file: !363, line: 85)
!359 = !DISubprogram(name: "acos", scope: !360, file: !360, line: 53, type: !361, flags: DIFlagPrototyped, spFlags: 0)
!360 = !DIFile(filename: "/usr/include/x86_64-linux-gnu/bits/mathcalls.h", directory: "")
!361 = !DISubroutineType(types: !362)
!362 = !{!310, !310}
!363 = !DIFile(filename: "/usr/lib/gcc/x86_64-linux-gnu/13/../../../../include/c++/13/cmath", directory: "")
!364 = !DIImportedEntity(tag: DW_TAG_imported_declaration, scope: !164, entity: !365, file: !363, line: 104)
!365 = !DISubprogram(name: "asin", scope: !360, file: !360, line: 55, type: !361, flags: DIFlagPrototyped, spFlags: 0)
!366 = !DIImportedEntity(tag: DW_TAG_imported_declaration, scope: !164, entity: !367, file: !363, line: 123)
!367 = !DISubprogram(name: "atan", scope: !360, file: !360, line: 57, type: !361, flags: DIFlagPrototyped, spFlags: 0)
!368 = !DIImportedEntity(tag: DW_TAG_imported_declaration, scope: !164, entity: !369, file: !363, line: 142)
!369 = !DISubprogram(name: "atan2", scope: !360, file: !360, line: 59, type: !370, flags: DIFlagPrototyped, spFlags: 0)
!370 = !DISubroutineType(types: !371)
!371 = !{!310, !310, !310}
!372 = !DIImportedEntity(tag: DW_TAG_imported_declaration, scope: !164, entity: !373, file: !363, line: 154)
!373 = !DISubprogram(name: "ceil", scope: !360, file: !360, line: 159, type: !361, flags: DIFlagPrototyped, spFlags: 0)
!374 = !DIImportedEntity(tag: DW_TAG_imported_declaration, scope: !164, entity: !375, file: !363, line: 173)
!375 = !DISubprogram(name: "cos", scope: !360, file: !360, line: 62, type: !361, flags: DIFlagPrototyped, spFlags: 0)
!376 = !DIImportedEntity(tag: DW_TAG_imported_declaration, scope: !164, entity: !377, file: !363, line: 192)
!377 = !DISubprogram(name: "cosh", scope: !360, file: !360, line: 71, type: !361, flags: DIFlagPrototyped, spFlags: 0)
!378 = !DIImportedEntity(tag: DW_TAG_imported_declaration, scope: !164, entity: !379, file: !363, line: 211)
!379 = !DISubprogram(name: "exp", scope: !360, file: !360, line: 95, type: !361, flags: DIFlagPrototyped, spFlags: 0)
!380 = !DIImportedEntity(tag: DW_TAG_imported_declaration, scope: !164, entity: !381, file: !363, line: 230)
!381 = !DISubprogram(name: "fabs", scope: !360, file: !360, line: 162, type: !361, flags: DIFlagPrototyped, spFlags: 0)
!382 = !DIImportedEntity(tag: DW_TAG_imported_declaration, scope: !164, entity: !383, file: !363, line: 249)
!383 = !DISubprogram(name: "floor", scope: !360, file: !360, line: 165, type: !361, flags: DIFlagPrototyped, spFlags: 0)
!384 = !DIImportedEntity(tag: DW_TAG_imported_declaration, scope: !164, entity: !385, file: !363, line: 268)
!385 = !DISubprogram(name: "fmod", scope: !360, file: !360, line: 168, type: !370, flags: DIFlagPrototyped, spFlags: 0)
!386 = !DIImportedEntity(tag: DW_TAG_imported_declaration, scope: !164, entity: !387, file: !363, line: 280)
!387 = !DISubprogram(name: "frexp", scope: !360, file: !360, line: 98, type: !388, flags: DIFlagPrototyped, spFlags: 0)
!388 = !DISubroutineType(types: !389)
!389 = !{!310, !310, !233}
!390 = !DIImportedEntity(tag: DW_TAG_imported_declaration, scope: !164, entity: !391, file: !363, line: 299)
!391 = !DISubprogram(name: "ldexp", scope: !360, file: !360, line: 101, type: !392, flags: DIFlagPrototyped, spFlags: 0)
!392 = !DISubroutineType(types: !393)
!393 = !{!310, !310, !169}
!394 = !DIImportedEntity(tag: DW_TAG_imported_declaration, scope: !164, entity: !395, file: !363, line: 318)
!395 = !DISubprogram(name: "log", scope: !360, file: !360, line: 104, type: !361, flags: DIFlagPrototyped, spFlags: 0)
!396 = !DIImportedEntity(tag: DW_TAG_imported_declaration, scope: !164, entity: !397, file: !363, line: 337)
!397 = !DISubprogram(name: "log10", scope: !360, file: !360, line: 107, type: !361, flags: DIFlagPrototyped, spFlags: 0)
!398 = !DIImportedEntity(tag: DW_TAG_imported_declaration, scope: !164, entity: !399, file: !363, line: 356)
!399 = !DISubprogram(name: "modf", scope: !360, file: !360, line: 110, type: !400, flags: DIFlagPrototyped, spFlags: 0)
!400 = !DISubroutineType(types: !401)
!401 = !{!310, !310, !402}
!402 = !DIDerivedType(tag: DW_TAG_pointer_type, baseType: !310, size: 64)
!403 = !DIImportedEntity(tag: DW_TAG_imported_declaration, scope: !164, entity: !404, file: !363, line: 368)
!404 = !DISubprogram(name: "pow", scope: !360, file: !360, line: 140, type: !370, flags: DIFlagPrototyped, spFlags: 0)
!405 = !DIImportedEntity(tag: DW_TAG_imported_declaration, scope: !164, entity: !406, file: !363, line: 396)
!406 = !DISubprogram(name: "sin", scope: !360, file: !360, line: 64, type: !361, flags: DIFlagPrototyped, spFlags: 0)
!407 = !DIImportedEntity(tag: DW_TAG_imported_declaration, scope: !164, entity: !408, file: !363, line: 415)
!408 = !DISubprogram(name: "sinh", scope: !360, file: !360, line: 73, type: !361, flags: DIFlagPrototyped, spFlags: 0)
!409 = !DIImportedEntity(tag: DW_TAG_imported_declaration, scope: !164, entity: !410, file: !363, line: 434)
!410 = !DISubprogram(name: "sqrt", scope: !360, file: !360, line: 143, type: !361, flags: DIFlagPrototyped, spFlags: 0)
!411 = !DIImportedEntity(tag: DW_TAG_imported_declaration, scope: !164, entity: !412, file: !363, line: 453)
!412 = !DISubprogram(name: "tan", scope: !360, file: !360, line: 66, type: !361, flags: DIFlagPrototyped, spFlags: 0)
!413 = !DIImportedEntity(tag: DW_TAG_imported_declaration, scope: !164, entity: !414, file: !363, line: 472)
!414 = !DISubprogram(name: "tanh", scope: !360, file: !360, line: 75, type: !361, flags: DIFlagPrototyped, spFlags: 0)
!415 = !DIImportedEntity(tag: DW_TAG_imported_declaration, scope: !164, entity: !416, file: !363, line: 1881)
!416 = !DIDerivedType(tag: DW_TAG_typedef, name: "double_t", file: !417, line: 150, baseType: !310)
!417 = !DIFile(filename: "/usr/include/math.h", directory: "")
!418 = !DIImportedEntity(tag: DW_TAG_imported_declaration, scope: !164, entity: !419, file: !363, line: 1882)
!419 = !DIDerivedType(tag: DW_TAG_typedef, name: "float_t", file: !417, line: 149, baseType: !174)
!420 = !DIImportedEntity(tag: DW_TAG_imported_declaration, scope: !164, entity: !421, file: !363, line: 1885)
!421 = !DISubprogram(name: "acosh", scope: !360, file: !360, line: 85, type: !361, flags: DIFlagPrototyped, spFlags: 0)
!422 = !DIImportedEntity(tag: DW_TAG_imported_declaration, scope: !164, entity: !423, file: !363, line: 1886)
!423 = !DISubprogram(name: "acoshf", scope: !360, file: !360, line: 85, type: !172, flags: DIFlagPrototyped, spFlags: 0)
!424 = !DIImportedEntity(tag: DW_TAG_imported_declaration, scope: !164, entity: !425, file: !363, line: 1887)
!425 = !DISubprogram(name: "acoshl", scope: !360, file: !360, line: 85, type: !426, flags: DIFlagPrototyped, spFlags: 0)
!426 = !DISubroutineType(types: !427)
!427 = !{!428, !428}
!428 = !DIBasicType(name: "long double", size: 64, encoding: DW_ATE_float)
!429 = !DIImportedEntity(tag: DW_TAG_imported_declaration, scope: !164, entity: !430, file: !363, line: 1889)
!430 = !DISubprogram(name: "asinh", scope: !360, file: !360, line: 87, type: !361, flags: DIFlagPrototyped, spFlags: 0)
!431 = !DIImportedEntity(tag: DW_TAG_imported_declaration, scope: !164, entity: !432, file: !363, line: 1890)
!432 = !DISubprogram(name: "asinhf", scope: !360, file: !360, line: 87, type: !172, flags: DIFlagPrototyped, spFlags: 0)
!433 = !DIImportedEntity(tag: DW_TAG_imported_declaration, scope: !164, entity: !434, file: !363, line: 1891)
!434 = !DISubprogram(name: "asinhl", scope: !360, file: !360, line: 87, type: !426, flags: DIFlagPrototyped, spFlags: 0)
!435 = !DIImportedEntity(tag: DW_TAG_imported_declaration, scope: !164, entity: !436, file: !363, line: 1893)
!436 = !DISubprogram(name: "atanh", scope: !360, file: !360, line: 89, type: !361, flags: DIFlagPrototyped, spFlags: 0)
!437 = !DIImportedEntity(tag: DW_TAG_imported_declaration, scope: !164, entity: !438, file: !363, line: 1894)
!438 = !DISubprogram(name: "atanhf", scope: !360, file: !360, line: 89, type: !172, flags: DIFlagPrototyped, spFlags: 0)
!439 = !DIImportedEntity(tag: DW_TAG_imported_declaration, scope: !164, entity: !440, file: !363, line: 1895)
!440 = !DISubprogram(name: "atanhl", scope: !360, file: !360, line: 89, type: !426, flags: DIFlagPrototyped, spFlags: 0)
!441 = !DIImportedEntity(tag: DW_TAG_imported_declaration, scope: !164, entity: !442, file: !363, line: 1897)
!442 = !DISubprogram(name: "cbrt", scope: !360, file: !360, line: 152, type: !361, flags: DIFlagPrototyped, spFlags: 0)
!443 = !DIImportedEntity(tag: DW_TAG_imported_declaration, scope: !164, entity: !444, file: !363, line: 1898)
!444 = !DISubprogram(name: "cbrtf", scope: !360, file: !360, line: 152, type: !172, flags: DIFlagPrototyped, spFlags: 0)
!445 = !DIImportedEntity(tag: DW_TAG_imported_declaration, scope: !164, entity: !446, file: !363, line: 1899)
!446 = !DISubprogram(name: "cbrtl", scope: !360, file: !360, line: 152, type: !426, flags: DIFlagPrototyped, spFlags: 0)
!447 = !DIImportedEntity(tag: DW_TAG_imported_declaration, scope: !164, entity: !448, file: !363, line: 1901)
!448 = !DISubprogram(name: "copysign", scope: !360, file: !360, line: 196, type: !370, flags: DIFlagPrototyped, spFlags: 0)
!449 = !DIImportedEntity(tag: DW_TAG_imported_declaration, scope: !164, entity: !450, file: !363, line: 1902)
!450 = !DISubprogram(name: "copysignf", scope: !360, file: !360, line: 196, type: !185, flags: DIFlagPrototyped, spFlags: 0)
!451 = !DIImportedEntity(tag: DW_TAG_imported_declaration, scope: !164, entity: !452, file: !363, line: 1903)
!452 = !DISubprogram(name: "copysignl", scope: !360, file: !360, line: 196, type: !453, flags: DIFlagPrototyped, spFlags: 0)
!453 = !DISubroutineType(types: !454)
!454 = !{!428, !428, !428}
!455 = !DIImportedEntity(tag: DW_TAG_imported_declaration, scope: !164, entity: !456, file: !363, line: 1905)
!456 = !DISubprogram(name: "erf", scope: !360, file: !360, line: 228, type: !361, flags: DIFlagPrototyped, spFlags: 0)
!457 = !DIImportedEntity(tag: DW_TAG_imported_declaration, scope: !164, entity: !458, file: !363, line: 1906)
!458 = !DISubprogram(name: "erff", scope: !360, file: !360, line: 228, type: !172, flags: DIFlagPrototyped, spFlags: 0)
!459 = !DIImportedEntity(tag: DW_TAG_imported_declaration, scope: !164, entity: !460, file: !363, line: 1907)
!460 = !DISubprogram(name: "erfl", scope: !360, file: !360, line: 228, type: !426, flags: DIFlagPrototyped, spFlags: 0)
!461 = !DIImportedEntity(tag: DW_TAG_imported_declaration, scope: !164, entity: !462, file: !363, line: 1909)
!462 = !DISubprogram(name: "erfc", scope: !360, file: !360, line: 229, type: !361, flags: DIFlagPrototyped, spFlags: 0)
!463 = !DIImportedEntity(tag: DW_TAG_imported_declaration, scope: !164, entity: !464, file: !363, line: 1910)
!464 = !DISubprogram(name: "erfcf", scope: !360, file: !360, line: 229, type: !172, flags: DIFlagPrototyped, spFlags: 0)
!465 = !DIImportedEntity(tag: DW_TAG_imported_declaration, scope: !164, entity: !466, file: !363, line: 1911)
!466 = !DISubprogram(name: "erfcl", scope: !360, file: !360, line: 229, type: !426, flags: DIFlagPrototyped, spFlags: 0)
!467 = !DIImportedEntity(tag: DW_TAG_imported_declaration, scope: !164, entity: !468, file: !363, line: 1913)
!468 = !DISubprogram(name: "exp2", scope: !360, file: !360, line: 130, type: !361, flags: DIFlagPrototyped, spFlags: 0)
!469 = !DIImportedEntity(tag: DW_TAG_imported_declaration, scope: !164, entity: !470, file: !363, line: 1914)
!470 = !DISubprogram(name: "exp2f", scope: !360, file: !360, line: 130, type: !172, flags: DIFlagPrototyped, spFlags: 0)
!471 = !DIImportedEntity(tag: DW_TAG_imported_declaration, scope: !164, entity: !472, file: !363, line: 1915)
!472 = !DISubprogram(name: "exp2l", scope: !360, file: !360, line: 130, type: !426, flags: DIFlagPrototyped, spFlags: 0)
!473 = !DIImportedEntity(tag: DW_TAG_imported_declaration, scope: !164, entity: !474, file: !363, line: 1917)
!474 = !DISubprogram(name: "expm1", scope: !360, file: !360, line: 119, type: !361, flags: DIFlagPrototyped, spFlags: 0)
!475 = !DIImportedEntity(tag: DW_TAG_imported_declaration, scope: !164, entity: !476, file: !363, line: 1918)
!476 = !DISubprogram(name: "expm1f", scope: !360, file: !360, line: 119, type: !172, flags: DIFlagPrototyped, spFlags: 0)
!477 = !DIImportedEntity(tag: DW_TAG_imported_declaration, scope: !164, entity: !478, file: !363, line: 1919)
!478 = !DISubprogram(name: "expm1l", scope: !360, file: !360, line: 119, type: !426, flags: DIFlagPrototyped, spFlags: 0)
!479 = !DIImportedEntity(tag: DW_TAG_imported_declaration, scope: !164, entity: !480, file: !363, line: 1921)
!480 = !DISubprogram(name: "fdim", scope: !360, file: !360, line: 326, type: !370, flags: DIFlagPrototyped, spFlags: 0)
!481 = !DIImportedEntity(tag: DW_TAG_imported_declaration, scope: !164, entity: !482, file: !363, line: 1922)
!482 = !DISubprogram(name: "fdimf", scope: !360, file: !360, line: 326, type: !185, flags: DIFlagPrototyped, spFlags: 0)
!483 = !DIImportedEntity(tag: DW_TAG_imported_declaration, scope: !164, entity: !484, file: !363, line: 1923)
!484 = !DISubprogram(name: "fdiml", scope: !360, file: !360, line: 326, type: !453, flags: DIFlagPrototyped, spFlags: 0)
!485 = !DIImportedEntity(tag: DW_TAG_imported_declaration, scope: !164, entity: !486, file: !363, line: 1925)
!486 = !DISubprogram(name: "fma", scope: !360, file: !360, line: 335, type: !487, flags: DIFlagPrototyped, spFlags: 0)
!487 = !DISubroutineType(types: !488)
!488 = !{!310, !310, !310, !310}
!489 = !DIImportedEntity(tag: DW_TAG_imported_declaration, scope: !164, entity: !490, file: !363, line: 1926)
!490 = !DISubprogram(name: "fmaf", scope: !360, file: !360, line: 335, type: !217, flags: DIFlagPrototyped, spFlags: 0)
!491 = !DIImportedEntity(tag: DW_TAG_imported_declaration, scope: !164, entity: !492, file: !363, line: 1927)
!492 = !DISubprogram(name: "fmal", scope: !360, file: !360, line: 335, type: !493, flags: DIFlagPrototyped, spFlags: 0)
!493 = !DISubroutineType(types: !494)
!494 = !{!428, !428, !428, !428}
!495 = !DIImportedEntity(tag: DW_TAG_imported_declaration, scope: !164, entity: !496, file: !363, line: 1929)
!496 = !DISubprogram(name: "fmax", scope: !360, file: !360, line: 329, type: !370, flags: DIFlagPrototyped, spFlags: 0)
!497 = !DIImportedEntity(tag: DW_TAG_imported_declaration, scope: !164, entity: !498, file: !363, line: 1930)
!498 = !DISubprogram(name: "fmaxf", scope: !360, file: !360, line: 329, type: !185, flags: DIFlagPrototyped, spFlags: 0)
!499 = !DIImportedEntity(tag: DW_TAG_imported_declaration, scope: !164, entity: !500, file: !363, line: 1931)
!500 = !DISubprogram(name: "fmaxl", scope: !360, file: !360, line: 329, type: !453, flags: DIFlagPrototyped, spFlags: 0)
!501 = !DIImportedEntity(tag: DW_TAG_imported_declaration, scope: !164, entity: !502, file: !363, line: 1933)
!502 = !DISubprogram(name: "fmin", scope: !360, file: !360, line: 332, type: !370, flags: DIFlagPrototyped, spFlags: 0)
!503 = !DIImportedEntity(tag: DW_TAG_imported_declaration, scope: !164, entity: !504, file: !363, line: 1934)
!504 = !DISubprogram(name: "fminf", scope: !360, file: !360, line: 332, type: !185, flags: DIFlagPrototyped, spFlags: 0)
!505 = !DIImportedEntity(tag: DW_TAG_imported_declaration, scope: !164, entity: !506, file: !363, line: 1935)
!506 = !DISubprogram(name: "fminl", scope: !360, file: !360, line: 332, type: !453, flags: DIFlagPrototyped, spFlags: 0)
!507 = !DIImportedEntity(tag: DW_TAG_imported_declaration, scope: !164, entity: !508, file: !363, line: 1937)
!508 = !DISubprogram(name: "hypot", scope: !360, file: !360, line: 147, type: !370, flags: DIFlagPrototyped, spFlags: 0)
!509 = !DIImportedEntity(tag: DW_TAG_imported_declaration, scope: !164, entity: !510, file: !363, line: 1938)
!510 = !DISubprogram(name: "hypotf", scope: !360, file: !360, line: 147, type: !185, flags: DIFlagPrototyped, spFlags: 0)
!511 = !DIImportedEntity(tag: DW_TAG_imported_declaration, scope: !164, entity: !512, file: !363, line: 1939)
!512 = !DISubprogram(name: "hypotl", scope: !360, file: !360, line: 147, type: !453, flags: DIFlagPrototyped, spFlags: 0)
!513 = !DIImportedEntity(tag: DW_TAG_imported_declaration, scope: !164, entity: !514, file: !363, line: 1941)
!514 = !DISubprogram(name: "ilogb", scope: !360, file: !360, line: 280, type: !515, flags: DIFlagPrototyped, spFlags: 0)
!515 = !DISubroutineType(types: !516)
!516 = !{!169, !310}
!517 = !DIImportedEntity(tag: DW_TAG_imported_declaration, scope: !164, entity: !518, file: !363, line: 1942)
!518 = !DISubprogram(name: "ilogbf", scope: !360, file: !360, line: 280, type: !227, flags: DIFlagPrototyped, spFlags: 0)
!519 = !DIImportedEntity(tag: DW_TAG_imported_declaration, scope: !164, entity: !520, file: !363, line: 1943)
!520 = !DISubprogram(name: "ilogbl", scope: !360, file: !360, line: 280, type: !521, flags: DIFlagPrototyped, spFlags: 0)
!521 = !DISubroutineType(types: !522)
!522 = !{!169, !428}
!523 = !DIImportedEntity(tag: DW_TAG_imported_declaration, scope: !164, entity: !524, file: !363, line: 1945)
!524 = !DISubprogram(name: "lgamma", scope: !360, file: !360, line: 230, type: !361, flags: DIFlagPrototyped, spFlags: 0)
!525 = !DIImportedEntity(tag: DW_TAG_imported_declaration, scope: !164, entity: !526, file: !363, line: 1946)
!526 = !DISubprogram(name: "lgammaf", scope: !360, file: !360, line: 230, type: !172, flags: DIFlagPrototyped, spFlags: 0)
!527 = !DIImportedEntity(tag: DW_TAG_imported_declaration, scope: !164, entity: !528, file: !363, line: 1947)
!528 = !DISubprogram(name: "lgammal", scope: !360, file: !360, line: 230, type: !426, flags: DIFlagPrototyped, spFlags: 0)
!529 = !DIImportedEntity(tag: DW_TAG_imported_declaration, scope: !164, entity: !530, file: !363, line: 1950)
!530 = !DISubprogram(name: "llrint", scope: !360, file: !360, line: 316, type: !531, flags: DIFlagPrototyped, spFlags: 0)
!531 = !DISubroutineType(types: !532)
!532 = !{!278, !310}
!533 = !DIImportedEntity(tag: DW_TAG_imported_declaration, scope: !164, entity: !534, file: !363, line: 1951)
!534 = !DISubprogram(name: "llrintf", scope: !360, file: !360, line: 316, type: !281, flags: DIFlagPrototyped, spFlags: 0)
!535 = !DIImportedEntity(tag: DW_TAG_imported_declaration, scope: !164, entity: !536, file: !363, line: 1952)
!536 = !DISubprogram(name: "llrintl", scope: !360, file: !360, line: 316, type: !537, flags: DIFlagPrototyped, spFlags: 0)
!537 = !DISubroutineType(types: !538)
!538 = !{!278, !428}
!539 = !DIImportedEntity(tag: DW_TAG_imported_declaration, scope: !164, entity: !540, file: !363, line: 1954)
!540 = !DISubprogram(name: "llround", scope: !360, file: !360, line: 322, type: !531, flags: DIFlagPrototyped, spFlags: 0)
!541 = !DIImportedEntity(tag: DW_TAG_imported_declaration, scope: !164, entity: !542, file: !363, line: 1955)
!542 = !DISubprogram(name: "llroundf", scope: !360, file: !360, line: 322, type: !281, flags: DIFlagPrototyped, spFlags: 0)
!543 = !DIImportedEntity(tag: DW_TAG_imported_declaration, scope: !164, entity: !544, file: !363, line: 1956)
!544 = !DISubprogram(name: "llroundl", scope: !360, file: !360, line: 322, type: !537, flags: DIFlagPrototyped, spFlags: 0)
!545 = !DIImportedEntity(tag: DW_TAG_imported_declaration, scope: !164, entity: !546, file: !363, line: 1959)
!546 = !DISubprogram(name: "log1p", scope: !360, file: !360, line: 122, type: !361, flags: DIFlagPrototyped, spFlags: 0)
!547 = !DIImportedEntity(tag: DW_TAG_imported_declaration, scope: !164, entity: !548, file: !363, line: 1960)
!548 = !DISubprogram(name: "log1pf", scope: !360, file: !360, line: 122, type: !172, flags: DIFlagPrototyped, spFlags: 0)
!549 = !DIImportedEntity(tag: DW_TAG_imported_declaration, scope: !164, entity: !550, file: !363, line: 1961)
!550 = !DISubprogram(name: "log1pl", scope: !360, file: !360, line: 122, type: !426, flags: DIFlagPrototyped, spFlags: 0)
!551 = !DIImportedEntity(tag: DW_TAG_imported_declaration, scope: !164, entity: !552, file: !363, line: 1963)
!552 = !DISubprogram(name: "log2", scope: !360, file: !360, line: 133, type: !361, flags: DIFlagPrototyped, spFlags: 0)
!553 = !DIImportedEntity(tag: DW_TAG_imported_declaration, scope: !164, entity: !554, file: !363, line: 1964)
!554 = !DISubprogram(name: "log2f", scope: !360, file: !360, line: 133, type: !172, flags: DIFlagPrototyped, spFlags: 0)
!555 = !DIImportedEntity(tag: DW_TAG_imported_declaration, scope: !164, entity: !556, file: !363, line: 1965)
!556 = !DISubprogram(name: "log2l", scope: !360, file: !360, line: 133, type: !426, flags: DIFlagPrototyped, spFlags: 0)
!557 = !DIImportedEntity(tag: DW_TAG_imported_declaration, scope: !164, entity: !558, file: !363, line: 1967)
!558 = !DISubprogram(name: "logb", scope: !360, file: !360, line: 125, type: !361, flags: DIFlagPrototyped, spFlags: 0)
!559 = !DIImportedEntity(tag: DW_TAG_imported_declaration, scope: !164, entity: !560, file: !363, line: 1968)
!560 = !DISubprogram(name: "logbf", scope: !360, file: !360, line: 125, type: !172, flags: DIFlagPrototyped, spFlags: 0)
!561 = !DIImportedEntity(tag: DW_TAG_imported_declaration, scope: !164, entity: !562, file: !363, line: 1969)
!562 = !DISubprogram(name: "logbl", scope: !360, file: !360, line: 125, type: !426, flags: DIFlagPrototyped, spFlags: 0)
!563 = !DIImportedEntity(tag: DW_TAG_imported_declaration, scope: !164, entity: !564, file: !363, line: 1971)
!564 = !DISubprogram(name: "lrint", scope: !360, file: !360, line: 314, type: !565, flags: DIFlagPrototyped, spFlags: 0)
!565 = !DISubroutineType(types: !566)
!566 = !{!267, !310}
!567 = !DIImportedEntity(tag: DW_TAG_imported_declaration, scope: !164, entity: !568, file: !363, line: 1972)
!568 = !DISubprogram(name: "lrintf", scope: !360, file: !360, line: 314, type: !295, flags: DIFlagPrototyped, spFlags: 0)
!569 = !DIImportedEntity(tag: DW_TAG_imported_declaration, scope: !164, entity: !570, file: !363, line: 1973)
!570 = !DISubprogram(name: "lrintl", scope: !360, file: !360, line: 314, type: !571, flags: DIFlagPrototyped, spFlags: 0)
!571 = !DISubroutineType(types: !572)
!572 = !{!267, !428}
!573 = !DIImportedEntity(tag: DW_TAG_imported_declaration, scope: !164, entity: !574, file: !363, line: 1975)
!574 = !DISubprogram(name: "lround", scope: !360, file: !360, line: 320, type: !565, flags: DIFlagPrototyped, spFlags: 0)
!575 = !DIImportedEntity(tag: DW_TAG_imported_declaration, scope: !164, entity: !576, file: !363, line: 1976)
!576 = !DISubprogram(name: "lroundf", scope: !360, file: !360, line: 320, type: !295, flags: DIFlagPrototyped, spFlags: 0)
!577 = !DIImportedEntity(tag: DW_TAG_imported_declaration, scope: !164, entity: !578, file: !363, line: 1977)
!578 = !DISubprogram(name: "lroundl", scope: !360, file: !360, line: 320, type: !571, flags: DIFlagPrototyped, spFlags: 0)
!579 = !DIImportedEntity(tag: DW_TAG_imported_declaration, scope: !164, entity: !580, file: !363, line: 1979)
!580 = !DISubprogram(name: "nan", scope: !360, file: !360, line: 201, type: !308, flags: DIFlagPrototyped, spFlags: 0)
!581 = !DIImportedEntity(tag: DW_TAG_imported_declaration, scope: !164, entity: !582, file: !363, line: 1980)
!582 = !DISubprogram(name: "nanf", scope: !360, file: !360, line: 201, type: !314, flags: DIFlagPrototyped, spFlags: 0)
!583 = !DIImportedEntity(tag: DW_TAG_imported_declaration, scope: !164, entity: !584, file: !363, line: 1981)
!584 = !DISubprogram(name: "nanl", scope: !360, file: !360, line: 201, type: !585, flags: DIFlagPrototyped, spFlags: 0)
!585 = !DISubroutineType(types: !586)
!586 = !{!428, !311}
!587 = !DIImportedEntity(tag: DW_TAG_imported_declaration, scope: !164, entity: !588, file: !363, line: 1983)
!588 = !DISubprogram(name: "nearbyint", scope: !360, file: !360, line: 294, type: !361, flags: DIFlagPrototyped, spFlags: 0)
!589 = !DIImportedEntity(tag: DW_TAG_imported_declaration, scope: !164, entity: !590, file: !363, line: 1984)
!590 = !DISubprogram(name: "nearbyintf", scope: !360, file: !360, line: 294, type: !172, flags: DIFlagPrototyped, spFlags: 0)
!591 = !DIImportedEntity(tag: DW_TAG_imported_declaration, scope: !164, entity: !592, file: !363, line: 1985)
!592 = !DISubprogram(name: "nearbyintl", scope: !360, file: !360, line: 294, type: !426, flags: DIFlagPrototyped, spFlags: 0)
!593 = !DIImportedEntity(tag: DW_TAG_imported_declaration, scope: !164, entity: !594, file: !363, line: 1987)
!594 = !DISubprogram(name: "nextafter", scope: !360, file: !360, line: 259, type: !370, flags: DIFlagPrototyped, spFlags: 0)
!595 = !DIImportedEntity(tag: DW_TAG_imported_declaration, scope: !164, entity: !596, file: !363, line: 1988)
!596 = !DISubprogram(name: "nextafterf", scope: !360, file: !360, line: 259, type: !185, flags: DIFlagPrototyped, spFlags: 0)
!597 = !DIImportedEntity(tag: DW_TAG_imported_declaration, scope: !164, entity: !598, file: !363, line: 1989)
!598 = !DISubprogram(name: "nextafterl", scope: !360, file: !360, line: 259, type: !453, flags: DIFlagPrototyped, spFlags: 0)
!599 = !DIImportedEntity(tag: DW_TAG_imported_declaration, scope: !164, entity: !600, file: !363, line: 1991)
!600 = !DISubprogram(name: "nexttoward", scope: !360, file: !360, line: 261, type: !601, flags: DIFlagPrototyped, spFlags: 0)
!601 = !DISubroutineType(types: !602)
!602 = !{!310, !310, !428}
!603 = !DIImportedEntity(tag: DW_TAG_imported_declaration, scope: !164, entity: !604, file: !363, line: 1992)
!604 = !DISubprogram(name: "nexttowardf", scope: !360, file: !360, line: 261, type: !605, flags: DIFlagPrototyped, spFlags: 0)
!605 = !DISubroutineType(types: !606)
!606 = !{!174, !174, !428}
!607 = !DIImportedEntity(tag: DW_TAG_imported_declaration, scope: !164, entity: !608, file: !363, line: 1993)
!608 = !DISubprogram(name: "nexttowardl", scope: !360, file: !360, line: 261, type: !453, flags: DIFlagPrototyped, spFlags: 0)
!609 = !DIImportedEntity(tag: DW_TAG_imported_declaration, scope: !164, entity: !610, file: !363, line: 1995)
!610 = !DISubprogram(name: "remainder", scope: !360, file: !360, line: 272, type: !370, flags: DIFlagPrototyped, spFlags: 0)
!611 = !DIImportedEntity(tag: DW_TAG_imported_declaration, scope: !164, entity: !612, file: !363, line: 1996)
!612 = !DISubprogram(name: "remainderf", scope: !360, file: !360, line: 272, type: !185, flags: DIFlagPrototyped, spFlags: 0)
!613 = !DIImportedEntity(tag: DW_TAG_imported_declaration, scope: !164, entity: !614, file: !363, line: 1997)
!614 = !DISubprogram(name: "remainderl", scope: !360, file: !360, line: 272, type: !453, flags: DIFlagPrototyped, spFlags: 0)
!615 = !DIImportedEntity(tag: DW_TAG_imported_declaration, scope: !164, entity: !616, file: !363, line: 1999)
!616 = !DISubprogram(name: "remquo", scope: !360, file: !360, line: 307, type: !617, flags: DIFlagPrototyped, spFlags: 0)
!617 = !DISubroutineType(types: !618)
!618 = !{!310, !310, !310, !233}
!619 = !DIImportedEntity(tag: DW_TAG_imported_declaration, scope: !164, entity: !620, file: !363, line: 2000)
!620 = !DISubprogram(name: "remquof", scope: !360, file: !360, line: 307, type: !326, flags: DIFlagPrototyped, spFlags: 0)
!621 = !DIImportedEntity(tag: DW_TAG_imported_declaration, scope: !164, entity: !622, file: !363, line: 2001)
!622 = !DISubprogram(name: "remquol", scope: !360, file: !360, line: 307, type: !623, flags: DIFlagPrototyped, spFlags: 0)
!623 = !DISubroutineType(types: !624)
!624 = !{!428, !428, !428, !233}
!625 = !DIImportedEntity(tag: DW_TAG_imported_declaration, scope: !164, entity: !626, file: !363, line: 2003)
!626 = !DISubprogram(name: "rint", scope: !360, file: !360, line: 256, type: !361, flags: DIFlagPrototyped, spFlags: 0)
!627 = !DIImportedEntity(tag: DW_TAG_imported_declaration, scope: !164, entity: !628, file: !363, line: 2004)
!628 = !DISubprogram(name: "rintf", scope: !360, file: !360, line: 256, type: !172, flags: DIFlagPrototyped, spFlags: 0)
!629 = !DIImportedEntity(tag: DW_TAG_imported_declaration, scope: !164, entity: !630, file: !363, line: 2005)
!630 = !DISubprogram(name: "rintl", scope: !360, file: !360, line: 256, type: !426, flags: DIFlagPrototyped, spFlags: 0)
!631 = !DIImportedEntity(tag: DW_TAG_imported_declaration, scope: !164, entity: !632, file: !363, line: 2007)
!632 = !DISubprogram(name: "round", scope: !360, file: !360, line: 298, type: !361, flags: DIFlagPrototyped, spFlags: 0)
!633 = !DIImportedEntity(tag: DW_TAG_imported_declaration, scope: !164, entity: !634, file: !363, line: 2008)
!634 = !DISubprogram(name: "roundf", scope: !360, file: !360, line: 298, type: !172, flags: DIFlagPrototyped, spFlags: 0)
!635 = !DIImportedEntity(tag: DW_TAG_imported_declaration, scope: !164, entity: !636, file: !363, line: 2009)
!636 = !DISubprogram(name: "roundl", scope: !360, file: !360, line: 298, type: !426, flags: DIFlagPrototyped, spFlags: 0)
!637 = !DIImportedEntity(tag: DW_TAG_imported_declaration, scope: !164, entity: !638, file: !363, line: 2011)
!638 = !DISubprogram(name: "scalbln", scope: !360, file: !360, line: 290, type: !639, flags: DIFlagPrototyped, spFlags: 0)
!639 = !DISubroutineType(types: !640)
!640 = !{!310, !310, !267}
!641 = !DIImportedEntity(tag: DW_TAG_imported_declaration, scope: !164, entity: !642, file: !363, line: 2012)
!642 = !DISubprogram(name: "scalblnf", scope: !360, file: !360, line: 290, type: !334, flags: DIFlagPrototyped, spFlags: 0)
!643 = !DIImportedEntity(tag: DW_TAG_imported_declaration, scope: !164, entity: !644, file: !363, line: 2013)
!644 = !DISubprogram(name: "scalblnl", scope: !360, file: !360, line: 290, type: !645, flags: DIFlagPrototyped, spFlags: 0)
!645 = !DISubroutineType(types: !646)
!646 = !{!428, !428, !267}
!647 = !DIImportedEntity(tag: DW_TAG_imported_declaration, scope: !164, entity: !648, file: !363, line: 2015)
!648 = !DISubprogram(name: "scalbn", scope: !360, file: !360, line: 276, type: !392, flags: DIFlagPrototyped, spFlags: 0)
!649 = !DIImportedEntity(tag: DW_TAG_imported_declaration, scope: !164, entity: !650, file: !363, line: 2016)
!650 = !DISubprogram(name: "scalbnf", scope: !360, file: !360, line: 276, type: !270, flags: DIFlagPrototyped, spFlags: 0)
!651 = !DIImportedEntity(tag: DW_TAG_imported_declaration, scope: !164, entity: !652, file: !363, line: 2017)
!652 = !DISubprogram(name: "scalbnl", scope: !360, file: !360, line: 276, type: !653, flags: DIFlagPrototyped, spFlags: 0)
!653 = !DISubroutineType(types: !654)
!654 = !{!428, !428, !169}
!655 = !DIImportedEntity(tag: DW_TAG_imported_declaration, scope: !164, entity: !656, file: !363, line: 2019)
!656 = !DISubprogram(name: "tgamma", scope: !360, file: !360, line: 235, type: !361, flags: DIFlagPrototyped, spFlags: 0)
!657 = !DIImportedEntity(tag: DW_TAG_imported_declaration, scope: !164, entity: !658, file: !363, line: 2020)
!658 = !DISubprogram(name: "tgammaf", scope: !360, file: !360, line: 235, type: !172, flags: DIFlagPrototyped, spFlags: 0)
!659 = !DIImportedEntity(tag: DW_TAG_imported_declaration, scope: !164, entity: !660, file: !363, line: 2021)
!660 = !DISubprogram(name: "tgammal", scope: !360, file: !360, line: 235, type: !426, flags: DIFlagPrototyped, spFlags: 0)
!661 = !DIImportedEntity(tag: DW_TAG_imported_declaration, scope: !164, entity: !662, file: !363, line: 2023)
!662 = !DISubprogram(name: "trunc", scope: !360, file: !360, line: 302, type: !361, flags: DIFlagPrototyped, spFlags: 0)
!663 = !DIImportedEntity(tag: DW_TAG_imported_declaration, scope: !164, entity: !664, file: !363, line: 2024)
!664 = !DISubprogram(name: "truncf", scope: !360, file: !360, line: 302, type: !172, flags: DIFlagPrototyped, spFlags: 0)
!665 = !DIImportedEntity(tag: DW_TAG_imported_declaration, scope: !164, entity: !666, file: !363, line: 2025)
!666 = !DISubprogram(name: "truncl", scope: !360, file: !360, line: 302, type: !426, flags: DIFlagPrototyped, spFlags: 0)
!667 = !DIImportedEntity(tag: DW_TAG_imported_declaration, scope: !164, entity: !668, file: !670, line: 131)
!668 = !DIDerivedType(tag: DW_TAG_typedef, name: "div_t", file: !356, line: 62, baseType: !669)
!669 = !DICompositeType(tag: DW_TAG_structure_type, file: !356, line: 58, size: 64, flags: DIFlagFwdDecl, identifier: "_ZTS5div_t")
!670 = !DIFile(filename: "/usr/lib/gcc/x86_64-linux-gnu/13/../../../../include/c++/13/cstdlib", directory: "")
!671 = !DIImportedEntity(tag: DW_TAG_imported_declaration, scope: !164, entity: !672, file: !670, line: 132)
!672 = !DIDerivedType(tag: DW_TAG_typedef, name: "ldiv_t", file: !356, line: 70, baseType: !673)
!673 = distinct !DICompositeType(tag: DW_TAG_structure_type, file: !356, line: 66, size: 128, flags: DIFlagTypePassByValue, elements: !674, identifier: "_ZTS6ldiv_t")
!674 = !{!675, !676}
!675 = !DIDerivedType(tag: DW_TAG_member, name: "quot", scope: !673, file: !356, line: 68, baseType: !267, size: 64)
!676 = !DIDerivedType(tag: DW_TAG_member, name: "rem", scope: !673, file: !356, line: 69, baseType: !267, size: 64, offset: 64)
!677 = !DIImportedEntity(tag: DW_TAG_imported_declaration, scope: !164, entity: !678, file: !670, line: 134)
!678 = !DISubprogram(name: "abort", scope: !356, file: !356, line: 591, type: !679, flags: DIFlagPrototyped | DIFlagNoReturn, spFlags: 0)
!679 = !DISubroutineType(types: !680)
!680 = !{null}
!681 = !DIImportedEntity(tag: DW_TAG_imported_declaration, scope: !164, entity: !682, file: !670, line: 138)
!682 = !DISubprogram(name: "atexit", scope: !356, file: !356, line: 595, type: !683, flags: DIFlagPrototyped, spFlags: 0)
!683 = !DISubroutineType(types: !684)
!684 = !{!169, !685}
!685 = !DIDerivedType(tag: DW_TAG_pointer_type, baseType: !679, size: 64)
!686 = !DIImportedEntity(tag: DW_TAG_imported_declaration, scope: !164, entity: !687, file: !670, line: 141)
!687 = !DISubprogram(name: "at_quick_exit", scope: !356, file: !356, line: 600, type: !683, flags: DIFlagPrototyped, spFlags: 0)
!688 = !DIImportedEntity(tag: DW_TAG_imported_declaration, scope: !164, entity: !689, file: !670, line: 144)
!689 = !DISubprogram(name: "atof", scope: !356, file: !356, line: 101, type: !308, flags: DIFlagPrototyped, spFlags: 0)
!690 = !DIImportedEntity(tag: DW_TAG_imported_declaration, scope: !164, entity: !691, file: !670, line: 145)
!691 = !DISubprogram(name: "atoi", scope: !356, file: !356, line: 104, type: !692, flags: DIFlagPrototyped, spFlags: 0)
!692 = !DISubroutineType(types: !693)
!693 = !{!169, !311}
!694 = !DIImportedEntity(tag: DW_TAG_imported_declaration, scope: !164, entity: !695, file: !670, line: 146)
!695 = !DISubprogram(name: "atol", scope: !356, file: !356, line: 107, type: !696, flags: DIFlagPrototyped, spFlags: 0)
!696 = !DISubroutineType(types: !697)
!697 = !{!267, !311}
!698 = !DIImportedEntity(tag: DW_TAG_imported_declaration, scope: !164, entity: !699, file: !670, line: 147)
!699 = !DISubprogram(name: "bsearch", scope: !356, file: !356, line: 820, type: !700, flags: DIFlagPrototyped, spFlags: 0)
!700 = !DISubroutineType(types: !701)
!701 = !{!702, !703, !703, !705, !705, !708}
!702 = !DIDerivedType(tag: DW_TAG_pointer_type, baseType: null, size: 64)
!703 = !DIDerivedType(tag: DW_TAG_pointer_type, baseType: !704, size: 64)
!704 = !DIDerivedType(tag: DW_TAG_const_type, baseType: null)
!705 = !DIDerivedType(tag: DW_TAG_typedef, name: "size_t", file: !706, line: 18, baseType: !707)
!706 = !DIFile(filename: "llvm-vortex-with-cuda-build/lib/clang/18/include/__stddef_size_t.h", directory: "/nethome/cahn45")
!707 = !DIBasicType(name: "unsigned long", size: 64, encoding: DW_ATE_unsigned)
!708 = !DIDerivedType(tag: DW_TAG_typedef, name: "__compar_fn_t", file: !356, line: 808, baseType: !709)
!709 = !DIDerivedType(tag: DW_TAG_pointer_type, baseType: !710, size: 64)
!710 = !DISubroutineType(types: !711)
!711 = !{!169, !703, !703}
!712 = !DIImportedEntity(tag: DW_TAG_imported_declaration, scope: !164, entity: !713, file: !670, line: 148)
!713 = !DISubprogram(name: "calloc", scope: !356, file: !356, line: 542, type: !714, flags: DIFlagPrototyped, spFlags: 0)
!714 = !DISubroutineType(types: !715)
!715 = !{!702, !705, !705}
!716 = !DIImportedEntity(tag: DW_TAG_imported_declaration, scope: !164, entity: !717, file: !670, line: 149)
!717 = !DISubprogram(name: "div", scope: !356, file: !356, line: 852, type: !718, flags: DIFlagPrototyped, spFlags: 0)
!718 = !DISubroutineType(types: !719)
!719 = !{!668, !169, !169}
!720 = !DIImportedEntity(tag: DW_TAG_imported_declaration, scope: !164, entity: !721, file: !670, line: 150)
!721 = !DISubprogram(name: "exit", scope: !356, file: !356, line: 617, type: !722, flags: DIFlagPrototyped | DIFlagNoReturn, spFlags: 0)
!722 = !DISubroutineType(types: !723)
!723 = !{null, !169}
!724 = !DIImportedEntity(tag: DW_TAG_imported_declaration, scope: !164, entity: !725, file: !670, line: 151)
!725 = !DISubprogram(name: "free", scope: !356, file: !356, line: 565, type: !726, flags: DIFlagPrototyped, spFlags: 0)
!726 = !DISubroutineType(types: !727)
!727 = !{null, !702}
!728 = !DIImportedEntity(tag: DW_TAG_imported_declaration, scope: !164, entity: !729, file: !670, line: 152)
!729 = !DISubprogram(name: "getenv", scope: !356, file: !356, line: 634, type: !730, flags: DIFlagPrototyped, spFlags: 0)
!730 = !DISubroutineType(types: !731)
!731 = !{!732, !311}
!732 = !DIDerivedType(tag: DW_TAG_pointer_type, baseType: !5, size: 64)
!733 = !DIImportedEntity(tag: DW_TAG_imported_declaration, scope: !164, entity: !734, file: !670, line: 153)
!734 = !DISubprogram(name: "labs", scope: !356, file: !356, line: 841, type: !265, flags: DIFlagPrototyped, spFlags: 0)
!735 = !DIImportedEntity(tag: DW_TAG_imported_declaration, scope: !164, entity: !736, file: !670, line: 154)
!736 = !DISubprogram(name: "ldiv", scope: !356, file: !356, line: 854, type: !737, flags: DIFlagPrototyped, spFlags: 0)
!737 = !DISubroutineType(types: !738)
!738 = !{!672, !267, !267}
!739 = !DIImportedEntity(tag: DW_TAG_imported_declaration, scope: !164, entity: !740, file: !670, line: 155)
!740 = !DISubprogram(name: "malloc", scope: !356, file: !356, line: 539, type: !741, flags: DIFlagPrototyped, spFlags: 0)
!741 = !DISubroutineType(types: !742)
!742 = !{!702, !705}
!743 = !DIImportedEntity(tag: DW_TAG_imported_declaration, scope: !164, entity: !744, file: !670, line: 157)
!744 = !DISubprogram(name: "mblen", scope: !356, file: !356, line: 922, type: !745, flags: DIFlagPrototyped, spFlags: 0)
!745 = !DISubroutineType(types: !746)
!746 = !{!169, !311, !705}
!747 = !DIImportedEntity(tag: DW_TAG_imported_declaration, scope: !164, entity: !748, file: !670, line: 158)
!748 = !DISubprogram(name: "mbstowcs", scope: !356, file: !356, line: 933, type: !749, flags: DIFlagPrototyped, spFlags: 0)
!749 = !DISubroutineType(types: !750)
!750 = !{!705, !751, !754, !705}
!751 = !DIDerivedType(tag: DW_TAG_restrict_type, baseType: !752)
!752 = !DIDerivedType(tag: DW_TAG_pointer_type, baseType: !753, size: 64)
!753 = !DIBasicType(name: "wchar_t", size: 32, encoding: DW_ATE_signed)
!754 = !DIDerivedType(tag: DW_TAG_restrict_type, baseType: !311)
!755 = !DIImportedEntity(tag: DW_TAG_imported_declaration, scope: !164, entity: !756, file: !670, line: 159)
!756 = !DISubprogram(name: "mbtowc", scope: !356, file: !356, line: 925, type: !757, flags: DIFlagPrototyped, spFlags: 0)
!757 = !DISubroutineType(types: !758)
!758 = !{!169, !751, !754, !705}
!759 = !DIImportedEntity(tag: DW_TAG_imported_declaration, scope: !164, entity: !760, file: !670, line: 161)
!760 = !DISubprogram(name: "qsort", scope: !356, file: !356, line: 830, type: !761, flags: DIFlagPrototyped, spFlags: 0)
!761 = !DISubroutineType(types: !762)
!762 = !{null, !702, !705, !705, !708}
!763 = !DIImportedEntity(tag: DW_TAG_imported_declaration, scope: !164, entity: !764, file: !670, line: 164)
!764 = !DISubprogram(name: "quick_exit", scope: !356, file: !356, line: 623, type: !722, flags: DIFlagPrototyped | DIFlagNoReturn, spFlags: 0)
!765 = !DIImportedEntity(tag: DW_TAG_imported_declaration, scope: !164, entity: !766, file: !670, line: 167)
!766 = !DISubprogram(name: "rand", scope: !356, file: !356, line: 453, type: !767, flags: DIFlagPrototyped, spFlags: 0)
!767 = !DISubroutineType(types: !768)
!768 = !{!169}
!769 = !DIImportedEntity(tag: DW_TAG_imported_declaration, scope: !164, entity: !770, file: !670, line: 168)
!770 = !DISubprogram(name: "realloc", scope: !356, file: !356, line: 550, type: !771, flags: DIFlagPrototyped, spFlags: 0)
!771 = !DISubroutineType(types: !772)
!772 = !{!702, !702, !705}
!773 = !DIImportedEntity(tag: DW_TAG_imported_declaration, scope: !164, entity: !774, file: !670, line: 169)
!774 = !DISubprogram(name: "srand", scope: !356, file: !356, line: 455, type: !775, flags: DIFlagPrototyped, spFlags: 0)
!775 = !DISubroutineType(types: !776)
!776 = !{null, !53}
!777 = !DIImportedEntity(tag: DW_TAG_imported_declaration, scope: !164, entity: !778, file: !670, line: 170)
!778 = !DISubprogram(name: "strtod", scope: !356, file: !356, line: 117, type: !779, flags: DIFlagPrototyped, spFlags: 0)
!779 = !DISubroutineType(types: !780)
!780 = !{!310, !754, !781}
!781 = !DIDerivedType(tag: DW_TAG_restrict_type, baseType: !782)
!782 = !DIDerivedType(tag: DW_TAG_pointer_type, baseType: !732, size: 64)
!783 = !DIImportedEntity(tag: DW_TAG_imported_declaration, scope: !164, entity: !784, file: !670, line: 171)
!784 = !DISubprogram(name: "strtol", scope: !356, file: !356, line: 176, type: !785, flags: DIFlagPrototyped, spFlags: 0)
!785 = !DISubroutineType(types: !786)
!786 = !{!267, !754, !781, !169}
!787 = !DIImportedEntity(tag: DW_TAG_imported_declaration, scope: !164, entity: !788, file: !670, line: 172)
!788 = !DISubprogram(name: "strtoul", scope: !356, file: !356, line: 180, type: !789, flags: DIFlagPrototyped, spFlags: 0)
!789 = !DISubroutineType(types: !790)
!790 = !{!707, !754, !781, !169}
!791 = !DIImportedEntity(tag: DW_TAG_imported_declaration, scope: !164, entity: !792, file: !670, line: 173)
!792 = !DISubprogram(name: "system", scope: !356, file: !356, line: 784, type: !692, flags: DIFlagPrototyped, spFlags: 0)
!793 = !DIImportedEntity(tag: DW_TAG_imported_declaration, scope: !164, entity: !794, file: !670, line: 175)
!794 = !DISubprogram(name: "wcstombs", scope: !356, file: !356, line: 936, type: !795, flags: DIFlagPrototyped, spFlags: 0)
!795 = !DISubroutineType(types: !796)
!796 = !{!705, !797, !798, !705}
!797 = !DIDerivedType(tag: DW_TAG_restrict_type, baseType: !732)
!798 = !DIDerivedType(tag: DW_TAG_restrict_type, baseType: !799)
!799 = !DIDerivedType(tag: DW_TAG_pointer_type, baseType: !800, size: 64)
!800 = !DIDerivedType(tag: DW_TAG_const_type, baseType: !753)
!801 = !DIImportedEntity(tag: DW_TAG_imported_declaration, scope: !164, entity: !802, file: !670, line: 176)
!802 = !DISubprogram(name: "wctomb", scope: !356, file: !356, line: 929, type: !803, flags: DIFlagPrototyped, spFlags: 0)
!803 = !DISubroutineType(types: !804)
!804 = !{!169, !732, !753}
!805 = !DIImportedEntity(tag: DW_TAG_imported_declaration, scope: !806, entity: !807, file: !670, line: 204)
!806 = !DINamespace(name: "__gnu_cxx", scope: null)
!807 = !DIDerivedType(tag: DW_TAG_typedef, name: "lldiv_t", file: !356, line: 80, baseType: !808)
!808 = distinct !DICompositeType(tag: DW_TAG_structure_type, file: !356, line: 76, size: 128, flags: DIFlagTypePassByValue, elements: !809, identifier: "_ZTS7lldiv_t")
!809 = !{!810, !811}
!810 = !DIDerivedType(tag: DW_TAG_member, name: "quot", scope: !808, file: !356, line: 78, baseType: !278, size: 64)
!811 = !DIDerivedType(tag: DW_TAG_member, name: "rem", scope: !808, file: !356, line: 79, baseType: !278, size: 64, offset: 64)
!812 = !DIImportedEntity(tag: DW_TAG_imported_declaration, scope: !806, entity: !813, file: !670, line: 210)
!813 = !DISubprogram(name: "_Exit", scope: !356, file: !356, line: 629, type: !722, flags: DIFlagPrototyped | DIFlagNoReturn, spFlags: 0)
!814 = !DIImportedEntity(tag: DW_TAG_imported_declaration, scope: !806, entity: !815, file: !670, line: 214)
!815 = !DISubprogram(name: "llabs", scope: !356, file: !356, line: 844, type: !276, flags: DIFlagPrototyped, spFlags: 0)
!816 = !DIImportedEntity(tag: DW_TAG_imported_declaration, scope: !806, entity: !817, file: !670, line: 220)
!817 = !DISubprogram(name: "lldiv", scope: !356, file: !356, line: 858, type: !818, flags: DIFlagPrototyped, spFlags: 0)
!818 = !DISubroutineType(types: !819)
!819 = !{!807, !278, !278}
!820 = !DIImportedEntity(tag: DW_TAG_imported_declaration, scope: !806, entity: !821, file: !670, line: 231)
!821 = !DISubprogram(name: "atoll", scope: !356, file: !356, line: 112, type: !822, flags: DIFlagPrototyped, spFlags: 0)
!822 = !DISubroutineType(types: !823)
!823 = !{!278, !311}
!824 = !DIImportedEntity(tag: DW_TAG_imported_declaration, scope: !806, entity: !825, file: !670, line: 232)
!825 = !DISubprogram(name: "strtoll", scope: !356, file: !356, line: 200, type: !826, flags: DIFlagPrototyped, spFlags: 0)
!826 = !DISubroutineType(types: !827)
!827 = !{!278, !754, !781, !169}
!828 = !DIImportedEntity(tag: DW_TAG_imported_declaration, scope: !806, entity: !829, file: !670, line: 233)
!829 = !DISubprogram(name: "strtoull", scope: !356, file: !356, line: 205, type: !830, flags: DIFlagPrototyped, spFlags: 0)
!830 = !DISubroutineType(types: !831)
!831 = !{!23, !754, !781, !169}
!832 = !DIImportedEntity(tag: DW_TAG_imported_declaration, scope: !806, entity: !833, file: !670, line: 235)
!833 = !DISubprogram(name: "strtof", scope: !356, file: !356, line: 123, type: !834, flags: DIFlagPrototyped, spFlags: 0)
!834 = !DISubroutineType(types: !835)
!835 = !{!174, !754, !781}
!836 = !DIImportedEntity(tag: DW_TAG_imported_declaration, scope: !806, entity: !837, file: !670, line: 236)
!837 = !DISubprogram(name: "strtold", scope: !356, file: !356, line: 126, type: !838, flags: DIFlagPrototyped, spFlags: 0)
!838 = !DISubroutineType(types: !839)
!839 = !{!428, !754, !781}
!840 = !DIImportedEntity(tag: DW_TAG_imported_declaration, scope: !164, entity: !807, file: !670, line: 244)
!841 = !DIImportedEntity(tag: DW_TAG_imported_declaration, scope: !164, entity: !813, file: !670, line: 246)
!842 = !DIImportedEntity(tag: DW_TAG_imported_declaration, scope: !164, entity: !815, file: !670, line: 248)
!843 = !DIImportedEntity(tag: DW_TAG_imported_declaration, scope: !164, entity: !844, file: !670, line: 249)
!844 = !DISubprogram(name: "div", linkageName: "_ZN9__gnu_cxx3divExx", scope: !806, file: !670, line: 217, type: !818, flags: DIFlagPrototyped, spFlags: 0)
!845 = !DIImportedEntity(tag: DW_TAG_imported_declaration, scope: !164, entity: !817, file: !670, line: 250)
!846 = !DIImportedEntity(tag: DW_TAG_imported_declaration, scope: !164, entity: !821, file: !670, line: 252)
!847 = !DIImportedEntity(tag: DW_TAG_imported_declaration, scope: !164, entity: !833, file: !670, line: 253)
!848 = !DIImportedEntity(tag: DW_TAG_imported_declaration, scope: !164, entity: !825, file: !670, line: 254)
!849 = !DIImportedEntity(tag: DW_TAG_imported_declaration, scope: !164, entity: !829, file: !670, line: 255)
!850 = !DIImportedEntity(tag: DW_TAG_imported_declaration, scope: !164, entity: !837, file: !670, line: 256)
!851 = !DIImportedEntity(tag: DW_TAG_imported_declaration, scope: !14, entity: !678, file: !852, line: 38)
!852 = !DIFile(filename: "/usr/lib/gcc/x86_64-linux-gnu/13/../../../../include/c++/13/stdlib.h", directory: "")
!853 = !DIImportedEntity(tag: DW_TAG_imported_declaration, scope: !14, entity: !682, file: !852, line: 39)
!854 = !DIImportedEntity(tag: DW_TAG_imported_declaration, scope: !14, entity: !721, file: !852, line: 40)
!855 = !DIImportedEntity(tag: DW_TAG_imported_declaration, scope: !14, entity: !687, file: !852, line: 43)
!856 = !DIImportedEntity(tag: DW_TAG_imported_declaration, scope: !14, entity: !764, file: !852, line: 46)
!857 = !DIImportedEntity(tag: DW_TAG_imported_declaration, scope: !14, entity: !813, file: !852, line: 49)
!858 = !DIImportedEntity(tag: DW_TAG_imported_declaration, scope: !14, entity: !668, file: !852, line: 54)
!859 = !DIImportedEntity(tag: DW_TAG_imported_declaration, scope: !14, entity: !672, file: !852, line: 55)
!860 = !DIImportedEntity(tag: DW_TAG_imported_declaration, scope: !14, entity: !861, file: !852, line: 57)
!861 = !DISubprogram(name: "abs", linkageName: "_ZSt3abse", scope: !164, file: !357, line: 79, type: !426, flags: DIFlagPrototyped, spFlags: 0)
!862 = !DIImportedEntity(tag: DW_TAG_imported_declaration, scope: !14, entity: !689, file: !852, line: 58)
!863 = !DIImportedEntity(tag: DW_TAG_imported_declaration, scope: !14, entity: !691, file: !852, line: 59)
!864 = !DIImportedEntity(tag: DW_TAG_imported_declaration, scope: !14, entity: !695, file: !852, line: 60)
!865 = !DIImportedEntity(tag: DW_TAG_imported_declaration, scope: !14, entity: !699, file: !852, line: 61)
!866 = !DIImportedEntity(tag: DW_TAG_imported_declaration, scope: !14, entity: !713, file: !852, line: 62)
!867 = !DIImportedEntity(tag: DW_TAG_imported_declaration, scope: !14, entity: !844, file: !852, line: 63)
!868 = !DIImportedEntity(tag: DW_TAG_imported_declaration, scope: !14, entity: !725, file: !852, line: 64)
!869 = !DIImportedEntity(tag: DW_TAG_imported_declaration, scope: !14, entity: !729, file: !852, line: 65)
!870 = !DIImportedEntity(tag: DW_TAG_imported_declaration, scope: !14, entity: !734, file: !852, line: 66)
!871 = !DIImportedEntity(tag: DW_TAG_imported_declaration, scope: !14, entity: !736, file: !852, line: 67)
!872 = !DIImportedEntity(tag: DW_TAG_imported_declaration, scope: !14, entity: !740, file: !852, line: 68)
!873 = !DIImportedEntity(tag: DW_TAG_imported_declaration, scope: !14, entity: !744, file: !852, line: 70)
!874 = !DIImportedEntity(tag: DW_TAG_imported_declaration, scope: !14, entity: !748, file: !852, line: 71)
!875 = !DIImportedEntity(tag: DW_TAG_imported_declaration, scope: !14, entity: !756, file: !852, line: 72)
!876 = !DIImportedEntity(tag: DW_TAG_imported_declaration, scope: !14, entity: !760, file: !852, line: 74)
!877 = !DIImportedEntity(tag: DW_TAG_imported_declaration, scope: !14, entity: !766, file: !852, line: 75)
!878 = !DIImportedEntity(tag: DW_TAG_imported_declaration, scope: !14, entity: !770, file: !852, line: 76)
!879 = !DIImportedEntity(tag: DW_TAG_imported_declaration, scope: !14, entity: !774, file: !852, line: 77)
!880 = !DIImportedEntity(tag: DW_TAG_imported_declaration, scope: !14, entity: !778, file: !852, line: 78)
!881 = !DIImportedEntity(tag: DW_TAG_imported_declaration, scope: !14, entity: !784, file: !852, line: 79)
!882 = !DIImportedEntity(tag: DW_TAG_imported_declaration, scope: !14, entity: !788, file: !852, line: 80)
!883 = !DIImportedEntity(tag: DW_TAG_imported_declaration, scope: !14, entity: !792, file: !852, line: 81)
!884 = !DIImportedEntity(tag: DW_TAG_imported_declaration, scope: !14, entity: !794, file: !852, line: 83)
!885 = !DIImportedEntity(tag: DW_TAG_imported_declaration, scope: !14, entity: !802, file: !852, line: 84)
!886 = !DIImportedEntity(tag: DW_TAG_imported_declaration, scope: !164, entity: !887, file: !889, line: 443)
!887 = !DISubprogram(name: "acosf", linkageName: "_ZL5acosff", scope: !888, file: !888, line: 59, type: !172, flags: DIFlagPrototyped, spFlags: DISPFlagLocalToUnit)
!888 = !DIFile(filename: "llvm-vortex-with-cuda-build/lib/clang/18/include/__clang_cuda_math.h", directory: "/nethome/cahn45")
!889 = !DIFile(filename: "llvm-vortex-with-cuda-build/lib/clang/18/include/__clang_cuda_cmath.h", directory: "/nethome/cahn45")
!890 = !DIImportedEntity(tag: DW_TAG_imported_declaration, scope: !164, entity: !891, file: !889, line: 444)
!891 = !DISubprogram(name: "acoshf", linkageName: "_ZL6acoshff", scope: !888, file: !888, line: 61, type: !172, flags: DIFlagPrototyped, spFlags: DISPFlagLocalToUnit)
!892 = !DIImportedEntity(tag: DW_TAG_imported_declaration, scope: !164, entity: !893, file: !889, line: 445)
!893 = !DISubprogram(name: "asinf", linkageName: "_ZL5asinff", scope: !888, file: !888, line: 63, type: !172, flags: DIFlagPrototyped, spFlags: DISPFlagLocalToUnit)
!894 = !DIImportedEntity(tag: DW_TAG_imported_declaration, scope: !164, entity: !895, file: !889, line: 446)
!895 = !DISubprogram(name: "asinhf", linkageName: "_ZL6asinhff", scope: !888, file: !888, line: 65, type: !172, flags: DIFlagPrototyped, spFlags: DISPFlagLocalToUnit)
!896 = !DIImportedEntity(tag: DW_TAG_imported_declaration, scope: !164, entity: !897, file: !889, line: 447)
!897 = !DISubprogram(name: "atan2f", linkageName: "_ZL6atan2fff", scope: !888, file: !888, line: 68, type: !185, flags: DIFlagPrototyped, spFlags: DISPFlagLocalToUnit)
!898 = !DIImportedEntity(tag: DW_TAG_imported_declaration, scope: !164, entity: !899, file: !889, line: 448)
!899 = !DISubprogram(name: "atanf", linkageName: "_ZL5atanff", scope: !888, file: !888, line: 69, type: !172, flags: DIFlagPrototyped, spFlags: DISPFlagLocalToUnit)
!900 = !DIImportedEntity(tag: DW_TAG_imported_declaration, scope: !164, entity: !901, file: !889, line: 449)
!901 = !DISubprogram(name: "atanhf", linkageName: "_ZL6atanhff", scope: !888, file: !888, line: 71, type: !172, flags: DIFlagPrototyped, spFlags: DISPFlagLocalToUnit)
!902 = !DIImportedEntity(tag: DW_TAG_imported_declaration, scope: !164, entity: !903, file: !889, line: 450)
!903 = !DISubprogram(name: "cbrtf", linkageName: "_ZL5cbrtff", scope: !888, file: !888, line: 73, type: !172, flags: DIFlagPrototyped, spFlags: DISPFlagLocalToUnit)
!904 = !DIImportedEntity(tag: DW_TAG_imported_declaration, scope: !164, entity: !905, file: !889, line: 451)
!905 = !DISubprogram(name: "ceilf", linkageName: "_ZL5ceilff", scope: !888, file: !888, line: 75, type: !172, flags: DIFlagPrototyped, spFlags: DISPFlagLocalToUnit)
!906 = !DIImportedEntity(tag: DW_TAG_imported_declaration, scope: !164, entity: !907, file: !889, line: 452)
!907 = !DISubprogram(name: "copysignf", linkageName: "_ZL9copysignfff", scope: !888, file: !888, line: 79, type: !185, flags: DIFlagPrototyped, spFlags: DISPFlagLocalToUnit)
!908 = !DIImportedEntity(tag: DW_TAG_imported_declaration, scope: !164, entity: !909, file: !889, line: 453)
!909 = !DISubprogram(name: "cosf", linkageName: "_ZL4cosff", scope: !888, file: !888, line: 83, type: !172, flags: DIFlagPrototyped, spFlags: DISPFlagLocalToUnit)
!910 = !DIImportedEntity(tag: DW_TAG_imported_declaration, scope: !164, entity: !911, file: !889, line: 454)
!911 = !DISubprogram(name: "coshf", linkageName: "_ZL5coshff", scope: !888, file: !888, line: 87, type: !172, flags: DIFlagPrototyped, spFlags: DISPFlagLocalToUnit)
!912 = !DIImportedEntity(tag: DW_TAG_imported_declaration, scope: !164, entity: !913, file: !889, line: 455)
!913 = !DISubprogram(name: "erfcf", linkageName: "_ZL5erfcff", scope: !888, file: !888, line: 96, type: !172, flags: DIFlagPrototyped, spFlags: DISPFlagLocalToUnit)
!914 = !DIImportedEntity(tag: DW_TAG_imported_declaration, scope: !164, entity: !915, file: !889, line: 456)
!915 = !DISubprogram(name: "erff", linkageName: "_ZL4erfff", scope: !888, file: !888, line: 101, type: !172, flags: DIFlagPrototyped, spFlags: DISPFlagLocalToUnit)
!916 = !DIImportedEntity(tag: DW_TAG_imported_declaration, scope: !164, entity: !917, file: !889, line: 457)
!917 = !DISubprogram(name: "exp2f", linkageName: "_ZL5exp2ff", scope: !888, file: !888, line: 108, type: !172, flags: DIFlagPrototyped, spFlags: DISPFlagLocalToUnit)
!918 = !DIImportedEntity(tag: DW_TAG_imported_declaration, scope: !164, entity: !919, file: !889, line: 458)
!919 = !DISubprogram(name: "expf", linkageName: "_ZL4expff", scope: !888, file: !888, line: 109, type: !172, flags: DIFlagPrototyped, spFlags: DISPFlagLocalToUnit)
!920 = !DIImportedEntity(tag: DW_TAG_imported_declaration, scope: !164, entity: !921, file: !889, line: 459)
!921 = !DISubprogram(name: "expm1f", linkageName: "_ZL6expm1ff", scope: !888, file: !888, line: 111, type: !172, flags: DIFlagPrototyped, spFlags: DISPFlagLocalToUnit)
!922 = !DIImportedEntity(tag: DW_TAG_imported_declaration, scope: !164, entity: !923, file: !889, line: 460)
!923 = !DISubprogram(name: "fabsf", linkageName: "_ZL5fabsff", scope: !888, file: !888, line: 112, type: !172, flags: DIFlagPrototyped, spFlags: DISPFlagLocalToUnit)
!924 = !DIImportedEntity(tag: DW_TAG_imported_declaration, scope: !164, entity: !925, file: !889, line: 461)
!925 = !DISubprogram(name: "fdimf", linkageName: "_ZL5fdimfff", scope: !888, file: !888, line: 114, type: !185, flags: DIFlagPrototyped, spFlags: DISPFlagLocalToUnit)
!926 = !DIImportedEntity(tag: DW_TAG_imported_declaration, scope: !164, entity: !927, file: !889, line: 462)
!927 = !DISubprogram(name: "floorf", linkageName: "_ZL6floorff", scope: !888, file: !888, line: 124, type: !172, flags: DIFlagPrototyped, spFlags: DISPFlagLocalToUnit)
!928 = !DIImportedEntity(tag: DW_TAG_imported_declaration, scope: !164, entity: !929, file: !889, line: 463)
!929 = !DISubprogram(name: "fmaf", linkageName: "_ZL4fmaffff", scope: !888, file: !888, line: 128, type: !217, flags: DIFlagPrototyped, spFlags: DISPFlagLocalToUnit)
!930 = !DIImportedEntity(tag: DW_TAG_imported_declaration, scope: !164, entity: !931, file: !889, line: 464)
!931 = !DISubprogram(name: "fmaxf", linkageName: "_ZL5fmaxfff", scope: !888, file: !888, line: 132, type: !185, flags: DIFlagPrototyped, spFlags: DISPFlagLocalToUnit)
!932 = !DIImportedEntity(tag: DW_TAG_imported_declaration, scope: !164, entity: !933, file: !889, line: 465)
!933 = !DISubprogram(name: "fminf", linkageName: "_ZL5fminfff", scope: !888, file: !888, line: 134, type: !185, flags: DIFlagPrototyped, spFlags: DISPFlagLocalToUnit)
!934 = !DIImportedEntity(tag: DW_TAG_imported_declaration, scope: !164, entity: !935, file: !889, line: 466)
!935 = !DISubprogram(name: "fmodf", linkageName: "_ZL5fmodfff", scope: !888, file: !888, line: 136, type: !185, flags: DIFlagPrototyped, spFlags: DISPFlagLocalToUnit)
!936 = !DIImportedEntity(tag: DW_TAG_imported_declaration, scope: !164, entity: !937, file: !889, line: 467)
!937 = !DISubprogram(name: "frexpf", linkageName: "_ZL6frexpffPi", scope: !888, file: !888, line: 138, type: !231, flags: DIFlagPrototyped, spFlags: DISPFlagLocalToUnit)
!938 = !DIImportedEntity(tag: DW_TAG_imported_declaration, scope: !164, entity: !939, file: !889, line: 468)
!939 = !DISubprogram(name: "hypotf", linkageName: "_ZL6hypotfff", scope: !888, file: !888, line: 140, type: !185, flags: DIFlagPrototyped, spFlags: DISPFlagLocalToUnit)
!940 = !DIImportedEntity(tag: DW_TAG_imported_declaration, scope: !164, entity: !941, file: !889, line: 469)
!941 = !DISubprogram(name: "ilogbf", linkageName: "_ZL6ilogbff", scope: !888, file: !888, line: 142, type: !227, flags: DIFlagPrototyped, spFlags: DISPFlagLocalToUnit)
!942 = !DIImportedEntity(tag: DW_TAG_imported_declaration, scope: !164, entity: !943, file: !889, line: 470)
!943 = !DISubprogram(name: "ldexpf", linkageName: "_ZL6ldexpffi", scope: !888, file: !888, line: 155, type: !270, flags: DIFlagPrototyped, spFlags: DISPFlagLocalToUnit)
!944 = !DIImportedEntity(tag: DW_TAG_imported_declaration, scope: !164, entity: !945, file: !889, line: 471)
!945 = !DISubprogram(name: "lgammaf", linkageName: "_ZL7lgammaff", scope: !888, file: !888, line: 157, type: !172, flags: DIFlagPrototyped, spFlags: DISPFlagLocalToUnit)
!946 = !DIImportedEntity(tag: DW_TAG_imported_declaration, scope: !164, entity: !947, file: !889, line: 472)
!947 = !DISubprogram(name: "llrintf", linkageName: "_ZL7llrintff", scope: !888, file: !888, line: 166, type: !281, flags: DIFlagPrototyped, spFlags: DISPFlagLocalToUnit)
!948 = !DIImportedEntity(tag: DW_TAG_imported_declaration, scope: !164, entity: !949, file: !889, line: 473)
!949 = !DISubprogram(name: "llroundf", linkageName: "_ZL8llroundff", scope: !888, file: !888, line: 168, type: !281, flags: DIFlagPrototyped, spFlags: DISPFlagLocalToUnit)
!950 = !DIImportedEntity(tag: DW_TAG_imported_declaration, scope: !164, entity: !951, file: !889, line: 474)
!951 = !DISubprogram(name: "log10f", linkageName: "_ZL6log10ff", scope: !888, file: !888, line: 173, type: !172, flags: DIFlagPrototyped, spFlags: DISPFlagLocalToUnit)
!952 = !DIImportedEntity(tag: DW_TAG_imported_declaration, scope: !164, entity: !953, file: !889, line: 475)
!953 = !DISubprogram(name: "log1pf", linkageName: "_ZL6log1pff", scope: !888, file: !888, line: 175, type: !172, flags: DIFlagPrototyped, spFlags: DISPFlagLocalToUnit)
!954 = !DIImportedEntity(tag: DW_TAG_imported_declaration, scope: !164, entity: !955, file: !889, line: 476)
!955 = !DISubprogram(name: "log2f", linkageName: "_ZL5log2ff", scope: !888, file: !888, line: 177, type: !172, flags: DIFlagPrototyped, spFlags: DISPFlagLocalToUnit)
!956 = !DIImportedEntity(tag: DW_TAG_imported_declaration, scope: !164, entity: !957, file: !889, line: 477)
!957 = !DISubprogram(name: "logbf", linkageName: "_ZL5logbff", scope: !888, file: !888, line: 181, type: !172, flags: DIFlagPrototyped, spFlags: DISPFlagLocalToUnit)
!958 = !DIImportedEntity(tag: DW_TAG_imported_declaration, scope: !164, entity: !959, file: !889, line: 478)
!959 = !DISubprogram(name: "logf", linkageName: "_ZL4logff", scope: !888, file: !888, line: 182, type: !172, flags: DIFlagPrototyped, spFlags: DISPFlagLocalToUnit)
!960 = !DIImportedEntity(tag: DW_TAG_imported_declaration, scope: !164, entity: !961, file: !889, line: 479)
!961 = !DISubprogram(name: "lrintf", linkageName: "_ZL6lrintff", scope: !888, file: !888, line: 187, type: !295, flags: DIFlagPrototyped, spFlags: DISPFlagLocalToUnit)
!962 = !DIImportedEntity(tag: DW_TAG_imported_declaration, scope: !164, entity: !963, file: !889, line: 480)
!963 = !DISubprogram(name: "lroundf", linkageName: "_ZL7lroundff", scope: !888, file: !888, line: 189, type: !295, flags: DIFlagPrototyped, spFlags: DISPFlagLocalToUnit)
!964 = !DIImportedEntity(tag: DW_TAG_imported_declaration, scope: !164, entity: !965, file: !889, line: 481)
!965 = !DISubprogram(name: "modff", linkageName: "_ZL5modfffPf", scope: !888, file: !888, line: 199, type: !303, flags: DIFlagPrototyped, spFlags: DISPFlagLocalToUnit)
!966 = !DIImportedEntity(tag: DW_TAG_imported_declaration, scope: !164, entity: !967, file: !889, line: 482)
!967 = !DISubprogram(name: "nearbyintf", linkageName: "_ZL10nearbyintff", scope: !888, file: !888, line: 201, type: !172, flags: DIFlagPrototyped, spFlags: DISPFlagLocalToUnit)
!968 = !DIImportedEntity(tag: DW_TAG_imported_declaration, scope: !164, entity: !969, file: !889, line: 483)
!969 = !DISubprogram(name: "nextafterf", linkageName: "_ZL10nextafterfff", scope: !888, file: !888, line: 205, type: !185, flags: DIFlagPrototyped, spFlags: DISPFlagLocalToUnit)
!970 = !DIImportedEntity(tag: DW_TAG_imported_declaration, scope: !164, entity: !971, file: !889, line: 484)
!971 = !DISubprogram(name: "powf", linkageName: "_ZL4powfff", scope: !888, file: !888, line: 231, type: !185, flags: DIFlagPrototyped, spFlags: DISPFlagLocalToUnit)
!972 = !DIImportedEntity(tag: DW_TAG_imported_declaration, scope: !164, entity: !973, file: !889, line: 485)
!973 = !DISubprogram(name: "remainderf", linkageName: "_ZL10remainderfff", scope: !888, file: !888, line: 239, type: !185, flags: DIFlagPrototyped, spFlags: DISPFlagLocalToUnit)
!974 = !DIImportedEntity(tag: DW_TAG_imported_declaration, scope: !164, entity: !975, file: !889, line: 486)
!975 = !DISubprogram(name: "remquof", linkageName: "_ZL7remquofffPi", scope: !888, file: !888, line: 245, type: !326, flags: DIFlagPrototyped, spFlags: DISPFlagLocalToUnit)
!976 = !DIImportedEntity(tag: DW_TAG_imported_declaration, scope: !164, entity: !977, file: !889, line: 487)
!977 = !DISubprogram(name: "rintf", linkageName: "_ZL5rintff", scope: !888, file: !888, line: 256, type: !172, flags: DIFlagPrototyped, spFlags: DISPFlagLocalToUnit)
!978 = !DIImportedEntity(tag: DW_TAG_imported_declaration, scope: !164, entity: !979, file: !889, line: 488)
!979 = !DISubprogram(name: "roundf", linkageName: "_ZL6roundff", scope: !888, file: !888, line: 170, type: !172, flags: DIFlagPrototyped, spFlags: DISPFlagLocalToUnit)
!980 = !DIImportedEntity(tag: DW_TAG_imported_declaration, scope: !164, entity: !981, file: !889, line: 489)
!981 = !DISubprogram(name: "scalblnf", linkageName: "_ZL8scalblnffl", scope: !888, file: !888, line: 286, type: !334, flags: DIFlagPrototyped, spFlags: DISPFlagLocalToUnit)
!982 = !DIImportedEntity(tag: DW_TAG_imported_declaration, scope: !164, entity: !983, file: !889, line: 490)
!983 = !DISubprogram(name: "scalbnf", linkageName: "_ZL7scalbnffi", scope: !888, file: !888, line: 278, type: !270, flags: DIFlagPrototyped, spFlags: DISPFlagLocalToUnit)
!984 = !DIImportedEntity(tag: DW_TAG_imported_declaration, scope: !164, entity: !985, file: !889, line: 491)
!985 = !DISubprogram(name: "sinf", linkageName: "_ZL4sinff", scope: !888, file: !888, line: 306, type: !172, flags: DIFlagPrototyped, spFlags: DISPFlagLocalToUnit)
!986 = !DIImportedEntity(tag: DW_TAG_imported_declaration, scope: !164, entity: !987, file: !889, line: 492)
!987 = !DISubprogram(name: "sinhf", linkageName: "_ZL5sinhff", scope: !888, file: !888, line: 310, type: !172, flags: DIFlagPrototyped, spFlags: DISPFlagLocalToUnit)
!988 = !DIImportedEntity(tag: DW_TAG_imported_declaration, scope: !164, entity: !989, file: !889, line: 493)
!989 = !DISubprogram(name: "sqrtf", linkageName: "_ZL5sqrtff", scope: !888, file: !888, line: 314, type: !172, flags: DIFlagPrototyped, spFlags: DISPFlagLocalToUnit)
!990 = !DIImportedEntity(tag: DW_TAG_imported_declaration, scope: !164, entity: !991, file: !889, line: 494)
!991 = !DISubprogram(name: "tanf", linkageName: "_ZL4tanff", scope: !888, file: !888, line: 316, type: !172, flags: DIFlagPrototyped, spFlags: DISPFlagLocalToUnit)
!992 = !DIImportedEntity(tag: DW_TAG_imported_declaration, scope: !164, entity: !993, file: !889, line: 495)
!993 = !DISubprogram(name: "tanhf", linkageName: "_ZL5tanhff", scope: !888, file: !888, line: 318, type: !172, flags: DIFlagPrototyped, spFlags: DISPFlagLocalToUnit)
!994 = !DIImportedEntity(tag: DW_TAG_imported_declaration, scope: !164, entity: !995, file: !889, line: 496)
!995 = !DISubprogram(name: "tgammaf", linkageName: "_ZL7tgammaff", scope: !888, file: !888, line: 320, type: !172, flags: DIFlagPrototyped, spFlags: DISPFlagLocalToUnit)
!996 = !DIImportedEntity(tag: DW_TAG_imported_declaration, scope: !164, entity: !997, file: !889, line: 497)
!997 = !DISubprogram(name: "truncf", linkageName: "_ZL6truncff", scope: !888, file: !888, line: 322, type: !172, flags: DIFlagPrototyped, spFlags: DISPFlagLocalToUnit)
!998 = !DIImportedEntity(tag: DW_TAG_imported_declaration, scope: !20, entity: !42, file: !18, line: 171)
!999 = !DIImportedEntity(tag: DW_TAG_imported_declaration, scope: !20, entity: !17, file: !18, line: 172)
!1000 = !DIImportedEntity(tag: DW_TAG_imported_declaration, scope: !20, entity: !1001, file: !18, line: 202)
!1001 = !DISubprogram(name: "is_exactly", linkageName: "_ZN2nv6target6detail10is_exactlyENS1_11sm_selectorE", scope: !19, file: !18, line: 142, type: !1002, flags: DIFlagPrototyped, spFlags: 0)
!1002 = !DISubroutineType(types: !1003)
!1003 = !{!42, !17}
!1004 = !DIImportedEntity(tag: DW_TAG_imported_declaration, scope: !20, entity: !1005, file: !18, line: 203)
!1005 = !DISubprogram(name: "provides", linkageName: "_ZN2nv6target6detail8providesENS1_11sm_selectorE", scope: !19, file: !18, line: 147, type: !1002, flags: DIFlagPrototyped, spFlags: 0)
!1006 = !DIImportedEntity(tag: DW_TAG_imported_declaration, scope: !164, entity: !1007, file: !1011, line: 98)
!1007 = !DIDerivedType(tag: DW_TAG_typedef, name: "FILE", file: !1008, line: 7, baseType: !1009)
!1008 = !DIFile(filename: "/usr/include/x86_64-linux-gnu/bits/types/FILE.h", directory: "")
!1009 = !DICompositeType(tag: DW_TAG_structure_type, name: "_IO_FILE", file: !1010, line: 49, size: 1728, flags: DIFlagFwdDecl, identifier: "_ZTS8_IO_FILE")
!1010 = !DIFile(filename: "/usr/include/x86_64-linux-gnu/bits/types/struct_FILE.h", directory: "")
!1011 = !DIFile(filename: "/usr/lib/gcc/x86_64-linux-gnu/13/../../../../include/c++/13/cstdio", directory: "")
!1012 = !DIImportedEntity(tag: DW_TAG_imported_declaration, scope: !164, entity: !1013, file: !1011, line: 99)
!1013 = !DIDerivedType(tag: DW_TAG_typedef, name: "fpos_t", file: !1014, line: 84, baseType: !1015)
!1014 = !DIFile(filename: "/usr/include/stdio.h", directory: "")
!1015 = !DIDerivedType(tag: DW_TAG_typedef, name: "__fpos_t", file: !1016, line: 14, baseType: !1017)
!1016 = !DIFile(filename: "/usr/include/x86_64-linux-gnu/bits/types/__fpos_t.h", directory: "")
!1017 = !DICompositeType(tag: DW_TAG_structure_type, name: "_G_fpos_t", file: !1016, line: 10, size: 128, flags: DIFlagFwdDecl, identifier: "_ZTS9_G_fpos_t")
!1018 = !DIImportedEntity(tag: DW_TAG_imported_declaration, scope: !164, entity: !1019, file: !1011, line: 101)
!1019 = !DISubprogram(name: "clearerr", scope: !1014, file: !1014, line: 757, type: !1020, flags: DIFlagPrototyped, spFlags: 0)
!1020 = !DISubroutineType(types: !1021)
!1021 = !{null, !1022}
!1022 = !DIDerivedType(tag: DW_TAG_pointer_type, baseType: !1007, size: 64)
!1023 = !DIImportedEntity(tag: DW_TAG_imported_declaration, scope: !164, entity: !1024, file: !1011, line: 102)
!1024 = !DISubprogram(name: "fclose", scope: !1014, file: !1014, line: 213, type: !1025, flags: DIFlagPrototyped, spFlags: 0)
!1025 = !DISubroutineType(types: !1026)
!1026 = !{!169, !1022}
!1027 = !DIImportedEntity(tag: DW_TAG_imported_declaration, scope: !164, entity: !1028, file: !1011, line: 103)
!1028 = !DISubprogram(name: "feof", scope: !1014, file: !1014, line: 759, type: !1025, flags: DIFlagPrototyped, spFlags: 0)
!1029 = !DIImportedEntity(tag: DW_TAG_imported_declaration, scope: !164, entity: !1030, file: !1011, line: 104)
!1030 = !DISubprogram(name: "ferror", scope: !1014, file: !1014, line: 761, type: !1025, flags: DIFlagPrototyped, spFlags: 0)
!1031 = !DIImportedEntity(tag: DW_TAG_imported_declaration, scope: !164, entity: !1032, file: !1011, line: 105)
!1032 = !DISubprogram(name: "fflush", scope: !1014, file: !1014, line: 218, type: !1025, flags: DIFlagPrototyped, spFlags: 0)
!1033 = !DIImportedEntity(tag: DW_TAG_imported_declaration, scope: !164, entity: !1034, file: !1011, line: 106)
!1034 = !DISubprogram(name: "fgetc", scope: !1014, file: !1014, line: 485, type: !1025, flags: DIFlagPrototyped, spFlags: 0)
!1035 = !DIImportedEntity(tag: DW_TAG_imported_declaration, scope: !164, entity: !1036, file: !1011, line: 107)
!1036 = !DISubprogram(name: "fgetpos", scope: !1014, file: !1014, line: 731, type: !1037, flags: DIFlagPrototyped, spFlags: 0)
!1037 = !DISubroutineType(types: !1038)
!1038 = !{!169, !1039, !1040}
!1039 = !DIDerivedType(tag: DW_TAG_restrict_type, baseType: !1022)
!1040 = !DIDerivedType(tag: DW_TAG_restrict_type, baseType: !1041)
!1041 = !DIDerivedType(tag: DW_TAG_pointer_type, baseType: !1013, size: 64)
!1042 = !DIImportedEntity(tag: DW_TAG_imported_declaration, scope: !164, entity: !1043, file: !1011, line: 108)
!1043 = !DISubprogram(name: "fgets", scope: !1014, file: !1014, line: 564, type: !1044, flags: DIFlagPrototyped, spFlags: 0)
!1044 = !DISubroutineType(types: !1045)
!1045 = !{!732, !797, !169, !1039}
!1046 = !DIImportedEntity(tag: DW_TAG_imported_declaration, scope: !164, entity: !1047, file: !1011, line: 109)
!1047 = !DISubprogram(name: "fopen", scope: !1014, file: !1014, line: 246, type: !1048, flags: DIFlagPrototyped, spFlags: 0)
!1048 = !DISubroutineType(types: !1049)
!1049 = !{!1022, !754, !754}
!1050 = !DIImportedEntity(tag: DW_TAG_imported_declaration, scope: !164, entity: !1051, file: !1011, line: 110)
!1051 = !DISubprogram(name: "fprintf", scope: !1014, file: !1014, line: 326, type: !1052, flags: DIFlagPrototyped, spFlags: 0)
!1052 = !DISubroutineType(types: !1053)
!1053 = !{!169, !1039, !754, null}
!1054 = !DIImportedEntity(tag: DW_TAG_imported_declaration, scope: !164, entity: !1055, file: !1011, line: 111)
!1055 = !DISubprogram(name: "fputc", scope: !1014, file: !1014, line: 521, type: !1056, flags: DIFlagPrototyped, spFlags: 0)
!1056 = !DISubroutineType(types: !1057)
!1057 = !{!169, !169, !1022}
!1058 = !DIImportedEntity(tag: DW_TAG_imported_declaration, scope: !164, entity: !1059, file: !1011, line: 112)
!1059 = !DISubprogram(name: "fputs", scope: !1014, file: !1014, line: 626, type: !1060, flags: DIFlagPrototyped, spFlags: 0)
!1060 = !DISubroutineType(types: !1061)
!1061 = !{!169, !754, !1039}
!1062 = !DIImportedEntity(tag: DW_TAG_imported_declaration, scope: !164, entity: !1063, file: !1011, line: 113)
!1063 = !DISubprogram(name: "fread", scope: !1014, file: !1014, line: 646, type: !1064, flags: DIFlagPrototyped, spFlags: 0)
!1064 = !DISubroutineType(types: !1065)
!1065 = !{!705, !1066, !705, !705, !1039}
!1066 = !DIDerivedType(tag: DW_TAG_restrict_type, baseType: !702)
!1067 = !DIImportedEntity(tag: DW_TAG_imported_declaration, scope: !164, entity: !1068, file: !1011, line: 114)
!1068 = !DISubprogram(name: "freopen", scope: !1014, file: !1014, line: 252, type: !1069, flags: DIFlagPrototyped, spFlags: 0)
!1069 = !DISubroutineType(types: !1070)
!1070 = !{!1022, !754, !754, !1039}
!1071 = !DIImportedEntity(tag: DW_TAG_imported_declaration, scope: !164, entity: !1072, file: !1011, line: 115)
!1072 = !DISubprogram(name: "fscanf", linkageName: "__isoc99_fscanf", scope: !1014, file: !1014, line: 407, type: !1052, flags: DIFlagPrototyped, spFlags: 0)
!1073 = !DIImportedEntity(tag: DW_TAG_imported_declaration, scope: !164, entity: !1074, file: !1011, line: 116)
!1074 = !DISubprogram(name: "fseek", scope: !1014, file: !1014, line: 684, type: !1075, flags: DIFlagPrototyped, spFlags: 0)
!1075 = !DISubroutineType(types: !1076)
!1076 = !{!169, !1022, !267, !169}
!1077 = !DIImportedEntity(tag: DW_TAG_imported_declaration, scope: !164, entity: !1078, file: !1011, line: 117)
!1078 = !DISubprogram(name: "fsetpos", scope: !1014, file: !1014, line: 736, type: !1079, flags: DIFlagPrototyped, spFlags: 0)
!1079 = !DISubroutineType(types: !1080)
!1080 = !{!169, !1022, !1081}
!1081 = !DIDerivedType(tag: DW_TAG_pointer_type, baseType: !1082, size: 64)
!1082 = !DIDerivedType(tag: DW_TAG_const_type, baseType: !1013)
!1083 = !DIImportedEntity(tag: DW_TAG_imported_declaration, scope: !164, entity: !1084, file: !1011, line: 118)
!1084 = !DISubprogram(name: "ftell", scope: !1014, file: !1014, line: 689, type: !1085, flags: DIFlagPrototyped, spFlags: 0)
!1085 = !DISubroutineType(types: !1086)
!1086 = !{!267, !1022}
!1087 = !DIImportedEntity(tag: DW_TAG_imported_declaration, scope: !164, entity: !1088, file: !1011, line: 119)
!1088 = !DISubprogram(name: "fwrite", scope: !1014, file: !1014, line: 652, type: !1089, flags: DIFlagPrototyped, spFlags: 0)
!1089 = !DISubroutineType(types: !1090)
!1090 = !{!705, !1091, !705, !705, !1039}
!1091 = !DIDerivedType(tag: DW_TAG_restrict_type, baseType: !703)
!1092 = !DIImportedEntity(tag: DW_TAG_imported_declaration, scope: !164, entity: !1093, file: !1011, line: 120)
!1093 = !DISubprogram(name: "getc", scope: !1014, file: !1014, line: 486, type: !1025, flags: DIFlagPrototyped, spFlags: 0)
!1094 = !DIImportedEntity(tag: DW_TAG_imported_declaration, scope: !164, entity: !1095, file: !1011, line: 121)
!1095 = !DISubprogram(name: "getchar", scope: !1014, file: !1014, line: 492, type: !767, flags: DIFlagPrototyped, spFlags: 0)
!1096 = !DIImportedEntity(tag: DW_TAG_imported_declaration, scope: !164, entity: !1097, file: !1011, line: 124)
!1097 = !DISubprogram(name: "gets", scope: !1014, file: !1014, line: 577, type: !1098, flags: DIFlagPrototyped, spFlags: 0)
!1098 = !DISubroutineType(types: !1099)
!1099 = !{!732, !732}
!1100 = !DIImportedEntity(tag: DW_TAG_imported_declaration, scope: !164, entity: !1101, file: !1011, line: 126)
!1101 = !DISubprogram(name: "perror", scope: !1014, file: !1014, line: 775, type: !1102, flags: DIFlagPrototyped, spFlags: 0)
!1102 = !DISubroutineType(types: !1103)
!1103 = !{null, !311}
!1104 = !DIImportedEntity(tag: DW_TAG_imported_declaration, scope: !164, entity: !1105, file: !1011, line: 127)
!1105 = !DISubprogram(name: "printf", scope: !1014, file: !1014, line: 332, type: !1106, flags: DIFlagPrototyped, spFlags: 0)
!1106 = !DISubroutineType(types: !1107)
!1107 = !{!169, !754, null}
!1108 = !DIImportedEntity(tag: DW_TAG_imported_declaration, scope: !164, entity: !1109, file: !1011, line: 128)
!1109 = !DISubprogram(name: "putc", scope: !1014, file: !1014, line: 522, type: !1056, flags: DIFlagPrototyped, spFlags: 0)
!1110 = !DIImportedEntity(tag: DW_TAG_imported_declaration, scope: !164, entity: !1111, file: !1011, line: 129)
!1111 = !DISubprogram(name: "putchar", scope: !1014, file: !1014, line: 528, type: !167, flags: DIFlagPrototyped, spFlags: 0)
!1112 = !DIImportedEntity(tag: DW_TAG_imported_declaration, scope: !164, entity: !1113, file: !1011, line: 130)
!1113 = !DISubprogram(name: "puts", scope: !1014, file: !1014, line: 632, type: !692, flags: DIFlagPrototyped, spFlags: 0)
!1114 = !DIImportedEntity(tag: DW_TAG_imported_declaration, scope: !164, entity: !1115, file: !1011, line: 131)
!1115 = !DISubprogram(name: "remove", scope: !1014, file: !1014, line: 146, type: !692, flags: DIFlagPrototyped, spFlags: 0)
!1116 = !DIImportedEntity(tag: DW_TAG_imported_declaration, scope: !164, entity: !1117, file: !1011, line: 132)
!1117 = !DISubprogram(name: "rename", scope: !1014, file: !1014, line: 148, type: !1118, flags: DIFlagPrototyped, spFlags: 0)
!1118 = !DISubroutineType(types: !1119)
!1119 = !{!169, !311, !311}
!1120 = !DIImportedEntity(tag: DW_TAG_imported_declaration, scope: !164, entity: !1121, file: !1011, line: 133)
!1121 = !DISubprogram(name: "rewind", scope: !1014, file: !1014, line: 694, type: !1020, flags: DIFlagPrototyped, spFlags: 0)
!1122 = !DIImportedEntity(tag: DW_TAG_imported_declaration, scope: !164, entity: !1123, file: !1011, line: 134)
!1123 = !DISubprogram(name: "scanf", linkageName: "__isoc99_scanf", scope: !1014, file: !1014, line: 410, type: !1106, flags: DIFlagPrototyped, spFlags: 0)
!1124 = !DIImportedEntity(tag: DW_TAG_imported_declaration, scope: !164, entity: !1125, file: !1011, line: 135)
!1125 = !DISubprogram(name: "setbuf", scope: !1014, file: !1014, line: 304, type: !1126, flags: DIFlagPrototyped, spFlags: 0)
!1126 = !DISubroutineType(types: !1127)
!1127 = !{null, !1039, !797}
!1128 = !DIImportedEntity(tag: DW_TAG_imported_declaration, scope: !164, entity: !1129, file: !1011, line: 136)
!1129 = !DISubprogram(name: "setvbuf", scope: !1014, file: !1014, line: 308, type: !1130, flags: DIFlagPrototyped, spFlags: 0)
!1130 = !DISubroutineType(types: !1131)
!1131 = !{!169, !1039, !797, !169, !705}
!1132 = !DIImportedEntity(tag: DW_TAG_imported_declaration, scope: !164, entity: !1133, file: !1011, line: 137)
!1133 = !DISubprogram(name: "sprintf", scope: !1014, file: !1014, line: 334, type: !1134, flags: DIFlagPrototyped, spFlags: 0)
!1134 = !DISubroutineType(types: !1135)
!1135 = !{!169, !797, !754, null}
!1136 = !DIImportedEntity(tag: DW_TAG_imported_declaration, scope: !164, entity: !1137, file: !1011, line: 138)
!1137 = !DISubprogram(name: "sscanf", linkageName: "__isoc99_sscanf", scope: !1014, file: !1014, line: 412, type: !1138, flags: DIFlagPrototyped, spFlags: 0)
!1138 = !DISubroutineType(types: !1139)
!1139 = !{!169, !754, !754, null}
!1140 = !DIImportedEntity(tag: DW_TAG_imported_declaration, scope: !164, entity: !1141, file: !1011, line: 139)
!1141 = !DISubprogram(name: "tmpfile", scope: !1014, file: !1014, line: 173, type: !1142, flags: DIFlagPrototyped, spFlags: 0)
!1142 = !DISubroutineType(types: !1143)
!1143 = !{!1022}
!1144 = !DIImportedEntity(tag: DW_TAG_imported_declaration, scope: !164, entity: !1145, file: !1011, line: 141)
!1145 = !DISubprogram(name: "tmpnam", scope: !1014, file: !1014, line: 187, type: !1098, flags: DIFlagPrototyped, spFlags: 0)
!1146 = !DIImportedEntity(tag: DW_TAG_imported_declaration, scope: !164, entity: !1147, file: !1011, line: 143)
!1147 = !DISubprogram(name: "ungetc", scope: !1014, file: !1014, line: 639, type: !1056, flags: DIFlagPrototyped, spFlags: 0)
!1148 = !DIImportedEntity(tag: DW_TAG_imported_declaration, scope: !164, entity: !1149, file: !1011, line: 144)
!1149 = !DISubprogram(name: "vfprintf", scope: !1014, file: !1014, line: 341, type: !1150, flags: DIFlagPrototyped, spFlags: 0)
!1150 = !DISubroutineType(types: !1151)
!1151 = !{!169, !1039, !754, !1152}
!1152 = !DIDerivedType(tag: DW_TAG_typedef, name: "__gnuc_va_list", file: !1153, line: 12, baseType: !1154)
!1153 = !DIFile(filename: "llvm-vortex-with-cuda-build/lib/clang/18/include/__stdarg___gnuc_va_list.h", directory: "/nethome/cahn45")
!1154 = !DIDerivedType(tag: DW_TAG_typedef, name: "__builtin_va_list", file: !15, baseType: !732)
!1155 = !DIImportedEntity(tag: DW_TAG_imported_declaration, scope: !164, entity: !1156, file: !1011, line: 145)
!1156 = !DISubprogram(name: "vprintf", scope: !1014, file: !1014, line: 347, type: !1157, flags: DIFlagPrototyped, spFlags: 0)
!1157 = !DISubroutineType(types: !1158)
!1158 = !{!169, !754, !1152}
!1159 = !DIImportedEntity(tag: DW_TAG_imported_declaration, scope: !164, entity: !1160, file: !1011, line: 146)
!1160 = !DISubprogram(name: "vsprintf", scope: !1014, file: !1014, line: 349, type: !1161, flags: DIFlagPrototyped, spFlags: 0)
!1161 = !DISubroutineType(types: !1162)
!1162 = !{!169, !797, !754, !1152}
!1163 = !DIImportedEntity(tag: DW_TAG_imported_declaration, scope: !806, entity: !1164, file: !1011, line: 175)
!1164 = !DISubprogram(name: "snprintf", scope: !1014, file: !1014, line: 354, type: !1165, flags: DIFlagPrototyped, spFlags: 0)
!1165 = !DISubroutineType(types: !1166)
!1166 = !{!169, !797, !705, !754, null}
!1167 = !DIImportedEntity(tag: DW_TAG_imported_declaration, scope: !806, entity: !1168, file: !1011, line: 176)
!1168 = !DISubprogram(name: "vfscanf", linkageName: "__isoc99_vfscanf", scope: !1014, file: !1014, line: 451, type: !1150, flags: DIFlagPrototyped, spFlags: 0)
!1169 = !DIImportedEntity(tag: DW_TAG_imported_declaration, scope: !806, entity: !1170, file: !1011, line: 177)
!1170 = !DISubprogram(name: "vscanf", linkageName: "__isoc99_vscanf", scope: !1014, file: !1014, line: 456, type: !1157, flags: DIFlagPrototyped, spFlags: 0)
!1171 = !DIImportedEntity(tag: DW_TAG_imported_declaration, scope: !806, entity: !1172, file: !1011, line: 178)
!1172 = !DISubprogram(name: "vsnprintf", scope: !1014, file: !1014, line: 358, type: !1173, flags: DIFlagPrototyped, spFlags: 0)
!1173 = !DISubroutineType(types: !1174)
!1174 = !{!169, !797, !705, !754, !1152}
!1175 = !DIImportedEntity(tag: DW_TAG_imported_declaration, scope: !806, entity: !1176, file: !1011, line: 179)
!1176 = !DISubprogram(name: "vsscanf", linkageName: "__isoc99_vsscanf", scope: !1014, file: !1014, line: 459, type: !1177, flags: DIFlagPrototyped, spFlags: 0)
!1177 = !DISubroutineType(types: !1178)
!1178 = !{!169, !754, !754, !1152}
!1179 = !DIImportedEntity(tag: DW_TAG_imported_declaration, scope: !164, entity: !1164, file: !1011, line: 185)
!1180 = !DIImportedEntity(tag: DW_TAG_imported_declaration, scope: !164, entity: !1168, file: !1011, line: 186)
!1181 = !DIImportedEntity(tag: DW_TAG_imported_declaration, scope: !164, entity: !1170, file: !1011, line: 187)
!1182 = !DIImportedEntity(tag: DW_TAG_imported_declaration, scope: !164, entity: !1172, file: !1011, line: 188)
!1183 = !DIImportedEntity(tag: DW_TAG_imported_declaration, scope: !164, entity: !1176, file: !1011, line: 189)
!1184 = !DIImportedEntity(tag: DW_TAG_imported_declaration, scope: !164, entity: !1185, file: !1189, line: 77)
!1185 = !DISubprogram(name: "memchr", scope: !1186, file: !1186, line: 73, type: !1187, flags: DIFlagPrototyped, spFlags: 0)
!1186 = !DIFile(filename: "/usr/include/string.h", directory: "")
!1187 = !DISubroutineType(types: !1188)
!1188 = !{!703, !703, !169, !705}
!1189 = !DIFile(filename: "/usr/lib/gcc/x86_64-linux-gnu/13/../../../../include/c++/13/cstring", directory: "")
!1190 = !DIImportedEntity(tag: DW_TAG_imported_declaration, scope: !164, entity: !1191, file: !1189, line: 78)
!1191 = !DISubprogram(name: "memcmp", scope: !1186, file: !1186, line: 64, type: !1192, flags: DIFlagPrototyped, spFlags: 0)
!1192 = !DISubroutineType(types: !1193)
!1193 = !{!169, !703, !703, !705}
!1194 = !DIImportedEntity(tag: DW_TAG_imported_declaration, scope: !164, entity: !1195, file: !1189, line: 79)
!1195 = !DISubprogram(name: "memcpy", linkageName: "_ZL6memcpyPvPKvm", scope: !1196, file: !1196, line: 1549, type: !1197, flags: DIFlagPrototyped, spFlags: DISPFlagLocalToUnit)
!1196 = !DIFile(filename: "llvm-vortex-with-cuda-build/lib/clang/18/include/__clang_cuda_device_functions.h", directory: "/nethome/cahn45")
!1197 = !DISubroutineType(types: !1198)
!1198 = !{!702, !702, !703, !705}
!1199 = !DIImportedEntity(tag: DW_TAG_imported_declaration, scope: !164, entity: !1200, file: !1189, line: 80)
!1200 = !DISubprogram(name: "memmove", scope: !1186, file: !1186, line: 47, type: !1197, flags: DIFlagPrototyped, spFlags: 0)
!1201 = !DIImportedEntity(tag: DW_TAG_imported_declaration, scope: !164, entity: !1202, file: !1189, line: 81)
!1202 = !DISubprogram(name: "memset", linkageName: "_ZL6memsetPvim", scope: !1196, file: !1196, line: 1552, type: !1203, flags: DIFlagPrototyped, spFlags: DISPFlagLocalToUnit)
!1203 = !DISubroutineType(types: !1204)
!1204 = !{!702, !702, !169, !705}
!1205 = !DIImportedEntity(tag: DW_TAG_imported_declaration, scope: !164, entity: !1206, file: !1189, line: 82)
!1206 = !DISubprogram(name: "strcat", scope: !1186, file: !1186, line: 130, type: !1207, flags: DIFlagPrototyped, spFlags: 0)
!1207 = !DISubroutineType(types: !1208)
!1208 = !{!732, !797, !754}
!1209 = !DIImportedEntity(tag: DW_TAG_imported_declaration, scope: !164, entity: !1210, file: !1189, line: 83)
!1210 = !DISubprogram(name: "strcmp", scope: !1186, file: !1186, line: 137, type: !1118, flags: DIFlagPrototyped, spFlags: 0)
!1211 = !DIImportedEntity(tag: DW_TAG_imported_declaration, scope: !164, entity: !1212, file: !1189, line: 84)
!1212 = !DISubprogram(name: "strcoll", scope: !1186, file: !1186, line: 144, type: !1118, flags: DIFlagPrototyped, spFlags: 0)
!1213 = !DIImportedEntity(tag: DW_TAG_imported_declaration, scope: !164, entity: !1214, file: !1189, line: 85)
!1214 = !DISubprogram(name: "strcpy", scope: !1186, file: !1186, line: 122, type: !1207, flags: DIFlagPrototyped, spFlags: 0)
!1215 = !DIImportedEntity(tag: DW_TAG_imported_declaration, scope: !164, entity: !1216, file: !1189, line: 86)
!1216 = !DISubprogram(name: "strcspn", scope: !1186, file: !1186, line: 273, type: !1217, flags: DIFlagPrototyped, spFlags: 0)
!1217 = !DISubroutineType(types: !1218)
!1218 = !{!705, !311, !311}
!1219 = !DIImportedEntity(tag: DW_TAG_imported_declaration, scope: !164, entity: !1220, file: !1189, line: 87)
!1220 = !DISubprogram(name: "strerror", scope: !1186, file: !1186, line: 397, type: !1221, flags: DIFlagPrototyped, spFlags: 0)
!1221 = !DISubroutineType(types: !1222)
!1222 = !{!732, !169}
!1223 = !DIImportedEntity(tag: DW_TAG_imported_declaration, scope: !164, entity: !1224, file: !1189, line: 88)
!1224 = !DISubprogram(name: "strlen", scope: !1186, file: !1186, line: 385, type: !1225, flags: DIFlagPrototyped, spFlags: 0)
!1225 = !DISubroutineType(types: !1226)
!1226 = !{!705, !311}
!1227 = !DIImportedEntity(tag: DW_TAG_imported_declaration, scope: !164, entity: !1228, file: !1189, line: 89)
!1228 = !DISubprogram(name: "strncat", scope: !1186, file: !1186, line: 133, type: !1229, flags: DIFlagPrototyped, spFlags: 0)
!1229 = !DISubroutineType(types: !1230)
!1230 = !{!732, !797, !754, !705}
!1231 = !DIImportedEntity(tag: DW_TAG_imported_declaration, scope: !164, entity: !1232, file: !1189, line: 90)
!1232 = !DISubprogram(name: "strncmp", scope: !1186, file: !1186, line: 140, type: !1233, flags: DIFlagPrototyped, spFlags: 0)
!1233 = !DISubroutineType(types: !1234)
!1234 = !{!169, !311, !311, !705}
!1235 = !DIImportedEntity(tag: DW_TAG_imported_declaration, scope: !164, entity: !1236, file: !1189, line: 91)
!1236 = !DISubprogram(name: "strncpy", scope: !1186, file: !1186, line: 125, type: !1229, flags: DIFlagPrototyped, spFlags: 0)
!1237 = !DIImportedEntity(tag: DW_TAG_imported_declaration, scope: !164, entity: !1238, file: !1189, line: 92)
!1238 = !DISubprogram(name: "strspn", scope: !1186, file: !1186, line: 277, type: !1217, flags: DIFlagPrototyped, spFlags: 0)
!1239 = !DIImportedEntity(tag: DW_TAG_imported_declaration, scope: !164, entity: !1240, file: !1189, line: 93)
!1240 = !DISubprogram(name: "strtok", scope: !1186, file: !1186, line: 336, type: !1207, flags: DIFlagPrototyped, spFlags: 0)
!1241 = !DIImportedEntity(tag: DW_TAG_imported_declaration, scope: !164, entity: !1242, file: !1189, line: 94)
!1242 = !DISubprogram(name: "strxfrm", scope: !1186, file: !1186, line: 147, type: !1243, flags: DIFlagPrototyped, spFlags: 0)
!1243 = !DISubroutineType(types: !1244)
!1244 = !{!705, !797, !754, !705}
!1245 = !DIImportedEntity(tag: DW_TAG_imported_declaration, scope: !164, entity: !1246, file: !1189, line: 95)
!1246 = !DISubprogram(name: "strchr", scope: !1186, file: !1186, line: 208, type: !1247, flags: DIFlagPrototyped, spFlags: 0)
!1247 = !DISubroutineType(types: !1248)
!1248 = !{!311, !311, !169}
!1249 = !DIImportedEntity(tag: DW_TAG_imported_declaration, scope: !164, entity: !1250, file: !1189, line: 96)
!1250 = !DISubprogram(name: "strpbrk", scope: !1186, file: !1186, line: 285, type: !1251, flags: DIFlagPrototyped, spFlags: 0)
!1251 = !DISubroutineType(types: !1252)
!1252 = !{!311, !311, !311}
!1253 = !DIImportedEntity(tag: DW_TAG_imported_declaration, scope: !164, entity: !1254, file: !1189, line: 97)
!1254 = !DISubprogram(name: "strrchr", scope: !1186, file: !1186, line: 235, type: !1247, flags: DIFlagPrototyped, spFlags: 0)
!1255 = !DIImportedEntity(tag: DW_TAG_imported_declaration, scope: !164, entity: !1256, file: !1189, line: 98)
!1256 = !DISubprogram(name: "strstr", scope: !1186, file: !1186, line: 312, type: !1251, flags: DIFlagPrototyped, spFlags: 0)
!1257 = !DIImportedEntity(tag: DW_TAG_imported_module, scope: !1258, entity: !1259, file: !1260, line: 58)
!1258 = !DINamespace(name: "__gnu_debug", scope: null)
!1259 = !DINamespace(name: "__debug", scope: !164)
!1260 = !DIFile(filename: "/usr/lib/gcc/x86_64-linux-gnu/13/../../../../include/c++/13/debug/debug.h", directory: "")
!1261 = !DIImportedEntity(tag: DW_TAG_imported_declaration, scope: !164, entity: !1262, file: !1267, line: 51)
!1262 = !DIDerivedType(tag: DW_TAG_typedef, name: "int8_t", file: !1263, line: 24, baseType: !1264)
!1263 = !DIFile(filename: "/usr/include/x86_64-linux-gnu/bits/stdint-intn.h", directory: "")
!1264 = !DIDerivedType(tag: DW_TAG_typedef, name: "__int8_t", file: !1265, line: 37, baseType: !1266)
!1265 = !DIFile(filename: "/usr/include/x86_64-linux-gnu/bits/types.h", directory: "")
!1266 = !DIBasicType(name: "signed char", size: 8, encoding: DW_ATE_signed_char)
!1267 = !DIFile(filename: "/usr/lib/gcc/x86_64-linux-gnu/13/../../../../include/c++/13/cstdint", directory: "")
!1268 = !DIImportedEntity(tag: DW_TAG_imported_declaration, scope: !164, entity: !1269, file: !1267, line: 52)
!1269 = !DIDerivedType(tag: DW_TAG_typedef, name: "int16_t", file: !1263, line: 25, baseType: !1270)
!1270 = !DIDerivedType(tag: DW_TAG_typedef, name: "__int16_t", file: !1265, line: 39, baseType: !1271)
!1271 = !DIBasicType(name: "short", size: 16, encoding: DW_ATE_signed)
!1272 = !DIImportedEntity(tag: DW_TAG_imported_declaration, scope: !164, entity: !1273, file: !1267, line: 53)
!1273 = !DIDerivedType(tag: DW_TAG_typedef, name: "int32_t", file: !1263, line: 26, baseType: !1274)
!1274 = !DIDerivedType(tag: DW_TAG_typedef, name: "__int32_t", file: !1265, line: 41, baseType: !169)
!1275 = !DIImportedEntity(tag: DW_TAG_imported_declaration, scope: !164, entity: !1276, file: !1267, line: 54)
!1276 = !DIDerivedType(tag: DW_TAG_typedef, name: "int64_t", file: !1263, line: 27, baseType: !1277)
!1277 = !DIDerivedType(tag: DW_TAG_typedef, name: "__int64_t", file: !1265, line: 44, baseType: !267)
!1278 = !DIImportedEntity(tag: DW_TAG_imported_declaration, scope: !164, entity: !1279, file: !1267, line: 56)
!1279 = !DIDerivedType(tag: DW_TAG_typedef, name: "int_fast8_t", file: !1280, line: 58, baseType: !1266)
!1280 = !DIFile(filename: "/usr/include/stdint.h", directory: "")
!1281 = !DIImportedEntity(tag: DW_TAG_imported_declaration, scope: !164, entity: !1282, file: !1267, line: 57)
!1282 = !DIDerivedType(tag: DW_TAG_typedef, name: "int_fast16_t", file: !1280, line: 60, baseType: !267)
!1283 = !DIImportedEntity(tag: DW_TAG_imported_declaration, scope: !164, entity: !1284, file: !1267, line: 58)
!1284 = !DIDerivedType(tag: DW_TAG_typedef, name: "int_fast32_t", file: !1280, line: 61, baseType: !267)
!1285 = !DIImportedEntity(tag: DW_TAG_imported_declaration, scope: !164, entity: !1286, file: !1267, line: 59)
!1286 = !DIDerivedType(tag: DW_TAG_typedef, name: "int_fast64_t", file: !1280, line: 62, baseType: !267)
!1287 = !DIImportedEntity(tag: DW_TAG_imported_declaration, scope: !164, entity: !1288, file: !1267, line: 61)
!1288 = !DIDerivedType(tag: DW_TAG_typedef, name: "int_least8_t", file: !1280, line: 43, baseType: !1289)
!1289 = !DIDerivedType(tag: DW_TAG_typedef, name: "__int_least8_t", file: !1265, line: 52, baseType: !1264)
!1290 = !DIImportedEntity(tag: DW_TAG_imported_declaration, scope: !164, entity: !1291, file: !1267, line: 62)
!1291 = !DIDerivedType(tag: DW_TAG_typedef, name: "int_least16_t", file: !1280, line: 44, baseType: !1292)
!1292 = !DIDerivedType(tag: DW_TAG_typedef, name: "__int_least16_t", file: !1265, line: 54, baseType: !1270)
!1293 = !DIImportedEntity(tag: DW_TAG_imported_declaration, scope: !164, entity: !1294, file: !1267, line: 63)
!1294 = !DIDerivedType(tag: DW_TAG_typedef, name: "int_least32_t", file: !1280, line: 45, baseType: !1295)
!1295 = !DIDerivedType(tag: DW_TAG_typedef, name: "__int_least32_t", file: !1265, line: 56, baseType: !1274)
!1296 = !DIImportedEntity(tag: DW_TAG_imported_declaration, scope: !164, entity: !1297, file: !1267, line: 64)
!1297 = !DIDerivedType(tag: DW_TAG_typedef, name: "int_least64_t", file: !1280, line: 46, baseType: !1298)
!1298 = !DIDerivedType(tag: DW_TAG_typedef, name: "__int_least64_t", file: !1265, line: 58, baseType: !1277)
!1299 = !DIImportedEntity(tag: DW_TAG_imported_declaration, scope: !164, entity: !1300, file: !1267, line: 66)
!1300 = !DIDerivedType(tag: DW_TAG_typedef, name: "intmax_t", file: !1280, line: 101, baseType: !1301)
!1301 = !DIDerivedType(tag: DW_TAG_typedef, name: "__intmax_t", file: !1265, line: 72, baseType: !267)
!1302 = !DIImportedEntity(tag: DW_TAG_imported_declaration, scope: !164, entity: !1303, file: !1267, line: 67)
!1303 = !DIDerivedType(tag: DW_TAG_typedef, name: "intptr_t", file: !1280, line: 87, baseType: !267)
!1304 = !DIImportedEntity(tag: DW_TAG_imported_declaration, scope: !164, entity: !1305, file: !1267, line: 69)
!1305 = !DIDerivedType(tag: DW_TAG_typedef, name: "uint8_t", file: !1306, line: 24, baseType: !1307)
!1306 = !DIFile(filename: "/usr/include/x86_64-linux-gnu/bits/stdint-uintn.h", directory: "")
!1307 = !DIDerivedType(tag: DW_TAG_typedef, name: "__uint8_t", file: !1265, line: 38, baseType: !1308)
!1308 = !DIBasicType(name: "unsigned char", size: 8, encoding: DW_ATE_unsigned_char)
!1309 = !DIImportedEntity(tag: DW_TAG_imported_declaration, scope: !164, entity: !1310, file: !1267, line: 70)
!1310 = !DIDerivedType(tag: DW_TAG_typedef, name: "uint16_t", file: !1306, line: 25, baseType: !1311)
!1311 = !DIDerivedType(tag: DW_TAG_typedef, name: "__uint16_t", file: !1265, line: 40, baseType: !1312)
!1312 = !DIBasicType(name: "unsigned short", size: 16, encoding: DW_ATE_unsigned)
!1313 = !DIImportedEntity(tag: DW_TAG_imported_declaration, scope: !164, entity: !1314, file: !1267, line: 71)
!1314 = !DIDerivedType(tag: DW_TAG_typedef, name: "uint32_t", file: !1306, line: 26, baseType: !1315)
!1315 = !DIDerivedType(tag: DW_TAG_typedef, name: "__uint32_t", file: !1265, line: 42, baseType: !53)
!1316 = !DIImportedEntity(tag: DW_TAG_imported_declaration, scope: !164, entity: !1317, file: !1267, line: 72)
!1317 = !DIDerivedType(tag: DW_TAG_typedef, name: "uint64_t", file: !1306, line: 27, baseType: !1318)
!1318 = !DIDerivedType(tag: DW_TAG_typedef, name: "__uint64_t", file: !1265, line: 45, baseType: !707)
!1319 = !DIImportedEntity(tag: DW_TAG_imported_declaration, scope: !164, entity: !1320, file: !1267, line: 74)
!1320 = !DIDerivedType(tag: DW_TAG_typedef, name: "uint_fast8_t", file: !1280, line: 71, baseType: !1308)
!1321 = !DIImportedEntity(tag: DW_TAG_imported_declaration, scope: !164, entity: !1322, file: !1267, line: 75)
!1322 = !DIDerivedType(tag: DW_TAG_typedef, name: "uint_fast16_t", file: !1280, line: 73, baseType: !707)
!1323 = !DIImportedEntity(tag: DW_TAG_imported_declaration, scope: !164, entity: !1324, file: !1267, line: 76)
!1324 = !DIDerivedType(tag: DW_TAG_typedef, name: "uint_fast32_t", file: !1280, line: 74, baseType: !707)
!1325 = !DIImportedEntity(tag: DW_TAG_imported_declaration, scope: !164, entity: !1326, file: !1267, line: 77)
!1326 = !DIDerivedType(tag: DW_TAG_typedef, name: "uint_fast64_t", file: !1280, line: 75, baseType: !707)
!1327 = !DIImportedEntity(tag: DW_TAG_imported_declaration, scope: !164, entity: !1328, file: !1267, line: 79)
!1328 = !DIDerivedType(tag: DW_TAG_typedef, name: "uint_least8_t", file: !1280, line: 49, baseType: !1329)
!1329 = !DIDerivedType(tag: DW_TAG_typedef, name: "__uint_least8_t", file: !1265, line: 53, baseType: !1307)
!1330 = !DIImportedEntity(tag: DW_TAG_imported_declaration, scope: !164, entity: !1331, file: !1267, line: 80)
!1331 = !DIDerivedType(tag: DW_TAG_typedef, name: "uint_least16_t", file: !1280, line: 50, baseType: !1332)
!1332 = !DIDerivedType(tag: DW_TAG_typedef, name: "__uint_least16_t", file: !1265, line: 55, baseType: !1311)
!1333 = !DIImportedEntity(tag: DW_TAG_imported_declaration, scope: !164, entity: !1334, file: !1267, line: 81)
!1334 = !DIDerivedType(tag: DW_TAG_typedef, name: "uint_least32_t", file: !1280, line: 51, baseType: !1335)
!1335 = !DIDerivedType(tag: DW_TAG_typedef, name: "__uint_least32_t", file: !1265, line: 57, baseType: !1315)
!1336 = !DIImportedEntity(tag: DW_TAG_imported_declaration, scope: !164, entity: !1337, file: !1267, line: 82)
!1337 = !DIDerivedType(tag: DW_TAG_typedef, name: "uint_least64_t", file: !1280, line: 52, baseType: !1338)
!1338 = !DIDerivedType(tag: DW_TAG_typedef, name: "__uint_least64_t", file: !1265, line: 59, baseType: !1318)
!1339 = !DIImportedEntity(tag: DW_TAG_imported_declaration, scope: !164, entity: !1340, file: !1267, line: 84)
!1340 = !DIDerivedType(tag: DW_TAG_typedef, name: "uintmax_t", file: !1280, line: 102, baseType: !1341)
!1341 = !DIDerivedType(tag: DW_TAG_typedef, name: "__uintmax_t", file: !1265, line: 73, baseType: !707)
!1342 = !DIImportedEntity(tag: DW_TAG_imported_declaration, scope: !164, entity: !1343, file: !1267, line: 85)
!1343 = !DIDerivedType(tag: DW_TAG_typedef, name: "uintptr_t", file: !1280, line: 90, baseType: !707)
!1344 = !DIImportedEntity(tag: DW_TAG_imported_declaration, scope: !164, entity: !1345, file: !1348, line: 60)
!1345 = !DIDerivedType(tag: DW_TAG_typedef, name: "clock_t", file: !1346, line: 7, baseType: !1347)
!1346 = !DIFile(filename: "/usr/include/x86_64-linux-gnu/bits/types/clock_t.h", directory: "")
!1347 = !DIDerivedType(tag: DW_TAG_typedef, name: "__clock_t", file: !1265, line: 156, baseType: !267)
!1348 = !DIFile(filename: "/usr/lib/gcc/x86_64-linux-gnu/13/../../../../include/c++/13/ctime", directory: "")
!1349 = !DIImportedEntity(tag: DW_TAG_imported_declaration, scope: !164, entity: !1350, file: !1348, line: 61)
!1350 = !DIDerivedType(tag: DW_TAG_typedef, name: "time_t", file: !1351, line: 7, baseType: !1352)
!1351 = !DIFile(filename: "/usr/include/x86_64-linux-gnu/bits/types/time_t.h", directory: "")
!1352 = !DIDerivedType(tag: DW_TAG_typedef, name: "__time_t", file: !1265, line: 160, baseType: !267)
!1353 = !DIImportedEntity(tag: DW_TAG_imported_declaration, scope: !164, entity: !1354, file: !1348, line: 62)
!1354 = !DICompositeType(tag: DW_TAG_structure_type, name: "tm", file: !1355, line: 7, size: 448, flags: DIFlagFwdDecl, identifier: "_ZTS2tm")
!1355 = !DIFile(filename: "/usr/include/x86_64-linux-gnu/bits/types/struct_tm.h", directory: "")
!1356 = !DIImportedEntity(tag: DW_TAG_imported_declaration, scope: !164, entity: !1357, file: !1348, line: 64)
!1357 = !DISubprogram(name: "clock", scope: !1358, file: !1358, line: 72, type: !1359, flags: DIFlagPrototyped, spFlags: 0)
!1358 = !DIFile(filename: "/usr/include/time.h", directory: "")
!1359 = !DISubroutineType(types: !1360)
!1360 = !{!1345}
!1361 = !DIImportedEntity(tag: DW_TAG_imported_declaration, scope: !164, entity: !1362, file: !1348, line: 65)
!1362 = !DISubprogram(name: "difftime", scope: !1358, file: !1358, line: 78, type: !1363, flags: DIFlagPrototyped, spFlags: 0)
!1363 = !DISubroutineType(types: !1364)
!1364 = !{!310, !1350, !1350}
!1365 = !DIImportedEntity(tag: DW_TAG_imported_declaration, scope: !164, entity: !1366, file: !1348, line: 66)
!1366 = !DISubprogram(name: "mktime", scope: !1358, file: !1358, line: 82, type: !1367, flags: DIFlagPrototyped, spFlags: 0)
!1367 = !DISubroutineType(types: !1368)
!1368 = !{!1350, !1369}
!1369 = !DIDerivedType(tag: DW_TAG_pointer_type, baseType: !1354, size: 64)
!1370 = !DIImportedEntity(tag: DW_TAG_imported_declaration, scope: !164, entity: !1371, file: !1348, line: 67)
!1371 = !DISubprogram(name: "time", scope: !1358, file: !1358, line: 75, type: !1372, flags: DIFlagPrototyped, spFlags: 0)
!1372 = !DISubroutineType(types: !1373)
!1373 = !{!1350, !1374}
!1374 = !DIDerivedType(tag: DW_TAG_pointer_type, baseType: !1350, size: 64)
!1375 = !DIImportedEntity(tag: DW_TAG_imported_declaration, scope: !164, entity: !1376, file: !1348, line: 68)
!1376 = !DISubprogram(name: "asctime", scope: !1358, file: !1358, line: 139, type: !1377, flags: DIFlagPrototyped, spFlags: 0)
!1377 = !DISubroutineType(types: !1378)
!1378 = !{!732, !1379}
!1379 = !DIDerivedType(tag: DW_TAG_pointer_type, baseType: !1380, size: 64)
!1380 = !DIDerivedType(tag: DW_TAG_const_type, baseType: !1354)
!1381 = !DIImportedEntity(tag: DW_TAG_imported_declaration, scope: !164, entity: !1382, file: !1348, line: 69)
!1382 = !DISubprogram(name: "ctime", scope: !1358, file: !1358, line: 142, type: !1383, flags: DIFlagPrototyped, spFlags: 0)
!1383 = !DISubroutineType(types: !1384)
!1384 = !{!732, !1385}
!1385 = !DIDerivedType(tag: DW_TAG_pointer_type, baseType: !1386, size: 64)
!1386 = !DIDerivedType(tag: DW_TAG_const_type, baseType: !1350)
!1387 = !DIImportedEntity(tag: DW_TAG_imported_declaration, scope: !164, entity: !1388, file: !1348, line: 70)
!1388 = !DISubprogram(name: "gmtime", scope: !1358, file: !1358, line: 119, type: !1389, flags: DIFlagPrototyped, spFlags: 0)
!1389 = !DISubroutineType(types: !1390)
!1390 = !{!1369, !1385}
!1391 = !DIImportedEntity(tag: DW_TAG_imported_declaration, scope: !164, entity: !1392, file: !1348, line: 71)
!1392 = !DISubprogram(name: "localtime", scope: !1358, file: !1358, line: 123, type: !1389, flags: DIFlagPrototyped, spFlags: 0)
!1393 = !DIImportedEntity(tag: DW_TAG_imported_declaration, scope: !164, entity: !1394, file: !1348, line: 72)
!1394 = !DISubprogram(name: "strftime", scope: !1358, file: !1358, line: 88, type: !1395, flags: DIFlagPrototyped, spFlags: 0)
!1395 = !DISubroutineType(types: !1396)
!1396 = !{!705, !797, !705, !754, !1397}
!1397 = !DIDerivedType(tag: DW_TAG_restrict_type, baseType: !1379)
!1398 = !{ptr @_Z14sfilter_kernelPKfPfifffffffff, !"kernel", i32 1}
!1399 = !{!"clang version 18.1.7 (https://github.com/vortexgpgpu/llvm.git a5ebf7f2c1f246a5e3a081a4fd1576247e574b30)"}
!1400 = !{!"clang version 3.8.0 (tags/RELEASE_380/final)"}
!1401 = !{i32 2, i32 0}
!1402 = !{!"divergence"}
!1403 = !DILocalVariable(name: "src", arg: 1, scope: !1404, file: !2, line: 128, type: !1407)
!1404 = distinct !DISubprogram(name: "sfilter_kernel", linkageName: "_Z14sfilter_kernelPKfPfifffffffff", scope: !2, file: !2, line: 128, type: !1405, scopeLine: 134, flags: DIFlagPrototyped, spFlags: DISPFlagDefinition, unit: !14, retainedNodes: !1411)
!1405 = !DISubroutineType(types: !1406)
!1406 = !{null, !1407, !1410, !169, !174, !174, !174, !174, !174, !174, !174, !174, !174}
!1407 = !DIDerivedType(tag: DW_TAG_restrict_type, baseType: !1408)
!1408 = !DIDerivedType(tag: DW_TAG_pointer_type, baseType: !1409, size: 64)
!1409 = !DIDerivedType(tag: DW_TAG_const_type, baseType: !174)
!1410 = !DIDerivedType(tag: DW_TAG_restrict_type, baseType: !305)
!1411 = !{}
!1412 = !DILocation(line: 0, scope: !1404)
!1413 = !DILocalVariable(name: "dst", arg: 2, scope: !1404, file: !2, line: 129, type: !1410)
!1414 = !DILocalVariable(name: "ldc", arg: 3, scope: !1404, file: !2, line: 130, type: !169)
!1415 = !DILocalVariable(name: "m0", arg: 4, scope: !1404, file: !2, line: 131, type: !174)
!1416 = !DILocalVariable(name: "m1", arg: 5, scope: !1404, file: !2, line: 131, type: !174)
!1417 = !DILocalVariable(name: "m2", arg: 6, scope: !1404, file: !2, line: 131, type: !174)
!1418 = !DILocalVariable(name: "m3", arg: 7, scope: !1404, file: !2, line: 132, type: !174)
!1419 = !DILocalVariable(name: "m4", arg: 8, scope: !1404, file: !2, line: 132, type: !174)
!1420 = !DILocalVariable(name: "m5", arg: 9, scope: !1404, file: !2, line: 132, type: !174)
!1421 = !DILocalVariable(name: "m6", arg: 10, scope: !1404, file: !2, line: 133, type: !174)
!1422 = !DILocalVariable(name: "m7", arg: 11, scope: !1404, file: !2, line: 133, type: !174)
!1423 = !DILocalVariable(name: "m8", arg: 12, scope: !1404, file: !2, line: 133, type: !174)
!1424 = !DILocation(line: 136, column: 26, scope: !1404)
!1425 = !DILocalVariable(name: "work_x", scope: !1404, file: !2, line: 136, type: !1426)
!1426 = !DIDerivedType(tag: DW_TAG_const_type, baseType: !169)
!1427 = !DILocalVariable(name: "work_y", scope: !1404, file: !2, line: 137, type: !1426)
!1428 = !DILocation(line: 66, column: 180, scope: !1429, inlinedAt: !1430)
!1429 = distinct !DISubprogram(name: "__fetch_builtin_x", linkageName: "_ZN25__cuda_builtin_blockIdx_t17__fetch_builtin_xEv", scope: !74, file: !75, line: 66, type: !78, scopeLine: 66, flags: DIFlagPrototyped, spFlags: DISPFlagDefinition, unit: !14, declaration: !77)
!1430 = distinct !DILocation(line: 143, column: 18, scope: !1404)
!1431 = !DILocation(line: 79, column: 180, scope: !1432, inlinedAt: !1433)
!1432 = distinct !DISubprogram(name: "__fetch_builtin_x", linkageName: "_ZN25__cuda_builtin_blockDim_t17__fetch_builtin_xEv", scope: !105, file: !75, line: 79, type: !78, scopeLine: 79, flags: DIFlagPrototyped, spFlags: DISPFlagDefinition, unit: !14, declaration: !107)
!1433 = distinct !DILocation(line: 143, column: 31, scope: !1404)
!1434 = !DILocation(line: 143, column: 29, scope: !1404)
!1435 = !DILocation(line: 53, column: 180, scope: !1436, inlinedAt: !1437)
!1436 = distinct !DISubprogram(name: "__fetch_builtin_x", linkageName: "_ZN26__cuda_builtin_threadIdx_t17__fetch_builtin_xEv", scope: !133, file: !75, line: 53, type: !78, scopeLine: 53, flags: DIFlagPrototyped, spFlags: DISPFlagDefinition, unit: !14, declaration: !135)
!1437 = distinct !DILocation(line: 143, column: 44, scope: !1404)
!1438 = !DILocation(line: 143, column: 42, scope: !1404)
!1439 = !DILocalVariable(name: "x0", scope: !1404, file: !2, line: 143, type: !1426)
!1440 = !DILocation(line: 67, column: 180, scope: !1441, inlinedAt: !1442)
!1441 = distinct !DISubprogram(name: "__fetch_builtin_y", linkageName: "_ZN25__cuda_builtin_blockIdx_t17__fetch_builtin_yEv", scope: !74, file: !75, line: 67, type: !78, scopeLine: 67, flags: DIFlagPrototyped, spFlags: DISPFlagDefinition, unit: !14, declaration: !80)
!1442 = distinct !DILocation(line: 144, column: 18, scope: !1404)
!1443 = !DILocation(line: 80, column: 180, scope: !1444, inlinedAt: !1445)
!1444 = distinct !DISubprogram(name: "__fetch_builtin_y", linkageName: "_ZN25__cuda_builtin_blockDim_t17__fetch_builtin_yEv", scope: !105, file: !75, line: 80, type: !78, scopeLine: 80, flags: DIFlagPrototyped, spFlags: DISPFlagDefinition, unit: !14, declaration: !108)
!1445 = distinct !DILocation(line: 144, column: 31, scope: !1404)
!1446 = !DILocation(line: 144, column: 29, scope: !1404)
!1447 = !DILocation(line: 54, column: 180, scope: !1448, inlinedAt: !1449)
!1448 = distinct !DISubprogram(name: "__fetch_builtin_y", linkageName: "_ZN26__cuda_builtin_threadIdx_t17__fetch_builtin_yEv", scope: !133, file: !75, line: 54, type: !78, scopeLine: 54, flags: DIFlagPrototyped, spFlags: DISPFlagDefinition, unit: !14, declaration: !136)
!1449 = distinct !DILocation(line: 144, column: 44, scope: !1404)
!1450 = !DILocation(line: 144, column: 42, scope: !1404)
!1451 = !DILocalVariable(name: "y0", scope: !1404, file: !2, line: 144, type: !1426)
!1452 = !DILocalVariable(name: "x", scope: !1404, file: !2, line: 147, type: !1426)
!1453 = !DILocation(line: 148, column: 20, scope: !1404)
!1454 = !DILocalVariable(name: "y", scope: !1404, file: !2, line: 148, type: !1426)
!1455 = !DILocation(line: 150, column: 26, scope: !1404)
!1456 = !DILocation(line: 147, column: 20, scope: !1404)
!1457 = !DILocation(line: 150, column: 22, scope: !1404)
!1458 = !DILocalVariable(name: "addr", scope: !1404, file: !2, line: 150, type: !1426)
!1459 = !DILocation(line: 151, column: 10, scope: !1460)
!1460 = distinct !DILexicalBlock(scope: !1404, file: !2, line: 151, column: 7)
!1461 = !DILocation(line: 151, column: 7, scope: !1404)
!1462 = !DILocation(line: 154, column: 3, scope: !1463)
!1463 = distinct !DILexicalBlock(scope: !1460, file: !2, line: 152, column: 3)
!1464 = !DILocation(line: 171, column: 10, scope: !1465)
!1465 = distinct !DILexicalBlock(scope: !1404, file: !2, line: 171, column: 7)
!1466 = !DILocation(line: 171, column: 20, scope: !1465)
!1467 = !DILocation(line: 176, column: 24, scope: !1404)
!1468 = !DILocation(line: 176, column: 14, scope: !1404)
!1469 = !DILocation(line: 176, column: 31, scope: !1404)
!1470 = !DILocalVariable(name: "i0", scope: !1404, file: !2, line: 176, type: !174)
!1471 = !DILocation(line: 177, column: 24, scope: !1404)
!1472 = !DILocation(line: 177, column: 14, scope: !1404)
!1473 = !DILocation(line: 177, column: 31, scope: !1404)
!1474 = !DILocalVariable(name: "i1", scope: !1404, file: !2, line: 177, type: !174)
!1475 = !DILocation(line: 178, column: 22, scope: !1404)
!1476 = !DILocation(line: 178, column: 24, scope: !1404)
!1477 = !DILocation(line: 178, column: 14, scope: !1404)
!1478 = !DILocation(line: 178, column: 31, scope: !1404)
!1479 = !DILocalVariable(name: "i2", scope: !1404, file: !2, line: 178, type: !174)
!1480 = !DILocation(line: 179, column: 14, scope: !1404)
!1481 = !DILocation(line: 179, column: 31, scope: !1404)
!1482 = !DILocalVariable(name: "i3", scope: !1404, file: !2, line: 179, type: !174)
!1483 = !DILocation(line: 180, column: 14, scope: !1404)
!1484 = !DILocation(line: 180, column: 31, scope: !1404)
!1485 = !DILocalVariable(name: "i4", scope: !1404, file: !2, line: 180, type: !174)
!1486 = !DILocation(line: 181, column: 14, scope: !1404)
!1487 = !DILocation(line: 181, column: 31, scope: !1404)
!1488 = !DILocalVariable(name: "i5", scope: !1404, file: !2, line: 181, type: !174)
!1489 = !DILocation(line: 182, column: 24, scope: !1404)
!1490 = !DILocation(line: 182, column: 14, scope: !1404)
!1491 = !DILocation(line: 182, column: 31, scope: !1404)
!1492 = !DILocalVariable(name: "i6", scope: !1404, file: !2, line: 182, type: !174)
!1493 = !DILocation(line: 183, column: 24, scope: !1404)
!1494 = !DILocation(line: 183, column: 14, scope: !1404)
!1495 = !DILocation(line: 183, column: 31, scope: !1404)
!1496 = !DILocalVariable(name: "i7", scope: !1404, file: !2, line: 183, type: !174)
!1497 = !DILocation(line: 184, column: 24, scope: !1404)
!1498 = !DILocation(line: 184, column: 14, scope: !1404)
!1499 = !DILocation(line: 184, column: 31, scope: !1404)
!1500 = !DILocalVariable(name: "i8", scope: !1404, file: !2, line: 184, type: !174)
!1501 = !DILocation(line: 186, column: 18, scope: !1404)
!1502 = !DILocation(line: 186, column: 23, scope: !1404)
!1503 = !DILocation(line: 186, column: 28, scope: !1404)
!1504 = !DILocation(line: 186, column: 33, scope: !1404)
!1505 = !DILocation(line: 186, column: 38, scope: !1404)
!1506 = !DILocation(line: 186, column: 43, scope: !1404)
!1507 = !DILocation(line: 186, column: 48, scope: !1404)
!1508 = !DILocation(line: 186, column: 53, scope: !1404)
!1509 = !DILocation(line: 186, column: 3, scope: !1404)
!1510 = !DILocation(line: 186, column: 13, scope: !1404)
!1511 = !DILocation(line: 187, column: 1, scope: !1404)
