	.text
	.file	"sfilter.cu"
	.file	0 "/nethome/cahn45/CuPBoP/examples/sfilter" "sfilter.cu" md5 0xff1ea7f9d5628551fae31d85640bb085
	.file	1 "." "sfilter.cu"
	.file	2 "/usr/lib/gcc/x86_64-linux-gnu/13/../../../../include/c++/13/bits" "stl_vector.h"
	.file	3 "/nethome/cahn45/CuPBoP" "cuda-12.1/include/nv/target"
	.file	4 "/nethome/cahn45/CuPBoP" "cuda-12.1/include/driver_types.h"
	.file	5 "/nethome/cahn45" "llvm-vortex-with-cuda-build/lib/clang/18/include/__stddef_size_t.h"
	.file	6 "/usr/include/x86_64-linux-gnu/bits" "types.h"
	.file	7 "/usr/include" "stdint.h"
	.file	8 "/usr/lib/gcc/x86_64-linux-gnu/13/../../../../include/c++/13" "ratio"
	.file	9 "/usr/lib/gcc/x86_64-linux-gnu/13/../../../../include/c++/13/bits" "chrono.h"
	.file	10 "/usr/lib/gcc/x86_64-linux-gnu/13/../../../../include/c++/13/bits" "new_allocator.h"
	.file	11 "/usr/lib/gcc/x86_64-linux-gnu/13/../../../../include/x86_64-linux-gnu/c++/13/bits" "c++config.h"
	.file	12 "/usr/lib/gcc/x86_64-linux-gnu/13/../../../../include/x86_64-linux-gnu/c++/13/bits" "c++allocator.h"
	.file	13 "/usr/lib/gcc/x86_64-linux-gnu/13/../../../../include/c++/13/bits" "allocator.h"
	.file	14 "/usr/lib/gcc/x86_64-linux-gnu/13/../../../../include/c++/13/bits" "alloc_traits.h"
	.file	15 "/usr/lib/gcc/x86_64-linux-gnu/13/../../../../include/c++/13/ext" "alloc_traits.h"
	.file	16 "/usr/lib/gcc/x86_64-linux-gnu/13/../../../../include/c++/13" "type_traits"
	.file	17 "/nethome/cahn45/CuPBoP" "cuda-12.1/include/vector_types.h"
	.file	18 "/usr/include/x86_64-linux-gnu/bits/types" "time_t.h"
	.globl	_Z29__device_stub__sfilter_kernelPKfPfifffffffff # -- Begin function _Z29__device_stub__sfilter_kernelPKfPfifffffffff
	.p2align	4, 0x90
	.type	_Z29__device_stub__sfilter_kernelPKfPfifffffffff,@function
_Z29__device_stub__sfilter_kernelPKfPfifffffffff: # @_Z29__device_stub__sfilter_kernelPKfPfifffffffff
.Lfunc_begin0:
	.loc	1 134 0                         # ./sfilter.cu:134:0
	.cfi_startproc
# %bb.0:                                # %entry
	pushq	%rbp
	.cfi_def_cfa_offset 16
	.cfi_offset %rbp, -16
	movq	%rsp, %rbp
	.cfi_def_cfa_register %rbp
	subq	$240, %rsp
	movss	16(%rbp), %xmm8                 # xmm8 = mem[0],zero,zero,zero
	movq	%rdi, -8(%rbp)
	movq	%rsi, -16(%rbp)
	movl	%edx, -20(%rbp)
	movss	%xmm0, -24(%rbp)
	movss	%xmm1, -28(%rbp)
	movss	%xmm2, -32(%rbp)
	movss	%xmm3, -36(%rbp)
	movss	%xmm4, -40(%rbp)
	movss	%xmm5, -44(%rbp)
	movss	%xmm6, -48(%rbp)
	movss	%xmm7, -52(%rbp)
.Ltmp0:
	.loc	1 134 1 prologue_end            # ./sfilter.cu:134:1
	leaq	-8(%rbp), %rax
	movq	%rax, -224(%rbp)
	leaq	-16(%rbp), %rax
	movq	%rax, -216(%rbp)
	leaq	-20(%rbp), %rax
	movq	%rax, -208(%rbp)
	leaq	-24(%rbp), %rax
	movq	%rax, -200(%rbp)
	leaq	-28(%rbp), %rax
	movq	%rax, -192(%rbp)
	leaq	-32(%rbp), %rax
	movq	%rax, -184(%rbp)
	leaq	-36(%rbp), %rax
	movq	%rax, -176(%rbp)
	leaq	-40(%rbp), %rax
	movq	%rax, -168(%rbp)
	leaq	-44(%rbp), %rax
	movq	%rax, -160(%rbp)
	leaq	-48(%rbp), %rax
	movq	%rax, -152(%rbp)
	leaq	-52(%rbp), %rax
	movq	%rax, -144(%rbp)
	leaq	16(%rbp), %rax
	movq	%rax, -136(%rbp)
	leaq	-64(%rbp), %rdi
	leaq	-80(%rbp), %rsi
	leaq	-88(%rbp), %rdx
	leaq	-96(%rbp), %rcx
	callq	__cudaPopCallConfiguration@PLT
	movq	-88(%rbp), %r10
	movq	-96(%rbp), %rax
	movq	-64(%rbp), %rcx
	movq	%rcx, -112(%rbp)
	movl	-56(%rbp), %ecx
	movl	%ecx, -104(%rbp)
	movq	-112(%rbp), %rsi
	movl	-104(%rbp), %edx
	movq	-80(%rbp), %rcx
	movq	%rcx, -128(%rbp)
	movl	-72(%rbp), %ecx
	movl	%ecx, -120(%rbp)
	movq	-128(%rbp), %rcx
	movl	-120(%rbp), %r8d
	leaq	_Z29__device_stub__sfilter_kernelPKfPfifffffffff(%rip), %rdi
	leaq	-224(%rbp), %r9
	movq	%r10, (%rsp)
	movq	%rax, 8(%rsp)
	callq	cudaLaunchKernel@PLT
# %bb.1:                                # %setup.end
	.loc	1 187 1 epilogue_begin          # ./sfilter.cu:187:1
	addq	$240, %rsp
	popq	%rbp
	.cfi_def_cfa %rsp, 8
	retq
.Ltmp1:
.Lfunc_end0:
	.size	_Z29__device_stub__sfilter_kernelPKfPfifffffffff, .Lfunc_end0-_Z29__device_stub__sfilter_kernelPKfPfifffffffff
	.cfi_endproc
                                        # -- End function
	.section	.rodata.cst4,"aM",@progbits,4
	.p2align	2, 0x0                          # -- Begin function main
.LCPI1_0:
	.long	0x3f800000                      # float 1
.LCPI1_1:
	.long	0x42c80000                      # float 100
.LCPI1_2:
	.long	0x4f000000                      # float 2.14748365E+9
	.text
	.globl	main
	.p2align	4, 0x90
	.type	main,@function
main:                                   # @main
.Lfunc_begin1:
	.loc	1 189 0                         # ./sfilter.cu:189:0
	.cfi_startproc
	.cfi_personality 155, DW.ref.__gxx_personality_v0
	.cfi_lsda 27, .Lexception0
# %bb.0:                                # %entry
	pushq	%rbp
	.cfi_def_cfa_offset 16
	.cfi_offset %rbp, -16
	movq	%rsp, %rbp
	.cfi_def_cfa_register %rbp
	subq	$976, %rsp                      # imm = 0x3D0
	movl	$0, -100(%rbp)
	movl	%edi, -104(%rbp)
	movq	%rsi, -112(%rbp)
.Ltmp106:
	.loc	1 190 14 prologue_end           # ./sfilter.cu:190:14
	movl	-104(%rbp), %edi
	.loc	1 190 20 is_stmt 0              # ./sfilter.cu:190:20
	movq	-112(%rbp), %rsi
	.loc	1 190 3                         # ./sfilter.cu:190:3
	callq	_ZL10parse_argsiPPc
	.loc	1 192 29 is_stmt 1              # ./sfilter.cu:192:29
	movl	_ZL5size_(%rip), %esi
	.loc	1 192 3 is_stmt 0               # ./sfilter.cu:192:3
	leaq	.L.str(%rip), %rdi
	xorl	%eax, %eax
                                        # kill: def $al killed $al killed $eax
	movb	%al, -649(%rbp)                 # 1-byte Spill
	callq	printf@PLT
                                        # kill: def $ecx killed $eax
	movb	-649(%rbp), %al                 # 1-byte Reload
	.loc	1 193 32 is_stmt 1              # ./sfilter.cu:193:32
	movl	_ZL7block_x(%rip), %esi
	.loc	1 193 41 is_stmt 0              # ./sfilter.cu:193:41
	movl	_ZL7block_y(%rip), %edx
	.loc	1 193 3                         # ./sfilter.cu:193:3
	leaq	.L.str.1(%rip), %rdi
	callq	printf@PLT
	.loc	1 195 25 is_stmt 1              # ./sfilter.cu:195:25
	movslq	_ZL5size_(%rip), %rax
	.loc	1 195 19 is_stmt 0              # ./sfilter.cu:195:19
	movq	%rax, -120(%rbp)
	.loc	1 196 28 is_stmt 1              # ./sfilter.cu:196:28
	movslq	_ZL5size_(%rip), %rax
	.loc	1 196 34 is_stmt 0              # ./sfilter.cu:196:34
	imulq	%rax, %rax
	.loc	1 196 16                        # ./sfilter.cu:196:16
	movq	%rax, -128(%rbp)
	.loc	1 197 25 is_stmt 1              # ./sfilter.cu:197:25
	movq	-128(%rbp), %rax
	.loc	1 197 27 is_stmt 0              # ./sfilter.cu:197:27
	shlq	$2, %rax
	.loc	1 197 16                        # ./sfilter.cu:197:16
	movq	%rax, -136(%rbp)
	.loc	1 200 28 is_stmt 1              # ./sfilter.cu:200:28
	movq	-128(%rbp), %rsi
	leaq	-161(%rbp), %rdx
	movq	%rdx, -96(%rbp)
	movq	-96(%rbp), %rax
	movq	%rax, -8(%rbp)
.Ltmp2:
	leaq	-160(%rbp), %rdi
	.loc	1 200 22 is_stmt 0              # ./sfilter.cu:200:22
	callq	_ZNSt6vectorIfSaIfEEC2EmRKS0_
.Ltmp3:
	jmp	.LBB1_1
.LBB1_1:                                # %invoke.cont
	.loc	1 0 22                          # ./sfilter.cu:0:22
	leaq	-161(%rbp), %rax
	movq	%rax, -72(%rbp)
	movq	-72(%rbp), %rdi
.Ltmp107:
	.loc	13 184 31 is_stmt 1             # /usr/lib/gcc/x86_64-linux-gnu/13/../../../../include/c++/13/bits/allocator.h:184:31
	callq	_ZNSt15__new_allocatorIfED2Ev
.Ltmp108:
	.loc	1 201 28                        # ./sfilter.cu:201:28
	movq	-128(%rbp), %rsi
	.loc	1 201 31 is_stmt 0              # ./sfilter.cu:201:31
	movl	$0, -212(%rbp)
	leaq	-213(%rbp), %rcx
	movq	%rcx, -88(%rbp)
	movq	-88(%rbp), %rax
	movq	%rax, -16(%rbp)
.Ltmp5:
	leaq	-208(%rbp), %rdi
	leaq	-212(%rbp), %rdx
	.loc	1 201 22                        # ./sfilter.cu:201:22
	callq	_ZNSt6vectorIfSaIfEEC2EmRKfRKS0_
.Ltmp6:
	jmp	.LBB1_2
.LBB1_2:                                # %invoke.cont8
	.loc	1 0 22                          # ./sfilter.cu:0:22
	leaq	-213(%rbp), %rax
	movq	%rax, -56(%rbp)
	movq	-56(%rbp), %rdi
.Ltmp109:
	.loc	13 184 31 is_stmt 1             # /usr/lib/gcc/x86_64-linux-gnu/13/../../../../include/c++/13/bits/allocator.h:184:31
	callq	_ZNSt15__new_allocatorIfED2Ev
.Ltmp110:
	.loc	1 202 30                        # ./sfilter.cu:202:30
	movq	-128(%rbp), %rsi
	.loc	1 202 33 is_stmt 0              # ./sfilter.cu:202:33
	movl	$0, -244(%rbp)
	leaq	-245(%rbp), %rcx
	movq	%rcx, -80(%rbp)
	movq	-80(%rbp), %rax
	movq	%rax, -24(%rbp)
.Ltmp8:
	leaq	-240(%rbp), %rdi
	leaq	-244(%rbp), %rdx
	.loc	1 202 22                        # ./sfilter.cu:202:22
	callq	_ZNSt6vectorIfSaIfEEC2EmRKfRKS0_
.Ltmp9:
	jmp	.LBB1_3
.LBB1_3:                                # %invoke.cont12
	.loc	1 0 22                          # ./sfilter.cu:0:22
	leaq	-245(%rbp), %rax
	movq	%rax, -40(%rbp)
	movq	-40(%rbp), %rdi
.Ltmp111:
	.loc	13 184 31 is_stmt 1             # /usr/lib/gcc/x86_64-linux-gnu/13/../../../../include/c++/13/bits/allocator.h:184:31
	callq	_ZNSt15__new_allocatorIfED2Ev
.Ltmp112:
	.loc	1 205 15                        # ./sfilter.cu:205:15
	movq	$0, -256(%rbp)
.LBB1_4:                                # %for.cond
                                        # =>This Inner Loop Header: Depth=1
.Ltmp113:
	.loc	1 205 22 is_stmt 0              # ./sfilter.cu:205:22
	movq	-256(%rbp), %rax
	.loc	1 205 24                        # ./sfilter.cu:205:24
	cmpq	-128(%rbp), %rax
.Ltmp114:
	.loc	1 205 3                         # ./sfilter.cu:205:3
	jae	.LBB1_10
# %bb.5:                                # %for.body
                                        #   in Loop: Header=BB1_4 Depth=1
.Ltmp115:
	.loc	1 206 35 is_stmt 1              # ./sfilter.cu:206:35
	callq	rand@PLT
	cvtsi2ss	%eax, %xmm0
	.loc	1 206 43 is_stmt 0              # ./sfilter.cu:206:43
	movss	.LCPI1_2(%rip), %xmm1           # xmm1 = [2.14748365E+9,0.0E+0,0.0E+0,0.0E+0]
	divss	%xmm1, %xmm0
	.loc	1 206 56                        # ./sfilter.cu:206:56
	movss	.LCPI1_1(%rip), %xmm1           # xmm1 = [1.0E+2,0.0E+0,0.0E+0,0.0E+0]
	mulss	%xmm1, %xmm0
	movss	%xmm0, -656(%rbp)               # 4-byte Spill
	.loc	1 206 11                        # ./sfilter.cu:206:11
	movq	-256(%rbp), %rsi
	.loc	1 206 5                         # ./sfilter.cu:206:5
	leaq	-160(%rbp), %rdi
	callq	_ZNSt6vectorIfSaIfEEixEm
	movss	-656(%rbp), %xmm0               # 4-byte Reload
                                        # xmm0 = mem[0],zero,zero,zero
	.loc	1 206 14                        # ./sfilter.cu:206:14
	movss	%xmm0, (%rax)
.Ltmp116:
# %bb.6:                                # %for.inc
                                        #   in Loop: Header=BB1_4 Depth=1
	.loc	1 205 29 is_stmt 1              # ./sfilter.cu:205:29
	movq	-256(%rbp), %rax
	addq	$1, %rax
	movq	%rax, -256(%rbp)
	.loc	1 205 3 is_stmt 0               # ./sfilter.cu:205:3
	jmp	.LBB1_4
.Ltmp117:
.LBB1_7:                                # %lpad
.Ltmp4:
	.loc	1 0 3                           # ./sfilter.cu:0:3
	movq	%rax, %rcx
	.loc	1 301 1 is_stmt 1               # ./sfilter.cu:301:1
	movl	%edx, %eax
	movq	%rcx, -176(%rbp)
	movl	%eax, -180(%rbp)
	leaq	-161(%rbp), %rax
	movq	%rax, -64(%rbp)
	movq	-64(%rbp), %rdi
.Ltmp118:
	.loc	13 184 31                       # /usr/lib/gcc/x86_64-linux-gnu/13/../../../../include/c++/13/bits/allocator.h:184:31
	callq	_ZNSt15__new_allocatorIfED2Ev
.Ltmp119:
	.loc	1 200 22                        # ./sfilter.cu:200:22
	jmp	.LBB1_125
.LBB1_8:                                # %lpad7
.Ltmp7:
	.loc	1 0 22 is_stmt 0                # ./sfilter.cu:0:22
	movq	%rax, %rcx
	.loc	1 301 1 is_stmt 1               # ./sfilter.cu:301:1
	movl	%edx, %eax
	movq	%rcx, -176(%rbp)
	movl	%eax, -180(%rbp)
	leaq	-213(%rbp), %rax
	movq	%rax, -48(%rbp)
	movq	-48(%rbp), %rdi
.Ltmp120:
	.loc	13 184 31                       # /usr/lib/gcc/x86_64-linux-gnu/13/../../../../include/c++/13/bits/allocator.h:184:31
	callq	_ZNSt15__new_allocatorIfED2Ev
.Ltmp121:
	.loc	1 201 22                        # ./sfilter.cu:201:22
	jmp	.LBB1_124
.LBB1_9:                                # %lpad11
.Ltmp10:
	.loc	1 0 22 is_stmt 0                # ./sfilter.cu:0:22
	movq	%rax, %rcx
	.loc	1 301 1 is_stmt 1               # ./sfilter.cu:301:1
	movl	%edx, %eax
	movq	%rcx, -176(%rbp)
	movl	%eax, -180(%rbp)
	leaq	-245(%rbp), %rax
	movq	%rax, -32(%rbp)
	movq	-32(%rbp), %rdi
.Ltmp122:
	.loc	13 184 31                       # /usr/lib/gcc/x86_64-linux-gnu/13/../../../../include/c++/13/bits/allocator.h:184:31
	callq	_ZNSt15__new_allocatorIfED2Ev
.Ltmp123:
	.loc	1 202 22                        # ./sfilter.cu:202:22
	jmp	.LBB1_123
.LBB1_10:                               # %for.end
	.loc	1 210 9                         # ./sfilter.cu:210:9
	movss	.LCPI1_0(%rip), %xmm0           # xmm0 = [1.0E+0,0.0E+0,0.0E+0,0.0E+0]
	movss	%xmm0, -260(%rbp)
	.loc	1 210 20 is_stmt 0              # ./sfilter.cu:210:20
	movss	.LCPI1_0(%rip), %xmm0           # xmm0 = [1.0E+0,0.0E+0,0.0E+0,0.0E+0]
	movss	%xmm0, -264(%rbp)
	.loc	1 210 31                        # ./sfilter.cu:210:31
	movss	.LCPI1_0(%rip), %xmm0           # xmm0 = [1.0E+0,0.0E+0,0.0E+0,0.0E+0]
	movss	%xmm0, -268(%rbp)
	.loc	1 211 9 is_stmt 1               # ./sfilter.cu:211:9
	movss	.LCPI1_0(%rip), %xmm0           # xmm0 = [1.0E+0,0.0E+0,0.0E+0,0.0E+0]
	movss	%xmm0, -272(%rbp)
	.loc	1 211 20 is_stmt 0              # ./sfilter.cu:211:20
	movss	.LCPI1_0(%rip), %xmm0           # xmm0 = [1.0E+0,0.0E+0,0.0E+0,0.0E+0]
	movss	%xmm0, -276(%rbp)
	.loc	1 211 31                        # ./sfilter.cu:211:31
	movss	.LCPI1_0(%rip), %xmm0           # xmm0 = [1.0E+0,0.0E+0,0.0E+0,0.0E+0]
	movss	%xmm0, -280(%rbp)
	.loc	1 212 9 is_stmt 1               # ./sfilter.cu:212:9
	movss	.LCPI1_0(%rip), %xmm0           # xmm0 = [1.0E+0,0.0E+0,0.0E+0,0.0E+0]
	movss	%xmm0, -284(%rbp)
	.loc	1 212 20 is_stmt 0              # ./sfilter.cu:212:20
	movss	.LCPI1_0(%rip), %xmm0           # xmm0 = [1.0E+0,0.0E+0,0.0E+0,0.0E+0]
	movss	%xmm0, -288(%rbp)
	.loc	1 212 31                        # ./sfilter.cu:212:31
	movss	.LCPI1_0(%rip), %xmm0           # xmm0 = [1.0E+0,0.0E+0,0.0E+0,0.0E+0]
	movss	%xmm0, -292(%rbp)
.Ltmp124:
	.loc	1 216 18 is_stmt 1              # ./sfilter.cu:216:18
	movq	.L__const.main.global_offset(%rip), %rax
	movq	%rax, -320(%rbp)
	movq	.L__const.main.global_offset+8(%rip), %rax
	movq	%rax, -312(%rbp)
	.loc	1 217 50                        # ./sfilter.cu:217:50
	movl	_ZL5size_(%rip), %eax
	.loc	1 217 56 is_stmt 0              # ./sfilter.cu:217:56
	subl	$2, %eax
	.loc	1 217 49                        # ./sfilter.cu:217:49
	cltq
	.loc	1 217 40                        # ./sfilter.cu:217:40
	movq	%rax, -336(%rbp)
	.loc	1 217 71                        # ./sfilter.cu:217:71
	movl	_ZL5size_(%rip), %eax
	.loc	1 217 77                        # ./sfilter.cu:217:77
	subl	$2, %eax
	.loc	1 217 70                        # ./sfilter.cu:217:70
	cltq
	.loc	1 217 40                        # ./sfilter.cu:217:40
	movq	%rax, -328(%rbp)
	.loc	1 218 18 is_stmt 1              # ./sfilter.cu:218:18
	movq	.L__const.main.local_work_size(%rip), %rax
	movq	%rax, -352(%rbp)
	movq	.L__const.main.local_work_size+8(%rip), %rax
	movq	%rax, -344(%rbp)
	.loc	1 220 27                        # ./sfilter.cu:220:27
	movq	-328(%rbp), %rax
	.loc	1 220 47 is_stmt 0              # ./sfilter.cu:220:47
	xorl	%ecx, %ecx
	movl	%ecx, %edx
	divq	-344(%rbp)
	.loc	1 220 12                        # ./sfilter.cu:220:12
	movq	%rax, -360(%rbp)
	.loc	1 221 27 is_stmt 1              # ./sfilter.cu:221:27
	movq	-336(%rbp), %rax
	.loc	1 221 47 is_stmt 0              # ./sfilter.cu:221:47
	xorl	%ecx, %ecx
	movl	%ecx, %edx
	divq	-352(%rbp)
	.loc	1 221 12                        # ./sfilter.cu:221:12
	movq	%rax, -368(%rbp)
.Ltmp125:
	.loc	1 222 17 is_stmt 1              # ./sfilter.cu:222:17
	movq	$0, -376(%rbp)
.LBB1_11:                               # %for.cond25
                                        # =>This Loop Header: Depth=1
                                        #     Child Loop BB1_13 Depth 2
                                        #       Child Loop BB1_15 Depth 3
                                        #         Child Loop BB1_17 Depth 4
.Ltmp126:
	.loc	1 222 37 is_stmt 0              # ./sfilter.cu:222:37
	movq	-376(%rbp), %rax
	.loc	1 222 52                        # ./sfilter.cu:222:52
	cmpq	-360(%rbp), %rax
.Ltmp127:
	.loc	1 222 5                         # ./sfilter.cu:222:5
	jae	.LBB1_37
# %bb.12:                               # %for.body27
                                        #   in Loop: Header=BB1_11 Depth=1
.Ltmp128:
	.loc	1 223 19 is_stmt 1              # ./sfilter.cu:223:19
	movq	$0, -384(%rbp)
.LBB1_13:                               # %for.cond28
                                        #   Parent Loop BB1_11 Depth=1
                                        # =>  This Loop Header: Depth=2
                                        #       Child Loop BB1_15 Depth 3
                                        #         Child Loop BB1_17 Depth 4
.Ltmp129:
	.loc	1 223 39 is_stmt 0              # ./sfilter.cu:223:39
	movq	-384(%rbp), %rax
	.loc	1 223 54                        # ./sfilter.cu:223:54
	cmpq	-368(%rbp), %rax
.Ltmp130:
	.loc	1 223 7                         # ./sfilter.cu:223:7
	jae	.LBB1_35
# %bb.14:                               # %for.body30
                                        #   in Loop: Header=BB1_13 Depth=2
.Ltmp131:
	.loc	1 224 21 is_stmt 1              # ./sfilter.cu:224:21
	movq	$0, -392(%rbp)
.LBB1_15:                               # %for.cond31
                                        #   Parent Loop BB1_11 Depth=1
                                        #     Parent Loop BB1_13 Depth=2
                                        # =>    This Loop Header: Depth=3
                                        #         Child Loop BB1_17 Depth 4
.Ltmp132:
	.loc	1 224 37 is_stmt 0              # ./sfilter.cu:224:37
	movq	-392(%rbp), %rax
	.loc	1 224 48                        # ./sfilter.cu:224:48
	cmpq	-344(%rbp), %rax
.Ltmp133:
	.loc	1 224 9                         # ./sfilter.cu:224:9
	jae	.LBB1_33
# %bb.16:                               # %for.body34
                                        #   in Loop: Header=BB1_15 Depth=3
.Ltmp134:
	.loc	1 225 23 is_stmt 1              # ./sfilter.cu:225:23
	movq	$0, -400(%rbp)
.LBB1_17:                               # %for.cond35
                                        #   Parent Loop BB1_11 Depth=1
                                        #     Parent Loop BB1_13 Depth=2
                                        #       Parent Loop BB1_15 Depth=3
                                        # =>      This Inner Loop Header: Depth=4
.Ltmp135:
	.loc	1 225 39 is_stmt 0              # ./sfilter.cu:225:39
	movq	-400(%rbp), %rax
	.loc	1 225 50                        # ./sfilter.cu:225:50
	cmpq	-352(%rbp), %rax
.Ltmp136:
	.loc	1 225 11                        # ./sfilter.cu:225:11
	jae	.LBB1_31
# %bb.18:                               # %for.body38
                                        #   in Loop: Header=BB1_17 Depth=4
.Ltmp137:
	.loc	1 226 21 is_stmt 1              # ./sfilter.cu:226:21
	movl	-320(%rbp), %eax
	.loc	1 226 40 is_stmt 0              # ./sfilter.cu:226:40
	movl	-352(%rbp), %ecx
	.loc	1 226 61                        # ./sfilter.cu:226:61
	movl	-384(%rbp), %edx
	.loc	1 226 59                        # ./sfilter.cu:226:59
	imull	%edx, %ecx
	.loc	1 226 38                        # ./sfilter.cu:226:38
	addl	%ecx, %eax
	.loc	1 226 78                        # ./sfilter.cu:226:78
	movl	-400(%rbp), %ecx
	.loc	1 226 76                        # ./sfilter.cu:226:76
	addl	%ecx, %eax
	.loc	1 226 17                        # ./sfilter.cu:226:17
	movl	%eax, -404(%rbp)
	.loc	1 227 21 is_stmt 1              # ./sfilter.cu:227:21
	movl	-312(%rbp), %eax
	.loc	1 227 40 is_stmt 0              # ./sfilter.cu:227:40
	movl	-344(%rbp), %ecx
	.loc	1 227 61                        # ./sfilter.cu:227:61
	movl	-376(%rbp), %edx
	.loc	1 227 59                        # ./sfilter.cu:227:59
	imull	%edx, %ecx
	.loc	1 227 38                        # ./sfilter.cu:227:38
	addl	%ecx, %eax
	.loc	1 227 78                        # ./sfilter.cu:227:78
	movl	-392(%rbp), %ecx
	.loc	1 227 76                        # ./sfilter.cu:227:76
	addl	%ecx, %eax
	.loc	1 227 17                        # ./sfilter.cu:227:17
	movl	%eax, -408(%rbp)
	.loc	1 228 30 is_stmt 1              # ./sfilter.cu:228:30
	movslq	-404(%rbp), %rax
	.loc	1 228 45 is_stmt 0              # ./sfilter.cu:228:45
	movslq	-408(%rbp), %rcx
	.loc	1 228 49                        # ./sfilter.cu:228:49
	movq	-120(%rbp), %rdx
	.loc	1 228 47                        # ./sfilter.cu:228:47
	imulq	%rdx, %rcx
	.loc	1 228 32                        # ./sfilter.cu:228:32
	addq	%rcx, %rax
	.loc	1 228 23                        # ./sfilter.cu:228:23
	movq	%rax, -416(%rbp)
	.loc	1 229 33 is_stmt 1              # ./sfilter.cu:229:33
	movq	-416(%rbp), %rax
	.loc	1 229 42 is_stmt 0              # ./sfilter.cu:229:42
	movq	-120(%rbp), %rsi
	.loc	1 229 39                        # ./sfilter.cu:229:39
	notq	%rsi
	addq	%rax, %rsi
.Ltmp85:
	leaq	-160(%rbp), %rdi
	.loc	1 229 30                        # ./sfilter.cu:229:30
	callq	_ZNSt6vectorIfSaIfEE2atEm
.Ltmp86:
	movq	%rax, -664(%rbp)                # 8-byte Spill
	jmp	.LBB1_19
.LBB1_19:                               # %invoke.cont58
                                        #   in Loop: Header=BB1_17 Depth=4
	.loc	1 0 30                          # ./sfilter.cu:0:30
	movq	-664(%rbp), %rax                # 8-byte Reload
	.loc	1 229 30                        # ./sfilter.cu:229:30
	movss	(%rax), %xmm0                   # xmm0 = mem[0],zero,zero,zero
	.loc	1 229 47                        # ./sfilter.cu:229:47
	movss	-260(%rbp), %xmm1               # xmm1 = mem[0],zero,zero,zero
	.loc	1 229 46                        # ./sfilter.cu:229:46
	mulss	%xmm1, %xmm0
	.loc	1 229 19                        # ./sfilter.cu:229:19
	movss	%xmm0, -420(%rbp)
	.loc	1 230 33 is_stmt 1              # ./sfilter.cu:230:33
	movq	-416(%rbp), %rsi
	.loc	1 230 42 is_stmt 0              # ./sfilter.cu:230:42
	movq	-120(%rbp), %rax
	.loc	1 230 39                        # ./sfilter.cu:230:39
	subq	%rax, %rsi
.Ltmp87:
	leaq	-160(%rbp), %rdi
	.loc	1 230 30                        # ./sfilter.cu:230:30
	callq	_ZNSt6vectorIfSaIfEE2atEm
.Ltmp88:
	movq	%rax, -672(%rbp)                # 8-byte Spill
	jmp	.LBB1_20
.LBB1_20:                               # %invoke.cont64
                                        #   in Loop: Header=BB1_17 Depth=4
	.loc	1 0 30                          # ./sfilter.cu:0:30
	movq	-672(%rbp), %rax                # 8-byte Reload
	.loc	1 230 30                        # ./sfilter.cu:230:30
	movss	(%rax), %xmm0                   # xmm0 = mem[0],zero,zero,zero
	.loc	1 230 47                        # ./sfilter.cu:230:47
	movss	-264(%rbp), %xmm1               # xmm1 = mem[0],zero,zero,zero
	.loc	1 230 46                        # ./sfilter.cu:230:46
	mulss	%xmm1, %xmm0
	.loc	1 230 19                        # ./sfilter.cu:230:19
	movss	%xmm0, -424(%rbp)
	.loc	1 231 33 is_stmt 1              # ./sfilter.cu:231:33
	movq	-416(%rbp), %rsi
	.loc	1 231 42 is_stmt 0              # ./sfilter.cu:231:42
	movq	-120(%rbp), %rax
	.loc	1 231 39                        # ./sfilter.cu:231:39
	subq	%rax, %rsi
	incq	%rsi
.Ltmp89:
	leaq	-160(%rbp), %rdi
	.loc	1 231 30                        # ./sfilter.cu:231:30
	callq	_ZNSt6vectorIfSaIfEE2atEm
.Ltmp90:
	movq	%rax, -680(%rbp)                # 8-byte Spill
	jmp	.LBB1_21
.LBB1_21:                               # %invoke.cont70
                                        #   in Loop: Header=BB1_17 Depth=4
	.loc	1 0 30                          # ./sfilter.cu:0:30
	movq	-680(%rbp), %rax                # 8-byte Reload
	.loc	1 231 30                        # ./sfilter.cu:231:30
	movss	(%rax), %xmm0                   # xmm0 = mem[0],zero,zero,zero
	.loc	1 231 47                        # ./sfilter.cu:231:47
	movss	-268(%rbp), %xmm1               # xmm1 = mem[0],zero,zero,zero
	.loc	1 231 46                        # ./sfilter.cu:231:46
	mulss	%xmm1, %xmm0
	.loc	1 231 19                        # ./sfilter.cu:231:19
	movss	%xmm0, -428(%rbp)
	.loc	1 232 33 is_stmt 1              # ./sfilter.cu:232:33
	movq	-416(%rbp), %rsi
	.loc	1 232 37 is_stmt 0              # ./sfilter.cu:232:37
	decq	%rsi
.Ltmp91:
	leaq	-160(%rbp), %rdi
	.loc	1 232 30                        # ./sfilter.cu:232:30
	callq	_ZNSt6vectorIfSaIfEE2atEm
.Ltmp92:
	movq	%rax, -688(%rbp)                # 8-byte Spill
	jmp	.LBB1_22
.LBB1_22:                               # %invoke.cont76
                                        #   in Loop: Header=BB1_17 Depth=4
	.loc	1 0 30                          # ./sfilter.cu:0:30
	movq	-688(%rbp), %rax                # 8-byte Reload
	.loc	1 232 30                        # ./sfilter.cu:232:30
	movss	(%rax), %xmm0                   # xmm0 = mem[0],zero,zero,zero
	.loc	1 232 47                        # ./sfilter.cu:232:47
	movss	-272(%rbp), %xmm1               # xmm1 = mem[0],zero,zero,zero
	.loc	1 232 46                        # ./sfilter.cu:232:46
	mulss	%xmm1, %xmm0
	.loc	1 232 19                        # ./sfilter.cu:232:19
	movss	%xmm0, -432(%rbp)
	.loc	1 233 33 is_stmt 1              # ./sfilter.cu:233:33
	movq	-416(%rbp), %rsi
.Ltmp93:
	leaq	-160(%rbp), %rdi
	.loc	1 233 30 is_stmt 0              # ./sfilter.cu:233:30
	callq	_ZNSt6vectorIfSaIfEE2atEm
.Ltmp94:
	movq	%rax, -696(%rbp)                # 8-byte Spill
	jmp	.LBB1_23
.LBB1_23:                               # %invoke.cont82
                                        #   in Loop: Header=BB1_17 Depth=4
	.loc	1 0 30                          # ./sfilter.cu:0:30
	movq	-696(%rbp), %rax                # 8-byte Reload
	.loc	1 233 30                        # ./sfilter.cu:233:30
	movss	(%rax), %xmm0                   # xmm0 = mem[0],zero,zero,zero
	.loc	1 233 47                        # ./sfilter.cu:233:47
	movss	-276(%rbp), %xmm1               # xmm1 = mem[0],zero,zero,zero
	.loc	1 233 46                        # ./sfilter.cu:233:46
	mulss	%xmm1, %xmm0
	.loc	1 233 19                        # ./sfilter.cu:233:19
	movss	%xmm0, -436(%rbp)
	.loc	1 234 33 is_stmt 1              # ./sfilter.cu:234:33
	movq	-416(%rbp), %rsi
	.loc	1 234 39 is_stmt 0              # ./sfilter.cu:234:39
	incq	%rsi
.Ltmp95:
	leaq	-160(%rbp), %rdi
	.loc	1 234 30                        # ./sfilter.cu:234:30
	callq	_ZNSt6vectorIfSaIfEE2atEm
.Ltmp96:
	movq	%rax, -704(%rbp)                # 8-byte Spill
	jmp	.LBB1_24
.LBB1_24:                               # %invoke.cont88
                                        #   in Loop: Header=BB1_17 Depth=4
	.loc	1 0 30                          # ./sfilter.cu:0:30
	movq	-704(%rbp), %rax                # 8-byte Reload
	.loc	1 234 30                        # ./sfilter.cu:234:30
	movss	(%rax), %xmm0                   # xmm0 = mem[0],zero,zero,zero
	.loc	1 234 47                        # ./sfilter.cu:234:47
	movss	-280(%rbp), %xmm1               # xmm1 = mem[0],zero,zero,zero
	.loc	1 234 46                        # ./sfilter.cu:234:46
	mulss	%xmm1, %xmm0
	.loc	1 234 19                        # ./sfilter.cu:234:19
	movss	%xmm0, -440(%rbp)
	.loc	1 235 33 is_stmt 1              # ./sfilter.cu:235:33
	movq	-416(%rbp), %rax
	.loc	1 235 42 is_stmt 0              # ./sfilter.cu:235:42
	movq	-120(%rbp), %rcx
	.loc	1 235 39                        # ./sfilter.cu:235:39
	leaq	-1(%rax,%rcx), %rsi
.Ltmp97:
	leaq	-160(%rbp), %rdi
	.loc	1 235 30                        # ./sfilter.cu:235:30
	callq	_ZNSt6vectorIfSaIfEE2atEm
.Ltmp98:
	movq	%rax, -712(%rbp)                # 8-byte Spill
	jmp	.LBB1_25
.LBB1_25:                               # %invoke.cont94
                                        #   in Loop: Header=BB1_17 Depth=4
	.loc	1 0 30                          # ./sfilter.cu:0:30
	movq	-712(%rbp), %rax                # 8-byte Reload
	.loc	1 235 30                        # ./sfilter.cu:235:30
	movss	(%rax), %xmm0                   # xmm0 = mem[0],zero,zero,zero
	.loc	1 235 47                        # ./sfilter.cu:235:47
	movss	-284(%rbp), %xmm1               # xmm1 = mem[0],zero,zero,zero
	.loc	1 235 46                        # ./sfilter.cu:235:46
	mulss	%xmm1, %xmm0
	.loc	1 235 19                        # ./sfilter.cu:235:19
	movss	%xmm0, -444(%rbp)
	.loc	1 236 33 is_stmt 1              # ./sfilter.cu:236:33
	movq	-416(%rbp), %rsi
	.loc	1 236 42 is_stmt 0              # ./sfilter.cu:236:42
	movq	-120(%rbp), %rax
	.loc	1 236 39                        # ./sfilter.cu:236:39
	addq	%rax, %rsi
.Ltmp99:
	leaq	-160(%rbp), %rdi
	.loc	1 236 30                        # ./sfilter.cu:236:30
	callq	_ZNSt6vectorIfSaIfEE2atEm
.Ltmp100:
	movq	%rax, -720(%rbp)                # 8-byte Spill
	jmp	.LBB1_26
.LBB1_26:                               # %invoke.cont100
                                        #   in Loop: Header=BB1_17 Depth=4
	.loc	1 0 30                          # ./sfilter.cu:0:30
	movq	-720(%rbp), %rax                # 8-byte Reload
	.loc	1 236 30                        # ./sfilter.cu:236:30
	movss	(%rax), %xmm0                   # xmm0 = mem[0],zero,zero,zero
	.loc	1 236 47                        # ./sfilter.cu:236:47
	movss	-288(%rbp), %xmm1               # xmm1 = mem[0],zero,zero,zero
	.loc	1 236 46                        # ./sfilter.cu:236:46
	mulss	%xmm1, %xmm0
	.loc	1 236 19                        # ./sfilter.cu:236:19
	movss	%xmm0, -448(%rbp)
	.loc	1 237 33 is_stmt 1              # ./sfilter.cu:237:33
	movq	-416(%rbp), %rax
	.loc	1 237 42 is_stmt 0              # ./sfilter.cu:237:42
	movq	-120(%rbp), %rcx
	.loc	1 237 39                        # ./sfilter.cu:237:39
	leaq	1(%rax,%rcx), %rsi
.Ltmp101:
	leaq	-160(%rbp), %rdi
	.loc	1 237 30                        # ./sfilter.cu:237:30
	callq	_ZNSt6vectorIfSaIfEE2atEm
.Ltmp102:
	movq	%rax, -728(%rbp)                # 8-byte Spill
	jmp	.LBB1_27
.LBB1_27:                               # %invoke.cont106
                                        #   in Loop: Header=BB1_17 Depth=4
	.loc	1 0 30                          # ./sfilter.cu:0:30
	movq	-728(%rbp), %rax                # 8-byte Reload
	.loc	1 237 30                        # ./sfilter.cu:237:30
	movss	(%rax), %xmm0                   # xmm0 = mem[0],zero,zero,zero
	.loc	1 237 47                        # ./sfilter.cu:237:47
	movss	-292(%rbp), %xmm1               # xmm1 = mem[0],zero,zero,zero
	.loc	1 237 46                        # ./sfilter.cu:237:46
	mulss	%xmm1, %xmm0
	.loc	1 237 19                        # ./sfilter.cu:237:19
	movss	%xmm0, -452(%rbp)
	.loc	1 238 23 is_stmt 1              # ./sfilter.cu:238:23
	movss	-420(%rbp), %xmm0               # xmm0 = mem[0],zero,zero,zero
	.loc	1 238 28 is_stmt 0              # ./sfilter.cu:238:28
	movss	-424(%rbp), %xmm1               # xmm1 = mem[0],zero,zero,zero
	.loc	1 238 26                        # ./sfilter.cu:238:26
	addss	%xmm1, %xmm0
	.loc	1 238 33                        # ./sfilter.cu:238:33
	movss	-428(%rbp), %xmm1               # xmm1 = mem[0],zero,zero,zero
	.loc	1 238 31                        # ./sfilter.cu:238:31
	addss	%xmm1, %xmm0
	.loc	1 238 38                        # ./sfilter.cu:238:38
	movss	-432(%rbp), %xmm1               # xmm1 = mem[0],zero,zero,zero
	.loc	1 238 36                        # ./sfilter.cu:238:36
	addss	%xmm1, %xmm0
	.loc	1 238 43                        # ./sfilter.cu:238:43
	movss	-436(%rbp), %xmm1               # xmm1 = mem[0],zero,zero,zero
	.loc	1 238 41                        # ./sfilter.cu:238:41
	addss	%xmm1, %xmm0
	.loc	1 238 48                        # ./sfilter.cu:238:48
	movss	-440(%rbp), %xmm1               # xmm1 = mem[0],zero,zero,zero
	.loc	1 238 46                        # ./sfilter.cu:238:46
	addss	%xmm1, %xmm0
	.loc	1 238 53                        # ./sfilter.cu:238:53
	movss	-444(%rbp), %xmm1               # xmm1 = mem[0],zero,zero,zero
	.loc	1 238 51                        # ./sfilter.cu:238:51
	addss	%xmm1, %xmm0
	.loc	1 238 58                        # ./sfilter.cu:238:58
	movss	-448(%rbp), %xmm1               # xmm1 = mem[0],zero,zero,zero
	.loc	1 238 56                        # ./sfilter.cu:238:56
	addss	%xmm1, %xmm0
	.loc	1 238 63                        # ./sfilter.cu:238:63
	movss	-452(%rbp), %xmm1               # xmm1 = mem[0],zero,zero,zero
	.loc	1 238 61                        # ./sfilter.cu:238:61
	addss	%xmm1, %xmm0
	.loc	1 238 19                        # ./sfilter.cu:238:19
	movss	%xmm0, -456(%rbp)
	.loc	1 239 32 is_stmt 1              # ./sfilter.cu:239:32
	movss	-456(%rbp), %xmm0               # xmm0 = mem[0],zero,zero,zero
	movss	%xmm0, -740(%rbp)               # 4-byte Spill
	.loc	1 239 24 is_stmt 0              # ./sfilter.cu:239:24
	movq	-416(%rbp), %rsi
.Ltmp103:
	leaq	-240(%rbp), %rdi
	.loc	1 239 21                        # ./sfilter.cu:239:21
	callq	_ZNSt6vectorIfSaIfEE2atEm
.Ltmp104:
	movq	%rax, -736(%rbp)                # 8-byte Spill
	jmp	.LBB1_28
.LBB1_28:                               # %invoke.cont117
                                        #   in Loop: Header=BB1_17 Depth=4
	.loc	1 0 21                          # ./sfilter.cu:0:21
	movq	-736(%rbp), %rax                # 8-byte Reload
	movss	-740(%rbp), %xmm0               # 4-byte Reload
                                        # xmm0 = mem[0],zero,zero,zero
	.loc	1 239 30                        # ./sfilter.cu:239:30
	movss	%xmm0, (%rax)
.Ltmp138:
# %bb.29:                               # %for.inc119
                                        #   in Loop: Header=BB1_17 Depth=4
	.loc	1 225 72 is_stmt 1              # ./sfilter.cu:225:72
	movq	-400(%rbp), %rax
	addq	$1, %rax
	movq	%rax, -400(%rbp)
	.loc	1 225 11 is_stmt 0              # ./sfilter.cu:225:11
	jmp	.LBB1_17
.LBB1_30:                               # %lpad57
.Ltmp105:
	.loc	1 0 11                          # ./sfilter.cu:0:11
	movq	%rax, %rcx
.Ltmp139:
	.loc	1 301 1 is_stmt 1               # ./sfilter.cu:301:1
	movl	%edx, %eax
	movq	%rcx, -176(%rbp)
	movl	%eax, -180(%rbp)
.Ltmp140:
	.loc	1 301 1 is_stmt 0               # ./sfilter.cu:301:1
	leaq	-240(%rbp), %rdi
	callq	_ZNSt6vectorIfSaIfEED2Ev
	jmp	.LBB1_123
.LBB1_31:                               # %for.end121
                                        #   in Loop: Header=BB1_15 Depth=3
.Ltmp141:
	.loc	1 241 9 is_stmt 1               # ./sfilter.cu:241:9
	jmp	.LBB1_32
.Ltmp142:
.LBB1_32:                               # %for.inc122
                                        #   in Loop: Header=BB1_15 Depth=3
	.loc	1 224 70                        # ./sfilter.cu:224:70
	movq	-392(%rbp), %rax
	addq	$1, %rax
	movq	%rax, -392(%rbp)
	.loc	1 224 9 is_stmt 0               # ./sfilter.cu:224:9
	jmp	.LBB1_15
.Ltmp143:
.LBB1_33:                               # %for.end124
                                        #   in Loop: Header=BB1_13 Depth=2
	.loc	1 242 7 is_stmt 1               # ./sfilter.cu:242:7
	jmp	.LBB1_34
.Ltmp144:
.LBB1_34:                               # %for.inc125
                                        #   in Loop: Header=BB1_13 Depth=2
	.loc	1 223 70                        # ./sfilter.cu:223:70
	movq	-384(%rbp), %rax
	addq	$1, %rax
	movq	%rax, -384(%rbp)
	.loc	1 223 7 is_stmt 0               # ./sfilter.cu:223:7
	jmp	.LBB1_13
.Ltmp145:
.LBB1_35:                               # %for.end127
                                        #   in Loop: Header=BB1_11 Depth=1
	.loc	1 243 5 is_stmt 1               # ./sfilter.cu:243:5
	jmp	.LBB1_36
.Ltmp146:
.LBB1_36:                               # %for.inc128
                                        #   in Loop: Header=BB1_11 Depth=1
	.loc	1 222 68                        # ./sfilter.cu:222:68
	movq	-376(%rbp), %rax
	addq	$1, %rax
	movq	%rax, -376(%rbp)
	.loc	1 222 5 is_stmt 0               # ./sfilter.cu:222:5
	jmp	.LBB1_11
.Ltmp147:
.LBB1_37:                               # %for.end130
	.loc	1 247 10 is_stmt 1              # ./sfilter.cu:247:10
	movq	$0, -464(%rbp)
	.loc	1 247 28 is_stmt 0              # ./sfilter.cu:247:28
	movq	$0, -472(%rbp)
# %bb.38:                               # %do.body
.Ltmp148:
	.loc	1 248 47 is_stmt 1              # ./sfilter.cu:248:47
	movq	-136(%rbp), %rsi
.Ltmp11:
	leaq	-464(%rbp), %rdi
	.loc	1 248 28 is_stmt 0              # ./sfilter.cu:248:28
	callq	_ZL10cudaMallocIfE9cudaErrorPPT_m
.Ltmp12:
	movl	%eax, -744(%rbp)                # 4-byte Spill
	jmp	.LBB1_39
.LBB1_39:                               # %invoke.cont131
	.loc	1 0 28                          # ./sfilter.cu:0:28
	movl	-744(%rbp), %eax                # 4-byte Reload
	.loc	1 248 20                        # ./sfilter.cu:248:20
	movl	%eax, -476(%rbp)
.Ltmp149:
	.loc	1 248 66                        # ./sfilter.cu:248:66
	cmpl	$0, -476(%rbp)
.Ltmp150:
	.loc	1 248 61                        # ./sfilter.cu:248:61
	je	.LBB1_43
# %bb.40:                               # %if.then
.Ltmp151:
	.loc	1 248 92                        # ./sfilter.cu:248:92
	movq	stderr@GOTPCREL(%rip), %rax
	movq	(%rax), %rax
	movq	%rax, -760(%rbp)                # 8-byte Spill
	.loc	1 248 148                       # ./sfilter.cu:248:148
	movl	-476(%rbp), %edi
.Ltmp81:
	.loc	1 248 129                       # ./sfilter.cu:248:129
	callq	cudaGetErrorString@PLT
.Ltmp82:
	movq	%rax, -752(%rbp)                # 8-byte Spill
	jmp	.LBB1_41
.LBB1_41:                               # %invoke.cont134
.Ltmp83:
	.loc	1 0 129                         # ./sfilter.cu:0:129
	movq	-752(%rbp), %rdx                # 8-byte Reload
	movq	-760(%rbp), %rdi                # 8-byte Reload
	.loc	1 248 84                        # ./sfilter.cu:248:84
	leaq	.L.str.2(%rip), %rsi
	leaq	.L.str.3(%rip), %rcx
	xorl	%eax, %eax
                                        # kill: def $al killed $al killed $eax
	movl	$248, %r8d
	callq	fprintf@PLT
.Ltmp84:
	jmp	.LBB1_42
.LBB1_42:                               # %invoke.cont136
	.loc	1 248 177                       # ./sfilter.cu:248:177
	callq	abort@PLT
.Ltmp152:
.LBB1_43:                               # %if.end
	.loc	1 248 193                       # ./sfilter.cu:248:193
	jmp	.LBB1_44
.LBB1_44:                               # %do.cond
	jmp	.LBB1_45
.Ltmp153:
.LBB1_45:                               # %do.end
	.loc	1 249 3 is_stmt 1               # ./sfilter.cu:249:3
	jmp	.LBB1_46
.LBB1_46:                               # %do.body138
.Ltmp154:
	.loc	1 249 47 is_stmt 0              # ./sfilter.cu:249:47
	movq	-136(%rbp), %rsi
.Ltmp13:
	leaq	-472(%rbp), %rdi
	.loc	1 249 28                        # ./sfilter.cu:249:28
	callq	_ZL10cudaMallocIfE9cudaErrorPPT_m
.Ltmp14:
	movl	%eax, -764(%rbp)                # 4-byte Spill
	jmp	.LBB1_47
.LBB1_47:                               # %invoke.cont140
	.loc	1 0 28                          # ./sfilter.cu:0:28
	movl	-764(%rbp), %eax                # 4-byte Reload
	.loc	1 249 20                        # ./sfilter.cu:249:20
	movl	%eax, -480(%rbp)
.Ltmp155:
	.loc	1 249 66                        # ./sfilter.cu:249:66
	cmpl	$0, -480(%rbp)
.Ltmp156:
	.loc	1 249 61                        # ./sfilter.cu:249:61
	je	.LBB1_51
# %bb.48:                               # %if.then143
.Ltmp157:
	.loc	1 249 92                        # ./sfilter.cu:249:92
	movq	stderr@GOTPCREL(%rip), %rax
	movq	(%rax), %rax
	movq	%rax, -784(%rbp)                # 8-byte Spill
	.loc	1 249 148                       # ./sfilter.cu:249:148
	movl	-480(%rbp), %edi
.Ltmp77:
	.loc	1 249 129                       # ./sfilter.cu:249:129
	callq	cudaGetErrorString@PLT
.Ltmp78:
	movq	%rax, -776(%rbp)                # 8-byte Spill
	jmp	.LBB1_49
.LBB1_49:                               # %invoke.cont144
.Ltmp79:
	.loc	1 0 129                         # ./sfilter.cu:0:129
	movq	-776(%rbp), %rdx                # 8-byte Reload
	movq	-784(%rbp), %rdi                # 8-byte Reload
	.loc	1 249 84                        # ./sfilter.cu:249:84
	leaq	.L.str.2(%rip), %rsi
	leaq	.L.str.3(%rip), %rcx
	xorl	%eax, %eax
                                        # kill: def $al killed $al killed $eax
	movl	$249, %r8d
	callq	fprintf@PLT
.Ltmp80:
	jmp	.LBB1_50
.LBB1_50:                               # %invoke.cont146
	.loc	1 249 177                       # ./sfilter.cu:249:177
	callq	abort@PLT
.Ltmp158:
.LBB1_51:                               # %if.end148
	.loc	1 249 193                       # ./sfilter.cu:249:193
	jmp	.LBB1_52
.LBB1_52:                               # %do.cond149
	jmp	.LBB1_53
.Ltmp159:
.LBB1_53:                               # %do.end150
	.loc	1 252 3 is_stmt 1               # ./sfilter.cu:252:3
	jmp	.LBB1_54
.LBB1_54:                               # %do.body151
.Ltmp160:
	.loc	1 252 39 is_stmt 0              # ./sfilter.cu:252:39
	movq	-464(%rbp), %rax
	movq	%rax, -800(%rbp)                # 8-byte Spill
	leaq	-160(%rbp), %rdi
	.loc	1 252 52                        # ./sfilter.cu:252:52
	callq	_ZNSt6vectorIfSaIfEE4dataEv
	movq	-800(%rbp), %rdi                # 8-byte Reload
	movq	%rax, %rsi
	.loc	1 252 60                        # ./sfilter.cu:252:60
	movq	-136(%rbp), %rdx
.Ltmp15:
	movl	$1, %ecx
	.loc	1 252 28                        # ./sfilter.cu:252:28
	callq	cudaMemcpy@PLT
.Ltmp16:
	movl	%eax, -788(%rbp)                # 4-byte Spill
	jmp	.LBB1_55
.LBB1_55:                               # %invoke.cont154
	.loc	1 0 28                          # ./sfilter.cu:0:28
	movl	-788(%rbp), %eax                # 4-byte Reload
	.loc	1 252 20                        # ./sfilter.cu:252:20
	movl	%eax, -484(%rbp)
.Ltmp161:
	.loc	1 252 103                       # ./sfilter.cu:252:103
	cmpl	$0, -484(%rbp)
.Ltmp162:
	.loc	1 252 98                        # ./sfilter.cu:252:98
	je	.LBB1_59
# %bb.56:                               # %if.then157
.Ltmp163:
	.loc	1 252 129                       # ./sfilter.cu:252:129
	movq	stderr@GOTPCREL(%rip), %rax
	movq	(%rax), %rax
	movq	%rax, -816(%rbp)                # 8-byte Spill
	.loc	1 252 185                       # ./sfilter.cu:252:185
	movl	-484(%rbp), %edi
.Ltmp73:
	.loc	1 252 166                       # ./sfilter.cu:252:166
	callq	cudaGetErrorString@PLT
.Ltmp74:
	movq	%rax, -808(%rbp)                # 8-byte Spill
	jmp	.LBB1_57
.LBB1_57:                               # %invoke.cont158
.Ltmp75:
	.loc	1 0 166                         # ./sfilter.cu:0:166
	movq	-808(%rbp), %rdx                # 8-byte Reload
	movq	-816(%rbp), %rdi                # 8-byte Reload
	.loc	1 252 121                       # ./sfilter.cu:252:121
	leaq	.L.str.2(%rip), %rsi
	leaq	.L.str.3(%rip), %rcx
	xorl	%eax, %eax
                                        # kill: def $al killed $al killed $eax
	movl	$252, %r8d
	callq	fprintf@PLT
.Ltmp76:
	jmp	.LBB1_58
.LBB1_58:                               # %invoke.cont160
	.loc	1 252 214                       # ./sfilter.cu:252:214
	callq	abort@PLT
.Ltmp164:
.LBB1_59:                               # %if.end162
	.loc	1 252 230                       # ./sfilter.cu:252:230
	jmp	.LBB1_60
.LBB1_60:                               # %do.cond163
	jmp	.LBB1_61
.Ltmp165:
.LBB1_61:                               # %do.end164
	.loc	1 253 3 is_stmt 1               # ./sfilter.cu:253:3
	jmp	.LBB1_62
.LBB1_62:                               # %do.body165
.Ltmp166:
	.loc	1 253 39 is_stmt 0              # ./sfilter.cu:253:39
	movq	-472(%rbp), %rdi
	.loc	1 253 49                        # ./sfilter.cu:253:49
	movq	-136(%rbp), %rdx
.Ltmp17:
	xorl	%esi, %esi
	.loc	1 253 28                        # ./sfilter.cu:253:28
	callq	cudaMemset@PLT
.Ltmp18:
	movl	%eax, -820(%rbp)                # 4-byte Spill
	jmp	.LBB1_63
.LBB1_63:                               # %invoke.cont167
	.loc	1 0 28                          # ./sfilter.cu:0:28
	movl	-820(%rbp), %eax                # 4-byte Reload
	.loc	1 253 20                        # ./sfilter.cu:253:20
	movl	%eax, -488(%rbp)
.Ltmp167:
	.loc	1 253 68                        # ./sfilter.cu:253:68
	cmpl	$0, -488(%rbp)
.Ltmp168:
	.loc	1 253 63                        # ./sfilter.cu:253:63
	je	.LBB1_67
# %bb.64:                               # %if.then170
.Ltmp169:
	.loc	1 253 94                        # ./sfilter.cu:253:94
	movq	stderr@GOTPCREL(%rip), %rax
	movq	(%rax), %rax
	movq	%rax, -840(%rbp)                # 8-byte Spill
	.loc	1 253 150                       # ./sfilter.cu:253:150
	movl	-488(%rbp), %edi
.Ltmp69:
	.loc	1 253 131                       # ./sfilter.cu:253:131
	callq	cudaGetErrorString@PLT
.Ltmp70:
	movq	%rax, -832(%rbp)                # 8-byte Spill
	jmp	.LBB1_65
.LBB1_65:                               # %invoke.cont171
.Ltmp71:
	.loc	1 0 131                         # ./sfilter.cu:0:131
	movq	-832(%rbp), %rdx                # 8-byte Reload
	movq	-840(%rbp), %rdi                # 8-byte Reload
	.loc	1 253 86                        # ./sfilter.cu:253:86
	leaq	.L.str.2(%rip), %rsi
	leaq	.L.str.3(%rip), %rcx
	xorl	%eax, %eax
                                        # kill: def $al killed $al killed $eax
	movl	$253, %r8d
	callq	fprintf@PLT
.Ltmp72:
	jmp	.LBB1_66
.LBB1_66:                               # %invoke.cont173
	.loc	1 253 179                       # ./sfilter.cu:253:179
	callq	abort@PLT
.Ltmp170:
.LBB1_67:                               # %if.end175
	.loc	1 253 195                       # ./sfilter.cu:253:195
	jmp	.LBB1_68
.LBB1_68:                               # %do.cond176
	jmp	.LBB1_69
.Ltmp171:
.LBB1_69:                               # %do.end177
	.loc	1 257 22 is_stmt 1              # ./sfilter.cu:257:22
	movl	_ZL5size_(%rip), %eax
	.loc	1 257 28 is_stmt 0              # ./sfilter.cu:257:28
	addl	$-2, %eax
	.loc	1 257 13                        # ./sfilter.cu:257:13
	movl	%eax, -492(%rbp)
	.loc	1 258 22 is_stmt 1              # ./sfilter.cu:258:22
	movl	_ZL5size_(%rip), %eax
	.loc	1 258 28 is_stmt 0              # ./sfilter.cu:258:28
	addl	$-2, %eax
	.loc	1 258 13                        # ./sfilter.cu:258:13
	movl	%eax, -496(%rbp)
	.loc	1 260 14 is_stmt 1              # ./sfilter.cu:260:14
	movl	_ZL7block_x(%rip), %esi
	.loc	1 260 23 is_stmt 0              # ./sfilter.cu:260:23
	movl	_ZL7block_y(%rip), %edx
.Ltmp19:
	leaq	-508(%rbp), %rdi
	movl	$1, %ecx
	.loc	1 260 8                         # ./sfilter.cu:260:8
	callq	_ZN4dim3C2Ejjj
.Ltmp20:
	jmp	.LBB1_70
.LBB1_70:                               # %invoke.cont180
	.loc	1 261 14 is_stmt 1              # ./sfilter.cu:261:14
	movl	-492(%rbp), %esi
	.loc	1 261 23 is_stmt 0              # ./sfilter.cu:261:23
	movl	_ZL7block_x(%rip), %ecx
                                        # implicit-def: $rdx
	.loc	1 261 31                        # ./sfilter.cu:261:31
	movl	%ecx, %edx
                                        # implicit-def: $rax
	movl	%esi, %eax
	leal	-1(%rax,%rdx), %eax
	.loc	1 261 36                        # ./sfilter.cu:261:36
	cltd
	idivl	%ecx
	movl	%eax, %esi
	.loc	1 262 14 is_stmt 1              # ./sfilter.cu:262:14
	movl	-496(%rbp), %edi
	.loc	1 262 23 is_stmt 0              # ./sfilter.cu:262:23
	movl	_ZL7block_y(%rip), %ecx
                                        # implicit-def: $rdx
	.loc	1 262 31                        # ./sfilter.cu:262:31
	movl	%ecx, %edx
                                        # implicit-def: $rax
	movl	%edi, %eax
	leal	-1(%rax,%rdx), %eax
	.loc	1 262 36                        # ./sfilter.cu:262:36
	cltd
	idivl	%ecx
	movl	%eax, %edx
.Ltmp21:
	leaq	-520(%rbp), %rdi
	movl	$1, %ecx
	.loc	1 261 8 is_stmt 1               # ./sfilter.cu:261:8
	callq	_ZN4dim3C2Ejjj
.Ltmp22:
	jmp	.LBB1_71
.LBB1_71:                               # %invoke.cont187
.Ltmp23:
	.loc	1 265 3                         # ./sfilter.cu:265:3
	leaq	.L.str.4(%rip), %rdi
	xorl	%eax, %eax
                                        # kill: def $al killed $al killed $eax
	callq	printf@PLT
.Ltmp24:
	jmp	.LBB1_72
.LBB1_72:                               # %invoke.cont188
	.loc	1 267 10                        # ./sfilter.cu:267:10
	movl	-492(%rbp), %esi
	.loc	1 267 18 is_stmt 0              # ./sfilter.cu:267:18
	movl	-496(%rbp), %edx
	.loc	1 267 26                        # ./sfilter.cu:267:26
	movl	_ZL7block_x(%rip), %ecx
	.loc	1 267 35                        # ./sfilter.cu:267:35
	movl	_ZL7block_y(%rip), %r8d
	.loc	1 267 49                        # ./sfilter.cu:267:49
	movl	-520(%rbp), %r9d
	.loc	1 267 57                        # ./sfilter.cu:267:57
	movl	-516(%rbp), %edi
.Ltmp25:
	.loc	1 266 3 is_stmt 1               # ./sfilter.cu:266:3
	movq	%rsp, %rax
	movl	%edi, (%rax)
	leaq	.L.str.5(%rip), %rdi
	xorl	%eax, %eax
                                        # kill: def $al killed $al killed $eax
	callq	printf@PLT
.Ltmp26:
	jmp	.LBB1_73
.LBB1_73:                               # %invoke.cont192
	.loc	1 269 13                        # ./sfilter.cu:269:13
	callq	_ZNSt6chrono3_V212system_clock3nowEv@PLT
	movq	%rax, -528(%rbp)
	.loc	1 270 20                        # ./sfilter.cu:270:20
	movl	-512(%rbp), %eax
	movl	%eax, -536(%rbp)
	movq	-520(%rbp), %rax
	movq	%rax, -544(%rbp)
	.loc	1 270 26 is_stmt 0              # ./sfilter.cu:270:26
	movl	-500(%rbp), %eax
	movl	%eax, -552(%rbp)
	movq	-508(%rbp), %rax
	movq	%rax, -560(%rbp)
	.loc	1 270 17                        # ./sfilter.cu:270:17
	movl	-536(%rbp), %eax
	movl	%eax, -568(%rbp)
	movq	-544(%rbp), %rax
	movq	%rax, -576(%rbp)
	movq	-576(%rbp), %rdi
	movl	-568(%rbp), %esi
	movl	-552(%rbp), %eax
	movl	%eax, -584(%rbp)
	movq	-560(%rbp), %rax
	movq	%rax, -592(%rbp)
	movq	-592(%rbp), %rdx
	movl	-584(%rbp), %ecx
.Ltmp27:
	xorl	%eax, %eax
	movl	%eax, %r9d
	movq	%r9, %r8
	callq	__cudaPushCallConfiguration@PLT
.Ltmp28:
	movl	%eax, -844(%rbp)                # 4-byte Spill
	jmp	.LBB1_74
.LBB1_74:                               # %invoke.cont197
	.loc	1 0 17                          # ./sfilter.cu:0:17
	movl	-844(%rbp), %eax                # 4-byte Reload
	.loc	1 270 17                        # ./sfilter.cu:270:17
	cmpl	$0, %eax
	.loc	1 270 3                         # ./sfilter.cu:270:3
	jne	.LBB1_77
# %bb.75:                               # %kcall.configok
	.loc	1 270 35                        # ./sfilter.cu:270:35
	movq	-464(%rbp), %rdi
	.loc	1 270 42                        # ./sfilter.cu:270:42
	movq	-472(%rbp), %rsi
	.loc	1 270 49                        # ./sfilter.cu:270:49
	movl	_ZL5size_(%rip), %edx
	.loc	1 271 35 is_stmt 1              # ./sfilter.cu:271:35
	movss	-260(%rbp), %xmm0               # xmm0 = mem[0],zero,zero,zero
	.loc	1 271 38 is_stmt 0              # ./sfilter.cu:271:38
	movss	-264(%rbp), %xmm1               # xmm1 = mem[0],zero,zero,zero
	.loc	1 271 41                        # ./sfilter.cu:271:41
	movss	-268(%rbp), %xmm2               # xmm2 = mem[0],zero,zero,zero
	.loc	1 271 44                        # ./sfilter.cu:271:44
	movss	-272(%rbp), %xmm3               # xmm3 = mem[0],zero,zero,zero
	.loc	1 271 47                        # ./sfilter.cu:271:47
	movss	-276(%rbp), %xmm4               # xmm4 = mem[0],zero,zero,zero
	.loc	1 271 50                        # ./sfilter.cu:271:50
	movss	-280(%rbp), %xmm5               # xmm5 = mem[0],zero,zero,zero
	.loc	1 271 53                        # ./sfilter.cu:271:53
	movss	-284(%rbp), %xmm6               # xmm6 = mem[0],zero,zero,zero
	.loc	1 271 56                        # ./sfilter.cu:271:56
	movss	-288(%rbp), %xmm7               # xmm7 = mem[0],zero,zero,zero
	.loc	1 271 59                        # ./sfilter.cu:271:59
	movss	-292(%rbp), %xmm8               # xmm8 = mem[0],zero,zero,zero
.Ltmp29:
	.loc	1 270 3 is_stmt 1               # ./sfilter.cu:270:3
	movq	%rsp, %rax
	movss	%xmm8, (%rax)
	callq	_Z29__device_stub__sfilter_kernelPKfPfifffffffff
.Ltmp30:
	jmp	.LBB1_76
.LBB1_76:                               # %invoke.cont199
	jmp	.LBB1_77
.LBB1_77:                               # %kcall.end
	.loc	1 272 3                         # ./sfilter.cu:272:3
	jmp	.LBB1_78
.LBB1_78:                               # %do.body200
.Ltmp31:
.Ltmp172:
	.loc	1 272 28 is_stmt 0              # ./sfilter.cu:272:28
	callq	cudaGetLastError@PLT
.Ltmp32:
	movl	%eax, -848(%rbp)                # 4-byte Spill
	jmp	.LBB1_79
.LBB1_79:                               # %invoke.cont202
	.loc	1 0 28                          # ./sfilter.cu:0:28
	movl	-848(%rbp), %eax                # 4-byte Reload
	.loc	1 272 20                        # ./sfilter.cu:272:20
	movl	%eax, -596(%rbp)
.Ltmp173:
	.loc	1 272 58                        # ./sfilter.cu:272:58
	cmpl	$0, -596(%rbp)
.Ltmp174:
	.loc	1 272 53                        # ./sfilter.cu:272:53
	je	.LBB1_83
# %bb.80:                               # %if.then205
.Ltmp175:
	.loc	1 272 84                        # ./sfilter.cu:272:84
	movq	stderr@GOTPCREL(%rip), %rax
	movq	(%rax), %rax
	movq	%rax, -864(%rbp)                # 8-byte Spill
	.loc	1 272 140                       # ./sfilter.cu:272:140
	movl	-596(%rbp), %edi
.Ltmp65:
	.loc	1 272 121                       # ./sfilter.cu:272:121
	callq	cudaGetErrorString@PLT
.Ltmp66:
	movq	%rax, -856(%rbp)                # 8-byte Spill
	jmp	.LBB1_81
.LBB1_81:                               # %invoke.cont206
.Ltmp67:
	.loc	1 0 121                         # ./sfilter.cu:0:121
	movq	-856(%rbp), %rdx                # 8-byte Reload
	movq	-864(%rbp), %rdi                # 8-byte Reload
	.loc	1 272 76                        # ./sfilter.cu:272:76
	leaq	.L.str.2(%rip), %rsi
	leaq	.L.str.3(%rip), %rcx
	xorl	%eax, %eax
                                        # kill: def $al killed $al killed $eax
	movl	$272, %r8d                      # imm = 0x110
	callq	fprintf@PLT
.Ltmp68:
	jmp	.LBB1_82
.LBB1_82:                               # %invoke.cont208
	.loc	1 272 169                       # ./sfilter.cu:272:169
	callq	abort@PLT
.Ltmp176:
.LBB1_83:                               # %if.end210
	.loc	1 272 185                       # ./sfilter.cu:272:185
	jmp	.LBB1_84
.LBB1_84:                               # %do.cond211
	jmp	.LBB1_85
.Ltmp177:
.LBB1_85:                               # %do.end212
	.loc	1 273 3 is_stmt 1               # ./sfilter.cu:273:3
	jmp	.LBB1_86
.LBB1_86:                               # %do.body213
.Ltmp33:
.Ltmp178:
	.loc	1 273 28 is_stmt 0              # ./sfilter.cu:273:28
	callq	cudaDeviceSynchronize@PLT
.Ltmp34:
	movl	%eax, -868(%rbp)                # 4-byte Spill
	jmp	.LBB1_87
.LBB1_87:                               # %invoke.cont215
	.loc	1 0 28                          # ./sfilter.cu:0:28
	movl	-868(%rbp), %eax                # 4-byte Reload
	.loc	1 273 20                        # ./sfilter.cu:273:20
	movl	%eax, -600(%rbp)
.Ltmp179:
	.loc	1 273 63                        # ./sfilter.cu:273:63
	cmpl	$0, -600(%rbp)
.Ltmp180:
	.loc	1 273 58                        # ./sfilter.cu:273:58
	je	.LBB1_91
# %bb.88:                               # %if.then218
.Ltmp181:
	.loc	1 273 89                        # ./sfilter.cu:273:89
	movq	stderr@GOTPCREL(%rip), %rax
	movq	(%rax), %rax
	movq	%rax, -888(%rbp)                # 8-byte Spill
	.loc	1 273 145                       # ./sfilter.cu:273:145
	movl	-600(%rbp), %edi
.Ltmp61:
	.loc	1 273 126                       # ./sfilter.cu:273:126
	callq	cudaGetErrorString@PLT
.Ltmp62:
	movq	%rax, -880(%rbp)                # 8-byte Spill
	jmp	.LBB1_89
.LBB1_89:                               # %invoke.cont219
.Ltmp63:
	.loc	1 0 126                         # ./sfilter.cu:0:126
	movq	-880(%rbp), %rdx                # 8-byte Reload
	movq	-888(%rbp), %rdi                # 8-byte Reload
	.loc	1 273 81                        # ./sfilter.cu:273:81
	leaq	.L.str.2(%rip), %rsi
	leaq	.L.str.3(%rip), %rcx
	xorl	%eax, %eax
                                        # kill: def $al killed $al killed $eax
	movl	$273, %r8d                      # imm = 0x111
	callq	fprintf@PLT
.Ltmp64:
	jmp	.LBB1_90
.LBB1_90:                               # %invoke.cont221
	.loc	1 273 174                       # ./sfilter.cu:273:174
	callq	abort@PLT
.Ltmp182:
.LBB1_91:                               # %if.end223
	.loc	1 273 190                       # ./sfilter.cu:273:190
	jmp	.LBB1_92
.LBB1_92:                               # %do.cond224
	jmp	.LBB1_93
.Ltmp183:
.LBB1_93:                               # %do.end225
	.loc	1 274 13 is_stmt 1              # ./sfilter.cu:274:13
	callq	_ZNSt6chrono3_V212system_clock3nowEv@PLT
	movq	%rax, -608(%rbp)
.Ltmp35:
	leaq	-608(%rbp), %rdi
	leaq	-528(%rbp), %rsi
	.loc	1 275 80                        # ./sfilter.cu:275:80
	callq	_ZNSt6chronomiINS_3_V212system_clockENS_8durationIlSt5ratioILl1ELl1000000000EEEES6_EENSt11common_typeIJT0_T1_EE4typeERKNS_10time_pointIT_S8_EERKNSC_ISD_S9_EE
.Ltmp36:
	movq	%rax, -896(%rbp)                # 8-byte Spill
	jmp	.LBB1_94
.LBB1_94:                               # %invoke.cont231
	.loc	1 0 80 is_stmt 0                # ./sfilter.cu:0:80
	movq	-896(%rbp), %rax                # 8-byte Reload
	.loc	1 275 80                        # ./sfilter.cu:275:80
	movq	%rax, -632(%rbp)
.Ltmp37:
	leaq	-632(%rbp), %rdi
	.loc	1 275 23                        # ./sfilter.cu:275:23
	callq	_ZNSt6chrono13duration_castINS_8durationIlSt5ratioILl1ELl1000EEEElS2_ILl1ELl1000000000EEEENSt9enable_ifIXsr13__is_durationIT_EE5valueES7_E4typeERKNS1_IT0_T1_EE
.Ltmp38:
	movq	%rax, -904(%rbp)                # 8-byte Spill
	jmp	.LBB1_95
.LBB1_95:                               # %invoke.cont234
	.loc	1 0 23                          # ./sfilter.cu:0:23
	movq	-904(%rbp), %rax                # 8-byte Reload
	.loc	1 275 23                        # ./sfilter.cu:275:23
	movq	%rax, -624(%rbp)
.Ltmp39:
	leaq	-624(%rbp), %rdi
	.loc	1 275 86                        # ./sfilter.cu:275:86
	callq	_ZNKSt6chrono8durationIlSt5ratioILl1ELl1000EEE5countEv
.Ltmp40:
	movq	%rax, -912(%rbp)                # 8-byte Spill
	jmp	.LBB1_96
.LBB1_96:                               # %invoke.cont237
	.loc	1 0 86                          # ./sfilter.cu:0:86
	movq	-912(%rbp), %rax                # 8-byte Reload
	.loc	1 275 23                        # ./sfilter.cu:275:23
	cvtsi2sd	%rax, %xmm0
	.loc	1 275 10                        # ./sfilter.cu:275:10
	movsd	%xmm0, -616(%rbp)
	.loc	1 276 35 is_stmt 1              # ./sfilter.cu:276:35
	movsd	-616(%rbp), %xmm0               # xmm0 = mem[0],zero
.Ltmp41:
	.loc	1 276 3 is_stmt 0               # ./sfilter.cu:276:3
	leaq	.L.str.6(%rip), %rdi
	movb	$1, %al
	callq	printf@PLT
.Ltmp42:
	jmp	.LBB1_97
.LBB1_97:                               # %invoke.cont240
	.loc	1 279 3 is_stmt 1               # ./sfilter.cu:279:3
	jmp	.LBB1_98
.LBB1_98:                               # %do.body242
	.loc	1 0 3 is_stmt 0                 # ./sfilter.cu:0:3
	leaq	-208(%rbp), %rdi
.Ltmp184:
	.loc	1 279 45                        # ./sfilter.cu:279:45
	callq	_ZNSt6vectorIfSaIfEE4dataEv
	movq	%rax, %rdi
	.loc	1 279 53                        # ./sfilter.cu:279:53
	movq	-472(%rbp), %rsi
	.loc	1 279 60                        # ./sfilter.cu:279:60
	movq	-136(%rbp), %rdx
.Ltmp43:
	movl	$2, %ecx
	.loc	1 279 28                        # ./sfilter.cu:279:28
	callq	cudaMemcpy@PLT
.Ltmp44:
	movl	%eax, -916(%rbp)                # 4-byte Spill
	jmp	.LBB1_99
.LBB1_99:                               # %invoke.cont245
	.loc	1 0 28                          # ./sfilter.cu:0:28
	movl	-916(%rbp), %eax                # 4-byte Reload
	.loc	1 279 20                        # ./sfilter.cu:279:20
	movl	%eax, -636(%rbp)
.Ltmp185:
	.loc	1 279 103                       # ./sfilter.cu:279:103
	cmpl	$0, -636(%rbp)
.Ltmp186:
	.loc	1 279 98                        # ./sfilter.cu:279:98
	je	.LBB1_103
# %bb.100:                              # %if.then248
.Ltmp187:
	.loc	1 279 129                       # ./sfilter.cu:279:129
	movq	stderr@GOTPCREL(%rip), %rax
	movq	(%rax), %rax
	movq	%rax, -936(%rbp)                # 8-byte Spill
	.loc	1 279 185                       # ./sfilter.cu:279:185
	movl	-636(%rbp), %edi
.Ltmp57:
	.loc	1 279 166                       # ./sfilter.cu:279:166
	callq	cudaGetErrorString@PLT
.Ltmp58:
	movq	%rax, -928(%rbp)                # 8-byte Spill
	jmp	.LBB1_101
.LBB1_101:                              # %invoke.cont249
.Ltmp59:
	.loc	1 0 166                         # ./sfilter.cu:0:166
	movq	-928(%rbp), %rdx                # 8-byte Reload
	movq	-936(%rbp), %rdi                # 8-byte Reload
	.loc	1 279 121                       # ./sfilter.cu:279:121
	leaq	.L.str.2(%rip), %rsi
	leaq	.L.str.3(%rip), %rcx
	xorl	%eax, %eax
                                        # kill: def $al killed $al killed $eax
	movl	$279, %r8d                      # imm = 0x117
	callq	fprintf@PLT
.Ltmp60:
	jmp	.LBB1_102
.LBB1_102:                              # %invoke.cont251
	.loc	1 279 214                       # ./sfilter.cu:279:214
	callq	abort@PLT
.Ltmp188:
.LBB1_103:                              # %if.end253
	.loc	1 279 230                       # ./sfilter.cu:279:230
	jmp	.LBB1_104
.LBB1_104:                              # %do.cond254
	jmp	.LBB1_105
.Ltmp189:
.LBB1_105:                              # %do.end255
	.loc	1 282 7 is_stmt 1               # ./sfilter.cu:282:7
	movl	$0, -640(%rbp)
.Ltmp190:
	.loc	1 283 15                        # ./sfilter.cu:283:15
	movq	$0, -648(%rbp)
.LBB1_106:                              # %for.cond257
                                        # =>This Inner Loop Header: Depth=1
.Ltmp191:
	.loc	1 283 22 is_stmt 0              # ./sfilter.cu:283:22
	movq	-648(%rbp), %rax
	.loc	1 283 24                        # ./sfilter.cu:283:24
	cmpq	-128(%rbp), %rax
.Ltmp192:
	.loc	1 283 3                         # ./sfilter.cu:283:3
	jae	.LBB1_115
# %bb.107:                              # %for.body259
                                        #   in Loop: Header=BB1_106 Depth=1
.Ltmp193:
	.loc	1 284 29 is_stmt 1              # ./sfilter.cu:284:29
	movq	-648(%rbp), %rsi
	leaq	-208(%rbp), %rdi
	.loc	1 284 23 is_stmt 0              # ./sfilter.cu:284:23
	callq	_ZNSt6vectorIfSaIfEEixEm
	movss	(%rax), %xmm0                   # xmm0 = mem[0],zero,zero,zero
	movss	%xmm0, -944(%rbp)               # 4-byte Spill
	.loc	1 284 41                        # ./sfilter.cu:284:41
	movq	-648(%rbp), %rsi
	leaq	-240(%rbp), %rdi
	.loc	1 284 33                        # ./sfilter.cu:284:33
	callq	_ZNSt6vectorIfSaIfEEixEm
	movss	-944(%rbp), %xmm0               # 4-byte Reload
                                        # xmm0 = mem[0],zero,zero,zero
	movss	(%rax), %xmm1                   # xmm1 = mem[0],zero,zero,zero
.Ltmp53:
	movl	$4, %edi
	.loc	1 284 10                        # ./sfilter.cu:284:10
	callq	_ZL12almost_equalffi
.Ltmp54:
	movb	%al, -937(%rbp)                 # 1-byte Spill
	jmp	.LBB1_108
.Ltmp194:
.LBB1_108:                              # %invoke.cont262
                                        #   in Loop: Header=BB1_106 Depth=1
	.loc	1 0 10                          # ./sfilter.cu:0:10
	movb	-937(%rbp), %al                 # 1-byte Reload
	.loc	1 284 9                         # ./sfilter.cu:284:9
	testb	$1, %al
	jne	.LBB1_113
	jmp	.LBB1_109
.LBB1_109:                              # %if.then264
                                        #   in Loop: Header=BB1_106 Depth=1
.Ltmp195:
	.loc	1 285 18 is_stmt 1              # ./sfilter.cu:285:18
	cmpl	$100, -640(%rbp)
.Ltmp196:
	.loc	1 285 11 is_stmt 0              # ./sfilter.cu:285:11
	jge	.LBB1_112
# %bb.110:                              # %if.then266
                                        #   in Loop: Header=BB1_106 Depth=1
.Ltmp197:
	.loc	1 286 61 is_stmt 1              # ./sfilter.cu:286:61
	movq	-648(%rbp), %rsi
	movq	%rsi, -960(%rbp)                # 8-byte Spill
	leaq	-240(%rbp), %rdi
	.loc	1 286 64 is_stmt 0              # ./sfilter.cu:286:64
	callq	_ZNSt6vectorIfSaIfEEixEm
	movss	(%rax), %xmm0                   # xmm0 = mem[0],zero,zero,zero
	cvtss2sd	%xmm0, %xmm0
	movsd	%xmm0, -952(%rbp)               # 8-byte Spill
	.loc	1 286 82                        # ./sfilter.cu:286:82
	movq	-648(%rbp), %rsi
	leaq	-208(%rbp), %rdi
	.loc	1 286 76                        # ./sfilter.cu:286:76
	callq	_ZNSt6vectorIfSaIfEEixEm
	movq	-960(%rbp), %rsi                # 8-byte Reload
	movsd	-952(%rbp), %xmm0               # 8-byte Reload
                                        # xmm0 = mem[0],zero
	movss	(%rax), %xmm1                   # xmm1 = mem[0],zero,zero,zero
	cvtss2sd	%xmm1, %xmm1
.Ltmp55:
	.loc	1 286 9                         # ./sfilter.cu:286:9
	leaq	.L.str.7(%rip), %rdi
	movb	$2, %al
	callq	printf@PLT
.Ltmp56:
	jmp	.LBB1_111
.LBB1_111:                              # %invoke.cont271
                                        #   in Loop: Header=BB1_106 Depth=1
	.loc	1 287 7 is_stmt 1               # ./sfilter.cu:287:7
	jmp	.LBB1_112
.Ltmp198:
.LBB1_112:                              # %if.end273
                                        #   in Loop: Header=BB1_106 Depth=1
	.loc	1 288 7                         # ./sfilter.cu:288:7
	movl	-640(%rbp), %eax
	addl	$1, %eax
	movl	%eax, -640(%rbp)
.Ltmp199:
.LBB1_113:                              # %if.end275
                                        #   in Loop: Header=BB1_106 Depth=1
	.loc	1 290 3                         # ./sfilter.cu:290:3
	jmp	.LBB1_114
.Ltmp200:
.LBB1_114:                              # %for.inc276
                                        #   in Loop: Header=BB1_106 Depth=1
	.loc	1 283 29                        # ./sfilter.cu:283:29
	movq	-648(%rbp), %rax
	addq	$1, %rax
	movq	%rax, -648(%rbp)
	.loc	1 283 3 is_stmt 0               # ./sfilter.cu:283:3
	jmp	.LBB1_106
.Ltmp201:
.LBB1_115:                              # %for.end278
	.loc	1 291 14 is_stmt 1              # ./sfilter.cu:291:14
	cmpl	$0, -640(%rbp)
.Ltmp202:
	.loc	1 291 7 is_stmt 0               # ./sfilter.cu:291:7
	jne	.LBB1_118
# %bb.116:                              # %if.then280
.Ltmp47:
.Ltmp203:
	.loc	1 292 5 is_stmt 1               # ./sfilter.cu:292:5
	leaq	.L.str.8(%rip), %rdi
	xorl	%eax, %eax
                                        # kill: def $al killed $al killed $eax
	callq	printf@PLT
.Ltmp48:
	jmp	.LBB1_117
.LBB1_117:                              # %invoke.cont281
	.loc	1 293 3                         # ./sfilter.cu:293:3
	jmp	.LBB1_120
.Ltmp204:
.LBB1_118:                              # %if.else
	.loc	1 294 37                        # ./sfilter.cu:294:37
	movl	-640(%rbp), %esi
.Ltmp45:
	.loc	1 294 5 is_stmt 0               # ./sfilter.cu:294:5
	leaq	.L.str.9(%rip), %rdi
	xorl	%eax, %eax
                                        # kill: def $al killed $al killed $eax
	callq	printf@PLT
.Ltmp46:
	jmp	.LBB1_119
.Ltmp205:
.LBB1_119:                              # %invoke.cont283
	.loc	1 0 5                           # ./sfilter.cu:0:5
	jmp	.LBB1_120
.LBB1_120:                              # %if.end285
	.loc	1 298 12 is_stmt 1              # ./sfilter.cu:298:12
	movq	-464(%rbp), %rdi
.Ltmp49:
	.loc	1 298 3 is_stmt 0               # ./sfilter.cu:298:3
	callq	cudaFree@PLT
.Ltmp50:
	jmp	.LBB1_121
.LBB1_121:                              # %invoke.cont286
	.loc	1 299 12 is_stmt 1              # ./sfilter.cu:299:12
	movq	-472(%rbp), %rdi
.Ltmp51:
	.loc	1 299 3 is_stmt 0               # ./sfilter.cu:299:3
	callq	cudaFree@PLT
.Ltmp52:
	jmp	.LBB1_122
.LBB1_122:                              # %invoke.cont288
	.loc	1 300 10 is_stmt 1              # ./sfilter.cu:300:10
	movl	-640(%rbp), %eax
	.loc	1 300 3 is_stmt 0               # ./sfilter.cu:300:3
	movl	%eax, -100(%rbp)
	.loc	1 301 1 is_stmt 1               # ./sfilter.cu:301:1
	leaq	-240(%rbp), %rdi
	callq	_ZNSt6vectorIfSaIfEED2Ev
	leaq	-208(%rbp), %rdi
	callq	_ZNSt6vectorIfSaIfEED2Ev
	leaq	-160(%rbp), %rdi
	callq	_ZNSt6vectorIfSaIfEED2Ev
	movl	-100(%rbp), %eax
	.loc	1 301 1 epilogue_begin is_stmt 0 # ./sfilter.cu:301:1
	addq	$976, %rsp                      # imm = 0x3D0
	popq	%rbp
	.cfi_def_cfa %rsp, 8
	retq
.LBB1_123:                              # %ehcleanup
	.cfi_def_cfa %rbp, 16
	leaq	-208(%rbp), %rdi
	callq	_ZNSt6vectorIfSaIfEED2Ev
.LBB1_124:                              # %ehcleanup290
	leaq	-160(%rbp), %rdi
	callq	_ZNSt6vectorIfSaIfEED2Ev
.LBB1_125:                              # %eh.resume
	.loc	1 200 22 is_stmt 1              # ./sfilter.cu:200:22
	movq	-176(%rbp), %rdi
	callq	_Unwind_Resume@PLT
.Ltmp206:
.Lfunc_end1:
	.size	main, .Lfunc_end1-main
	.cfi_endproc
	.section	.gcc_except_table,"a",@progbits
	.p2align	2, 0x0
GCC_except_table1:
.Lexception0:
	.byte	255                             # @LPStart Encoding = omit
	.byte	255                             # @TType Encoding = omit
	.byte	1                               # Call site Encoding = uleb128
	.uleb128 .Lcst_end0-.Lcst_begin0
.Lcst_begin0:
	.uleb128 .Lfunc_begin1-.Lfunc_begin1    # >> Call Site 1 <<
	.uleb128 .Ltmp2-.Lfunc_begin1           #   Call between .Lfunc_begin1 and .Ltmp2
	.byte	0                               #     has no landing pad
	.byte	0                               #   On action: cleanup
	.uleb128 .Ltmp2-.Lfunc_begin1           # >> Call Site 2 <<
	.uleb128 .Ltmp3-.Ltmp2                  #   Call between .Ltmp2 and .Ltmp3
	.uleb128 .Ltmp4-.Lfunc_begin1           #     jumps to .Ltmp4
	.byte	0                               #   On action: cleanup
	.uleb128 .Ltmp5-.Lfunc_begin1           # >> Call Site 3 <<
	.uleb128 .Ltmp6-.Ltmp5                  #   Call between .Ltmp5 and .Ltmp6
	.uleb128 .Ltmp7-.Lfunc_begin1           #     jumps to .Ltmp7
	.byte	0                               #   On action: cleanup
	.uleb128 .Ltmp8-.Lfunc_begin1           # >> Call Site 4 <<
	.uleb128 .Ltmp9-.Ltmp8                  #   Call between .Ltmp8 and .Ltmp9
	.uleb128 .Ltmp10-.Lfunc_begin1          #     jumps to .Ltmp10
	.byte	0                               #   On action: cleanup
	.uleb128 .Ltmp85-.Lfunc_begin1          # >> Call Site 5 <<
	.uleb128 .Ltmp52-.Ltmp85                #   Call between .Ltmp85 and .Ltmp52
	.uleb128 .Ltmp105-.Lfunc_begin1         #     jumps to .Ltmp105
	.byte	0                               #   On action: cleanup
	.uleb128 .Ltmp52-.Lfunc_begin1          # >> Call Site 6 <<
	.uleb128 .Lfunc_end1-.Ltmp52            #   Call between .Ltmp52 and .Lfunc_end1
	.byte	0                               #     has no landing pad
	.byte	0                               #   On action: cleanup
.Lcst_end0:
	.p2align	2, 0x0
                                        # -- End function
	.text
	.p2align	4, 0x90                         # -- Begin function _ZL10parse_argsiPPc
	.type	_ZL10parse_argsiPPc,@function
_ZL10parse_argsiPPc:                    # @_ZL10parse_argsiPPc
.Lfunc_begin2:
	.loc	1 56 0                          # ./sfilter.cu:56:0
	.cfi_startproc
# %bb.0:                                # %entry
	pushq	%rbp
	.cfi_def_cfa_offset 16
	.cfi_offset %rbp, -16
	movq	%rsp, %rbp
	.cfi_def_cfa_register %rbp
	subq	$32, %rsp
	movl	%edi, -4(%rbp)
	movq	%rsi, -16(%rbp)
.LBB2_1:                                # %while.cond
                                        # =>This Inner Loop Header: Depth=1
.Ltmp207:
	.loc	1 59 22 prologue_end            # ./sfilter.cu:59:22
	movl	-4(%rbp), %edi
	.loc	1 59 28 is_stmt 0               # ./sfilter.cu:59:28
	movq	-16(%rbp), %rsi
	.loc	1 59 15                         # ./sfilter.cu:59:15
	leaq	.L.str.10(%rip), %rdx
	callq	getopt@PLT
	.loc	1 59 13                         # ./sfilter.cu:59:13
	movl	%eax, -20(%rbp)
	.loc	1 59 44                         # ./sfilter.cu:59:44
	cmpl	$-1, %eax
	.loc	1 59 3                          # ./sfilter.cu:59:3
	je	.LBB2_8
# %bb.2:                                # %while.body
                                        #   in Loop: Header=BB2_1 Depth=1
.Ltmp208:
	.loc	1 60 13 is_stmt 1               # ./sfilter.cu:60:13
	movl	-20(%rbp), %eax
	movl	%eax, -28(%rbp)                 # 4-byte Spill
	.loc	1 60 5 is_stmt 0                # ./sfilter.cu:60:5
	subl	$98, %eax
	je	.LBB2_4
	jmp	.LBB2_24
.LBB2_24:                               # %while.body
                                        #   in Loop: Header=BB2_1 Depth=1
	.loc	1 0 5                           # ./sfilter.cu:0:5
	movl	-28(%rbp), %eax                 # 4-byte Reload
	.loc	1 60 5                          # ./sfilter.cu:60:5
	subl	$104, %eax
	je	.LBB2_5
	jmp	.LBB2_25
.LBB2_25:                               # %while.body
                                        #   in Loop: Header=BB2_1 Depth=1
	.loc	1 0 5                           # ./sfilter.cu:0:5
	movl	-28(%rbp), %eax                 # 4-byte Reload
	.loc	1 60 5                          # ./sfilter.cu:60:5
	subl	$110, %eax
	jne	.LBB2_6
	jmp	.LBB2_3
.LBB2_3:                                # %sw.bb
                                        #   in Loop: Header=BB2_1 Depth=1
.Ltmp209:
	.loc	1 62 27 is_stmt 1               # ./sfilter.cu:62:27
	movq	optarg@GOTPCREL(%rip), %rax
	movq	(%rax), %rdi
	.loc	1 62 17 is_stmt 0               # ./sfilter.cu:62:17
	callq	atoi@PLT
	.loc	1 62 15                         # ./sfilter.cu:62:15
	movl	%eax, _ZL5size_(%rip)
	.loc	1 63 9 is_stmt 1                # ./sfilter.cu:63:9
	jmp	.LBB2_7
.LBB2_4:                                # %sw.bb2
                                        #   in Loop: Header=BB2_1 Depth=1
	.loc	1 65 21                         # ./sfilter.cu:65:21
	movq	optarg@GOTPCREL(%rip), %rax
	movq	(%rax), %rdi
	.loc	1 65 9 is_stmt 0                # ./sfilter.cu:65:9
	callq	_ZL11parse_b_argPKc
	.loc	1 66 9 is_stmt 1                # ./sfilter.cu:66:9
	jmp	.LBB2_7
.LBB2_5:                                # %sw.bb3
	.loc	1 68 9                          # ./sfilter.cu:68:9
	callq	_ZL10show_usagev
	.loc	1 69 9                          # ./sfilter.cu:69:9
	xorl	%edi, %edi
	callq	exit@PLT
.LBB2_6:                                # %sw.default
	.loc	1 71 9                          # ./sfilter.cu:71:9
	callq	_ZL10show_usagev
	.loc	1 72 9                          # ./sfilter.cu:72:9
	movl	$4294967295, %edi               # imm = 0xFFFFFFFF
	callq	exit@PLT
.Ltmp210:
.LBB2_7:                                # %sw.epilog
                                        #   in Loop: Header=BB2_1 Depth=1
	.loc	1 59 3                          # ./sfilter.cu:59:3
	jmp	.LBB2_1
.LBB2_8:                                # %while.end
.Ltmp211:
	.loc	1 76 12                         # ./sfilter.cu:76:12
	movl	$1, -24(%rbp)
.LBB2_9:                                # %for.cond
                                        # =>This Inner Loop Header: Depth=1
.Ltmp212:
	.loc	1 76 19 is_stmt 0               # ./sfilter.cu:76:19
	movl	-24(%rbp), %eax
	.loc	1 76 21                         # ./sfilter.cu:76:21
	cmpl	-4(%rbp), %eax
.Ltmp213:
	.loc	1 76 3                          # ./sfilter.cu:76:3
	jge	.LBB2_18
# %bb.10:                               # %for.body
                                        #   in Loop: Header=BB2_9 Depth=1
.Ltmp214:
	.loc	1 77 21 is_stmt 1               # ./sfilter.cu:77:21
	movq	-16(%rbp), %rax
	movslq	-24(%rbp), %rcx
	movq	(%rax,%rcx,8), %rdi
	.loc	1 77 9 is_stmt 0                # ./sfilter.cu:77:9
	leaq	.L.str.11(%rip), %rsi
	callq	strcmp@PLT
	.loc	1 77 37                         # ./sfilter.cu:77:37
	cmpl	$0, %eax
	.loc	1 77 42                         # ./sfilter.cu:77:42
	jne	.LBB2_13
# %bb.11:                               # %land.lhs.true
                                        #   in Loop: Header=BB2_9 Depth=1
	.loc	1 77 45                         # ./sfilter.cu:77:45
	movl	-24(%rbp), %eax
	.loc	1 77 47                         # ./sfilter.cu:77:47
	addl	$1, %eax
	.loc	1 77 51                         # ./sfilter.cu:77:51
	cmpl	-4(%rbp), %eax
.Ltmp215:
	.loc	1 77 9                          # ./sfilter.cu:77:9
	jge	.LBB2_13
# %bb.12:                               # %if.then
                                        #   in Loop: Header=BB2_9 Depth=1
.Ltmp216:
	.loc	1 78 27 is_stmt 1               # ./sfilter.cu:78:27
	movq	-16(%rbp), %rax
	.loc	1 78 32 is_stmt 0               # ./sfilter.cu:78:32
	movl	-24(%rbp), %ecx
	.loc	1 78 34                         # ./sfilter.cu:78:34
	addl	$1, %ecx
	.loc	1 78 27                         # ./sfilter.cu:78:27
	movslq	%ecx, %rcx
	movq	(%rax,%rcx,8), %rdi
	.loc	1 78 17                         # ./sfilter.cu:78:17
	callq	atoi@PLT
	.loc	1 78 15                         # ./sfilter.cu:78:15
	movl	%eax, _ZL7block_x(%rip)
.Ltmp217:
.LBB2_13:                               # %if.end
                                        #   in Loop: Header=BB2_9 Depth=1
	.loc	1 80 21 is_stmt 1               # ./sfilter.cu:80:21
	movq	-16(%rbp), %rax
	movslq	-24(%rbp), %rcx
	movq	(%rax,%rcx,8), %rdi
	.loc	1 80 9 is_stmt 0                # ./sfilter.cu:80:9
	leaq	.L.str.12(%rip), %rsi
	callq	strcmp@PLT
	.loc	1 80 37                         # ./sfilter.cu:80:37
	cmpl	$0, %eax
	.loc	1 80 42                         # ./sfilter.cu:80:42
	jne	.LBB2_16
# %bb.14:                               # %land.lhs.true16
                                        #   in Loop: Header=BB2_9 Depth=1
	.loc	1 80 45                         # ./sfilter.cu:80:45
	movl	-24(%rbp), %eax
	.loc	1 80 47                         # ./sfilter.cu:80:47
	addl	$1, %eax
	.loc	1 80 51                         # ./sfilter.cu:80:51
	cmpl	-4(%rbp), %eax
.Ltmp218:
	.loc	1 80 9                          # ./sfilter.cu:80:9
	jge	.LBB2_16
# %bb.15:                               # %if.then19
                                        #   in Loop: Header=BB2_9 Depth=1
.Ltmp219:
	.loc	1 81 27 is_stmt 1               # ./sfilter.cu:81:27
	movq	-16(%rbp), %rax
	.loc	1 81 32 is_stmt 0               # ./sfilter.cu:81:32
	movl	-24(%rbp), %ecx
	.loc	1 81 34                         # ./sfilter.cu:81:34
	addl	$1, %ecx
	.loc	1 81 27                         # ./sfilter.cu:81:27
	movslq	%ecx, %rcx
	movq	(%rax,%rcx,8), %rdi
	.loc	1 81 17                         # ./sfilter.cu:81:17
	callq	atoi@PLT
	.loc	1 81 15                         # ./sfilter.cu:81:15
	movl	%eax, _ZL7block_y(%rip)
.Ltmp220:
.LBB2_16:                               # %if.end24
                                        #   in Loop: Header=BB2_9 Depth=1
	.loc	1 83 3 is_stmt 1                # ./sfilter.cu:83:3
	jmp	.LBB2_17
.Ltmp221:
.LBB2_17:                               # %for.inc
                                        #   in Loop: Header=BB2_9 Depth=1
	.loc	1 76 29                         # ./sfilter.cu:76:29
	movl	-24(%rbp), %eax
	addl	$1, %eax
	movl	%eax, -24(%rbp)
	.loc	1 76 3 is_stmt 0                # ./sfilter.cu:76:3
	jmp	.LBB2_9
.Ltmp222:
.LBB2_18:                               # %for.end
	.loc	1 84 13 is_stmt 1               # ./sfilter.cu:84:13
	cmpl	$3, _ZL5size_(%rip)
.Ltmp223:
	.loc	1 84 7 is_stmt 0                # ./sfilter.cu:84:7
	jge	.LBB2_20
# %bb.19:                               # %if.then26
.Ltmp224:
	.loc	1 85 13 is_stmt 1               # ./sfilter.cu:85:13
	movq	stderr@GOTPCREL(%rip), %rax
	movq	(%rax), %rdi
	.loc	1 85 5 is_stmt 0                # ./sfilter.cu:85:5
	leaq	.L.str.13(%rip), %rsi
	movb	$0, %al
	callq	fprintf@PLT
	.loc	1 86 5 is_stmt 1                # ./sfilter.cu:86:5
	movl	$4294967295, %edi               # imm = 0xFFFFFFFF
	callq	exit@PLT
.Ltmp225:
.LBB2_20:                               # %if.end28
	.loc	1 88 15                         # ./sfilter.cu:88:15
	cmpl	$0, _ZL7block_x(%rip)
	.loc	1 88 20 is_stmt 0               # ./sfilter.cu:88:20
	jle	.LBB2_22
# %bb.21:                               # %lor.lhs.false
	.loc	1 88 31                         # ./sfilter.cu:88:31
	cmpl	$0, _ZL7block_y(%rip)
.Ltmp226:
	.loc	1 88 7                          # ./sfilter.cu:88:7
	jg	.LBB2_23
.LBB2_22:                               # %if.then31
.Ltmp227:
	.loc	1 89 13 is_stmt 1               # ./sfilter.cu:89:13
	movq	stderr@GOTPCREL(%rip), %rax
	movq	(%rax), %rdi
	.loc	1 89 62 is_stmt 0               # ./sfilter.cu:89:62
	movl	_ZL7block_x(%rip), %edx
	.loc	1 89 71                         # ./sfilter.cu:89:71
	movl	_ZL7block_y(%rip), %ecx
	.loc	1 89 5                          # ./sfilter.cu:89:5
	leaq	.L.str.14(%rip), %rsi
	movb	$0, %al
	callq	fprintf@PLT
	.loc	1 90 5 is_stmt 1                # ./sfilter.cu:90:5
	movl	$4294967295, %edi               # imm = 0xFFFFFFFF
	callq	exit@PLT
.Ltmp228:
.LBB2_23:                               # %if.end33
	.loc	1 92 1 epilogue_begin           # ./sfilter.cu:92:1
	addq	$32, %rsp
	popq	%rbp
	.cfi_def_cfa %rsp, 8
	retq
.Ltmp229:
.Lfunc_end2:
	.size	_ZL10parse_argsiPPc, .Lfunc_end2-_ZL10parse_argsiPPc
	.cfi_endproc
                                        # -- End function
	.section	.text._ZNSt6vectorIfSaIfEEC2EmRKS0_,"axG",@progbits,_ZNSt6vectorIfSaIfEEC2EmRKS0_,comdat
	.weak	_ZNSt6vectorIfSaIfEEC2EmRKS0_   # -- Begin function _ZNSt6vectorIfSaIfEEC2EmRKS0_
	.p2align	4, 0x90
	.type	_ZNSt6vectorIfSaIfEEC2EmRKS0_,@function
_ZNSt6vectorIfSaIfEEC2EmRKS0_:          # @_ZNSt6vectorIfSaIfEEC2EmRKS0_
.Lfunc_begin3:
	.loc	2 555 0                         # /usr/lib/gcc/x86_64-linux-gnu/13/../../../../include/c++/13/bits/stl_vector.h:555:0
	.cfi_startproc
	.cfi_personality 155, DW.ref.__gxx_personality_v0
	.cfi_lsda 27, .Lexception1
# %bb.0:                                # %entry
	pushq	%rbp
	.cfi_def_cfa_offset 16
	.cfi_offset %rbp, -16
	movq	%rsp, %rbp
	.cfi_def_cfa_register %rbp
	subq	$48, %rsp
	movq	%rdi, -8(%rbp)
	movq	%rsi, -16(%rbp)
	movq	%rdx, -24(%rbp)
	movq	-8(%rbp), %rax
	movq	%rax, -48(%rbp)                 # 8-byte Spill
.Ltmp233:
	.loc	2 554 33 prologue_end           # /usr/lib/gcc/x86_64-linux-gnu/13/../../../../include/c++/13/bits/stl_vector.h:554:33
	movq	-16(%rbp), %rdi
	.loc	2 554 38 is_stmt 0              # /usr/lib/gcc/x86_64-linux-gnu/13/../../../../include/c++/13/bits/stl_vector.h:554:38
	movq	-24(%rbp), %rsi
	.loc	2 554 15                        # /usr/lib/gcc/x86_64-linux-gnu/13/../../../../include/c++/13/bits/stl_vector.h:554:15
	callq	_ZNSt6vectorIfSaIfEE17_S_check_init_lenEmRKS0_
	movq	-48(%rbp), %rdi                 # 8-byte Reload
	movq	%rax, %rsi
	.loc	2 554 44                        # /usr/lib/gcc/x86_64-linux-gnu/13/../../../../include/c++/13/bits/stl_vector.h:554:44
	movq	-24(%rbp), %rdx
	.loc	2 554 9                         # /usr/lib/gcc/x86_64-linux-gnu/13/../../../../include/c++/13/bits/stl_vector.h:554:9
	callq	_ZNSt12_Vector_baseIfSaIfEEC2EmRKS0_
	movq	-48(%rbp), %rdi                 # 8-byte Reload
.Ltmp234:
	.loc	2 555 31 is_stmt 1              # /usr/lib/gcc/x86_64-linux-gnu/13/../../../../include/c++/13/bits/stl_vector.h:555:31
	movq	-16(%rbp), %rsi
.Ltmp230:
	.loc	2 555 9 is_stmt 0               # /usr/lib/gcc/x86_64-linux-gnu/13/../../../../include/c++/13/bits/stl_vector.h:555:9
	callq	_ZNSt6vectorIfSaIfEE21_M_default_initializeEm
.Ltmp231:
	jmp	.LBB3_1
.Ltmp235:
.LBB3_1:                                # %invoke.cont
	.loc	2 555 37 epilogue_begin         # /usr/lib/gcc/x86_64-linux-gnu/13/../../../../include/c++/13/bits/stl_vector.h:555:37
	addq	$48, %rsp
	popq	%rbp
	.cfi_def_cfa %rsp, 8
	retq
.LBB3_2:                                # %lpad
	.cfi_def_cfa %rbp, 16
.Ltmp232:
	.loc	2 0 37                          # /usr/lib/gcc/x86_64-linux-gnu/13/../../../../include/c++/13/bits/stl_vector.h:0:37
	movq	-48(%rbp), %rdi                 # 8-byte Reload
	movq	%rax, %rcx
.Ltmp236:
	.loc	2 555 37                        # /usr/lib/gcc/x86_64-linux-gnu/13/../../../../include/c++/13/bits/stl_vector.h:555:37
	movl	%edx, %eax
	movq	%rcx, -32(%rbp)
	movl	%eax, -36(%rbp)
	callq	_ZNSt12_Vector_baseIfSaIfEED2Ev
# %bb.3:                                # %eh.resume
	movq	-32(%rbp), %rdi
	callq	_Unwind_Resume@PLT
.Ltmp237:
.Lfunc_end3:
	.size	_ZNSt6vectorIfSaIfEEC2EmRKS0_, .Lfunc_end3-_ZNSt6vectorIfSaIfEEC2EmRKS0_
	.cfi_endproc
	.section	.gcc_except_table._ZNSt6vectorIfSaIfEEC2EmRKS0_,"aG",@progbits,_ZNSt6vectorIfSaIfEEC2EmRKS0_,comdat
	.p2align	2, 0x0
GCC_except_table3:
.Lexception1:
	.byte	255                             # @LPStart Encoding = omit
	.byte	255                             # @TType Encoding = omit
	.byte	1                               # Call site Encoding = uleb128
	.uleb128 .Lcst_end1-.Lcst_begin1
.Lcst_begin1:
	.uleb128 .Lfunc_begin3-.Lfunc_begin3    # >> Call Site 1 <<
	.uleb128 .Ltmp230-.Lfunc_begin3         #   Call between .Lfunc_begin3 and .Ltmp230
	.byte	0                               #     has no landing pad
	.byte	0                               #   On action: cleanup
	.uleb128 .Ltmp230-.Lfunc_begin3         # >> Call Site 2 <<
	.uleb128 .Ltmp231-.Ltmp230              #   Call between .Ltmp230 and .Ltmp231
	.uleb128 .Ltmp232-.Lfunc_begin3         #     jumps to .Ltmp232
	.byte	0                               #   On action: cleanup
	.uleb128 .Ltmp231-.Lfunc_begin3         # >> Call Site 3 <<
	.uleb128 .Lfunc_end3-.Ltmp231           #   Call between .Ltmp231 and .Lfunc_end3
	.byte	0                               #     has no landing pad
	.byte	0                               #   On action: cleanup
.Lcst_end1:
	.p2align	2, 0x0
                                        # -- End function
	.section	.text._ZNSt6vectorIfSaIfEEC2EmRKfRKS0_,"axG",@progbits,_ZNSt6vectorIfSaIfEEC2EmRKfRKS0_,comdat
	.weak	_ZNSt6vectorIfSaIfEEC2EmRKfRKS0_ # -- Begin function _ZNSt6vectorIfSaIfEEC2EmRKfRKS0_
	.p2align	4, 0x90
	.type	_ZNSt6vectorIfSaIfEEC2EmRKfRKS0_,@function
_ZNSt6vectorIfSaIfEEC2EmRKfRKS0_:       # @_ZNSt6vectorIfSaIfEEC2EmRKfRKS0_
.Lfunc_begin4:
	.loc	2 569 0 is_stmt 1               # /usr/lib/gcc/x86_64-linux-gnu/13/../../../../include/c++/13/bits/stl_vector.h:569:0
	.cfi_startproc
	.cfi_personality 155, DW.ref.__gxx_personality_v0
	.cfi_lsda 27, .Lexception2
# %bb.0:                                # %entry
	pushq	%rbp
	.cfi_def_cfa_offset 16
	.cfi_offset %rbp, -16
	movq	%rsp, %rbp
	.cfi_def_cfa_register %rbp
	subq	$64, %rsp
	movq	%rdi, -8(%rbp)
	movq	%rsi, -16(%rbp)
	movq	%rdx, -24(%rbp)
	movq	%rcx, -32(%rbp)
	movq	-8(%rbp), %rax
	movq	%rax, -56(%rbp)                 # 8-byte Spill
.Ltmp241:
	.loc	2 568 33 prologue_end           # /usr/lib/gcc/x86_64-linux-gnu/13/../../../../include/c++/13/bits/stl_vector.h:568:33
	movq	-16(%rbp), %rdi
	.loc	2 568 38 is_stmt 0              # /usr/lib/gcc/x86_64-linux-gnu/13/../../../../include/c++/13/bits/stl_vector.h:568:38
	movq	-32(%rbp), %rsi
	.loc	2 568 15                        # /usr/lib/gcc/x86_64-linux-gnu/13/../../../../include/c++/13/bits/stl_vector.h:568:15
	callq	_ZNSt6vectorIfSaIfEE17_S_check_init_lenEmRKS0_
	movq	-56(%rbp), %rdi                 # 8-byte Reload
	movq	%rax, %rsi
	.loc	2 568 44                        # /usr/lib/gcc/x86_64-linux-gnu/13/../../../../include/c++/13/bits/stl_vector.h:568:44
	movq	-32(%rbp), %rdx
	.loc	2 568 9                         # /usr/lib/gcc/x86_64-linux-gnu/13/../../../../include/c++/13/bits/stl_vector.h:568:9
	callq	_ZNSt12_Vector_baseIfSaIfEEC2EmRKS0_
	movq	-56(%rbp), %rdi                 # 8-byte Reload
.Ltmp242:
	.loc	2 569 28 is_stmt 1              # /usr/lib/gcc/x86_64-linux-gnu/13/../../../../include/c++/13/bits/stl_vector.h:569:28
	movq	-16(%rbp), %rsi
	.loc	2 569 33 is_stmt 0              # /usr/lib/gcc/x86_64-linux-gnu/13/../../../../include/c++/13/bits/stl_vector.h:569:33
	movq	-24(%rbp), %rdx
.Ltmp238:
	.loc	2 569 9                         # /usr/lib/gcc/x86_64-linux-gnu/13/../../../../include/c++/13/bits/stl_vector.h:569:9
	callq	_ZNSt6vectorIfSaIfEE18_M_fill_initializeEmRKf
.Ltmp239:
	jmp	.LBB4_1
.Ltmp243:
.LBB4_1:                                # %invoke.cont
	.loc	2 569 43 epilogue_begin         # /usr/lib/gcc/x86_64-linux-gnu/13/../../../../include/c++/13/bits/stl_vector.h:569:43
	addq	$64, %rsp
	popq	%rbp
	.cfi_def_cfa %rsp, 8
	retq
.LBB4_2:                                # %lpad
	.cfi_def_cfa %rbp, 16
.Ltmp240:
	.loc	2 0 43                          # /usr/lib/gcc/x86_64-linux-gnu/13/../../../../include/c++/13/bits/stl_vector.h:0:43
	movq	-56(%rbp), %rdi                 # 8-byte Reload
	movq	%rax, %rcx
.Ltmp244:
	.loc	2 569 43                        # /usr/lib/gcc/x86_64-linux-gnu/13/../../../../include/c++/13/bits/stl_vector.h:569:43
	movl	%edx, %eax
	movq	%rcx, -40(%rbp)
	movl	%eax, -44(%rbp)
	callq	_ZNSt12_Vector_baseIfSaIfEED2Ev
# %bb.3:                                # %eh.resume
	movq	-40(%rbp), %rdi
	callq	_Unwind_Resume@PLT
.Ltmp245:
.Lfunc_end4:
	.size	_ZNSt6vectorIfSaIfEEC2EmRKfRKS0_, .Lfunc_end4-_ZNSt6vectorIfSaIfEEC2EmRKfRKS0_
	.cfi_endproc
	.section	.gcc_except_table._ZNSt6vectorIfSaIfEEC2EmRKfRKS0_,"aG",@progbits,_ZNSt6vectorIfSaIfEEC2EmRKfRKS0_,comdat
	.p2align	2, 0x0
GCC_except_table4:
.Lexception2:
	.byte	255                             # @LPStart Encoding = omit
	.byte	255                             # @TType Encoding = omit
	.byte	1                               # Call site Encoding = uleb128
	.uleb128 .Lcst_end2-.Lcst_begin2
.Lcst_begin2:
	.uleb128 .Lfunc_begin4-.Lfunc_begin4    # >> Call Site 1 <<
	.uleb128 .Ltmp238-.Lfunc_begin4         #   Call between .Lfunc_begin4 and .Ltmp238
	.byte	0                               #     has no landing pad
	.byte	0                               #   On action: cleanup
	.uleb128 .Ltmp238-.Lfunc_begin4         # >> Call Site 2 <<
	.uleb128 .Ltmp239-.Ltmp238              #   Call between .Ltmp238 and .Ltmp239
	.uleb128 .Ltmp240-.Lfunc_begin4         #     jumps to .Ltmp240
	.byte	0                               #   On action: cleanup
	.uleb128 .Ltmp239-.Lfunc_begin4         # >> Call Site 3 <<
	.uleb128 .Lfunc_end4-.Ltmp239           #   Call between .Ltmp239 and .Lfunc_end4
	.byte	0                               #     has no landing pad
	.byte	0                               #   On action: cleanup
.Lcst_end2:
	.p2align	2, 0x0
                                        # -- End function
	.section	.text._ZNSt6vectorIfSaIfEEixEm,"axG",@progbits,_ZNSt6vectorIfSaIfEEixEm,comdat
	.weak	_ZNSt6vectorIfSaIfEEixEm        # -- Begin function _ZNSt6vectorIfSaIfEEixEm
	.p2align	4, 0x90
	.type	_ZNSt6vectorIfSaIfEEixEm,@function
_ZNSt6vectorIfSaIfEEixEm:               # @_ZNSt6vectorIfSaIfEEixEm
.Lfunc_begin5:
	.loc	2 1124 0 is_stmt 1              # /usr/lib/gcc/x86_64-linux-gnu/13/../../../../include/c++/13/bits/stl_vector.h:1124:0
	.cfi_startproc
# %bb.0:                                # %entry
	pushq	%rbp
	.cfi_def_cfa_offset 16
	.cfi_offset %rbp, -16
	movq	%rsp, %rbp
	.cfi_def_cfa_register %rbp
	movq	%rdi, -8(%rbp)
	movq	%rsi, -16(%rbp)
	movq	-8(%rbp), %rax
.Ltmp246:
	.loc	2 1126 25 prologue_end          # /usr/lib/gcc/x86_64-linux-gnu/13/../../../../include/c++/13/bits/stl_vector.h:1126:25
	movq	(%rax), %rax
	.loc	2 1126 36 is_stmt 0             # /usr/lib/gcc/x86_64-linux-gnu/13/../../../../include/c++/13/bits/stl_vector.h:1126:36
	movq	-16(%rbp), %rcx
	.loc	2 1126 34                       # /usr/lib/gcc/x86_64-linux-gnu/13/../../../../include/c++/13/bits/stl_vector.h:1126:34
	shlq	$2, %rcx
	addq	%rcx, %rax
	.loc	2 1126 2 epilogue_begin         # /usr/lib/gcc/x86_64-linux-gnu/13/../../../../include/c++/13/bits/stl_vector.h:1126:2
	popq	%rbp
	.cfi_def_cfa %rsp, 8
	retq
.Ltmp247:
.Lfunc_end5:
	.size	_ZNSt6vectorIfSaIfEEixEm, .Lfunc_end5-_ZNSt6vectorIfSaIfEEixEm
	.cfi_endproc
                                        # -- End function
	.section	.text._ZNSt6vectorIfSaIfEE2atEm,"axG",@progbits,_ZNSt6vectorIfSaIfEE2atEm,comdat
	.weak	_ZNSt6vectorIfSaIfEE2atEm       # -- Begin function _ZNSt6vectorIfSaIfEE2atEm
	.p2align	4, 0x90
	.type	_ZNSt6vectorIfSaIfEE2atEm,@function
_ZNSt6vectorIfSaIfEE2atEm:              # @_ZNSt6vectorIfSaIfEE2atEm
.Lfunc_begin6:
	.loc	2 1176 0 is_stmt 1              # /usr/lib/gcc/x86_64-linux-gnu/13/../../../../include/c++/13/bits/stl_vector.h:1176:0
	.cfi_startproc
# %bb.0:                                # %entry
	pushq	%rbp
	.cfi_def_cfa_offset 16
	.cfi_offset %rbp, -16
	movq	%rsp, %rbp
	.cfi_def_cfa_register %rbp
	subq	$32, %rsp
	movq	%rdi, -8(%rbp)
	movq	%rsi, -16(%rbp)
	movq	-8(%rbp), %rdi
	movq	%rdi, -24(%rbp)                 # 8-byte Spill
.Ltmp248:
	.loc	2 1177 17 prologue_end          # /usr/lib/gcc/x86_64-linux-gnu/13/../../../../include/c++/13/bits/stl_vector.h:1177:17
	movq	-16(%rbp), %rsi
	.loc	2 1177 2 is_stmt 0              # /usr/lib/gcc/x86_64-linux-gnu/13/../../../../include/c++/13/bits/stl_vector.h:1177:2
	callq	_ZNKSt6vectorIfSaIfEE14_M_range_checkEm
	movq	-24(%rbp), %rdi                 # 8-byte Reload
	.loc	2 1178 17 is_stmt 1             # /usr/lib/gcc/x86_64-linux-gnu/13/../../../../include/c++/13/bits/stl_vector.h:1178:17
	movq	-16(%rbp), %rsi
	.loc	2 1178 9 is_stmt 0              # /usr/lib/gcc/x86_64-linux-gnu/13/../../../../include/c++/13/bits/stl_vector.h:1178:9
	callq	_ZNSt6vectorIfSaIfEEixEm
	.loc	2 1178 2 epilogue_begin         # /usr/lib/gcc/x86_64-linux-gnu/13/../../../../include/c++/13/bits/stl_vector.h:1178:2
	addq	$32, %rsp
	popq	%rbp
	.cfi_def_cfa %rsp, 8
	retq
.Ltmp249:
.Lfunc_end6:
	.size	_ZNSt6vectorIfSaIfEE2atEm, .Lfunc_end6-_ZNSt6vectorIfSaIfEE2atEm
	.cfi_endproc
                                        # -- End function
	.text
	.p2align	4, 0x90                         # -- Begin function _ZL10cudaMallocIfE9cudaErrorPPT_m
	.type	_ZL10cudaMallocIfE9cudaErrorPPT_m,@function
_ZL10cudaMallocIfE9cudaErrorPPT_m:      # @_ZL10cudaMallocIfE9cudaErrorPPT_m
.Lfunc_begin7:
	.file	19 "/nethome/cahn45/CuPBoP" "cuda-12.1/include/cuda_runtime.h"
	.loc	19 734 0 is_stmt 1              # cuda-12.1/include/cuda_runtime.h:734:0
	.cfi_startproc
# %bb.0:                                # %entry
	pushq	%rbp
	.cfi_def_cfa_offset 16
	.cfi_offset %rbp, -16
	movq	%rsp, %rbp
	.cfi_def_cfa_register %rbp
	subq	$16, %rsp
	movq	%rdi, -8(%rbp)
	movq	%rsi, -16(%rbp)
.Ltmp250:
	.loc	19 735 38 prologue_end          # cuda-12.1/include/cuda_runtime.h:735:38
	movq	-8(%rbp), %rdi
	.loc	19 735 46 is_stmt 0             # cuda-12.1/include/cuda_runtime.h:735:46
	movq	-16(%rbp), %rsi
	.loc	19 735 10                       # cuda-12.1/include/cuda_runtime.h:735:10
	callq	cudaMalloc@PLT
	.loc	19 735 3 epilogue_begin         # cuda-12.1/include/cuda_runtime.h:735:3
	addq	$16, %rsp
	popq	%rbp
	.cfi_def_cfa %rsp, 8
	retq
.Ltmp251:
.Lfunc_end7:
	.size	_ZL10cudaMallocIfE9cudaErrorPPT_m, .Lfunc_end7-_ZL10cudaMallocIfE9cudaErrorPPT_m
	.cfi_endproc
                                        # -- End function
	.section	.text._ZNSt6vectorIfSaIfEE4dataEv,"axG",@progbits,_ZNSt6vectorIfSaIfEE4dataEv,comdat
	.weak	_ZNSt6vectorIfSaIfEE4dataEv     # -- Begin function _ZNSt6vectorIfSaIfEE4dataEv
	.p2align	4, 0x90
	.type	_ZNSt6vectorIfSaIfEE4dataEv,@function
_ZNSt6vectorIfSaIfEE4dataEv:            # @_ZNSt6vectorIfSaIfEE4dataEv
.Lfunc_begin8:
	.loc	2 1258 0 is_stmt 1              # /usr/lib/gcc/x86_64-linux-gnu/13/../../../../include/c++/13/bits/stl_vector.h:1258:0
	.cfi_startproc
# %bb.0:                                # %entry
	pushq	%rbp
	.cfi_def_cfa_offset 16
	.cfi_offset %rbp, -16
	movq	%rsp, %rbp
	.cfi_def_cfa_register %rbp
	subq	$16, %rsp
	movq	%rdi, -8(%rbp)
	movq	-8(%rbp), %rdi
.Ltmp252:
	.loc	2 1258 42 prologue_end          # /usr/lib/gcc/x86_64-linux-gnu/13/../../../../include/c++/13/bits/stl_vector.h:1258:42
	movq	(%rdi), %rsi
	.loc	2 1258 16 is_stmt 0             # /usr/lib/gcc/x86_64-linux-gnu/13/../../../../include/c++/13/bits/stl_vector.h:1258:16
	callq	_ZNKSt6vectorIfSaIfEE11_M_data_ptrIfEEPT_S4_
	.loc	2 1258 9 epilogue_begin         # /usr/lib/gcc/x86_64-linux-gnu/13/../../../../include/c++/13/bits/stl_vector.h:1258:9
	addq	$16, %rsp
	popq	%rbp
	.cfi_def_cfa %rsp, 8
	retq
.Ltmp253:
.Lfunc_end8:
	.size	_ZNSt6vectorIfSaIfEE4dataEv, .Lfunc_end8-_ZNSt6vectorIfSaIfEE4dataEv
	.cfi_endproc
                                        # -- End function
	.section	.text._ZN4dim3C2Ejjj,"axG",@progbits,_ZN4dim3C2Ejjj,comdat
	.weak	_ZN4dim3C2Ejjj                  # -- Begin function _ZN4dim3C2Ejjj
	.p2align	4, 0x90
	.type	_ZN4dim3C2Ejjj,@function
_ZN4dim3C2Ejjj:                         # @_ZN4dim3C2Ejjj
.Lfunc_begin9:
	.loc	17 423 0 is_stmt 1              # cuda-12.1/include/vector_types.h:423:0
	.cfi_startproc
# %bb.0:                                # %entry
	pushq	%rbp
	.cfi_def_cfa_offset 16
	.cfi_offset %rbp, -16
	movq	%rsp, %rbp
	.cfi_def_cfa_register %rbp
	movq	%rdi, -8(%rbp)
	movl	%esi, -12(%rbp)
	movl	%edx, -16(%rbp)
	movl	%ecx, -20(%rbp)
	movq	-8(%rbp), %rax
.Ltmp254:
	.loc	17 423 133 prologue_end         # cuda-12.1/include/vector_types.h:423:133
	movl	-12(%rbp), %ecx
	.loc	17 423 131 is_stmt 0            # cuda-12.1/include/vector_types.h:423:131
	movl	%ecx, (%rax)
	.loc	17 423 140                      # cuda-12.1/include/vector_types.h:423:140
	movl	-16(%rbp), %ecx
	.loc	17 423 138                      # cuda-12.1/include/vector_types.h:423:138
	movl	%ecx, 4(%rax)
	.loc	17 423 147                      # cuda-12.1/include/vector_types.h:423:147
	movl	-20(%rbp), %ecx
	.loc	17 423 145                      # cuda-12.1/include/vector_types.h:423:145
	movl	%ecx, 8(%rax)
	.loc	17 423 152 epilogue_begin       # cuda-12.1/include/vector_types.h:423:152
	popq	%rbp
	.cfi_def_cfa %rsp, 8
	retq
.Ltmp255:
.Lfunc_end9:
	.size	_ZN4dim3C2Ejjj, .Lfunc_end9-_ZN4dim3C2Ejjj
	.cfi_endproc
                                        # -- End function
	.section	.text._ZNSt6chrono13duration_castINS_8durationIlSt5ratioILl1ELl1000EEEElS2_ILl1ELl1000000000EEEENSt9enable_ifIXsr13__is_durationIT_EE5valueES7_E4typeERKNS1_IT0_T1_EE,"axG",@progbits,_ZNSt6chrono13duration_castINS_8durationIlSt5ratioILl1ELl1000EEEElS2_ILl1ELl1000000000EEEENSt9enable_ifIXsr13__is_durationIT_EE5valueES7_E4typeERKNS1_IT0_T1_EE,comdat
	.weak	_ZNSt6chrono13duration_castINS_8durationIlSt5ratioILl1ELl1000EEEElS2_ILl1ELl1000000000EEEENSt9enable_ifIXsr13__is_durationIT_EE5valueES7_E4typeERKNS1_IT0_T1_EE # -- Begin function _ZNSt6chrono13duration_castINS_8durationIlSt5ratioILl1ELl1000EEEElS2_ILl1ELl1000000000EEEENSt9enable_ifIXsr13__is_durationIT_EE5valueES7_E4typeERKNS1_IT0_T1_EE
	.p2align	4, 0x90
	.type	_ZNSt6chrono13duration_castINS_8durationIlSt5ratioILl1ELl1000EEEElS2_ILl1ELl1000000000EEEENSt9enable_ifIXsr13__is_durationIT_EE5valueES7_E4typeERKNS1_IT0_T1_EE,@function
_ZNSt6chrono13duration_castINS_8durationIlSt5ratioILl1ELl1000EEEElS2_ILl1ELl1000000000EEEENSt9enable_ifIXsr13__is_durationIT_EE5valueES7_E4typeERKNS1_IT0_T1_EE: # @_ZNSt6chrono13duration_castINS_8durationIlSt5ratioILl1ELl1000EEEElS2_ILl1ELl1000000000EEEENSt9enable_ifIXsr13__is_durationIT_EE5valueES7_E4typeERKNS1_IT0_T1_EE
.Lfunc_begin10:
	.loc	9 274 0 is_stmt 1               # /usr/lib/gcc/x86_64-linux-gnu/13/../../../../include/c++/13/bits/chrono.h:274:0
	.cfi_startproc
# %bb.0:                                # %entry
	pushq	%rbp
	.cfi_def_cfa_offset 16
	.cfi_offset %rbp, -16
	movq	%rsp, %rbp
	.cfi_def_cfa_register %rbp
	subq	$16, %rsp
	movq	%rdi, -16(%rbp)
.Ltmp256:
	.loc	9 287 24 prologue_end           # /usr/lib/gcc/x86_64-linux-gnu/13/../../../../include/c++/13/bits/chrono.h:287:24
	movq	-16(%rbp), %rdi
	.loc	9 287 11 is_stmt 0              # /usr/lib/gcc/x86_64-linux-gnu/13/../../../../include/c++/13/bits/chrono.h:287:11
	callq	_ZNSt6chrono20__duration_cast_implINS_8durationIlSt5ratioILl1ELl1000EEEES2_ILl1ELl1000000EElLb1ELb0EE6__castIlS2_ILl1ELl1000000000EEEES4_RKNS1_IT_T0_EE
	movq	%rax, -8(%rbp)
	.loc	9 287 4                         # /usr/lib/gcc/x86_64-linux-gnu/13/../../../../include/c++/13/bits/chrono.h:287:4
	movq	-8(%rbp), %rax
	.loc	9 287 4 epilogue_begin          # /usr/lib/gcc/x86_64-linux-gnu/13/../../../../include/c++/13/bits/chrono.h:287:4
	addq	$16, %rsp
	popq	%rbp
	.cfi_def_cfa %rsp, 8
	retq
.Ltmp257:
.Lfunc_end10:
	.size	_ZNSt6chrono13duration_castINS_8durationIlSt5ratioILl1ELl1000EEEElS2_ILl1ELl1000000000EEEENSt9enable_ifIXsr13__is_durationIT_EE5valueES7_E4typeERKNS1_IT0_T1_EE, .Lfunc_end10-_ZNSt6chrono13duration_castINS_8durationIlSt5ratioILl1ELl1000EEEElS2_ILl1ELl1000000000EEEENSt9enable_ifIXsr13__is_durationIT_EE5valueES7_E4typeERKNS1_IT0_T1_EE
	.cfi_endproc
                                        # -- End function
	.section	.text._ZNSt6chronomiINS_3_V212system_clockENS_8durationIlSt5ratioILl1ELl1000000000EEEES6_EENSt11common_typeIJT0_T1_EE4typeERKNS_10time_pointIT_S8_EERKNSC_ISD_S9_EE,"axG",@progbits,_ZNSt6chronomiINS_3_V212system_clockENS_8durationIlSt5ratioILl1ELl1000000000EEEES6_EENSt11common_typeIJT0_T1_EE4typeERKNS_10time_pointIT_S8_EERKNSC_ISD_S9_EE,comdat
	.weak	_ZNSt6chronomiINS_3_V212system_clockENS_8durationIlSt5ratioILl1ELl1000000000EEEES6_EENSt11common_typeIJT0_T1_EE4typeERKNS_10time_pointIT_S8_EERKNSC_ISD_S9_EE # -- Begin function _ZNSt6chronomiINS_3_V212system_clockENS_8durationIlSt5ratioILl1ELl1000000000EEEES6_EENSt11common_typeIJT0_T1_EE4typeERKNS_10time_pointIT_S8_EERKNSC_ISD_S9_EE
	.p2align	4, 0x90
	.type	_ZNSt6chronomiINS_3_V212system_clockENS_8durationIlSt5ratioILl1ELl1000000000EEEES6_EENSt11common_typeIJT0_T1_EE4typeERKNS_10time_pointIT_S8_EERKNSC_ISD_S9_EE,@function
_ZNSt6chronomiINS_3_V212system_clockENS_8durationIlSt5ratioILl1ELl1000000000EEEES6_EENSt11common_typeIJT0_T1_EE4typeERKNS_10time_pointIT_S8_EERKNSC_ISD_S9_EE: # @_ZNSt6chronomiINS_3_V212system_clockENS_8durationIlSt5ratioILl1ELl1000000000EEEES6_EENSt11common_typeIJT0_T1_EE4typeERKNS_10time_pointIT_S8_EERKNSC_ISD_S9_EE
.Lfunc_begin11:
	.loc	9 1154 0 is_stmt 1              # /usr/lib/gcc/x86_64-linux-gnu/13/../../../../include/c++/13/bits/chrono.h:1154:0
	.cfi_startproc
# %bb.0:                                # %entry
	pushq	%rbp
	.cfi_def_cfa_offset 16
	.cfi_offset %rbp, -16
	movq	%rsp, %rbp
	.cfi_def_cfa_register %rbp
	subq	$48, %rsp
	movq	%rdi, -16(%rbp)
	movq	%rsi, -24(%rbp)
.Ltmp258:
	.loc	9 1154 16 prologue_end          # /usr/lib/gcc/x86_64-linux-gnu/13/../../../../include/c++/13/bits/chrono.h:1154:16
	movq	-16(%rbp), %rdi
	.loc	9 1154 22 is_stmt 0             # /usr/lib/gcc/x86_64-linux-gnu/13/../../../../include/c++/13/bits/chrono.h:1154:22
	callq	_ZNKSt6chrono10time_pointINS_3_V212system_clockENS_8durationIlSt5ratioILl1ELl1000000000EEEEE16time_since_epochEv
	movq	%rax, -32(%rbp)
	.loc	9 1154 43                       # /usr/lib/gcc/x86_64-linux-gnu/13/../../../../include/c++/13/bits/chrono.h:1154:43
	movq	-24(%rbp), %rdi
	.loc	9 1154 49                       # /usr/lib/gcc/x86_64-linux-gnu/13/../../../../include/c++/13/bits/chrono.h:1154:49
	callq	_ZNKSt6chrono10time_pointINS_3_V212system_clockENS_8durationIlSt5ratioILl1ELl1000000000EEEEE16time_since_epochEv
	movq	%rax, -40(%rbp)
	.loc	9 1154 41                       # /usr/lib/gcc/x86_64-linux-gnu/13/../../../../include/c++/13/bits/chrono.h:1154:41
	leaq	-32(%rbp), %rdi
	leaq	-40(%rbp), %rsi
	callq	_ZNSt6chronomiIlSt5ratioILl1ELl1000000000EElS2_EENSt11common_typeIJNS_8durationIT_T0_EENS4_IT1_T2_EEEE4typeERKS7_RKSA_
	movq	%rax, -8(%rbp)
	.loc	9 1154 9                        # /usr/lib/gcc/x86_64-linux-gnu/13/../../../../include/c++/13/bits/chrono.h:1154:9
	movq	-8(%rbp), %rax
	.loc	9 1154 9 epilogue_begin         # /usr/lib/gcc/x86_64-linux-gnu/13/../../../../include/c++/13/bits/chrono.h:1154:9
	addq	$48, %rsp
	popq	%rbp
	.cfi_def_cfa %rsp, 8
	retq
.Ltmp259:
.Lfunc_end11:
	.size	_ZNSt6chronomiINS_3_V212system_clockENS_8durationIlSt5ratioILl1ELl1000000000EEEES6_EENSt11common_typeIJT0_T1_EE4typeERKNS_10time_pointIT_S8_EERKNSC_ISD_S9_EE, .Lfunc_end11-_ZNSt6chronomiINS_3_V212system_clockENS_8durationIlSt5ratioILl1ELl1000000000EEEES6_EENSt11common_typeIJT0_T1_EE4typeERKNS_10time_pointIT_S8_EERKNSC_ISD_S9_EE
	.cfi_endproc
                                        # -- End function
	.section	.text._ZNKSt6chrono8durationIlSt5ratioILl1ELl1000EEE5countEv,"axG",@progbits,_ZNKSt6chrono8durationIlSt5ratioILl1ELl1000EEE5countEv,comdat
	.weak	_ZNKSt6chrono8durationIlSt5ratioILl1ELl1000EEE5countEv # -- Begin function _ZNKSt6chrono8durationIlSt5ratioILl1ELl1000EEE5countEv
	.p2align	4, 0x90
	.type	_ZNKSt6chrono8durationIlSt5ratioILl1ELl1000EEE5countEv,@function
_ZNKSt6chrono8durationIlSt5ratioILl1ELl1000EEE5countEv: # @_ZNKSt6chrono8durationIlSt5ratioILl1ELl1000EEE5countEv
.Lfunc_begin12:
	.loc	9 601 0 is_stmt 1               # /usr/lib/gcc/x86_64-linux-gnu/13/../../../../include/c++/13/bits/chrono.h:601:0
	.cfi_startproc
# %bb.0:                                # %entry
	pushq	%rbp
	.cfi_def_cfa_offset 16
	.cfi_offset %rbp, -16
	movq	%rsp, %rbp
	.cfi_def_cfa_register %rbp
	movq	%rdi, -8(%rbp)
	movq	-8(%rbp), %rax
.Ltmp260:
	.loc	9 601 11 prologue_end           # /usr/lib/gcc/x86_64-linux-gnu/13/../../../../include/c++/13/bits/chrono.h:601:11
	movq	(%rax), %rax
	.loc	9 601 4 epilogue_begin is_stmt 0 # /usr/lib/gcc/x86_64-linux-gnu/13/../../../../include/c++/13/bits/chrono.h:601:4
	popq	%rbp
	.cfi_def_cfa %rsp, 8
	retq
.Ltmp261:
.Lfunc_end12:
	.size	_ZNKSt6chrono8durationIlSt5ratioILl1ELl1000EEE5countEv, .Lfunc_end12-_ZNKSt6chrono8durationIlSt5ratioILl1ELl1000EEE5countEv
	.cfi_endproc
                                        # -- End function
	.text
	.p2align	4, 0x90                         # -- Begin function _ZL12almost_equalffi
	.type	_ZL12almost_equalffi,@function
_ZL12almost_equalffi:                   # @_ZL12almost_equalffi
.Lfunc_begin13:
	.loc	1 24 0 is_stmt 1                # ./sfilter.cu:24:0
	.cfi_startproc
# %bb.0:                                # %entry
	pushq	%rbp
	.cfi_def_cfa_offset 16
	.cfi_offset %rbp, -16
	movq	%rsp, %rbp
	.cfi_def_cfa_register %rbp
	movss	%xmm0, -4(%rbp)
	movss	%xmm1, -8(%rbp)
	movl	%edi, -12(%rbp)
.Ltmp262:
	.loc	1 27 10 prologue_end            # ./sfilter.cu:27:10
	movss	-4(%rbp), %xmm0                 # xmm0 = mem[0],zero,zero,zero
	.loc	1 27 8 is_stmt 0                # ./sfilter.cu:27:8
	movss	%xmm0, -16(%rbp)
	.loc	1 28 10 is_stmt 1               # ./sfilter.cu:28:10
	movss	-8(%rbp), %xmm0                 # xmm0 = mem[0],zero,zero,zero
	.loc	1 28 8 is_stmt 0                # ./sfilter.cu:28:8
	movss	%xmm0, -20(%rbp)
	.loc	1 29 22 is_stmt 1               # ./sfilter.cu:29:22
	movl	-16(%rbp), %eax
	.loc	1 29 24 is_stmt 0               # ./sfilter.cu:29:24
	subl	-20(%rbp), %eax
	.loc	1 29 10                         # ./sfilter.cu:29:10
	movl	%eax, %ecx
	negl	%ecx
	cmovnsl	%ecx, %eax
	.loc	1 29 32                         # ./sfilter.cu:29:32
	cmpl	-12(%rbp), %eax
	setle	%al
	.loc	1 29 3                          # ./sfilter.cu:29:3
	andb	$1, %al
	movzbl	%al, %eax
	.loc	1 29 3 epilogue_begin           # ./sfilter.cu:29:3
	popq	%rbp
	.cfi_def_cfa %rsp, 8
	retq
.Ltmp263:
.Lfunc_end13:
	.size	_ZL12almost_equalffi, .Lfunc_end13-_ZL12almost_equalffi
	.cfi_endproc
                                        # -- End function
	.section	.text._ZNSt6vectorIfSaIfEED2Ev,"axG",@progbits,_ZNSt6vectorIfSaIfEED2Ev,comdat
	.weak	_ZNSt6vectorIfSaIfEED2Ev        # -- Begin function _ZNSt6vectorIfSaIfEED2Ev
	.p2align	4, 0x90
	.type	_ZNSt6vectorIfSaIfEED2Ev,@function
_ZNSt6vectorIfSaIfEED2Ev:               # @_ZNSt6vectorIfSaIfEED2Ev
.Lfunc_begin14:
	.loc	2 731 0 is_stmt 1               # /usr/lib/gcc/x86_64-linux-gnu/13/../../../../include/c++/13/bits/stl_vector.h:731:0
	.cfi_startproc
	.cfi_personality 155, DW.ref.__gxx_personality_v0
	.cfi_lsda 27, .Lexception3
# %bb.0:                                # %entry
	pushq	%rbp
	.cfi_def_cfa_offset 16
	.cfi_offset %rbp, -16
	movq	%rsp, %rbp
	.cfi_def_cfa_register %rbp
	subq	$64, %rsp
	movq	%rdi, -32(%rbp)
	movq	-32(%rbp), %rdi
	movq	%rdi, -56(%rbp)                 # 8-byte Spill
.Ltmp267:
	.loc	2 732 30 prologue_end           # /usr/lib/gcc/x86_64-linux-gnu/13/../../../../include/c++/13/bits/stl_vector.h:732:30
	movq	(%rdi), %rax
	movq	%rax, -48(%rbp)                 # 8-byte Spill
	.loc	2 732 54 is_stmt 0              # /usr/lib/gcc/x86_64-linux-gnu/13/../../../../include/c++/13/bits/stl_vector.h:732:54
	movq	8(%rdi), %rax
	movq	%rax, -40(%rbp)                 # 8-byte Spill
	.loc	2 733 9 is_stmt 1               # /usr/lib/gcc/x86_64-linux-gnu/13/../../../../include/c++/13/bits/stl_vector.h:733:9
	callq	_ZNSt12_Vector_baseIfSaIfEE19_M_get_Tp_allocatorEv
	movq	-48(%rbp), %rdx                 # 8-byte Reload
	movq	-40(%rbp), %rcx                 # 8-byte Reload
	movq	%rdx, -8(%rbp)
	movq	%rcx, -16(%rbp)
	movq	%rax, -24(%rbp)
.Ltmp268:
	.loc	14 947 16                       # /usr/lib/gcc/x86_64-linux-gnu/13/../../../../include/c++/13/bits/alloc_traits.h:947:16
	movq	-8(%rbp), %rdi
	.loc	14 947 25 is_stmt 0             # /usr/lib/gcc/x86_64-linux-gnu/13/../../../../include/c++/13/bits/alloc_traits.h:947:25
	movq	-16(%rbp), %rsi
.Ltmp264:
	.loc	14 947 7                        # /usr/lib/gcc/x86_64-linux-gnu/13/../../../../include/c++/13/bits/alloc_traits.h:947:7
	callq	_ZSt8_DestroyIPfEvT_S1_
.Ltmp265:
	jmp	.LBB14_1
.LBB14_1:                               # %_ZSt8_DestroyIPffEvT_S1_RSaIT0_E.exit
	.loc	14 948 5 is_stmt 1              # /usr/lib/gcc/x86_64-linux-gnu/13/../../../../include/c++/13/bits/alloc_traits.h:948:5
	jmp	.LBB14_2
.Ltmp269:
.LBB14_2:                               # %invoke.cont
	.loc	14 0 5 is_stmt 0                # /usr/lib/gcc/x86_64-linux-gnu/13/../../../../include/c++/13/bits/alloc_traits.h:0:5
	movq	-56(%rbp), %rdi                 # 8-byte Reload
	.loc	2 735 7 is_stmt 1               # /usr/lib/gcc/x86_64-linux-gnu/13/../../../../include/c++/13/bits/stl_vector.h:735:7
	callq	_ZNSt12_Vector_baseIfSaIfEED2Ev
.Ltmp270:
	.loc	2 735 7 epilogue_begin is_stmt 0 # /usr/lib/gcc/x86_64-linux-gnu/13/../../../../include/c++/13/bits/stl_vector.h:735:7
	addq	$64, %rsp
	popq	%rbp
	.cfi_def_cfa %rsp, 8
	retq
.LBB14_3:                               # %terminate.lpad
	.cfi_def_cfa %rbp, 16
.Ltmp266:
	.loc	2 0 7                           # /usr/lib/gcc/x86_64-linux-gnu/13/../../../../include/c++/13/bits/stl_vector.h:0:7
	movq	%rax, %rdi
                                        # kill: def $eax killed $edx killed $rdx
.Ltmp271:
	.loc	2 732 2 is_stmt 1               # /usr/lib/gcc/x86_64-linux-gnu/13/../../../../include/c++/13/bits/stl_vector.h:732:2
	callq	__clang_call_terminate
.Ltmp272:
.Lfunc_end14:
	.size	_ZNSt6vectorIfSaIfEED2Ev, .Lfunc_end14-_ZNSt6vectorIfSaIfEED2Ev
	.cfi_endproc
	.section	.gcc_except_table._ZNSt6vectorIfSaIfEED2Ev,"aG",@progbits,_ZNSt6vectorIfSaIfEED2Ev,comdat
	.p2align	2, 0x0
GCC_except_table14:
.Lexception3:
	.byte	255                             # @LPStart Encoding = omit
	.byte	155                             # @TType Encoding = indirect pcrel sdata4
	.uleb128 .Lttbase0-.Lttbaseref0
.Lttbaseref0:
	.byte	1                               # Call site Encoding = uleb128
	.uleb128 .Lcst_end3-.Lcst_begin3
.Lcst_begin3:
	.uleb128 .Ltmp264-.Lfunc_begin14        # >> Call Site 1 <<
	.uleb128 .Ltmp265-.Ltmp264              #   Call between .Ltmp264 and .Ltmp265
	.uleb128 .Ltmp266-.Lfunc_begin14        #     jumps to .Ltmp266
	.byte	1                               #   On action: 1
.Lcst_end3:
	.byte	1                               # >> Action Record 1 <<
                                        #   Catch TypeInfo 1
	.byte	0                               #   No further actions
	.p2align	2, 0x0
                                        # >> Catch TypeInfos <<
	.long	0                               # TypeInfo 1
.Lttbase0:
	.p2align	2, 0x0
                                        # -- End function
	.text
	.p2align	4, 0x90                         # -- Begin function _ZL11parse_b_argPKc
	.type	_ZL11parse_b_argPKc,@function
_ZL11parse_b_argPKc:                    # @_ZL11parse_b_argPKc
.Lfunc_begin15:
	.loc	1 45 0                          # ./sfilter.cu:45:0
	.cfi_startproc
# %bb.0:                                # %entry
	pushq	%rbp
	.cfi_def_cfa_offset 16
	.cfi_offset %rbp, -16
	movq	%rsp, %rbp
	.cfi_def_cfa_register %rbp
	subq	$16, %rsp
	movq	%rdi, -8(%rbp)
.Ltmp273:
	.loc	1 47 7 prologue_end             # ./sfilter.cu:47:7
	movl	$0, -12(%rbp)
	.loc	1 47 14 is_stmt 0               # ./sfilter.cu:47:14
	movl	$0, -16(%rbp)
.Ltmp274:
	.loc	1 48 19 is_stmt 1               # ./sfilter.cu:48:19
	movq	-8(%rbp), %rdi
	.loc	1 48 7 is_stmt 0                # ./sfilter.cu:48:7
	leaq	.L.str.15(%rip), %rsi
	leaq	-12(%rbp), %rdx
	leaq	-16(%rbp), %rcx
	movb	$0, %al
	callq	__isoc99_sscanf@PLT
	.loc	1 48 39                         # ./sfilter.cu:48:39
	cmpl	$2, %eax
	.loc	1 48 44                         # ./sfilter.cu:48:44
	jne	.LBB15_4
# %bb.1:                                # %land.lhs.true
	.loc	1 48 49                         # ./sfilter.cu:48:49
	cmpl	$0, -12(%rbp)
	.loc	1 48 53                         # ./sfilter.cu:48:53
	jle	.LBB15_4
# %bb.2:                                # %land.lhs.true2
	.loc	1 48 58                         # ./sfilter.cu:48:58
	cmpl	$0, -16(%rbp)
.Ltmp275:
	.loc	1 48 7                          # ./sfilter.cu:48:7
	jle	.LBB15_4
# %bb.3:                                # %if.then
.Ltmp276:
	.loc	1 49 15 is_stmt 1               # ./sfilter.cu:49:15
	movl	-12(%rbp), %eax
	.loc	1 49 13 is_stmt 0               # ./sfilter.cu:49:13
	movl	%eax, _ZL7block_x(%rip)
	.loc	1 49 28                         # ./sfilter.cu:49:28
	movl	-16(%rbp), %eax
	.loc	1 49 26                         # ./sfilter.cu:49:26
	movl	%eax, _ZL7block_y(%rip)
	.loc	1 50 3 is_stmt 1                # ./sfilter.cu:50:3
	jmp	.LBB15_5
.Ltmp277:
.LBB15_4:                               # %if.else
	.loc	1 51 13                         # ./sfilter.cu:51:13
	movq	stderr@GOTPCREL(%rip), %rax
	movq	(%rax), %rdi
	.loc	1 51 5 is_stmt 0                # ./sfilter.cu:51:5
	leaq	.L.str.16(%rip), %rsi
	movb	$0, %al
	callq	fprintf@PLT
	.loc	1 52 5 is_stmt 1                # ./sfilter.cu:52:5
	movl	$4294967295, %edi               # imm = 0xFFFFFFFF
	callq	exit@PLT
.Ltmp278:
.LBB15_5:                               # %if.end
	.loc	1 54 1 epilogue_begin           # ./sfilter.cu:54:1
	addq	$16, %rsp
	popq	%rbp
	.cfi_def_cfa %rsp, 8
	retq
.Ltmp279:
.Lfunc_end15:
	.size	_ZL11parse_b_argPKc, .Lfunc_end15-_ZL11parse_b_argPKc
	.cfi_endproc
                                        # -- End function
	.p2align	4, 0x90                         # -- Begin function _ZL10show_usagev
	.type	_ZL10show_usagev,@function
_ZL10show_usagev:                       # @_ZL10show_usagev
.Lfunc_begin16:
	.loc	1 32 0                          # ./sfilter.cu:32:0
	.cfi_startproc
# %bb.0:                                # %entry
	pushq	%rbp
	.cfi_def_cfa_offset 16
	.cfi_offset %rbp, -16
	movq	%rsp, %rbp
	.cfi_def_cfa_register %rbp
.Ltmp280:
	.loc	1 33 3 prologue_end             # ./sfilter.cu:33:3
	leaq	.L.str.17(%rip), %rdi
	movb	$0, %al
	callq	printf@PLT
	.loc	1 34 3                          # ./sfilter.cu:34:3
	leaq	.L.str.18(%rip), %rdi
	movb	$0, %al
	callq	printf@PLT
	.loc	1 35 3                          # ./sfilter.cu:35:3
	leaq	.L.str.19(%rip), %rdi
	movb	$0, %al
	callq	printf@PLT
	.loc	1 36 3                          # ./sfilter.cu:36:3
	leaq	.L.str.20(%rip), %rdi
	movb	$0, %al
	callq	printf@PLT
	.loc	1 37 3                          # ./sfilter.cu:37:3
	leaq	.L.str.21(%rip), %rdi
	movb	$0, %al
	callq	printf@PLT
	.loc	1 38 3                          # ./sfilter.cu:38:3
	leaq	.L.str.22(%rip), %rdi
	movb	$0, %al
	callq	printf@PLT
	.loc	1 39 1 epilogue_begin           # ./sfilter.cu:39:1
	popq	%rbp
	.cfi_def_cfa %rsp, 8
	retq
.Ltmp281:
.Lfunc_end16:
	.size	_ZL10show_usagev, .Lfunc_end16-_ZL10show_usagev
	.cfi_endproc
                                        # -- End function
	.section	.text._ZNSt6chrono20__duration_cast_implINS_8durationIlSt5ratioILl1ELl1000EEEES2_ILl1ELl1000000EElLb1ELb0EE6__castIlS2_ILl1ELl1000000000EEEES4_RKNS1_IT_T0_EE,"axG",@progbits,_ZNSt6chrono20__duration_cast_implINS_8durationIlSt5ratioILl1ELl1000EEEES2_ILl1ELl1000000EElLb1ELb0EE6__castIlS2_ILl1ELl1000000000EEEES4_RKNS1_IT_T0_EE,comdat
	.weak	_ZNSt6chrono20__duration_cast_implINS_8durationIlSt5ratioILl1ELl1000EEEES2_ILl1ELl1000000EElLb1ELb0EE6__castIlS2_ILl1ELl1000000000EEEES4_RKNS1_IT_T0_EE # -- Begin function _ZNSt6chrono20__duration_cast_implINS_8durationIlSt5ratioILl1ELl1000EEEES2_ILl1ELl1000000EElLb1ELb0EE6__castIlS2_ILl1ELl1000000000EEEES4_RKNS1_IT_T0_EE
	.p2align	4, 0x90
	.type	_ZNSt6chrono20__duration_cast_implINS_8durationIlSt5ratioILl1ELl1000EEEES2_ILl1ELl1000000EElLb1ELb0EE6__castIlS2_ILl1ELl1000000000EEEES4_RKNS1_IT_T0_EE,@function
_ZNSt6chrono20__duration_cast_implINS_8durationIlSt5ratioILl1ELl1000EEEES2_ILl1ELl1000000EElLb1ELb0EE6__castIlS2_ILl1ELl1000000000EEEES4_RKNS1_IT_T0_EE: # @_ZNSt6chrono20__duration_cast_implINS_8durationIlSt5ratioILl1ELl1000EEEES2_ILl1ELl1000000EElLb1ELb0EE6__castIlS2_ILl1ELl1000000000EEEES4_RKNS1_IT_T0_EE
.Lfunc_begin17:
	.loc	9 209 0                         # /usr/lib/gcc/x86_64-linux-gnu/13/../../../../include/c++/13/bits/chrono.h:209:0
	.cfi_startproc
# %bb.0:                                # %entry
	pushq	%rbp
	.cfi_def_cfa_offset 16
	.cfi_offset %rbp, -16
	movq	%rsp, %rbp
	.cfi_def_cfa_register %rbp
	subq	$32, %rsp
	movq	%rdi, -16(%rbp)
.Ltmp282:
	.loc	9 212 25 prologue_end           # /usr/lib/gcc/x86_64-linux-gnu/13/../../../../include/c++/13/bits/chrono.h:212:25
	movq	-16(%rbp), %rdi
	.loc	9 212 29 is_stmt 0              # /usr/lib/gcc/x86_64-linux-gnu/13/../../../../include/c++/13/bits/chrono.h:212:29
	callq	_ZNKSt6chrono8durationIlSt5ratioILl1ELl1000000000EEE5countEv
	.loc	9 212 38                        # /usr/lib/gcc/x86_64-linux-gnu/13/../../../../include/c++/13/bits/chrono.h:212:38
	movl	$1000000, %ecx                  # imm = 0xF4240
	cqto
	idivq	%rcx
	.loc	9 211 20 is_stmt 1              # /usr/lib/gcc/x86_64-linux-gnu/13/../../../../include/c++/13/bits/chrono.h:211:20
	movq	%rax, -24(%rbp)
	.loc	9 211 13 is_stmt 0              # /usr/lib/gcc/x86_64-linux-gnu/13/../../../../include/c++/13/bits/chrono.h:211:13
	leaq	-8(%rbp), %rdi
	leaq	-24(%rbp), %rsi
	callq	_ZNSt6chrono8durationIlSt5ratioILl1ELl1000EEEC2IlvEERKT_
	.loc	9 211 6                         # /usr/lib/gcc/x86_64-linux-gnu/13/../../../../include/c++/13/bits/chrono.h:211:6
	movq	-8(%rbp), %rax
	.loc	9 211 6 epilogue_begin          # /usr/lib/gcc/x86_64-linux-gnu/13/../../../../include/c++/13/bits/chrono.h:211:6
	addq	$32, %rsp
	popq	%rbp
	.cfi_def_cfa %rsp, 8
	retq
.Ltmp283:
.Lfunc_end17:
	.size	_ZNSt6chrono20__duration_cast_implINS_8durationIlSt5ratioILl1ELl1000EEEES2_ILl1ELl1000000EElLb1ELb0EE6__castIlS2_ILl1ELl1000000000EEEES4_RKNS1_IT_T0_EE, .Lfunc_end17-_ZNSt6chrono20__duration_cast_implINS_8durationIlSt5ratioILl1ELl1000EEEES2_ILl1ELl1000000EElLb1ELb0EE6__castIlS2_ILl1ELl1000000000EEEES4_RKNS1_IT_T0_EE
	.cfi_endproc
                                        # -- End function
	.section	.text._ZNKSt6chrono8durationIlSt5ratioILl1ELl1000000000EEE5countEv,"axG",@progbits,_ZNKSt6chrono8durationIlSt5ratioILl1ELl1000000000EEE5countEv,comdat
	.weak	_ZNKSt6chrono8durationIlSt5ratioILl1ELl1000000000EEE5countEv # -- Begin function _ZNKSt6chrono8durationIlSt5ratioILl1ELl1000000000EEE5countEv
	.p2align	4, 0x90
	.type	_ZNKSt6chrono8durationIlSt5ratioILl1ELl1000000000EEE5countEv,@function
_ZNKSt6chrono8durationIlSt5ratioILl1ELl1000000000EEE5countEv: # @_ZNKSt6chrono8durationIlSt5ratioILl1ELl1000000000EEE5countEv
.Lfunc_begin18:
	.loc	9 601 0 is_stmt 1               # /usr/lib/gcc/x86_64-linux-gnu/13/../../../../include/c++/13/bits/chrono.h:601:0
	.cfi_startproc
# %bb.0:                                # %entry
	pushq	%rbp
	.cfi_def_cfa_offset 16
	.cfi_offset %rbp, -16
	movq	%rsp, %rbp
	.cfi_def_cfa_register %rbp
	movq	%rdi, -8(%rbp)
	movq	-8(%rbp), %rax
.Ltmp284:
	.loc	9 601 11 prologue_end           # /usr/lib/gcc/x86_64-linux-gnu/13/../../../../include/c++/13/bits/chrono.h:601:11
	movq	(%rax), %rax
	.loc	9 601 4 epilogue_begin is_stmt 0 # /usr/lib/gcc/x86_64-linux-gnu/13/../../../../include/c++/13/bits/chrono.h:601:4
	popq	%rbp
	.cfi_def_cfa %rsp, 8
	retq
.Ltmp285:
.Lfunc_end18:
	.size	_ZNKSt6chrono8durationIlSt5ratioILl1ELl1000000000EEE5countEv, .Lfunc_end18-_ZNKSt6chrono8durationIlSt5ratioILl1ELl1000000000EEE5countEv
	.cfi_endproc
                                        # -- End function
	.section	.text._ZNSt6chrono8durationIlSt5ratioILl1ELl1000EEEC2IlvEERKT_,"axG",@progbits,_ZNSt6chrono8durationIlSt5ratioILl1ELl1000EEEC2IlvEERKT_,comdat
	.weak	_ZNSt6chrono8durationIlSt5ratioILl1ELl1000EEEC2IlvEERKT_ # -- Begin function _ZNSt6chrono8durationIlSt5ratioILl1ELl1000EEEC2IlvEERKT_
	.p2align	4, 0x90
	.type	_ZNSt6chrono8durationIlSt5ratioILl1ELl1000EEEC2IlvEERKT_,@function
_ZNSt6chrono8durationIlSt5ratioILl1ELl1000EEEC2IlvEERKT_: # @_ZNSt6chrono8durationIlSt5ratioILl1ELl1000EEEC2IlvEERKT_
.Lfunc_begin19:
	.loc	9 585 0 is_stmt 1               # /usr/lib/gcc/x86_64-linux-gnu/13/../../../../include/c++/13/bits/chrono.h:585:0
	.cfi_startproc
# %bb.0:                                # %entry
	pushq	%rbp
	.cfi_def_cfa_offset 16
	.cfi_offset %rbp, -16
	movq	%rsp, %rbp
	.cfi_def_cfa_register %rbp
	movq	%rdi, -8(%rbp)
	movq	%rsi, -16(%rbp)
	movq	-8(%rbp), %rax
.Ltmp286:
	.loc	9 585 27 prologue_end           # /usr/lib/gcc/x86_64-linux-gnu/13/../../../../include/c++/13/bits/chrono.h:585:27
	movq	-16(%rbp), %rcx
	movq	(%rcx), %rcx
	.loc	9 585 6 is_stmt 0               # /usr/lib/gcc/x86_64-linux-gnu/13/../../../../include/c++/13/bits/chrono.h:585:6
	movq	%rcx, (%rax)
	.loc	9 585 37 epilogue_begin         # /usr/lib/gcc/x86_64-linux-gnu/13/../../../../include/c++/13/bits/chrono.h:585:37
	popq	%rbp
	.cfi_def_cfa %rsp, 8
	retq
.Ltmp287:
.Lfunc_end19:
	.size	_ZNSt6chrono8durationIlSt5ratioILl1ELl1000EEEC2IlvEERKT_, .Lfunc_end19-_ZNSt6chrono8durationIlSt5ratioILl1ELl1000EEEC2IlvEERKT_
	.cfi_endproc
                                        # -- End function
	.section	.text._ZNSt6chronomiIlSt5ratioILl1ELl1000000000EElS2_EENSt11common_typeIJNS_8durationIT_T0_EENS4_IT1_T2_EEEE4typeERKS7_RKSA_,"axG",@progbits,_ZNSt6chronomiIlSt5ratioILl1ELl1000000000EElS2_EENSt11common_typeIJNS_8durationIT_T0_EENS4_IT1_T2_EEEE4typeERKS7_RKSA_,comdat
	.weak	_ZNSt6chronomiIlSt5ratioILl1ELl1000000000EElS2_EENSt11common_typeIJNS_8durationIT_T0_EENS4_IT1_T2_EEEE4typeERKS7_RKSA_ # -- Begin function _ZNSt6chronomiIlSt5ratioILl1ELl1000000000EElS2_EENSt11common_typeIJNS_8durationIT_T0_EENS4_IT1_T2_EEEE4typeERKS7_RKSA_
	.p2align	4, 0x90
	.type	_ZNSt6chronomiIlSt5ratioILl1ELl1000000000EElS2_EENSt11common_typeIJNS_8durationIT_T0_EENS4_IT1_T2_EEEE4typeERKS7_RKSA_,@function
_ZNSt6chronomiIlSt5ratioILl1ELl1000000000EElS2_EENSt11common_typeIJNS_8durationIT_T0_EENS4_IT1_T2_EEEE4typeERKS7_RKSA_: # @_ZNSt6chronomiIlSt5ratioILl1ELl1000000000EElS2_EENSt11common_typeIJNS_8durationIT_T0_EENS4_IT1_T2_EEEE4typeERKS7_RKSA_
.Lfunc_begin20:
	.loc	9 723 0 is_stmt 1               # /usr/lib/gcc/x86_64-linux-gnu/13/../../../../include/c++/13/bits/chrono.h:723:0
	.cfi_startproc
# %bb.0:                                # %entry
	pushq	%rbp
	.cfi_def_cfa_offset 16
	.cfi_offset %rbp, -16
	movq	%rsp, %rbp
	.cfi_def_cfa_register %rbp
	subq	$64, %rsp
	movq	%rdi, -16(%rbp)
	movq	%rsi, -24(%rbp)
.Ltmp288:
	.loc	9 727 19 prologue_end           # /usr/lib/gcc/x86_64-linux-gnu/13/../../../../include/c++/13/bits/chrono.h:727:19
	movq	-16(%rbp), %rax
	.loc	9 727 14 is_stmt 0              # /usr/lib/gcc/x86_64-linux-gnu/13/../../../../include/c++/13/bits/chrono.h:727:14
	movq	(%rax), %rax
	movq	%rax, -40(%rbp)
	.loc	9 727 26                        # /usr/lib/gcc/x86_64-linux-gnu/13/../../../../include/c++/13/bits/chrono.h:727:26
	leaq	-40(%rbp), %rdi
	callq	_ZNKSt6chrono8durationIlSt5ratioILl1ELl1000000000EEE5countEv
	movq	%rax, -56(%rbp)                 # 8-byte Spill
	.loc	9 727 41                        # /usr/lib/gcc/x86_64-linux-gnu/13/../../../../include/c++/13/bits/chrono.h:727:41
	movq	-24(%rbp), %rax
	.loc	9 727 36                        # /usr/lib/gcc/x86_64-linux-gnu/13/../../../../include/c++/13/bits/chrono.h:727:36
	movq	(%rax), %rax
	movq	%rax, -48(%rbp)
	.loc	9 727 48                        # /usr/lib/gcc/x86_64-linux-gnu/13/../../../../include/c++/13/bits/chrono.h:727:48
	leaq	-48(%rbp), %rdi
	callq	_ZNKSt6chrono8durationIlSt5ratioILl1ELl1000000000EEE5countEv
	movq	%rax, %rcx
	movq	-56(%rbp), %rax                 # 8-byte Reload
	.loc	9 727 34                        # /usr/lib/gcc/x86_64-linux-gnu/13/../../../../include/c++/13/bits/chrono.h:727:34
	subq	%rcx, %rax
	.loc	9 727 14                        # /usr/lib/gcc/x86_64-linux-gnu/13/../../../../include/c++/13/bits/chrono.h:727:14
	movq	%rax, -32(%rbp)
	.loc	9 727 9                         # /usr/lib/gcc/x86_64-linux-gnu/13/../../../../include/c++/13/bits/chrono.h:727:9
	leaq	-8(%rbp), %rdi
	leaq	-32(%rbp), %rsi
	callq	_ZNSt6chrono8durationIlSt5ratioILl1ELl1000000000EEEC2IlvEERKT_
	.loc	9 727 2                         # /usr/lib/gcc/x86_64-linux-gnu/13/../../../../include/c++/13/bits/chrono.h:727:2
	movq	-8(%rbp), %rax
	.loc	9 727 2 epilogue_begin          # /usr/lib/gcc/x86_64-linux-gnu/13/../../../../include/c++/13/bits/chrono.h:727:2
	addq	$64, %rsp
	popq	%rbp
	.cfi_def_cfa %rsp, 8
	retq
.Ltmp289:
.Lfunc_end20:
	.size	_ZNSt6chronomiIlSt5ratioILl1ELl1000000000EElS2_EENSt11common_typeIJNS_8durationIT_T0_EENS4_IT1_T2_EEEE4typeERKS7_RKSA_, .Lfunc_end20-_ZNSt6chronomiIlSt5ratioILl1ELl1000000000EElS2_EENSt11common_typeIJNS_8durationIT_T0_EENS4_IT1_T2_EEEE4typeERKS7_RKSA_
	.cfi_endproc
                                        # -- End function
	.section	.text._ZNKSt6chrono10time_pointINS_3_V212system_clockENS_8durationIlSt5ratioILl1ELl1000000000EEEEE16time_since_epochEv,"axG",@progbits,_ZNKSt6chrono10time_pointINS_3_V212system_clockENS_8durationIlSt5ratioILl1ELl1000000000EEEEE16time_since_epochEv,comdat
	.weak	_ZNKSt6chrono10time_pointINS_3_V212system_clockENS_8durationIlSt5ratioILl1ELl1000000000EEEEE16time_since_epochEv # -- Begin function _ZNKSt6chrono10time_pointINS_3_V212system_clockENS_8durationIlSt5ratioILl1ELl1000000000EEEEE16time_since_epochEv
	.p2align	4, 0x90
	.type	_ZNKSt6chrono10time_pointINS_3_V212system_clockENS_8durationIlSt5ratioILl1ELl1000000000EEEEE16time_since_epochEv,@function
_ZNKSt6chrono10time_pointINS_3_V212system_clockENS_8durationIlSt5ratioILl1ELl1000000000EEEEE16time_since_epochEv: # @_ZNKSt6chrono10time_pointINS_3_V212system_clockENS_8durationIlSt5ratioILl1ELl1000000000EEEEE16time_since_epochEv
.Lfunc_begin21:
	.loc	9 961 0 is_stmt 1               # /usr/lib/gcc/x86_64-linux-gnu/13/../../../../include/c++/13/bits/chrono.h:961:0
	.cfi_startproc
# %bb.0:                                # %entry
	pushq	%rbp
	.cfi_def_cfa_offset 16
	.cfi_offset %rbp, -16
	movq	%rsp, %rbp
	.cfi_def_cfa_register %rbp
	movq	%rdi, -16(%rbp)
	movq	-16(%rbp), %rax
.Ltmp290:
	.loc	9 961 11 prologue_end           # /usr/lib/gcc/x86_64-linux-gnu/13/../../../../include/c++/13/bits/chrono.h:961:11
	movq	(%rax), %rax
	movq	%rax, -8(%rbp)
	.loc	9 961 4 is_stmt 0               # /usr/lib/gcc/x86_64-linux-gnu/13/../../../../include/c++/13/bits/chrono.h:961:4
	movq	-8(%rbp), %rax
	.loc	9 961 4 epilogue_begin          # /usr/lib/gcc/x86_64-linux-gnu/13/../../../../include/c++/13/bits/chrono.h:961:4
	popq	%rbp
	.cfi_def_cfa %rsp, 8
	retq
.Ltmp291:
.Lfunc_end21:
	.size	_ZNKSt6chrono10time_pointINS_3_V212system_clockENS_8durationIlSt5ratioILl1ELl1000000000EEEEE16time_since_epochEv, .Lfunc_end21-_ZNKSt6chrono10time_pointINS_3_V212system_clockENS_8durationIlSt5ratioILl1ELl1000000000EEEEE16time_since_epochEv
	.cfi_endproc
                                        # -- End function
	.section	.text._ZNSt6chrono8durationIlSt5ratioILl1ELl1000000000EEEC2IlvEERKT_,"axG",@progbits,_ZNSt6chrono8durationIlSt5ratioILl1ELl1000000000EEEC2IlvEERKT_,comdat
	.weak	_ZNSt6chrono8durationIlSt5ratioILl1ELl1000000000EEEC2IlvEERKT_ # -- Begin function _ZNSt6chrono8durationIlSt5ratioILl1ELl1000000000EEEC2IlvEERKT_
	.p2align	4, 0x90
	.type	_ZNSt6chrono8durationIlSt5ratioILl1ELl1000000000EEEC2IlvEERKT_,@function
_ZNSt6chrono8durationIlSt5ratioILl1ELl1000000000EEEC2IlvEERKT_: # @_ZNSt6chrono8durationIlSt5ratioILl1ELl1000000000EEEC2IlvEERKT_
.Lfunc_begin22:
	.loc	9 585 0 is_stmt 1               # /usr/lib/gcc/x86_64-linux-gnu/13/../../../../include/c++/13/bits/chrono.h:585:0
	.cfi_startproc
# %bb.0:                                # %entry
	pushq	%rbp
	.cfi_def_cfa_offset 16
	.cfi_offset %rbp, -16
	movq	%rsp, %rbp
	.cfi_def_cfa_register %rbp
	movq	%rdi, -8(%rbp)
	movq	%rsi, -16(%rbp)
	movq	-8(%rbp), %rax
.Ltmp292:
	.loc	9 585 27 prologue_end           # /usr/lib/gcc/x86_64-linux-gnu/13/../../../../include/c++/13/bits/chrono.h:585:27
	movq	-16(%rbp), %rcx
	movq	(%rcx), %rcx
	.loc	9 585 6 is_stmt 0               # /usr/lib/gcc/x86_64-linux-gnu/13/../../../../include/c++/13/bits/chrono.h:585:6
	movq	%rcx, (%rax)
	.loc	9 585 37 epilogue_begin         # /usr/lib/gcc/x86_64-linux-gnu/13/../../../../include/c++/13/bits/chrono.h:585:37
	popq	%rbp
	.cfi_def_cfa %rsp, 8
	retq
.Ltmp293:
.Lfunc_end22:
	.size	_ZNSt6chrono8durationIlSt5ratioILl1ELl1000000000EEEC2IlvEERKT_, .Lfunc_end22-_ZNSt6chrono8durationIlSt5ratioILl1ELl1000000000EEEC2IlvEERKT_
	.cfi_endproc
                                        # -- End function
	.section	.text._ZNSt15__new_allocatorIfED2Ev,"axG",@progbits,_ZNSt15__new_allocatorIfED2Ev,comdat
	.weak	_ZNSt15__new_allocatorIfED2Ev   # -- Begin function _ZNSt15__new_allocatorIfED2Ev
	.p2align	4, 0x90
	.type	_ZNSt15__new_allocatorIfED2Ev,@function
_ZNSt15__new_allocatorIfED2Ev:          # @_ZNSt15__new_allocatorIfED2Ev
.Lfunc_begin23:
	.loc	10 100 0 is_stmt 1              # /usr/lib/gcc/x86_64-linux-gnu/13/../../../../include/c++/13/bits/new_allocator.h:100:0
	.cfi_startproc
# %bb.0:                                # %entry
	pushq	%rbp
	.cfi_def_cfa_offset 16
	.cfi_offset %rbp, -16
	movq	%rsp, %rbp
	.cfi_def_cfa_register %rbp
	movq	%rdi, -8(%rbp)
.Ltmp294:
	.loc	10 100 37 prologue_end epilogue_begin # /usr/lib/gcc/x86_64-linux-gnu/13/../../../../include/c++/13/bits/new_allocator.h:100:37
	popq	%rbp
	.cfi_def_cfa %rsp, 8
	retq
.Ltmp295:
.Lfunc_end23:
	.size	_ZNSt15__new_allocatorIfED2Ev, .Lfunc_end23-_ZNSt15__new_allocatorIfED2Ev
	.cfi_endproc
                                        # -- End function
	.section	.text._ZNSt6vectorIfSaIfEE17_S_check_init_lenEmRKS0_,"axG",@progbits,_ZNSt6vectorIfSaIfEE17_S_check_init_lenEmRKS0_,comdat
	.weak	_ZNSt6vectorIfSaIfEE17_S_check_init_lenEmRKS0_ # -- Begin function _ZNSt6vectorIfSaIfEE17_S_check_init_lenEmRKS0_
	.p2align	4, 0x90
	.type	_ZNSt6vectorIfSaIfEE17_S_check_init_lenEmRKS0_,@function
_ZNSt6vectorIfSaIfEE17_S_check_init_lenEmRKS0_: # @_ZNSt6vectorIfSaIfEE17_S_check_init_lenEmRKS0_
.Lfunc_begin24:
	.loc	2 1905 0                        # /usr/lib/gcc/x86_64-linux-gnu/13/../../../../include/c++/13/bits/stl_vector.h:1905:0
	.cfi_startproc
# %bb.0:                                # %entry
	pushq	%rbp
	.cfi_def_cfa_offset 16
	.cfi_offset %rbp, -16
	movq	%rsp, %rbp
	.cfi_def_cfa_register %rbp
	subq	$80, %rsp
	movq	%rdi, -48(%rbp)
	movq	%rsi, -56(%rbp)
.Ltmp296:
	.loc	2 1906 6 prologue_end           # /usr/lib/gcc/x86_64-linux-gnu/13/../../../../include/c++/13/bits/stl_vector.h:1906:6
	movq	-48(%rbp), %rax
	movq	%rax, -72(%rbp)                 # 8-byte Spill
	.loc	2 1906 39 is_stmt 0             # /usr/lib/gcc/x86_64-linux-gnu/13/../../../../include/c++/13/bits/stl_vector.h:1906:39
	movq	-56(%rbp), %rax
	leaq	-57(%rbp), %rcx
	movq	%rcx, -24(%rbp)
	movq	%rax, -32(%rbp)
	movq	-24(%rbp), %rcx
.Ltmp297:
	.loc	13 168 31 is_stmt 1             # /usr/lib/gcc/x86_64-linux-gnu/13/../../../../include/c++/13/bits/allocator.h:168:31
	movq	-32(%rbp), %rax
	movq	%rcx, -8(%rbp)
	movq	%rax, -16(%rbp)
.Ltmp298:
	.loc	2 1906 12                       # /usr/lib/gcc/x86_64-linux-gnu/13/../../../../include/c++/13/bits/stl_vector.h:1906:12
	leaq	-57(%rbp), %rdi
	callq	_ZNSt6vectorIfSaIfEE11_S_max_sizeERKS0_
	movq	%rax, -80(%rbp)                 # 8-byte Spill
	leaq	-57(%rbp), %rax
	movq	%rax, -40(%rbp)
	movq	-40(%rbp), %rdi
.Ltmp299:
	.loc	13 184 31                       # /usr/lib/gcc/x86_64-linux-gnu/13/../../../../include/c++/13/bits/allocator.h:184:31
	callq	_ZNSt15__new_allocatorIfED2Ev
	movq	-80(%rbp), %rcx                 # 8-byte Reload
	movq	-72(%rbp), %rax                 # 8-byte Reload
.Ltmp300:
	.loc	2 1906 10                       # /usr/lib/gcc/x86_64-linux-gnu/13/../../../../include/c++/13/bits/stl_vector.h:1906:10
	cmpq	%rcx, %rax
.Ltmp301:
	.loc	2 1906 6 is_stmt 0              # /usr/lib/gcc/x86_64-linux-gnu/13/../../../../include/c++/13/bits/stl_vector.h:1906:6
	jbe	.LBB24_2
# %bb.1:                                # %if.then
.Ltmp302:
	.loc	2 1907 4 is_stmt 1              # /usr/lib/gcc/x86_64-linux-gnu/13/../../../../include/c++/13/bits/stl_vector.h:1907:4
	leaq	.L.str.23(%rip), %rdi
	callq	_ZSt20__throw_length_errorPKc@PLT
.Ltmp303:
.LBB24_2:                               # %if.end
	.loc	2 1909 9                        # /usr/lib/gcc/x86_64-linux-gnu/13/../../../../include/c++/13/bits/stl_vector.h:1909:9
	movq	-48(%rbp), %rax
	.loc	2 1909 2 epilogue_begin is_stmt 0 # /usr/lib/gcc/x86_64-linux-gnu/13/../../../../include/c++/13/bits/stl_vector.h:1909:2
	addq	$80, %rsp
	popq	%rbp
	.cfi_def_cfa %rsp, 8
	retq
.Ltmp304:
.Lfunc_end24:
	.size	_ZNSt6vectorIfSaIfEE17_S_check_init_lenEmRKS0_, .Lfunc_end24-_ZNSt6vectorIfSaIfEE17_S_check_init_lenEmRKS0_
	.cfi_endproc
                                        # -- End function
	.section	.text._ZNSt12_Vector_baseIfSaIfEEC2EmRKS0_,"axG",@progbits,_ZNSt12_Vector_baseIfSaIfEEC2EmRKS0_,comdat
	.weak	_ZNSt12_Vector_baseIfSaIfEEC2EmRKS0_ # -- Begin function _ZNSt12_Vector_baseIfSaIfEEC2EmRKS0_
	.p2align	4, 0x90
	.type	_ZNSt12_Vector_baseIfSaIfEEC2EmRKS0_,@function
_ZNSt12_Vector_baseIfSaIfEEC2EmRKS0_:   # @_ZNSt12_Vector_baseIfSaIfEEC2EmRKS0_
.Lfunc_begin25:
	.loc	2 332 0 is_stmt 1               # /usr/lib/gcc/x86_64-linux-gnu/13/../../../../include/c++/13/bits/stl_vector.h:332:0
	.cfi_startproc
	.cfi_personality 155, DW.ref.__gxx_personality_v0
	.cfi_lsda 27, .Lexception4
# %bb.0:                                # %entry
	pushq	%rbp
	.cfi_def_cfa_offset 16
	.cfi_offset %rbp, -16
	movq	%rsp, %rbp
	.cfi_def_cfa_register %rbp
	subq	$48, %rsp
	movq	%rdi, -8(%rbp)
	movq	%rsi, -16(%rbp)
	movq	%rdx, -24(%rbp)
	movq	-8(%rbp), %rdi
	movq	%rdi, -48(%rbp)                 # 8-byte Spill
.Ltmp308:
	.loc	2 331 17 prologue_end           # /usr/lib/gcc/x86_64-linux-gnu/13/../../../../include/c++/13/bits/stl_vector.h:331:17
	movq	-24(%rbp), %rsi
	.loc	2 331 9 is_stmt 0               # /usr/lib/gcc/x86_64-linux-gnu/13/../../../../include/c++/13/bits/stl_vector.h:331:9
	callq	_ZNSt12_Vector_baseIfSaIfEE12_Vector_implC2ERKS0_
	movq	-48(%rbp), %rdi                 # 8-byte Reload
.Ltmp309:
	.loc	2 332 27 is_stmt 1              # /usr/lib/gcc/x86_64-linux-gnu/13/../../../../include/c++/13/bits/stl_vector.h:332:27
	movq	-16(%rbp), %rsi
.Ltmp305:
	.loc	2 332 9 is_stmt 0               # /usr/lib/gcc/x86_64-linux-gnu/13/../../../../include/c++/13/bits/stl_vector.h:332:9
	callq	_ZNSt12_Vector_baseIfSaIfEE17_M_create_storageEm
.Ltmp306:
	jmp	.LBB25_1
.Ltmp310:
.LBB25_1:                               # %invoke.cont
	.loc	2 332 33 epilogue_begin         # /usr/lib/gcc/x86_64-linux-gnu/13/../../../../include/c++/13/bits/stl_vector.h:332:33
	addq	$48, %rsp
	popq	%rbp
	.cfi_def_cfa %rsp, 8
	retq
.LBB25_2:                               # %lpad
	.cfi_def_cfa %rbp, 16
.Ltmp307:
	.loc	2 0 33                          # /usr/lib/gcc/x86_64-linux-gnu/13/../../../../include/c++/13/bits/stl_vector.h:0:33
	movq	-48(%rbp), %rdi                 # 8-byte Reload
	movq	%rax, %rcx
.Ltmp311:
	.loc	2 332 33                        # /usr/lib/gcc/x86_64-linux-gnu/13/../../../../include/c++/13/bits/stl_vector.h:332:33
	movl	%edx, %eax
	movq	%rcx, -32(%rbp)
	movl	%eax, -36(%rbp)
	callq	_ZNSt12_Vector_baseIfSaIfEE12_Vector_implD2Ev
# %bb.3:                                # %eh.resume
	movq	-32(%rbp), %rdi
	callq	_Unwind_Resume@PLT
.Ltmp312:
.Lfunc_end25:
	.size	_ZNSt12_Vector_baseIfSaIfEEC2EmRKS0_, .Lfunc_end25-_ZNSt12_Vector_baseIfSaIfEEC2EmRKS0_
	.cfi_endproc
	.section	.gcc_except_table._ZNSt12_Vector_baseIfSaIfEEC2EmRKS0_,"aG",@progbits,_ZNSt12_Vector_baseIfSaIfEEC2EmRKS0_,comdat
	.p2align	2, 0x0
GCC_except_table25:
.Lexception4:
	.byte	255                             # @LPStart Encoding = omit
	.byte	255                             # @TType Encoding = omit
	.byte	1                               # Call site Encoding = uleb128
	.uleb128 .Lcst_end4-.Lcst_begin4
.Lcst_begin4:
	.uleb128 .Ltmp305-.Lfunc_begin25        # >> Call Site 1 <<
	.uleb128 .Ltmp306-.Ltmp305              #   Call between .Ltmp305 and .Ltmp306
	.uleb128 .Ltmp307-.Lfunc_begin25        #     jumps to .Ltmp307
	.byte	0                               #   On action: cleanup
	.uleb128 .Ltmp306-.Lfunc_begin25        # >> Call Site 2 <<
	.uleb128 .Lfunc_end25-.Ltmp306          #   Call between .Ltmp306 and .Lfunc_end25
	.byte	0                               #     has no landing pad
	.byte	0                               #   On action: cleanup
.Lcst_end4:
	.p2align	2, 0x0
                                        # -- End function
	.section	.text._ZNSt6vectorIfSaIfEE21_M_default_initializeEm,"axG",@progbits,_ZNSt6vectorIfSaIfEE21_M_default_initializeEm,comdat
	.weak	_ZNSt6vectorIfSaIfEE21_M_default_initializeEm # -- Begin function _ZNSt6vectorIfSaIfEE21_M_default_initializeEm
	.p2align	4, 0x90
	.type	_ZNSt6vectorIfSaIfEE21_M_default_initializeEm,@function
_ZNSt6vectorIfSaIfEE21_M_default_initializeEm: # @_ZNSt6vectorIfSaIfEE21_M_default_initializeEm
.Lfunc_begin26:
	.loc	2 1713 0 is_stmt 1              # /usr/lib/gcc/x86_64-linux-gnu/13/../../../../include/c++/13/bits/stl_vector.h:1713:0
	.cfi_startproc
# %bb.0:                                # %entry
	pushq	%rbp
	.cfi_def_cfa_offset 16
	.cfi_offset %rbp, -16
	movq	%rsp, %rbp
	.cfi_def_cfa_register %rbp
	subq	$48, %rsp
	movq	%rdi, -8(%rbp)
	movq	%rsi, -16(%rbp)
	movq	-8(%rbp), %rdi
	movq	%rdi, -24(%rbp)                 # 8-byte Spill
.Ltmp313:
	.loc	2 1715 51 prologue_end          # /usr/lib/gcc/x86_64-linux-gnu/13/../../../../include/c++/13/bits/stl_vector.h:1715:51
	movq	(%rdi), %rax
	movq	%rax, -40(%rbp)                 # 8-byte Spill
	.loc	2 1715 61 is_stmt 0             # /usr/lib/gcc/x86_64-linux-gnu/13/../../../../include/c++/13/bits/stl_vector.h:1715:61
	movq	-16(%rbp), %rax
	movq	%rax, -32(%rbp)                 # 8-byte Spill
	.loc	2 1716 9 is_stmt 1              # /usr/lib/gcc/x86_64-linux-gnu/13/../../../../include/c++/13/bits/stl_vector.h:1716:9
	callq	_ZNSt12_Vector_baseIfSaIfEE19_M_get_Tp_allocatorEv
	movq	-40(%rbp), %rdi                 # 8-byte Reload
	movq	-32(%rbp), %rsi                 # 8-byte Reload
	movq	%rax, %rdx
	.loc	2 1715 4                        # /usr/lib/gcc/x86_64-linux-gnu/13/../../../../include/c++/13/bits/stl_vector.h:1715:4
	callq	_ZSt27__uninitialized_default_n_aIPfmfET_S1_T0_RSaIT1_E
	movq	%rax, %rcx
	movq	-24(%rbp), %rax                 # 8-byte Reload
	.loc	2 1714 26                       # /usr/lib/gcc/x86_64-linux-gnu/13/../../../../include/c++/13/bits/stl_vector.h:1714:26
	movq	%rcx, 8(%rax)
	.loc	2 1717 7 epilogue_begin         # /usr/lib/gcc/x86_64-linux-gnu/13/../../../../include/c++/13/bits/stl_vector.h:1717:7
	addq	$48, %rsp
	popq	%rbp
	.cfi_def_cfa %rsp, 8
	retq
.Ltmp314:
.Lfunc_end26:
	.size	_ZNSt6vectorIfSaIfEE21_M_default_initializeEm, .Lfunc_end26-_ZNSt6vectorIfSaIfEE21_M_default_initializeEm
	.cfi_endproc
                                        # -- End function
	.section	.text._ZNSt12_Vector_baseIfSaIfEED2Ev,"axG",@progbits,_ZNSt12_Vector_baseIfSaIfEED2Ev,comdat
	.weak	_ZNSt12_Vector_baseIfSaIfEED2Ev # -- Begin function _ZNSt12_Vector_baseIfSaIfEED2Ev
	.p2align	4, 0x90
	.type	_ZNSt12_Vector_baseIfSaIfEED2Ev,@function
_ZNSt12_Vector_baseIfSaIfEED2Ev:        # @_ZNSt12_Vector_baseIfSaIfEED2Ev
.Lfunc_begin27:
	.loc	2 365 0                         # /usr/lib/gcc/x86_64-linux-gnu/13/../../../../include/c++/13/bits/stl_vector.h:365:0
	.cfi_startproc
	.cfi_personality 155, DW.ref.__gxx_personality_v0
	.cfi_lsda 27, .Lexception5
# %bb.0:                                # %entry
	pushq	%rbp
	.cfi_def_cfa_offset 16
	.cfi_offset %rbp, -16
	movq	%rsp, %rbp
	.cfi_def_cfa_register %rbp
	subq	$16, %rsp
	movq	%rdi, -8(%rbp)
	movq	-8(%rbp), %rdi
	movq	%rdi, -16(%rbp)                 # 8-byte Spill
.Ltmp318:
	.loc	2 366 24 prologue_end           # /usr/lib/gcc/x86_64-linux-gnu/13/../../../../include/c++/13/bits/stl_vector.h:366:24
	movq	(%rdi), %rsi
	.loc	2 367 17                        # /usr/lib/gcc/x86_64-linux-gnu/13/../../../../include/c++/13/bits/stl_vector.h:367:17
	movq	16(%rdi), %rdx
	.loc	2 367 35 is_stmt 0              # /usr/lib/gcc/x86_64-linux-gnu/13/../../../../include/c++/13/bits/stl_vector.h:367:35
	subq	%rsi, %rdx
	sarq	$2, %rdx
.Ltmp315:
	.loc	2 366 2 is_stmt 1               # /usr/lib/gcc/x86_64-linux-gnu/13/../../../../include/c++/13/bits/stl_vector.h:366:2
	callq	_ZNSt12_Vector_baseIfSaIfEE13_M_deallocateEPfm
.Ltmp316:
	jmp	.LBB27_1
.LBB27_1:                               # %invoke.cont
	.loc	2 0 2 is_stmt 0                 # /usr/lib/gcc/x86_64-linux-gnu/13/../../../../include/c++/13/bits/stl_vector.h:0:2
	movq	-16(%rbp), %rdi                 # 8-byte Reload
	.loc	2 368 7 is_stmt 1               # /usr/lib/gcc/x86_64-linux-gnu/13/../../../../include/c++/13/bits/stl_vector.h:368:7
	callq	_ZNSt12_Vector_baseIfSaIfEE12_Vector_implD2Ev
.Ltmp319:
	.loc	2 368 7 epilogue_begin is_stmt 0 # /usr/lib/gcc/x86_64-linux-gnu/13/../../../../include/c++/13/bits/stl_vector.h:368:7
	addq	$16, %rsp
	popq	%rbp
	.cfi_def_cfa %rsp, 8
	retq
.LBB27_2:                               # %terminate.lpad
	.cfi_def_cfa %rbp, 16
.Ltmp317:
	.loc	2 0 7                           # /usr/lib/gcc/x86_64-linux-gnu/13/../../../../include/c++/13/bits/stl_vector.h:0:7
	movq	%rax, %rdi
                                        # kill: def $eax killed $edx killed $rdx
.Ltmp320:
	.loc	2 366 2 is_stmt 1               # /usr/lib/gcc/x86_64-linux-gnu/13/../../../../include/c++/13/bits/stl_vector.h:366:2
	callq	__clang_call_terminate
.Ltmp321:
.Lfunc_end27:
	.size	_ZNSt12_Vector_baseIfSaIfEED2Ev, .Lfunc_end27-_ZNSt12_Vector_baseIfSaIfEED2Ev
	.cfi_endproc
	.section	.gcc_except_table._ZNSt12_Vector_baseIfSaIfEED2Ev,"aG",@progbits,_ZNSt12_Vector_baseIfSaIfEED2Ev,comdat
	.p2align	2, 0x0
GCC_except_table27:
.Lexception5:
	.byte	255                             # @LPStart Encoding = omit
	.byte	155                             # @TType Encoding = indirect pcrel sdata4
	.uleb128 .Lttbase1-.Lttbaseref1
.Lttbaseref1:
	.byte	1                               # Call site Encoding = uleb128
	.uleb128 .Lcst_end5-.Lcst_begin5
.Lcst_begin5:
	.uleb128 .Ltmp315-.Lfunc_begin27        # >> Call Site 1 <<
	.uleb128 .Ltmp316-.Ltmp315              #   Call between .Ltmp315 and .Ltmp316
	.uleb128 .Ltmp317-.Lfunc_begin27        #     jumps to .Ltmp317
	.byte	1                               #   On action: 1
.Lcst_end5:
	.byte	1                               # >> Action Record 1 <<
                                        #   Catch TypeInfo 1
	.byte	0                               #   No further actions
	.p2align	2, 0x0
                                        # >> Catch TypeInfos <<
	.long	0                               # TypeInfo 1
.Lttbase1:
	.p2align	2, 0x0
                                        # -- End function
	.section	.text._ZNSt6vectorIfSaIfEE11_S_max_sizeERKS0_,"axG",@progbits,_ZNSt6vectorIfSaIfEE11_S_max_sizeERKS0_,comdat
	.weak	_ZNSt6vectorIfSaIfEE11_S_max_sizeERKS0_ # -- Begin function _ZNSt6vectorIfSaIfEE11_S_max_sizeERKS0_
	.p2align	4, 0x90
	.type	_ZNSt6vectorIfSaIfEE11_S_max_sizeERKS0_,@function
_ZNSt6vectorIfSaIfEE11_S_max_sizeERKS0_: # @_ZNSt6vectorIfSaIfEE11_S_max_sizeERKS0_
.Lfunc_begin28:
	.loc	2 1914 0                        # /usr/lib/gcc/x86_64-linux-gnu/13/../../../../include/c++/13/bits/stl_vector.h:1914:0
	.cfi_startproc
	.cfi_personality 155, DW.ref.__gxx_personality_v0
	.cfi_lsda 27, .Lexception6
# %bb.0:                                # %entry
	pushq	%rbp
	.cfi_def_cfa_offset 16
	.cfi_offset %rbp, -16
	movq	%rsp, %rbp
	.cfi_def_cfa_register %rbp
	subq	$64, %rsp
	movq	%rdi, -32(%rbp)
	movabsq	$2305843009213693951, %rax      # imm = 0x1FFFFFFFFFFFFFFF
.Ltmp325:
	.loc	2 1918 15 prologue_end          # /usr/lib/gcc/x86_64-linux-gnu/13/../../../../include/c++/13/bits/stl_vector.h:1918:15
	movq	%rax, -40(%rbp)
	.loc	2 1920 52                       # /usr/lib/gcc/x86_64-linux-gnu/13/../../../../include/c++/13/bits/stl_vector.h:1920:52
	movq	-32(%rbp), %rcx
	movq	%rcx, -24(%rbp)
.Ltmp326:
	.loc	14 573 9                        # /usr/lib/gcc/x86_64-linux-gnu/13/../../../../include/c++/13/bits/alloc_traits.h:573:9
	movq	-24(%rbp), %rcx
	movq	%rcx, -16(%rbp)
	movq	-16(%rbp), %rcx
	movq	%rcx, -8(%rbp)
.Ltmp327:
	.loc	2 1920 15                       # /usr/lib/gcc/x86_64-linux-gnu/13/../../../../include/c++/13/bits/stl_vector.h:1920:15
	movq	%rax, -48(%rbp)
.Ltmp322:
	leaq	-40(%rbp), %rdi
	leaq	-48(%rbp), %rsi
	.loc	2 1921 9                        # /usr/lib/gcc/x86_64-linux-gnu/13/../../../../include/c++/13/bits/stl_vector.h:1921:9
	callq	_ZSt3minImERKT_S2_S2_
.Ltmp323:
	movq	%rax, -56(%rbp)                 # 8-byte Spill
	jmp	.LBB28_1
.LBB28_1:                               # %invoke.cont
	.loc	2 0 9 is_stmt 0                 # /usr/lib/gcc/x86_64-linux-gnu/13/../../../../include/c++/13/bits/stl_vector.h:0:9
	movq	-56(%rbp), %rax                 # 8-byte Reload
	.loc	2 1921 9                        # /usr/lib/gcc/x86_64-linux-gnu/13/../../../../include/c++/13/bits/stl_vector.h:1921:9
	movq	(%rax), %rax
	.loc	2 1921 2 epilogue_begin         # /usr/lib/gcc/x86_64-linux-gnu/13/../../../../include/c++/13/bits/stl_vector.h:1921:2
	addq	$64, %rsp
	popq	%rbp
	.cfi_def_cfa %rsp, 8
	retq
.LBB28_2:                               # %terminate.lpad
	.cfi_def_cfa %rbp, 16
.Ltmp324:
	.loc	2 0 2                           # /usr/lib/gcc/x86_64-linux-gnu/13/../../../../include/c++/13/bits/stl_vector.h:0:2
	movq	%rax, %rdi
                                        # kill: def $eax killed $edx killed $rdx
	.loc	2 1921 9                        # /usr/lib/gcc/x86_64-linux-gnu/13/../../../../include/c++/13/bits/stl_vector.h:1921:9
	callq	__clang_call_terminate
.Ltmp328:
.Lfunc_end28:
	.size	_ZNSt6vectorIfSaIfEE11_S_max_sizeERKS0_, .Lfunc_end28-_ZNSt6vectorIfSaIfEE11_S_max_sizeERKS0_
	.cfi_endproc
	.section	.gcc_except_table._ZNSt6vectorIfSaIfEE11_S_max_sizeERKS0_,"aG",@progbits,_ZNSt6vectorIfSaIfEE11_S_max_sizeERKS0_,comdat
	.p2align	2, 0x0
GCC_except_table28:
.Lexception6:
	.byte	255                             # @LPStart Encoding = omit
	.byte	155                             # @TType Encoding = indirect pcrel sdata4
	.uleb128 .Lttbase2-.Lttbaseref2
.Lttbaseref2:
	.byte	1                               # Call site Encoding = uleb128
	.uleb128 .Lcst_end6-.Lcst_begin6
.Lcst_begin6:
	.uleb128 .Ltmp322-.Lfunc_begin28        # >> Call Site 1 <<
	.uleb128 .Ltmp323-.Ltmp322              #   Call between .Ltmp322 and .Ltmp323
	.uleb128 .Ltmp324-.Lfunc_begin28        #     jumps to .Ltmp324
	.byte	1                               #   On action: 1
.Lcst_end6:
	.byte	1                               # >> Action Record 1 <<
                                        #   Catch TypeInfo 1
	.byte	0                               #   No further actions
	.p2align	2, 0x0
                                        # >> Catch TypeInfos <<
	.long	0                               # TypeInfo 1
.Lttbase2:
	.p2align	2, 0x0
                                        # -- End function
	.section	.text._ZSt3minImERKT_S2_S2_,"axG",@progbits,_ZSt3minImERKT_S2_S2_,comdat
	.weak	_ZSt3minImERKT_S2_S2_           # -- Begin function _ZSt3minImERKT_S2_S2_
	.p2align	4, 0x90
	.type	_ZSt3minImERKT_S2_S2_,@function
_ZSt3minImERKT_S2_S2_:                  # @_ZSt3minImERKT_S2_S2_
.Lfunc_begin29:
	.file	20 "/usr/lib/gcc/x86_64-linux-gnu/13/../../../../include/c++/13/bits" "stl_algobase.h"
	.loc	20 234 0 is_stmt 1              # /usr/lib/gcc/x86_64-linux-gnu/13/../../../../include/c++/13/bits/stl_algobase.h:234:0
	.cfi_startproc
# %bb.0:                                # %entry
	pushq	%rbp
	.cfi_def_cfa_offset 16
	.cfi_offset %rbp, -16
	movq	%rsp, %rbp
	.cfi_def_cfa_register %rbp
	movq	%rdi, -16(%rbp)
	movq	%rsi, -24(%rbp)
.Ltmp329:
	.loc	20 238 11 prologue_end          # /usr/lib/gcc/x86_64-linux-gnu/13/../../../../include/c++/13/bits/stl_algobase.h:238:11
	movq	-24(%rbp), %rax
	movq	(%rax), %rax
	.loc	20 238 17 is_stmt 0             # /usr/lib/gcc/x86_64-linux-gnu/13/../../../../include/c++/13/bits/stl_algobase.h:238:17
	movq	-16(%rbp), %rcx
	.loc	20 238 15                       # /usr/lib/gcc/x86_64-linux-gnu/13/../../../../include/c++/13/bits/stl_algobase.h:238:15
	cmpq	(%rcx), %rax
.Ltmp330:
	.loc	20 238 11                       # /usr/lib/gcc/x86_64-linux-gnu/13/../../../../include/c++/13/bits/stl_algobase.h:238:11
	jae	.LBB29_2
# %bb.1:                                # %if.then
.Ltmp331:
	.loc	20 239 9 is_stmt 1              # /usr/lib/gcc/x86_64-linux-gnu/13/../../../../include/c++/13/bits/stl_algobase.h:239:9
	movq	-24(%rbp), %rax
	.loc	20 239 2 is_stmt 0              # /usr/lib/gcc/x86_64-linux-gnu/13/../../../../include/c++/13/bits/stl_algobase.h:239:2
	movq	%rax, -8(%rbp)
	jmp	.LBB29_3
.Ltmp332:
.LBB29_2:                               # %if.end
	.loc	20 240 14 is_stmt 1             # /usr/lib/gcc/x86_64-linux-gnu/13/../../../../include/c++/13/bits/stl_algobase.h:240:14
	movq	-16(%rbp), %rax
	.loc	20 240 7 is_stmt 0              # /usr/lib/gcc/x86_64-linux-gnu/13/../../../../include/c++/13/bits/stl_algobase.h:240:7
	movq	%rax, -8(%rbp)
.LBB29_3:                               # %return
	.loc	20 241 5 is_stmt 1              # /usr/lib/gcc/x86_64-linux-gnu/13/../../../../include/c++/13/bits/stl_algobase.h:241:5
	movq	-8(%rbp), %rax
	.loc	20 241 5 epilogue_begin is_stmt 0 # /usr/lib/gcc/x86_64-linux-gnu/13/../../../../include/c++/13/bits/stl_algobase.h:241:5
	popq	%rbp
	.cfi_def_cfa %rsp, 8
	retq
.Ltmp333:
.Lfunc_end29:
	.size	_ZSt3minImERKT_S2_S2_, .Lfunc_end29-_ZSt3minImERKT_S2_S2_
	.cfi_endproc
                                        # -- End function
	.section	.text.__clang_call_terminate,"axG",@progbits,__clang_call_terminate,comdat
	.hidden	__clang_call_terminate          # -- Begin function __clang_call_terminate
	.weak	__clang_call_terminate
	.p2align	4, 0x90
	.type	__clang_call_terminate,@function
__clang_call_terminate:                 # @__clang_call_terminate
.Lfunc_begin30:
	.cfi_startproc
# %bb.0:
	pushq	%rbp
	.cfi_def_cfa_offset 16
	.cfi_offset %rbp, -16
	movq	%rsp, %rbp
	.cfi_def_cfa_register %rbp
	callq	__cxa_begin_catch@PLT
	callq	_ZSt9terminatev@PLT
.Lfunc_end30:
	.size	__clang_call_terminate, .Lfunc_end30-__clang_call_terminate
	.cfi_endproc
                                        # -- End function
	.section	.text._ZNSt12_Vector_baseIfSaIfEE12_Vector_implC2ERKS0_,"axG",@progbits,_ZNSt12_Vector_baseIfSaIfEE12_Vector_implC2ERKS0_,comdat
	.weak	_ZNSt12_Vector_baseIfSaIfEE12_Vector_implC2ERKS0_ # -- Begin function _ZNSt12_Vector_baseIfSaIfEE12_Vector_implC2ERKS0_
	.p2align	4, 0x90
	.type	_ZNSt12_Vector_baseIfSaIfEE12_Vector_implC2ERKS0_,@function
_ZNSt12_Vector_baseIfSaIfEE12_Vector_implC2ERKS0_: # @_ZNSt12_Vector_baseIfSaIfEE12_Vector_implC2ERKS0_
.Lfunc_begin31:
	.loc	2 145 0 is_stmt 1               # /usr/lib/gcc/x86_64-linux-gnu/13/../../../../include/c++/13/bits/stl_vector.h:145:0
	.cfi_startproc
# %bb.0:                                # %entry
	pushq	%rbp
	.cfi_def_cfa_offset 16
	.cfi_offset %rbp, -16
	movq	%rsp, %rbp
	.cfi_def_cfa_register %rbp
	subq	$48, %rsp
	movq	%rdi, -40(%rbp)
	movq	%rsi, -48(%rbp)
	movq	-40(%rbp), %rdi
.Ltmp334:
	.loc	2 144 19 prologue_end           # /usr/lib/gcc/x86_64-linux-gnu/13/../../../../include/c++/13/bits/stl_vector.h:144:19
	movq	-48(%rbp), %rax
	movq	%rdi, -24(%rbp)
	movq	%rax, -32(%rbp)
	movq	-24(%rbp), %rcx
.Ltmp335:
	.loc	13 168 31                       # /usr/lib/gcc/x86_64-linux-gnu/13/../../../../include/c++/13/bits/allocator.h:168:31
	movq	-32(%rbp), %rax
	movq	%rcx, -8(%rbp)
	movq	%rax, -16(%rbp)
.Ltmp336:
	.loc	2 143 2                         # /usr/lib/gcc/x86_64-linux-gnu/13/../../../../include/c++/13/bits/stl_vector.h:143:2
	callq	_ZNSt12_Vector_baseIfSaIfEE17_Vector_impl_dataC2Ev
	.loc	2 145 4 epilogue_begin          # /usr/lib/gcc/x86_64-linux-gnu/13/../../../../include/c++/13/bits/stl_vector.h:145:4
	addq	$48, %rsp
	popq	%rbp
	.cfi_def_cfa %rsp, 8
	retq
.Ltmp337:
.Lfunc_end31:
	.size	_ZNSt12_Vector_baseIfSaIfEE12_Vector_implC2ERKS0_, .Lfunc_end31-_ZNSt12_Vector_baseIfSaIfEE12_Vector_implC2ERKS0_
	.cfi_endproc
                                        # -- End function
	.section	.text._ZNSt12_Vector_baseIfSaIfEE17_M_create_storageEm,"axG",@progbits,_ZNSt12_Vector_baseIfSaIfEE17_M_create_storageEm,comdat
	.weak	_ZNSt12_Vector_baseIfSaIfEE17_M_create_storageEm # -- Begin function _ZNSt12_Vector_baseIfSaIfEE17_M_create_storageEm
	.p2align	4, 0x90
	.type	_ZNSt12_Vector_baseIfSaIfEE17_M_create_storageEm,@function
_ZNSt12_Vector_baseIfSaIfEE17_M_create_storageEm: # @_ZNSt12_Vector_baseIfSaIfEE17_M_create_storageEm
.Lfunc_begin32:
	.loc	2 394 0                         # /usr/lib/gcc/x86_64-linux-gnu/13/../../../../include/c++/13/bits/stl_vector.h:394:0
	.cfi_startproc
# %bb.0:                                # %entry
	pushq	%rbp
	.cfi_def_cfa_offset 16
	.cfi_offset %rbp, -16
	movq	%rsp, %rbp
	.cfi_def_cfa_register %rbp
	subq	$32, %rsp
	movq	%rdi, -8(%rbp)
	movq	%rsi, -16(%rbp)
	movq	-8(%rbp), %rdi
	movq	%rdi, -24(%rbp)                 # 8-byte Spill
.Ltmp338:
	.loc	2 395 45 prologue_end           # /usr/lib/gcc/x86_64-linux-gnu/13/../../../../include/c++/13/bits/stl_vector.h:395:45
	movq	-16(%rbp), %rsi
	.loc	2 395 33 is_stmt 0              # /usr/lib/gcc/x86_64-linux-gnu/13/../../../../include/c++/13/bits/stl_vector.h:395:33
	callq	_ZNSt12_Vector_baseIfSaIfEE11_M_allocateEm
	movq	%rax, %rcx
	movq	-24(%rbp), %rax                 # 8-byte Reload
	.loc	2 395 25                        # /usr/lib/gcc/x86_64-linux-gnu/13/../../../../include/c++/13/bits/stl_vector.h:395:25
	movq	%rcx, (%rax)
	.loc	2 396 42 is_stmt 1              # /usr/lib/gcc/x86_64-linux-gnu/13/../../../../include/c++/13/bits/stl_vector.h:396:42
	movq	(%rax), %rcx
	.loc	2 396 26 is_stmt 0              # /usr/lib/gcc/x86_64-linux-gnu/13/../../../../include/c++/13/bits/stl_vector.h:396:26
	movq	%rcx, 8(%rax)
	.loc	2 397 50 is_stmt 1              # /usr/lib/gcc/x86_64-linux-gnu/13/../../../../include/c++/13/bits/stl_vector.h:397:50
	movq	(%rax), %rcx
	.loc	2 397 61 is_stmt 0              # /usr/lib/gcc/x86_64-linux-gnu/13/../../../../include/c++/13/bits/stl_vector.h:397:61
	movq	-16(%rbp), %rdx
	.loc	2 397 59                        # /usr/lib/gcc/x86_64-linux-gnu/13/../../../../include/c++/13/bits/stl_vector.h:397:59
	shlq	$2, %rdx
	addq	%rdx, %rcx
	.loc	2 397 34                        # /usr/lib/gcc/x86_64-linux-gnu/13/../../../../include/c++/13/bits/stl_vector.h:397:34
	movq	%rcx, 16(%rax)
	.loc	2 398 7 epilogue_begin is_stmt 1 # /usr/lib/gcc/x86_64-linux-gnu/13/../../../../include/c++/13/bits/stl_vector.h:398:7
	addq	$32, %rsp
	popq	%rbp
	.cfi_def_cfa %rsp, 8
	retq
.Ltmp339:
.Lfunc_end32:
	.size	_ZNSt12_Vector_baseIfSaIfEE17_M_create_storageEm, .Lfunc_end32-_ZNSt12_Vector_baseIfSaIfEE17_M_create_storageEm
	.cfi_endproc
                                        # -- End function
	.section	.text._ZNSt12_Vector_baseIfSaIfEE12_Vector_implD2Ev,"axG",@progbits,_ZNSt12_Vector_baseIfSaIfEE12_Vector_implD2Ev,comdat
	.weak	_ZNSt12_Vector_baseIfSaIfEE12_Vector_implD2Ev # -- Begin function _ZNSt12_Vector_baseIfSaIfEE12_Vector_implD2Ev
	.p2align	4, 0x90
	.type	_ZNSt12_Vector_baseIfSaIfEE12_Vector_implD2Ev,@function
_ZNSt12_Vector_baseIfSaIfEE12_Vector_implD2Ev: # @_ZNSt12_Vector_baseIfSaIfEE12_Vector_implD2Ev
.Lfunc_begin33:
	.loc	2 133 0                         # /usr/lib/gcc/x86_64-linux-gnu/13/../../../../include/c++/13/bits/stl_vector.h:133:0
	.cfi_startproc
# %bb.0:                                # %entry
	pushq	%rbp
	.cfi_def_cfa_offset 16
	.cfi_offset %rbp, -16
	movq	%rsp, %rbp
	.cfi_def_cfa_register %rbp
	subq	$16, %rsp
	movq	%rdi, -16(%rbp)
	movq	-16(%rbp), %rax
	movq	%rax, -8(%rbp)
	movq	-8(%rbp), %rdi
.Ltmp340:
	.loc	13 184 31 prologue_end          # /usr/lib/gcc/x86_64-linux-gnu/13/../../../../include/c++/13/bits/allocator.h:184:31
	callq	_ZNSt15__new_allocatorIfED2Ev
.Ltmp341:
	.loc	2 133 14 epilogue_begin         # /usr/lib/gcc/x86_64-linux-gnu/13/../../../../include/c++/13/bits/stl_vector.h:133:14
	addq	$16, %rsp
	popq	%rbp
	.cfi_def_cfa %rsp, 8
	retq
.Ltmp342:
.Lfunc_end33:
	.size	_ZNSt12_Vector_baseIfSaIfEE12_Vector_implD2Ev, .Lfunc_end33-_ZNSt12_Vector_baseIfSaIfEE12_Vector_implD2Ev
	.cfi_endproc
                                        # -- End function
	.section	.text._ZNSt12_Vector_baseIfSaIfEE17_Vector_impl_dataC2Ev,"axG",@progbits,_ZNSt12_Vector_baseIfSaIfEE17_Vector_impl_dataC2Ev,comdat
	.weak	_ZNSt12_Vector_baseIfSaIfEE17_Vector_impl_dataC2Ev # -- Begin function _ZNSt12_Vector_baseIfSaIfEE17_Vector_impl_dataC2Ev
	.p2align	4, 0x90
	.type	_ZNSt12_Vector_baseIfSaIfEE17_Vector_impl_dataC2Ev,@function
_ZNSt12_Vector_baseIfSaIfEE17_Vector_impl_dataC2Ev: # @_ZNSt12_Vector_baseIfSaIfEE17_Vector_impl_dataC2Ev
.Lfunc_begin34:
	.loc	2 101 0                         # /usr/lib/gcc/x86_64-linux-gnu/13/../../../../include/c++/13/bits/stl_vector.h:101:0
	.cfi_startproc
# %bb.0:                                # %entry
	pushq	%rbp
	.cfi_def_cfa_offset 16
	.cfi_offset %rbp, -16
	movq	%rsp, %rbp
	.cfi_def_cfa_register %rbp
	movq	%rdi, -8(%rbp)
	movq	-8(%rbp), %rax
.Ltmp343:
	.loc	2 100 4 prologue_end            # /usr/lib/gcc/x86_64-linux-gnu/13/../../../../include/c++/13/bits/stl_vector.h:100:4
	movq	$0, (%rax)
	.loc	2 100 16 is_stmt 0              # /usr/lib/gcc/x86_64-linux-gnu/13/../../../../include/c++/13/bits/stl_vector.h:100:16
	movq	$0, 8(%rax)
	.loc	2 100 29                        # /usr/lib/gcc/x86_64-linux-gnu/13/../../../../include/c++/13/bits/stl_vector.h:100:29
	movq	$0, 16(%rax)
	.loc	2 101 4 epilogue_begin is_stmt 1 # /usr/lib/gcc/x86_64-linux-gnu/13/../../../../include/c++/13/bits/stl_vector.h:101:4
	popq	%rbp
	.cfi_def_cfa %rsp, 8
	retq
.Ltmp344:
.Lfunc_end34:
	.size	_ZNSt12_Vector_baseIfSaIfEE17_Vector_impl_dataC2Ev, .Lfunc_end34-_ZNSt12_Vector_baseIfSaIfEE17_Vector_impl_dataC2Ev
	.cfi_endproc
                                        # -- End function
	.section	.text._ZNSt12_Vector_baseIfSaIfEE11_M_allocateEm,"axG",@progbits,_ZNSt12_Vector_baseIfSaIfEE11_M_allocateEm,comdat
	.weak	_ZNSt12_Vector_baseIfSaIfEE11_M_allocateEm # -- Begin function _ZNSt12_Vector_baseIfSaIfEE11_M_allocateEm
	.p2align	4, 0x90
	.type	_ZNSt12_Vector_baseIfSaIfEE11_M_allocateEm,@function
_ZNSt12_Vector_baseIfSaIfEE11_M_allocateEm: # @_ZNSt12_Vector_baseIfSaIfEE11_M_allocateEm
.Lfunc_begin35:
	.loc	2 376 0                         # /usr/lib/gcc/x86_64-linux-gnu/13/../../../../include/c++/13/bits/stl_vector.h:376:0
	.cfi_startproc
# %bb.0:                                # %entry
	pushq	%rbp
	.cfi_def_cfa_offset 16
	.cfi_offset %rbp, -16
	movq	%rsp, %rbp
	.cfi_def_cfa_register %rbp
	subq	$48, %rsp
	movq	%rdi, -24(%rbp)
	movq	%rsi, -32(%rbp)
	movq	-24(%rbp), %rax
	movq	%rax, -40(%rbp)                 # 8-byte Spill
.Ltmp345:
	.loc	2 378 13 prologue_end           # /usr/lib/gcc/x86_64-linux-gnu/13/../../../../include/c++/13/bits/stl_vector.h:378:13
	cmpq	$0, -32(%rbp)
	.loc	2 378 9 is_stmt 0               # /usr/lib/gcc/x86_64-linux-gnu/13/../../../../include/c++/13/bits/stl_vector.h:378:9
	je	.LBB35_2
# %bb.1:                                # %cond.true
	.loc	2 0 9                           # /usr/lib/gcc/x86_64-linux-gnu/13/../../../../include/c++/13/bits/stl_vector.h:0:9
	movq	-40(%rbp), %rcx                 # 8-byte Reload
	.loc	2 378 43                        # /usr/lib/gcc/x86_64-linux-gnu/13/../../../../include/c++/13/bits/stl_vector.h:378:43
	movq	-32(%rbp), %rax
	movq	%rcx, -8(%rbp)
	movq	%rax, -16(%rbp)
.Ltmp346:
	.loc	14 482 16 is_stmt 1             # /usr/lib/gcc/x86_64-linux-gnu/13/../../../../include/c++/13/bits/alloc_traits.h:482:16
	movq	-8(%rbp), %rdi
	.loc	14 482 29 is_stmt 0             # /usr/lib/gcc/x86_64-linux-gnu/13/../../../../include/c++/13/bits/alloc_traits.h:482:29
	movq	-16(%rbp), %rsi
	.loc	14 482 20                       # /usr/lib/gcc/x86_64-linux-gnu/13/../../../../include/c++/13/bits/alloc_traits.h:482:20
	xorl	%eax, %eax
	movl	%eax, %edx
	callq	_ZNSt15__new_allocatorIfE8allocateEmPKv
	movq	%rax, -48(%rbp)                 # 8-byte Spill
.Ltmp347:
	.loc	2 378 9 is_stmt 1               # /usr/lib/gcc/x86_64-linux-gnu/13/../../../../include/c++/13/bits/stl_vector.h:378:9
	jmp	.LBB35_3
.LBB35_2:                               # %cond.false
	xorl	%eax, %eax
                                        # kill: def $rax killed $eax
	movq	%rax, -48(%rbp)                 # 8-byte Spill
	jmp	.LBB35_3
.LBB35_3:                               # %cond.end
	.loc	2 0 9 is_stmt 0                 # /usr/lib/gcc/x86_64-linux-gnu/13/../../../../include/c++/13/bits/stl_vector.h:0:9
	movq	-48(%rbp), %rax                 # 8-byte Reload
	.loc	2 378 2 epilogue_begin          # /usr/lib/gcc/x86_64-linux-gnu/13/../../../../include/c++/13/bits/stl_vector.h:378:2
	addq	$48, %rsp
	popq	%rbp
	.cfi_def_cfa %rsp, 8
	retq
.Ltmp348:
.Lfunc_end35:
	.size	_ZNSt12_Vector_baseIfSaIfEE11_M_allocateEm, .Lfunc_end35-_ZNSt12_Vector_baseIfSaIfEE11_M_allocateEm
	.cfi_endproc
                                        # -- End function
	.section	.text._ZNSt15__new_allocatorIfE8allocateEmPKv,"axG",@progbits,_ZNSt15__new_allocatorIfE8allocateEmPKv,comdat
	.weak	_ZNSt15__new_allocatorIfE8allocateEmPKv # -- Begin function _ZNSt15__new_allocatorIfE8allocateEmPKv
	.p2align	4, 0x90
	.type	_ZNSt15__new_allocatorIfE8allocateEmPKv,@function
_ZNSt15__new_allocatorIfE8allocateEmPKv: # @_ZNSt15__new_allocatorIfE8allocateEmPKv
.Lfunc_begin36:
	.loc	10 123 0 is_stmt 1              # /usr/lib/gcc/x86_64-linux-gnu/13/../../../../include/c++/13/bits/new_allocator.h:123:0
	.cfi_startproc
# %bb.0:                                # %entry
	pushq	%rbp
	.cfi_def_cfa_offset 16
	.cfi_offset %rbp, -16
	movq	%rsp, %rbp
	.cfi_def_cfa_register %rbp
	subq	$32, %rsp
	movq	%rdi, -16(%rbp)
	movq	%rsi, -24(%rbp)
	movq	%rdx, -32(%rbp)
	movq	-16(%rbp), %rcx
.Ltmp349:
	.loc	10 130 23 prologue_end          # /usr/lib/gcc/x86_64-linux-gnu/13/../../../../include/c++/13/bits/new_allocator.h:130:23
	movq	-24(%rbp), %rax
	movq	%rcx, -8(%rbp)
.Ltmp350:
	.loc	10 130 6 is_stmt 0              # /usr/lib/gcc/x86_64-linux-gnu/13/../../../../include/c++/13/bits/new_allocator.h:130:6
	movabsq	$2305843009213693951, %rcx      # imm = 0x1FFFFFFFFFFFFFFF
.Ltmp351:
	.loc	10 130 27                       # /usr/lib/gcc/x86_64-linux-gnu/13/../../../../include/c++/13/bits/new_allocator.h:130:27
	cmpq	%rcx, %rax
.Ltmp352:
	.loc	10 130 6                        # /usr/lib/gcc/x86_64-linux-gnu/13/../../../../include/c++/13/bits/new_allocator.h:130:6
	jbe	.LBB36_4
# %bb.1:                                # %if.then
.Ltmp353:
	.loc	10 134 10 is_stmt 1             # /usr/lib/gcc/x86_64-linux-gnu/13/../../../../include/c++/13/bits/new_allocator.h:134:10
	movabsq	$4611686018427387903, %rax      # imm = 0x3FFFFFFFFFFFFFFF
.Ltmp354:
	.loc	10 134 14 is_stmt 0             # /usr/lib/gcc/x86_64-linux-gnu/13/../../../../include/c++/13/bits/new_allocator.h:134:14
	cmpq	%rax, -24(%rbp)
.Ltmp355:
	.loc	10 134 10                       # /usr/lib/gcc/x86_64-linux-gnu/13/../../../../include/c++/13/bits/new_allocator.h:134:10
	jbe	.LBB36_3
# %bb.2:                                # %if.then3
.Ltmp356:
	.loc	10 135 8 is_stmt 1              # /usr/lib/gcc/x86_64-linux-gnu/13/../../../../include/c++/13/bits/new_allocator.h:135:8
	callq	_ZSt28__throw_bad_array_new_lengthv@PLT
.Ltmp357:
.LBB36_3:                               # %if.end
	.loc	10 136 6                        # /usr/lib/gcc/x86_64-linux-gnu/13/../../../../include/c++/13/bits/new_allocator.h:136:6
	callq	_ZSt17__throw_bad_allocv@PLT
.Ltmp358:
.LBB36_4:                               # %if.end4
	.loc	10 147 50                       # /usr/lib/gcc/x86_64-linux-gnu/13/../../../../include/c++/13/bits/new_allocator.h:147:50
	movq	-24(%rbp), %rdi
	.loc	10 147 54 is_stmt 0             # /usr/lib/gcc/x86_64-linux-gnu/13/../../../../include/c++/13/bits/new_allocator.h:147:54
	shlq	$2, %rdi
	.loc	10 147 27                       # /usr/lib/gcc/x86_64-linux-gnu/13/../../../../include/c++/13/bits/new_allocator.h:147:27
	callq	_Znwm@PLT
	.loc	10 147 2 epilogue_begin         # /usr/lib/gcc/x86_64-linux-gnu/13/../../../../include/c++/13/bits/new_allocator.h:147:2
	addq	$32, %rsp
	popq	%rbp
	.cfi_def_cfa %rsp, 8
	retq
.Ltmp359:
.Lfunc_end36:
	.size	_ZNSt15__new_allocatorIfE8allocateEmPKv, .Lfunc_end36-_ZNSt15__new_allocatorIfE8allocateEmPKv
	.cfi_endproc
                                        # -- End function
	.section	.text._ZSt27__uninitialized_default_n_aIPfmfET_S1_T0_RSaIT1_E,"axG",@progbits,_ZSt27__uninitialized_default_n_aIPfmfET_S1_T0_RSaIT1_E,comdat
	.weak	_ZSt27__uninitialized_default_n_aIPfmfET_S1_T0_RSaIT1_E # -- Begin function _ZSt27__uninitialized_default_n_aIPfmfET_S1_T0_RSaIT1_E
	.p2align	4, 0x90
	.type	_ZSt27__uninitialized_default_n_aIPfmfET_S1_T0_RSaIT1_E,@function
_ZSt27__uninitialized_default_n_aIPfmfET_S1_T0_RSaIT1_E: # @_ZSt27__uninitialized_default_n_aIPfmfET_S1_T0_RSaIT1_E
.Lfunc_begin37:
	.file	21 "/usr/lib/gcc/x86_64-linux-gnu/13/../../../../include/c++/13/bits" "stl_uninitialized.h"
	.loc	21 773 0 is_stmt 1              # /usr/lib/gcc/x86_64-linux-gnu/13/../../../../include/c++/13/bits/stl_uninitialized.h:773:0
	.cfi_startproc
# %bb.0:                                # %entry
	pushq	%rbp
	.cfi_def_cfa_offset 16
	.cfi_offset %rbp, -16
	movq	%rsp, %rbp
	.cfi_def_cfa_register %rbp
	subq	$32, %rsp
	movq	%rdi, -8(%rbp)
	movq	%rsi, -16(%rbp)
	movq	%rdx, -24(%rbp)
.Ltmp360:
	.loc	21 773 45 prologue_end          # /usr/lib/gcc/x86_64-linux-gnu/13/../../../../include/c++/13/bits/stl_uninitialized.h:773:45
	movq	-8(%rbp), %rdi
	.loc	21 773 54 is_stmt 0             # /usr/lib/gcc/x86_64-linux-gnu/13/../../../../include/c++/13/bits/stl_uninitialized.h:773:54
	movq	-16(%rbp), %rsi
	.loc	21 773 14                       # /usr/lib/gcc/x86_64-linux-gnu/13/../../../../include/c++/13/bits/stl_uninitialized.h:773:14
	callq	_ZSt25__uninitialized_default_nIPfmET_S1_T0_
	.loc	21 773 7 epilogue_begin         # /usr/lib/gcc/x86_64-linux-gnu/13/../../../../include/c++/13/bits/stl_uninitialized.h:773:7
	addq	$32, %rsp
	popq	%rbp
	.cfi_def_cfa %rsp, 8
	retq
.Ltmp361:
.Lfunc_end37:
	.size	_ZSt27__uninitialized_default_n_aIPfmfET_S1_T0_RSaIT1_E, .Lfunc_end37-_ZSt27__uninitialized_default_n_aIPfmfET_S1_T0_RSaIT1_E
	.cfi_endproc
                                        # -- End function
	.section	.text._ZNSt12_Vector_baseIfSaIfEE19_M_get_Tp_allocatorEv,"axG",@progbits,_ZNSt12_Vector_baseIfSaIfEE19_M_get_Tp_allocatorEv,comdat
	.weak	_ZNSt12_Vector_baseIfSaIfEE19_M_get_Tp_allocatorEv # -- Begin function _ZNSt12_Vector_baseIfSaIfEE19_M_get_Tp_allocatorEv
	.p2align	4, 0x90
	.type	_ZNSt12_Vector_baseIfSaIfEE19_M_get_Tp_allocatorEv,@function
_ZNSt12_Vector_baseIfSaIfEE19_M_get_Tp_allocatorEv: # @_ZNSt12_Vector_baseIfSaIfEE19_M_get_Tp_allocatorEv
.Lfunc_begin38:
	.loc	2 299 0 is_stmt 1               # /usr/lib/gcc/x86_64-linux-gnu/13/../../../../include/c++/13/bits/stl_vector.h:299:0
	.cfi_startproc
# %bb.0:                                # %entry
	pushq	%rbp
	.cfi_def_cfa_offset 16
	.cfi_offset %rbp, -16
	movq	%rsp, %rbp
	.cfi_def_cfa_register %rbp
	movq	%rdi, -8(%rbp)
	movq	-8(%rbp), %rax
.Ltmp362:
	.loc	2 299 9 prologue_end epilogue_begin # /usr/lib/gcc/x86_64-linux-gnu/13/../../../../include/c++/13/bits/stl_vector.h:299:9
	popq	%rbp
	.cfi_def_cfa %rsp, 8
	retq
.Ltmp363:
.Lfunc_end38:
	.size	_ZNSt12_Vector_baseIfSaIfEE19_M_get_Tp_allocatorEv, .Lfunc_end38-_ZNSt12_Vector_baseIfSaIfEE19_M_get_Tp_allocatorEv
	.cfi_endproc
                                        # -- End function
	.section	.text._ZSt25__uninitialized_default_nIPfmET_S1_T0_,"axG",@progbits,_ZSt25__uninitialized_default_nIPfmET_S1_T0_,comdat
	.weak	_ZSt25__uninitialized_default_nIPfmET_S1_T0_ # -- Begin function _ZSt25__uninitialized_default_nIPfmET_S1_T0_
	.p2align	4, 0x90
	.type	_ZSt25__uninitialized_default_nIPfmET_S1_T0_,@function
_ZSt25__uninitialized_default_nIPfmET_S1_T0_: # @_ZSt25__uninitialized_default_nIPfmET_S1_T0_
.Lfunc_begin39:
	.loc	21 697 0                        # /usr/lib/gcc/x86_64-linux-gnu/13/../../../../include/c++/13/bits/stl_uninitialized.h:697:0
	.cfi_startproc
# %bb.0:                                # %entry
	pushq	%rbp
	.cfi_def_cfa_offset 16
	.cfi_offset %rbp, -16
	movq	%rsp, %rbp
	.cfi_def_cfa_register %rbp
	subq	$32, %rsp
	movq	%rdi, -8(%rbp)
	movq	%rsi, -16(%rbp)
.Ltmp364:
	.loc	21 701 22 prologue_end          # /usr/lib/gcc/x86_64-linux-gnu/13/../../../../include/c++/13/bits/stl_uninitialized.h:701:22
	movb	$1, -17(%rbp)
	.loc	21 706 21                       # /usr/lib/gcc/x86_64-linux-gnu/13/../../../../include/c++/13/bits/stl_uninitialized.h:706:21
	movq	-8(%rbp), %rdi
	.loc	21 706 30 is_stmt 0             # /usr/lib/gcc/x86_64-linux-gnu/13/../../../../include/c++/13/bits/stl_uninitialized.h:706:30
	movq	-16(%rbp), %rsi
	.loc	21 704 14 is_stmt 1             # /usr/lib/gcc/x86_64-linux-gnu/13/../../../../include/c++/13/bits/stl_uninitialized.h:704:14
	callq	_ZNSt27__uninitialized_default_n_1ILb1EE18__uninit_default_nIPfmEET_S3_T0_
	.loc	21 704 7 epilogue_begin is_stmt 0 # /usr/lib/gcc/x86_64-linux-gnu/13/../../../../include/c++/13/bits/stl_uninitialized.h:704:7
	addq	$32, %rsp
	popq	%rbp
	.cfi_def_cfa %rsp, 8
	retq
.Ltmp365:
.Lfunc_end39:
	.size	_ZSt25__uninitialized_default_nIPfmET_S1_T0_, .Lfunc_end39-_ZSt25__uninitialized_default_nIPfmET_S1_T0_
	.cfi_endproc
                                        # -- End function
	.section	.text._ZNSt27__uninitialized_default_n_1ILb1EE18__uninit_default_nIPfmEET_S3_T0_,"axG",@progbits,_ZNSt27__uninitialized_default_n_1ILb1EE18__uninit_default_nIPfmEET_S3_T0_,comdat
	.weak	_ZNSt27__uninitialized_default_n_1ILb1EE18__uninit_default_nIPfmEET_S3_T0_ # -- Begin function _ZNSt27__uninitialized_default_n_1ILb1EE18__uninit_default_nIPfmEET_S3_T0_
	.p2align	4, 0x90
	.type	_ZNSt27__uninitialized_default_n_1ILb1EE18__uninit_default_nIPfmEET_S3_T0_,@function
_ZNSt27__uninitialized_default_n_1ILb1EE18__uninit_default_nIPfmEET_S3_T0_: # @_ZNSt27__uninitialized_default_n_1ILb1EE18__uninit_default_nIPfmEET_S3_T0_
.Lfunc_begin40:
	.loc	21 661 0 is_stmt 1              # /usr/lib/gcc/x86_64-linux-gnu/13/../../../../include/c++/13/bits/stl_uninitialized.h:661:0
	.cfi_startproc
# %bb.0:                                # %entry
	pushq	%rbp
	.cfi_def_cfa_offset 16
	.cfi_offset %rbp, -16
	movq	%rsp, %rbp
	.cfi_def_cfa_register %rbp
	subq	$32, %rsp
	movq	%rdi, -8(%rbp)
	movq	%rsi, -16(%rbp)
.Ltmp366:
	.loc	21 662 12 prologue_end          # /usr/lib/gcc/x86_64-linux-gnu/13/../../../../include/c++/13/bits/stl_uninitialized.h:662:12
	cmpq	$0, -16(%rbp)
.Ltmp367:
	.loc	21 662 8 is_stmt 0              # /usr/lib/gcc/x86_64-linux-gnu/13/../../../../include/c++/13/bits/stl_uninitialized.h:662:8
	jbe	.LBB40_2
# %bb.1:                                # %if.then
.Ltmp368:
	.loc	21 665 23 is_stmt 1             # /usr/lib/gcc/x86_64-linux-gnu/13/../../../../include/c++/13/bits/stl_uninitialized.h:665:23
	movq	-8(%rbp), %rax
	.loc	21 664 64                       # /usr/lib/gcc/x86_64-linux-gnu/13/../../../../include/c++/13/bits/stl_uninitialized.h:664:64
	movq	%rax, -24(%rbp)
	.loc	21 666 24                       # /usr/lib/gcc/x86_64-linux-gnu/13/../../../../include/c++/13/bits/stl_uninitialized.h:666:24
	movq	-24(%rbp), %rdi
	.loc	21 666 8 is_stmt 0              # /usr/lib/gcc/x86_64-linux-gnu/13/../../../../include/c++/13/bits/stl_uninitialized.h:666:8
	callq	_ZSt10_ConstructIfJEEvPT_DpOT0_
	.loc	21 667 8 is_stmt 1              # /usr/lib/gcc/x86_64-linux-gnu/13/../../../../include/c++/13/bits/stl_uninitialized.h:667:8
	movq	-8(%rbp), %rax
	addq	$4, %rax
	movq	%rax, -8(%rbp)
	.loc	21 668 30                       # /usr/lib/gcc/x86_64-linux-gnu/13/../../../../include/c++/13/bits/stl_uninitialized.h:668:30
	movq	-8(%rbp), %rdi
	.loc	21 668 39 is_stmt 0             # /usr/lib/gcc/x86_64-linux-gnu/13/../../../../include/c++/13/bits/stl_uninitialized.h:668:39
	movq	-16(%rbp), %rsi
	.loc	21 668 43                       # /usr/lib/gcc/x86_64-linux-gnu/13/../../../../include/c++/13/bits/stl_uninitialized.h:668:43
	subq	$1, %rsi
	.loc	21 668 49                       # /usr/lib/gcc/x86_64-linux-gnu/13/../../../../include/c++/13/bits/stl_uninitialized.h:668:49
	movq	-24(%rbp), %rdx
	.loc	21 668 18                       # /usr/lib/gcc/x86_64-linux-gnu/13/../../../../include/c++/13/bits/stl_uninitialized.h:668:18
	callq	_ZSt6fill_nIPfmfET_S1_T0_RKT1_
	.loc	21 668 16                       # /usr/lib/gcc/x86_64-linux-gnu/13/../../../../include/c++/13/bits/stl_uninitialized.h:668:16
	movq	%rax, -8(%rbp)
.Ltmp369:
.LBB40_2:                               # %if.end
	.loc	21 670 11 is_stmt 1             # /usr/lib/gcc/x86_64-linux-gnu/13/../../../../include/c++/13/bits/stl_uninitialized.h:670:11
	movq	-8(%rbp), %rax
	.loc	21 670 4 epilogue_begin is_stmt 0 # /usr/lib/gcc/x86_64-linux-gnu/13/../../../../include/c++/13/bits/stl_uninitialized.h:670:4
	addq	$32, %rsp
	popq	%rbp
	.cfi_def_cfa %rsp, 8
	retq
.Ltmp370:
.Lfunc_end40:
	.size	_ZNSt27__uninitialized_default_n_1ILb1EE18__uninit_default_nIPfmEET_S3_T0_, .Lfunc_end40-_ZNSt27__uninitialized_default_n_1ILb1EE18__uninit_default_nIPfmEET_S3_T0_
	.cfi_endproc
                                        # -- End function
	.section	.text._ZSt10_ConstructIfJEEvPT_DpOT0_,"axG",@progbits,_ZSt10_ConstructIfJEEvPT_DpOT0_,comdat
	.weak	_ZSt10_ConstructIfJEEvPT_DpOT0_ # -- Begin function _ZSt10_ConstructIfJEEvPT_DpOT0_
	.p2align	4, 0x90
	.type	_ZSt10_ConstructIfJEEvPT_DpOT0_,@function
_ZSt10_ConstructIfJEEvPT_DpOT0_:        # @_ZSt10_ConstructIfJEEvPT_DpOT0_
.Lfunc_begin41:
	.file	22 "/usr/lib/gcc/x86_64-linux-gnu/13/../../../../include/c++/13/bits" "stl_construct.h"
	.loc	22 110 0 is_stmt 1              # /usr/lib/gcc/x86_64-linux-gnu/13/../../../../include/c++/13/bits/stl_construct.h:110:0
	.cfi_startproc
# %bb.0:                                # %entry
	pushq	%rbp
	.cfi_def_cfa_offset 16
	.cfi_offset %rbp, -16
	movq	%rsp, %rbp
	.cfi_def_cfa_register %rbp
	movq	%rdi, -8(%rbp)
.Ltmp371:
	.loc	22 119 20 prologue_end          # /usr/lib/gcc/x86_64-linux-gnu/13/../../../../include/c++/13/bits/stl_construct.h:119:20
	movq	-8(%rbp), %rax
	.loc	22 119 7 is_stmt 0              # /usr/lib/gcc/x86_64-linux-gnu/13/../../../../include/c++/13/bits/stl_construct.h:119:7
	xorps	%xmm0, %xmm0
	movss	%xmm0, (%rax)
	.loc	22 120 5 epilogue_begin is_stmt 1 # /usr/lib/gcc/x86_64-linux-gnu/13/../../../../include/c++/13/bits/stl_construct.h:120:5
	popq	%rbp
	.cfi_def_cfa %rsp, 8
	retq
.Ltmp372:
.Lfunc_end41:
	.size	_ZSt10_ConstructIfJEEvPT_DpOT0_, .Lfunc_end41-_ZSt10_ConstructIfJEEvPT_DpOT0_
	.cfi_endproc
                                        # -- End function
	.section	.text._ZSt6fill_nIPfmfET_S1_T0_RKT1_,"axG",@progbits,_ZSt6fill_nIPfmfET_S1_T0_RKT1_,comdat
	.weak	_ZSt6fill_nIPfmfET_S1_T0_RKT1_  # -- Begin function _ZSt6fill_nIPfmfET_S1_T0_RKT1_
	.p2align	4, 0x90
	.type	_ZSt6fill_nIPfmfET_S1_T0_RKT1_,@function
_ZSt6fill_nIPfmfET_S1_T0_RKT1_:         # @_ZSt6fill_nIPfmfET_S1_T0_RKT1_
.Lfunc_begin42:
	.loc	20 1153 0                       # /usr/lib/gcc/x86_64-linux-gnu/13/../../../../include/c++/13/bits/stl_algobase.h:1153:0
	.cfi_startproc
# %bb.0:                                # %entry
	pushq	%rbp
	.cfi_def_cfa_offset 16
	.cfi_offset %rbp, -16
	movq	%rsp, %rbp
	.cfi_def_cfa_register %rbp
	subq	$48, %rsp
	movq	%rdi, -16(%rbp)
	movq	%rsi, -24(%rbp)
	movq	%rdx, -32(%rbp)
.Ltmp373:
	.loc	20 1157 30 prologue_end         # /usr/lib/gcc/x86_64-linux-gnu/13/../../../../include/c++/13/bits/stl_algobase.h:1157:30
	movq	-16(%rbp), %rax
	movq	%rax, -48(%rbp)                 # 8-byte Spill
	.loc	20 1157 62 is_stmt 0            # /usr/lib/gcc/x86_64-linux-gnu/13/../../../../include/c++/13/bits/stl_algobase.h:1157:62
	movq	-24(%rbp), %rdi
	.loc	20 1157 39                      # /usr/lib/gcc/x86_64-linux-gnu/13/../../../../include/c++/13/bits/stl_algobase.h:1157:39
	callq	_ZSt17__size_to_integerm
	movq	-48(%rbp), %rdi                 # 8-byte Reload
	movq	%rax, %rsi
	.loc	20 1157 68                      # /usr/lib/gcc/x86_64-linux-gnu/13/../../../../include/c++/13/bits/stl_algobase.h:1157:68
	movq	-32(%rbp), %rdx
	leaq	-16(%rbp), %rax
	movq	%rax, -8(%rbp)
	.loc	20 1157 14                      # /usr/lib/gcc/x86_64-linux-gnu/13/../../../../include/c++/13/bits/stl_algobase.h:1157:14
	callq	_ZSt10__fill_n_aIPfmfET_S1_T0_RKT1_St26random_access_iterator_tag
	.loc	20 1157 7 epilogue_begin        # /usr/lib/gcc/x86_64-linux-gnu/13/../../../../include/c++/13/bits/stl_algobase.h:1157:7
	addq	$48, %rsp
	popq	%rbp
	.cfi_def_cfa %rsp, 8
	retq
.Ltmp374:
.Lfunc_end42:
	.size	_ZSt6fill_nIPfmfET_S1_T0_RKT1_, .Lfunc_end42-_ZSt6fill_nIPfmfET_S1_T0_RKT1_
	.cfi_endproc
                                        # -- End function
	.section	.text._ZSt10__fill_n_aIPfmfET_S1_T0_RKT1_St26random_access_iterator_tag,"axG",@progbits,_ZSt10__fill_n_aIPfmfET_S1_T0_RKT1_St26random_access_iterator_tag,comdat
	.weak	_ZSt10__fill_n_aIPfmfET_S1_T0_RKT1_St26random_access_iterator_tag # -- Begin function _ZSt10__fill_n_aIPfmfET_S1_T0_RKT1_St26random_access_iterator_tag
	.p2align	4, 0x90
	.type	_ZSt10__fill_n_aIPfmfET_S1_T0_RKT1_St26random_access_iterator_tag,@function
_ZSt10__fill_n_aIPfmfET_S1_T0_RKT1_St26random_access_iterator_tag: # @_ZSt10__fill_n_aIPfmfET_S1_T0_RKT1_St26random_access_iterator_tag
.Lfunc_begin43:
	.loc	20 1119 0 is_stmt 1             # /usr/lib/gcc/x86_64-linux-gnu/13/../../../../include/c++/13/bits/stl_algobase.h:1119:0
	.cfi_startproc
# %bb.0:                                # %entry
	pushq	%rbp
	.cfi_def_cfa_offset 16
	.cfi_offset %rbp, -16
	movq	%rsp, %rbp
	.cfi_def_cfa_register %rbp
	subq	$48, %rsp
	movq	%rdi, -24(%rbp)
	movq	%rsi, -32(%rbp)
	movq	%rdx, -40(%rbp)
.Ltmp375:
	.loc	20 1123 15 prologue_end         # /usr/lib/gcc/x86_64-linux-gnu/13/../../../../include/c++/13/bits/stl_algobase.h:1123:15
	cmpq	$0, -32(%rbp)
.Ltmp376:
	.loc	20 1123 11 is_stmt 0            # /usr/lib/gcc/x86_64-linux-gnu/13/../../../../include/c++/13/bits/stl_algobase.h:1123:11
	ja	.LBB43_2
# %bb.1:                                # %if.then
.Ltmp377:
	.loc	20 1124 9 is_stmt 1             # /usr/lib/gcc/x86_64-linux-gnu/13/../../../../include/c++/13/bits/stl_algobase.h:1124:9
	movq	-24(%rbp), %rax
	.loc	20 1124 2 is_stmt 0             # /usr/lib/gcc/x86_64-linux-gnu/13/../../../../include/c++/13/bits/stl_algobase.h:1124:2
	movq	%rax, -8(%rbp)
	jmp	.LBB43_3
.Ltmp378:
.LBB43_2:                               # %if.end
	.loc	20 1128 21 is_stmt 1            # /usr/lib/gcc/x86_64-linux-gnu/13/../../../../include/c++/13/bits/stl_algobase.h:1128:21
	movq	-24(%rbp), %rdi
	.loc	20 1128 30 is_stmt 0            # /usr/lib/gcc/x86_64-linux-gnu/13/../../../../include/c++/13/bits/stl_algobase.h:1128:30
	movq	-24(%rbp), %rsi
	.loc	20 1128 40                      # /usr/lib/gcc/x86_64-linux-gnu/13/../../../../include/c++/13/bits/stl_algobase.h:1128:40
	movq	-32(%rbp), %rax
	.loc	20 1128 38                      # /usr/lib/gcc/x86_64-linux-gnu/13/../../../../include/c++/13/bits/stl_algobase.h:1128:38
	shlq	$2, %rax
	addq	%rax, %rsi
	.loc	20 1128 45                      # /usr/lib/gcc/x86_64-linux-gnu/13/../../../../include/c++/13/bits/stl_algobase.h:1128:45
	movq	-40(%rbp), %rdx
	.loc	20 1128 7                       # /usr/lib/gcc/x86_64-linux-gnu/13/../../../../include/c++/13/bits/stl_algobase.h:1128:7
	callq	_ZSt8__fill_aIPffEvT_S1_RKT0_
	.loc	20 1129 14 is_stmt 1            # /usr/lib/gcc/x86_64-linux-gnu/13/../../../../include/c++/13/bits/stl_algobase.h:1129:14
	movq	-24(%rbp), %rax
	.loc	20 1129 24 is_stmt 0            # /usr/lib/gcc/x86_64-linux-gnu/13/../../../../include/c++/13/bits/stl_algobase.h:1129:24
	movq	-32(%rbp), %rcx
	.loc	20 1129 22                      # /usr/lib/gcc/x86_64-linux-gnu/13/../../../../include/c++/13/bits/stl_algobase.h:1129:22
	shlq	$2, %rcx
	addq	%rcx, %rax
	.loc	20 1129 7                       # /usr/lib/gcc/x86_64-linux-gnu/13/../../../../include/c++/13/bits/stl_algobase.h:1129:7
	movq	%rax, -8(%rbp)
.LBB43_3:                               # %return
	.loc	20 1130 5 is_stmt 1             # /usr/lib/gcc/x86_64-linux-gnu/13/../../../../include/c++/13/bits/stl_algobase.h:1130:5
	movq	-8(%rbp), %rax
	.loc	20 1130 5 epilogue_begin is_stmt 0 # /usr/lib/gcc/x86_64-linux-gnu/13/../../../../include/c++/13/bits/stl_algobase.h:1130:5
	addq	$48, %rsp
	popq	%rbp
	.cfi_def_cfa %rsp, 8
	retq
.Ltmp379:
.Lfunc_end43:
	.size	_ZSt10__fill_n_aIPfmfET_S1_T0_RKT1_St26random_access_iterator_tag, .Lfunc_end43-_ZSt10__fill_n_aIPfmfET_S1_T0_RKT1_St26random_access_iterator_tag
	.cfi_endproc
                                        # -- End function
	.section	.text._ZSt17__size_to_integerm,"axG",@progbits,_ZSt17__size_to_integerm,comdat
	.weak	_ZSt17__size_to_integerm        # -- Begin function _ZSt17__size_to_integerm
	.p2align	4, 0x90
	.type	_ZSt17__size_to_integerm,@function
_ZSt17__size_to_integerm:               # @_ZSt17__size_to_integerm
.Lfunc_begin44:
	.loc	20 1018 0 is_stmt 1             # /usr/lib/gcc/x86_64-linux-gnu/13/../../../../include/c++/13/bits/stl_algobase.h:1018:0
	.cfi_startproc
# %bb.0:                                # %entry
	pushq	%rbp
	.cfi_def_cfa_offset 16
	.cfi_offset %rbp, -16
	movq	%rsp, %rbp
	.cfi_def_cfa_register %rbp
	movq	%rdi, -8(%rbp)
.Ltmp380:
	.loc	20 1018 49 prologue_end         # /usr/lib/gcc/x86_64-linux-gnu/13/../../../../include/c++/13/bits/stl_algobase.h:1018:49
	movq	-8(%rbp), %rax
	.loc	20 1018 42 epilogue_begin is_stmt 0 # /usr/lib/gcc/x86_64-linux-gnu/13/../../../../include/c++/13/bits/stl_algobase.h:1018:42
	popq	%rbp
	.cfi_def_cfa %rsp, 8
	retq
.Ltmp381:
.Lfunc_end44:
	.size	_ZSt17__size_to_integerm, .Lfunc_end44-_ZSt17__size_to_integerm
	.cfi_endproc
                                        # -- End function
	.section	.text._ZSt8__fill_aIPffEvT_S1_RKT0_,"axG",@progbits,_ZSt8__fill_aIPffEvT_S1_RKT0_,comdat
	.weak	_ZSt8__fill_aIPffEvT_S1_RKT0_   # -- Begin function _ZSt8__fill_aIPffEvT_S1_RKT0_
	.p2align	4, 0x90
	.type	_ZSt8__fill_aIPffEvT_S1_RKT0_,@function
_ZSt8__fill_aIPffEvT_S1_RKT0_:          # @_ZSt8__fill_aIPffEvT_S1_RKT0_
.Lfunc_begin45:
	.loc	20 977 0 is_stmt 1              # /usr/lib/gcc/x86_64-linux-gnu/13/../../../../include/c++/13/bits/stl_algobase.h:977:0
	.cfi_startproc
# %bb.0:                                # %entry
	pushq	%rbp
	.cfi_def_cfa_offset 16
	.cfi_offset %rbp, -16
	movq	%rsp, %rbp
	.cfi_def_cfa_register %rbp
	subq	$32, %rsp
	movq	%rdi, -8(%rbp)
	movq	%rsi, -16(%rbp)
	movq	%rdx, -24(%rbp)
.Ltmp382:
	.loc	20 977 22 prologue_end          # /usr/lib/gcc/x86_64-linux-gnu/13/../../../../include/c++/13/bits/stl_algobase.h:977:22
	movq	-8(%rbp), %rdi
	.loc	20 977 31 is_stmt 0             # /usr/lib/gcc/x86_64-linux-gnu/13/../../../../include/c++/13/bits/stl_algobase.h:977:31
	movq	-16(%rbp), %rsi
	.loc	20 977 39                       # /usr/lib/gcc/x86_64-linux-gnu/13/../../../../include/c++/13/bits/stl_algobase.h:977:39
	movq	-24(%rbp), %rdx
	.loc	20 977 7                        # /usr/lib/gcc/x86_64-linux-gnu/13/../../../../include/c++/13/bits/stl_algobase.h:977:7
	callq	_ZSt9__fill_a1IPffEN9__gnu_cxx11__enable_ifIXsr11__is_scalarIT0_EE7__valueEvE6__typeET_S6_RKS3_
	.loc	20 977 49 epilogue_begin        # /usr/lib/gcc/x86_64-linux-gnu/13/../../../../include/c++/13/bits/stl_algobase.h:977:49
	addq	$32, %rsp
	popq	%rbp
	.cfi_def_cfa %rsp, 8
	retq
.Ltmp383:
.Lfunc_end45:
	.size	_ZSt8__fill_aIPffEvT_S1_RKT0_, .Lfunc_end45-_ZSt8__fill_aIPffEvT_S1_RKT0_
	.cfi_endproc
                                        # -- End function
	.section	.text._ZSt9__fill_a1IPffEN9__gnu_cxx11__enable_ifIXsr11__is_scalarIT0_EE7__valueEvE6__typeET_S6_RKS3_,"axG",@progbits,_ZSt9__fill_a1IPffEN9__gnu_cxx11__enable_ifIXsr11__is_scalarIT0_EE7__valueEvE6__typeET_S6_RKS3_,comdat
	.weak	_ZSt9__fill_a1IPffEN9__gnu_cxx11__enable_ifIXsr11__is_scalarIT0_EE7__valueEvE6__typeET_S6_RKS3_ # -- Begin function _ZSt9__fill_a1IPffEN9__gnu_cxx11__enable_ifIXsr11__is_scalarIT0_EE7__valueEvE6__typeET_S6_RKS3_
	.p2align	4, 0x90
	.type	_ZSt9__fill_a1IPffEN9__gnu_cxx11__enable_ifIXsr11__is_scalarIT0_EE7__valueEvE6__typeET_S6_RKS3_,@function
_ZSt9__fill_a1IPffEN9__gnu_cxx11__enable_ifIXsr11__is_scalarIT0_EE7__valueEvE6__typeET_S6_RKS3_: # @_ZSt9__fill_a1IPffEN9__gnu_cxx11__enable_ifIXsr11__is_scalarIT0_EE7__valueEvE6__typeET_S6_RKS3_
.Lfunc_begin46:
	.loc	20 928 0 is_stmt 1              # /usr/lib/gcc/x86_64-linux-gnu/13/../../../../include/c++/13/bits/stl_algobase.h:928:0
	.cfi_startproc
# %bb.0:                                # %entry
	pushq	%rbp
	.cfi_def_cfa_offset 16
	.cfi_offset %rbp, -16
	movq	%rsp, %rbp
	.cfi_def_cfa_register %rbp
	movq	%rdi, -8(%rbp)
	movq	%rsi, -16(%rbp)
	movq	%rdx, -24(%rbp)
.Ltmp384:
	.loc	20 929 25 prologue_end          # /usr/lib/gcc/x86_64-linux-gnu/13/../../../../include/c++/13/bits/stl_algobase.h:929:25
	movq	-24(%rbp), %rax
	movss	(%rax), %xmm0                   # xmm0 = mem[0],zero,zero,zero
	.loc	20 929 17 is_stmt 0             # /usr/lib/gcc/x86_64-linux-gnu/13/../../../../include/c++/13/bits/stl_algobase.h:929:17
	movss	%xmm0, -28(%rbp)
.LBB46_1:                               # %for.cond
                                        # =>This Inner Loop Header: Depth=1
.Ltmp385:
	.loc	20 930 14 is_stmt 1             # /usr/lib/gcc/x86_64-linux-gnu/13/../../../../include/c++/13/bits/stl_algobase.h:930:14
	movq	-8(%rbp), %rax
	.loc	20 930 22 is_stmt 0             # /usr/lib/gcc/x86_64-linux-gnu/13/../../../../include/c++/13/bits/stl_algobase.h:930:22
	cmpq	-16(%rbp), %rax
.Ltmp386:
	.loc	20 930 7                        # /usr/lib/gcc/x86_64-linux-gnu/13/../../../../include/c++/13/bits/stl_algobase.h:930:7
	je	.LBB46_4
# %bb.2:                                # %for.body
                                        #   in Loop: Header=BB46_1 Depth=1
.Ltmp387:
	.loc	20 931 13 is_stmt 1             # /usr/lib/gcc/x86_64-linux-gnu/13/../../../../include/c++/13/bits/stl_algobase.h:931:13
	movss	-28(%rbp), %xmm0                # xmm0 = mem[0],zero,zero,zero
	.loc	20 931 3 is_stmt 0              # /usr/lib/gcc/x86_64-linux-gnu/13/../../../../include/c++/13/bits/stl_algobase.h:931:3
	movq	-8(%rbp), %rax
	.loc	20 931 11                       # /usr/lib/gcc/x86_64-linux-gnu/13/../../../../include/c++/13/bits/stl_algobase.h:931:11
	movss	%xmm0, (%rax)
# %bb.3:                                # %for.inc
                                        #   in Loop: Header=BB46_1 Depth=1
	.loc	20 930 33 is_stmt 1             # /usr/lib/gcc/x86_64-linux-gnu/13/../../../../include/c++/13/bits/stl_algobase.h:930:33
	movq	-8(%rbp), %rax
	addq	$4, %rax
	movq	%rax, -8(%rbp)
	.loc	20 930 7 is_stmt 0              # /usr/lib/gcc/x86_64-linux-gnu/13/../../../../include/c++/13/bits/stl_algobase.h:930:7
	jmp	.LBB46_1
.Ltmp388:
.LBB46_4:                               # %for.end
	.loc	20 932 5 epilogue_begin is_stmt 1 # /usr/lib/gcc/x86_64-linux-gnu/13/../../../../include/c++/13/bits/stl_algobase.h:932:5
	popq	%rbp
	.cfi_def_cfa %rsp, 8
	retq
.Ltmp389:
.Lfunc_end46:
	.size	_ZSt9__fill_a1IPffEN9__gnu_cxx11__enable_ifIXsr11__is_scalarIT0_EE7__valueEvE6__typeET_S6_RKS3_, .Lfunc_end46-_ZSt9__fill_a1IPffEN9__gnu_cxx11__enable_ifIXsr11__is_scalarIT0_EE7__valueEvE6__typeET_S6_RKS3_
	.cfi_endproc
                                        # -- End function
	.section	.text._ZNSt12_Vector_baseIfSaIfEE13_M_deallocateEPfm,"axG",@progbits,_ZNSt12_Vector_baseIfSaIfEE13_M_deallocateEPfm,comdat
	.weak	_ZNSt12_Vector_baseIfSaIfEE13_M_deallocateEPfm # -- Begin function _ZNSt12_Vector_baseIfSaIfEE13_M_deallocateEPfm
	.p2align	4, 0x90
	.type	_ZNSt12_Vector_baseIfSaIfEE13_M_deallocateEPfm,@function
_ZNSt12_Vector_baseIfSaIfEE13_M_deallocateEPfm: # @_ZNSt12_Vector_baseIfSaIfEE13_M_deallocateEPfm
.Lfunc_begin47:
	.loc	2 384 0                         # /usr/lib/gcc/x86_64-linux-gnu/13/../../../../include/c++/13/bits/stl_vector.h:384:0
	.cfi_startproc
# %bb.0:                                # %entry
	pushq	%rbp
	.cfi_def_cfa_offset 16
	.cfi_offset %rbp, -16
	movq	%rsp, %rbp
	.cfi_def_cfa_register %rbp
	subq	$64, %rsp
	movq	%rdi, -32(%rbp)
	movq	%rsi, -40(%rbp)
	movq	%rdx, -48(%rbp)
	movq	-32(%rbp), %rax
	movq	%rax, -56(%rbp)                 # 8-byte Spill
.Ltmp390:
	.loc	2 386 6 prologue_end            # /usr/lib/gcc/x86_64-linux-gnu/13/../../../../include/c++/13/bits/stl_vector.h:386:6
	cmpq	$0, -40(%rbp)
.Ltmp391:
	.loc	2 386 6 is_stmt 0               # /usr/lib/gcc/x86_64-linux-gnu/13/../../../../include/c++/13/bits/stl_vector.h:386:6
	je	.LBB47_2
# %bb.1:                                # %if.then
	.loc	2 0 6                           # /usr/lib/gcc/x86_64-linux-gnu/13/../../../../include/c++/13/bits/stl_vector.h:0:6
	movq	-56(%rbp), %rdx                 # 8-byte Reload
.Ltmp392:
	.loc	2 387 29 is_stmt 1              # /usr/lib/gcc/x86_64-linux-gnu/13/../../../../include/c++/13/bits/stl_vector.h:387:29
	movq	-40(%rbp), %rcx
	.loc	2 387 34 is_stmt 0              # /usr/lib/gcc/x86_64-linux-gnu/13/../../../../include/c++/13/bits/stl_vector.h:387:34
	movq	-48(%rbp), %rax
	movq	%rdx, -8(%rbp)
	movq	%rcx, -16(%rbp)
	movq	%rax, -24(%rbp)
.Ltmp393:
	.loc	14 516 9 is_stmt 1              # /usr/lib/gcc/x86_64-linux-gnu/13/../../../../include/c++/13/bits/alloc_traits.h:516:9
	movq	-8(%rbp), %rdi
	.loc	14 516 24 is_stmt 0             # /usr/lib/gcc/x86_64-linux-gnu/13/../../../../include/c++/13/bits/alloc_traits.h:516:24
	movq	-16(%rbp), %rsi
	.loc	14 516 29                       # /usr/lib/gcc/x86_64-linux-gnu/13/../../../../include/c++/13/bits/alloc_traits.h:516:29
	movq	-24(%rbp), %rdx
	.loc	14 516 13                       # /usr/lib/gcc/x86_64-linux-gnu/13/../../../../include/c++/13/bits/alloc_traits.h:516:13
	callq	_ZNSt15__new_allocatorIfE10deallocateEPfm
.Ltmp394:
.LBB47_2:                               # %if.end
	.loc	2 388 7 epilogue_begin is_stmt 1 # /usr/lib/gcc/x86_64-linux-gnu/13/../../../../include/c++/13/bits/stl_vector.h:388:7
	addq	$64, %rsp
	popq	%rbp
	.cfi_def_cfa %rsp, 8
	retq
.Ltmp395:
.Lfunc_end47:
	.size	_ZNSt12_Vector_baseIfSaIfEE13_M_deallocateEPfm, .Lfunc_end47-_ZNSt12_Vector_baseIfSaIfEE13_M_deallocateEPfm
	.cfi_endproc
                                        # -- End function
	.section	.text._ZNSt15__new_allocatorIfE10deallocateEPfm,"axG",@progbits,_ZNSt15__new_allocatorIfE10deallocateEPfm,comdat
	.weak	_ZNSt15__new_allocatorIfE10deallocateEPfm # -- Begin function _ZNSt15__new_allocatorIfE10deallocateEPfm
	.p2align	4, 0x90
	.type	_ZNSt15__new_allocatorIfE10deallocateEPfm,@function
_ZNSt15__new_allocatorIfE10deallocateEPfm: # @_ZNSt15__new_allocatorIfE10deallocateEPfm
.Lfunc_begin48:
	.loc	10 153 0                        # /usr/lib/gcc/x86_64-linux-gnu/13/../../../../include/c++/13/bits/new_allocator.h:153:0
	.cfi_startproc
# %bb.0:                                # %entry
	pushq	%rbp
	.cfi_def_cfa_offset 16
	.cfi_offset %rbp, -16
	movq	%rsp, %rbp
	.cfi_def_cfa_register %rbp
	subq	$32, %rsp
	movq	%rdi, -8(%rbp)
	movq	%rsi, -16(%rbp)
	movq	%rdx, -24(%rbp)
.Ltmp396:
	.loc	10 168 29 prologue_end          # /usr/lib/gcc/x86_64-linux-gnu/13/../../../../include/c++/13/bits/new_allocator.h:168:29
	movq	-16(%rbp), %rdi
	.loc	10 168 2 is_stmt 0              # /usr/lib/gcc/x86_64-linux-gnu/13/../../../../include/c++/13/bits/new_allocator.h:168:2
	callq	_ZdlPv@PLT
	.loc	10 169 7 epilogue_begin is_stmt 1 # /usr/lib/gcc/x86_64-linux-gnu/13/../../../../include/c++/13/bits/new_allocator.h:169:7
	addq	$32, %rsp
	popq	%rbp
	.cfi_def_cfa %rsp, 8
	retq
.Ltmp397:
.Lfunc_end48:
	.size	_ZNSt15__new_allocatorIfE10deallocateEPfm, .Lfunc_end48-_ZNSt15__new_allocatorIfE10deallocateEPfm
	.cfi_endproc
                                        # -- End function
	.section	.text._ZSt8_DestroyIPfEvT_S1_,"axG",@progbits,_ZSt8_DestroyIPfEvT_S1_,comdat
	.weak	_ZSt8_DestroyIPfEvT_S1_         # -- Begin function _ZSt8_DestroyIPfEvT_S1_
	.p2align	4, 0x90
	.type	_ZSt8_DestroyIPfEvT_S1_,@function
_ZSt8_DestroyIPfEvT_S1_:                # @_ZSt8_DestroyIPfEvT_S1_
.Lfunc_begin49:
	.loc	22 183 0                        # /usr/lib/gcc/x86_64-linux-gnu/13/../../../../include/c++/13/bits/stl_construct.h:183:0
	.cfi_startproc
# %bb.0:                                # %entry
	pushq	%rbp
	.cfi_def_cfa_offset 16
	.cfi_offset %rbp, -16
	movq	%rsp, %rbp
	.cfi_def_cfa_register %rbp
	subq	$16, %rsp
	movq	%rdi, -8(%rbp)
	movq	%rsi, -16(%rbp)
.Ltmp398:
	.loc	22 196 12 prologue_end          # /usr/lib/gcc/x86_64-linux-gnu/13/../../../../include/c++/13/bits/stl_construct.h:196:12
	movq	-8(%rbp), %rdi
	.loc	22 196 21 is_stmt 0             # /usr/lib/gcc/x86_64-linux-gnu/13/../../../../include/c++/13/bits/stl_construct.h:196:21
	movq	-16(%rbp), %rsi
	.loc	22 195 7 is_stmt 1              # /usr/lib/gcc/x86_64-linux-gnu/13/../../../../include/c++/13/bits/stl_construct.h:195:7
	callq	_ZNSt12_Destroy_auxILb1EE9__destroyIPfEEvT_S3_
	.loc	22 197 5 epilogue_begin         # /usr/lib/gcc/x86_64-linux-gnu/13/../../../../include/c++/13/bits/stl_construct.h:197:5
	addq	$16, %rsp
	popq	%rbp
	.cfi_def_cfa %rsp, 8
	retq
.Ltmp399:
.Lfunc_end49:
	.size	_ZSt8_DestroyIPfEvT_S1_, .Lfunc_end49-_ZSt8_DestroyIPfEvT_S1_
	.cfi_endproc
                                        # -- End function
	.section	.text._ZNSt12_Destroy_auxILb1EE9__destroyIPfEEvT_S3_,"axG",@progbits,_ZNSt12_Destroy_auxILb1EE9__destroyIPfEEvT_S3_,comdat
	.weak	_ZNSt12_Destroy_auxILb1EE9__destroyIPfEEvT_S3_ # -- Begin function _ZNSt12_Destroy_auxILb1EE9__destroyIPfEEvT_S3_
	.p2align	4, 0x90
	.type	_ZNSt12_Destroy_auxILb1EE9__destroyIPfEEvT_S3_,@function
_ZNSt12_Destroy_auxILb1EE9__destroyIPfEEvT_S3_: # @_ZNSt12_Destroy_auxILb1EE9__destroyIPfEEvT_S3_
.Lfunc_begin50:
	.loc	22 172 0                        # /usr/lib/gcc/x86_64-linux-gnu/13/../../../../include/c++/13/bits/stl_construct.h:172:0
	.cfi_startproc
# %bb.0:                                # %entry
	pushq	%rbp
	.cfi_def_cfa_offset 16
	.cfi_offset %rbp, -16
	movq	%rsp, %rbp
	.cfi_def_cfa_register %rbp
	movq	%rdi, -8(%rbp)
	movq	%rsi, -16(%rbp)
.Ltmp400:
	.loc	22 172 57 prologue_end epilogue_begin # /usr/lib/gcc/x86_64-linux-gnu/13/../../../../include/c++/13/bits/stl_construct.h:172:57
	popq	%rbp
	.cfi_def_cfa %rsp, 8
	retq
.Ltmp401:
.Lfunc_end50:
	.size	_ZNSt12_Destroy_auxILb1EE9__destroyIPfEEvT_S3_, .Lfunc_end50-_ZNSt12_Destroy_auxILb1EE9__destroyIPfEEvT_S3_
	.cfi_endproc
                                        # -- End function
	.section	.text._ZNSt6vectorIfSaIfEE18_M_fill_initializeEmRKf,"axG",@progbits,_ZNSt6vectorIfSaIfEE18_M_fill_initializeEmRKf,comdat
	.weak	_ZNSt6vectorIfSaIfEE18_M_fill_initializeEmRKf # -- Begin function _ZNSt6vectorIfSaIfEE18_M_fill_initializeEmRKf
	.p2align	4, 0x90
	.type	_ZNSt6vectorIfSaIfEE18_M_fill_initializeEmRKf,@function
_ZNSt6vectorIfSaIfEE18_M_fill_initializeEmRKf: # @_ZNSt6vectorIfSaIfEE18_M_fill_initializeEmRKf
.Lfunc_begin51:
	.loc	2 1702 0                        # /usr/lib/gcc/x86_64-linux-gnu/13/../../../../include/c++/13/bits/stl_vector.h:1702:0
	.cfi_startproc
# %bb.0:                                # %entry
	pushq	%rbp
	.cfi_def_cfa_offset 16
	.cfi_offset %rbp, -16
	movq	%rsp, %rbp
	.cfi_def_cfa_register %rbp
	subq	$64, %rsp
	movq	%rdi, -8(%rbp)
	movq	%rsi, -16(%rbp)
	movq	%rdx, -24(%rbp)
	movq	-8(%rbp), %rdi
	movq	%rdi, -32(%rbp)                 # 8-byte Spill
.Ltmp402:
	.loc	2 1704 48 prologue_end          # /usr/lib/gcc/x86_64-linux-gnu/13/../../../../include/c++/13/bits/stl_vector.h:1704:48
	movq	(%rdi), %rax
	movq	%rax, -56(%rbp)                 # 8-byte Spill
	.loc	2 1704 58 is_stmt 0             # /usr/lib/gcc/x86_64-linux-gnu/13/../../../../include/c++/13/bits/stl_vector.h:1704:58
	movq	-16(%rbp), %rax
	movq	%rax, -48(%rbp)                 # 8-byte Spill
	.loc	2 1704 63                       # /usr/lib/gcc/x86_64-linux-gnu/13/../../../../include/c++/13/bits/stl_vector.h:1704:63
	movq	-24(%rbp), %rax
	movq	%rax, -40(%rbp)                 # 8-byte Spill
	.loc	2 1705 6 is_stmt 1              # /usr/lib/gcc/x86_64-linux-gnu/13/../../../../include/c++/13/bits/stl_vector.h:1705:6
	callq	_ZNSt12_Vector_baseIfSaIfEE19_M_get_Tp_allocatorEv
	movq	-56(%rbp), %rdi                 # 8-byte Reload
	movq	-48(%rbp), %rsi                 # 8-byte Reload
	movq	-40(%rbp), %rdx                 # 8-byte Reload
	movq	%rax, %rcx
	.loc	2 1704 4                        # /usr/lib/gcc/x86_64-linux-gnu/13/../../../../include/c++/13/bits/stl_vector.h:1704:4
	callq	_ZSt24__uninitialized_fill_n_aIPfmffET_S1_T0_RKT1_RSaIT2_E
	movq	%rax, %rcx
	movq	-32(%rbp), %rax                 # 8-byte Reload
	.loc	2 1703 26                       # /usr/lib/gcc/x86_64-linux-gnu/13/../../../../include/c++/13/bits/stl_vector.h:1703:26
	movq	%rcx, 8(%rax)
	.loc	2 1706 7 epilogue_begin         # /usr/lib/gcc/x86_64-linux-gnu/13/../../../../include/c++/13/bits/stl_vector.h:1706:7
	addq	$64, %rsp
	popq	%rbp
	.cfi_def_cfa %rsp, 8
	retq
.Ltmp403:
.Lfunc_end51:
	.size	_ZNSt6vectorIfSaIfEE18_M_fill_initializeEmRKf, .Lfunc_end51-_ZNSt6vectorIfSaIfEE18_M_fill_initializeEmRKf
	.cfi_endproc
                                        # -- End function
	.section	.text._ZSt24__uninitialized_fill_n_aIPfmffET_S1_T0_RKT1_RSaIT2_E,"axG",@progbits,_ZSt24__uninitialized_fill_n_aIPfmffET_S1_T0_RKT1_RSaIT2_E,comdat
	.weak	_ZSt24__uninitialized_fill_n_aIPfmffET_S1_T0_RKT1_RSaIT2_E # -- Begin function _ZSt24__uninitialized_fill_n_aIPfmffET_S1_T0_RKT1_RSaIT2_E
	.p2align	4, 0x90
	.type	_ZSt24__uninitialized_fill_n_aIPfmffET_S1_T0_RKT1_RSaIT2_E,@function
_ZSt24__uninitialized_fill_n_aIPfmffET_S1_T0_RKT1_RSaIT2_E: # @_ZSt24__uninitialized_fill_n_aIPfmffET_S1_T0_RKT1_RSaIT2_E
.Lfunc_begin52:
	.loc	21 467 0                        # /usr/lib/gcc/x86_64-linux-gnu/13/../../../../include/c++/13/bits/stl_uninitialized.h:467:0
	.cfi_startproc
# %bb.0:                                # %entry
	pushq	%rbp
	.cfi_def_cfa_offset 16
	.cfi_offset %rbp, -16
	movq	%rsp, %rbp
	.cfi_def_cfa_register %rbp
	subq	$32, %rsp
	movq	%rdi, -8(%rbp)
	movq	%rsi, -16(%rbp)
	movq	%rdx, -24(%rbp)
	movq	%rcx, -32(%rbp)
.Ltmp404:
	.loc	21 472 40 prologue_end          # /usr/lib/gcc/x86_64-linux-gnu/13/../../../../include/c++/13/bits/stl_uninitialized.h:472:40
	movq	-8(%rbp), %rdi
	.loc	21 472 49 is_stmt 0             # /usr/lib/gcc/x86_64-linux-gnu/13/../../../../include/c++/13/bits/stl_uninitialized.h:472:49
	movq	-16(%rbp), %rsi
	.loc	21 472 54                       # /usr/lib/gcc/x86_64-linux-gnu/13/../../../../include/c++/13/bits/stl_uninitialized.h:472:54
	movq	-24(%rbp), %rdx
	.loc	21 472 14                       # /usr/lib/gcc/x86_64-linux-gnu/13/../../../../include/c++/13/bits/stl_uninitialized.h:472:14
	callq	_ZSt20uninitialized_fill_nIPfmfET_S1_T0_RKT1_
	.loc	21 472 7 epilogue_begin         # /usr/lib/gcc/x86_64-linux-gnu/13/../../../../include/c++/13/bits/stl_uninitialized.h:472:7
	addq	$32, %rsp
	popq	%rbp
	.cfi_def_cfa %rsp, 8
	retq
.Ltmp405:
.Lfunc_end52:
	.size	_ZSt24__uninitialized_fill_n_aIPfmffET_S1_T0_RKT1_RSaIT2_E, .Lfunc_end52-_ZSt24__uninitialized_fill_n_aIPfmffET_S1_T0_RKT1_RSaIT2_E
	.cfi_endproc
                                        # -- End function
	.section	.text._ZSt20uninitialized_fill_nIPfmfET_S1_T0_RKT1_,"axG",@progbits,_ZSt20uninitialized_fill_nIPfmfET_S1_T0_RKT1_,comdat
	.weak	_ZSt20uninitialized_fill_nIPfmfET_S1_T0_RKT1_ # -- Begin function _ZSt20uninitialized_fill_nIPfmfET_S1_T0_RKT1_
	.p2align	4, 0x90
	.type	_ZSt20uninitialized_fill_nIPfmfET_S1_T0_RKT1_,@function
_ZSt20uninitialized_fill_nIPfmfET_S1_T0_RKT1_: # @_ZSt20uninitialized_fill_nIPfmfET_S1_T0_RKT1_
.Lfunc_begin53:
	.loc	21 313 0 is_stmt 1              # /usr/lib/gcc/x86_64-linux-gnu/13/../../../../include/c++/13/bits/stl_uninitialized.h:313:0
	.cfi_startproc
# %bb.0:                                # %entry
	pushq	%rbp
	.cfi_def_cfa_offset 16
	.cfi_offset %rbp, -16
	movq	%rsp, %rbp
	.cfi_def_cfa_register %rbp
	subq	$32, %rsp
	movq	%rdi, -8(%rbp)
	movq	%rsi, -16(%rbp)
	movq	%rdx, -24(%rbp)
.Ltmp406:
	.loc	21 319 18 prologue_end          # /usr/lib/gcc/x86_64-linux-gnu/13/../../../../include/c++/13/bits/stl_uninitialized.h:319:18
	movb	$1, -25(%rbp)
	.loc	21 327 18                       # /usr/lib/gcc/x86_64-linux-gnu/13/../../../../include/c++/13/bits/stl_uninitialized.h:327:18
	movq	-8(%rbp), %rdi
	.loc	21 327 27 is_stmt 0             # /usr/lib/gcc/x86_64-linux-gnu/13/../../../../include/c++/13/bits/stl_uninitialized.h:327:27
	movq	-16(%rbp), %rsi
	.loc	21 327 32                       # /usr/lib/gcc/x86_64-linux-gnu/13/../../../../include/c++/13/bits/stl_uninitialized.h:327:32
	movq	-24(%rbp), %rdx
	.loc	21 326 14 is_stmt 1             # /usr/lib/gcc/x86_64-linux-gnu/13/../../../../include/c++/13/bits/stl_uninitialized.h:326:14
	callq	_ZNSt22__uninitialized_fill_nILb1EE15__uninit_fill_nIPfmfEET_S3_T0_RKT1_
	.loc	21 326 7 epilogue_begin is_stmt 0 # /usr/lib/gcc/x86_64-linux-gnu/13/../../../../include/c++/13/bits/stl_uninitialized.h:326:7
	addq	$32, %rsp
	popq	%rbp
	.cfi_def_cfa %rsp, 8
	retq
.Ltmp407:
.Lfunc_end53:
	.size	_ZSt20uninitialized_fill_nIPfmfET_S1_T0_RKT1_, .Lfunc_end53-_ZSt20uninitialized_fill_nIPfmfET_S1_T0_RKT1_
	.cfi_endproc
                                        # -- End function
	.section	.text._ZNSt22__uninitialized_fill_nILb1EE15__uninit_fill_nIPfmfEET_S3_T0_RKT1_,"axG",@progbits,_ZNSt22__uninitialized_fill_nILb1EE15__uninit_fill_nIPfmfEET_S3_T0_RKT1_,comdat
	.weak	_ZNSt22__uninitialized_fill_nILb1EE15__uninit_fill_nIPfmfEET_S3_T0_RKT1_ # -- Begin function _ZNSt22__uninitialized_fill_nILb1EE15__uninit_fill_nIPfmfEET_S3_T0_RKT1_
	.p2align	4, 0x90
	.type	_ZNSt22__uninitialized_fill_nILb1EE15__uninit_fill_nIPfmfEET_S3_T0_RKT1_,@function
_ZNSt22__uninitialized_fill_nILb1EE15__uninit_fill_nIPfmfEET_S3_T0_RKT1_: # @_ZNSt22__uninitialized_fill_nILb1EE15__uninit_fill_nIPfmfEET_S3_T0_RKT1_
.Lfunc_begin54:
	.loc	21 294 0 is_stmt 1              # /usr/lib/gcc/x86_64-linux-gnu/13/../../../../include/c++/13/bits/stl_uninitialized.h:294:0
	.cfi_startproc
# %bb.0:                                # %entry
	pushq	%rbp
	.cfi_def_cfa_offset 16
	.cfi_offset %rbp, -16
	movq	%rsp, %rbp
	.cfi_def_cfa_register %rbp
	subq	$32, %rsp
	movq	%rdi, -8(%rbp)
	movq	%rsi, -16(%rbp)
	movq	%rdx, -24(%rbp)
.Ltmp408:
	.loc	21 294 30 prologue_end          # /usr/lib/gcc/x86_64-linux-gnu/13/../../../../include/c++/13/bits/stl_uninitialized.h:294:30
	movq	-8(%rbp), %rdi
	.loc	21 294 39 is_stmt 0             # /usr/lib/gcc/x86_64-linux-gnu/13/../../../../include/c++/13/bits/stl_uninitialized.h:294:39
	movq	-16(%rbp), %rsi
	.loc	21 294 44                       # /usr/lib/gcc/x86_64-linux-gnu/13/../../../../include/c++/13/bits/stl_uninitialized.h:294:44
	movq	-24(%rbp), %rdx
	.loc	21 294 18                       # /usr/lib/gcc/x86_64-linux-gnu/13/../../../../include/c++/13/bits/stl_uninitialized.h:294:18
	callq	_ZSt6fill_nIPfmfET_S1_T0_RKT1_
	.loc	21 294 11 epilogue_begin        # /usr/lib/gcc/x86_64-linux-gnu/13/../../../../include/c++/13/bits/stl_uninitialized.h:294:11
	addq	$32, %rsp
	popq	%rbp
	.cfi_def_cfa %rsp, 8
	retq
.Ltmp409:
.Lfunc_end54:
	.size	_ZNSt22__uninitialized_fill_nILb1EE15__uninit_fill_nIPfmfEET_S3_T0_RKT1_, .Lfunc_end54-_ZNSt22__uninitialized_fill_nILb1EE15__uninit_fill_nIPfmfEET_S3_T0_RKT1_
	.cfi_endproc
                                        # -- End function
	.section	.text._ZNKSt6vectorIfSaIfEE14_M_range_checkEm,"axG",@progbits,_ZNKSt6vectorIfSaIfEE14_M_range_checkEm,comdat
	.weak	_ZNKSt6vectorIfSaIfEE14_M_range_checkEm # -- Begin function _ZNKSt6vectorIfSaIfEE14_M_range_checkEm
	.p2align	4, 0x90
	.type	_ZNKSt6vectorIfSaIfEE14_M_range_checkEm,@function
_ZNKSt6vectorIfSaIfEE14_M_range_checkEm: # @_ZNKSt6vectorIfSaIfEE14_M_range_checkEm
.Lfunc_begin55:
	.loc	2 1153 0 is_stmt 1              # /usr/lib/gcc/x86_64-linux-gnu/13/../../../../include/c++/13/bits/stl_vector.h:1153:0
	.cfi_startproc
# %bb.0:                                # %entry
	pushq	%rbp
	.cfi_def_cfa_offset 16
	.cfi_offset %rbp, -16
	movq	%rsp, %rbp
	.cfi_def_cfa_register %rbp
	subq	$48, %rsp
	movq	%rdi, -8(%rbp)
	movq	%rsi, -16(%rbp)
	movq	-8(%rbp), %rdi
	movq	%rdi, -32(%rbp)                 # 8-byte Spill
.Ltmp410:
	.loc	2 1154 6 prologue_end           # /usr/lib/gcc/x86_64-linux-gnu/13/../../../../include/c++/13/bits/stl_vector.h:1154:6
	movq	-16(%rbp), %rax
	movq	%rax, -24(%rbp)                 # 8-byte Spill
	.loc	2 1154 19 is_stmt 0             # /usr/lib/gcc/x86_64-linux-gnu/13/../../../../include/c++/13/bits/stl_vector.h:1154:19
	callq	_ZNKSt6vectorIfSaIfEE4sizeEv
	movq	%rax, %rcx
	movq	-24(%rbp), %rax                 # 8-byte Reload
	.loc	2 1154 10                       # /usr/lib/gcc/x86_64-linux-gnu/13/../../../../include/c++/13/bits/stl_vector.h:1154:10
	cmpq	%rcx, %rax
.Ltmp411:
	.loc	2 1154 6                        # /usr/lib/gcc/x86_64-linux-gnu/13/../../../../include/c++/13/bits/stl_vector.h:1154:6
	jb	.LBB55_2
# %bb.1:                                # %if.then
	.loc	2 0 6                           # /usr/lib/gcc/x86_64-linux-gnu/13/../../../../include/c++/13/bits/stl_vector.h:0:6
	movq	-32(%rbp), %rdi                 # 8-byte Reload
.Ltmp412:
	.loc	2 1158 8 is_stmt 1              # /usr/lib/gcc/x86_64-linux-gnu/13/../../../../include/c++/13/bits/stl_vector.h:1158:8
	movq	-16(%rbp), %rax
	movq	%rax, -40(%rbp)                 # 8-byte Spill
	.loc	2 1158 19 is_stmt 0             # /usr/lib/gcc/x86_64-linux-gnu/13/../../../../include/c++/13/bits/stl_vector.h:1158:19
	callq	_ZNKSt6vectorIfSaIfEE4sizeEv
	movq	-40(%rbp), %rsi                 # 8-byte Reload
	movq	%rax, %rdx
	.loc	2 1155 4 is_stmt 1              # /usr/lib/gcc/x86_64-linux-gnu/13/../../../../include/c++/13/bits/stl_vector.h:1155:4
	leaq	.L.str.24(%rip), %rdi
	movb	$0, %al
	callq	_ZSt24__throw_out_of_range_fmtPKcz@PLT
.Ltmp413:
.LBB55_2:                               # %if.end
	.loc	2 1159 7 epilogue_begin         # /usr/lib/gcc/x86_64-linux-gnu/13/../../../../include/c++/13/bits/stl_vector.h:1159:7
	addq	$48, %rsp
	popq	%rbp
	.cfi_def_cfa %rsp, 8
	retq
.Ltmp414:
.Lfunc_end55:
	.size	_ZNKSt6vectorIfSaIfEE14_M_range_checkEm, .Lfunc_end55-_ZNKSt6vectorIfSaIfEE14_M_range_checkEm
	.cfi_endproc
                                        # -- End function
	.section	.text._ZNKSt6vectorIfSaIfEE4sizeEv,"axG",@progbits,_ZNKSt6vectorIfSaIfEE4sizeEv,comdat
	.weak	_ZNKSt6vectorIfSaIfEE4sizeEv    # -- Begin function _ZNKSt6vectorIfSaIfEE4sizeEv
	.p2align	4, 0x90
	.type	_ZNKSt6vectorIfSaIfEE4sizeEv,@function
_ZNKSt6vectorIfSaIfEE4sizeEv:           # @_ZNKSt6vectorIfSaIfEE4sizeEv
.Lfunc_begin56:
	.loc	2 990 0                         # /usr/lib/gcc/x86_64-linux-gnu/13/../../../../include/c++/13/bits/stl_vector.h:990:0
	.cfi_startproc
# %bb.0:                                # %entry
	pushq	%rbp
	.cfi_def_cfa_offset 16
	.cfi_offset %rbp, -16
	movq	%rsp, %rbp
	.cfi_def_cfa_register %rbp
	movq	%rdi, -8(%rbp)
	movq	-8(%rbp), %rcx
.Ltmp415:
	.loc	2 990 40 prologue_end           # /usr/lib/gcc/x86_64-linux-gnu/13/../../../../include/c++/13/bits/stl_vector.h:990:40
	movq	8(%rcx), %rax
	.loc	2 990 66 is_stmt 0              # /usr/lib/gcc/x86_64-linux-gnu/13/../../../../include/c++/13/bits/stl_vector.h:990:66
	movq	(%rcx), %rcx
	.loc	2 990 50                        # /usr/lib/gcc/x86_64-linux-gnu/13/../../../../include/c++/13/bits/stl_vector.h:990:50
	subq	%rcx, %rax
	sarq	$2, %rax
	.loc	2 990 9 epilogue_begin          # /usr/lib/gcc/x86_64-linux-gnu/13/../../../../include/c++/13/bits/stl_vector.h:990:9
	popq	%rbp
	.cfi_def_cfa %rsp, 8
	retq
.Ltmp416:
.Lfunc_end56:
	.size	_ZNKSt6vectorIfSaIfEE4sizeEv, .Lfunc_end56-_ZNKSt6vectorIfSaIfEE4sizeEv
	.cfi_endproc
                                        # -- End function
	.section	.text._ZNKSt6vectorIfSaIfEE11_M_data_ptrIfEEPT_S4_,"axG",@progbits,_ZNKSt6vectorIfSaIfEE11_M_data_ptrIfEEPT_S4_,comdat
	.weak	_ZNKSt6vectorIfSaIfEE11_M_data_ptrIfEEPT_S4_ # -- Begin function _ZNKSt6vectorIfSaIfEE11_M_data_ptrIfEEPT_S4_
	.p2align	4, 0x90
	.type	_ZNKSt6vectorIfSaIfEE11_M_data_ptrIfEEPT_S4_,@function
_ZNKSt6vectorIfSaIfEE11_M_data_ptrIfEEPT_S4_: # @_ZNKSt6vectorIfSaIfEE11_M_data_ptrIfEEPT_S4_
.Lfunc_begin57:
	.loc	2 1988 0 is_stmt 1              # /usr/lib/gcc/x86_64-linux-gnu/13/../../../../include/c++/13/bits/stl_vector.h:1988:0
	.cfi_startproc
# %bb.0:                                # %entry
	pushq	%rbp
	.cfi_def_cfa_offset 16
	.cfi_offset %rbp, -16
	movq	%rsp, %rbp
	.cfi_def_cfa_register %rbp
	movq	%rdi, -8(%rbp)
	movq	%rsi, -16(%rbp)
.Ltmp417:
	.loc	2 1988 11 prologue_end          # /usr/lib/gcc/x86_64-linux-gnu/13/../../../../include/c++/13/bits/stl_vector.h:1988:11
	movq	-16(%rbp), %rax
	.loc	2 1988 4 epilogue_begin is_stmt 0 # /usr/lib/gcc/x86_64-linux-gnu/13/../../../../include/c++/13/bits/stl_vector.h:1988:4
	popq	%rbp
	.cfi_def_cfa %rsp, 8
	retq
.Ltmp418:
.Lfunc_end57:
	.size	_ZNKSt6vectorIfSaIfEE11_M_data_ptrIfEEPT_S4_, .Lfunc_end57-_ZNKSt6vectorIfSaIfEE11_M_data_ptrIfEEPT_S4_
	.cfi_endproc
                                        # -- End function
	.text
	.p2align	4, 0x90                         # -- Begin function __cuda_register_globals
	.type	__cuda_register_globals,@function
__cuda_register_globals:                # @__cuda_register_globals
.Lfunc_begin58:
	.cfi_startproc
# %bb.0:                                # %entry
	subq	$40, %rsp
	.cfi_def_cfa_offset 48
	leaq	_Z29__device_stub__sfilter_kernelPKfPfifffffffff(%rip), %rsi
	leaq	.L__unnamed_1(%rip), %rcx
	movl	$4294967295, %r8d               # imm = 0xFFFFFFFF
	xorl	%eax, %eax
	movl	%eax, %r9d
	movq	%rcx, %rdx
	movq	$0, (%rsp)
	movq	$0, 8(%rsp)
	movq	$0, 16(%rsp)
	movq	$0, 24(%rsp)
	callq	__cudaRegisterFunction@PLT
	addq	$40, %rsp
	.cfi_def_cfa_offset 8
	retq
.Lfunc_end58:
	.size	__cuda_register_globals, .Lfunc_end58-__cuda_register_globals
	.cfi_endproc
                                        # -- End function
	.p2align	4, 0x90                         # -- Begin function __cuda_module_ctor
	.type	__cuda_module_ctor,@function
__cuda_module_ctor:                     # @__cuda_module_ctor
.Lfunc_begin59:
	.cfi_startproc
# %bb.0:                                # %entry
	pushq	%rax
	.cfi_def_cfa_offset 16
	leaq	__cuda_fatbin_wrapper(%rip), %rdi
	callq	__cudaRegisterFatBinary@PLT
	movq	%rax, %rdi
	movq	%rdi, (%rsp)                    # 8-byte Spill
	movq	%rdi, __cuda_gpubin_handle(%rip)
	callq	__cuda_register_globals
	movq	(%rsp), %rdi                    # 8-byte Reload
	callq	__cudaRegisterFatBinaryEnd@PLT
	leaq	__cuda_module_dtor(%rip), %rdi
	callq	atexit@PLT
	popq	%rax
	.cfi_def_cfa_offset 8
	retq
.Lfunc_end59:
	.size	__cuda_module_ctor, .Lfunc_end59-__cuda_module_ctor
	.cfi_endproc
                                        # -- End function
	.p2align	4, 0x90                         # -- Begin function __cuda_module_dtor
	.type	__cuda_module_dtor,@function
__cuda_module_dtor:                     # @__cuda_module_dtor
.Lfunc_begin60:
	.cfi_startproc
# %bb.0:                                # %entry
	pushq	%rax
	.cfi_def_cfa_offset 16
	movq	__cuda_gpubin_handle(%rip), %rdi
	callq	__cudaUnregisterFatBinary@PLT
	popq	%rax
	.cfi_def_cfa_offset 8
	retq
.Lfunc_end60:
	.size	__cuda_module_dtor, .Lfunc_end60-__cuda_module_dtor
	.cfi_endproc
                                        # -- End function
	.type	.L.str,@object                  # @.str
	.section	.rodata.str1.1,"aMS",@progbits,1
.L.str:
	.asciz	"input size=%d\n"
	.size	.L.str, 15

	.type	_ZL5size_,@object               # @_ZL5size_
	.data
	.p2align	2, 0x0
_ZL5size_:
	.long	16                              # 0x10
	.size	_ZL5size_, 4

	.type	.L.str.1,@object                # @.str.1
	.section	.rodata.str1.1,"aMS",@progbits,1
.L.str.1:
	.asciz	"block size=%dx%d\n"
	.size	.L.str.1, 18

	.type	_ZL7block_x,@object             # @_ZL7block_x
	.data
	.p2align	2, 0x0
_ZL7block_x:
	.long	16                              # 0x10
	.size	_ZL7block_x, 4

	.type	_ZL7block_y,@object             # @_ZL7block_y
	.p2align	2, 0x0
_ZL7block_y:
	.long	16                              # 0x10
	.size	_ZL7block_y, 4

	.type	.L__const.main.global_offset,@object # @__const.main.global_offset
	.section	.rodata.cst16,"aM",@progbits,16
	.p2align	4, 0x0
.L__const.main.global_offset:
	.quad	1                               # 0x1
	.quad	1                               # 0x1
	.size	.L__const.main.global_offset, 16

	.type	.L__const.main.local_work_size,@object # @__const.main.local_work_size
	.p2align	4, 0x0
.L__const.main.local_work_size:
	.quad	1                               # 0x1
	.quad	1                               # 0x1
	.size	.L__const.main.local_work_size, 16

	.type	.L.str.2,@object                # @.str.2
	.section	.rodata.str1.1,"aMS",@progbits,1
.L.str.2:
	.asciz	"CUDA Error: %s at %s:%d\n"
	.size	.L.str.2, 25

	.type	.L.str.3,@object                # @.str.3
.L.str.3:
	.asciz	"./sfilter.cu"
	.size	.L.str.3, 13

	.type	.L.str.4,@object                # @.str.4
.L.str.4:
	.asciz	"enqueue kernel\n"
	.size	.L.str.4, 16

	.type	.L.str.5,@object                # @.str.5
.L.str.5:
	.asciz	"global_work_size=[%d, %d]  block=[%d, %d]  grid=[%d, %d]\n"
	.size	.L.str.5, 58

	.type	.L.str.6,@object                # @.str.6
.L.str.6:
	.asciz	"Elapsed time: %g ms\n"
	.size	.L.str.6, 21

	.type	.L.str.7,@object                # @.str.7
.L.str.7:
	.asciz	"*** error: [%zu] expected=%f, actual=%f\n"
	.size	.L.str.7, 41

	.type	.L.str.8,@object                # @.str.8
.L.str.8:
	.asciz	"PASSED!\n"
	.size	.L.str.8, 9

	.type	.L.str.9,@object                # @.str.9
.L.str.9:
	.asciz	"FAILED! - %d errors\n"
	.size	.L.str.9, 21

	.type	.L.str.10,@object               # @.str.10
.L.str.10:
	.asciz	"n:b:h"
	.size	.L.str.10, 6

	.type	.L.str.11,@object               # @.str.11
.L.str.11:
	.asciz	"-bx"
	.size	.L.str.11, 4

	.type	.L.str.12,@object               # @.str.12
.L.str.12:
	.asciz	"-by"
	.size	.L.str.12, 4

	.type	.L.str.13,@object               # @.str.13
.L.str.13:
	.asciz	"Error: input size must be >= 3\n"
	.size	.L.str.13, 32

	.type	.L.str.14,@object               # @.str.14
.L.str.14:
	.asciz	"Error: invalid block size (%d x %d)\n"
	.size	.L.str.14, 37

	.type	.L.str.15,@object               # @.str.15
.L.str.15:
	.asciz	"%dx%d"
	.size	.L.str.15, 6

	.type	.L.str.16,@object               # @.str.16
.L.str.16:
	.asciz	"Invalid -b format. Use -b32x8\n"
	.size	.L.str.16, 31

	.type	.L.str.17,@object               # @.str.17
.L.str.17:
	.asciz	"Usage: sfilter_cuda [-n size] [-b WxH | -bx W -by H] [-h]\n"
	.size	.L.str.17, 59

	.type	.L.str.18,@object               # @.str.18
.L.str.18:
	.asciz	"  -n   : matrix size (N x N), N >= 3 (default 16)\n"
	.size	.L.str.18, 51

	.type	.L.str.19,@object               # @.str.19
.L.str.19:
	.asciz	"  -b   : block size in 'WxH' format (e.g., -b32x8)\n"
	.size	.L.str.19, 52

	.type	.L.str.20,@object               # @.str.20
.L.str.20:
	.asciz	"  -bx  : blockDim.x (e.g., -bx 32)\n"
	.size	.L.str.20, 36

	.type	.L.str.21,@object               # @.str.21
.L.str.21:
	.asciz	"  -by  : blockDim.y (e.g., -by 8)\n"
	.size	.L.str.21, 35

	.type	.L.str.22,@object               # @.str.22
.L.str.22:
	.asciz	"  -h   : help\n"
	.size	.L.str.22, 15

	.type	.L.str.23,@object               # @.str.23
.L.str.23:
	.asciz	"cannot create std::vector larger than max_size()"
	.size	.L.str.23, 49

	.type	.L.str.24,@object               # @.str.24
.L.str.24:
	.asciz	"vector::_M_range_check: __n (which is %zu) >= this->size() (which is %zu)"
	.size	.L.str.24, 74

	.type	.L__unnamed_1,@object           # @0
.L__unnamed_1:
	.asciz	"_Z14sfilter_kernelPKfPfifffffffff"
	.size	.L__unnamed_1, 34

	.type	.L__unnamed_2,@object           # @1
	.section	.nv_fatbin,"a",@progbits
	.p2align	3, 0x0
.L__unnamed_2:
