	.text
	.file	"gaussian.cu"
	.file	0 "/nethome/cahn45/CuPBoP/examples/gauss" "gaussian.cu" md5 0x33b52d16313490d945cf36f250d3ceb8
	.file	1 "." "gaussian.cu"
	.file	2 "/usr/include/x86_64-linux-gnu/bits/types" "FILE.h"
	.file	3 "/nethome/cahn45/CuPBoP" "cuda-12.1/include/nv/target"
	.file	4 "/nethome/cahn45/CuPBoP" "cuda-12.1/include/driver_types.h"
	.file	5 "/nethome/cahn45/CuPBoP" "cuda-12.1/include/vector_types.h"
	.section	.rodata.cst4,"aM",@progbits,4
	.p2align	2, 0x0                          # -- Begin function _Z13create_matrixPfi
.LCPI0_0:
	.long	0x41200000                      # float 10
	.text
	.globl	_Z13create_matrixPfi
	.p2align	4, 0x90
	.type	_Z13create_matrixPfi,@function
_Z13create_matrixPfi:                   # @_Z13create_matrixPfi
.Lfunc_begin0:
	.loc	1 81 0                          # ./gaussian.cu:81:0
	.cfi_startproc
# %bb.0:                                # %entry
	pushq	%rbp
	.cfi_def_cfa_offset 16
	.cfi_offset %rbp, -16
	movq	%rsp, %rbp
	.cfi_def_cfa_register %rbp
	subq	$64, %rsp
	movq	%rdi, -8(%rbp)
	movl	%esi, -12(%rbp)
.Ltmp0:
	.loc	1 83 10 prologue_end            # ./gaussian.cu:83:10
	movl	$-1138501878, -24(%rbp)         # imm = 0xBC23D70A
	.loc	1 84 18                         # ./gaussian.cu:84:18
	movl	-12(%rbp), %ecx
                                        # implicit-def: $rax
	.loc	1 84 23 is_stmt 0               # ./gaussian.cu:84:23
	movl	%ecx, %eax
	leal	-1(%rax,%rax), %eax
                                        # kill: def $rax killed $eax
	.loc	1 84 4                          # ./gaussian.cu:84:4
	movq	%rsp, %rcx
	movq	%rcx, -32(%rbp)
	leaq	15(,%rax,4), %rdx
	andq	$-16, %rdx
	movq	%rsp, %rcx
	subq	%rdx, %rcx
	movq	%rcx, -56(%rbp)                 # 8-byte Spill
.Ltmp1:
	#DEBUG_VALUE: create_matrix:coe <- [DW_OP_constu 56, DW_OP_minus, DW_OP_deref] [$rbp+0]
	movq	%rcx, %rsp
	movq	%rax, -40(%rbp)
.Ltmp2:
	#DEBUG_VALUE: create_matrix:coe <- [$rcx+0]
	.loc	1 85 10 is_stmt 1               # ./gaussian.cu:85:10
	xorps	%xmm0, %xmm0
	movss	%xmm0, -44(%rbp)
.Ltmp3:
	.loc	1 87 11                         # ./gaussian.cu:87:11
	movl	$0, -16(%rbp)
.Ltmp4:
	#DEBUG_VALUE: create_matrix:coe <- [DW_OP_constu 56, DW_OP_minus, DW_OP_deref] [$rbp+0]
.LBB0_1:                                # %for.cond
                                        # =>This Inner Loop Header: Depth=1
	#DEBUG_VALUE: create_matrix:coe <- [DW_OP_constu 56, DW_OP_minus, DW_OP_deref] [$rbp+0]
	.loc	1 87 16 is_stmt 0               # ./gaussian.cu:87:16
	movl	-16(%rbp), %eax
	.loc	1 87 18                         # ./gaussian.cu:87:18
	cmpl	-12(%rbp), %eax
.Ltmp5:
	.loc	1 87 4                          # ./gaussian.cu:87:4
	jge	.LBB0_4
.Ltmp6:
# %bb.2:                                # %for.body
                                        #   in Loop: Header=BB0_1 Depth=1
	#DEBUG_VALUE: create_matrix:coe <- [DW_OP_constu 56, DW_OP_minus, DW_OP_deref] [$rbp+0]
	.loc	1 88 23 is_stmt 1               # ./gaussian.cu:88:23
	movss	-24(%rbp), %xmm0                # xmm0 = mem[0],zero,zero,zero
	.loc	1 88 31 is_stmt 0               # ./gaussian.cu:88:31
	cvtsi2ssl	-16(%rbp), %xmm1
	.loc	1 88 29                         # ./gaussian.cu:88:29
	mulss	%xmm1, %xmm0
	.loc	1 88 19                         # ./gaussian.cu:88:19
	callq	_ZSt3expf
	movq	-56(%rbp), %rax                 # 8-byte Reload
	movaps	%xmm0, %xmm1
	.loc	1 88 17                         # ./gaussian.cu:88:17
	movss	.LCPI0_0(%rip), %xmm0           # xmm0 = [1.0E+1,0.0E+0,0.0E+0,0.0E+0]
	mulss	%xmm1, %xmm0
	.loc	1 88 12                         # ./gaussian.cu:88:12
	movss	%xmm0, -44(%rbp)
	.loc	1 89 10 is_stmt 1               # ./gaussian.cu:89:10
	movl	-12(%rbp), %ecx
	.loc	1 89 15 is_stmt 0               # ./gaussian.cu:89:15
	subl	$1, %ecx
	.loc	1 89 19                         # ./gaussian.cu:89:19
	addl	-16(%rbp), %ecx
	.loc	1 89 8                          # ./gaussian.cu:89:8
	movl	%ecx, -20(%rbp)
	.loc	1 90 15 is_stmt 1               # ./gaussian.cu:90:15
	movss	-44(%rbp), %xmm0                # xmm0 = mem[0],zero,zero,zero
	.loc	1 90 6 is_stmt 0                # ./gaussian.cu:90:6
	movslq	-20(%rbp), %rcx
	.loc	1 90 13                         # ./gaussian.cu:90:13
	movss	%xmm0, (%rax,%rcx,4)
	.loc	1 91 10 is_stmt 1               # ./gaussian.cu:91:10
	movl	-12(%rbp), %ecx
	.loc	1 91 15 is_stmt 0               # ./gaussian.cu:91:15
	subl	$1, %ecx
	.loc	1 91 19                         # ./gaussian.cu:91:19
	subl	-16(%rbp), %ecx
	.loc	1 91 8                          # ./gaussian.cu:91:8
	movl	%ecx, -20(%rbp)
	.loc	1 92 15 is_stmt 1               # ./gaussian.cu:92:15
	movss	-44(%rbp), %xmm0                # xmm0 = mem[0],zero,zero,zero
	.loc	1 92 6 is_stmt 0                # ./gaussian.cu:92:6
	movslq	-20(%rbp), %rcx
	.loc	1 92 13                         # ./gaussian.cu:92:13
	movss	%xmm0, (%rax,%rcx,4)
.Ltmp7:
# %bb.3:                                # %for.inc
                                        #   in Loop: Header=BB0_1 Depth=1
	#DEBUG_VALUE: create_matrix:coe <- [DW_OP_constu 56, DW_OP_minus, DW_OP_deref] [$rbp+0]
	.loc	1 87 27 is_stmt 1               # ./gaussian.cu:87:27
	movl	-16(%rbp), %eax
	addl	$1, %eax
	movl	%eax, -16(%rbp)
	.loc	1 87 4 is_stmt 0                # ./gaussian.cu:87:4
	jmp	.LBB0_1
.Ltmp8:
.LBB0_4:                                # %for.end
	#DEBUG_VALUE: create_matrix:coe <- [DW_OP_constu 56, DW_OP_minus, DW_OP_deref] [$rbp+0]
	.loc	1 95 11 is_stmt 1               # ./gaussian.cu:95:11
	movl	$0, -16(%rbp)
.Ltmp9:
.LBB0_5:                                # %for.cond8
                                        # =>This Loop Header: Depth=1
                                        #     Child Loop BB0_7 Depth 2
	#DEBUG_VALUE: create_matrix:coe <- [DW_OP_constu 56, DW_OP_minus, DW_OP_deref] [$rbp+0]
	.loc	1 95 16 is_stmt 0               # ./gaussian.cu:95:16
	movl	-16(%rbp), %eax
	.loc	1 95 18                         # ./gaussian.cu:95:18
	cmpl	-12(%rbp), %eax
.Ltmp10:
	.loc	1 95 4                          # ./gaussian.cu:95:4
	jge	.LBB0_12
.Ltmp11:
# %bb.6:                                # %for.body10
                                        #   in Loop: Header=BB0_5 Depth=1
	#DEBUG_VALUE: create_matrix:coe <- [DW_OP_constu 56, DW_OP_minus, DW_OP_deref] [$rbp+0]
	.loc	1 96 13 is_stmt 1               # ./gaussian.cu:96:13
	movl	$0, -20(%rbp)
.Ltmp12:
.LBB0_7:                                # %for.cond11
                                        #   Parent Loop BB0_5 Depth=1
                                        # =>  This Inner Loop Header: Depth=2
	#DEBUG_VALUE: create_matrix:coe <- [DW_OP_constu 56, DW_OP_minus, DW_OP_deref] [$rbp+0]
	.loc	1 96 18 is_stmt 0               # ./gaussian.cu:96:18
	movl	-20(%rbp), %eax
	.loc	1 96 20                         # ./gaussian.cu:96:20
	cmpl	-12(%rbp), %eax
.Ltmp13:
	.loc	1 96 6                          # ./gaussian.cu:96:6
	jge	.LBB0_10
.Ltmp14:
# %bb.8:                                # %for.body13
                                        #   in Loop: Header=BB0_7 Depth=2
	#DEBUG_VALUE: create_matrix:coe <- [DW_OP_constu 56, DW_OP_minus, DW_OP_deref] [$rbp+0]
	.loc	1 0 6                           # ./gaussian.cu:0:6
	movq	-56(%rbp), %rax                 # 8-byte Reload
.Ltmp15:
	.loc	1 97 30 is_stmt 1               # ./gaussian.cu:97:30
	movl	-12(%rbp), %ecx
	.loc	1 97 35 is_stmt 0               # ./gaussian.cu:97:35
	subl	$1, %ecx
	.loc	1 97 39                         # ./gaussian.cu:97:39
	subl	-16(%rbp), %ecx
	.loc	1 97 43                         # ./gaussian.cu:97:43
	addl	-20(%rbp), %ecx
	.loc	1 97 26                         # ./gaussian.cu:97:26
	movslq	%ecx, %rcx
	movss	(%rax,%rcx,4), %xmm0            # xmm0 = mem[0],zero,zero,zero
	.loc	1 97 8                          # ./gaussian.cu:97:8
	movq	-8(%rbp), %rax
	.loc	1 97 10                         # ./gaussian.cu:97:10
	movl	-16(%rbp), %ecx
	.loc	1 97 12                         # ./gaussian.cu:97:12
	imull	-12(%rbp), %ecx
	.loc	1 97 19                         # ./gaussian.cu:97:19
	addl	-20(%rbp), %ecx
	.loc	1 97 8                          # ./gaussian.cu:97:8
	movslq	%ecx, %rcx
	.loc	1 97 24                         # ./gaussian.cu:97:24
	movss	%xmm0, (%rax,%rcx,4)
.Ltmp16:
# %bb.9:                                # %for.inc23
                                        #   in Loop: Header=BB0_7 Depth=2
	#DEBUG_VALUE: create_matrix:coe <- [DW_OP_constu 56, DW_OP_minus, DW_OP_deref] [$rbp+0]
	.loc	1 96 29 is_stmt 1               # ./gaussian.cu:96:29
	movl	-20(%rbp), %eax
	addl	$1, %eax
	movl	%eax, -20(%rbp)
	.loc	1 96 6 is_stmt 0                # ./gaussian.cu:96:6
	jmp	.LBB0_7
.Ltmp17:
.LBB0_10:                               # %for.end25
                                        #   in Loop: Header=BB0_5 Depth=1
	#DEBUG_VALUE: create_matrix:coe <- [DW_OP_constu 56, DW_OP_minus, DW_OP_deref] [$rbp+0]
	.loc	1 99 4 is_stmt 1                # ./gaussian.cu:99:4
	jmp	.LBB0_11
.Ltmp18:
.LBB0_11:                               # %for.inc26
                                        #   in Loop: Header=BB0_5 Depth=1
	#DEBUG_VALUE: create_matrix:coe <- [DW_OP_constu 56, DW_OP_minus, DW_OP_deref] [$rbp+0]
	.loc	1 95 27                         # ./gaussian.cu:95:27
	movl	-16(%rbp), %eax
	addl	$1, %eax
	movl	%eax, -16(%rbp)
	.loc	1 95 4 is_stmt 0                # ./gaussian.cu:95:4
	jmp	.LBB0_5
.Ltmp19:
.LBB0_12:                               # %for.end28
	#DEBUG_VALUE: create_matrix:coe <- [DW_OP_constu 56, DW_OP_minus, DW_OP_deref] [$rbp+0]
	.loc	1 100 2 is_stmt 1               # ./gaussian.cu:100:2
	movq	-32(%rbp), %rax
	movq	%rax, %rsp
	movq	%rbp, %rsp
	.loc	1 100 2 epilogue_begin is_stmt 0 # ./gaussian.cu:100:2
	popq	%rbp
	.cfi_def_cfa %rsp, 8
	retq
.Ltmp20:
.Lfunc_end0:
	.size	_Z13create_matrixPfi, .Lfunc_end0-_Z13create_matrixPfi
	.cfi_endproc
                                        # -- End function
	.section	.text._ZSt3expf,"axG",@progbits,_ZSt3expf,comdat
	.weak	_ZSt3expf                       # -- Begin function _ZSt3expf
	.p2align	4, 0x90
	.type	_ZSt3expf,@function
_ZSt3expf:                              # @_ZSt3expf
.Lfunc_begin1:
	.file	6 "/usr/lib/gcc/x86_64-linux-gnu/13/../../../../include/c++/13" "cmath"
	.loc	6 216 0 is_stmt 1               # /usr/lib/gcc/x86_64-linux-gnu/13/../../../../include/c++/13/cmath:216:0
	.cfi_startproc
# %bb.0:                                # %entry
	pushq	%rbp
	.cfi_def_cfa_offset 16
	.cfi_offset %rbp, -16
	movq	%rsp, %rbp
	.cfi_def_cfa_register %rbp
	subq	$16, %rsp
	movss	%xmm0, -4(%rbp)
.Ltmp21:
	.loc	6 216 27 prologue_end           # /usr/lib/gcc/x86_64-linux-gnu/13/../../../../include/c++/13/cmath:216:27
	movss	-4(%rbp), %xmm0                 # xmm0 = mem[0],zero,zero,zero
	.loc	6 216 12 is_stmt 0              # /usr/lib/gcc/x86_64-linux-gnu/13/../../../../include/c++/13/cmath:216:12
	callq	expf@PLT
	.loc	6 216 5 epilogue_begin          # /usr/lib/gcc/x86_64-linux-gnu/13/../../../../include/c++/13/cmath:216:5
	addq	$16, %rsp
	popq	%rbp
	.cfi_def_cfa %rsp, 8
	retq
.Ltmp22:
.Lfunc_end1:
	.size	_ZSt3expf, .Lfunc_end1-_ZSt3expf
	.cfi_endproc
                                        # -- End function
	.section	.rodata.cst8,"aM",@progbits,8
	.p2align	3, 0x0                          # -- Begin function main
.LCPI2_0:
	.quad	0x3eb0c6f7a0b5ed8d              # double 9.9999999999999995E-7
	.section	.rodata.cst4,"aM",@progbits,4
	.p2align	2, 0x0
.LCPI2_1:
	.long	0x3f800000                      # float 1
	.text
	.globl	main
	.p2align	4, 0x90
	.type	main,@function
main:                                   # @main
.Lfunc_begin2:
	.loc	1 102 0 is_stmt 1               # ./gaussian.cu:102:0
	.cfi_startproc
# %bb.0:                                # %entry
	pushq	%rbp
	.cfi_def_cfa_offset 16
	.cfi_offset %rbp, -16
	movq	%rsp, %rbp
	.cfi_def_cfa_register %rbp
	subq	$80, %rsp
	movl	$0, -4(%rbp)
	movl	%edi, -8(%rbp)
	movq	%rsi, -16(%rbp)
.Ltmp23:
	.loc	1 103 4 prologue_end            # ./gaussian.cu:103:4
	leaq	.L.str(%rip), %rdi
	movl	$512, %esi                      # imm = 0x200
	movl	$16, %ecx
	movl	%ecx, %edx
	movb	$0, %al
	callq	printf@PLT
	.loc	1 105 8                         # ./gaussian.cu:105:8
	movl	$1, -20(%rbp)
.Ltmp24:
	.loc	1 108 13                        # ./gaussian.cu:108:13
	cmpl	$2, -8(%rbp)
.Ltmp25:
	.loc	1 108 8 is_stmt 0               # ./gaussian.cu:108:8
	jge	.LBB2_2
# %bb.1:                                # %if.then
.Ltmp26:
	.loc	1 109 6 is_stmt 1               # ./gaussian.cu:109:6
	leaq	.L.str.1(%rip), %rdi
	movb	$0, %al
	callq	printf@PLT
	.loc	1 110 6                         # ./gaussian.cu:110:6
	leaq	.L.str.2(%rip), %rdi
	movb	$0, %al
	callq	printf@PLT
	.loc	1 111 6                         # ./gaussian.cu:111:6
	leaq	.L.str.3(%rip), %rdi
	movb	$0, %al
	callq	printf@PLT
	.loc	1 112 6                         # ./gaussian.cu:112:6
	leaq	.L.str.4(%rip), %rdi
	movb	$0, %al
	callq	printf@PLT
	.loc	1 114 6                         # ./gaussian.cu:114:6
	leaq	.L.str.5(%rip), %rdi
	movb	$0, %al
	callq	printf@PLT
	.loc	1 116 6                         # ./gaussian.cu:116:6
	leaq	.L.str.6(%rip), %rdi
	movb	$0, %al
	callq	printf@PLT
	.loc	1 117 6                         # ./gaussian.cu:117:6
	leaq	.L.str.7(%rip), %rdi
	movb	$0, %al
	callq	printf@PLT
	.loc	1 118 6                         # ./gaussian.cu:118:6
	leaq	.L.str.8(%rip), %rdi
	movb	$0, %al
	callq	printf@PLT
	.loc	1 119 6                         # ./gaussian.cu:119:6
	leaq	.L.str.9(%rip), %rdi
	movb	$0, %al
	callq	printf@PLT
	.loc	1 121 6                         # ./gaussian.cu:121:6
	leaq	.L.str.10(%rip), %rdi
	movb	$0, %al
	callq	printf@PLT
	.loc	1 122 6                         # ./gaussian.cu:122:6
	leaq	.L.str.11(%rip), %rdi
	movb	$0, %al
	callq	printf@PLT
	.loc	1 124 6                         # ./gaussian.cu:124:6
	leaq	.L.str.12(%rip), %rdi
	movb	$0, %al
	callq	printf@PLT
	.loc	1 125 6                         # ./gaussian.cu:125:6
	leaq	.L.str.13(%rip), %rdi
	movb	$0, %al
	callq	printf@PLT
	.loc	1 126 6                         # ./gaussian.cu:126:6
	leaq	.L.str.14(%rip), %rdi
	movb	$0, %al
	callq	printf@PLT
	.loc	1 127 6                         # ./gaussian.cu:127:6
	leaq	.L.str.15(%rip), %rdi
	movb	$0, %al
	callq	printf@PLT
	.loc	1 128 6                         # ./gaussian.cu:128:6
	leaq	.L.str.16(%rip), %rdi
	movb	$0, %al
	callq	printf@PLT
	.loc	1 129 6                         # ./gaussian.cu:129:6
	leaq	.L.str.17(%rip), %rdi
	movb	$0, %al
	callq	printf@PLT
	.loc	1 130 6                         # ./gaussian.cu:130:6
	leaq	.L.str.18(%rip), %rdi
	movb	$0, %al
	callq	printf@PLT
	.loc	1 131 6                         # ./gaussian.cu:131:6
	leaq	.L.str.14(%rip), %rdi
	movb	$0, %al
	callq	printf@PLT
	.loc	1 132 6                         # ./gaussian.cu:132:6
	leaq	.L.str.19(%rip), %rdi
	movb	$0, %al
	callq	printf@PLT
	.loc	1 133 6                         # ./gaussian.cu:133:6
	leaq	.L.str.14(%rip), %rdi
	movb	$0, %al
	callq	printf@PLT
	.loc	1 134 6                         # ./gaussian.cu:134:6
	leaq	.L.str.20(%rip), %rdi
	movb	$0, %al
	callq	printf@PLT
	.loc	1 135 6                         # ./gaussian.cu:135:6
	xorl	%edi, %edi
	callq	exit@PLT
.Ltmp27:
.LBB2_2:                                # %if.end
	.loc	1 138 4                         # ./gaussian.cu:138:4
	xorl	%edi, %edi
	callq	cudaSetDevice@PLT
	.loc	1 140 4                         # ./gaussian.cu:140:4
	callq	_Z21PrintDevicePropertiesv
.Ltmp28:
	.loc	1 144 11                        # ./gaussian.cu:144:11
	movl	$1, -24(%rbp)
.LBB2_3:                                # %for.cond
                                        # =>This Loop Header: Depth=1
                                        #     Child Loop BB2_7 Depth 2
.Ltmp29:
	.loc	1 144 16 is_stmt 0              # ./gaussian.cu:144:16
	movl	-24(%rbp), %eax
	.loc	1 144 18                        # ./gaussian.cu:144:18
	cmpl	-8(%rbp), %eax
.Ltmp30:
	.loc	1 144 4                         # ./gaussian.cu:144:4
	jge	.LBB2_16
# %bb.4:                                # %for.body
                                        #   in Loop: Header=BB2_3 Depth=1
.Ltmp31:
	.loc	1 145 10 is_stmt 1              # ./gaussian.cu:145:10
	movq	-16(%rbp), %rax
	movslq	-24(%rbp), %rcx
	movq	(%rax,%rcx,8), %rax
	movsbl	(%rax), %eax
	.loc	1 145 21 is_stmt 0              # ./gaussian.cu:145:21
	cmpl	$45, %eax
.Ltmp32:
	.loc	1 145 10                        # ./gaussian.cu:145:10
	jne	.LBB2_14
# %bb.5:                                # %if.then27
                                        #   in Loop: Header=BB2_3 Depth=1
.Ltmp33:
	.loc	1 146 15 is_stmt 1              # ./gaussian.cu:146:15
	movq	-16(%rbp), %rax
	.loc	1 146 20 is_stmt 0              # ./gaussian.cu:146:20
	movslq	-24(%rbp), %rcx
	.loc	1 146 15                        # ./gaussian.cu:146:15
	movq	(%rax,%rcx,8), %rax
	movb	1(%rax), %al
	.loc	1 146 13                        # ./gaussian.cu:146:13
	movb	%al, -29(%rbp)
	.loc	1 147 16 is_stmt 1              # ./gaussian.cu:147:16
	movsbl	-29(%rbp), %eax
	movl	%eax, -72(%rbp)                 # 4-byte Spill
	.loc	1 147 8 is_stmt 0               # ./gaussian.cu:147:8
	subl	$102, %eax
	je	.LBB2_11
	jmp	.LBB2_21
.LBB2_21:                               # %if.then27
                                        #   in Loop: Header=BB2_3 Depth=1
	.loc	1 0 8                           # ./gaussian.cu:0:8
	movl	-72(%rbp), %eax                 # 4-byte Reload
	.loc	1 147 8                         # ./gaussian.cu:147:8
	subl	$113, %eax
	je	.LBB2_12
	jmp	.LBB2_22
.LBB2_22:                               # %if.then27
                                        #   in Loop: Header=BB2_3 Depth=1
	.loc	1 0 8                           # ./gaussian.cu:0:8
	movl	-72(%rbp), %eax                 # 4-byte Reload
	.loc	1 147 8                         # ./gaussian.cu:147:8
	subl	$115, %eax
	jne	.LBB2_13
	jmp	.LBB2_6
.LBB2_6:                                # %sw.bb
                                        #   in Loop: Header=BB2_3 Depth=1
.Ltmp34:
	.loc	1 149 11 is_stmt 1              # ./gaussian.cu:149:11
	movl	-24(%rbp), %eax
	addl	$1, %eax
	movl	%eax, -24(%rbp)
	.loc	1 150 22                        # ./gaussian.cu:150:22
	movq	-16(%rbp), %rax
	movslq	-24(%rbp), %rcx
	movq	(%rax,%rcx,8), %rdi
	.loc	1 150 17 is_stmt 0              # ./gaussian.cu:150:17
	callq	atoi@PLT
	.loc	1 150 15                        # ./gaussian.cu:150:15
	movl	%eax, Size(%rip)
	.loc	1 151 68 is_stmt 1              # ./gaussian.cu:151:68
	movl	Size(%rip), %esi
	.loc	1 151 10 is_stmt 0              # ./gaussian.cu:151:10
	leaq	.L.str.21(%rip), %rdi
	movb	$0, %al
	callq	printf@PLT
	.loc	1 153 30 is_stmt 1              # ./gaussian.cu:153:30
	movl	Size(%rip), %eax
	.loc	1 153 35 is_stmt 0              # ./gaussian.cu:153:35
	imull	Size(%rip), %eax
	.loc	1 153 30                        # ./gaussian.cu:153:30
	movslq	%eax, %rdi
	.loc	1 153 42                        # ./gaussian.cu:153:42
	shlq	$2, %rdi
	.loc	1 153 23                        # ./gaussian.cu:153:23
	callq	malloc@PLT
	.loc	1 153 12                        # ./gaussian.cu:153:12
	movq	%rax, a(%rip)
	.loc	1 154 24 is_stmt 1              # ./gaussian.cu:154:24
	movq	a(%rip), %rdi
	.loc	1 154 27 is_stmt 0              # ./gaussian.cu:154:27
	movl	Size(%rip), %esi
	.loc	1 154 10                        # ./gaussian.cu:154:10
	callq	_Z13create_matrixPfi
	.loc	1 156 30 is_stmt 1              # ./gaussian.cu:156:30
	movslq	Size(%rip), %rdi
	.loc	1 156 35 is_stmt 0              # ./gaussian.cu:156:35
	shlq	$2, %rdi
	.loc	1 156 23                        # ./gaussian.cu:156:23
	callq	malloc@PLT
	.loc	1 156 12                        # ./gaussian.cu:156:12
	movq	%rax, b(%rip)
.Ltmp35:
	.loc	1 157 17 is_stmt 1              # ./gaussian.cu:157:17
	movl	$0, -28(%rbp)
.LBB2_7:                                # %for.cond42
                                        #   Parent Loop BB2_3 Depth=1
                                        # =>  This Inner Loop Header: Depth=2
.Ltmp36:
	.loc	1 157 22 is_stmt 0              # ./gaussian.cu:157:22
	movl	-28(%rbp), %eax
	.loc	1 157 24                        # ./gaussian.cu:157:24
	cmpl	Size(%rip), %eax
.Ltmp37:
	.loc	1 157 10                        # ./gaussian.cu:157:10
	jge	.LBB2_10
# %bb.8:                                # %for.body44
                                        #   in Loop: Header=BB2_7 Depth=2
.Ltmp38:
	.loc	1 158 12 is_stmt 1              # ./gaussian.cu:158:12
	movq	b(%rip), %rax
	movslq	-28(%rbp), %rcx
	.loc	1 158 17 is_stmt 0              # ./gaussian.cu:158:17
	movss	.LCPI2_1(%rip), %xmm0           # xmm0 = [1.0E+0,0.0E+0,0.0E+0,0.0E+0]
	movss	%xmm0, (%rax,%rcx,4)
# %bb.9:                                # %for.inc
                                        #   in Loop: Header=BB2_7 Depth=2
	.loc	1 157 33 is_stmt 1              # ./gaussian.cu:157:33
	movl	-28(%rbp), %eax
	addl	$1, %eax
	movl	%eax, -28(%rbp)
	.loc	1 157 10 is_stmt 0              # ./gaussian.cu:157:10
	jmp	.LBB2_7
.Ltmp39:
.LBB2_10:                               # %for.end
                                        #   in Loop: Header=BB2_3 Depth=1
	.loc	1 160 30 is_stmt 1              # ./gaussian.cu:160:30
	movl	Size(%rip), %eax
	.loc	1 160 35 is_stmt 0              # ./gaussian.cu:160:35
	imull	Size(%rip), %eax
	.loc	1 160 30                        # ./gaussian.cu:160:30
	movslq	%eax, %rdi
	.loc	1 160 42                        # ./gaussian.cu:160:42
	shlq	$2, %rdi
	.loc	1 160 23                        # ./gaussian.cu:160:23
	callq	malloc@PLT
	.loc	1 160 12                        # ./gaussian.cu:160:12
	movq	%rax, m(%rip)
	.loc	1 161 10 is_stmt 1              # ./gaussian.cu:161:10
	jmp	.LBB2_13
.LBB2_11:                               # %sw.bb52
                                        #   in Loop: Header=BB2_3 Depth=1
	.loc	1 163 11                        # ./gaussian.cu:163:11
	movl	-24(%rbp), %eax
	addl	$1, %eax
	movl	%eax, -24(%rbp)
	.loc	1 164 41                        # ./gaussian.cu:164:41
	movq	-16(%rbp), %rax
	movslq	-24(%rbp), %rcx
	movq	(%rax,%rcx,8), %rsi
	.loc	1 164 10 is_stmt 0              # ./gaussian.cu:164:10
	leaq	.L.str.22(%rip), %rdi
	movb	$0, %al
	callq	printf@PLT
	.loc	1 165 26 is_stmt 1              # ./gaussian.cu:165:26
	movq	-16(%rbp), %rax
	movslq	-24(%rbp), %rcx
	movq	(%rax,%rcx,8), %rdi
	.loc	1 165 10 is_stmt 0              # ./gaussian.cu:165:10
	callq	_Z15InitProblemOncePc
	.loc	1 166 10 is_stmt 1              # ./gaussian.cu:166:10
	jmp	.LBB2_13
.LBB2_12:                               # %sw.bb59
                                        #   in Loop: Header=BB2_3 Depth=1
	.loc	1 168 18                        # ./gaussian.cu:168:18
	movl	$1, -20(%rbp)
.Ltmp40:
.LBB2_13:                               # %sw.epilog
                                        #   in Loop: Header=BB2_3 Depth=1
	.loc	1 171 6                         # ./gaussian.cu:171:6
	jmp	.LBB2_14
.Ltmp41:
.LBB2_14:                               # %if.end60
                                        #   in Loop: Header=BB2_3 Depth=1
	.loc	1 172 4                         # ./gaussian.cu:172:4
	jmp	.LBB2_15
.Ltmp42:
.LBB2_15:                               # %for.inc61
                                        #   in Loop: Header=BB2_3 Depth=1
	.loc	1 144 27                        # ./gaussian.cu:144:27
	movl	-24(%rbp), %eax
	addl	$1, %eax
	movl	%eax, -24(%rbp)
	.loc	1 144 4 is_stmt 0               # ./gaussian.cu:144:4
	jmp	.LBB2_3
.Ltmp43:
.LBB2_16:                               # %for.end63
	.loc	1 176 4 is_stmt 1               # ./gaussian.cu:176:4
	callq	_Z10InitPerRunv
	.loc	1 179 4                         # ./gaussian.cu:179:4
	leaq	-48(%rbp), %rdi
	xorl	%eax, %eax
	movl	%eax, %esi
	callq	gettimeofday@PLT
	.loc	1 182 4                         # ./gaussian.cu:182:4
	callq	_Z10ForwardSubv
	.loc	1 186 4                         # ./gaussian.cu:186:4
	leaq	-64(%rbp), %rdi
	xorl	%eax, %eax
	movl	%eax, %esi
	callq	gettimeofday@PLT
	.loc	1 187 47                        # ./gaussian.cu:187:47
	imulq	$1000000, -64(%rbp), %rax       # imm = 0xF4240
	.loc	1 187 57 is_stmt 0              # ./gaussian.cu:187:57
	addq	-56(%rbp), %rax
	.loc	1 188 49 is_stmt 1              # ./gaussian.cu:188:49
	imulq	$1000000, -48(%rbp), %rcx       # imm = 0xF4240
	.loc	1 188 59 is_stmt 0              # ./gaussian.cu:188:59
	addq	-40(%rbp), %rcx
	.loc	1 187 77 is_stmt 1              # ./gaussian.cu:187:77
	subq	%rcx, %rax
                                        # kill: def $eax killed $eax killed $rax
	.loc	1 187 17 is_stmt 0              # ./gaussian.cu:187:17
	movl	%eax, -68(%rbp)
.Ltmp44:
	.loc	1 190 8 is_stmt 1               # ./gaussian.cu:190:8
	cmpl	$0, -20(%rbp)
.Ltmp45:
	.loc	1 190 8 is_stmt 0               # ./gaussian.cu:190:8
	je	.LBB2_18
# %bb.17:                               # %if.then72
.Ltmp46:
	.loc	1 191 6 is_stmt 1               # ./gaussian.cu:191:6
	leaq	.L.str.23(%rip), %rdi
	movb	$0, %al
	callq	printf@PLT
	.loc	1 192 15                        # ./gaussian.cu:192:15
	movq	m(%rip), %rdi
	.loc	1 192 18 is_stmt 0              # ./gaussian.cu:192:18
	movl	Size(%rip), %esi
	.loc	1 192 24                        # ./gaussian.cu:192:24
	movl	Size(%rip), %edx
	.loc	1 192 6                         # ./gaussian.cu:192:6
	callq	_Z8PrintMatPfii
	.loc	1 194 6 is_stmt 1               # ./gaussian.cu:194:6
	leaq	.L.str.24(%rip), %rdi
	movb	$0, %al
	callq	printf@PLT
	.loc	1 195 15                        # ./gaussian.cu:195:15
	movq	a(%rip), %rdi
	.loc	1 195 18 is_stmt 0              # ./gaussian.cu:195:18
	movl	Size(%rip), %esi
	.loc	1 195 24                        # ./gaussian.cu:195:24
	movl	Size(%rip), %edx
	.loc	1 195 6                         # ./gaussian.cu:195:6
	callq	_Z8PrintMatPfii
	.loc	1 197 6 is_stmt 1               # ./gaussian.cu:197:6
	leaq	.L.str.25(%rip), %rdi
	movb	$0, %al
	callq	printf@PLT
	.loc	1 198 15                        # ./gaussian.cu:198:15
	movq	b(%rip), %rdi
	.loc	1 198 18 is_stmt 0              # ./gaussian.cu:198:18
	movl	Size(%rip), %esi
	.loc	1 198 6                         # ./gaussian.cu:198:6
	callq	_Z8PrintAryPfi
.Ltmp47:
.LBB2_18:                               # %if.end76
	.loc	1 200 4 is_stmt 1               # ./gaussian.cu:200:4
	callq	_Z7BackSubv
.Ltmp48:
	.loc	1 201 8                         # ./gaussian.cu:201:8
	cmpl	$0, -20(%rbp)
.Ltmp49:
	.loc	1 201 8 is_stmt 0               # ./gaussian.cu:201:8
	je	.LBB2_20
# %bb.19:                               # %if.then78
.Ltmp50:
	.loc	1 202 6 is_stmt 1               # ./gaussian.cu:202:6
	leaq	.L.str.26(%rip), %rdi
	movb	$0, %al
	callq	printf@PLT
	.loc	1 203 15                        # ./gaussian.cu:203:15
	movq	finalVec(%rip), %rdi
	.loc	1 203 25 is_stmt 0              # ./gaussian.cu:203:25
	movl	Size(%rip), %esi
	.loc	1 203 6                         # ./gaussian.cu:203:6
	callq	_Z8PrintAryPfi
.Ltmp51:
.LBB2_20:                               # %if.end80
	.loc	1 206 11 is_stmt 1              # ./gaussian.cu:206:11
	movl	-68(%rbp), %eax
                                        # kill: def $rax killed $eax
	cvtsi2sd	%rax, %xmm0
	movsd	.LCPI2_0(%rip), %xmm1           # xmm1 = [9.9999999999999995E-7,0.0E+0]
	.loc	1 206 22 is_stmt 0              # ./gaussian.cu:206:22
	mulsd	%xmm1, %xmm0
	.loc	1 205 4 is_stmt 1               # ./gaussian.cu:205:4
	leaq	.L.str.27(%rip), %rdi
	movb	$1, %al
	callq	printf@PLT
	.loc	1 207 47                        # ./gaussian.cu:207:47
	movl	totalKernelTime(%rip), %eax
                                        # kill: def $rax killed $eax
	cvtsi2sd	%rax, %xmm0
	.loc	1 207 63 is_stmt 0              # ./gaussian.cu:207:63
	movsd	.LCPI2_0(%rip), %xmm1           # xmm1 = [9.9999999999999995E-7,0.0E+0]
	mulsd	%xmm1, %xmm0
	.loc	1 207 4                         # ./gaussian.cu:207:4
	leaq	.L.str.28(%rip), %rdi
	movb	$1, %al
	callq	printf@PLT
	.loc	1 212 9 is_stmt 1               # ./gaussian.cu:212:9
	movq	m(%rip), %rdi
	.loc	1 212 4 is_stmt 0               # ./gaussian.cu:212:4
	callq	free@PLT
	.loc	1 213 9 is_stmt 1               # ./gaussian.cu:213:9
	movq	a(%rip), %rdi
	.loc	1 213 4 is_stmt 0               # ./gaussian.cu:213:4
	callq	free@PLT
	.loc	1 214 9 is_stmt 1               # ./gaussian.cu:214:9
	movq	b(%rip), %rdi
	.loc	1 214 4 is_stmt 0               # ./gaussian.cu:214:4
	callq	free@PLT
	.loc	1 219 2 is_stmt 1               # ./gaussian.cu:219:2
	movl	-4(%rbp), %eax
	.loc	1 219 2 epilogue_begin is_stmt 0 # ./gaussian.cu:219:2
	addq	$80, %rsp
	popq	%rbp
	.cfi_def_cfa %rsp, 8
	retq
.Ltmp52:
.Lfunc_end2:
	.size	main, .Lfunc_end2-main
	.cfi_endproc
                                        # -- End function
	.globl	_Z21PrintDevicePropertiesv      # -- Begin function _Z21PrintDevicePropertiesv
	.p2align	4, 0x90
	.type	_Z21PrintDevicePropertiesv,@function
_Z21PrintDevicePropertiesv:             # @_Z21PrintDevicePropertiesv
.Lfunc_begin3:
	.loc	1 224 0 is_stmt 1               # ./gaussian.cu:224:0
	.cfi_startproc
# %bb.0:                                # %entry
	pushq	%rbp
	.cfi_def_cfa_offset 16
	.cfi_offset %rbp, -16
	movq	%rsp, %rbp
	.cfi_def_cfa_register %rbp
	subq	$1040, %rsp                     # imm = 0x410
.Ltmp53:
	.loc	1 226 8 prologue_end            # ./gaussian.cu:226:8
	movl	$0, -1036(%rbp)
	.loc	1 228 4                         # ./gaussian.cu:228:4
	leaq	-1036(%rbp), %rdi
	callq	cudaGetDeviceCount@PLT
	.loc	1 229 37                        # ./gaussian.cu:229:37
	movl	-1036(%rbp), %esi
	.loc	1 229 4 is_stmt 0               # ./gaussian.cu:229:4
	leaq	.L.str.29(%rip), %rdi
	movb	$0, %al
	callq	printf@PLT
.Ltmp54:
	.loc	1 230 13 is_stmt 1              # ./gaussian.cu:230:13
	movl	$0, -1040(%rbp)
.LBB3_1:                                # %for.cond
                                        # =>This Inner Loop Header: Depth=1
.Ltmp55:
	.loc	1 230 29 is_stmt 0              # ./gaussian.cu:230:29
	movl	-1040(%rbp), %eax
	.loc	1 230 40                        # ./gaussian.cu:230:40
	cmpl	-1036(%rbp), %eax
.Ltmp56:
	.loc	1 230 4                         # ./gaussian.cu:230:4
	jge	.LBB3_7
# %bb.2:                                # %for.body
                                        #   in Loop: Header=BB3_1 Depth=1
.Ltmp57:
	.loc	1 231 6 is_stmt 1               # ./gaussian.cu:231:6
	leaq	-1032(%rbp), %rdi
	xorl	%esi, %esi
	movl	$1032, %edx                     # imm = 0x408
	callq	memset@PLT
.Ltmp58:
	.loc	1 232 65                        # ./gaussian.cu:232:65
	movl	-1040(%rbp), %esi
	.loc	1 232 25 is_stmt 0              # ./gaussian.cu:232:25
	leaq	-1032(%rbp), %rdi
	callq	cudaGetDeviceProperties_v2@PLT
	movl	%eax, %ecx
.Ltmp59:
	.loc	1 232 10                        # ./gaussian.cu:232:10
	xorl	%eax, %eax
.Ltmp60:
	.loc	1 232 22                        # ./gaussian.cu:232:22
	cmpl	%ecx, %eax
.Ltmp61:
	.loc	1 232 10                        # ./gaussian.cu:232:10
	jne	.LBB3_4
# %bb.3:                                # %if.then
                                        #   in Loop: Header=BB3_1 Depth=1
.Ltmp62:
	.loc	1 233 54 is_stmt 1              # ./gaussian.cu:233:54
	leaq	-1032(%rbp), %rsi
	.loc	1 233 8 is_stmt 0               # ./gaussian.cu:233:8
	leaq	.L.str.30(%rip), %rdi
	movb	$0, %al
	callq	printf@PLT
	.loc	1 234 8 is_stmt 1               # ./gaussian.cu:234:8
	leaq	.L.str.31(%rip), %rdi
	movb	$0, %al
	callq	printf@PLT
	.loc	1 236 26                        # ./gaussian.cu:236:26
	movq	-744(%rbp), %rsi
	.loc	1 236 41 is_stmt 0              # ./gaussian.cu:236:41
	shrq	$10, %rsi
	.loc	1 235 8 is_stmt 1               # ./gaussian.cu:235:8
	leaq	.L.str.32(%rip), %rdi
	movb	$0, %al
	callq	printf@PLT
	.loc	1 238 26                        # ./gaussian.cu:238:26
	movq	-736(%rbp), %rsi
	.loc	1 238 44 is_stmt 0              # ./gaussian.cu:238:44
	shrq	$10, %rsi
	.loc	1 237 8 is_stmt 1               # ./gaussian.cu:237:8
	leaq	.L.str.33(%rip), %rdi
	movb	$0, %al
	callq	printf@PLT
	.loc	1 240 26                        # ./gaussian.cu:240:26
	movl	-728(%rbp), %esi
	.loc	1 239 8                         # ./gaussian.cu:239:8
	leaq	.L.str.34(%rip), %rdi
	movb	$0, %al
	callq	printf@PLT
	.loc	1 241 64                        # ./gaussian.cu:241:64
	movl	-724(%rbp), %esi
	.loc	1 241 8 is_stmt 0               # ./gaussian.cu:241:8
	leaq	.L.str.35(%rip), %rdi
	movb	$0, %al
	callq	printf@PLT
	.loc	1 242 65 is_stmt 1              # ./gaussian.cu:242:65
	movq	-720(%rbp), %rsi
	.loc	1 242 8 is_stmt 0               # ./gaussian.cu:242:8
	leaq	.L.str.36(%rip), %rdi
	movb	$0, %al
	callq	printf@PLT
	.loc	1 244 26 is_stmt 1              # ./gaussian.cu:244:26
	movl	-712(%rbp), %esi
	.loc	1 243 8                         # ./gaussian.cu:243:8
	leaq	.L.str.37(%rip), %rdi
	movb	$0, %al
	callq	printf@PLT
	.loc	1 246 15                        # ./gaussian.cu:246:15
	movl	-708(%rbp), %esi
	.loc	1 246 44 is_stmt 0              # ./gaussian.cu:246:44
	movl	-704(%rbp), %edx
	.loc	1 247 15 is_stmt 1              # ./gaussian.cu:247:15
	movl	-700(%rbp), %ecx
	.loc	1 245 8                         # ./gaussian.cu:245:8
	leaq	.L.str.38(%rip), %rdi
	movb	$0, %al
	callq	printf@PLT
	.loc	1 249 15                        # ./gaussian.cu:249:15
	movl	-696(%rbp), %esi
	.loc	1 249 42 is_stmt 0              # ./gaussian.cu:249:42
	movl	-692(%rbp), %edx
	.loc	1 250 15 is_stmt 1              # ./gaussian.cu:250:15
	movl	-688(%rbp), %ecx
	.loc	1 248 8                         # ./gaussian.cu:248:8
	leaq	.L.str.39(%rip), %rdi
	movb	$0, %al
	callq	printf@PLT
	.loc	1 252 26                        # ./gaussian.cu:252:26
	movq	-680(%rbp), %rsi
	.loc	1 251 8                         # ./gaussian.cu:251:8
	leaq	.L.str.40(%rip), %rdi
	movb	$0, %al
	callq	printf@PLT
	.loc	1 253 57                        # ./gaussian.cu:253:57
	movl	-672(%rbp), %esi
	.loc	1 253 75 is_stmt 0              # ./gaussian.cu:253:75
	movl	-668(%rbp), %edx
	.loc	1 253 8                         # ./gaussian.cu:253:8
	leaq	.L.str.41(%rip), %rdi
	movb	$0, %al
	callq	printf@PLT
	.loc	1 254 60 is_stmt 1              # ./gaussian.cu:254:60
	movl	-684(%rbp), %esi
	.loc	1 254 8 is_stmt 0               # ./gaussian.cu:254:8
	leaq	.L.str.42(%rip), %rdi
	movb	$0, %al
	callq	printf@PLT
	.loc	1 256 26 is_stmt 1              # ./gaussian.cu:256:26
	movq	-664(%rbp), %rsi
	.loc	1 255 8                         # ./gaussian.cu:255:8
	leaq	.L.str.43(%rip), %rdi
	movb	$0, %al
	callq	printf@PLT
	.loc	1 258 26                        # ./gaussian.cu:258:26
	movl	-648(%rbp), %ecx
	.loc	1 258 15 is_stmt 0              # ./gaussian.cu:258:15
	leaq	.L.str.46(%rip), %rsi
	leaq	.L.str.45(%rip), %rax
	cmpl	$0, %ecx
	cmovneq	%rax, %rsi
	.loc	1 257 8 is_stmt 1               # ./gaussian.cu:257:8
	leaq	.L.str.44(%rip), %rdi
	movb	$0, %al
	callq	printf@PLT
	.loc	1 260 26                        # ./gaussian.cu:260:26
	movl	-644(%rbp), %esi
	.loc	1 259 8                         # ./gaussian.cu:259:8
	leaq	.L.str.47(%rip), %rdi
	movb	$0, %al
	callq	printf@PLT
	.loc	1 261 6                         # ./gaussian.cu:261:6
	jmp	.LBB3_5
.Ltmp63:
.LBB3_4:                                # %if.else
                                        #   in Loop: Header=BB3_1 Depth=1
	.loc	1 262 42                        # ./gaussian.cu:262:42
	callq	cudaGetLastError@PLT
	movl	%eax, %edi
	.loc	1 262 23 is_stmt 0              # ./gaussian.cu:262:23
	callq	cudaGetErrorString@PLT
	movq	%rax, %rsi
	.loc	1 262 8                         # ./gaussian.cu:262:8
	leaq	.L.str.48(%rip), %rdi
	movb	$0, %al
	callq	printf@PLT
.Ltmp64:
.LBB3_5:                                # %if.end
                                        #   in Loop: Header=BB3_1 Depth=1
	.loc	1 263 4 is_stmt 1               # ./gaussian.cu:263:4
	jmp	.LBB3_6
.Ltmp65:
.LBB3_6:                                # %for.inc
                                        #   in Loop: Header=BB3_1 Depth=1
	.loc	1 230 53                        # ./gaussian.cu:230:53
	movl	-1040(%rbp), %eax
	addl	$1, %eax
	movl	%eax, -1040(%rbp)
	.loc	1 230 4 is_stmt 0               # ./gaussian.cu:230:4
	jmp	.LBB3_1
.Ltmp66:
.LBB3_7:                                # %for.end
	.loc	1 264 2 epilogue_begin is_stmt 1 # ./gaussian.cu:264:2
	addq	$1040, %rsp                     # imm = 0x410
	popq	%rbp
	.cfi_def_cfa %rsp, 8
	retq
.Ltmp67:
.Lfunc_end3:
	.size	_Z21PrintDevicePropertiesv, .Lfunc_end3-_Z21PrintDevicePropertiesv
	.cfi_endproc
                                        # -- End function
	.globl	_Z15InitProblemOncePc           # -- Begin function _Z15InitProblemOncePc
	.p2align	4, 0x90
	.type	_Z15InitProblemOncePc,@function
_Z15InitProblemOncePc:                  # @_Z15InitProblemOncePc
.Lfunc_begin4:
	.loc	1 274 0                         # ./gaussian.cu:274:0
	.cfi_startproc
# %bb.0:                                # %entry
	pushq	%rbp
	.cfi_def_cfa_offset 16
	.cfi_offset %rbp, -16
	movq	%rsp, %rbp
	.cfi_def_cfa_register %rbp
	subq	$16, %rsp
	movq	%rdi, -8(%rbp)
.Ltmp68:
	.loc	1 279 37 prologue_end           # ./gaussian.cu:279:37
	movq	-8(%rbp), %rsi
	.loc	1 279 4 is_stmt 0               # ./gaussian.cu:279:4
	leaq	.L.str.49(%rip), %rdi
	movb	$0, %al
	callq	printf@PLT
	.loc	1 281 15 is_stmt 1              # ./gaussian.cu:281:15
	movq	-8(%rbp), %rdi
	.loc	1 281 9 is_stmt 0               # ./gaussian.cu:281:9
	leaq	.L.str.50(%rip), %rsi
	callq	fopen@PLT
	.loc	1 281 7                         # ./gaussian.cu:281:7
	movq	%rax, fp(%rip)
	.loc	1 283 11 is_stmt 1              # ./gaussian.cu:283:11
	movq	fp(%rip), %rdi
	.loc	1 283 4 is_stmt 0               # ./gaussian.cu:283:4
	leaq	.L.str.51(%rip), %rsi
	leaq	Size(%rip), %rdx
	movb	$0, %al
	callq	__isoc99_fscanf@PLT
	.loc	1 285 24 is_stmt 1              # ./gaussian.cu:285:24
	movl	Size(%rip), %eax
	.loc	1 285 29 is_stmt 0              # ./gaussian.cu:285:29
	imull	Size(%rip), %eax
	.loc	1 285 24                        # ./gaussian.cu:285:24
	movslq	%eax, %rdi
	.loc	1 285 36                        # ./gaussian.cu:285:36
	shlq	$2, %rdi
	.loc	1 285 17                        # ./gaussian.cu:285:17
	callq	malloc@PLT
	.loc	1 285 6                         # ./gaussian.cu:285:6
	movq	%rax, a(%rip)
	.loc	1 287 12 is_stmt 1              # ./gaussian.cu:287:12
	movq	a(%rip), %rdi
	.loc	1 287 15 is_stmt 0              # ./gaussian.cu:287:15
	movl	Size(%rip), %esi
	.loc	1 287 21                        # ./gaussian.cu:287:21
	movl	Size(%rip), %edx
	.loc	1 287 4                         # ./gaussian.cu:287:4
	callq	_Z7InitMatPfii
	.loc	1 288 4 is_stmt 1               # ./gaussian.cu:288:4
	leaq	.L.str.52(%rip), %rdi
	movb	$0, %al
	callq	printf@PLT
	.loc	1 289 13                        # ./gaussian.cu:289:13
	movq	a(%rip), %rdi
	.loc	1 289 16 is_stmt 0              # ./gaussian.cu:289:16
	movl	Size(%rip), %esi
	.loc	1 289 22                        # ./gaussian.cu:289:22
	movl	Size(%rip), %edx
	.loc	1 289 4                         # ./gaussian.cu:289:4
	callq	_Z8PrintMatPfii
	.loc	1 290 24 is_stmt 1              # ./gaussian.cu:290:24
	movslq	Size(%rip), %rdi
	.loc	1 290 29 is_stmt 0              # ./gaussian.cu:290:29
	shlq	$2, %rdi
	.loc	1 290 17                        # ./gaussian.cu:290:17
	callq	malloc@PLT
	.loc	1 290 6                         # ./gaussian.cu:290:6
	movq	%rax, b(%rip)
	.loc	1 292 12 is_stmt 1              # ./gaussian.cu:292:12
	movq	b(%rip), %rdi
	.loc	1 292 15 is_stmt 0              # ./gaussian.cu:292:15
	movl	Size(%rip), %esi
	.loc	1 292 4                         # ./gaussian.cu:292:4
	callq	_Z7InitAryPfi
	.loc	1 293 4 is_stmt 1               # ./gaussian.cu:293:4
	leaq	.L.str.53(%rip), %rdi
	movb	$0, %al
	callq	printf@PLT
	.loc	1 294 13                        # ./gaussian.cu:294:13
	movq	b(%rip), %rdi
	.loc	1 294 16 is_stmt 0              # ./gaussian.cu:294:16
	movl	Size(%rip), %esi
	.loc	1 294 4                         # ./gaussian.cu:294:4
	callq	_Z8PrintAryPfi
	.loc	1 296 24 is_stmt 1              # ./gaussian.cu:296:24
	movl	Size(%rip), %eax
	.loc	1 296 29 is_stmt 0              # ./gaussian.cu:296:29
	imull	Size(%rip), %eax
	.loc	1 296 24                        # ./gaussian.cu:296:24
	movslq	%eax, %rdi
	.loc	1 296 36                        # ./gaussian.cu:296:36
	shlq	$2, %rdi
	.loc	1 296 17                        # ./gaussian.cu:296:17
	callq	malloc@PLT
	.loc	1 296 6                         # ./gaussian.cu:296:6
	movq	%rax, m(%rip)
	.loc	1 297 2 epilogue_begin is_stmt 1 # ./gaussian.cu:297:2
	addq	$16, %rsp
	popq	%rbp
	.cfi_def_cfa %rsp, 8
	retq
.Ltmp69:
.Lfunc_end4:
	.size	_Z15InitProblemOncePc, .Lfunc_end4-_Z15InitProblemOncePc
	.cfi_endproc
                                        # -- End function
	.globl	_Z10InitPerRunv                 # -- Begin function _Z10InitPerRunv
	.p2align	4, 0x90
	.type	_Z10InitPerRunv,@function
_Z10InitPerRunv:                        # @_Z10InitPerRunv
.Lfunc_begin5:
	.loc	1 304 0                         # ./gaussian.cu:304:0
	.cfi_startproc
# %bb.0:                                # %entry
	pushq	%rbp
	.cfi_def_cfa_offset 16
	.cfi_offset %rbp, -16
	movq	%rsp, %rbp
	.cfi_def_cfa_register %rbp
.Ltmp70:
	.loc	1 306 11 prologue_end           # ./gaussian.cu:306:11
	movl	$0, -4(%rbp)
.LBB5_1:                                # %for.cond
                                        # =>This Inner Loop Header: Depth=1
.Ltmp71:
	.loc	1 306 16 is_stmt 0              # ./gaussian.cu:306:16
	movl	-4(%rbp), %eax
	.loc	1 306 20                        # ./gaussian.cu:306:20
	movl	Size(%rip), %ecx
	.loc	1 306 25                        # ./gaussian.cu:306:25
	imull	Size(%rip), %ecx
	.loc	1 306 18                        # ./gaussian.cu:306:18
	cmpl	%ecx, %eax
.Ltmp72:
	.loc	1 306 4                         # ./gaussian.cu:306:4
	jge	.LBB5_4
# %bb.2:                                # %for.body
                                        #   in Loop: Header=BB5_1 Depth=1
.Ltmp73:
	.loc	1 307 8 is_stmt 1               # ./gaussian.cu:307:8
	movq	m(%rip), %rax
	.loc	1 307 10 is_stmt 0              # ./gaussian.cu:307:10
	movslq	-4(%rbp), %rcx
	.loc	1 307 15                        # ./gaussian.cu:307:15
	xorps	%xmm0, %xmm0
	movss	%xmm0, (%rax,%rcx,4)
# %bb.3:                                # %for.inc
                                        #   in Loop: Header=BB5_1 Depth=1
	.loc	1 306 34 is_stmt 1              # ./gaussian.cu:306:34
	movl	-4(%rbp), %eax
	addl	$1, %eax
	movl	%eax, -4(%rbp)
	.loc	1 306 4 is_stmt 0               # ./gaussian.cu:306:4
	jmp	.LBB5_1
.Ltmp74:
.LBB5_4:                                # %for.end
	.loc	1 308 2 epilogue_begin is_stmt 1 # ./gaussian.cu:308:2
	popq	%rbp
	.cfi_def_cfa %rsp, 8
	retq
.Ltmp75:
.Lfunc_end5:
	.size	_Z10InitPerRunv, .Lfunc_end5-_Z10InitPerRunv
	.cfi_endproc
                                        # -- End function
	.globl	_Z10ForwardSubv                 # -- Begin function _Z10ForwardSubv
	.p2align	4, 0x90
	.type	_Z10ForwardSubv,@function
_Z10ForwardSubv:                        # @_Z10ForwardSubv
.Lfunc_begin6:
	.loc	1 357 0                         # ./gaussian.cu:357:0
	.cfi_startproc
# %bb.0:                                # %entry
	pushq	%rbp
	.cfi_def_cfa_offset 16
	.cfi_offset %rbp, -16
	movq	%rsp, %rbp
	.cfi_def_cfa_register %rbp
	subq	$272, %rsp                      # imm = 0x110
.Ltmp76:
	.loc	1 361 8 prologue_end            # ./gaussian.cu:361:8
	movl	$1, -36(%rbp)
	.loc	1 362 8                         # ./gaussian.cu:362:8
	movl	$2, -40(%rbp)
	.loc	1 363 8                         # ./gaussian.cu:363:8
	movl	$3, -44(%rbp)
	.loc	1 364 8                         # ./gaussian.cu:364:8
	movl	$4, -48(%rbp)
	.loc	1 365 8                         # ./gaussian.cu:365:8
	movl	$5, -52(%rbp)
	.loc	1 366 8                         # ./gaussian.cu:366:8
	movl	$6, -56(%rbp)
	.loc	1 372 33                        # ./gaussian.cu:372:33
	movl	Size(%rip), %eax
	.loc	1 372 38 is_stmt 0              # ./gaussian.cu:372:38
	imull	Size(%rip), %eax
	.loc	1 372 33                        # ./gaussian.cu:372:33
	movslq	%eax, %rsi
	.loc	1 372 45                        # ./gaussian.cu:372:45
	shlq	$2, %rsi
	.loc	1 372 4                         # ./gaussian.cu:372:4
	leaq	-16(%rbp), %rdi
	callq	cudaMalloc@PLT
	.loc	1 374 33 is_stmt 1              # ./gaussian.cu:374:33
	movl	Size(%rip), %eax
	.loc	1 374 38 is_stmt 0              # ./gaussian.cu:374:38
	imull	Size(%rip), %eax
	.loc	1 374 33                        # ./gaussian.cu:374:33
	movslq	%eax, %rsi
	.loc	1 374 45                        # ./gaussian.cu:374:45
	shlq	$2, %rsi
	.loc	1 374 4                         # ./gaussian.cu:374:4
	leaq	-24(%rbp), %rdi
	callq	cudaMalloc@PLT
	.loc	1 376 33 is_stmt 1              # ./gaussian.cu:376:33
	movslq	Size(%rip), %rsi
	.loc	1 376 38 is_stmt 0              # ./gaussian.cu:376:38
	shlq	$2, %rsi
	.loc	1 376 4                         # ./gaussian.cu:376:4
	leaq	-32(%rbp), %rdi
	callq	cudaMalloc@PLT
	.loc	1 379 15 is_stmt 1              # ./gaussian.cu:379:15
	movq	-16(%rbp), %rdi
	.loc	1 379 23 is_stmt 0              # ./gaussian.cu:379:23
	movq	m(%rip), %rsi
	.loc	1 379 26                        # ./gaussian.cu:379:26
	movl	Size(%rip), %eax
	.loc	1 379 31                        # ./gaussian.cu:379:31
	imull	Size(%rip), %eax
	.loc	1 379 26                        # ./gaussian.cu:379:26
	movslq	%eax, %rdx
	.loc	1 379 38                        # ./gaussian.cu:379:38
	shlq	$2, %rdx
	.loc	1 379 4                         # ./gaussian.cu:379:4
	movl	$1, %ecx
	callq	cudaMemcpy@PLT
	.loc	1 380 15 is_stmt 1              # ./gaussian.cu:380:15
	movq	-24(%rbp), %rdi
	.loc	1 380 23 is_stmt 0              # ./gaussian.cu:380:23
	movq	a(%rip), %rsi
	.loc	1 380 26                        # ./gaussian.cu:380:26
	movl	Size(%rip), %eax
	.loc	1 380 31                        # ./gaussian.cu:380:31
	imull	Size(%rip), %eax
	.loc	1 380 26                        # ./gaussian.cu:380:26
	movslq	%eax, %rdx
	.loc	1 380 38                        # ./gaussian.cu:380:38
	shlq	$2, %rdx
	.loc	1 380 4                         # ./gaussian.cu:380:4
	movl	$1, %ecx
	callq	cudaMemcpy@PLT
	.loc	1 381 15 is_stmt 1              # ./gaussian.cu:381:15
	movq	-32(%rbp), %rdi
	.loc	1 381 23 is_stmt 0              # ./gaussian.cu:381:23
	movq	b(%rip), %rsi
	.loc	1 381 26                        # ./gaussian.cu:381:26
	movslq	Size(%rip), %rdx
	.loc	1 381 31                        # ./gaussian.cu:381:31
	shlq	$2, %rdx
	.loc	1 381 4                         # ./gaussian.cu:381:4
	movl	$1, %ecx
	callq	cudaMemcpy@PLT
	.loc	1 385 15 is_stmt 1              # ./gaussian.cu:385:15
	movl	$512, -60(%rbp)                 # imm = 0x200
	.loc	1 386 17                        # ./gaussian.cu:386:17
	movl	Size(%rip), %eax
	.loc	1 386 22 is_stmt 0              # ./gaussian.cu:386:22
	cltd
	idivl	-60(%rbp)
	movl	%eax, -272(%rbp)                # 4-byte Spill
	.loc	1 386 41                        # ./gaussian.cu:386:41
	movl	Size(%rip), %eax
	.loc	1 386 46                        # ./gaussian.cu:386:46
	cltd
	idivl	-60(%rbp)
	movl	-272(%rbp), %eax                # 4-byte Reload
	.loc	1 386 40                        # ./gaussian.cu:386:40
	cmpl	$0, %edx
	setne	%sil
	.loc	1 386 39                        # ./gaussian.cu:386:39
	xorb	$-1, %sil
	movl	$1, %ecx
	xorl	%edx, %edx
	testb	$1, %sil
	cmovnel	%edx, %ecx
	.loc	1 386 36                        # ./gaussian.cu:386:36
	addl	%ecx, %eax
	.loc	1 386 14                        # ./gaussian.cu:386:14
	movl	%eax, -64(%rbp)
	.loc	1 387 33 is_stmt 1              # ./gaussian.cu:387:33
	movl	-64(%rbp), %esi
	.loc	1 387 4 is_stmt 0               # ./gaussian.cu:387:4
	leaq	.L.str.54(%rip), %rdi
	movb	$0, %al
	callq	printf@PLT
	.loc	1 389 18 is_stmt 1              # ./gaussian.cu:389:18
	movl	-60(%rbp), %esi
	.loc	1 389 9 is_stmt 0               # ./gaussian.cu:389:9
	leaq	-76(%rbp), %rdi
	movl	$1, %ecx
	movl	%ecx, %edx
	callq	_ZN4dim3C2Ejjj
	.loc	1 390 17 is_stmt 1              # ./gaussian.cu:390:17
	movl	-64(%rbp), %esi
	.loc	1 390 9 is_stmt 0               # ./gaussian.cu:390:9
	leaq	-88(%rbp), %rdi
	movl	$1, %ecx
	movl	%ecx, %edx
	callq	_ZN4dim3C2Ejjj
	.loc	1 394 16 is_stmt 1              # ./gaussian.cu:394:16
	movl	$16, -92(%rbp)
	.loc	1 395 18                        # ./gaussian.cu:395:18
	movl	Size(%rip), %eax
	.loc	1 395 23 is_stmt 0              # ./gaussian.cu:395:23
	cltd
	idivl	-92(%rbp)
	movl	%eax, -268(%rbp)                # 4-byte Spill
	.loc	1 395 43                        # ./gaussian.cu:395:43
	movl	Size(%rip), %eax
	.loc	1 395 48                        # ./gaussian.cu:395:48
	cltd
	idivl	-92(%rbp)
	movl	-268(%rbp), %eax                # 4-byte Reload
	movl	%edx, %esi
	.loc	1 395 43                        # ./gaussian.cu:395:43
	movl	$1, %ecx
	xorl	%edx, %edx
	cmpl	$0, %esi
	cmovnel	%edx, %ecx
	.loc	1 395 42                        # ./gaussian.cu:395:42
	cmpl	$0, %ecx
	setne	%cl
	.loc	1 395 41                        # ./gaussian.cu:395:41
	xorb	$-1, %cl
	.loc	1 395 40                        # ./gaussian.cu:395:40
	andb	$1, %cl
	movzbl	%cl, %ecx
	.loc	1 395 38                        # ./gaussian.cu:395:38
	addl	%ecx, %eax
	.loc	1 395 15                        # ./gaussian.cu:395:15
	movl	%eax, -96(%rbp)
	.loc	1 397 20 is_stmt 1              # ./gaussian.cu:397:20
	movl	-92(%rbp), %esi
	.loc	1 397 33 is_stmt 0              # ./gaussian.cu:397:33
	movl	-92(%rbp), %edx
	.loc	1 397 9                         # ./gaussian.cu:397:9
	leaq	-108(%rbp), %rdi
	movl	$1, %ecx
	callq	_ZN4dim3C2Ejjj
	.loc	1 399 29 is_stmt 1              # ./gaussian.cu:399:29
	movl	-92(%rbp), %esi
	.loc	1 399 4 is_stmt 0               # ./gaussian.cu:399:4
	leaq	.L.str.55(%rip), %rdi
	movb	$0, %al
	callq	printf@PLT
	.loc	1 400 19 is_stmt 1              # ./gaussian.cu:400:19
	movl	-96(%rbp), %esi
	.loc	1 400 31 is_stmt 0              # ./gaussian.cu:400:31
	movl	-96(%rbp), %edx
	.loc	1 400 9                         # ./gaussian.cu:400:9
	leaq	-120(%rbp), %rdi
	movl	$1, %ecx
	callq	_ZN4dim3C2Ejjj
	.loc	1 405 47 is_stmt 1              # ./gaussian.cu:405:47
	movl	-64(%rbp), %esi
	.loc	1 405 58 is_stmt 0              # ./gaussian.cu:405:58
	movl	-96(%rbp), %edx
	.loc	1 405 4                         # ./gaussian.cu:405:4
	leaq	.L.str.56(%rip), %rdi
	movb	$0, %al
	callq	printf@PLT
	.loc	1 408 4 is_stmt 1               # ./gaussian.cu:408:4
	leaq	-136(%rbp), %rdi
	xorl	%eax, %eax
	movl	%eax, %esi
	callq	gettimeofday@PLT
.Ltmp77:
	.loc	1 409 11                        # ./gaussian.cu:409:11
	movl	$0, -4(%rbp)
.LBB6_1:                                # %for.cond
                                        # =>This Inner Loop Header: Depth=1
.Ltmp78:
	.loc	1 409 16 is_stmt 0              # ./gaussian.cu:409:16
	movl	-4(%rbp), %eax
	.loc	1 409 21                        # ./gaussian.cu:409:21
	movl	Size(%rip), %ecx
	.loc	1 409 26                        # ./gaussian.cu:409:26
	subl	$1, %ecx
	.loc	1 409 18                        # ./gaussian.cu:409:18
	cmpl	%ecx, %eax
.Ltmp79:
	.loc	1 409 4                         # ./gaussian.cu:409:4
	jge	.LBB6_8
# %bb.2:                                # %for.body
                                        #   in Loop: Header=BB6_1 Depth=1
.Ltmp80:
	.loc	1 410 13 is_stmt 1              # ./gaussian.cu:410:13
	movq	-88(%rbp), %rax
	movq	%rax, -148(%rbp)
	movl	-80(%rbp), %eax
	movl	%eax, -140(%rbp)
	.loc	1 410 22 is_stmt 0              # ./gaussian.cu:410:22
	movq	-76(%rbp), %rax
	movq	%rax, -160(%rbp)
	movl	-68(%rbp), %eax
	movl	%eax, -152(%rbp)
	.loc	1 410 10                        # ./gaussian.cu:410:10
	movq	-148(%rbp), %rax
	movq	%rax, -176(%rbp)
	movl	-140(%rbp), %eax
	movl	%eax, -168(%rbp)
	movq	-176(%rbp), %rdi
	movl	-168(%rbp), %esi
	movq	-160(%rbp), %rax
	movq	%rax, -192(%rbp)
	movl	-152(%rbp), %eax
	movl	%eax, -184(%rbp)
	movq	-192(%rbp), %rdx
	movl	-184(%rbp), %ecx
	xorl	%eax, %eax
	movl	%eax, %r9d
	movq	%r9, %r8
	callq	__cudaPushCallConfiguration@PLT
	cmpl	$0, %eax
	.loc	1 410 6                         # ./gaussian.cu:410:6
	jne	.LBB6_4
# %bb.3:                                # %kcall.configok
                                        #   in Loop: Header=BB6_1 Depth=1
	.loc	1 410 34                        # ./gaussian.cu:410:34
	movq	-16(%rbp), %rdi
	.loc	1 410 42                        # ./gaussian.cu:410:42
	movq	-24(%rbp), %rsi
	.loc	1 410 50                        # ./gaussian.cu:410:50
	movl	Size(%rip), %edx
	.loc	1 410 56                        # ./gaussian.cu:410:56
	movl	-4(%rbp), %ecx
	.loc	1 410 6                         # ./gaussian.cu:410:6
	callq	_Z19__device_stub__Fan1PfS_ii
.LBB6_4:                                # %kcall.end
                                        #   in Loop: Header=BB6_1 Depth=1
	.loc	1 411 6 is_stmt 1               # ./gaussian.cu:411:6
	callq	cudaDeviceSynchronize@PLT
	.loc	1 412 13                        # ./gaussian.cu:412:13
	movq	-120(%rbp), %rax
	movq	%rax, -204(%rbp)
	movl	-112(%rbp), %eax
	movl	%eax, -196(%rbp)
	.loc	1 412 24 is_stmt 0              # ./gaussian.cu:412:24
	movq	-108(%rbp), %rax
	movq	%rax, -216(%rbp)
	movl	-100(%rbp), %eax
	movl	%eax, -208(%rbp)
	.loc	1 412 10                        # ./gaussian.cu:412:10
	movq	-204(%rbp), %rax
	movq	%rax, -232(%rbp)
	movl	-196(%rbp), %eax
	movl	%eax, -224(%rbp)
	movq	-232(%rbp), %rdi
	movl	-224(%rbp), %esi
	movq	-216(%rbp), %rax
	movq	%rax, -248(%rbp)
	movl	-208(%rbp), %eax
	movl	%eax, -240(%rbp)
	movq	-248(%rbp), %rdx
	movl	-240(%rbp), %ecx
	xorl	%eax, %eax
	movl	%eax, %r9d
	movq	%r9, %r8
	callq	__cudaPushCallConfiguration@PLT
	cmpl	$0, %eax
	.loc	1 412 6                         # ./gaussian.cu:412:6
	jne	.LBB6_6
# %bb.5:                                # %kcall.configok40
                                        #   in Loop: Header=BB6_1 Depth=1
	.loc	1 412 38                        # ./gaussian.cu:412:38
	movq	-16(%rbp), %rdi
	.loc	1 412 46                        # ./gaussian.cu:412:46
	movq	-24(%rbp), %rsi
	.loc	1 412 54                        # ./gaussian.cu:412:54
	movq	-32(%rbp), %rdx
	.loc	1 412 62                        # ./gaussian.cu:412:62
	movl	Size(%rip), %ecx
	.loc	1 412 68                        # ./gaussian.cu:412:68
	movl	Size(%rip), %r8d
	.loc	1 412 73                        # ./gaussian.cu:412:73
	subl	-4(%rbp), %r8d
	.loc	1 412 78                        # ./gaussian.cu:412:78
	movl	-4(%rbp), %r9d
	.loc	1 412 6                         # ./gaussian.cu:412:6
	callq	_Z19__device_stub__Fan2PfS_S_iii
.LBB6_6:                                # %kcall.end42
                                        #   in Loop: Header=BB6_1 Depth=1
	.loc	1 413 6 is_stmt 1               # ./gaussian.cu:413:6
	callq	cudaDeviceSynchronize@PLT
	.loc	1 414 6                         # ./gaussian.cu:414:6
	leaq	.L.str.57(%rip), %rdi
	callq	_Z14checkCUDAErrorPKc
.Ltmp81:
# %bb.7:                                # %for.inc
                                        #   in Loop: Header=BB6_1 Depth=1
	.loc	1 409 33                        # ./gaussian.cu:409:33
	movl	-4(%rbp), %eax
	addl	$1, %eax
	movl	%eax, -4(%rbp)
	.loc	1 409 4 is_stmt 0               # ./gaussian.cu:409:4
	jmp	.LBB6_1
.Ltmp82:
.LBB6_8:                                # %for.end
	.loc	1 418 4 is_stmt 1               # ./gaussian.cu:418:4
	leaq	-264(%rbp), %rdi
	xorl	%eax, %eax
	movl	%eax, %esi
	callq	gettimeofday@PLT
	.loc	1 419 39                        # ./gaussian.cu:419:39
	imulq	$1000000, -264(%rbp), %rax      # imm = 0xF4240
	.loc	1 419 49 is_stmt 0              # ./gaussian.cu:419:49
	addq	-256(%rbp), %rax
	.loc	1 420 41 is_stmt 1              # ./gaussian.cu:420:41
	imulq	$1000000, -136(%rbp), %rcx      # imm = 0xF4240
	.loc	1 420 51 is_stmt 0              # ./gaussian.cu:420:51
	addq	-128(%rbp), %rcx
	.loc	1 419 69 is_stmt 1              # ./gaussian.cu:419:69
	subq	%rcx, %rax
                                        # kill: def $eax killed $eax killed $rax
	.loc	1 419 20 is_stmt 0              # ./gaussian.cu:419:20
	movl	%eax, totalKernelTime(%rip)
	.loc	1 428 15 is_stmt 1              # ./gaussian.cu:428:15
	movq	m(%rip), %rdi
	.loc	1 428 18 is_stmt 0              # ./gaussian.cu:428:18
	movq	-16(%rbp), %rsi
	.loc	1 428 26                        # ./gaussian.cu:428:26
	movl	Size(%rip), %eax
	.loc	1 428 31                        # ./gaussian.cu:428:31
	imull	Size(%rip), %eax
	.loc	1 428 26                        # ./gaussian.cu:428:26
	movslq	%eax, %rdx
	.loc	1 428 38                        # ./gaussian.cu:428:38
	shlq	$2, %rdx
	.loc	1 428 4                         # ./gaussian.cu:428:4
	movl	$2, %ecx
	callq	cudaMemcpy@PLT
	.loc	1 429 15 is_stmt 1              # ./gaussian.cu:429:15
	movq	a(%rip), %rdi
	.loc	1 429 18 is_stmt 0              # ./gaussian.cu:429:18
	movq	-24(%rbp), %rsi
	.loc	1 429 26                        # ./gaussian.cu:429:26
	movl	Size(%rip), %eax
	.loc	1 429 31                        # ./gaussian.cu:429:31
	imull	Size(%rip), %eax
	.loc	1 429 26                        # ./gaussian.cu:429:26
	movslq	%eax, %rdx
	.loc	1 429 38                        # ./gaussian.cu:429:38
	shlq	$2, %rdx
	.loc	1 429 4                         # ./gaussian.cu:429:4
	movl	$2, %ecx
	callq	cudaMemcpy@PLT
	.loc	1 430 15 is_stmt 1              # ./gaussian.cu:430:15
	movq	b(%rip), %rdi
	.loc	1 430 18 is_stmt 0              # ./gaussian.cu:430:18
	movq	-32(%rbp), %rsi
	.loc	1 430 26                        # ./gaussian.cu:430:26
	movslq	Size(%rip), %rdx
	.loc	1 430 31                        # ./gaussian.cu:430:31
	shlq	$2, %rdx
	.loc	1 430 4                         # ./gaussian.cu:430:4
	movl	$2, %ecx
	callq	cudaMemcpy@PLT
	.loc	1 431 13 is_stmt 1              # ./gaussian.cu:431:13
	movq	-16(%rbp), %rdi
	.loc	1 431 4 is_stmt 0               # ./gaussian.cu:431:4
	callq	cudaFree@PLT
	.loc	1 432 13 is_stmt 1              # ./gaussian.cu:432:13
	movq	-24(%rbp), %rdi
	.loc	1 432 4 is_stmt 0               # ./gaussian.cu:432:4
	callq	cudaFree@PLT
	.loc	1 433 13 is_stmt 1              # ./gaussian.cu:433:13
	movq	-32(%rbp), %rdi
	.loc	1 433 4 is_stmt 0               # ./gaussian.cu:433:4
	callq	cudaFree@PLT
	.loc	1 434 2 epilogue_begin is_stmt 1 # ./gaussian.cu:434:2
	addq	$272, %rsp                      # imm = 0x110
	popq	%rbp
	.cfi_def_cfa %rsp, 8
	retq
.Ltmp83:
.Lfunc_end6:
	.size	_Z10ForwardSubv, .Lfunc_end6-_Z10ForwardSubv
	.cfi_endproc
                                        # -- End function
	.globl	_Z8PrintMatPfii                 # -- Begin function _Z8PrintMatPfii
	.p2align	4, 0x90
	.type	_Z8PrintMatPfii,@function
_Z8PrintMatPfii:                        # @_Z8PrintMatPfii
.Lfunc_begin7:
	.loc	1 471 0                         # ./gaussian.cu:471:0
	.cfi_startproc
# %bb.0:                                # %entry
	pushq	%rbp
	.cfi_def_cfa_offset 16
	.cfi_offset %rbp, -16
	movq	%rsp, %rbp
	.cfi_def_cfa_register %rbp
	subq	$32, %rsp
	movq	%rdi, -8(%rbp)
	movl	%esi, -12(%rbp)
	movl	%edx, -16(%rbp)
.Ltmp84:
	.loc	1 475 11 prologue_end           # ./gaussian.cu:475:11
	movl	$0, -20(%rbp)
.LBB7_1:                                # %for.cond
                                        # =>This Loop Header: Depth=1
                                        #     Child Loop BB7_3 Depth 2
.Ltmp85:
	.loc	1 475 16 is_stmt 0              # ./gaussian.cu:475:16
	movl	-20(%rbp), %eax
	.loc	1 475 18                        # ./gaussian.cu:475:18
	cmpl	-12(%rbp), %eax
.Ltmp86:
	.loc	1 475 4                         # ./gaussian.cu:475:4
	jge	.LBB7_8
# %bb.2:                                # %for.body
                                        #   in Loop: Header=BB7_1 Depth=1
.Ltmp87:
	.loc	1 476 13 is_stmt 1              # ./gaussian.cu:476:13
	movl	$0, -24(%rbp)
.LBB7_3:                                # %for.cond1
                                        #   Parent Loop BB7_1 Depth=1
                                        # =>  This Inner Loop Header: Depth=2
.Ltmp88:
	.loc	1 476 18 is_stmt 0              # ./gaussian.cu:476:18
	movl	-24(%rbp), %eax
	.loc	1 476 20                        # ./gaussian.cu:476:20
	cmpl	-16(%rbp), %eax
.Ltmp89:
	.loc	1 476 6                         # ./gaussian.cu:476:6
	jge	.LBB7_6
# %bb.4:                                # %for.body3
                                        #   in Loop: Header=BB7_3 Depth=2
.Ltmp90:
	.loc	1 477 27 is_stmt 1              # ./gaussian.cu:477:27
	movq	-8(%rbp), %rax
	.loc	1 477 33 is_stmt 0              # ./gaussian.cu:477:33
	movl	Size(%rip), %ecx
	.loc	1 477 38                        # ./gaussian.cu:477:38
	imull	-20(%rbp), %ecx
	.loc	1 477 31                        # ./gaussian.cu:477:31
	movslq	%ecx, %rcx
	shlq	$2, %rcx
	addq	%rcx, %rax
	.loc	1 477 42                        # ./gaussian.cu:477:42
	movslq	-24(%rbp), %rcx
	.loc	1 477 25                        # ./gaussian.cu:477:25
	movss	(%rax,%rcx,4), %xmm0            # xmm0 = mem[0],zero,zero,zero
	cvtss2sd	%xmm0, %xmm0
	.loc	1 477 8                         # ./gaussian.cu:477:8
	leaq	.L.str.59(%rip), %rdi
	movb	$1, %al
	callq	printf@PLT
.Ltmp91:
# %bb.5:                                # %for.inc
                                        #   in Loop: Header=BB7_3 Depth=2
	.loc	1 476 29 is_stmt 1              # ./gaussian.cu:476:29
	movl	-24(%rbp), %eax
	addl	$1, %eax
	movl	%eax, -24(%rbp)
	.loc	1 476 6 is_stmt 0               # ./gaussian.cu:476:6
	jmp	.LBB7_3
.Ltmp92:
.LBB7_6:                                # %for.end
                                        #   in Loop: Header=BB7_1 Depth=1
	.loc	1 479 6 is_stmt 1               # ./gaussian.cu:479:6
	leaq	.L.str.14(%rip), %rdi
	movb	$0, %al
	callq	printf@PLT
.Ltmp93:
# %bb.7:                                # %for.inc7
                                        #   in Loop: Header=BB7_1 Depth=1
	.loc	1 475 27                        # ./gaussian.cu:475:27
	movl	-20(%rbp), %eax
	addl	$1, %eax
	movl	%eax, -20(%rbp)
	.loc	1 475 4 is_stmt 0               # ./gaussian.cu:475:4
	jmp	.LBB7_1
.Ltmp94:
.LBB7_8:                                # %for.end9
	.loc	1 481 4 is_stmt 1               # ./gaussian.cu:481:4
	leaq	.L.str.14(%rip), %rdi
	movb	$0, %al
	callq	printf@PLT
	.loc	1 482 2 epilogue_begin          # ./gaussian.cu:482:2
	addq	$32, %rsp
	popq	%rbp
	.cfi_def_cfa %rsp, 8
	retq
.Ltmp95:
.Lfunc_end7:
	.size	_Z8PrintMatPfii, .Lfunc_end7-_Z8PrintMatPfii
	.cfi_endproc
                                        # -- End function
	.globl	_Z8PrintAryPfi                  # -- Begin function _Z8PrintAryPfi
	.p2align	4, 0x90
	.type	_Z8PrintAryPfi,@function
_Z8PrintAryPfi:                         # @_Z8PrintAryPfi
.Lfunc_begin8:
	.loc	1 501 0                         # ./gaussian.cu:501:0
	.cfi_startproc
# %bb.0:                                # %entry
	pushq	%rbp
	.cfi_def_cfa_offset 16
	.cfi_offset %rbp, -16
	movq	%rsp, %rbp
	.cfi_def_cfa_register %rbp
	subq	$16, %rsp
	movq	%rdi, -8(%rbp)
	movl	%esi, -12(%rbp)
.Ltmp96:
	.loc	1 503 11 prologue_end           # ./gaussian.cu:503:11
	movl	$0, -16(%rbp)
.LBB8_1:                                # %for.cond
                                        # =>This Inner Loop Header: Depth=1
.Ltmp97:
	.loc	1 503 16 is_stmt 0              # ./gaussian.cu:503:16
	movl	-16(%rbp), %eax
	.loc	1 503 18                        # ./gaussian.cu:503:18
	cmpl	-12(%rbp), %eax
.Ltmp98:
	.loc	1 503 4                         # ./gaussian.cu:503:4
	jge	.LBB8_4
# %bb.2:                                # %for.body
                                        #   in Loop: Header=BB8_1 Depth=1
.Ltmp99:
	.loc	1 504 22 is_stmt 1              # ./gaussian.cu:504:22
	movq	-8(%rbp), %rax
	movslq	-16(%rbp), %rcx
	movss	(%rax,%rcx,4), %xmm0            # xmm0 = mem[0],zero,zero,zero
	cvtss2sd	%xmm0, %xmm0
	.loc	1 504 6 is_stmt 0               # ./gaussian.cu:504:6
	leaq	.L.str.60(%rip), %rdi
	movb	$1, %al
	callq	printf@PLT
.Ltmp100:
# %bb.3:                                # %for.inc
                                        #   in Loop: Header=BB8_1 Depth=1
	.loc	1 503 31 is_stmt 1              # ./gaussian.cu:503:31
	movl	-16(%rbp), %eax
	addl	$1, %eax
	movl	%eax, -16(%rbp)
	.loc	1 503 4 is_stmt 0               # ./gaussian.cu:503:4
	jmp	.LBB8_1
.Ltmp101:
.LBB8_4:                                # %for.end
	.loc	1 506 4 is_stmt 1               # ./gaussian.cu:506:4
	leaq	.L.str.61(%rip), %rdi
	movb	$0, %al
	callq	printf@PLT
	.loc	1 507 2 epilogue_begin          # ./gaussian.cu:507:2
	addq	$16, %rsp
	popq	%rbp
	.cfi_def_cfa %rsp, 8
	retq
.Ltmp102:
.Lfunc_end8:
	.size	_Z8PrintAryPfi, .Lfunc_end8-_Z8PrintAryPfi
	.cfi_endproc
                                        # -- End function
	.globl	_Z7BackSubv                     # -- Begin function _Z7BackSubv
	.p2align	4, 0x90
	.type	_Z7BackSubv,@function
_Z7BackSubv:                            # @_Z7BackSubv
.Lfunc_begin9:
	.loc	1 441 0                         # ./gaussian.cu:441:0
	.cfi_startproc
# %bb.0:                                # %entry
	pushq	%rbp
	.cfi_def_cfa_offset 16
	.cfi_offset %rbp, -16
	movq	%rsp, %rbp
	.cfi_def_cfa_register %rbp
	subq	$16, %rsp
.Ltmp103:
	.loc	1 443 31 prologue_end           # ./gaussian.cu:443:31
	movslq	Size(%rip), %rdi
	.loc	1 443 36 is_stmt 0              # ./gaussian.cu:443:36
	shlq	$2, %rdi
	.loc	1 443 24                        # ./gaussian.cu:443:24
	callq	malloc@PLT
	.loc	1 443 13                        # ./gaussian.cu:443:13
	movq	%rax, finalVec(%rip)
.Ltmp104:
	.loc	1 446 11 is_stmt 1              # ./gaussian.cu:446:11
	movl	$0, -4(%rbp)
.LBB9_1:                                # %for.cond
                                        # =>This Loop Header: Depth=1
                                        #     Child Loop BB9_3 Depth 2
.Ltmp105:
	.loc	1 446 16 is_stmt 0              # ./gaussian.cu:446:16
	movl	-4(%rbp), %eax
	.loc	1 446 18                        # ./gaussian.cu:446:18
	cmpl	Size(%rip), %eax
.Ltmp106:
	.loc	1 446 4                         # ./gaussian.cu:446:4
	jge	.LBB9_8
# %bb.2:                                # %for.body
                                        #   in Loop: Header=BB9_1 Depth=1
.Ltmp107:
	.loc	1 447 31 is_stmt 1              # ./gaussian.cu:447:31
	movq	b(%rip), %rax
	.loc	1 447 33 is_stmt 0              # ./gaussian.cu:447:33
	movl	Size(%rip), %ecx
	.loc	1 447 38                        # ./gaussian.cu:447:38
	subl	-4(%rbp), %ecx
	.loc	1 447 42                        # ./gaussian.cu:447:42
	subl	$1, %ecx
	.loc	1 447 31                        # ./gaussian.cu:447:31
	movslq	%ecx, %rcx
	movss	(%rax,%rcx,4), %xmm0            # xmm0 = mem[0],zero,zero,zero
	.loc	1 447 6                         # ./gaussian.cu:447:6
	movq	finalVec(%rip), %rax
	.loc	1 447 15                        # ./gaussian.cu:447:15
	movl	Size(%rip), %ecx
	.loc	1 447 20                        # ./gaussian.cu:447:20
	subl	-4(%rbp), %ecx
	.loc	1 447 24                        # ./gaussian.cu:447:24
	subl	$1, %ecx
	.loc	1 447 6                         # ./gaussian.cu:447:6
	movslq	%ecx, %rcx
	.loc	1 447 29                        # ./gaussian.cu:447:29
	movss	%xmm0, (%rax,%rcx,4)
.Ltmp108:
	.loc	1 448 13 is_stmt 1              # ./gaussian.cu:448:13
	movl	$0, -8(%rbp)
.LBB9_3:                                # %for.cond6
                                        #   Parent Loop BB9_1 Depth=1
                                        # =>  This Inner Loop Header: Depth=2
.Ltmp109:
	.loc	1 448 18 is_stmt 0              # ./gaussian.cu:448:18
	movl	-8(%rbp), %eax
	.loc	1 448 20                        # ./gaussian.cu:448:20
	cmpl	-4(%rbp), %eax
.Ltmp110:
	.loc	1 448 6                         # ./gaussian.cu:448:6
	jge	.LBB9_6
# %bb.4:                                # %for.body8
                                        #   in Loop: Header=BB9_3 Depth=2
.Ltmp111:
	.loc	1 449 36 is_stmt 1              # ./gaussian.cu:449:36
	movq	a(%rip), %rax
	.loc	1 449 40 is_stmt 0              # ./gaussian.cu:449:40
	movl	Size(%rip), %ecx
	.loc	1 449 48                        # ./gaussian.cu:449:48
	movl	Size(%rip), %edx
	.loc	1 449 53                        # ./gaussian.cu:449:53
	subl	-4(%rbp), %edx
	.loc	1 449 57                        # ./gaussian.cu:449:57
	subl	$1, %edx
	.loc	1 449 45                        # ./gaussian.cu:449:45
	imull	%edx, %ecx
	.loc	1 449 38                        # ./gaussian.cu:449:38
	movslq	%ecx, %rcx
	shlq	$2, %rcx
	addq	%rcx, %rax
	.loc	1 449 65                        # ./gaussian.cu:449:65
	movl	Size(%rip), %ecx
	.loc	1 449 70                        # ./gaussian.cu:449:70
	subl	-8(%rbp), %ecx
	.loc	1 449 74                        # ./gaussian.cu:449:74
	subl	$1, %ecx
	.loc	1 449 62                        # ./gaussian.cu:449:62
	movslq	%ecx, %rcx
	.loc	1 449 34                        # ./gaussian.cu:449:34
	movss	(%rax,%rcx,4), %xmm0            # xmm0 = mem[0],zero,zero,zero
	.loc	1 450 34 is_stmt 1              # ./gaussian.cu:450:34
	movq	finalVec(%rip), %rax
	.loc	1 450 43 is_stmt 0              # ./gaussian.cu:450:43
	movl	Size(%rip), %ecx
	.loc	1 450 48                        # ./gaussian.cu:450:48
	subl	-8(%rbp), %ecx
	.loc	1 450 52                        # ./gaussian.cu:450:52
	subl	$1, %ecx
	.loc	1 450 34                        # ./gaussian.cu:450:34
	movslq	%ecx, %rcx
	movss	(%rax,%rcx,4), %xmm2            # xmm2 = mem[0],zero,zero,zero
	.loc	1 449 8 is_stmt 1               # ./gaussian.cu:449:8
	movq	finalVec(%rip), %rax
	.loc	1 449 17 is_stmt 0              # ./gaussian.cu:449:17
	movl	Size(%rip), %ecx
	.loc	1 449 22                        # ./gaussian.cu:449:22
	subl	-4(%rbp), %ecx
	.loc	1 449 26                        # ./gaussian.cu:449:26
	subl	$1, %ecx
	.loc	1 449 8                         # ./gaussian.cu:449:8
	movslq	%ecx, %rcx
	.loc	1 449 31                        # ./gaussian.cu:449:31
	movss	(%rax,%rcx,4), %xmm1            # xmm1 = mem[0],zero,zero,zero
	movd	%xmm0, %edx
	xorl	$2147483648, %edx               # imm = 0x80000000
	movd	%edx, %xmm0
	mulss	%xmm2, %xmm0
	addss	%xmm1, %xmm0
	movss	%xmm0, (%rax,%rcx,4)
.Ltmp112:
# %bb.5:                                # %for.inc
                                        #   in Loop: Header=BB9_3 Depth=2
	.loc	1 448 26 is_stmt 1              # ./gaussian.cu:448:26
	movl	-8(%rbp), %eax
	addl	$1, %eax
	movl	%eax, -8(%rbp)
	.loc	1 448 6 is_stmt 0               # ./gaussian.cu:448:6
	jmp	.LBB9_3
.Ltmp113:
.LBB9_6:                                # %for.end
                                        #   in Loop: Header=BB9_1 Depth=1
	.loc	1 453 10 is_stmt 1              # ./gaussian.cu:453:10
	movq	finalVec(%rip), %rax
	.loc	1 453 19 is_stmt 0              # ./gaussian.cu:453:19
	movl	Size(%rip), %ecx
	.loc	1 453 24                        # ./gaussian.cu:453:24
	subl	-4(%rbp), %ecx
	.loc	1 453 28                        # ./gaussian.cu:453:28
	subl	$1, %ecx
	.loc	1 453 10                        # ./gaussian.cu:453:10
	movslq	%ecx, %rcx
	movss	(%rax,%rcx,4), %xmm0            # xmm0 = mem[0],zero,zero,zero
	.loc	1 453 37                        # ./gaussian.cu:453:37
	movq	a(%rip), %rax
	.loc	1 453 41                        # ./gaussian.cu:453:41
	movl	Size(%rip), %ecx
	.loc	1 453 49                        # ./gaussian.cu:453:49
	movl	Size(%rip), %edx
	.loc	1 453 54                        # ./gaussian.cu:453:54
	subl	-4(%rbp), %edx
	.loc	1 453 58                        # ./gaussian.cu:453:58
	subl	$1, %edx
	.loc	1 453 46                        # ./gaussian.cu:453:46
	imull	%edx, %ecx
	.loc	1 453 39                        # ./gaussian.cu:453:39
	movslq	%ecx, %rcx
	shlq	$2, %rcx
	addq	%rcx, %rax
	.loc	1 453 66                        # ./gaussian.cu:453:66
	movl	Size(%rip), %ecx
	.loc	1 453 71                        # ./gaussian.cu:453:71
	subl	-4(%rbp), %ecx
	.loc	1 453 75                        # ./gaussian.cu:453:75
	subl	$1, %ecx
	.loc	1 453 63                        # ./gaussian.cu:453:63
	movslq	%ecx, %rcx
	.loc	1 453 33                        # ./gaussian.cu:453:33
	divss	(%rax,%rcx,4), %xmm0
	.loc	1 452 6 is_stmt 1               # ./gaussian.cu:452:6
	movq	finalVec(%rip), %rax
	.loc	1 452 15 is_stmt 0              # ./gaussian.cu:452:15
	movl	Size(%rip), %ecx
	.loc	1 452 20                        # ./gaussian.cu:452:20
	subl	-4(%rbp), %ecx
	.loc	1 452 24                        # ./gaussian.cu:452:24
	subl	$1, %ecx
	.loc	1 452 6                         # ./gaussian.cu:452:6
	movslq	%ecx, %rcx
	.loc	1 452 29                        # ./gaussian.cu:452:29
	movss	%xmm0, (%rax,%rcx,4)
.Ltmp114:
# %bb.7:                                # %for.inc42
                                        #   in Loop: Header=BB9_1 Depth=1
	.loc	1 446 27 is_stmt 1              # ./gaussian.cu:446:27
	movl	-4(%rbp), %eax
	addl	$1, %eax
	movl	%eax, -4(%rbp)
	.loc	1 446 4 is_stmt 0               # ./gaussian.cu:446:4
	jmp	.LBB9_1
.Ltmp115:
.LBB9_8:                                # %for.end44
	.loc	1 455 2 epilogue_begin is_stmt 1 # ./gaussian.cu:455:2
	addq	$16, %rsp
	popq	%rbp
	.cfi_def_cfa %rsp, 8
	retq
.Ltmp116:
.Lfunc_end9:
	.size	_Z7BackSubv, .Lfunc_end9-_Z7BackSubv
	.cfi_endproc
                                        # -- End function
	.globl	_Z7InitMatPfii                  # -- Begin function _Z7InitMatPfii
	.p2align	4, 0x90
	.type	_Z7InitMatPfii,@function
_Z7InitMatPfii:                         # @_Z7InitMatPfii
.Lfunc_begin10:
	.loc	1 457 0                         # ./gaussian.cu:457:0
	.cfi_startproc
# %bb.0:                                # %entry
	pushq	%rbp
	.cfi_def_cfa_offset 16
	.cfi_offset %rbp, -16
	movq	%rsp, %rbp
	.cfi_def_cfa_register %rbp
	subq	$32, %rsp
	movq	%rdi, -8(%rbp)
	movl	%esi, -12(%rbp)
	movl	%edx, -16(%rbp)
.Ltmp117:
	.loc	1 460 11 prologue_end           # ./gaussian.cu:460:11
	movl	$0, -20(%rbp)
.LBB10_1:                               # %for.cond
                                        # =>This Loop Header: Depth=1
                                        #     Child Loop BB10_3 Depth 2
.Ltmp118:
	.loc	1 460 16 is_stmt 0              # ./gaussian.cu:460:16
	movl	-20(%rbp), %eax
	.loc	1 460 18                        # ./gaussian.cu:460:18
	cmpl	-12(%rbp), %eax
.Ltmp119:
	.loc	1 460 4                         # ./gaussian.cu:460:4
	jge	.LBB10_8
# %bb.2:                                # %for.body
                                        #   in Loop: Header=BB10_1 Depth=1
.Ltmp120:
	.loc	1 461 13 is_stmt 1              # ./gaussian.cu:461:13
	movl	$0, -24(%rbp)
.LBB10_3:                               # %for.cond1
                                        #   Parent Loop BB10_1 Depth=1
                                        # =>  This Inner Loop Header: Depth=2
.Ltmp121:
	.loc	1 461 18 is_stmt 0              # ./gaussian.cu:461:18
	movl	-24(%rbp), %eax
	.loc	1 461 20                        # ./gaussian.cu:461:20
	cmpl	-16(%rbp), %eax
.Ltmp122:
	.loc	1 461 6                         # ./gaussian.cu:461:6
	jge	.LBB10_6
# %bb.4:                                # %for.body3
                                        #   in Loop: Header=BB10_3 Depth=2
.Ltmp123:
	.loc	1 462 15 is_stmt 1              # ./gaussian.cu:462:15
	movq	fp(%rip), %rdi
	.loc	1 462 25 is_stmt 0              # ./gaussian.cu:462:25
	movq	-8(%rbp), %rdx
	.loc	1 462 31                        # ./gaussian.cu:462:31
	movl	Size(%rip), %eax
	.loc	1 462 36                        # ./gaussian.cu:462:36
	imull	-20(%rbp), %eax
	.loc	1 462 29                        # ./gaussian.cu:462:29
	cltq
	shlq	$2, %rax
	addq	%rax, %rdx
	.loc	1 462 40                        # ./gaussian.cu:462:40
	movslq	-24(%rbp), %rax
	shlq	$2, %rax
	addq	%rax, %rdx
	.loc	1 462 8                         # ./gaussian.cu:462:8
	leaq	.L.str.58(%rip), %rsi
	movb	$0, %al
	callq	__isoc99_fscanf@PLT
.Ltmp124:
# %bb.5:                                # %for.inc
                                        #   in Loop: Header=BB10_3 Depth=2
	.loc	1 461 29 is_stmt 1              # ./gaussian.cu:461:29
	movl	-24(%rbp), %eax
	addl	$1, %eax
	movl	%eax, -24(%rbp)
	.loc	1 461 6 is_stmt 0               # ./gaussian.cu:461:6
	jmp	.LBB10_3
.Ltmp125:
.LBB10_6:                               # %for.end
                                        #   in Loop: Header=BB10_1 Depth=1
	.loc	1 464 4 is_stmt 1               # ./gaussian.cu:464:4
	jmp	.LBB10_7
.Ltmp126:
.LBB10_7:                               # %for.inc6
                                        #   in Loop: Header=BB10_1 Depth=1
	.loc	1 460 27                        # ./gaussian.cu:460:27
	movl	-20(%rbp), %eax
	addl	$1, %eax
	movl	%eax, -20(%rbp)
	.loc	1 460 4 is_stmt 0               # ./gaussian.cu:460:4
	jmp	.LBB10_1
.Ltmp127:
.LBB10_8:                               # %for.end8
	.loc	1 465 2 epilogue_begin is_stmt 1 # ./gaussian.cu:465:2
	addq	$32, %rsp
	popq	%rbp
	.cfi_def_cfa %rsp, 8
	retq
.Ltmp128:
.Lfunc_end10:
	.size	_Z7InitMatPfii, .Lfunc_end10-_Z7InitMatPfii
	.cfi_endproc
                                        # -- End function
	.globl	_Z7InitAryPfi                   # -- Begin function _Z7InitAryPfi
	.p2align	4, 0x90
	.type	_Z7InitAryPfi,@function
_Z7InitAryPfi:                          # @_Z7InitAryPfi
.Lfunc_begin11:
	.loc	1 489 0                         # ./gaussian.cu:489:0
	.cfi_startproc
# %bb.0:                                # %entry
	pushq	%rbp
	.cfi_def_cfa_offset 16
	.cfi_offset %rbp, -16
	movq	%rsp, %rbp
	.cfi_def_cfa_register %rbp
	subq	$16, %rsp
	movq	%rdi, -8(%rbp)
	movl	%esi, -12(%rbp)
.Ltmp129:
	.loc	1 492 11 prologue_end           # ./gaussian.cu:492:11
	movl	$0, -16(%rbp)
.LBB11_1:                               # %for.cond
                                        # =>This Inner Loop Header: Depth=1
.Ltmp130:
	.loc	1 492 16 is_stmt 0              # ./gaussian.cu:492:16
	movl	-16(%rbp), %eax
	.loc	1 492 18                        # ./gaussian.cu:492:18
	cmpl	-12(%rbp), %eax
.Ltmp131:
	.loc	1 492 4                         # ./gaussian.cu:492:4
	jge	.LBB11_4
# %bb.2:                                # %for.body
                                        #   in Loop: Header=BB11_1 Depth=1
.Ltmp132:
	.loc	1 493 13 is_stmt 1              # ./gaussian.cu:493:13
	movq	fp(%rip), %rdi
	.loc	1 493 24 is_stmt 0              # ./gaussian.cu:493:24
	movq	-8(%rbp), %rdx
	movslq	-16(%rbp), %rax
	shlq	$2, %rax
	addq	%rax, %rdx
	.loc	1 493 6                         # ./gaussian.cu:493:6
	leaq	.L.str.58(%rip), %rsi
	movb	$0, %al
	callq	__isoc99_fscanf@PLT
.Ltmp133:
# %bb.3:                                # %for.inc
                                        #   in Loop: Header=BB11_1 Depth=1
	.loc	1 492 31 is_stmt 1              # ./gaussian.cu:492:31
	movl	-16(%rbp), %eax
	addl	$1, %eax
	movl	%eax, -16(%rbp)
	.loc	1 492 4 is_stmt 0               # ./gaussian.cu:492:4
	jmp	.LBB11_1
.Ltmp134:
.LBB11_4:                               # %for.end
	.loc	1 495 2 epilogue_begin is_stmt 1 # ./gaussian.cu:495:2
	addq	$16, %rsp
	popq	%rbp
	.cfi_def_cfa %rsp, 8
	retq
.Ltmp135:
.Lfunc_end11:
	.size	_Z7InitAryPfi, .Lfunc_end11-_Z7InitAryPfi
	.cfi_endproc
                                        # -- End function
	.globl	_Z19__device_stub__Fan1PfS_ii   # -- Begin function _Z19__device_stub__Fan1PfS_ii
	.p2align	4, 0x90
	.type	_Z19__device_stub__Fan1PfS_ii,@function
_Z19__device_stub__Fan1PfS_ii:          # @_Z19__device_stub__Fan1PfS_ii
.Lfunc_begin12:
	.loc	1 319 0                         # ./gaussian.cu:319:0
	.cfi_startproc
# %bb.0:                                # %entry
	pushq	%rbp
	.cfi_def_cfa_offset 16
	.cfi_offset %rbp, -16
	movq	%rsp, %rbp
	.cfi_def_cfa_register %rbp
	subq	$160, %rsp
	movq	%rdi, -8(%rbp)
	movq	%rsi, -16(%rbp)
	movl	%edx, -20(%rbp)
	movl	%ecx, -24(%rbp)
.Ltmp136:
	.loc	1 319 1 prologue_end            # ./gaussian.cu:319:1
	leaq	-8(%rbp), %rax
	movq	%rax, -144(%rbp)
	leaq	-16(%rbp), %rax
	movq	%rax, -136(%rbp)
	leaq	-20(%rbp), %rax
	movq	%rax, -128(%rbp)
	leaq	-24(%rbp), %rax
	movq	%rax, -120(%rbp)
	leaq	-40(%rbp), %rdi
	leaq	-56(%rbp), %rsi
	leaq	-64(%rbp), %rdx
	leaq	-72(%rbp), %rcx
	callq	__cudaPopCallConfiguration@PLT
	movq	-64(%rbp), %r10
	movq	-72(%rbp), %rax
	movq	-40(%rbp), %rcx
	movq	%rcx, -88(%rbp)
	movl	-32(%rbp), %ecx
	movl	%ecx, -80(%rbp)
	movq	-88(%rbp), %rsi
	movl	-80(%rbp), %edx
	movq	-56(%rbp), %rcx
	movq	%rcx, -104(%rbp)
	movl	-48(%rbp), %ecx
	movl	%ecx, -96(%rbp)
	movq	-104(%rbp), %rcx
	movl	-96(%rbp), %r8d
	leaq	_Z19__device_stub__Fan1PfS_ii(%rip), %rdi
	leaq	-144(%rbp), %r9
	movq	%r10, (%rsp)
	movq	%rax, 8(%rsp)
	callq	cudaLaunchKernel@PLT
# %bb.1:                                # %setup.end
	.loc	1 325 1 epilogue_begin          # ./gaussian.cu:325:1
	addq	$160, %rsp
	popq	%rbp
	.cfi_def_cfa %rsp, 8
	retq
.Ltmp137:
.Lfunc_end12:
	.size	_Z19__device_stub__Fan1PfS_ii, .Lfunc_end12-_Z19__device_stub__Fan1PfS_ii
	.cfi_endproc
                                        # -- End function
	.globl	_Z19__device_stub__Fan2PfS_S_iii # -- Begin function _Z19__device_stub__Fan2PfS_S_iii
	.p2align	4, 0x90
	.type	_Z19__device_stub__Fan2PfS_S_iii,@function
_Z19__device_stub__Fan2PfS_S_iii:       # @_Z19__device_stub__Fan2PfS_S_iii
.Lfunc_begin13:
	.loc	1 333 0                         # ./gaussian.cu:333:0
	.cfi_startproc
# %bb.0:                                # %entry
	pushq	%rbp
	.cfi_def_cfa_offset 16
	.cfi_offset %rbp, -16
	movq	%rsp, %rbp
	.cfi_def_cfa_register %rbp
	subq	$176, %rsp
	movq	%rdi, -8(%rbp)
	movq	%rsi, -16(%rbp)
	movq	%rdx, -24(%rbp)
	movl	%ecx, -28(%rbp)
	movl	%r8d, -32(%rbp)
	movl	%r9d, -36(%rbp)
.Ltmp138:
	.loc	1 333 1 prologue_end            # ./gaussian.cu:333:1
	leaq	-8(%rbp), %rax
	movq	%rax, -160(%rbp)
	leaq	-16(%rbp), %rax
	movq	%rax, -152(%rbp)
	leaq	-24(%rbp), %rax
	movq	%rax, -144(%rbp)
	leaq	-28(%rbp), %rax
	movq	%rax, -136(%rbp)
	leaq	-32(%rbp), %rax
	movq	%rax, -128(%rbp)
	leaq	-36(%rbp), %rax
	movq	%rax, -120(%rbp)
	leaq	-48(%rbp), %rdi
	leaq	-64(%rbp), %rsi
	leaq	-72(%rbp), %rdx
	leaq	-80(%rbp), %rcx
	callq	__cudaPopCallConfiguration@PLT
	movq	-72(%rbp), %r10
	movq	-80(%rbp), %rax
	movq	-48(%rbp), %rcx
	movq	%rcx, -96(%rbp)
	movl	-40(%rbp), %ecx
	movl	%ecx, -88(%rbp)
	movq	-96(%rbp), %rsi
	movl	-88(%rbp), %edx
	movq	-64(%rbp), %rcx
	movq	%rcx, -112(%rbp)
	movl	-56(%rbp), %ecx
	movl	%ecx, -104(%rbp)
	movq	-112(%rbp), %rcx
	movl	-104(%rbp), %r8d
	leaq	_Z19__device_stub__Fan2PfS_S_iii(%rip), %rdi
	leaq	-160(%rbp), %r9
	movq	%r10, (%rsp)
	movq	%rax, 8(%rsp)
	callq	cudaLaunchKernel@PLT
# %bb.1:                                # %setup.end
	.loc	1 348 1 epilogue_begin          # ./gaussian.cu:348:1
	addq	$176, %rsp
	popq	%rbp
	.cfi_def_cfa %rsp, 8
	retq
.Ltmp139:
.Lfunc_end13:
	.size	_Z19__device_stub__Fan2PfS_S_iii, .Lfunc_end13-_Z19__device_stub__Fan2PfS_S_iii
	.cfi_endproc
                                        # -- End function
	.section	.text._ZN4dim3C2Ejjj,"axG",@progbits,_ZN4dim3C2Ejjj,comdat
	.weak	_ZN4dim3C2Ejjj                  # -- Begin function _ZN4dim3C2Ejjj
	.p2align	4, 0x90
	.type	_ZN4dim3C2Ejjj,@function
_ZN4dim3C2Ejjj:                         # @_ZN4dim3C2Ejjj
.Lfunc_begin14:
	.loc	5 423 0                         # cuda-12.1/include/vector_types.h:423:0
	.cfi_startproc
# %bb.0:                                # %entry
	pushq	%rbp
	.cfi_def_cfa_offset 16
	.cfi_offset %rbp, -16
	movq	%rsp, %rbp
	.cfi_def_cfa_register %rbp
	movq	%rdi, -8(%rbp)
	movl	%esi, -12(%rbp)
	movl	%edx, -16(%rbp)
	movl	%ecx, -20(%rbp)
	movq	-8(%rbp), %rax
.Ltmp140:
	.loc	5 423 133 prologue_end          # cuda-12.1/include/vector_types.h:423:133
	movl	-12(%rbp), %ecx
	.loc	5 423 131 is_stmt 0             # cuda-12.1/include/vector_types.h:423:131
	movl	%ecx, (%rax)
	.loc	5 423 140                       # cuda-12.1/include/vector_types.h:423:140
	movl	-16(%rbp), %ecx
	.loc	5 423 138                       # cuda-12.1/include/vector_types.h:423:138
	movl	%ecx, 4(%rax)
	.loc	5 423 147                       # cuda-12.1/include/vector_types.h:423:147
	movl	-20(%rbp), %ecx
	.loc	5 423 145                       # cuda-12.1/include/vector_types.h:423:145
	movl	%ecx, 8(%rax)
	.loc	5 423 152 epilogue_begin        # cuda-12.1/include/vector_types.h:423:152
	popq	%rbp
	.cfi_def_cfa %rsp, 8
	retq
.Ltmp141:
.Lfunc_end14:
	.size	_ZN4dim3C2Ejjj, .Lfunc_end14-_ZN4dim3C2Ejjj
	.cfi_endproc
                                        # -- End function
	.text
	.globl	_Z14checkCUDAErrorPKc           # -- Begin function _Z14checkCUDAErrorPKc
	.p2align	4, 0x90
	.type	_Z14checkCUDAErrorPKc,@function
_Z14checkCUDAErrorPKc:                  # @_Z14checkCUDAErrorPKc
.Lfunc_begin15:
	.loc	1 508 0 is_stmt 1               # ./gaussian.cu:508:0
	.cfi_startproc
# %bb.0:                                # %entry
	pushq	%rbp
	.cfi_def_cfa_offset 16
	.cfi_offset %rbp, -16
	movq	%rsp, %rbp
	.cfi_def_cfa_register %rbp
	subq	$32, %rsp
	movq	%rdi, -8(%rbp)
.Ltmp142:
	.loc	1 509 22 prologue_end           # ./gaussian.cu:509:22
	callq	cudaGetLastError@PLT
	.loc	1 509 16 is_stmt 0              # ./gaussian.cu:509:16
	movl	%eax, -12(%rbp)
	.loc	1 510 8 is_stmt 1               # ./gaussian.cu:510:8
	xorl	%eax, %eax
.Ltmp143:
	.loc	1 510 20 is_stmt 0              # ./gaussian.cu:510:20
	cmpl	-12(%rbp), %eax
.Ltmp144:
	.loc	1 510 8                         # ./gaussian.cu:510:8
	je	.LBB15_2
# %bb.1:                                # %if.then
.Ltmp145:
	.loc	1 511 14 is_stmt 1              # ./gaussian.cu:511:14
	movq	stderr@GOTPCREL(%rip), %rax
	movq	(%rax), %rax
	movq	%rax, -32(%rbp)                 # 8-byte Spill
	.loc	1 511 47 is_stmt 0              # ./gaussian.cu:511:47
	movq	-8(%rbp), %rax
	movq	%rax, -24(%rbp)                 # 8-byte Spill
	.loc	1 511 71                        # ./gaussian.cu:511:71
	movl	-12(%rbp), %edi
	.loc	1 511 52                        # ./gaussian.cu:511:52
	callq	cudaGetErrorString@PLT
	movq	-32(%rbp), %rdi                 # 8-byte Reload
	movq	-24(%rbp), %rdx                 # 8-byte Reload
	movq	%rax, %rcx
	.loc	1 511 6                         # ./gaussian.cu:511:6
	leaq	.L.str.62(%rip), %rsi
	movb	$0, %al
	callq	fprintf@PLT
	.loc	1 512 6 is_stmt 1               # ./gaussian.cu:512:6
	movl	$1, %edi
	callq	exit@PLT
.Ltmp146:
.LBB15_2:                               # %if.end
	.loc	1 514 2 epilogue_begin          # ./gaussian.cu:514:2
	addq	$32, %rsp
	popq	%rbp
	.cfi_def_cfa %rsp, 8
	retq
.Ltmp147:
.Lfunc_end15:
	.size	_Z14checkCUDAErrorPKc, .Lfunc_end15-_Z14checkCUDAErrorPKc
	.cfi_endproc
                                        # -- End function
	.p2align	4, 0x90                         # -- Begin function __cuda_register_globals
	.type	__cuda_register_globals,@function
__cuda_register_globals:                # @__cuda_register_globals
.Lfunc_begin16:
	.cfi_startproc
# %bb.0:                                # %entry
	subq	$40, %rsp
	.cfi_def_cfa_offset 48
	movq	%rdi, 32(%rsp)                  # 8-byte Spill
	leaq	_Z19__device_stub__Fan1PfS_ii(%rip), %rsi
	leaq	.L__unnamed_1(%rip), %rcx
	movl	$4294967295, %r8d               # imm = 0xFFFFFFFF
	xorl	%eax, %eax
	movl	%eax, %r9d
	movq	%rcx, %rdx
	movq	$0, (%rsp)
	movq	$0, 8(%rsp)
	movq	$0, 16(%rsp)
	movq	$0, 24(%rsp)
	callq	__cudaRegisterFunction@PLT
	movq	32(%rsp), %rdi                  # 8-byte Reload
	leaq	_Z19__device_stub__Fan2PfS_S_iii(%rip), %rsi
	leaq	.L__unnamed_2(%rip), %rcx
	movl	$4294967295, %r8d               # imm = 0xFFFFFFFF
	xorl	%eax, %eax
	movl	%eax, %r9d
	movq	%rcx, %rdx
	movq	$0, (%rsp)
	movq	$0, 8(%rsp)
	movq	$0, 16(%rsp)
	movq	$0, 24(%rsp)
	callq	__cudaRegisterFunction@PLT
	addq	$40, %rsp
	.cfi_def_cfa_offset 8
	retq
.Lfunc_end16:
	.size	__cuda_register_globals, .Lfunc_end16-__cuda_register_globals
	.cfi_endproc
                                        # -- End function
	.p2align	4, 0x90                         # -- Begin function __cuda_module_ctor
	.type	__cuda_module_ctor,@function
__cuda_module_ctor:                     # @__cuda_module_ctor
.Lfunc_begin17:
	.cfi_startproc
# %bb.0:                                # %entry
	pushq	%rax
	.cfi_def_cfa_offset 16
	leaq	__cuda_fatbin_wrapper(%rip), %rdi
	callq	__cudaRegisterFatBinary@PLT
	movq	%rax, %rdi
	movq	%rdi, (%rsp)                    # 8-byte Spill
	movq	%rdi, __cuda_gpubin_handle(%rip)
	callq	__cuda_register_globals
	movq	(%rsp), %rdi                    # 8-byte Reload
	callq	__cudaRegisterFatBinaryEnd@PLT
	leaq	__cuda_module_dtor(%rip), %rdi
	callq	atexit@PLT
	popq	%rax
	.cfi_def_cfa_offset 8
	retq
.Lfunc_end17:
	.size	__cuda_module_ctor, .Lfunc_end17-__cuda_module_ctor
	.cfi_endproc
                                        # -- End function
	.p2align	4, 0x90                         # -- Begin function __cuda_module_dtor
	.type	__cuda_module_dtor,@function
__cuda_module_dtor:                     # @__cuda_module_dtor
.Lfunc_begin18:
	.cfi_startproc
# %bb.0:                                # %entry
	pushq	%rax
	.cfi_def_cfa_offset 16
	movq	__cuda_gpubin_handle(%rip), %rdi
	callq	__cudaUnregisterFatBinary@PLT
	popq	%rax
	.cfi_def_cfa_offset 8
	retq
.Lfunc_end18:
	.size	__cuda_module_dtor, .Lfunc_end18-__cuda_module_dtor
	.cfi_endproc
                                        # -- End function
	.type	Size,@object                    # @Size
	.bss
	.globl	Size
	.p2align	2, 0x0
Size:
	.long	0                               # 0x0
	.size	Size, 4

	.type	a,@object                       # @a
	.globl	a
	.p2align	3, 0x0
a:
	.quad	0
	.size	a, 8

	.type	b,@object                       # @b
	.globl	b
	.p2align	3, 0x0
b:
	.quad	0
	.size	b, 8

	.type	finalVec,@object                # @finalVec
	.globl	finalVec
	.p2align	3, 0x0
finalVec:
	.quad	0
	.size	finalVec, 8

	.type	m,@object                       # @m
	.globl	m
	.p2align	3, 0x0
m:
	.quad	0
	.size	m, 8

	.type	fp,@object                      # @fp
	.globl	fp
	.p2align	3, 0x0
fp:
	.quad	0
	.size	fp, 8

	.type	totalKernelTime,@object         # @totalKernelTime
	.globl	totalKernelTime
	.p2align	2, 0x0
totalKernelTime:
	.long	0                               # 0x0
	.size	totalKernelTime, 4

	.type	.L.str,@object                  # @.str
	.section	.rodata.str1.1,"aMS",@progbits,1
.L.str:
	.asciz	"WG size of kernel 1 = %d, WG size of kernel 2= %d X %d\n"
	.size	.L.str, 56

	.type	.L.str.1,@object                # @.str.1
.L.str.1:
	.asciz	"Usage: gaussian -f filename / -s size [-q]\n\n"
	.size	.L.str.1, 45

	.type	.L.str.2,@object                # @.str.2
.L.str.2:
	.asciz	"-q (quiet) suppresses printing the matrix and result values.\n"
	.size	.L.str.2, 62

	.type	.L.str.3,@object                # @.str.3
.L.str.3:
	.asciz	"-f (filename) path of input file\n"
	.size	.L.str.3, 34

	.type	.L.str.4,@object                # @.str.4
.L.str.4:
	.asciz	"-s (size) size of matrix. Create matrix and rhs in this program \n"
	.size	.L.str.4, 66

	.type	.L.str.5,@object                # @.str.5
.L.str.5:
	.asciz	"The first line of the file contains the dimension of the matrix, n."
	.size	.L.str.5, 68

	.type	.L.str.6,@object                # @.str.6
.L.str.6:
	.asciz	"The second line of the file is a newline.\n"
	.size	.L.str.6, 43

	.type	.L.str.7,@object                # @.str.7
.L.str.7:
	.asciz	"The next n lines contain n tab separated values for the matrix."
	.size	.L.str.7, 64

	.type	.L.str.8,@object                # @.str.8
.L.str.8:
	.asciz	"The next line of the file is a newline.\n"
	.size	.L.str.8, 41

	.type	.L.str.9,@object                # @.str.9
.L.str.9:
	.asciz	"The next line of the file is a 1xn vector with tab separated values.\n"
	.size	.L.str.9, 70

	.type	.L.str.10,@object               # @.str.10
.L.str.10:
	.asciz	"The next line of the file is a newline. (optional)\n"
	.size	.L.str.10, 52

	.type	.L.str.11,@object               # @.str.11
.L.str.11:
	.asciz	"The final line of the file is the pre-computed solution. (optional)\n"
	.size	.L.str.11, 69

	.type	.L.str.12,@object               # @.str.12
.L.str.12:
	.asciz	"Example: matrix4.txt:\n"
	.size	.L.str.12, 23

	.type	.L.str.13,@object               # @.str.13
.L.str.13:
	.asciz	"4\n"
	.size	.L.str.13, 3

	.type	.L.str.14,@object               # @.str.14
.L.str.14:
	.asciz	"\n"
	.size	.L.str.14, 2

	.type	.L.str.15,@object               # @.str.15
.L.str.15:
	.asciz	"-0.6\t-0.5\t0.7\t0.3\n"
	.size	.L.str.15, 19

	.type	.L.str.16,@object               # @.str.16
.L.str.16:
	.asciz	"-0.3\t-0.9\t0.3\t0.7\n"
	.size	.L.str.16, 19

	.type	.L.str.17,@object               # @.str.17
.L.str.17:
	.asciz	"-0.4\t-0.5\t-0.3\t-0.8\n"
	.size	.L.str.17, 21

	.type	.L.str.18,@object               # @.str.18
.L.str.18:
	.asciz	"0.0\t-0.1\t0.2\t0.9\n"
	.size	.L.str.18, 18

	.type	.L.str.19,@object               # @.str.19
.L.str.19:
	.asciz	"-0.85\t-0.68\t0.24\t-0.53\n"
	.size	.L.str.19, 24

	.type	.L.str.20,@object               # @.str.20
.L.str.20:
	.asciz	"0.7\t0.0\t-0.4\t-0.5\n"
	.size	.L.str.20, 19

	.type	.L.str.21,@object               # @.str.21
.L.str.21:
	.asciz	"Create matrix internally in parse, size = %d \n"
	.size	.L.str.21, 47

	.type	.L.str.22,@object               # @.str.22
.L.str.22:
	.asciz	"Read file from %s \n"
	.size	.L.str.22, 20

	.type	.L.str.23,@object               # @.str.23
.L.str.23:
	.asciz	"Matrix m is: \n"
	.size	.L.str.23, 15

	.type	.L.str.24,@object               # @.str.24
.L.str.24:
	.asciz	"Matrix a is: \n"
	.size	.L.str.24, 15

	.type	.L.str.25,@object               # @.str.25
.L.str.25:
	.asciz	"Array b is: \n"
	.size	.L.str.25, 14

	.type	.L.str.26,@object               # @.str.26
.L.str.26:
	.asciz	"The final solution is: \n"
	.size	.L.str.26, 25

	.type	.L.str.27,@object               # @.str.27
.L.str.27:
	.asciz	"\nTime total (including memory transfers)\t%f sec\n"
	.size	.L.str.27, 49

	.type	.L.str.28,@object               # @.str.28
.L.str.28:
	.asciz	"Time for CUDA kernels:\t%f sec\n"
	.size	.L.str.28, 31

	.type	.L.str.29,@object               # @.str.29
.L.str.29:
	.asciz	"Total Device found: %d"
	.size	.L.str.29, 23

	.type	.L.str.30,@object               # @.str.30
.L.str.30:
	.asciz	"\nDevice Name \t\t - %s "
	.size	.L.str.30, 22

	.type	.L.str.31,@object               # @.str.31
.L.str.31:
	.asciz	"\n**************************************"
	.size	.L.str.31, 40

	.type	.L.str.32,@object               # @.str.32
.L.str.32:
	.asciz	"\nTotal Global Memory\t\t\t - %lu KB"
	.size	.L.str.32, 33

	.type	.L.str.33,@object               # @.str.33
.L.str.33:
	.asciz	"\nShared memory available per block \t - %lu KB"
	.size	.L.str.33, 46

	.type	.L.str.34,@object               # @.str.34
.L.str.34:
	.asciz	"\nNumber of registers per thread block \t - %d"
	.size	.L.str.34, 45

	.type	.L.str.35,@object               # @.str.35
.L.str.35:
	.asciz	"\nWarp size in threads \t\t\t - %d"
	.size	.L.str.35, 31

	.type	.L.str.36,@object               # @.str.36
.L.str.36:
	.asciz	"\nMemory Pitch \t\t\t\t - %zu bytes"
	.size	.L.str.36, 31

	.type	.L.str.37,@object               # @.str.37
.L.str.37:
	.asciz	"\nMaximum threads per block \t\t - %d"
	.size	.L.str.37, 35

	.type	.L.str.38,@object               # @.str.38
.L.str.38:
	.asciz	"\nMaximum Thread Dimension (block) \t - %d %d %d"
	.size	.L.str.38, 47

	.type	.L.str.39,@object               # @.str.39
.L.str.39:
	.asciz	"\nMaximum Thread Dimension (grid) \t - %d %d %d"
	.size	.L.str.39, 46

	.type	.L.str.40,@object               # @.str.40
.L.str.40:
	.asciz	"\nTotal constant memory \t\t\t - %zu bytes"
	.size	.L.str.40, 39

	.type	.L.str.41,@object               # @.str.41
.L.str.41:
	.asciz	"\nCUDA ver \t\t\t\t - %d.%d"
	.size	.L.str.41, 23

	.type	.L.str.42,@object               # @.str.42
.L.str.42:
	.asciz	"\nClock rate \t\t\t\t - %d KHz"
	.size	.L.str.42, 26

	.type	.L.str.43,@object               # @.str.43
.L.str.43:
	.asciz	"\nTexture Alignment \t\t\t - %zu bytes"
	.size	.L.str.43, 35

	.type	.L.str.44,@object               # @.str.44
.L.str.44:
	.asciz	"\nDevice Overlap \t\t\t\t - %s"
	.size	.L.str.44, 26

	.type	.L.str.45,@object               # @.str.45
.L.str.45:
	.asciz	"Allowed"
	.size	.L.str.45, 8

	.type	.L.str.46,@object               # @.str.46
.L.str.46:
	.asciz	"Not Allowed"
	.size	.L.str.46, 12

	.type	.L.str.47,@object               # @.str.47
.L.str.47:
	.asciz	"\nNumber of Multi processors \t\t - %d\n\n"
	.size	.L.str.47, 38

	.type	.L.str.48,@object               # @.str.48
.L.str.48:
	.asciz	"\n%s"
	.size	.L.str.48, 4

	.type	.L.str.49,@object               # @.str.49
.L.str.49:
	.asciz	"The file name is: %s\n"
	.size	.L.str.49, 22

	.type	.L.str.50,@object               # @.str.50
.L.str.50:
	.asciz	"r"
	.size	.L.str.50, 2

	.type	.L.str.51,@object               # @.str.51
.L.str.51:
	.asciz	"%d"
	.size	.L.str.51, 3

	.type	.L.str.52,@object               # @.str.52
.L.str.52:
	.asciz	"The input matrix a is:\n"
	.size	.L.str.52, 24

	.type	.L.str.53,@object               # @.str.53
.L.str.53:
	.asciz	"The input array b is:\n"
	.size	.L.str.53, 23

	.type	.L.str.54,@object               # @.str.54
.L.str.54:
	.asciz	"1d grid size: %d\n"
	.size	.L.str.54, 18

	.type	.L.str.55,@object               # @.str.55
.L.str.55:
	.asciz	"BlockXY: %d \n"
	.size	.L.str.55, 14

	.type	.L.str.56,@object               # @.str.56
.L.str.56:
	.asciz	"first grid size: %d second: %d\n"
	.size	.L.str.56, 32

	.type	.L.str.57,@object               # @.str.57
.L.str.57:
	.asciz	"Fan2"
	.size	.L.str.57, 5

	.type	.L.str.58,@object               # @.str.58
.L.str.58:
	.asciz	"%f"
	.size	.L.str.58, 3

	.type	.L.str.59,@object               # @.str.59
.L.str.59:
	.asciz	"%8.2f "
	.size	.L.str.59, 7

	.type	.L.str.60,@object               # @.str.60
.L.str.60:
	.asciz	"%.2f "
	.size	.L.str.60, 6

	.type	.L.str.61,@object               # @.str.61
.L.str.61:
	.asciz	"\n\n"
	.size	.L.str.61, 3

	.type	.L.str.62,@object               # @.str.62
.L.str.62:
	.asciz	"Cuda error: %s: %s.\n"
	.size	.L.str.62, 21

	.type	.L__unnamed_1,@object           # @0
.L__unnamed_1:
	.asciz	"_Z4Fan1PfS_ii"
	.size	.L__unnamed_1, 14

	.type	.L__unnamed_2,@object           # @1
.L__unnamed_2:
	.asciz	"_Z4Fan2PfS_S_iii"
	.size	.L__unnamed_2, 17

	.type	.L__unnamed_3,@object           # @2
	.section	.nv_fatbin,"a",@progbits
	.p2align	3, 0x0
.L__unnamed_3:
	.asciz	"P\355U\272\001\000\020\000@\231\000\000\000\000\000\000\002\000\001\001@\000\000\000\200R\000\000\000\000\000\000yR\000\000\000\000\000\000\007\000\001\0002\000\000\000\000\000\000\000\000\000\000\000\023 \000\000\000\000\000\000\000\000\000\000\000\000\000\000 \365\000\000\000\000\000\000\242\177ELF\002\001\0013\007\000\001\000f\002\000\276\000y\000\001\000#@\364\b\000\021\355\007\000\365\016\0002\0052\000@\0008\000\004\000@\000\034\000\001\000\000.shstrtab\000.\b\000'ym\b\000\361\005_shndx\000.nv.uft.entry\016\000\361!info\000.text.__cuda_sm3x_div_rn_noftz_f32_slowpath5\000eglobal@\000\017:\000\025\002f\000\307Z4Fan1PfS_iiC\000\r\027\000lshared\031\000?relH\000\005\237constant04\000\001\017 \000\t\007P\000\0202\024\000\000\026\000\r\233\000\013\032\000\t\236\000\013\034\000\f\211\000\b\037\000\016\214\000\r#\000\264debug_frame\r\000Bline<\000\b\020\0006nv_\017\000T_sass`\000\016\030\000\005\024\000wptx_txt\022\000\000\345\000L_reg*\000\005\030\0005typ\212\000\206abbrev\000.#\000\001t\000\031a\021\000\002\f\0008loc\264\000\003\321\000\007-\000\003\022\000\000\017\001rallgrap_\002Qprotou\000\017\331\002-\017\231\002\022\017\377\002%\365\000threadIdx\000block\t\000?Dim\033\003\035\017\221\002\007\005\024\000\017)\0035\017\201\002\004\bQ\000\017\034\000\005~_param\000\262\002\007h\000\b\311\002\n\263\000\017A\003\025\017\241\000\004\013?\000\017A\003\377\026\017\001\000\n\204@\000\000\000\"\000\030\000\001\000!\200\b\007\000g\000f\000\000\000\003\030\000\004\001\000\021\222\030\000,\033\000\001\000p\235\000\000\000\001\000\033\212\006\001\001\000\004\b\000\023\247\030\000*\002\000\030\000\023\260\030\000\033\000\030\000\021\366`\000,\031\000\001\000 r\001\030\000,\026\000\001\000\021\246\030\000,\032\000\001\000 \026\002\030\000,\027\000\001\000\0215\030\000,\004\000\001\000\021B\030\000,\005\000\001\000\021^\030\000,\006\000\001\000\021\212\030\000,\007\000\001\000\021\234\030\000,\b\000\001\000\021\264\030\000,\t\000\001\000\021\314\030\000,\n\000\001\000\021\332\030\000,\013\000\001\000 %\003\030\000,\020\000\001\000g\350\000\000\000\022\0208\001\021\f\006\0000\000\225\001\030\000\006 \001!\300\025\007\000v\000\377\377\377\377<\005\f\000\000\001\000@\003\000\004|\b\000\360\002\017\f\201\200\200(\000\b\377\201\200(\007\200\200\200\b\005\0000\020\007\202\005\000\020\203\005\000\020\204\005\000\020\205\005\000\020\206\005\000P\200\200\200(\b3\000\000#\000\020(#\000\020(#\000\020(#\000\020(#\0000(\007\207\005\000\020\210\005\000\020\211\005\000\020\212\005\000\020\213\005\000\020\214\005\000\020\215\005\000\020\216\005\000\020\217\005\000\020\220\005\000\020\221\005\000\020\222\005\000\020\223\005\000\020\224\005\000\020\225\005\000\020\226\005\000\020\227\005\000\020\230\005\000\020\231\005\000\020\232\005\000\020\233\005\000\020\234\005\000\020\235\005\000\020\236\005\000\020\237\005\000\020\240\005\000\020\241\005\000\020\242\005\000\020\243\005\000\020\244\005\000\020\245\005\000\020\246\005\000\020\247\005\000\020\250\005\000\020\251\005\000\020\252\005\000\020\253\005\000\020\254\005\000\020\255\005\000\020\256\005\000\020\257\005\000\020\260\005\000\020\261\005\000\020\262\005\000\020\263\005\000\020\264\005\000\020\265\005\000\020\266\005\000\020\267\005\000\020\270\005\000\020\271\005\000\020\272\005\000\020\273\005\000\020\274\005\000\020\275\005\000\020\276\005\000\020\277\005\000\020\300\005\000\020\301\005\000\020\302\005\000\020\303\005\000\020\304\005\000\020\305\005\000\020\306\005\000\020\307\005\000\020\310\005\000\020\311\005\000\020\312\005\000\020\313\005\000\020\314\005\000\020\315\005\000\020\316\005\000\020\317\005\000\020\320\005\000\020\321\005\000\020\322\005\000\020\323\005\000\020\324\005\000\020\325\005\000\020\326\005\000\020\327\005\000\020\330\005\000\020\331\005\000\020\332\005\000\020\333\005\000\020\334\005\000\020\335\005\000\020\336\005\000\020\337\005\000\020\340\005\000\020\341\005\000\020\342\005\000\020\343\005\000\020\344\005\000\020\345\005\000\020\346\005\000\020\347\005\000\020\350\005\000\020\351\005\000\020\352\005\000\020\353\005\000\020\354\005\000\020\355\005\000\020\356\005\000\020\357\005\000\020\360\005\000\020\361\005\000\020\362\005\000\020\363\005\000\020\364\005\000\020\365\005\000\020\366\005\000\020\367\005\000\020\370\005\000\020\371\005\000\020\372\005\000\020\373\005\000\020\374\005\000\020\375\005\000\020\376\005\000\020\377\005\000\020\200\250\002\020\201\005\000\020\202\005\000\020\203\005\000\020\204\005\000\020\205\005\000\020\206\005\000\020\207\005\000\020\210\005\000\020\211\005\000\020\212\005\000\020\213\005\000\020\214\005\000\020\215\005\000\020\216\005\000\020\217\005\000\020\220\005\000\020\221\005\000\020\222\005\000\020\223\005\000\020\224\005\000\020\225\005\000\020\226\005\000\020\227\005\000\020\230\005\000\020\231\005\000\020\232\005\000\020\233\005\000\020\234\005\000\020\235\005\000\020\236\005\000\020\237\005\000\020\240\005\000\020\241\005\000\020\242\005\000\020\243\005\000\020\244\005\000\020\245\005\000\020\246\005\000\020\247\005\000\020\250\005\000\020\251\005\000\020\252\005\000\020\253\005\000\020\254\005\000\020\255\005\000\020\256\005\000\020\257\005\000\020\260\005\000\020\261\005\000\020\262\005\000\020\263\005\000\020\264\005\000\020\265\005\000\020\266\005\000\020\267\005\000\020\270\005\000\020\271\005\000\020\272\005\000\020\273\005\000\020\274\005\000\020\275\005\000\020\276\005\000\020\277\005\000\020\300\005\000\020\301\005\000\020\302\005\000\020\303\005\000\020\304\005\000\020\305\005\000\020\306\005\000\020\307\005\000\020\310\005\000\020\311\005\000\020\312\005\000\020\313\005\000\020\314\005\000\020\315\005\000\020\316\005\000\020\317\005\000\020\320\005\000\020\321\005\000\020\322\005\000\020\323\005\000\020\324\005\000\020\325\005\000\020\326\005\000\020\327\005\000\020\330\005\000\020\331\005\000\020\332\005\000\020\333\005\000\020\334\005\000\020\335\005\000\020\336\005\000\020\337\005\000\020\340\005\000\020\341\005\000\020\342\005\000\020\343\005\000\020\344\005\000\020\345\005\000\020\346\005\000\020\347\005\000\020\350\005\000\020\351\005\000\020\352\005\000\020\353\005\000\020\354\005\000\020\355\005\000\020\356\005\000\020\357\005\000\020\360\005\000\020\361\005\000\020\362\005\000\020\363\005\000\020\364\005\000\020\365\005\000\020\366\005\000\020\367\005\000\020\370\005\000\020\371\005\000\020\372\005\000\020\373\005\000\020\374\005\000\020\375\005\000B\376\201\200(<\005/4\000\001\000\004\003\204\005\020\004o\006\020\004\002\007\001Y\0054\030\004\350\016\007\017\210\005\377\377\377\377\377H\023\210P\005\f\364\n\013\210\00560\004\\)\000 \b\004t\023\320\342\002\000\000\001\001\373\016\n\000\001\001\001\223\f\360\t\001/nethome/cahn45/CuPBoP/\322\017\377\002-12.1/include/nv\000,\000\025\r)\000\361\002llvm-vortex-with-3\000\377\003build/lib/clang/18A\000\006\003j\000\366\006examples/gauss/.\000/usr5\000\000\r\000\000O\000\366\013gcc/x86_64-linux-gnu/13/..\003\000\0035\000@/c++\033\000IbitsN\000\016A\000\006#\000\017d\000#\361\b\000\000target\000\001\303\313\213\271\006\325;vector:\017Qs.h\000\002\027\000A\226g__\017\001\002U\021\000$\001ptin_var$\000\201\003\262\310\331\271\006\234&\000\001\371\001ian.cu\000\004\232\206\354\305\006\340\202\0019\000\366\005math_forward_declareB\000\360\013\225Bstdlib.h\000\005\301\303\320\301\006\373\227\002std_ab$\000\200\006\312\257\264\245\006\212%D\000\000v\017\000\024\000\021\007'\0000\232gc\025\000!\000\b\"\0000\245\336\005\016\000\005E\000B\304\352\002cX\000\003!\000\365\002\2073__stddef_size_t\201\000%\304\005\201\000\002+\000-\201\022\277\000\005-\000)\362\177\034\000\031c\035\0003\275\220\001\020\000\002I\000U\335#\000\000\t\200\b\362\007\004\004\003\276\002\001\002\310\000\004\003\003\366}\002\320\006\001\003\r\002 \005\000\360\f\004\004\003\364\001\002\030\001\003\001\002\240\002\001\004\003\003\213~\002\370\001\001\003s\002\020\034\000 \202\002$\000`\003\003\361}\002\030\020\000\020\217\020\000\312\003\001\002\210\n\001\002\210\001\000\001\001g\000\024\314g\000Z\350}\002\260\tg\000\020\377g\000\002\033\000/\250\002\033\000\003U\363}\002\230\002\026\000 \202\002\204\0003\003\003\344|\000\023\234\214\000X\362}\002\350\000&\000\035\030&\000!\003\003#\000@\002\002\230\013\f\000 \210\001\264\000 \350\n\006\000@8\001\002\360\000\004 \007\003\f\004,\020\000\f\004\031\000:\001\260\000\003\023\001\002\b\003\r\002\300\000=\000\021\320\006\000\0200\005\000\025 \005\000#\300\000\006\000\021\360\034\000\024\360\"\000*\340\000\006\0001\003\002\360\006\000\025 \005\000a\030\001\201\361\003\002\035\000\001\006\000!\200\201\025\0003\200\363\203\026\000f\003\002\230\001\001\362/\000\001\n\000\022\201\035\0004\361\201\201\202\000\020\030@\000\026\030\241\000\004\020\000P\002\002\310\000\001&\000\023\330\027\000\027\361\030\000\000\036\001\020\003\006\000)\370\000\030\000K\361\002\370\000\331\001O\000\003\231\001\007\001\016\n\f\001\016\022\001\016\030\001\017\006\000\000\017$\001\024T \001\360\203\203\"\000\017'\000\002\003J\001!\203\363!\000\030\362>\001\021\003&\000\bT\001\nY\001\002\023\001\005\f\000\006S\000#\201\361L\001\000\313\000\007G\001&\370\000\224\001\005\316\000P\030\001\360\003\002*\001\0054\000\001c\001\000 \003\002\037\0001\200\003\003I\001\0019\000?\362\360\203w\000\b\004\t\000\002J\000\b]\000!\003\0011\001\017\030\000\001\002\006\000.\030\001x\000\002\270\000\025\004\013\003\000\344\001\342.version 8.1\000.\245\005\201 sm_50, \205\024\221\000.address\306\004  6\210\007\003\"\027\345 .align 1 .b8 /\027O[1];#\000\003\004H\027\017\"\000\f1Dim\"\000\242\000.visible \370\027\031 \257\0261(\000.\260\026Z .u64\033\000\002\311\026?_0,#\000\016\0271#\000/32#\000\002\0372#\000\017\2463\000)\000{\000.loc\320\000\0218\320\0001\t__\026\000\240_depot0[24\372\000\334reg .b64 \t%SP\020\000\024L\021\000\265pred \t%p<2>$\000\22532 \t%r<23\023\000\021f\023\000Jf<4>I\000\360\nrd<21>;\000\000$L__func_begin0:\366\001Tmov.up\000*, \245\000b;\000cvta\316\000\005&\000\", \233\000\"ld\r\001\".u\213\000O2, [\023\001\002\036],\000\0371,\000\004\0312,\000\003\276\000\017Y\000\005\0371-\000\001\017Z\000\005#0]\315\000#too\002\0053\00003, f\000\003 \000\013\035\000\0214\035\000\0373=\000\006\0215 \000\0371=\000\003\0216\035\000R5;\000st\024\000q[%SP+0]\027\000\0336\027\000\0228\027\000\0224\027\000#32\027\000!16\030\000\0331\027\000\0222F\000!2;\326\001Stmp0:\315\001\000#\000 %r\325\000Utid.x!\000\0321!\000\000\331\0009cta#\000\0322#\000\000\334\000\032nE\000\0203\"\000rul.lo.s%\000\001\344\000\000M\000\204r5;\000\000add\031\00027, \207\000@r6;\000\251\001\003V\00048, \331\000\t\030\00049, \332\000d;\000\000not\344\002 10E\000(9;]\000D11, \032\000\2438;\000\000setp.l!\001!%p\036\000\001\201\000%11\274\000\3404:\000\000@%p1 bra \t\025\000\346BB0_2;\000bra.uni\024\000\0034\000\001\013\000/: \001\000\n\264// %if.thenh\000>5:\000S\000\0253\207\000%6:]\000\0372]\000\0232end)\001\000,\002C%rd7*\001\0328A\001(12Z\001\003n\000\0327\323\001.13\324\001\0338#\000\017\032\002\001\0359\370\001\0211\372\002\001P\0005r14)\000\0331\210\002.16\211\002)1:)\002\0221\251\001\002P\000\n,\002)18\025\002\b5\00059, ;\000\0328\034\000\0212\027\002\000\"\000,1;\267\000B21, +\001\000(\000 ;\000\270\003\000Y\001\004r\000!d8\032\000\000o\003%hlA\005\001m\000\000\033\000\0232\206\002\003\030\000\002\201\002!d7\006\000\0239N\0004s64n\000\023d\250\002\0328O\000\002\177\000\001\035\000\fQ\000\001P\001\004X\000\"12\016\001\003\332\005\000\334\004\000\026\000.3]\327\000\0262\327\000/18\211\000\001\001\243\003+22\211\000\001u\001\001\035\000\f\211\000\0276\332\000\0251\333\003\004\036\000\003\030\000\002%\000\013\247\000\0232\247\000\0207\247\000ddiv.rn\033\000\000\336\000\000\307\000I%f2;\323\002\005\351\001,0]k\000\002|\001%18d\001\b\036\000\002\353\001\005%\000\000\211\000\"stn\000\021[\037\000\000&\005?f3;\222\003\007\001\013\000\017\210\003\020\246return\000ret\311\002&2:T\0070end\373\002\037}\254\b\005\006\267\036\017\257\b\001\006\036\000\016\262\b\017&\000\b\0371&\000\022\016\270\b\017&\000\001\0373&\000\022\0374&\000\022O5\000) \001\000\023L// @E\000\017B\t\022Z1[48]\351\b\017B\t\021\0354B\t\0365B\t:11>J\000^rd<32C\t\0371C\t\016\0371C\t\032\0253\275\b\016R\001\037]r\t\t\r/\000\0374u\t\n\r/\000\0373K\t\001\016\216\000\017\250\t\025\r0\000\017\253\t\f\r0\000\016\256\t\017\221\t\004\017\216\t\002\0374=\000\006\0376\353\t\t\0247\227\t\017=\000\004\0378\353\t\t\002\201\004\0228\246\t*64\353\t\0379\353\t\003\0337\027\000\003\353\t,d5\354\t\0374\003\n\003\002G\000\0332\027\000!32\027\000\006q\b.13\372\t\013\222\007\0364\371\t\f\002\b*15$\000\0366I\b<16:\230\006\001T\001\000O\000$r6\272\005\005\006\n\0037\n\0237\n\006\013\006\n)4]\030\000\000\022\007\004\337\000\013\037\n\0221\013\n\030;_\000\003\n\007\0231:\n\017 \n\002\02283\007\006\277\000\0377!\n\000\0371!\n\000\0261!\n\0371!\n!.18\"\n61_6\211\000%9:_\000\017#\n\031\f\350\t\000\236\001\025yV\000/20\350\t\006\007%\000\0331%\000\0245\347\001\007I\000\0352\347\001\002\t\b\001R\000\026r-\b\003\213\001\0277)\n\017\337\t\005\f\356\001\0319\356\001;sub\334\t\002\274\001\017\332\001\000\0262\027\n&20\263\000\0223\333\001\0322\333\001\0374\333\001\000\005\027\b?1_3\333\001\027%11k\000\0374\335\001\013&25\335\001\0374\335\001\026)12\227\001/21\242\003\000:26:%\000\0362\243\003-27\274\001\0212\232\001\001R\000\001 \n\004*\000\013\027\f\03627\004929:\352\001\0212\351\003\003P\000;4;\000\230\004\002\336\004%25@\000\0333\222\002/26\222\002\000\0333\222\002.27\222\002\0363\222\002\0212\"\002\001R\0006r27*\000\0333N\000\0359(\003*34\326\000\0213r\002\003P\000\0349\326\000\0224\343\005#30\300\002\000\315\005\003\301\013\006\320\n\006\331\002/31\362\002\004\0203>\007\003'\001\n\031\000\0313\013\003\b\231\000\001o\003\0213\362\002+33\034\000\001\213\001\000\"\000\0351,\f\0213\025\001\000\212\000\000(\000\0138\000\001:\003\003\"\000\0373\321\f\006/37\321\f'\017\320\f\004\b=\001\0304\341\016\013\275\000\0278\275\000\0323*\001\0045\004:40]\326\000\0214~\000%395\000\b\034\000\002K\000\002\220\006\0370\362\000\001\001K\001\0334\022\016\004\373\f\0365\362\000\0257T\r\000\007\000/6;\033\r\005\b\205\000\0262w\001\017\205\000\003\002\240\000\f\277\r\006\034\r\013\231\016)20\205\000\000\267\002'ld\206\r\003\035\rT;\000neg\027\000\0214\235\rW;\000fma\263\r\000\376\000\002\033\000\0232K\r\017a\r\000\007\324\003(5:\224\001)43\224\001\001\255\005#ne\327\000\021p\034\002\000#\000\006\252\005\"36\252\005\0323\252\005\0376\252\005\000\003u\000\001\013\000\017\252\005\027%42k\000)7:w\002/21\264\003\003/44\264\003\004/45\264\003\004/46\264\003\005\0214\035\002\0224S\002\013\023\t\0224\344\001\0377\264\003\001\0214\352\001\000\212\000\000(\000\tm\000/50\367\002\005B51,  \000\016m\000\0215r\002\002W\000/51r\002\000\002R\020\0335r\002\002\335\005\001\035\000\fr\002\001\234\000\001E\001\000\007\000\0303\367\002\0236q\002\0334\351\003(25\262\022\r\202\000\0246\271\000\t\202\000\002_\003\000\035\000\f\202\000\001@\001\001U\000\000\007\000\0307\202\000\0237\202\000/8]\353\000\001\0249W\001\bi\000\002\370\005\001\035\000\013i\000\002~\004\004i\000\004\373\005\003j\000\0228j\000*31]\003\000c\000,f6]\003\001\027\005\002\034\000\000\327\000*f8^\003!31^\003.10\300\020\bS\b&38S\b\0376S\b\026958\000\316\020*39\316\020\0221\316\020\013\001\000\232.section\t\345./{\000\001\000\377\377H\035}t\002\001:1/{\000\001\000\377\377\377\377\377\377\377\377\377\377\377\377\377\377\377\377\377\377\377\377\377\377\377\377\377\377\377\377\377\377\377\377\377\377\377\377\377\377\377\377\377\377\377\377-\016-,{loc\t{\t}y_\"f\000\001\000\000\210=\000\b\000c\005\210\000\000\000\310\376K\001\025\000S\003\000\000\005\220r[\003*\000\000,L\020\005\322\\%\360\004)\000\000\362\\#\005\270\024\000\000\001\0000%r2\007\000\203\005\330\000\000\000\220\003\000\024\000\0211P\000U\370\000\000\0000\024\000 d2A\\`\0050\001\000\0000\221P\004\025\000\245\t\000\000\0058\001\000\000\b\002*\000\0201\233\\f\005p\001\000\000\220*\000\0201\230\\f\005x\001\000\000h*\000\0203\365\\f\005\210\001\000\000\360*\000\0203\362\\f\005\220\001\000\000\310*\000\0214*\000\032\260*\000\0214*\000\032\270*\000\0215~\000\032\310~\000\0215~\000\032\320~\000\0216*\000\032\360*\000\0216*\000\031\370*\000\0203\007\000e\005\250\003\000\000\370\020\001\0214$\001U\310\003\000\000\360\024\000\0215\245\000U\330\003\000\0000`\001\0216(\000\000$\000\025\020\024\000\0207\007\000\020\005L\000\025\350\024\000\0218(\000UX\004\000\000\320\024\000\0219P\000U\270\004\000\000\310\024\000!10\025\000(\310\004=\000\0221\262\001\030\320\025\000 p1\007\000>\002\330\004\002\002S\020\005\000\000\270\337]\004*\002\000\024\000%x\013\007\001\0217[\001Sh\005\000\000\360\220R\001\025\000\023\004\025\000\025\350\025\000\"12p\001H\005\000\000\370*\000\000\342\000\000&\000'\220\bT\000\000\245\000\000P\000'0\t?\000\000T\000\000;\000%\020\b\025\000\002\003\002e\b\006\000\0008\006\025\000\0214i\000V(\006\000\000H\025\000\0215*\000\000&\000\026\210\025\000\002\331\001VX\006\000\000\250\025\000\0217\300\002Vp\006\000\000\330\025\000\0218?\000V\320\006\000\000(~\000\0219*\000\000&\000\025\350*\000!20\025\000\000\021\000\026\360\025\000\0211\025\000\000\021\000\025\370\025\000!d8\025\000e\b\007\000\0000\007\374\00008\000\021e\001F\007\000\000\030\025\000\0219\025\000\"\030\007z\001\024\000\025\000\020\022\347\000\n\025\000\0221\177\000\000Q\000\026\270@\000\"10\177\003V\007\000\000\020\n,\00001\000\024V\003G\007\000\000\250,\00001\000\023W\003G\007\000\000\230\026\000\0212\026\000\033\230n\000\0212B\000\033\250\026\000\0213\033\003W\260\007\000\000\350B\000\0213\232\000\030\270\204\000\022f\002\004(\b\b\230\000\0222\352\001\000\346\001&\030\bU\000\002\304\003VX\b\000\000x*\002\0221\357\003Wh\b\000\000p\026\000\002`\003\000\022\000\027\310B\000\002\003\002\000>\000\027\210\026\000\0216\026\000\000\022\000\027\230B\000\0206\037\000\020\005\224\002\027\250,\000\002\355\002\000(\000\027\320,\000\002\304\002\000(\000\024(\257\002\022f\304\000\030\360\331\000_fa1__Ne\b\001\013\001\032\3702\000\03722\000\013\000d\000j\b\t\000\000\360\tQ\001(\020\tF\000\002\214\000\031\030\024\000 18\b\000\020\005\261\000\0258=\000\0213x\003\000t\003\025x\024\000\0205\007\000e\005H\t\000\000\230\024\000\0023\001UP\t\000\000X\024\000\002\033\001\000\020\000*p\tY\004\031hy\000\002I\003\031p\265\000\0219x\000\000t\000\025\220\024\000!17\312\000\032\210\266\000\0210*\000\032\220\025\000\001g\000\020\005\237\000\026\250?\000\002\257\006\031\250*\000\037v\201\001\f\0002\000_\260\t\000\000\030\201\001\026\000\314\000\031\360d\000\0172\000\021_ \n\000\000H\027\002\032\n2\000!16\322\001\032(\025\000\0219\\\000\0320\025\000\002\n\003_X\n\000\000x\007\001\026\0002\000_h\n\000\000p9\001\032'p\n\005\004\022f\n\007\023\210\024\000\004*\003\002\274\006T\350\n\000\000\370\\\000\001\026\000\023\002\026\000\031\360\026\000\000\210\000\000\022\000\031\020B\000\000,\000\000>\000\027Hq\004\002A\002W\b\013\000\000\030,\000\002\026\007\000>\000\026(,\000\0222C\002\000(\000\026P,\000\0222-\007\"(\013\260\000\f\300E!\000\231?\000\007D\t\rY\t\037\004Y\t\000\023\002Y\t%X\006)\000\000\033\000#\005\270\024\000\0045\b\023\003Y\t\bm\t\000P\000\000Y\t&\260\004m\t\000\340\001(\030\0015\b d3\247_h\005P\001\000\000\320\031\t\020\r\365\001[\001\000\000\250\002\227\t\"\220\001\300\t\030\001\227\t\020\230\305\b\026\003O\001#\000\n\004\t'0\003\227\t\020\013\246\000\000\301\t\027\003m\t\000\235\002\020\350m\t\027\003m\t\023\007.\t+\310\003m\t)\020\002*\000\002m\t)\030\002*\000\0216\250\000)(\002\250\000\0216\250\000)0\002\250\000\002\251\007\032P*\000\0217*\000\032X*\000\0218\322\000)h\002\322\000\0218\322\000)p\002\322\000\0219*\000\032\220*\000\0219*\000\031\230*\000\002\327\tj\b\005\000\000X\005\327\tf(\005\000\000P\005\327\t\000\266\001f8\005\000\000h\005\327\t\000(\000\000$\000+\220\005\327\t\030\005\265\b\02195\001\031\270\024\000\003\327\t\020\030\212\b\027\006\327\t\023\004\363\b+0\0062\t'0\006?\000\003\223\005.8\006\225\002Sx\006\000\000\310\023h\004\275\002\t\024\000\"r1\252\002\000@\t\030\330n\t\000f\000\000@\t+\320\006n\t\031\270\032\t\003\266\004\000&\000'\020\007n\t\023\003D\t'\270\007n\t\023\006\257\b\007\025\000\002\317\003\023\230\256\b\005n\t\023\004\201\b\005*\000\021p\220\0042\002\260\007\274\000\b\344\000y\340\007\000\000\260\022\000\344\000\000\024\000'\020\023\252\t\000\220\000(\360\007}\b\003\222\b(\b\b\376\t\0222\016\001\000&\000\026P\025\000\002\016\001\0318d\b!25*\000\000&\000\026\260\025\000\002\360\013\000\240\b%\360\b\025\000\002\032\002e\330\b\000\000\370\b\025\000\002\033\002\030\360`\b#r2\335\004\b\204\007\"r3\334\004\023(\255\007\006\375\t\000g\003U\350\t\000\000\370+\000\000\026\000\023\006\026\000\031\360\026\000\023\004\323\006\027\270J\005\0210\317\001\000>\000\025\320J\005\0223\251\r\000[\006%\220\f\025\000\0212\202\000(\270\nt\005C33\000\006s\005%\030\r\025\000\002A\003\000r\005\0260*\000\002*\001\000\021\000\0268\025\000\002*\001\000\021\000\026\350?\000\002\375\003\023H\307\005\006\322\n\000\026\000h\220\013\000\000\260\013\322\n\000\024\004h\230\013\000\000\250\013\322\n\000\026\000\000\022\000\025\030\300\000\"d1'\005\000>\000\031\310\322\n\000\027\001\000\023\001,\320\013\322\n\000(\000(H\f,\000\000-\001\000(\000%\360\013\210\007\001@\000h\020\f\000\000\360\016\275\n\000\202\000Wp\f\000\000\210@\00034\000\b\026\000,x\f\377\n\000\022\000\031XB\000\000,\000\000>\000$h\016,\000!38\231\001\000\225\001\026\b0\001\002\331\004U\360\f\000\000\370V\000!40\025\000\000\021\000%\030\017\025\000\002\330\001\000;\000(\020\r=\013\000\026\000fX\r\000\000x\r\200\000\0215\302\000hh\r\000\000p\r=\013\001\330\000G\r\000\000\220B\000\0021\017\000>\000(\210\rS\013\000\026\000\000\022\000(\270\rS\013\000B\000\000>\000&\330\r\307\n\000\024\000)\330\r\255\000\002p\002\000\030\002(\360\r<\b\000\026\000h0\016\000\000P\016<\b\000\207\002h8\016\000\000H\016&\b\000\026\000\000\022\000\025\210C\001\004R\b\000>\000(x\016<\b\000\205\001\000\201\001(\370\016<\b\000\205\001\000\201\001\031\350,\000\000\331\000Yp\016\000\000\220,\000\000X\000\000T\000&\270\016,\t\000\202\000\030\260@\000\022f\036\003f\310\016\000\000\320\016\213\013\000\024\000\"\320\016\001\001\006R\000\000>\000)\350\016\027\001\002\260\002Tx\017\000\000\220\025\000\021p\223\tg\002\210\017\000\000\230?\000\003\356\001C\020\000\000\030\230m\002\026\000\023\006\026\000\031\020\026\000\000\377\000\000\022\000(H\022B\000\001\336\003U\020\000\000P\022\201\000\002\005\bex\020\000\000X\021\025\000\002\301\000\020\330@\000\006\025\000\002\026\006U8\021\000\000\030\206\005\0224\026\006\000&\000\026P*\000\002\326\001\000\021\000\026\350*\000\0219i\000\000e\000\025\320*\000\0225\222\001V\270\021\000\000\310\025\000\002\034\004\000\021\000\026\350\025\000\0212?\000\000;\000&\330\021\351\000\002\026\000W\030\022\000\0008\351\000\002\033\004W(\022\000\0000\026\000\002\005\004\000\022\000\023\030\252c\002\026\000\000B\000\000>\000&X\022\026\000\002\305\003\023H\026\000\025\001\026\000\000A\001\000=\001\031h,\000\000B\000\000(\000\031x,\000\000B\000\000(\000*\230\022\217\r\023\230\202\000\004*\000\002\261\003(\370\022\336\006\000\026\000\023\006\026\000\031\b\026\000\000\036\007\000\022\000(p\024B\000\000 \007\000>\0005x\024\000,\000\002\307\003\020X\026\000\026\023,\000\002\306\001\020hB\000\007\026\000\002\317\006\000\022\000\027\220n\000\002\363\003\000>\000\027\210\026\000\002\266\004\000\022\000\027\270B\000\002\006\f\000>\000&\330\023k\016\000\024\000\000\020\000\027\330\230\000\002\310\003W(\024\000\000H\304\000\002\037\002V0\024\000\0008\026\000\0223\234\003\000\022\000\026XB\000\0223J\003\000>\000\027P\026\000\002\337\002\000\022\000\027\320B\000\0027\003)X\024\204\000\0223=\bYh\024\000\000\210,\000\000^\001\000Z\001&\260\024\007\017\000\\\001f\250\024\000\000\350\024\007\017\000(\000g\270\024\000\000\310\024\362\016\000\025\000)\310\024_\002\003i\000\000\221\000\031\360i\000\001\031\001\003,\000\016\033\026w\003\003\003\003\002\002\003\001\000\024\002\001\000\021\020\016\000\007\021\000\t'\000\025\016\016\000\025\016\001\000+\020\016\001\000\023\003\001\000\017=\r\002\003m\000\035\003\001\000\027\002\202\000\036\002\013\000\0023\000\007\013\000\000\204\000\004\023\000\017\235\000\000\020\003=\000\0051\000\0053\000\0024\000\013\013\000\001\264\000\366&\001\021\001%\b\023\005\003\b\020\006\033\b\021\001\022\001\000\000\0029\001\003\b\000\000\003\004\001\003\b\013\013:\013;\013\000\000\004(\000\003\b\034\017\000\000\005\023\0016\013\030\000p\006\r\000\003\bI\023\r\000\2208\n\000\000\007.\001\003\b\r\0000<\f?\200\007\220\005\000I\0234\f\000\000\t\t\000r\000\000\n\026\000I\023!\000\202\000\000\013.\001\207@\b\016\000\"I\0231\0000\f\b\000\017\000\000\n\005\321\r$\000\003\b>\013\013\013\000\000\016\017>\000\027\017{\000\000\007\025\005{\000\020\005{\000\023\021{\000\022\005J\000\026\022^\000\024\005^\000\025\023\177\000Q\005\000\000\024&U\000=\025.\000\206\000\030\026\306\000W2\013\000\000\027\253\000\004\024\000\035\030\277\000\000\026\000!\031\020V\000\300\032.\000G\023 \013\000\000\033.\001U\001$@\n,\000\020\005a\000t\034\005\0003\013\002\n\236\000p\000\000\035\035\0001\023)\000\253X\013Y\005W\013\000\000\0364\"\000\021\037\032\001\020\005\032\001\033 z\0004\000\000!\374\000\004\302\0008\".\001\232\000P\000\000#\023\000)\000\020$C\001\004\274\0016%.\0002\001`\207\001\f\000\000&c\003\020'2\007\200(&\000\000\000)\025\001{\000;*.\001(\000:+.\000p\000\026,\223\000\022\005\223\000R\000\227;\000\000~\017!\b\001\340f\024 \212b\362\f18.1.7 (https://github.com/Gi`gpgpu/Xi\370\".git a5ebf7f2c1f246a5e3a081a4fd1576247e574b30)\000\032\000<h\000\001\000\017li\022\034\000ljS\002nv\000\002\321h\361\000\002detail\000\003sm_sel\327h\301\000\b\001X\004sm_35\000#\b\000A7\000%\004Uc!\0002\b\00012\0004\b\00003\0005\b\000A60\000<\b\00011\000=\b\00002\000>\b\000A70\000F\b\00012\000H\b\00005\000K\b\000A80\000P\b\00016\000V\b\00017\000W\b\00009\000Y\b\000r90\000Z\000\005\005\242\000\200_descrip\037\033R\000\b\001Q\006\027\000 s\000\005\032o\001R\002#\000\007)\000\000`\001T\001\001\b\2164\021\020\t(\000\362\r\000\000\nx\002\000\000base_int_t\000\0012\013_ZN2nv6>\000\0226\b\001\367\00410is_exactlyENS1_11\031\001&E\000\036\000@\000\001\216a\202\0000\001\t\320`\000\017N\000\002\2378providesK\000\001\004\034\0008\000\001\223I\000@\000\f\001\253\020\000A\f\001\254\320\016\000!\312\302\016\000\020\313^\021\361\001\000\000\runsigned long\005\000@\000\007\b\0162\000\360\000\017\005dim3\000\f\002\242\001\020x\0002)hv\244\001\002#\000\020y\r\0006\004\020z\r\000!\b\0211\000p\002\247\001\001\001\bB\021\021\020\t\034\000\006\005\000\023\000!\000\026\250!\000\020G\027\000`\022_ZNK4\034\000\361\005cv5uint3Ev\000operator \021\000@\000\002\251\001,\000@\001\001\b\205\007\000\b\272\000\363\001int\000\007\004\016\223\002\000\000\023U\003\000\0001\000B\200\001\005\005\013\000C\f\002\300\006\302\000e\302\002#\000\006y\f\0005\004\006z\f\000\200\b\000\016\212\003\000\000\024H\000:\005\004_uk\005\317e\000\354\0010\0034\025\237\001\0376$\000\007\22517__fetch\035\000MxEv\000\024\000A\000\00352\325\000\017P\000\037\037yP\000\000Oy\000\0036P\000%\037zP\000\000Bz\000\0037P\000\000\217\002\037KQ\000\t!cv\300\001\b\270\001\000\020\0000\000\003:O\001A\001\001\b\013A\022\017H\000\020\017\001\002\005G\003;U\003J\000\037\026D\000\007\217\000\003>\001\001\003\b\025(\000\031 \t\032z\022\037\027\237\000\ruaSERKS_\234\000\023=D\000\026\013D\000\037\030D\000\016\027d\335\000P&\000\003>\037=\000\004E\000\320\000\000\016\020\006\000\000\024\217\003\000\000\016\005\0003\031\020\006\n\000\r\225\002\004Ah\001\224\002\021A\364\001\0375#\000\006\017\223\002\026\027BC\002\017O\000\002\017\222\002\033\037CO\000$\017\221\002\004\030D\221\002\017P\000\002\017\220\002\013\023G\220\002\021\226\223\033\017G\000\017\017\217\002\0067HU\003I\000\037\026C\000\0060\000\003K\335\001\037\240'\000\0305\t\245\b\215\002\017\234\000\007\017\214\002\000\001C\000\026\226C\000\037\030C\000\r\013\213\002 K\252<\000\004D\000\220\000\000\016\233\b\000\000\024$\201\002\000\005\0003\031\233\b\n\000\017\213\002\0031Dim\213\002\037N\355\001\007\001#\000\017\213\002\026\036O<\002\016O\000\017\213\002\027\037PO\000$\017\213\002\004\037Q\213\002\016\001P\000\017\213\002\006\023T\213\002\021!%\024\017G\000\017\017\213\002\0067UU\003I\000\037\026C\000\0060\000\003X\335\001\037+'\000\030?\t0\013\213\002\013\0012\000\017\213\002\000\001C\000\026!C\000\037\030C\000\r\013\213\002 X5<\000\004D\000\220\000\000\016&\013\000\000\024\257\201\002\000\005\0003\031&\013\n\000 \032\257\375\000 \032C=\005 \032\316\270\002\034\033\225z*\001\234\336\016\000\013\000\262\000\004>\001\001\034\006\t\221h\226\001\000\021m\232\000\000\027\000u\036\037\000\000\034\006\013\032\000?#\ba\034\000\007P\020Size\032\000+\371\027\032\000$\024t\027\000\201\035:\013\000\000\230\003\000\001\000\023\270\b\000v\004C\001\005\035@\013\021\000%\330\003\031\000F\023\035F\013\021\000%\360\003\031\000\021 \031\000!\000\006\020\0003\000\030\006\031\0001D\001LK\000\004\021\000%8\006\031\000\021W}\000\023P\021\000%p\006\031\000Ab\000\032\377:\001\021\222:\001(\035\t:\001*\300\025:\001\007\240\017\000\016\0002\000\004L=\001*P\226=\001\025L!\001\035P=\001\017\034\000\000/\020b\034\000\007\022\030Y\001\025LY\001\005\032\000?\034j1\030\000\002$ t\027\000\030\036\027\000\216$xidx\000\004Q\032\000!(y\032\000\026R\245\001\023\370,\035\023\030j\033#\004N\245\001\004\021\000%8\005\031\000\002\245\001\004\021\000\026P\031\0000 \035t\217\027\003k\001\024\230s\001fO\001\005\035z\f\021\000%\270\006\031\000F\023\035\200\f\021\000\026\320\031\000\021 }\000\000u\032\002\034\016\003\031\0002Q\001\r\t\002\003\021\000\026\030\031\000\021\032\310\000\0230\021\000\026P\031\000\021'}\000\023\270\021\000#\330\b\031\0001R\001\r}\000\004\021\000\026\360\031\000\021\032\310\000!\000\t\020\0005\000 \t\031\000 '\000\"v\260\000\f\005\310\336\027\000\000\f\005\311=\205A\f\005\312&\007\000!\313E\007\000!\314b\007\000!\315\201\007\000!\316\236\007\000!\317\303\007\000!\320\342\007\000!\321\377\007\0000\322\034\031\007\000!\323G\007\000!\324b\007\000!\325\177\007\000!\326\232\007\000!\327\267\007\000!\330\322\007\000!\331\357\007\0000\332\016\032\007\000!\333+\007\000!\334N\007\000!\335m\007\000!\336\224\007\000!\337\267\007\000!\340\332\007\000!\341\375\007\0000\342'\033\007\000!\343R\007\000!\344w\007\000!\345\226\007\000!\346\303\007\000!\347\360\007\0000\350(\034\007\000!\351G\007\000!\352n\007\000!\353\240\007\000!\354\326\007\000!\355\365\007\0000\356\032\035\007\000!\357L\007\000!\360q\007\000!\361\226\007\000!\362\267\007\000!\363\343\007\0000\364\004\036\007\000!\365\037\007\000!\366>\007\000!\367]\007\000!\370z\007\000!\371\227\007\000!\372\266\007\000!\373\327\007\000!\374\372\007\0000\375#\037\007\000!\376\\\007\000\241\377{\037\000\000\037\005\000\001\242\b\0001\001\001\317\b\0001\002\001\360\b\000@\003\001\035 \b\0001\004\001K\b\0001\005\001h\b\0001\006\001\207\b\0001\007\001\260\b\0001\b\001\327\b\0001\t\001\372\b\000@\n\001\025!\b\0001\013\0012\b\0001\f\001O\b\0001\r\001j\b\0001\016\001\207\b\000\240\017\001\250!\000\000\f\0074\307\007\0001\tU\333\007\000!h\357\007\0000{\003\"\007\000!\216\027\007\000!\2321\007\000!\255E\007\000!\300X\007\000!\323l\007\000!\346\177\007\000\241\371\223\"\000\000\037\t\f\001\250\b\0001\030\001\301\b\0001+\001\333\b\0001>\001\365\b\000@Q\001\b#\b\0001d\001\035\b\0001p\001;\b\0001\214\001S\b\0001\237\001f\b\0001\262\001z\b\0001\305\001\216\b\0001\330\001\241\b\0001Y\007\265\b\0001Z\007\305\b\0001]\007\324\b\0001^\007\351\b\0001_\007\377\b\000@a\007$$\b\0001b\0079\b\0001c\007O\b\0001e\007e\b\0001f\007z\b\0001g\007\220\b\0001i\007\246\b\0001j\007\272\b\0001k\007\317\b\0001m\007\344\b\000@n\007\001%\b\0001o\007\037\b\0001q\007=\b\0001r\007P\b\0001s\007d\b\0001u\007x\b\0001v\007\214\b\0001w\007\241\b\0001y\007\266\b\0001z\007\312\b\0001{\007\337\b\0001}\007\364\b\000@~\007\t&\b\0001\177\007\037\b\0001\201\0075\b\0001\202\007O\b\0001\203\007j\b\0001\205\007\205\b\0001\206\007\243\b\0001\207\007\302\b\0001\211\007\341\b\0001\212\007\373\b\000@\213\007\026'\b\0001\215\0071\b\0001\216\007K\b\0001\217\007f\b\0001\221\007\201\b\0001\222\007\233\b\0001\223\007\266\b\0001\225\007\321\b\0001\226\007\347\b\0001\227\007\376\b\000@\231\007\025(\b\0001\232\007+\b\0001\233\007B\b\0001\236\007Y\b\0001\237\007p\b\0001\240\007\210\b\0001\242\007\240\b\0001\243\007\270\b\0001\244\007\321\b\0001\247\007\352\b\0001\250\007\377\b\000@\251\007\025)\b\0001\253\007+\b\0001\254\007?\b\0001\255\007T\b\0001\257\007i\b\0001\260\007}\b\0001\261\007\222\b\0001\263\007\247\b\0001\264\007\275\b\0001\265\007\324\b\0001\267\007\353\b\000@\270\007\002*\b\0001\271\007\032\b\0001\273\0072\b\0001\274\007E\b\0001\275\007Y\b\0001\277\007m\b\0001\300\007\207\b\0001\301\007\242\b\0001\303\007\275\b\0001\304\007\334\b\0001\305\007\374\b\000@\307\007\034+\b\0001\310\007<\b\0001\311\007]\b\0001\313\007~\b\0001\314\007\235\b\0001\315\007\275\b\0001\317\007\335\b\0001\320\007\376\b\000@\321\007 ,\b\0001\323\007B\b\0001\324\007W\b\0001\325\007m\b\0001\327\007\203\b\0001\330\007\231\b\0001\331\007\260\b\0001\333\007\307\b\0001\334\007\344\b\000@\335\007\002-\b\0001\337\007 \b\0001\340\007<\b\0001\341\007Y\b\0001\343\007v\b\0001\344\007\214\b\0001\345\007\243\b\0001\347\007\272\b\0001\350\007\320\b\000\241\351\007\347-\000\000\f\013\203\376\007\0000\204\r.\007\000!\206>\007\000!\212K\007\000!\215h\007\000!\220\206\007\000!\221\232\007\000!\222\256\007\000!\223\302\007\0000\224?/\007\000!\225[\007\000!\226t\007\000!\227\206\007\000!\230\227\007\000!\231\263\007\000!\232\310\007\000!\233\342\007\000!\235\371\007\0000\236\0240\007\000!\237G\007\000!\241h\007\000!\244\211\007\000!\247\241\007\000!\250\260\007\000!\251\315\007\000!\252\337\007\000!\253\377\007\0000\254\0371\007\000!\255@\007\000!\257W\007\000!\260\204\007\0000\364\0302\007\000!\366J\007\000!\370]\007\000!\371\352\034\000!\372s\016\000!\374\216\007\000!\375\346\007\000!\376\243\007\000\261\377\3042\000\000\037\013\000\001\0013\321\023\360\001St3abse\000abs\000\007O\025$\340\n\020\t\007\000p\000\037\017\273\001\0044\b\0001\274\001#\b\0001\275\001D\b\0001\276\001c\b\0001\277\001\204\b\0001\300\001\253\b\0001\301\001\312\b\0001\302\001\353\b\000@\303\001\n5\b\0001\304\001)\b\0001\305\001V\b\0001\306\001s\b\0001\307\001\222\b\0001\310\001\261\b\0001\311\001\316\b\0001\312\001\355\b\000@\313\001\n6\b\0001\314\001+\b\0001\315\001J\b\0001\316\001o\b\0001\317\001\220\b\0001\320\001\271\b\0001\321\001\336\b\000@\322\001\0037\b\0001\323\001(\b\0001\324\001P\b\0001\325\001w\b\0001\326\001\230\b\0001\327\001\277\b\0001\330\001\342\b\000@\331\001\0058\b\0001\332\001*\b\0001\333\001K\b\0001\334\001l\b\0001\335\001\213\b\0001\336\001\252\b\0001\337\001\307\b\0001\340\001\350\b\000@\341\001\0139\b\0001\342\0011\b\0001\343\001[\b\0001\344\001\213\b\0001\345\001\256\b\0001\346\001\336\b\000@\347\001\016:\b\0001\350\001.\b\0001\351\001O\b\0001\352\001{\b\0001\353\001\245\b\0001\354\001\303\b\0001\355\001\343\b\000@\356\001\003;\b\0001\357\001!\b\0001\360\001A\b\000A\361\001e;\271\024\260St4modfePe\000\b\000G\000\tl\001\332\0010\t\216;4\t@ _ZL\374\001\021i\374\001 \005\036p\n \001\t\006\000 \000\r\276\024 \005\004\"\000p4acosf\000\006\000P\000\005 \035\030$\000\000\006\000\221\000\rfloat\000\004&\000\0205 \000\022h'\000Gh\000\005\"(\000\002E\000Psinf\000\006\000;\000\005$\035\000\0205\027\000\022h\036\000Mh\000\005&<\000 ta<\000mtan\000\005*<\000Rtan2f\037\000F2\000\005( \000\013%\000\022h$\000Kh\000\005,D\000p4cbrtf\000\006\000=\000\005.\035\000Peilf\000\006\000;\000\0050\035\000P8copy\360\0254ff\000\013\000?\000\0052\204\000\001\0213F\001\001E\001\0354c\000\001;\001\002:\001\0336\035\000\3133erff\000erf\000\005:\033\000Q4erfc\034\000Mc\000\00588\000\255xpf\000exp\000\005>8\0001xp2\034\000K2\000\005<\035\000a5expm1\036\000[m1\000\005@\037\000\2014fabsf\000f2\002\035B\035\000`dimff\000\007\000?\000\005D\213\001\002qfloorf\000\007\000;\000\005FB\000P3fmafB\000[ma\000\005HA\000\bi\0002max'\000Kx\000\005J(\000\004#\000!in#\000\000s\002\037L#\000\004!od#\000_od\000\005N#\000\001\34610fpclassifyf\000\f\0002\000\005P.\003\007\331\000\020rr\0011Pi\000\t\0007\000\005RP\000\020M\303\0163\016\371\027+\000\201hypotff\000\b\000?\000\005Tz\000\001\2015ilogbf\000\007\000;\000\005Vo\000\2648isfinitef\000\n\000U\000\005[\273\033%\000\200\rbool\000\002\001-\000\2019isgreatK\002\005\f\000_\000\005_\273\033\363\000\000\0254\"\000Xequal3\000\001\021\000?\000\005^8\000\00115isq\001\001\007\0006\000\005d$\000\001\037\000q6isless!\000\000\t\000?\000\005hF\000\001\"11\037\000\006{\000\005\016\000?\000\005g2\000\002\0223$\000\b\342\000\007\020\000?\000\005j\256\000\004\020nV\004\001\007\0006\000\005o$\000\004_\001\204normalf\000\n\000;\000\005q%\000\000\254\000\200unordereH\002\007\016\000?\000\005sv\000\001\2014labsl\000l>\0030ti\035\"\000\000\006\000!\000\r\343\032 \005\b%\00005ldJ\002!i\000\b\000U\000\005v\035\030J\000#\371\027J\000\2226lgammaf\000\b\0006\000\005x&\000\022\000F\000\000f\0002x\000lm\000!y\326m\000\025\326m\000\027 r\000\2226llrintf\000\b\000Y\000\005{\326\035M\000\3533logf\000log\000\005\205\035\030h\000Aog10\035\000\000c)\037}\037\000\001\022p\037\000Kp\000\005\177\037\000Q4log2\036\000O2\000\005\201\035\000\0002bf\000\001\003\035\203Y\000\003\263\000\002\262\0009\207i\035\037\000\2226lroundf\000\b\000;\000\005\211!\000%7l\"\000\004#\000\033\212\366\000\001C\0072fPfC\007D\005\214\035\030\037\000\020\t\030\022B\000\016\035\030)\000\2013nanPKc\000K\0020\215@\037'\000\020J\"\000\361\f\rdouble\000\004\b\016O\037\000\000\024T\037\000\000\rchar\000\006\231\003\0204\204\002\003:\000ef\000\005\216\035\030;\000\000\037\000q9nearby\350\000\005\013\000Y\000\005\220\035\030\250\000r9nextaf\375\002\005\f\000^\000\005\222\035\030\203\002\3373powfi\000pow\000\005\226Z\002\001\2019remaindN\000\005\f\000?\000\005\230N\000\001\2006remquof\370\004\002\013\000;\000\005\232)\000\002\376\004\001\357\000\002\263\001\002\262\001\026\234'\000\001\035\000\0235\217\001\003\215\001\033\236\037\000\2637scalblnfl\000\n\0006\000\005\240$\000\002G\003\001\223\000\001\037\0002nfi(\000On\000\005\242\347\000\001\0207\254\007Sbitf\000\t\000;\000\005\247\340\003\0213\312\004\001\263\b9\251\035\030\033\000\0224\262\b\002\261\b\035\253\035\000\020qP\b\000\006\000;\000\005\255\035\000\0213\315\b\001\314\b\033\257\033\000\0224\246\b\002\245\b\033\261\035\000#6t\361\003\023t\361\003\033\263!\000\2015truncf\000\007\0007\000\005\265\037\000\020!\003\0040\006H\003\375\000\023\001\342\t\020\"\252\t1\000\b5\256\002A\001\t@\037\024\000\000\355\000*\b7\024\000\000\254\000-\b9\024\000G2\000\b;\025\000\003\032\000\001(\t)\b\237.\000\001i\000\034>\023\000Ih\000\bG\024\000\000\355\004)\b_\023\000\001g\b*\b\242\024\000\001:\b*\b\245\025\000\000\303\007.\b\250\220\000\002\215\007(\bb\032\000\001\220\002\022\"^\005(\be\032\000\002\032\001\000\350\004'\bh\030\000\"\000\"\336\004)\bk\025\000\001\027\004'\bn\024\0000\t6#\030\004\000\013\000\020\"b\003.\b\214\222\000\001c\001\031@I\000\001G\002*\bI\024\000\000>\002)\b\217\024\000\001\212\001\034B\023\000Hh\000\bK\024\000\020\n\006\000\002y\004`_t\000\n\226\n\004\002\001\254\013\000\017\0002\225\"a}\001\031UH\000\003\277\013 \bU-\000\023\0018\002\002\026\000Gl\000\bU=\f\003?\006\005\332\004\"\"a\277\000\035WJ\002\000P\000\032WP\000\000\026\000Hl\000\bWP\000\"\"a\305\000\035Yc\002\000A\000\032YA\000!taA\000\031YA\000\001\272\013)\b\230@\000\002\324\013\022\b\266\004\004?\000\000\025\000Jl\000\b\230>\000\004\271\013.\b\304\256\001\004\035\000Gf\000\b\304K\000\002\002\005\005\036\000Gl\000\b\304T\000\003Y\000\000\265\013G\b\344@\037\226\000\001U\005G\b\344\035\030\225\000\227erfl\000\b\344\025$\224\000\001\324\013,\b\345<\000\\cf\000\b\345=\000Zcl\000\b\345>\000\000\332\013,\b\202^\003Z2f\000\b\202>\000|xp2l\000\b\202>\000\\m1\000\bw?\000\000\026\f,\bw@\000hm1l\000\bwA\000\021!\377\013=\bF\001N\001\001\032\000\020f\033\000\rK\001\001\033\000\020l\033\000\rH\001\020!\r\f-\bOO\000\001\005\000\001\036\000\020f\037\000*\035\030S\000\001\005\000\001\037\000\020l\037\000*\025$W\000\006\\\000Ox\000\bI\254\000\001\000c\f\000\033\000-\035\030\254\000@maxl\033\000.\025$\254\000\000\337\003\037LP\000\002\000N\006/\bLP\000\002\020iC\002\036LP\000\022\"#\fK\b\223@\037P\000\002\032\000kf\000\b\223\035\030P\000\002\033\000ll\000\b\223\025$\240\000\002O\f!\b\030]\032\003Q\000\003\026\000\027f\027\000%\035\030\027\000\027l\027\000\001D\000\023\"s\nH\b\346@\037#\005\003\240\006F\b\346\035\030D\000\003\027\000fl\000\b\346\025$D\000\023!j\n1\b<\001u\t\004\211\000\002\027\000\027f\030\000&\035\030\030\000\027l\030\000\005G\000\001/\b-\bBH\000\002N\b-\bBI\000\000\031\000\027l\031\000\001J\000\022\"\241\nF\bz@\037G\000\023\"\275\nF\bz\035\030D\000\002\026\000jl\000\bz\025$A\000L2\000\b\205@\000\000u\003\0024\013\007?\000\000u\003\034\205>\000Lb\000\b}>\000\000\225\001\002S\013\007>\000\000\223\001\030}>\000\023!M\001!:\001\345\n\003@\000\024!L\001\005\027\000%\035\030\027\000\027l\027\000\004D\000\002J\001\034@E\000\003I\001\034@F\000\003H\001\031@G\000\020\"\004\013 \b\311<\000\023\001\312\n\021\"\335\nJ\b\311\035\030\024\000fl\000\b\311\025$\024\000\026!\343\n(\b&A\003\007\032\000\020f\033\000'\035\030\210\000\005\033\000\020l\033\000'\025$\322\000\006\013\013/\b\003\221\003\000\005\037\000\020f \000\016\226\003\005 \000\020l \000\016K\003\000 \000 to\277\2229\000\b\005`\000\f \000\020f!\000&\035\030a\000\f!\000\020l!\000,\025$b\000\006~\013/\b\020\301\000\000\005\037\000\020f \000\016\301\000\005 \000\020l \000/\025$_\000\000\000\261\013-\b3\\\000\002#\t\003!\000\020f\"\000*\035\030^\000\t\"\000\020l\"\000*\025$`\000\004\"\000\001\320\001\030\000c\000#\000!\231\002\030\000W\000#\000!\230\002\030\000K\000#\000!\227\002\033*B\000\003\226\002\033*C\000\003\225\002\032*D\000\0042\f(\b\"F\000\0024\f\004\035\000\020f\036\000\007M\000\n\036\000\020l\036\000\007T\000\b\036\000]n\000\b\024\001G\n\003\034\000\020f\035\000\bW\000\b\035\000\020l\035\000\bV\000\001\035\000\023\"\343\013'\b\353U\000\004\026\000Gf\000\b\353O\000\004\027\000Gl\000\b\353I\000\"\000!\007\f(\b.\231\000\003\026\000\020f\027\000\bD\000\002\027\000\020l\027\000\bD\0001\n\013.&\210\240_t\000\006>#\001\n\033.Nw\002\020\000\300F$\005\020\006B\006quot\000\013\001 \006D\303*2rem\016\000\020E\271*\361\013%abort\000\006O\002\001\001\001!atexit\000\006S\002\371\027d\000 b.,\013\362\000g.\000\000&!at_quick_$\000\031X$\000t\"atof\000\006\252\013#J\037\024\000ji\000\006h\371\027\024\000fl\000\006ki\035\024\000\341!bsearch\000\0064\003\356.\030\000B\357.\000\000\005\000\025\365\005\000 \024/5/\262\016\364.\000\000(\n\003/\000\000\016\226I\000\f\022\r\213,p\000\007\b\023*/\000\324\250\200ompar_fn\016\001\200(\003\016//\000\000)\216\000\006`\000 \000!\234\226coc\000\006\036\002|\000\005r\000\265\000!div\000\006T\003\376-\224\r\002\376\001\022*\003\0014i\002\001\253\r\321\021free\000\0065\002\001\001\t\356<\000\306getenv\000\006z\002\256/\354\000\020\016_\020\021!\360\0213\006I\003\006\001\000\007\0001\000!ln\000EV\003\r.\025\000\003\032\000\023m\243\000\030\033\243\000\244\000!mblen\000\006\2324\016\000a\000\005\033\000\262stowcs\000\006\245\003\3654\000G70\000\000#\000p\016<0\000\000\rw\351\020\020_G\0300!mb2\0004\000\006\235O\000\0131\0001\021qs*\002#>\003\343\000*\t\365\233\001\030*\036\002\026o\033\001\203+rand\000\006\305\241\b3!re\317\000\024&\317\000\005N\0002\000\021s-\0002\307\001\001\003. \000\"\317\252Wod\000\006u[\002 \t\372\25744\016\256/ \000jl\000\006\260i\035 \000\002~\000\002@\000\177ul\000\006\264\003/!\000\001\250!system\000\006\020H\001\200\000!wcstom\250\001\024\250C\001\000p\0004\tz1\255\000\201\016\1771\000\000\024<0-\000\000,\0004\000\006\241D\000\001+\000\000\033\000\362\000\000\002__gnu_cxx\000\f\013\314\021\034\022\322\021\034\022\326\021\034\022\334\n\034\022\347\n\034\022\350\003\034!\351\304\007\000\022\353\030\034\023\354\t\034%N9N\000p3divExx\375\0030\000\013\331X\000\022\001<\024\002A\024t\000\n'2\000\000l\f\004\020P\f\004\022L\f\004\000 \000$\006N\f\004\001\016\000\020O\f\0041*_E\274\001\026u\274\001\022!\233\024U\006L\003\326\035a\000\000\026\000\001\254\002-Z\003w\000\001\340\003fl\000\006p\326\035L\001\003\244\001_l\000\006\310\326\245\001\nol\000\006\315x\002\"\000\007jf\000\006{\035\030 \000\003\033\000{ld\000\006~\025$\034\0001\f\r&N\036!\r'N\036!\r(\035\036!\r+U\036!\r.\345\035!\r1\216\001!\r6\206\036!\r7\206\036@\r9\341\025\007\000\021:x\036!\r;x\036!\r<x\036!\r=x\036!\r>x\036!\r?\320\035!\r@q\036!\rAq\036!\rBq\036!\rCq\0361\rD\342\007\000\021Fq\036!\rGq\036!\rHq\036!\rJq\036!\rKj\036!\rLj\036!\rMj\036!\rNj\036!\rOj\036!\rPj\036!\rQj\036!\rSj\036 \rTj\036\005\336\033\022f\336\033Kf\000\016;{\022\0226>\020\003\376\033Kf\000\016=!\000\"5a\034\030\001\007\000=\000\016?@\000\001.\020\003\002\034Mf\000\016A!\000\002\346\033\003\347\033Of\000\016D\350\033\006\003%\000Of\000\016EF\000\001\023h \000\000g\000\033G!\000\02155\020\002\n\034Mf\000\016I\037\000\000\013\034\002\f\034Kf\000\016K\037\000\0259,\020\007\016\034Of\000\016O\253\000\001\0224Q\001\002P\001\035Si\000\002O\001\003N\001\034W\037\000\001\n\020\002\371\033Of\000\016`\027\034\000\002\036\000Of\000\016e\337\033\000\"2f\375\033Of\000\016l\033\034\000\002\036\000Kf\000\016m\035\000\0226\005\020\"f\000\b\000;\000\016o!\000\0205\260\023\022f\036\034Mf\000\016p\037\000\001\037\034\002 \034Of\000\016r\031\001\001\0216\340\023\023f\"\034Kf\000\016|F\000\0224#\034!f\000\371\017+\016\200E\000\bo\000\001%\034\001)\000[xf\000\016\204*\000\004%\000\"in%\000\001\233\002\037\206%\000\004\"od%\000\000\363\023/\016\210\271\000\003\021r=\001\004\002\034Gf\000\016\212(\000$M\033(\000\002\271\017\004\377\033Of\000\016\214O\000\002\002\224\017\003\001\034@f\000\016\216\254\004\030\001\342\030\021dp\000\003(\032Gf\000\016\233H\000%\371\027\350\030\0027\n\004*\032mf\000\016\235\035\030\013\031\000\221\013\004\000\032if\000\016\246\326\035#\000\0248Q\017\005/\031\\f\000\016\250\326t\031\000&\025\000#\000\002\023\032\034\016\374\026\0226P\017#f\000X\017/\016\257.\032\000\0222 \000\000\236\002\037\261\037\000\000\000\023\001\003\022\001\037\2650\032\000\002\036\000Mf\000\016\266|\000\004\344\000\003\343\000;\273i\035\006\001\005\342\000\004\341\000\033\275#\000\0225\007\002\003\022\032jf\000\016\307\035\030\023\032\0024\036\006\257\016\007\270\0312f\000\016\003\017\006P\000\000*\000\004\204\016\b\273\031Of\000\016\315\024\002\001\0204\274\031 ff\275\031Of\000\016\347#\000\001&10\026\016\b\300\031Of\000\016\3570\000\001\0237\344\r\007\302\031Kf\000\016\365+\000\002\276\002\020,\003\001\003F\001\003E\001&\000\001*\000\003\021\032\003E\001\004D\001\027\252!\000\000A\000\0248o\r\006\311\031Gf\000\016\036H\000\002\231\n\000,\000\0237C\r\005\314\031\\f\000\016\026\001\346\002\023,\220\0312ff\000_\006\0272#\000\001\036\000\0235_\006\003^\006\0366 \000\000\261\031\002\262\031Lf\000\016: \000\0224W\006\002V\006\035<>\000\003V\006\003U\006\034> \000$7t\202\003\024t\202\003\034@$\000\0226\231\r\003\276\031Hf\000\016B\"\0000\f\020&2\b\020\016\203\bQ\f\0206\266\027\362,0/\b\000\020/\000\352;\"\004\021\f\000\0230\030\000\000{?\023\025\030\000\000\f\000\023\030\030\000\000%:\023\016\030\000\"\001\000\001\000'\004\022$\000\027\022H\00007\004\000\000\271\265\0010\000\000\001*\000\000\0044\340zT\"\001\000\\J9(\003\000\020\000\027P\020\000\000A0\033\260\020\000&p\005\020\000\000\nR\033\230\020\000*\270\006\020\000\033\350\020\000*\020\007\020\000&8\007\020\000\000U.\033\210\020\000\033\310\020\000*\b\b\020\000\033H\020\000_\004\036\004\000\200\374\000\001!\n\b\325.\242@\001\030\000\003\031\030\000\004\027\3041\020\003:\001%\360\021\020\0009\002\000\020\020\000\020\0016\000%\360!\020\000\001\001\000\241\360!\000\003\033\377\000\004\035\b\024\001\000\0361b\004\034\b\000\210\013\260H5\0044 \275O\000\230\000\027\200\370N\004\020\000\000\250\000/\240\002\250\000\003\021\n\250\000U$\000\003\031$x\0009\005\000 \230\0009\004\000\034\020\000\001h\264\r\310\000\006\270\000\017\310\000\013\021\020\2100\000A0\"\350\007\314/\000\320\000`P\025\000\000\210\025\320\000\025@\3411\000\300\000j \025\000\000\330\007\020\000*\230\017\020\000*\030\025\020\000\000\360\000& \000\244\255\023\024\034\000\000\001\000@\376\377\377\377\b\000\023\375\b\000\023\374\b\000\023P4\001\023*,\000\023V\214\002\023\002\034\003&\357\002\020\000\000P\000*#\001 \000*\035\000 \0009\242\016\000 \000\004z0\033\232\030\000\004\2320\033\211\030\000\004\3030\033\201\030\000\004\3430/p\016\030\000\003\033h\030\000\004,1\033W\030\000!P\b\017\000+\000O\030\000\004u1\033>\030\000\004\2361\0336\030\000\000\353\001\000\001\000\037%\030\000\004\033\035\030\000\004\0072\033\f\030\000\00502\013\030\000\004\344\003/\363\r\030\000\003\033\353\030\000\004\2312\037\332\030\000\004\033\322\030\000\004\3422\033\301\030\000\004\0133\033\271\030\000\004+3\037\250\030\000\004\033\240\030\000!\030\005\017\000/\000\217\030\000\004\033\207\030\000\004\2753*\217\f\030\000\004\3154\033\207\030\000\004\001\000*g\f\200\002\004D\003\033_\030\000\004E5\033N\030\000\004n5\033F\030\000\004\2165\0375\030\000\004\033-\030\000\004\3275\033\034\030\000\004\0006\033\024\030\000\004 6\037\003\030\000\0049\373\013\000\030\000!\270\003\017\000/\000\352\030\000\004\033\342\030\000\004\2626\033U\030\000\004W7\034M\030\000\003\001\000/\264\000\200\001\003/\254\0000\000\003*\344\n0\000.\\\005(\000\017\001\000\377\377\273\371\004\357\037\340\375\003\274\177\000\005\000W\000\200\007\230\\\004\000G\b\000\f \000\023\000\030\0009\003\000W \0001\006\000\007\020\000\261\000\006w\001\000\000(8\007\000\367\243\n\004 \0000\b\007\367Z\265B\034\t\0007(\000\022\t(\000\004 \000\023\n0\000\"\013\n(\000\204\007\b\327\017\200\003h6 \000\"\017\013\020\000\233\007\000\007!\200\003\220P\f\240\000\023\000\220\0003\005\000g\240\000\031w \0001\b\000\207\020\0003\006\000\227\340\000\031\247 \0003\013\000\267\340\000q\200s\000\000\240\342\017\363\003$@\342 \000\000\320\000\000 \000\023\007X\000J\017\000\207' \000\021\307\030\000\220\007\377w\000\000\020[\\\t\210S4\370\007\001 \000\023\tx\000\204\007\007\227\000\200\203\274[H\000\f \000@\017\000\200gX\0009\000\000\007 \0001\n\377\007X\000\"\007\n@\000\033\n\300\000@\017\000\000d8\000\240\r\006W\000\000\002G\\\r\rH\001\025\007\200\001\300\007\r\367\017\200\003e[\017\000\200](\000\002\210\000%\262[@\000\022\n\020\000@\027\000\007 `\001@\007\000\007\340\b\000\005 \000\022\020\020\000A\017\000\202Y@\000\032\005`\000#\027\007`\0002\020\007A(\000)\001S \001\022\0060\000\023\017(\000\004\310\001\007\300\000\021KX\000\020\b \000\"c[R\t'\220\342 \000\001\220\001\f\210\001\006 \000\000\221\b4\370\360\005 \000\001\200\001\025\005\200\001\023\f\240\001\204\005\fw\000\200\002\200Y\320\002\005\240\000t\360\007\374\377\377\017\001\030\000\017`\000\005$\007\013\240\000*\200\007\240\000\000B\f$@\342(\000\023\006\210\000\005\200\002\003\220\000\004\330\001\206\000\000\207\000\000\003\200Y\300\002\023\007 \002\020\007:\b\024\034P\003\005\240\000\005x\002\002`\000@\003\003\027\370(\003\005@\000\020\003P\003@H8\000\005 \000;\021\\\000@\000\"\005\004 \000\020\005 \000a\b\f\034\005\006W(\000H\357\037\340!\340\0030\006\005Gn\f\213P\005\377W\000\0000Y\300\000\312\003\001\b\005g\000\000\004\200Y\b\006\300\000\004\360\000\023\006\330\000\020\t(\000\026\000 \000\"\t\t\030\0001\000\005\227\030\000\020\005\220\003<\004\200Y`\004\"\006\005\030\004*\006\006@\0040\n\360\367\331\000A\001\n\nG\270\000 \n\n\274^\025\020\240\0001\n\nw\020\0001\006\ng\b\000\021\003p\002\006 \001\204\007\003\347\017\200\003b6\b\004\004p\003\f\200\001\004\210\000\033\n`\003\023\006X\004C\000\000\000\036 \004\032\033\340\002\000`\000`i6\017\000\200\026\030\000\217\007\006\027\000\200\003c6 \002\003\244@\343\007\006\207\376\377\003c7 \000\001\230\0014\000\b\004\200\000\021\017\236\005$@\343 \000\021\0030\0011\220Y\004\b\000\246\210Y\007\003G\000\200\203\275[\300\000\000\030\000&\230Y`\002h\367\377\377\007\000\004\340\000p\000\b \004\003\006\007\313\b0\034\003\000@\001\022H\340\000P<d\000\017\003\330\002Bk[\027\006\240\003\206\003:g\000\000 \340\\\200\000\002\270\005\202\003\3777\000\000\001\240\\@\000\025( \000\0028\000\020k\000\004\023@@\004\t\340\003\301\000\377\027\000\000\004\2408\004\003\027\000\340\001\022\004\317\020\006\240\000\021g\270\004\021\000X\000\021Gh\006\b\340\001\"\000\000\330\004\023\005\340\000\004H\001\r@\001\000\b\000%\370'H\001\006\200\001\0020\000#\n\n\b\003)\nW`\000\004\200\002\004X\000\f@\000\004 \000?\004\000W\200\000\003\000P\003<\004G\\\210\000\f@\000\fH\000\f\240\000\fH\000\017@\000\035\020\000\250\003%\374\017h\004'\017\031@\0014\000\200P\030\000?\004\000\007@\000\002\004(\005\033\000 \000 \000\f\200\006/X\\@\000\r\017@\b\000C\377\000\200\037 \000\300 \343\017\000\207\377\377\017@\342\000\017\020\000$\260P\200\002\020\001\300\002p\007\230L\001\001\207\376\270\003\204\000\000w\003\000\000\310\360`\000\204\007\001\007\000\200\003l[H\003\020\300\254\0204\000\240\343\300\004 \000\0010\004@\020\\\000\nX\000;\340\\\002\240\000\023\003\240\0043\000\000' \b\0317 \000\004\330\000\004\030\0000\020\000\027\b\000\024L \000\023\002@\000@\020\000\007\001\210\0021\002\003'\220\002\005\200\0002\360G\001s\020v\007\024\000\000\224\357\000\200\000\001 \0001\003\360\007 \000\"\003\003 \000\007\200\000\001 \0000\004\360\207\020\0030\001\004\004 \000[\225\357\b\000G \b\002\360\001\017\300\004\000\002@\000\003\240\000\004@\000\033\006@\000\023\007@\000\004\310\004\f\340\006\001X\004\001`\002\034\227\300\001\t\200\002\004\030\000\004\210\002\f \005\004X\000\004h\000\006\200\000\037w\200\000\n\375\000\t\020\367\017\000\200\020\\\n\002\367\017\000\b\020\240\005\004\220\005 \b\t(\000\223\327[\t\t\367\017@\005\330\000\005,g\000\030\001!\006\b`\002\024\240@\000 \007\020`\0013\020\034\b`\000\037\007 \n\005\022\007`\000f\007\007\367\017@\004`\000\f\270\000*\004\006`\000 \005\020\340\0013\020\034\006`\000\017 \001\005\"\004\005`\000f\005\005\367\017@\003`\000\fX\001 \003\004`\000\027\220`\000\021G`\000\037\003`\000\004\004P\002\b`\000/\300\001`\000\007\030\000`\0000<d\000\330\002\000\030\000\023\002 \003E\000\000\027\002\200\003%<d \003\006(\003\026W \000\007\200\000\005\210\000\002H\000\026L\240\002\002\200\000s\003\003G\000\000\0038\350\005,\020\\@\001\017\340\000\"/<d@\001\005\034\200@\001\017\240\001\"\017`\000\000\033\004`\000\242\004\377G\000\000\007G\\\003\004\330\000\020\007\260\0006\003b[\000\003\004@\013'\200\001\b\b\027\342@\005\001\370\013\023\005\250\002\023\000\250\000\f\240\006\004\200\001\004\250\000\005 \000\000\260\000<\000\330[\250\000\004\000\006\002\260\0003\260\200\007h\001\f`\000\004\330\002\004`\000*\006\007`\000\"\007\007`\000\f\b\003\004`\000\"\006\006\020\001\016 \016\017`\005\0036\004\000g \000C<d\000\0050\002\004\270\000\030\006`\002%<d\240\001\004@\0041\005\005gH\002\004`\002\0068\000\002\270\002\004(\000\f\340\001\001\300\n\000\240\001\003\020\002\004 \000\033\005\030\004\004P\000\005@\000\007\030\004G\300\002\330[`\000\030!@\001\023\005\b\001%\b\b`\b\020!\300\000!\b\b\360\bA\034\b\004\207\270\000 \b\n\350\001\035\340\200\004\023\021\310\005u\021\b'\000\300\b\370@\n0\022\b'\260\tP8\b\000'\001(\005@\t\003\027\001\260\000\005\200\001!:WP\000\207\007\006\367\001\000\000)8\240\000\t\340\001\023\024\030\0009\023\000w \000B\024\000G\001\030\000\0227\b\000V\024'\000\300\t\200\000\"\024\024\200\0001\007\bG\200\000O\b\t7\001@\002\001\fH\005\t@\002\037\004@\002\002\001 \001\004@\0021\004\004W \0019\004:G \001\"\005\004\330\000\f\340\002\005`\000\003\030\000\004\030\t\035\005\340\006\003 \000\222\005'\000@\002\3706\005\005\320\000\b`\003\000\330\000\020\000\240\004\000 \004\022\005\350\000\006\300\002\002\360\000\f\210\003\004 \000\t8\004\007\210\003\f\240\002\0048\004\f\240\001\004\240\000\004\030\000\f@\000\006X\003\022G\310\t\000\020\020- Y`\003\023\005\250\r\020\005h\003\026\002`\r \000\0068\000\244\210\\\005\003W\000\200\001\200Y\020\t\f \003\"\003\006 \000\001\240\0058\003\200Y\200\013\002\030\000\002h\000H\022\000'\001@\0001\021\000\027\020\000\fH\002\f`\000?\005\000G@\001\002\001\301\000<\000\220\342H\017\006 \001\004@\000\034W \001\030\375`\001\000X\317L\000\000 \342 \000\025\004x\000\002\b\000\f`\000\004\220\000\023\003\210\b\033\004 \005\005\200\006\003x\000*\002\003\340\002\204\003\003\367\017@\002\330[@\007\004\350\004\004\240\003\"\002\002\200\005\003\030\007I\\\002\0007\240\000\"\003\004\330\003\"\004\002\330\003*\003\003\200\002\"\004\004\200\002\f\210\000\004 \000\004\220\000\f\210\000H\357\037\340=\300\000\"\000\002\370\007\002\000\001\002\200\006$\000\274\240\013$\000\343\230\013\005\240\013@\007\200\374\000 \001\013\030\000\0040\000C\377\007\000\374\340\013\t\330\013\004(\000\023\340 \000\f\030\000\017\000\f\007/\007\375\000\fQ;\004\0007 \000\031\007X\001\033\002\000\f\023\000@\000\004\370\013\001@\t\007\000\fO\003\360\007\002\340\013\013&\307\001\340\013'\224\357\300\001\002 \004!\360\207 \000\"\005\005 \000\004\320\002\004 \000\023\006@\f\"\006\006\340\0139\f\000g\300\000\023\r\360\004\004\300\r;\r\000\327@\000(\207\000@\000\033\b@\000?\t\000w`\f\n\005\340\021\003@\000\033\n@\0009\013\000w8\021\004P\025\004 \000\023\006\230\000\023\007\230\000\033\006@\000\004\020\006\f \006\f \007\004\340\013\004\250\000\006\300\000\037\227\300\000\005\t@\f\004\230\000\036\n\000\026\017\300\000\n\"\r\002\030\004\"\016\000\030\004\007`\001\001 \0001\016\000\347\020\000\"\f\r\210\003f\r\r\367\017@\007\200\013\f\230\001*\n\f@\f \013\002\240\0013\020\034\f`\000\f\200\000\004@\000\"\n\013`\000f\013\013\367\017@\006`\000\f\270\000*\b\n`\000\"\t\002\370\t/\n\000`\rD!\002\207`\000*\b\000H\t\f\300\001\017`\r\025*\005\006\000\r1\007\002\307`\000\037\005`\000\004\0040\003\f\250\t\017`\000\005\033\004`\000 \005\002\300\003O\020\034\006\000 \f \017\300\r\r4<d\000\220\005\005h\006\013`\r\0040\004\0048\006\033\004`\r\004\300\006\006h\000\n`\r\006`\b\002@\t\001h\r\002\200\n\003\340\000/\207\001\340\000&\017\000\r\000\034\006`\r\003@\001\037\007`\000\004\005x\001\b\300\r\017`\000\b\017`\r\005#\004\004\300\013\000\000\025\017`\r\000B\000\000\200\354\240\025%\200\001`\r#<d\340\006\005x\rO\343\003\000'\200\001\f\037g\200\001\f\0377\200\001\333\022\006x\027\004x\001\004p\001\007\300\031\t\330\016\004h\001\004\000\t\0040\020\fh\001\006\200\000\002\320\002\f(\020\004`\001\006\230\001\0028\003\004(\000\f\240\001\004x\001H\005\002G\002\340\r\fx\001\f\200\006\fx\001\007`\000\022=\240\016\0028\000\004\330\003\033\003 \002\016@\002\n \002\f\330\000\f \n9\004\000'\330\000\004\b\000\005`\000\005\330\000(\207\002H\002\004 \000\f\330\000/\004\005 \020\000\007\330\000\004\350\001\024\357\240\001\003\330\000\023\007\350\006\033\003`\000\004@\002\004\340\000.\006\007\340\r/\300\001\340\r\002\007 \020\000\000\013\037g\240\r\002\004@\006\037\003\340\005\004\fx\000*\007\007\000\022\fx\000*\007\006\300\002\023\t\020\002\037\003\000\007\004\004`\000\b\000\007\b`\000\f\000\007,\003\b`\000\031\007\230\001\f`\000\004\240\000\t`\007\037\003`\000\007\030\006`\000\000\240\004\022\003\370\004\"\003\003H\0209\003\0077 \003\023\b \0001\b:\207\000\013\"\t\b0\017\017@\t\005?\n\000\207@\t\004\002\b\b\f\300\000\020\t\220\020C\004\3706\b\210\020\020\004\310\020\026\200 \0022\b\005\2278\017\003\340\r\004p\000\017`\003\002\031\004`\003\013@\005\002x\004\023\t\020\t\006\340\002\nX\001\005\300\002\004\200\000\b\270\0017\002\330[\200\000\031!\340\000\022\b\210\002\033\005 \000\025\b\240\037\002X\0229\013\002\207@\004\033\t\230\t\r@\t\007\230\t8\300\004\330\240\037\031!`\n\022\n\340\000\023\n\250\034\004 \0001\007\007\247\020\0001\007:w\300\001*\006\007\300\001\001\230\000C\004G\\\006\b\000\004\020\000\006\240\000\023g\000\004\003\000\003\013\240\000\004 \000\"\t\007\310\001*\007\007\000\0211\007\005w\320\001O\t\b\227\000\200\003\001\004\360\000\t\200\003\037\004\200\003\007\026\t\200\003\022!\300\004\002\340\0002\003:7\340\000\033\003\340\000\005\300\000\0237h\004\033g@\003\002X\000\005\b\004\f \000\222\003'\000@\003\3706\003\003\330\000:\005\0057\240\002#\bg\330\000\023WH\000\037\207\340\023\007\007\310\004\005\240\001\003\000\005\004\250\0229\003\377G\200\021\004@\0041\003\003\2278\021\f` \000\030\037\f\200\007\017@\n\026\002@\b\t\300\004\f`\000\004\300\004\t\340\007\037\001\340\007\027\"\007\004\300\035\006\250\026\n\200\036\004\330\007\017 \006M\033\005\310\002\006`\005\n \006\f`\005\004\000\001\t\b\004\017\300\005\b\030\007`\005\017 \006X\037\004`\000\004\004\240\001\t \006\037\002`\000\007\030\004`\000\001 \006\031G \006\026\007 \006\003\200\000/\207\002\000\016&\017\200\000\000\033\b\200\000\"\b\b\200\0009\007\007\207\310\004\007\000&\001\360\003\023\tH\000\033\b\340\001\025\007\030\000\031\227 \002\005@\000\004 \000O\007'\000@\300\004\000\023\005\300\0049\006\006\207\350\003\005 \000/\000g \016\007/<d\200\016\005\026\200\240\b\002@\017\023\000@\001\f\240\000\004\330\r\t\340\016\037\000`\000\007\004\360\002\006`\033\023gx\022\002 \000\f\000\027\023\006\000\027\006(\005\n\340\035\033\0048\003\037\007 \000\004\"\004\007\000\027\r\000\006\022\000@\001O\004\002G\000\340\000\001\004\240\002\t\340\000\017@\001\b\003`\017\024\200\340\003\f\370\005\004\310\000\005\340\000\003`\003\033\003H\000\f \000\006\340\tF'\000\300\003\240\030\"\006\006\320\000\000\210\000\000\310\000H\007\002w\000\240\004\004X\000?\000\000w\300\025\007\037\000\300\025\rQ\220\200\000\377W\370\005\004\360\001\006\000\0021G\000\000X\027\003h\001/\000w\240\02512\343\357\007\240\025\017@\025\005 \344\007`\000,\037\000\230\025\006\300\025O\340\375\000\220\200\025\n\007\240!\035\000\240!\017\300\025\r\037\000\001\000,\000\325\024/\003\000 \347\003\000\001\000=\331\002\0000\000\b\001\000\037\013@\000\004\023\031\025\000/A\003@\000\013!\023\000Y(\r\001\000\023`\000/\002\232n\006\000.\003\0171\00185\000\001\000.\315\001T\000\"\000\000\324\205\"\000\000\002\202\017\200\000\t\037\332@\000\004\023\2004v?\f\004\000@\000\n\037\366@\000\004\021\214\007\006?\000\000\013\000\001\f/\"\002@\000\003\023\227\273\346?\343H\000@\000\n\0374@\000\004!zc\007\000O\000\033\026\000@\000\n\037L@\000\0041\225y\000\001\000/&\001@\000\013\037d@\000\004!\273z\007\000O\000Y\002\000@\000\n\037r@\000\004\023\024j\273?\233;\000@\000\n!7\000\001\000+p\000\001\0001\260\270\000\001\0003`\000\000\2145\004\271\327\n\001\000/w\000@\000\003!\020\271\007\0006\000\374\000@\000\037\030@\000\000\037\272@\000\004\023\f\031\000&\250\000@\000\037\031@\000\000/U\001@\000\003\023\264@\000&\360\000@\000\037\032@\000\000\022\275@\001\r@\000!\244\273\007\0006\000(\000@\000\027\000@\000\004H\003\026\352;5\t\001\000\023\320@\000*\020\000\300\000*\b\000\030\000/\346\001@\000\003\023\340@\000\027 @\000\037\005@\000\000/\n\002@\000\003.\000\274@\000\037\006@\000\000.~\002\024\001\000\001\000* \2740i\023\005\254\004\f@\004\037\232\200\000\004.\020\300\200\000\037\004\200\000\000\023\002\000\004\f\304\004\0230@\000\000K\205\004\001\000\017\000\002\001\037\213@\000\004#\210\301`\003\007@\000\017\000\002\001\000\250\005\026\001/4\006\001\000\032\303\330\354\022\005(\000:\016 \000\001\000\037\246@\000\004!\200\313\007\000\005\3403\022\005\200\005\034\025@\000/>\001@\000\004\021\327\007\000\005\3603\022\005\3203\034\017@\000\023lT\001\fD\006\004\360\363\f\030\000*\001\000\001\000\023\006\\\000\004(\364\r\210\002\032\000\b\000\027\bH\000\027\005\250\001\r\000\002\032-\b\000\b8\000\027\006\240\000\017\001\000\005\036\003p\000\017\250\000\035P\000\000\000\000\000\000\000\000\000\000\000\000\001\000\001\001H\000\000\0008F\000\000\000\000\000\0007F\000\000@\000\000\000\001\000\b\0002\000\000\000\000\000\000\000\000\000\000\000\023 \000\000\000\000\000\000\000\000\000\000\000\000\000\000\265\223\001\000\000\000\000\000\000\000\000\000\000\000\000\000\360'\n\n\n\n.version 8.1\n.target sm_50, debug\n.address_size 645\000\377\022global .align 1 .b8 threadIdx[1];#\000\003_block\"\000\0171Dim\"\000\372\034\n.visible .entry _Z4Fan1PfS_ii(\n.param .u64\033\000\021_\031\000?_0,#\000\016\0271#\000/32#\000\002\0372#\000\017\2463\n)\n{\n.loc\320\000\0218\320\000!__\025\000\240_depot0[24\371\000\313reg .b64 %SP\017\000\024L\020\000\245pred %p<2>\"\000\20532 %r<23\022\000\020f\022\000If<4>E\000qrd<21>;\217\000\373\013\t4 319 0 \n$L__func_begin0:\037\000\203\n\n\tmov.u\206\000\033,\271\000q;\ncvta.\023\000\004%\000\023,\260\000\"ld\037\001\001\036\001o%r2, [$\001\002\035]+\000\0371+\000\004\0312+\000\002\324\000\017W\000\005\0371,\000\000\017X\000\005#0]\310\000#to}\002\0042\000 3,\006\000\0232\037\000\n\034\000\0214\034\000\0373;\000\005\0215\037\000\0371;\000\002\0216\034\000Q5;\nst\023\000q[%SP+0]\026\000\0326\026\000\0228\026\000\0224\026\000\"32\026\000!16\027\000\0321\026\000\0222C\000!2;\326\0014tmp\317\001\2233 53 180 \316\001\001f\001\000\334\000Utid.x/\000\0251/\000-66/\000\000\357\0009cta1\000\02521\000-791\000\000\001\001\032na\000\0263_\002A23 30\000qul.lo.s3\000#6,i\0008r5;*\000\20317 \n\tadd'\000#7,\277\000)r6'\000s46 \n\tld\200\000%8,,\001\t&\000(53&\000%9,<\001\n&\000s2 \n\tnot_\003 10o\00069;\n\206\000511,\031\000\0318<\000\0204b\000bsetp.l\236\001D%p1,\270\000%11\017\001\0314\017\001\3205 \n\t@%p1 bra \"\000\345BB0_2;\nbra.uni\023\000\003@\000\001\013\000$: L\000\0325L\000\000\n\001\f9\000\0253y\000%6:C\000U2: \n\t:\00044 6\036\001\002\252\002$7,\207\002\007\342\000H4 70D\001(12k\001\003d\000\0377\034\002\t.13\035\002\0378~\002\t\0371\177\002\001(9:\224\000,86O\002415,l\0005r147\000\0371\027\003\n.16\030\003\0311i\000\0329\216\002617,l\000\b\221\002J4 11(\001\0378m\002\002Z4 109S\000&9,Y\000\0338S\000\0311+\000320,1\000\0311(\000,74\016\001321,\254\001\0006\000\t-\000\0206\177\000!cvw\004\003\254\000!d8(\000\000b\004$hlA\006#9,\032\000\0232\t\003\002\027\000\002\004\003\021d\257\000+d9\257\000\0234[\0003s64\211\000\023d:\003\0318\\\000\002\231\000\001\034\000\013^\000'3,e\000*12\272\000\0221a\001\002\363\006\000\341\005\000$\000*3]\205\000-33\r\001\0262\r\001\fb\001/28\263\000\000\001\226\004*22\263\000$5,\034\000\013\263\000\0276\021\001+15\215\000\000\351\003\b-\000\003'\000\0376\340\000\0018120\341\000\0232\341\000\0337\341\000\0201\263\000cdiv.rn*\000\"3,\020\001*%fQ\000\0314\337\003\005\222\002\r\221\002\013\244\000$9,/\000\r\343\001\0335\320\000\002\222\002\0053\000\n\320\000\0205j\002!st\245\000\021[-\000\000\263\006'f3%\000?5 1\275\004\007\001\013\000\000\263\0046ret\240\003&2:\310\b\217end0:\n\n}&\n\005\0202\373\007\000\375\007\017)\n\002\006\036\000\016,\n\017&\000\b\0371&\000\022\0162\n\017&\000\001\0373&\000\022\0374&\000\022O5\n) \202\n\021Y1[48].\n\017\202\n\017\0344\202\n\0355\202\n911>F\000frd<32>\354\001.33\203\n+1:\037\000\017\203\n\013\0371\203\n\030\0253\000\n\016)\001\037]\261\n\b\r.\000\0374\264\n\t\r.\000\0373\213\n\000\016\213\000\017\346\n\024\r/\000\017\351\n\013\r/\000\016\354\n\017\320\n\003\017\315\n\001\0374;\000\005\0376'\013\b\0247\326\n\017;\000\003\0378'\013\b\002B\004\0228\345\n\013'\013\0379'\013\002\0327\026\000\003'\013+d5(\013\0374>\013\002\002D\000\0322\026\000!32\026\000\006<\t/13>\b\t\0364=\b\0374\330\b\t\0375\327\b\000/15;\t\t\0366:\t'164\003\0374X\013\000\001\204\001\03351\013,34X\013\0258\177\013\0317'\000/462\013\002)4]&\000\nX\013\000\257\007\004A\001\n'\000\013Y\013\002\f\b60;\n\210\000\003\227\007\0231s\013\b\212\000\017Z\013\004\0228\316\007\006\022\001)7:t\000\016[\013\0361[\013\0261[\013\0301[\013*18M\000\016\\\01361_6{\000%9:E\000\006]\013O3 54\006\013\003\000\313\001\025y>\000\0262\234\n/67\006\013\t\0073\000\02513\000.803\000\02450\002\007e\000\0272\321\000\03750\002\000\002\214\b\001n\000\030r\277\b,353\002'17c\013\0316*\000\n6\002/187\002\002I5 51'\000\03797\002\00205 5\245\000:sub\367\n\002\370\001\0319*\000\017$\002\000\0262O\013&20\007\001)3:b\000\002%\002\0312%\002\0364%\002\005\212\b61_3%\002*24M\000\0374%\002\n&25%\002\0274%\002\017\"\004\000/21#\004\000/26#\004\t.22$\004\0302\022\003L7 24\364\001423,n\0006r228\000\0378\357\004\t\0362\360\004)29i\000\03230\002625,l\000(4;*\000\0226\032\n\006z\005\002\275\005%25[\000\0373\035\003\n/26\035\003\000\0373\035\003\n.27\035\003\0303\035\003\0378)\001\001$8,n\0006r278\000\007\030\006\016\353\003-29\353\003)34i\000\013)\001630,l\000\b\341\002\0358)\001\0224\023\007\0273\324\rS41 38X\003\006\244\r\r\352\013X41 45\177\003/31\246\003\001+41\246\003532,\244\001\n'\000\0318'\000\0373\315\003\001\000'\000\0325\354\000#4,U\000\0004\000\n*\000\013\026\001#5,0\000\0311'\000,49\246\001336,\320\000\0006\000\t-\000*60T\000&7,0\000\0363D\001\017\275\016\002/37\275\016%\017\255\016\n\000\236\000\0326\270\001\0374\202\021\000]41 77\362\000\0278\362\000\n\310\000\0328\276\001\004d\005\0334\f\002\0328\227\001340,.\000\rQ\000*79*\000%1,\201\000.40\317\000\fC\001\001\306\001\0324\\\020\004\000\017\0355C\001\0257f\017\000\007\000?6;\n\017\017\n\"41\264\003\007\236\000\0262\341\001\013\236\000\0372\235\000\000\002\306\000\013\352\017\006\000\017\n\373\020)20\235\000\0319^\000\001\352\017&ld\222\017\003\362\016S;\nneg\026\000\0214\250\017V;\nfma\275\017$5,\032\000\0232\036\017\0163\017\007\027\005\007\374\023\0224H\024\005\354\001/43\354\001\002\0223\342\017\001&\007\"ne\373\0003p3,1\000\006#\007-36[\000I@%p3#\007\0366#\007\003\234\000\001\013\000\006#\007\0273\203\006Y46 23\351\002/21\241\004\001\0226\236\b\006\320\000\0374\241\004\002I6 36'\000\0375\241\004\002\0226\035\b\006'\000\0376\241\004\002J6 40B\002#7,U\000\0004\000\n*\000\0322*\000\002>\002\0327\241\004=6 3G\006349,\320\000\0006\000\nT\000\0307\245\000/50\303\001\002\0226\224\005\006{\000351,.\000\016\245\000\0325*\000%2,\201\000=51;\225\001\013\022\003\002,\023\0325\022\003\002\303\007\001\034\000\013\022\003$4,\317\001\000\007\000\0273\257\003\0236\002\003\013\273\001*58\t\002\0305N\026\f\214\000\0246\337\000\b\214\000$7,\034\000\013\214\000$8,R\000\000\007\000\0277\214\000\0237\214\000\0328\214\000\017\377\000\001\0249\243\001\007s\000\002\237\007\001\034\000\ns\000\002\200\005\004s\000\t\224\007*6 \315\023\0228\203\000)31\021\004\000n\000:f6;\021\004\001@\006\002\033\000\000\354\000)f8\022\004!31\022\004\0301m\000?7 2\202\n\n&38\202\n\0256\202\n\000:\000;8 1`\023*39`\023\0211`\023\362&.file\t1 \"/nethome/cahn45/CuPBoP/cuda-12.1/include/nv/I\036\023\"=\000\0372=\000\030\344vector_types.hB\000\0363B\000\361\002llvm-vortex-with-L\000\365\003build/lib/clang/18Z\000!__\023\000\020_(\000\020_(\000wtin_varg\000\0374\251\000\006\362\001examples/gauss/.\b\000dian.cu>\000\0375\245\000=\370\004math_forward_declar\025\001u6 \"/usr<\000fstdlib \000\0237 \000\000i\000\366\013gcc/x86_64-linux-gnu/13/..\003\000\004H\0000c++\033\000@bitsT\0007_abu\000\0338u\000\rU\000\0017\000\000\272\000Gcall9\000\0379\216\000+\020cS\000\004L\000+10\206\000\000\035\000\006k\000/11l\000,\002J\001\005O\000\0372\331\0012astddefG!'_t\255\000\0373\255\000+\f\366\001/14\207\002A\007`\000\017\347\002>\033ca\000\0376\021\001+\005N\000\221section\t.\311\"p_abbrev'\027\021b\374\004\001\007\000(7 \017\000\0233\017\000\0228\007\000\"19\b\000\0225\007\000\0323\035\000\0226\b\000\003\007\000\0332;\000\nY\000)18\017\000\0310\007\000\0222\007\000)57$\000\nn\000\n2\000\003\034\000\03741\000\b*11\b\000+58\020\000\0329\020\000\na\000\003Z\000\0374w\000\002\003J\000\0232\b\000\0231\037\001\n,\000\0325C\001\004v\000\004\263\000\017\264\000@\003\211\001/13\264\000\b+73\332\001\017b\000\f#56\020\000\nk\000\003\007\000\003\261\001/46\210\001\002\017b\000\023#60\020\000\003\006\002*63\020\000\nr\000\0318]\001\0370\325\000\004\0372C\000\t\0379C\000\021\0310\007\000\004\376\000/225\000\004\017\371\000!\0310\007\000/11L\001\002\001F\035\001\027\001\0304\\\000\017j\000\033\f\250\000\017s\001\033)12m\000\0370t\000\023*24t\000\0310\007\000\004\244\002)36\027\000\n\327\000*62S\000\f\b\000\0310\007\000.14\216\003\017\244\001\000\0310\007\000*15\036\000\017\246\003:\0375r\000\002\017\246\0039\0375\245\003\021\0371\246\003)\03752\002\"\0378\314\002?\0375\313\0022\0379\310\0038\0315D\000\003\007\000\0232\b\000/38b\000\n\0310\007\000*210\001\03700\0010/111\0011.22\312\001\017\203\000\036\017s\000\r*500\000\013\203\000\0373M\002?\017\232\0004\0364\232\000\017\267\001e\017\252\000\f\0325}\004\0370e\000\003\0310\007\000*26\337\000\003\027\000*715\000/32z\000\n\016}\004\017\036\n\017*64\320\004\017R\001*\03751\001\003\013\247\000\0378\324\003\001*51S\000\0322\227\000\017\200\000\032\017l\001\f\0329\b\000\003\027\000*495\000\0177\001\013\0338\202\000\0328\202\000*87\037\000\0310\007\000*30<\t\017\003\001^)31L\000\0370S\000\022\017f\b\013/32\241\003g\013\212\000\0363\212\000\017?\001-\017\023\004\r\013\202\000\0374\202\000(/11\203\0002\0325>\000\0370E\000\003\0310\007\000*365\000\017\242\t\004\f\b\000\017\312\000\r\013e\000\0327\035\001\0370\237\001 \017\f\001\r\005v\002\0311\027\000\0036\000\0137\b/21\036\000\001\003\007\000/39\352\n\002\n\007\000\0374\211\b\003\n\007\000*41o\000\017\347\001\004\0135\000\0362J\002\017-\001b/43\266\001)\017\322\0021\0374U\003\003\016\260\006\017\231\000?\0340\007\000-\t}\361\021Ainfo\357\021\21132 15255\304\005\0220\031\000\t\035\022\t\242\000\003\231\000$99\364\005\0228\020\000\0227\017\000\"10\b\000#03m\005\002\017\000#18\027\000\003\273\001#14\b\000\0225\b\000\0230\b\000)11G\000\003?\000#49\322\f\002\016\000\0306\025\000\003\016\000)551\000\004\206\000\004g\000\0336\b\000\0312\177\000\0225\236\000(47\007\000\004\303\000\006\234\000\003=\000\005U\000\002(\000(98\210\000*99\311\000)09T\000\004\b\001\0341\b\001\0326 \001*20\204\000/12\020\000\003\0331\263\000\0328\b\000*18\206\000\0376\332\000\n(32\313\001)53\223\000\003\347\0008102p\001\005\017\000\0300\376\000/49\035\000\001\0235\016\000\0374f\000\b(51\035\000)48\370\001\03199\000\0312d\0008100%\000(53\246\000/54\210\000\001\0325z\000\n2\000\0302\365\000(51\217\000%41*\003\006\020\013\0230M\000(3 \245\000\004\240\001\005\350\002\004\b\000.056\003\016D\002\0377\223\003\000Sline \365\001\031 >\000\004\312\000\016\251\002\n\214\002\004(\000(47n\000\004\213\000\0055\000\n-\001\03033\000\0326\336\000\0228+\000)66o\000(803\000\004u\000\004\332\002\005o\000\0339\341\002\0328/\000*15F\000\0313>\000*17W\001%152\001:64 [-+0 \026\000\000\314\033\n\300\n\004\301\n\0048\003\0320\036\000*6 }\000\0314\224\000\f\177\001\n=\000?00 &\000\002*97\213\003\0300z\000\004\356\005\005\221\022\003.\001\0329\357\000\005T\000\013=\001)99k\000\fu\004\002d\000\017.\f\003\0374z\000\013\03154\003\0310\311\t\017;\000\024\0305;\000\0377;\000\023\0303\207\003\0310\343\016\017;\000\023\003\002\004\0310\325\f\017;\000\024\0301;\000\0373;\000\023\0364\261\000/60;\000\032\0309;\000\0371;\000\031\t\354\000/62;\000\023\0365\261\000/70;\000\031\tv\000\0377v\000\032(53;\000\0375;\000\023\0366\261\000/80;\000\031(54;\000\0376;\000\032\0305;\000\0377;\000\032\0307;\000\0379;\000\023\0367\354\000\0329\362\t\0315\007\000\017\262\004\035\003h\000\004K\007\006\037\000\0325O\004\0324\263\004\005\214\b\0336\030\000\0311J\006\017o\004\002\0321\245\032\017\261\000\034\004\232\000\003\"\007:432^\000(2 \204\005\0263-\000\005\245\032\017#\001\201\004\276\000\0314\315\000&1 @\001Z32 65\037\000+9 \004\001\n\031\002$108\000\004 \000+98\371\000\0315\322\000+95\252\000\0370\b\001\002.16\271\000\fv\024\0239\217\002\0229&\000(78)\004\006Y\000\0308\217\003\005h\000\017\227\001\023/54\227\001\004\nF\000\013e\007(49Q\003\005\036\000*15\002\001\017\271\b\002)99b\000\005{\007\0222.\000(69\354\000(83p\000)95~\000\0319v\000\013\364\003+11\206\000)08\020\000\f\207\000)110\001(69\237\001905 U\000\0379\342\000)\t\363\0013142`\002\0243\033\007\0371\237\002\002#20w\002\017$\002\225\003\260\005\006\302\003\003e\000\005i\001\03387\000\f^\000\0375\020\002\207\0046\020\004\036\000\017\325\000\035\0310\351\001/47\003\002#\013\303\020\0045\000-71O\000\f\"\000\0342R\000\013\"\000$20\"\000?450\"\000\004\0233\"\000?528\223\036\t\0251e\027+10\211\001\0325v\002\0331,\001(00\\\017\005\260\001+11/\000\0373'\000\031\t\304\006\0308\353\036\t1\001\003\013\024\003\007\000\007\204\f\n\\\002\t\333\n\03215\007\0251p\037\n\251\036\004\323\034\0220t\000;8187\000\03047\000\017\202\007\001\006K\000\0371K\000'\0334K\000\0372K\000'\0328M\031\017-\001\022\005X\000\0307X\000\0371\262\007\002?834\020\003\002\005\245\000\017\021\000\017/0 \244\000)\0378\244\000(*39\202\000\003L\000\017\267\005\003(75;\020\006>\004\017\245\000\002)99t\004\003\005\f\005\332\017\0045\000)10\331\004(51\320\004\004=\000\004$\000\003\276\000\005\265\005\0320\006\005/97%\005\n/32\203\000\031\013e\001\0269e\001\b8\001\0371o\001\002*90\030\000\0370|\004L\0375\311\000\002\tM\004\0334M\0048659s\026\000\324\000\0355\230\000\017\"\001\031\0312\207\002\013\242\004\017R\000\032\f\252\004\0239\t\000\017\243\004\025?94 \007\004\000\002\\\000\016\234\004\017D\000\031\002H\002\016\225\004\017D\000\031\003\322\002\013\217\0014906\272\006\f\241\001\0315\301\001\005\232\003\0325f\003\0317\032\002)97%\000\0338%\000\0335\215\006\0376\235\001\002/95w\024\004\0314\216\002\0329{\000)73\017\000/12M\000\002\003\035\000\t+\031*52\240\032\017<\n\n(54W\000\017\016\001\254(49x\020\0319\007\000\006\t\027\002a\000\0044\000\004\354\000/04\335\0008/20\177\005\007\013z\002\017\230\000a\0310/\002+3 y\003\0311\007\000\017G\002\377j\0371G\002\204\0371G\002\000\0374G\002\377\210\0372G\002\204\0372G\002\000\0375G\002\013/11Z\013\013\017N\002\306\0329\276\001\017=\f\023\017\363\001\002\017\000\f5\017{\000\013\n\326\001\0358/\013\017\361\013\002%15\265\035\n\353\013\003\017\000\017\366\001\356\0373\242\000\003\003\212\000\0046\000\017\376\001Q\017\203\000\023\n\006\002\0359#\r\017\006\002\032\004)\f\005\006\002\002,\001\017\334\001\245\t\034\001)62\362\000$1 \035\000\f\033\001\0375\033\001\377\027\0259\031\000/62\035/\002\017N\004\337\0307_\027\003\037\004(82\367\000(839\000\0173\0043/61\325\001(\0374\325\001\025\0374\325\001\353\004&\000\017\365\005C\0378\302\001\005\002\213\001\n\244\001\017\315\001\026/0 \305\021\002K1552\306\021<911\352\021(11\2471\t7\000\016%\000\017\375\021m+98.\000\0311z\000/07\361\001\030\0330e\001\000\007\000/65f\r\031\0303W\000\017\005\001\243\017]\rw\017w\003\b\013h\002\017\230\000a\0310&\002\0376\244\017\005\017>\002\377g\0371\342\021\227/67>\002\377\177\0372\331\021\227/68>\002\013\004\252\007\017\300\t\005\017E\002\275\0379\320\021\251/71\320\021\023O2198\362\t\001\017\355\001\355\0373\231\000\003\003\201\000\0046\000\017\365\001Q\017\203\000\023\n\375\001\0362\307\021\017\375\001\031\016\254\020\017\323\001\241\n\023\001\0315\351\000/1 \001\r\003\0262\212%\017\022\001\377\006\0259\031\000.13\265\021\0173\004\331\017\254\021w\017\314\001\025/19\314\001\025\0374\314\001\342\004&\000\017\243\021V&75\202\001\n\233\001\017\304\001\026\0310\007\000\005Y\021\0232\032*\007\243\021K1572&\000\006\023\000-259\000\017&\000\000\0375\246\021\222/68(\t\002)95c\000\0330h\001\002\341\002\017*\r\266\016\005\001\017*\r\213\017z\003\b\013h\002\017\230\000a\0310&\002\0379h\017\005\017>\002\377g\0371\246\021\227/80>\002\377\177\0372\246\021\227/81>\002\013\004\245\b\017\272\t\005\017E\002\275\0379\246\021\251/84\246\021\024?849\365\t\001\017\355\001\355\0373\231\000\003\003\201\000\0046\000\017\365\001Q\017\203\000\023\n\375\001\0365\246\021\017\375\001\031\016\224\020\017\323\001\241\n\023\001\0318\351\000/1 \004\r\004/85\022\001\377\016\0259\031\000/64\246\021\304\017N\001\023\017\246\021x\017\314\001\026\0374\314\001\007\017\246\021\304\017\314\001\032\004\247\000\017\246\021V&88\202\001\n\233\001\017\304\001\026\0310\007\000\005Z\021K2854\246\021L2223&\000\005\023\000-259\000\017&\000\001\004F \0249LN\0331\031\000?160\032\000\004J2254\032\000/7 \215H\025\03109\000\0231z>\013\236\002\003\242\t*70\216\001\0300\023\f\003zI\004m\013\n\241\003*10\b\000\n\345E\017Q\000\003\003\r\000\013\332&\t\347\000\003+U\0276t\00328 3\345\000\t\263v\0230~\000/9 K\003\027\017\200\000\006R32 79\366!\r\204\000/11\205\000\r\tj7/97\221\000v\003\\\003:83 \262\001\003\321\f\004\223\003\017\205\000\tO6137\205\000+\003\272\021\005!E\017n\000\024$9 b\003\000\204}\005\344\002\000\217\201\n\017\000)1 Q\000\0267Q\000\005(\025\007M\000\0378>\000\001\006\017\000\0372M\000\b.19N\000\0376?\000\000\006\017\000\0373N\000\b/32N\000\016\0327\017\000\0328N\000\0308N\000/76\352\000\016\0328\017\000\0379N\000\b/87\205\001\016+10\020\000\0371P\000\b\004+\027\0340\377\004\0240+\005\0341\032\000?682\032\000\003\0202\320z\017\031\005\020\0371\246M\007\017\031\005(/50\031\005\017\017'\005\013\004\b\000\0370/\005\t.50+\003\004\343\001\0311\375\000\n\225\003\0379\224\003\007\0371/\005-\b\200\000\017\236\004%\0371/\005\001\017\221\000v)16\256\002\017\222\000p/24\301\005\037/76\301\005/\n\205\000\0238m\000.6 \314\007\017u\000E.326\006\017n\000\017/30n\000$\0326\352?\005i\001\003\355\001\n\177\030\003\206\000/81\206\000<\004mV/21\206\000\031\0362\206\000\017\275\005\016\0333\020\000(4 S\000&78S\000\017D\007\022\0334\020\000\0365O\000\017F\007\031+15\020\000\0366P\000\017H\007\007K3188@\000\0329\020\000*20P\000\0379\357\000\t\0233WA\f?\000\007\020\000\0361O\000\017\357\000\007?320@\000\002\007\020\000\0372P\000\b/32\217\001\016+25\020\000/6 \267\002\005\006\034D\017\217\001\b\0342\020\000\0377P\000\b/26~\002\016+28\020\000\0379P\000\b/39\220\001\016+30\020\000/1 !\003\005\016\360\000\017\220\001\000+31\020\000\0362P\000\017\360\000\007\016\177\002+33\020\000\0374P\000\b*39+\t\f\312Q)16\023\004\n\301D\0245\304\016$0 \016\004\002\250\t\017#\000\000\0251#\000/44#\000\004\0252#\000/82#\000\004\0243#\000\005\272\"\r#\000\0254#\000\0374F\000\005\0255#\000\0377F\000\005\0246#\000/30F\000\005\0257#\000/39#\000\004\0258#\000/70#\000\004\0259#\000\0379F\000\004$10#\000?428#\000\004\005^\001\0224\002*\017#\000\000\0252#\000\0379F\000\005\0243#\000?527#\000\004\005^\001?554#\000\004\0255#\000/83#\000\004\005^\001\03760\002\005%17#\000\017^\001\005%18#\000\017^\001\005%19#\000\017^\001\005$20#\000?734#\000\004\005^\001?765#\000\004\0242#\000\0228\201\002\017#\000\000\005^\001\006]I\f#\000\0254#\000\002\305\004\017#\000\000\0245#\000/90F\000\005\005^\001?951#\000\004\005^\001\0229\336\004\017#\000\000\004^\001?703F\000\005\0259#\000/62#\000\003$30#\000\02210\003\017#\000\000\0251#\000\0375F\000\005\0242#\000\006\226(\f#\000\0253#\000\017^\001\005%34#\000\0377F\000\005\0245#\000\0223\000\001\017#\000\000\0256#\000\017\246\004\005$37#\000\0374\246\004\005%38#\000/50#\000\004\005^\001\0225`\005\016#\000%40#\000/37#\000\004\005^\001\0375S\002\005\005\003S/76\244\001\005%43#\000\017S\002\005%44#\000/84#\000\004\0245#\000/71F\000\005\005^\001\0377\276\005\005%47#\000\017\276\005\005\0254^\001\0378\276\005\005%49#\000\017\337\002\005%50#\000\017\337\002\005%51#\000/95#\000\004\0242#\000\0229\r\003\017#\000\000\005^\001\0379\276\005\005#54#\000/80\231\002\005\006\241C:059\205h\0315\344\007\0241'\000/98'\000\002\0321'\000?143'\000\002\0332'\000/76'\000\002\0323'\000\003M\005\r'\000\0334'\000/67'\000\002\0335'\000\0379u\000\003\0326'\000/32N\000\003\0337'\000/68'\000\002\0328'\000/40N\000\003\0339'\000/42'\000\002+10(\000/69(\000\003\0331(\000\017\257\001\005\013\211\001\005\274\007\f(\000\013\212\001\005\301\007\f(\000\013\213\001\005\306\007\f(\000\0325(\000:616\221\000\003\207\000\005\001\003J8647\"\000\0349\022\037/66\"\000\003\0251\326\t?868#\000\004\005`\007?870#\000\004%42#\000\0372#\000\004\006i\003?753#\000\003%73#\000\0377#\000\004%92#\000/92#\000\002\006\263\t?881#\000\004\005=\007\0358\244\004\0349\307\004J8851\247\001\03292\000\004\247\001?872(\000\002+24(\000/97(\000\002*43(\000?923(\000\002+62(\000/49(\000\002+81(\000/68(\000\002\0064T\004)\000/89)\000\003\013\362\000?901)\000\004+40)\000/43)\000\003+59)\000/62)\000\003+78)\000\0378)\000\004*97)\000/10)\000\003\003+\013\007)\000/21)\000\002\004\r\001\0247(\000\0374(\000\003+90(\000/57(\000\003\0333(\000\0177\002\004+94(\000/93(\000\003\0325(\000\003'\f\016(\000\0337(\000\002?\004\016(\000\0338(\000/73(\000\003\0339(\000/95_\002\004\0321)\000?317)\000\004\0332)\000/38)\000\004\0333)\000/60)\000\004\0335)\000\0176\002\005*06)\000/40)\000\005\013F\001\0374\245\003\004\005\237\027\005)\000/44)\000\003+10)\000\017p\001\004\005\210\037\004)\000/50)\000\005\0333)\000\0373)\000\005\013c\002\005NB\r)\000\013H\001/57)\000\005\013\037\001/59)\000\005\013f\002/61)\000\005\0339)\000\017\315\000\005+21)\000/54)\000\004\0332)\000\0377)\000\005\0333)\000\017\342\002\005\002;\016\006)\000?716)\000\004\013g\002?737)\000\004\013H\001?759)\000\004\0339)\000/81)\000\003*30)\000?807)\000\004\0331)\000/34)\000\004\013\037\001?861)\000\004\0334)\000\0379)\000\005\013H\001?922)\000\004\013\037\001?953)\000\004\013g\002?979)\000\004\0319)\000_10006*\000\003,41*\000\017\222\002\005,42*\000\017\306\001\005,43*\000\002\273\025\017*\000\000\0335*\000\005\356\003\r*\000\0346*\000/39*\000\004\0347*\000/66*\000\004\0349*\000\0379\331\007\005\0330*\000\017\227\006\005<151*\000\017\367\005\005,53*\000\017r\002\005,54*\000/83*\000\004\fP\001\0373\370\001\005,58*\000/29\325\b\013\006*\000\017X\005\005,60*\000/76*\000\004\fL\002?400*\000\004\f&\001?424*\000\004\f&\001\0374J\n\004\005\315^\006*\000\0174\005\005,68*\000\0175\005\005+69*\000\0375\030\b\005,71*\000\017\312\002\005,72*\000\017r\003\005,73*\000\002}\031\017*\000\000\f\"\002?601*\000\004\0346*\000\0372*\000\005\fP\001?642*\000\004\0349*\000/63*\000\003,80*\000\002\376\r\017*\000\000\0331*\000?708*\000\004\f&\001?731*\000\004\fL\002\0377\177\007\005,85*\000/78*\000\004\f&\001\005t\022\r*\000\0348*\000\017z\001\005,89*\000\017\317\013\004<191*\000\017n\004\005,92*\000/87*\000\004\fP\001?914*\000\004\f&\001\0379\250\000\006\fv\002/97\033\r\f\004*\000O1004*\000\004\0349*\000/36*\000\002\003\241\032\b*\000\017f\016\004\003\250\032\007*\000\005\031\f\r*\000\0343*\000\017\203\b\004\003\223\032\b*\000/65*\000\004\0345*\000/97*\000\004\f&\001\003\216\027\017*\000\000\0348*\000\017\276\016\004\003\214\032\b*\000/96*\000\003\013\345\013_11330*\000\004\0342*\000\017\250\020\004\005\321\033\006*\000\017c\f\004\005\244\007\006*\000\017\276\005\004\005>\017\005*\000\0374\276\005\004\003p\032\b*\000/40*\000\004\0349*\000\017\354\004\004\003[\032\b*\000\017h\f\004\005\025\025\005*\000/52*\000\005\0343*\000\0375*\000\005\fv\002\017<\006\005\003T\032\007*\000?609*\000\004\f&\001\0376\006\t\004\003?\032\b*\000\017\376\016\004\005\270\002\006*\000/83*\000\003+31*\000\0377\006\t\004\0031\032\b*\000/28*\000\004\fP\001\0247\240\002\004\272\002\004\354\002\003s\f\002%\000/74%\000\005\0262%\000/89%\000\005\0254%\000?838%\000\005\0268%\000\017\224\000\006&41%\000/80%\000\005\006o\000/91%\000\006\0265%\000\0373%\000\006\0266%\000\0375%\000\006\0267%\000\0377%\000\006\005\336\000O2095%\000\005\0259%\000\005\347\016\r%\000&50%\000/48%\000\005\0261%\000/66%\000\005\0262%\000/83%\000\005\0253%\000\005\007\005\016%\000\0264%\000/32%\000\005\0265%\000/58%\000\005\0267%\000/81%\000\005\0258%\000/30J\000\006\006M\001?359%\000\004&61%\000/92%\000\005\006\336\000?425%\000\005\006\271\000\005\261\013\016%\000\006\271\000?464%\000\005\0269%\000/93%\000\004%70%\000?511%\000\005\0261%\000\0374J\000\006\0262%\000/75%\000\005\0253%\000\0376r\001\006&75%\000/31%\000\005\0266%\000/76%\000\003\006]\035_12824%\000\005\006J\000/87%\000\006\006r\001\0378M\001\005\006V\030%12\367\n\r%\000\007x\003?915%\000\005\0262%\000/42%\000\005\005M\001/30{\004\005\006\002\035\000\226\b\017\271\000\005\007S\003\0349\274\b/11\006\035\001Z13057!\000\013\240-\003_-\013\3239\003\217+\005%5\0375!+\000\004\274\t\013%\000\0300\036\033\002:\r\001\232\026*37\200\035\007\251\006\t \000\0330\330\000\0335\211\f\0241\332\000?316+\000\005\0348+\000/47+\000\005\0349+\000/80+\000\004+90+\000?411+\000\005\0341+\000\002\343\002\017+\000\001\0342+\000/83+\000\005\0333+\000/51V\000\006\0344+\000\017\002\001\006,95+\000/78+\000\005\0336+\000\rJ\t/15\002\032\003-13\n\026\006+\000\f\256\001\r\"\t+15\023\r\005+\000\0377\002\001\005\005\024\r\006+\000/45+\000\005\0341+\000\0377V\000\006\f\256\001/80V\000\006\f\256\001/83V\000\006\0344+\000/67+\000\005\0345+\000/98+\000\005\f\256\001?935+\000\005\f\256\001/96V\000\006\0328+\000/40\004\002\005\005q\r\006+\000\002\304\005\017+\000\000,10+\000\017\004\002\005\006\226\b\004+\000\005g.\016+\000\0342+\000\0376+\000\006\0343+\000/99+\000\005\013\256\001\0254\004\t\016+\000\0345+\000/71+\000\005\013\256\001\0354\004\025\006+\000\0347+\000\0374V\000\006\f\256\001\0373\335\003\005\005\371\r\005+\000\017\337\004\006\005\372\r\006+\000\017\337\004\005\005\373\r\006+\000/75+\000\005\f\256\001\0375\002\001\006,23+\000\017\333\002\006,24+\000\017\333\002\006+25+\000\005O:\016+\000\0346+\000\017\203\001\006,27+\000\017\333\002\006+28+\000/73V\000\006\f\256\001?766+\000\004+30+\000\03785\005\006,31+\000/62+\000\005\f\256\001/89V\000\006\0333+\000?927+\000\005\0344+\000\0171\003\006*35+\000O5013+\000\005\0346+\000\0374+\000\006\0347+\000\017\260\002\006+38+\000\005\230\036\016+\000\0349+\000\0373+\000\005,40+\000/69+\000\005\0331+\000\006\036\006\0378\354\t\022\0312\227>\0054>\004 3\003\2177\004\366\t/80\005\n\000\005c\037\017>\000\005\0300\220\020\0331>\006\017\026\n\027%9 \345\000\004E\006\03200\n\0372\363\000\002\0377\327\n\022\0375\327\n\025\0305\2234\t 4\013\272\000\006\031\000\003\240\000\005a\006\005\244\001\003\2358\004\216\001\03600(\017\325\000\r\0312\325\000\013\306\001/15\210\001\001/7 -\000\t\n\345\000\0252\314\000\002\020\016\017\345\000\000/73\345\000\004/2 !A\003\0377\364\000\000\0374\364\000\031\0373\364\000\022\0374\374\000\037\0045\000\n\004\001\0374\004\001\036\017\264\001\031\f\202\002\005\024\002\017\271\000\002\017.\000\005\n\262\000\0376\262\000=\tr\001\017\204\000\005\017s\001\006\0176\000\022\n\302\000\0378t\001L\0326\017\000\017s\001\013\017-\000\002\t\260\000/42r\001L\0376\324<\b\004\267\000\017\277\000\032\0375\306\000\001\0370\306\000\021\017\330\000O\016I\002\017\321\000\020\017H\002\002/44H\002D\0329 \006\0314\232\000\013\270\000/9 -\000\t\n\260\000\0376\260\000J\004\270\007\005\204\003\004\233\005\017\261\000\002\017.\000\005\n\262\000\017\252\003>\0376\242\005\003\0312xR\rN\004\rh}\0372\332\000\003\017V\000*\t\372\000/50\372\000\021\017\f\001+\0371\f\001\003\0375\334\000\022\0375\264\000\000\0372`\002K\r\242\000\0374\252\000\030\017\302\003\002/54\262\000=\0321\335\002\0321\243\000\n\253\000\005\033\037\f'\000\002\037\000\0345ct\017V\001;\017\244\000\005/99\214\000\000\016\253\000\n.\000\0360\201\242\017V\001H\003X?\005a\003\017\253\000\004\013'\000\t\244\000/62V\001L\013}\000/50\253\000\031\017@\007\001/60\006\bC\017V\001\007\0309?B\017\272\000\024\0136\000\n\302\000\0170\007D\004\233\000\003\264\007\005\013\007\0375\271\000\002/2 -\000\b\n\260\000\0376\260\000K\006\312\016\0315<\001\006 \000\017\272\000\002\0177\000\005\n\274\000\0176\004\022\017@\0023\0322\357\007\005y\005\017`\004\003\0340\316\000\0177\000\013\t\326\000/70Z\004E\0312K\001+97\027\000\n\b\000\0340\303\000\t6\000\n\262\000\0372\262\000\027\016\232\001\017h\0025\n\326\000+20\037\000\017\326\000\021\0046\000\n\336\000\017\322\003\000\017\314\000S\005\375\002\017\223\t\n\r\315\000\f7\000\n\316\000\0376\316\000f+11\333\003\017\316\000\023\0137\000\n\316\000\017\002\004O\fH\221\0312\013\006)99\341\003*97\227\005*15\222\001\0330.\013\016\373\000\017]\0007\t)\001.80l\023\017\027\001*\f\031\005/14i\007\f\0322\377\024\0365\371\000\017F\000\017\n\323\000\0372\374\001 \005\0218\003\345\000-14\030\001\017\370\000\024\0324\312\001*12\256\002\013\311\016\004\b\000\004\361\000/4 ?\000\022\n\361\000\0374\361\000 \017\326\001$\0315z\002\005\227\000)03Q\b\013\325\000\003S\000\0176\000\f\n\324\000\0376\230\002=\0326\302\000\005%\003\0372S\005\004\0335\260\001\0371\333\000\004\017O\000*\t\364\000%91\023C/99\023\026\033\005\346\037*11\b\000\003s\001\0310v?\0170\001\022\03770\001\004\0373\222\003\002/97/\001\003+14\030\001\0272\220\000\016?\001\017^\000#\nF\001\0375F\001\027\017\373\005+/52#\001;\004\020\000\0313\304O*97=\003\017J\001J\017\205\000\024\nq\001\0364q\001\017\177\004L.15f\003\017\034\001\031\0177\000\003\t\326\000\0033>\016\327\000\017\305\000'\0374\305\000\004\0338{\001\f \000\0372\325\000\004\017G\000\032\013\335\000\0374%\003U\003\007\000\017\366\000\037\017\016\003,\017n\000A\013D\001\0373D\001U/51D\001\024\017\211\004-\017T\001\f\017~\000Q\013d\001\0376\\\004f*10\257\000\017,\004\001\016\025\001\0176\000\003\n\325\000.11\325\000\017\334\bB\003~\000\006\025\b\0314B\r+97\311\001\017\333\000\022\017N\000\024\013\363\000\0373\363\000<(49\007\000\016\372\000\0377\264\000\f\0370}\002\002\005\020\000\0320\356\001\016\033\001\017o\000B\0134\001\03754\001\021\017F\001*)52\264\001(97\220\013\005\336\000\t\322\001\005e\"\017-\000\003\013\303\000\005\277\003/52\303\000\003\006\031\000\003\261\000\004\322\n\005h\000\006M\001\0310X\004\0360fI\017\352\003\025\0368\226\001\017\233\016\b(10\333\000\006\230\000\017?\000\f\013\n\001\0358\242\001\017\315\001\020/37`\b!\0318(\001\003\250\001\004\247\003\004\b\000\005\027\000\0362\335\000\017=\000\025\n\343\000/20\343\000\027\0370\260\001\"\0378\246\002\t.20\311\000\0175\000\r\013\301\000\0251\206N/38\301\000\002\006\031\000\003\301\000\017\256\002\026)32\217\000\017'\000\005\016\325\002\017\366\001\036\0338c\004\0325i\000/16\370\001\004\017?\000\032\0139\001\03639\001\017\232\0263\013.\001\003&\001\017\275\000\005\013'\000\n\245\000-33\214\000\017\237\002;\013~\000\016 \024\017\263\000\020\n5\000\013f\001\0375\301\000b\f\017\005\017\302\000\023\017\006\005\003/27\303\000=\0372\303\000\n/50\273\000\031\017y\034\001\003~F\017\263\000W/98\263\000\031/98\263\000\000/31)\002M\017\\\004#\017T\004\032.35;\b\017\305\000+\0374\305\000\003/11\304\t\003/00\315\000\004\017?\000\032\013\325\000\0377\325\000=\0325\325\000\017\335\0004/08\345\000)\0378\016\006=\0322\205\b/11\305\000\002\rK\030\0372J-\037\004\304\000\017\260'!\006Bc\0350D\030/73\367\006\031(10\264\b\004\017\000\003\330\000(75\004\032\0240#\000\037 3\000\001\013\325\000\004\360=O8000\325\000\002O8010\340\b\004/0 \013\002\002\0339y\002.01{,\0338\017\001K8015\301lJ8020r\000\005\363\f*04\332\000\0274a\000\004\253U\017F\002\031/10*\001\001\004\007\002\017e\001 \017B\002\004\0352\375\001\017m\001\007\017\221\027\031\0321w\f\013\030\001*98@\032\017\243\005\023\004\211\000\017U\000+\013\001\001\0374\001\001\r\006\031\000\017\001\001)*12\206\000)97\342\000\004\027\000\005/\000*14 \000\016\n\001\017^\0000\013\013\001\0376\013\001\021\0172\0132+12\247\003\0329\260\000/05\f\255\003\n/\000\n\277\000/50\274\016O\0337\235\001\0311\363\005/97y\002\003/00~\001\002\006\356\000\0272\317\000\005\fR\017^\000,\013\035\001\0372\334\001O\0314\200\000\005\220\000\003\277\000\f\265\026\005\315\001/02\333\004\001\004\347\000\017\025\001\f\017V\000\005\013\376\000\0374\376\000)\017~\037\000\017\312\005\032\0374\270\001\003\005\224\003\0362\351\000\017/\000\007\013\331\000\017\263\003\000\017D\0132*14\245\001.17u\002\017\275\000\b\0177\000\f\013\305\000\0378\305\000=\0315?\021\0339@\003\0378\023\b\002\0321\322\000\004\030\000\004\332\000/5 L\000\037\n\347\000\017\035*\031\0359\201\013\017\203\003\033\017\371\000\021\r\361\000\0375\361\000\037\017\351\000\003\0372\351\000\037\016\211\005\017\342\001\031\005-\003\003p\016\004\230\000*98\037\000\017s\003\004/5 F\000!\013\365\000\004\fF\017;\0305/51\343\000\003\003\225\000\017\304\000\r/10\245\000\001\016\214\000\017\245\000,\0372\245\000\f\0374\255\000\031\004/\000\n\265\000/71\265\000L\0341\364\004\017&\002\013\017/\000\004\013\265\000\0373\265\000=\0311n\000+97:\001\n\254\000\001\027\006\r&\000\013\243\000\0375X\001E\017\243\000\004\0374\253\000\030\017\013\002\004\0377\263\000=\0314\263\000\004\372\003\004\215\000)09\b\000/97\302\000\t\017=\000\023\013\321\000\0379\300\007E\0336\245\002\n\211\007/99\312\000\004\0176\000\021\n\303\000/81\303\000\037\003\017\000\004\3217\004a\005.155\017\002\235-\002\352q\t(\006\0361l\000\017H\006\002\0334l\000\0339\242\b\bt\000\003\003\020\005\255I\r\202\020\013n\000\006 \000\017n\000\004\004_\000\f\352\004\no\000\0375o\0007\0316\203\002\017n\000\002\0377n\000L\0375u\000\001\0379u\000\036\017\207\000\017+9 \023\f\0315\244\b\t\201\000\006\033N\017\367\000'/9 ;\002\017/62g\000E\n\022\005\003o\000/71o\000-\017&4\006\th\000/95h\000/(2 .\002\017\364\003\002\0348B\n\017o\000/\004\016\002\006O\001\0311\344\004\013y\000\0375y\0008\013j\004/00q\000\001\0378q\000\036\017\203\000\030*14\"\003\017\343\001\n\017\212\000'\016\031\017\005\212\000)8 \375\000\017\212\000\022\003\223\002\tk\000\017\213\000\026\017\000\006\005\006\213\000\005\220\001\0373{\000\001\0374{\000\036\017i\000\025\0175\035\001\0318\315d\017w\000+/9 p\002\002\n\344\007(8 A\024\017q\000\032\004\022\000I9014\203\000-14,\000\005\226\000\017\273\023\013\0348\310\030\006B\000\017\216\000\025\017\021\001\007\017f\f\005\t{\000/64z\000\006\017h\000-\017\261\005\003\0373p\0007\017\211\f\n\0318\321b\017q\000+/6 \350\007\001\th\000/66g\000E\017G\001\003\0375o\000%\017\371\002\001,00\245\002\n\244\006)08\275\004\003\305~\np\001\002X\000\005\207\026\007i\000\007\030\013\005\231\005\013\225\006\005\363\000\0376a\000\020*499\001\004\217\t\017\332\n\004\017@\001\002/85\257\001-\017v\000\024\017~\004\002.85\033\001\017~\000\002\006 \000\017~\000%\0378~\000\002\017yJ\035\rg\034\f\343\005)10\353\005\005G%\0370X\002\031\016\216\034\016\361\000\006\342\000\017m\004\020/87\346\0015\017w\000\r\017\347\001\003\0377\347\0015\017\177\000\000\017\350\001\020\0377\350\001%\016\177\000\0376\232\004\026/89t\0017\017v\000\n\017s\001\003\0379s\0017\016~\000\017r\001\016\0379r\001.)9 \"\003\017\333\006\n/52l\r5\017o\000\004\016c\001\tw\000\017d\001'\017w\000\r\0378w\000\002\017]\0015\006\217\004\002}\013\0051\037\ff\003\003\316\004\004\374\001\n\220\000/96~\001\036\016\022\000\017\242\000<\017\261\001\003/96\261\001\036\016\022\000\017\252\000>\0378\252\000\002\017\344\001\036\016\022\000\013\252\000\006\341\017\004g\002\017%\001\001\003wT\t\235\001\016{\000\017\275\001\n\017i\000\006\017q\000\f\006d\001\016q\000\017\204\001\n\017q\000\b\0378q\000\t\006+\001\016q\000\017K\001#/99p\000\001\0379R\001F)99\017\000\016x\000\017Y\001D/99`\001\t\0379`\0017\013\037\020\017S\024\001\003Hq\017`\0013\017p\000\003\016`\001\tx\000\017`\0010\016x\000\017`\001\006\006x\000\017`\001?\004\254\022/49x\000\000/19h\001F\013x\000\017p\001\003/19p\001F\r\200\000\0378\200\000\002\017x\001&\004\257\000\006\370\r\0330\026\006\0369q\000\002AG\005\037W\017v\001\027\016\022\000\017\210\000\035\016\201\001\016\220\000\017\206\001\027\016\022\000\017\220\000\037\0378\220\000\b\017\226\001\035\016\022\000\017\220\000\007\0309\375\n\n\177\000\007<\212\tm\001\016\177\000\n\215\001\017\022\000\013\017\221\000\032\016\250\001\016\231\000\006v\001\016\231\000\n\226\001\017\022\000\013\017\231\000\034\0378\231\000\016\006\177\001\016\231\000\n\237\001\017\022\000\013\017\231\000\033/20\215\023\005\005\231\000\006\207\001\016\231\000\n\247\001\016\022\000\017\207\000\034\016\301\001\016\217\000\006}\001\016\217\000\n\235\001\016\022\000\017\217\000\036\0378\217\000\016\006s\001\016\217\000\n\223\001\016\022\000\017\217\000\r\005\370\003.10\210\000\013\232\220\006t\001\016\210\000\n\224\001\016\022\000\017\210\000\035\016\247\001\016\220\000\006u\001\016\220\000\n\225\001\016\022\000\017\220\000\037\0378\220\000\016\006v\001\016\220\000\n\226\001\016\022\000\r8\007+4 \326\f\0332\366\f\0376s\026\001\0357y\001\016\213\000\n\231\001\016\022\000\017\213\000%\016\263\001\t\223\000\006|\001\016\223\000\n\234\001\016\022\000\017\223\000'\0378\223\000\t\006\177\001\016\223\000\n\237\001\016\022\000\rA\002)5 s\000\005\213\000\003\177\016\0369\271\013\f\026\203\006B\033\017\265\001\007\017}\000*\016\242\001\017\205\000\037\016\225\001\017\205\000\036\017\n\001/\016\207\001\005\032\002*8 u\000\0337\327\003\t\206\005\n\204\000-30i\001\017\211\001\007\017\177\0001\017\220\001\003-30k\001\017\207\000\003\016\213\001\017\207\000%\0378\207\000\t\006m\001\017\215\001\025\0353\207\000\0338\325\016\013]\005.16\201\000\002\265+\005\023\002\r,6\017\224\001\000\017\206\0003\016\226\001\017\216\000\037\016\233\001\017\216\000'\0378\216\000\022\017\242\001<\0138\031\005\226\000/00\202\034\005\017\252\001I\017\216\000\f\017\262\001\003\0376\262\001M\017\226\000\016\0378\226\000.\016\272\001\r\343\003)11\353\003\004Q\017\0371\023\001\000\003\367\203\t\204\001\017\244\001\007\017x\000*/10\200\000\n\006n\001\017\216\001\007\017\200\000,\0378\200\000\t\006X\001\017x\0015/50p\000\000/33p\001F/50h\001\001\017\313@\016\017h\001.\005x\000\0378x\000\002\017`\001F\0379p\000\001/25`\001F/98\310\002\001\017jA\016\017`\001.\005x\000\017\360\000\003\017`\001&\0353x\000\017x\006\013\ty\000*58\266\004\f\235>\017n\001\000\017~\000+\016w\001\017\206\000\037\016|\001\017\206\000\037\0378\206\000\022\017\212\0014\017P\006\f\017>%\000\017\222\001A\017\206\000\f\017\232\001\002/64\232\001E\017\216\000\016\0378\216\000.\016\242\001\004\244\003\004\371#\0329}\000\n(\013-01d\001\0371\317=\006\017h\000\032\016k\001\tp\000\006F\001\017p\0006\0378p\000\t\006(\001\017p\000\025\0333p\000\005\307%\0317\345\001*98\315\017\017\216\003\004\t\227\000)38\344\001\017|\001\017\0370\234\000J\016\253\001\016\244\000\017\260\001\r\006 \000\017\244\000E\0378\244\000\b\017\344\001\023\006 \000\017\244\000\r*12~\000)97)\001\006\225\000\003/\000/14\235\000\000\017\344\001$\016\022\000\017\256\000D\004 \000\016\266\000\017\366\001 \016\022\000\017\266\000F\017\t\002\001\017\b\002$\016\022\000\017\266\000\035\006\b\000\004\354\005\0319\316\000\005\266\000\0370\215\007\000\t\266\000\006\360\001\016\266\000\n\020\002\017\266\000^\016*\002\r\276\000\006\370\001\016\276\000\n\030\002\017\276\000`\0378\276\000\r\006\214\000\016\276\000\n\254\000\017\276\000\020\0334\276\000\f\260\022\013\341\004*00/\000/14\3601\001\017+\002,\006\022\000\017\257\000D\017#\002\002/16$\002,\006\022\000\017\267\000F\0378\267\000\016\006\353\001\016\267\000\n\013\002\016\022\000\017\267\000\025\006\225/\0317\333\002\n\264\002\004\200\000\f\324\001\016\230\000\n\364\001\017\022\000\007\016\2033\017\252\000%\016$\004\016\262\000\006\317\001\017\262\000\003\006 \000\016\022\000\017\262\000A\0378\262\000\016\006\312\001\016\262\000\n\352\001\016\022\000\017\262\000\031\013\256\002.16\232\000\0310\231\000\006\313\001\016\231\000\n\353\001\017u\000\035\016\311\001\r}\000\006\226\001\017}\000\003\006 \000\017}\000\037\0378}\000\r\006a\001\016}\000\n\201\001\017}\000\006+11\021\002\n%\004\t}\000\002\352J\017x\0019\017~\000\f\017\200\001\002/42\201\001=\017\206\000\016\0378\206\000\001\017\212\0015\003\177\007\0339\265\005\0318\023\f)08\233\000\t\213\000/34\227\001$,9 Y\017\017\235\0002\017\266\001\002/34\266\001\036\017\245\000L\0378\245\000\001\017\325\001$\017\245\0005/10\271\017\001\017\337\001,\006\205\035\017\225\000*\016\327\001\016\235\000\017\327\001\037\017\235\0006\0378\235\000\001\017\317\001,\016\235\000\004!\002\005\030\t*03\236\000\0319\b\000/97\226\000\000\005\361T\017\313\001\021\017\177\0001\016\272\001\t\207\000\017\265\001\021\017\207\0003\0378\207\000\003\017\237\001\035\r*\002*6 \312\n\013\311\005.99x\000\002\252O\005\034\002\017\213\001\021\017}\000*\016\204\001\016\205\000\017\211\001\021\017\205\000,\0378\205\000\b\017\207\001$'10\314\222\004;\000,00\335\b\0378\2309\007\0306\371A\"8 \022\002\006\200\000\006`\000\0248I\206\006`\026/00h\000\036(70\343\177\006\000\017\003\353\f\0326\341\035\003\007\000\005\233\236\006[\001\0351c\000\t\002\006\0306\243t\005\223k.35\221\000\017\257\013\001\017T\000\013\0379T\000\001\0318\033\002\003\212\001\004\2156+98\266\000\0374!\001\b\004_\000\t\207\001\t\007\000*33_\000\004H\000\r\250\020/05h\000\007&83h\000\tn\005\nl\000%9 \000\002/747?\003\000\033\000\0329\t\025\017\242\000\005/95\n\r\003/05{\304\001/95\327\000 \0378\327\000,/34]\001\004/11L\004\000\003v\000\003\242/\017\314\004\022/10p\000\034\0375p\000\001.4 \341\000\017p\0004\0378p\000\001,7 \017\003\017p\000\025\r<o\n\326\001)97\024\003\005\003\002\0364\206\000\002C8\005LI%12\312A\017\335\001\004\0252\003Y\017\023\000\013/21\023\000\021*52\331\000\0349\b\003\0252_Y\0234\b\000&10\034\000+35\\\t\005\310\002\013\273\275)95\231\001\002\003\001*12\026\211\007\022\005\031 n\006\017\2727\017\0311\275\005)32\367\001\005\007\002)10?\000\t\022\223'8 \311\272\002\336\000\004F\003\005\327K\002\305\000+99]\002\na\"\f\375\001\0315c\003\004\204\000\004\027\000.16\024\002&40\024\002\n\214\001\004\224\004-41+\003\017!\002\023\f\301\002)9 \264\000/089\001\002.99\245\000\002\006(\005\225\004\017\271\002\000\017\223\002\031\013\230\000\017\357\007\006\t\203\000*84<\003\007 \233\016\203\000\016-\001\t\022\000\0330\206\017#01\t\000\017\241\005\021\005\342*\0372~\000\000\0371s\000\f\005\355\002\005j.\003:\002\006\326\002\0361s\000\002\020M\017r\000\003-9 \224\001\r`\001*3 d\000+16\020\000\0370x\001\007\003.%\002}\000\001h\000\006\324\222\017A\005\023-14\276]\r\352\037*97h\b\0365\211\000\004\276\n\0373\310\005\023\006 \000\017t\000\005\016\376\t\017w\002\001\0346w\002\0378w\000\016\017\211\000\026\017\221\003'/27\221\003&\017\206\000\006\013~\000\013\035\002\t\177\000\003\321Y\005\027\001\006\350\002\017\024\002\007\017\221\000&*15\266\002\003\027\001\005\255\032\03794\002\007\006\005\243\rv\000\017\251\000\003_12343\274\000\037'14@\000\r\341\006/9 \032\b\001\017;\006\004\003\346\000\0300]\f\0374\"\001\006\017\032\001\021\n\022\001/57\272\001\032\017\021\001%\0357\371\f\0335\244\000\0374\360\000\000\f\314\r\017\360\004\023\016\207\000\017\t\t\033-42\255\000\017\327\013>\005\264\260\0372\324\000\000\013\242\000\006\224\001\0330\020\265\005\362\000\0327\271\005.00r\000\f\376\231\017\352\001\005\0343]\000\004\330\000\004e\000\0330\031\004/11^\002\006/38\227\004\000\017\305\001&\rL\002*5 3\003\017\006\001\022\0269\006\001\017\207\000\005\005\360\332\003r\000\004c\f\007r\000\0376\266\002\002\005\316\002\017{\000\002/17T\r\036\006\006\001?538c\004\005\005\201\007\017\250\000 \0378\250\000\000-76\253\006\017\250\000 \016\276\002\017N\001&/17\256\000\b\005\213\200\b\223\f\017\257\0009\0343\257\000\004R%*15\257\000\004\000\004\007p\021\006\247\000\003\020\022\017g\005\024\006\253\000\r\206\000\013>\006/15\332\001\004\03795\007\001\013\224\000\0318\225\000\007k\003\017\226\000\003\007k\002\006\023\000?666\017\007\0308671O\027\n#\007\017\345\000\000\017\335\000\021\013\325\000\0371j\001\032\017\324\000\002\005\222\000\003\301\000\003\021\006\013\f\016\r\212\016(17\037\000*99\017\006'20\256\000\006\210Q\to\236\017o\243\f/10o\243\020/14o\243\020\0372J\243\021/31J\243\020/32%\243\020.33%\243\016%\000\0245%\000\017\224\243\b\005K\225\017F\243\017\003\235\330\0325\226\001\017\274\001)\0325\337\005\f*\f\0376\362\001\n\017\327\016\013)11I\236\013\t\002\017\273\002\002\006'4\016\022\000\0310\007\000\b8\002\005\347\021\006\370\f\0378\326\000\n\0329b\004\tn\003\002}\005\017\376\026\r\0327\017\000\016X\t-11c\000\t\316\000\0306\237\207\f\252\026\t\221\000\r\266\b\004,\004\017T\000\006\0379\376\026\016\004\373\002\004_\002\f\347\001\0370!\001\b\005\317\022\017\350\t!/33\253\001\004/97\335\005\016\004t\001\0343\370\000\017|\000\003\006 \000\017|\000\r\017'\002\005\t~\000\004\227\245\0373\313\0027\0047\b\017\350\025\r/10\220\000\000\003\370V\tX\000\017z\007\007\017\257\b,\017\211\000\t\003\003\245\017\211\000\032\0379]\tY\017\266\000\004\0245q\000/32\265\000q\017\264\030\002\005Px\016\373\034\017\246\000\022\017\224\000-\n \003\013\234\000.6 \022\035\017\234\000%*12S\020$38+\000\017\334\257\000\0303\336\027\017\333\257\004\0303|\026\000$\000\017\327\256\000\0303|\016\017\376\257\004\0303\005\036\017\255\255\004\004$\000\0379\313\b\b\003$\000\005'l\017\376\260\001\0333\255a\b\213\023\f$\000\0237$\000\0255\242\270\r#\000\0378\260\260\b\03335a\016\257\260\005$\000/60\256\260\b\004$\000\0371\255\260\b\0303\363\020\000$\000\016\254\260\005$\000\03733\255\b\0303\3664\017\205\260\004\004$\000\0375\204\260\b\0303\301\036\017\203\260\004\0303\375\333\017\202\260\004\0333d\223\016\201\260\005$\000/70\200\260\b\fu\372\017\177\260\001\0333H\222\017~\260\001\0333\216\221\017}\260\001\0333\335Z\017W\260\001\0303o\007\017V\260\004\004$\000\0377U\260\b\0333\202\220\017T\260\001\0303\263\b\017S\260\004\0303\231\t\017R\260\004\0303\007\307\017Q\260\004\0303V\037\017P\260\004\0333I\216\007O\260/32\026g\020\004\307\b\0329I\005\003\317\b\0056\033\t\355\005\004\377\007\0175\000\f\0270y\016\007\272\003\r\032\006\016\031\000\0370\250h\030\017\301\000\r\0314\224\000\017\311\000\034\0374\321\000\b/61\250hC+97\205\000\0325&\r/02\312\000\003\0176\000\022\013\303\000\0373\224\001J\017\215\000\000\017\225\001\030\017>\000\025\013\323\000\0375\323\000L\0326\017\000\0360\364?\016\b\000\0330\331\000\017D\000\021\013\327\000\0378\327\000\021\017\177\002:\017\245\000\002\004\236\000\n\246\000\016\332\000\0175\000\002\013\323\000\0379\252\001a\016|\002\017\311\000\032\0374\321\000\b/71\021\004D\0329j\016\013\374\n/02\224\000\000\005Y \0175\000\013\013\301\000\0373\301\000J\006\017\020\003\321\003)08\215\000\017\302\000\003\0176\000\r\013\303\000\0375\303\000=\0377\"\006\003\0372\210\026\003\0370\333\022\004/02\353\000\013\017^\0002\013\013\001\0379\013\001\021\017\336p1\r\035\001\0315\227\000\n\237\000\016\355\000\0375\305\000\b/83\223\002K\r\205\000\0374\273\000\"\0374\303\000\002\017\363a\r\017\303\000+\005\031\003\0321~\000)99\017\000\013\225\000\005}\r\0176\000\013\n\303\000/96\027sD\017\303\000\004\017\274\000\034\017\265\000\003\003/\000\017y\001H)20\257\003/50\226\000\t\005\275\000\0176\000\013\f\304\000\0378z\001L\013\216\000/10\275\000\032\017\266\000\005\0379\333\007C\017\266\000\007\0319kJ/02\305\000\033\016>\000\016\324\000/11N\002E\0302k\b+98[\004\0372\313\000\002/2 5\000\020\f\302\000\0372\302\000K\r\226\026\003X\001\006 \000\0372\237\000\001\005w'\017?\000\f\f\316\000\0374\316\000\021\017v\0023\0322z\b\005\377\005\0371\217\004\021\006\340\000\017?\000\023\013\350\000/24\002\004E\0312g\001+97\027\000\017\b\000\003\0340\325\000\017>\000\002\f\304\000\017\276\f*\017\236\0025\n\252\000+20\037\000\0372\302\000\001\016\350\000\017>\000\002\013\360\000.32\360\000\017\336\000S\005=\003\017y\n\022\r\337\000\016?\000\017\340\000\003\0374\340\000f+11-\004\0372\340\000\032\016?\000\017\340\000\002\0376\\\004^/14\230\007\032\017\022\204\003\005\357\000\017N\000\024\f\367\000\017\247\003!\r\001@\017\367\000\023\0334\342\f\0322\240\001\017\335\016\004\013\271\000\002\261!\017G\000\027\013\360\000\017+\214!\017\347\001%\0375\004\006\003)03\301\007/02\347\000\002/5 >\000\031\f\346\000\0352\364\033\017\346\000\006\017\324\000\033\0338L\003\017\273\002\023\f\264\002/8 G\000\032\013\336\000/55\304\001!/37Y\203 *08v\001\0327[\004\013\"\006\0360\267\000\t\356\000\017E\000\031\f\364\000\0357\333\000\017\322\001,\f\342\000\0338G\004\013\026\006\017\236\003\004\0340\344\000\017G\000\033\013\346\000.66\246\037\017l\2353\0378\237\000\003\004V\003\005\022#\0330\231\002\0372\356\000\004\017O\000*\f\366\000\0368\366\000\017\256\003:)11\201\002\n\202y\004\225\000\013\235\000\005\344\000\017=\000\022\013\322\000\016\367\203\017\322\000R\016\177\004\017\323\000\031\017v\004\005\017(\204F\0373\324\000\n/50\314\000!\017[\020\013/77\304\000[/98\304\000!\017\334\006\013/81\035\rE\017\304\000\003\004\207\000\017\275\000\024\017\266\000\005\0372\022\003M\017\270\005+\017?\000\024\f\326\000\0367\263.\017\226\006:/14\250\0052\017G\000\034\f\346\000\0379\346\000=\0323\002\b/11\316\000\n\r\001\f\n\345\000/9 F\000\022\013\325\000\0369\274\000\017\325\000\006\0164\227\017\347\000\022\013+\006\0321\355\t)97\234\001*98\327\013\017\310\002\033\005<$\017]\0002\n+\001\016\345W\017+\001\b\017\031\0010*12\226\000)97\235\000\006\255\000\003/\000*14 \000/02\315\000\001\f\"\001\017f\000,\f#\001\0375#\001\021\017\247\0052*12\357\002)19\231\000\f\b\000\003\251\000\005=#\0177\000\004\013\320\000/31\320\000N\f\005\002\0324p\001\f\026\f\013\262\002/00\237\001\n\017\006\001\005/4 f\0009\f5\001\0379\005\002O\0335\211\000\n\310\000\017\033Q\007\0372S\021\030\017&\001\005\017^\000\r\013\017\001/45\017\001)\017m\021\006\002\252\231\017[\006\r/14\322\001\003)16\263\000\013\273\000\006\372\000\0177\000\013\n\352\000\0330\3418\004\303\000\017\356\000\006\017\341\b\032*14m\001/17\244\002\004\0372\322\000\004\017?\000\032\f1\013/0 \326\000\035/44\221\016\021\003\267\031\0339\200\003\0318\257\006+08\254\000\0332\b\000\0318\353\000\0032-\017T\000\"\n\370\000\0373\323\001\036\016#\t\017\017\001\023\0375\017\001\030\017\007\001\006\0375\007\001\037\017\377\000\n/22\377\000%\rg\022/44\324\006\022\0375w\003\003/02\246\000\001\004\342\000\016/\000\017\315\000\001\0375\314\001\036\017i\004\033\017\273\000\005\0314\224\000\017\303\000\026\0374\313\000\t\0374\313\000R\005\347\005\03744\005\022/5 7\000\022\013\313\000\0378\313\000C\0312|\000+97^\001\0372\223\000\001\00476\017.\000\004\n\271\000/60\204\001K\017\271\000\004\0374\301\000\"\0374\311\000\t\0372\311\000C\0315\311\000\004\027\020\004\233\000)09\b\000)97\242\000\017\330\000\004\017E\000\033\013\347\000\0374\347\000C\0324\347\000/14_\007\002)99\233\000\013\243\000\005\340\000\017>\000\023\013\331\000\0376\331\000$+12\034>\0368\2472\036474\0136\000\005%3\"60%\b\001`\000\360\r\t}\n.section\t.debug_loc\t{\t}\n\000"
	.size	.L__unnamed_3, 39248

	.type	__cuda_fatbin_wrapper,@object   # @__cuda_fatbin_wrapper
	.section	.nvFatBinSegment,"aw",@progbits
	.p2align	3, 0x0
__cuda_fatbin_wrapper:
	.long	1180844977                      # 0x466243b1
	.long	1                               # 0x1
	.quad	.L__unnamed_3
	.quad	0
	.size	__cuda_fatbin_wrapper, 24

	.type	__cuda_gpubin_handle,@object    # @__cuda_gpubin_handle
	.local	__cuda_gpubin_handle
	.comm	__cuda_gpubin_handle,8,8
	.section	.init_array,"aw",@init_array
	.p2align	3, 0x0
	.quad	__cuda_module_ctor
	.file	7 "/nethome/cahn45" "llvm-vortex-with-cuda-build/lib/clang/18/include/__clang_cuda_math_forward_declares.h"
	.file	8 "/usr/include" "stdlib.h"
	.file	9 "/usr/lib/gcc/x86_64-linux-gnu/13/../../../../include/c++/13/bits" "std_abs.h"
	.file	10 "/usr/include/x86_64-linux-gnu/bits" "mathcalls.h"
	.file	11 "/usr/include" "math.h"
	.file	12 "/usr/lib/gcc/x86_64-linux-gnu/13/../../../../include/c++/13" "cstdlib"
	.file	13 "/nethome/cahn45" "llvm-vortex-with-cuda-build/lib/clang/18/include/__stddef_size_t.h"
	.file	14 "/usr/lib/gcc/x86_64-linux-gnu/13/../../../../include/c++/13" "stdlib.h"
	.file	15 "/nethome/cahn45" "llvm-vortex-with-cuda-build/lib/clang/18/include/__clang_cuda_math.h"
	.file	16 "/nethome/cahn45" "llvm-vortex-with-cuda-build/lib/clang/18/include/__clang_cuda_cmath.h"
	.file	17 "/usr/lib/gcc/x86_64-linux-gnu/13/../../../../include/c++/13" "math.h"
	.file	18 "/usr/include/x86_64-linux-gnu/bits" "types.h"
	.file	19 "/usr/include/x86_64-linux-gnu/bits/types" "struct_timeval.h"
	.file	20 "/nethome/cahn45/CuPBoP" "cuda-12.1/include/cuda.h"
	.section	".note.GNU-stack","",@progbits
	.addrsig
	.addrsig_sym _Z13create_matrixPfi
	.addrsig_sym _ZSt3expf
	.addrsig_sym printf
	.addrsig_sym exit
	.addrsig_sym cudaSetDevice
	.addrsig_sym _Z21PrintDevicePropertiesv
	.addrsig_sym atoi
	.addrsig_sym malloc
	.addrsig_sym _Z15InitProblemOncePc
	.addrsig_sym _Z10InitPerRunv
	.addrsig_sym gettimeofday
	.addrsig_sym _Z10ForwardSubv
	.addrsig_sym _Z8PrintMatPfii
	.addrsig_sym _Z8PrintAryPfi
	.addrsig_sym _Z7BackSubv
	.addrsig_sym free
	.addrsig_sym cudaGetDeviceCount
	.addrsig_sym cudaGetDeviceProperties_v2
	.addrsig_sym cudaGetErrorString
	.addrsig_sym cudaGetLastError
	.addrsig_sym fopen
	.addrsig_sym __isoc99_fscanf
	.addrsig_sym _Z7InitMatPfii
	.addrsig_sym _Z7InitAryPfi
	.addrsig_sym _Z19__device_stub__Fan1PfS_ii
	.addrsig_sym __cudaPopCallConfiguration
	.addrsig_sym cudaLaunchKernel
	.addrsig_sym _Z19__device_stub__Fan2PfS_S_iii
	.addrsig_sym cudaMalloc
	.addrsig_sym cudaMemcpy
	.addrsig_sym __cudaPushCallConfiguration
	.addrsig_sym cudaDeviceSynchronize
	.addrsig_sym _Z14checkCUDAErrorPKc
	.addrsig_sym cudaFree
	.addrsig_sym fprintf
	.addrsig_sym expf
	.addrsig_sym __cuda_register_globals
	.addrsig_sym __cudaRegisterFunction
	.addrsig_sym __cudaRegisterFatBinary
	.addrsig_sym __cuda_module_ctor
	.addrsig_sym __cudaRegisterFatBinaryEnd
	.addrsig_sym __cudaUnregisterFatBinary
	.addrsig_sym __cuda_module_dtor
	.addrsig_sym atexit
	.addrsig_sym Size
	.addrsig_sym a
	.addrsig_sym b
	.addrsig_sym finalVec
	.addrsig_sym m
	.addrsig_sym fp
	.addrsig_sym totalKernelTime
	.addrsig_sym stderr
	.addrsig_sym .L__unnamed_3
	.addrsig_sym __cuda_fatbin_wrapper
	.addrsig_sym __cuda_gpubin_handle