
kernel.elf:	file format elf64-littleriscv

Disassembly of section .init:

0000000180000000 <_start>:
180000000: f3 22 10 fc 	csrr	t0, nw
180000004: 17 03 00 00 	auipc	t1, 0x0
180000008: 13 03 83 55 	addi	t1, t1, 0x558
18000000c: 0b 90 62 00 	vx_wspawn	t0, t1
180000010: 93 02 f0 ff 	li	t0, -0x1
180000014: 0b 80 02 00 	vx_tmc	t0
180000018: ef 00 00 50 	jal	0x180000518 <init_regs>
18000001c: 93 02 10 00 	li	t0, 0x1
180000020: 0b 80 02 00 	vx_tmc	t0
180000024: f3 22 10 fc 	csrr	t0, nw
180000028: 17 03 00 00 	auipc	t1, 0x0
18000002c: 13 03 83 54 	addi	t1, t1, 0x548
180000030: 0b 90 62 00 	vx_wspawn	t0, t1
180000034: 93 02 f0 ff 	li	t0, -0x1
180000038: 0b 80 02 00 	vx_tmc	t0
18000003c: ef 00 80 54 	jal	0x180000584 <__init_tls>
180000040: 93 02 10 00 	li	t0, 0x1
180000044: 0b 80 02 00 	vx_tmc	t0
180000048: 17 45 00 00 	auipc	a0, 0x4
18000004c: 13 05 85 34 	addi	a0, a0, 0x348
180000050: 17 46 00 00 	auipc	a2, 0x4
180000054: 13 06 86 38 	addi	a2, a2, 0x388
180000058: 33 06 a6 40 	sub	a2, a2, a0
18000005c: 93 05 00 00 	li	a1, 0x0
180000060: ef 20 10 5b 	jal	0x180002e10 <memset>
180000064: ef 00 40 56 	jal	0x1800005c8 <__libc_init_array>
180000068: ef 00 40 0c 	jal	0x18000012c <main>
18000006c: 6f 00 40 00 	j	0x180000070 <exit>

Disassembly of section .text:

0000000180000070 <exit>:
180000070: 13 01 01 ff 	addi	sp, sp, -0x10
180000074: 23 34 11 00 	sd	ra, 0x8(sp)
180000078: 23 30 81 00 	sd	s0, 0x0(sp)
18000007c: 13 04 05 00 	mv	s0, a0
180000080: ef 00 c0 5d 	jal	0x18000065c <__funcs_on_exit>
180000084: ef 20 c0 7d 	jal	0x180002860 <libc_exit_fini>
180000088: ef 20 40 7d 	jal	0x18000285c <dummy>
18000008c: 13 05 04 00 	mv	a0, s0
180000090: ef 00 40 47 	jal	0x180000504 <_Exit>

0000000180000094 <_Z23cuda_Fan1PfS_ii_wrapperPv>:
180000094: 97 45 00 00 	auipc	a1, 0x4
180000098: 83 b5 c5 24 	ld	a1, 0x24c(a1)
18000009c: b3 85 45 00 	add	a1, a1, tp
1800000a0: 03 a6 05 00 	lw	a2, 0x0(a1)
1800000a4: 23 20 c2 00 	sw	a2, 0x0(tp)
1800000a8: 03 a6 45 00 	lw	a2, 0x4(a1)
1800000ac: 23 22 c2 00 	sw	a2, 0x4(tp)
1800000b0: 83 a5 85 00 	lw	a1, 0x8(a1)
1800000b4: 17 46 00 00 	auipc	a2, 0x4
1800000b8: 03 36 46 22 	ld	a2, 0x224(a2)
1800000bc: 23 24 b2 00 	sw	a1, 0x8(tp)
1800000c0: 33 06 46 00 	add	a2, a2, tp
1800000c4: 83 25 06 00 	lw	a1, 0x0(a2)
1800000c8: 23 26 b2 00 	sw	a1, 0xc(tp)
1800000cc: 83 25 46 00 	lw	a1, 0x4(a2)
1800000d0: 23 28 b2 00 	sw	a1, 0x10(tp)
1800000d4: 83 25 86 00 	lw	a1, 0x8(a2)
1800000d8: 23 2a b2 00 	sw	a1, 0x14(tp)
1800000dc: 6f 00 40 3f 	j	0x1800004d0 <Fan1PfS_ii_wrapper>

00000001800000e0 <_Z26cuda_Fan2PfS_S_iii_wrapperPv>:
1800000e0: 97 45 00 00 	auipc	a1, 0x4
1800000e4: 83 b5 05 20 	ld	a1, 0x200(a1)
1800000e8: b3 85 45 00 	add	a1, a1, tp
1800000ec: 03 a6 05 00 	lw	a2, 0x0(a1)
1800000f0: 23 20 c2 00 	sw	a2, 0x0(tp)
1800000f4: 03 a6 45 00 	lw	a2, 0x4(a1)
1800000f8: 23 22 c2 00 	sw	a2, 0x4(tp)
1800000fc: 83 a5 85 00 	lw	a1, 0x8(a1)
180000100: 17 46 00 00 	auipc	a2, 0x4
180000104: 03 36 86 1d 	ld	a2, 0x1d8(a2)
180000108: 23 24 b2 00 	sw	a1, 0x8(tp)
18000010c: 33 06 46 00 	add	a2, a2, tp
180000110: 83 25 06 00 	lw	a1, 0x0(a2)
180000114: 23 26 b2 00 	sw	a1, 0xc(tp)
180000118: 83 25 46 00 	lw	a1, 0x4(a2)
18000011c: 23 28 b2 00 	sw	a1, 0x10(tp)
180000120: 83 25 86 00 	lw	a1, 0x8(a2)
180000124: 23 2a b2 00 	sw	a1, 0x14(tp)
180000128: 6f 00 00 3c 	j	0x1800004e8 <Fan2PfS_S_iii_wrapper>

000000018000012c <main>:
18000012c: 13 01 01 fd 	addi	sp, sp, -0x30
180000130: 23 34 11 02 	sd	ra, 0x28(sp)
180000134: 23 30 81 02 	sd	s0, 0x20(sp)
180000138: 23 3c 91 00 	sd	s1, 0x18(sp)
18000013c: 23 38 21 01 	sd	s2, 0x10(sp)
180000140: 23 34 31 01 	sd	s3, 0x8(sp)
180000144: 23 30 41 01 	sd	s4, 0x0(sp)
180000148: 73 24 00 34 	csrr	s0, mscratch
18000014c: 83 29 44 04 	lw	s3, 0x44(s0)
180000150: 93 04 84 04 	addi	s1, s0, 0x48
180000154: 93 99 39 00 	slli	s3, s3, 0x3
180000158: 03 25 04 00 	lw	a0, 0x0(s0)
18000015c: 33 89 34 01 	add	s2, s1, s3
180000160: 97 45 00 00 	auipc	a1, 0x4
180000164: 03 26 44 00 	lw	a2, 0x4(s0)
180000168: 23 a8 a5 22 	sw	a0, 0x230(a1)
18000016c: 17 45 00 00 	auipc	a0, 0x4
180000170: 83 25 84 00 	lw	a1, 0x8(s0)
180000174: 23 24 c5 22 	sw	a2, 0x228(a0)
180000178: 17 45 00 00 	auipc	a0, 0x4
18000017c: 03 26 84 01 	lw	a2, 0x18(s0)
180000180: 23 20 b5 22 	sw	a1, 0x220(a0)
180000184: 17 45 00 00 	auipc	a0, 0x4
180000188: 83 25 04 02 	lw	a1, 0x20(s0)
18000018c: 23 2c c5 20 	sw	a2, 0x218(a0)
180000190: 17 45 00 00 	auipc	a0, 0x4
180000194: 83 26 c4 03 	lw	a3, 0x3c(s0)
180000198: 23 2a b5 20 	sw	a1, 0x214(a0)
18000019c: 03 25 c4 01 	lw	a0, 0x1c(s0)
1800001a0: 97 45 00 00 	auipc	a1, 0x4
1800001a4: 23 a6 d5 20 	sw	a3, 0x20c(a1)
1800001a8: 97 46 00 00 	auipc	a3, 0x4
1800001ac: 83 35 09 00 	ld	a1, 0x0(s2)
1800001b0: 23 ac a6 1e 	sw	a0, 0x1f8(a3)
1800001b4: 33 05 c5 02 	mul	a0, a0, a2
1800001b8: 17 46 00 00 	auipc	a2, 0x4
1800001bc: 23 28 a6 1e 	sw	a0, 0x1f0(a2)
1800001c0: 63 82 05 04 	beqz	a1, 0x180000204 <main+0xd8>
1800001c4: 17 35 00 00 	auipc	a0, 0x3
1800001c8: 13 05 c5 e0 	addi	a0, a0, -0x1f4
1800001cc: ef 00 80 53 	jal	0x180000704 <vx_printf>
1800001d0: 03 35 09 00 	ld	a0, 0x0(s2)
1800001d4: 63 08 05 02 	beqz	a0, 0x180000204 <main+0xd8>
1800001d8: 13 0a 00 00 	li	s4, 0x0
1800001dc: b3 89 89 00 	add	s3, s3, s0
1800001e0: 93 89 09 06 	addi	s3, s3, 0x60
1800001e4: 03 b5 09 ff 	ld	a0, -0x10(s3)
1800001e8: 83 b5 89 ff 	ld	a1, -0x8(s3)
1800001ec: 03 b6 09 00 	ld	a2, 0x0(s3)
1800001f0: ef 20 40 6d 	jal	0x1800028c4 <memcpy>
1800001f4: 03 35 09 00 	ld	a0, 0x0(s2)
1800001f8: 13 0a 1a 00 	addi	s4, s4, 0x1
1800001fc: 93 89 89 01 	addi	s3, s3, 0x18
180000200: e3 62 aa fe 	bltu	s4, a0, 0x1800001e4 <main+0xb8>
180000204: 03 25 04 04 	lw	a0, 0x40(s0)
180000208: 13 15 35 00 	slli	a0, a0, 0x3
18000020c: 97 45 00 00 	auipc	a1, 0x4
180000210: 93 85 45 0a 	addi	a1, a1, 0xa4
180000214: 33 85 a5 00 	add	a0, a1, a0
180000218: 83 36 05 00 	ld	a3, 0x0(a0)
18000021c: 13 05 30 00 	li	a0, 0x3
180000220: 93 05 04 00 	mv	a1, s0
180000224: 13 06 00 00 	li	a2, 0x0
180000228: 13 87 04 00 	mv	a4, s1
18000022c: 83 30 81 02 	ld	ra, 0x28(sp)
180000230: 03 34 01 02 	ld	s0, 0x20(sp)
180000234: 83 34 81 01 	ld	s1, 0x18(sp)
180000238: 03 39 01 01 	ld	s2, 0x10(sp)
18000023c: 83 39 81 00 	ld	s3, 0x8(sp)
180000240: 03 3a 01 00 	ld	s4, 0x0(sp)
180000244: 13 01 01 03 	addi	sp, sp, 0x30
180000248: 6f 00 50 06 	j	0x180000aac <vx_spawn_threads>

000000018000024c <_Z4Fan1PfS_ii>:
18000024c: 13 01 01 ff 	addi	sp, sp, -0x10
180000250: 23 34 11 00 	sd	ra, 0x8(sp)
180000254: 23 30 81 00 	sd	s0, 0x0(sp)
180000258: 13 04 01 01 	addi	s0, sp, 0x10
18000025c: 17 47 00 00 	auipc	a4, 0x4
180000260: 13 07 c7 14 	addi	a4, a4, 0x14c
180000264: 03 27 07 00 	lw	a4, 0x0(a4)
180000268: 63 08 07 0a 	beqz	a4, 0x180000318 <_Z4Fan1PfS_ii+0xcc>
18000026c: 6f 00 40 00 	j	0x180000270 <_Z4Fan1PfS_ii+0x24>
180000270: 97 47 00 00 	auipc	a5, 0x4
180000274: 93 87 c7 12 	addi	a5, a5, 0x12c
180000278: 83 a7 07 00 	lw	a5, 0x0(a5)
18000027c: 03 28 02 00 	lw	a6, 0x0(tp)
180000280: 3b 08 f8 02 	mulw	a6, a6, a5
180000284: 93 c8 f6 ff 	not	a7, a3
180000288: bb 88 c8 00 	addw	a7, a7, a2
18000028c: 9b 82 16 00 	addiw	t0, a3, 0x1
180000290: 1b 83 06 00 	sext.w	t1, a3
180000294: 13 13 23 00 	slli	t1, t1, 0x2
180000298: b3 85 65 00 	add	a1, a1, t1
18000029c: bb 86 c6 02 	mulw	a3, a3, a2
1800002a0: 93 96 26 00 	slli	a3, a3, 0x2
1800002a4: b3 86 d5 00 	add	a3, a1, a3
1800002a8: 33 05 65 00 	add	a0, a0, t1
1800002ac: 13 03 00 00 	li	t1, 0x0
1800002b0: 6f 00 40 00 	j	0x1800002b4 <_Z4Fan1PfS_ii+0x68>
1800002b4: bb 63 f3 02 	remw	t2, t1, a5
1800002b8: 3b 0e 78 00 	addw	t3, a6, t2
1800002bc: 9b 83 08 00 	sext.w	t2, a7
1800002c0: b3 3e 7e 00 	sltu	t4, t3, t2
1800002c4: 8b a3 1e 00 	vx_split_n	t2, t4
1800002c8: 63 8a 0e 02 	beqz	t4, 0x1800002fc <_Z4Fan1PfS_ii+0xb0>
1800002cc: 6f 00 40 00 	j	0x1800002d0 <_Z4Fan1PfS_ii+0x84>
1800002d0: 3b 8e c2 01 	addw	t3, t0, t3
1800002d4: 3b 0e ce 02 	mulw	t3, t3, a2
1800002d8: 13 1e 0e 02 	slli	t3, t3, 0x20
1800002dc: 13 5e ee 01 	srli	t3, t3, 0x1e
1800002e0: b3 8e c5 01 	add	t4, a1, t3
1800002e4: 87 a7 0e 00 	flw	fa5, 0x0(t4)
1800002e8: 07 a7 06 00 	flw	fa4, 0x0(a3)
1800002ec: d3 f7 e7 18 	fdiv.s	fa5, fa5, fa4
1800002f0: 33 0e c5 01 	add	t3, a0, t3
1800002f4: 27 20 fe 00 	fsw	fa5, 0x0(t3)
1800002f8: 6f 00 40 00 	j	0x1800002fc <_Z4Fan1PfS_ii+0xb0>
1800002fc: 0b b0 03 00 	vx_join	t2
180000300: 6f 00 40 00 	j	0x180000304 <_Z4Fan1PfS_ii+0xb8>
180000304: 1b 03 13 00 	addiw	t1, t1, 0x1
180000308: 9b 03 07 00 	sext.w	t2, a4
18000030c: e3 14 73 fa 	bne	t1, t2, 0x1800002b4 <_Z4Fan1PfS_ii+0x68>
180000310: 6f 00 40 00 	j	0x180000314 <_Z4Fan1PfS_ii+0xc8>
180000314: 6f 00 40 00 	j	0x180000318 <_Z4Fan1PfS_ii+0xcc>
180000318: 83 30 81 00 	ld	ra, 0x8(sp)
18000031c: 03 34 01 00 	ld	s0, 0x0(sp)
180000320: 13 01 01 01 	addi	sp, sp, 0x10
180000324: 67 80 00 00 	ret

0000000180000328 <_Z4Fan2PfS_S_iii>:
180000328: 13 01 01 fb 	addi	sp, sp, -0x50
18000032c: 23 34 11 04 	sd	ra, 0x48(sp)
180000330: 23 30 81 04 	sd	s0, 0x40(sp)
180000334: 23 3c 91 02 	sd	s1, 0x38(sp)
180000338: 23 38 21 03 	sd	s2, 0x30(sp)
18000033c: 23 34 31 03 	sd	s3, 0x28(sp)
180000340: 23 30 41 03 	sd	s4, 0x20(sp)
180000344: 23 3c 51 01 	sd	s5, 0x18(sp)
180000348: 23 38 61 01 	sd	s6, 0x10(sp)
18000034c: 23 34 71 01 	sd	s7, 0x8(sp)
180000350: 23 30 81 01 	sd	s8, 0x0(sp)
180000354: 13 04 01 05 	addi	s0, sp, 0x50
180000358: 17 47 00 00 	auipc	a4, 0x4
18000035c: 13 07 07 05 	addi	a4, a4, 0x50
180000360: 03 27 07 00 	lw	a4, 0x0(a4)
180000364: 63 0e 07 12 	beqz	a4, 0x1800004a0 <_Z4Fan2PfS_S_iii+0x178>
180000368: 6f 00 40 00 	j	0x18000036c <_Z4Fan2PfS_S_iii+0x44>
18000036c: 17 48 00 00 	auipc	a6, 0x4
180000370: 13 08 08 03 	addi	a6, a6, 0x30
180000374: 03 28 08 00 	lw	a6, 0x0(a6)
180000378: 83 28 02 00 	lw	a7, 0x0(tp)
18000037c: bb 88 08 03 	mulw	a7, a7, a6
180000380: 93 c2 f7 ff 	not	t0, a5
180000384: bb 82 d2 00 	addw	t0, t0, a3
180000388: 13 03 42 00 	addi	t1, tp, 0x4
18000038c: 97 43 00 00 	auipc	t2, 0x4
180000390: 93 83 43 01 	addi	t2, t2, 0x14
180000394: 83 a3 03 00 	lw	t2, 0x0(t2)
180000398: 3b 8e f6 40 	subw	t3, a3, a5
18000039c: 9b 8e 17 00 	addiw	t4, a5, 0x1
1800003a0: 3b 8f d7 02 	mulw	t5, a5, a3
1800003a4: 9b 8f 07 00 	sext.w	t6, a5
1800003a8: 93 9f 2f 00 	slli	t6, t6, 0x2
1800003ac: b3 0f f6 01 	add	t6, a2, t6
1800003b0: 93 04 00 00 	li	s1, 0x0
1800003b4: 6f 00 40 00 	j	0x1800003b8 <_Z4Fan2PfS_S_iii+0x90>
1800003b8: bb c9 04 03 	divw	s3, s1, a6
1800003bc: 3b 89 09 03 	mulw	s2, s3, a6
1800003c0: 3b 8a 98 00 	addw	s4, a7, s1
1800003c4: 3b 0a 2a 41 	subw	s4, s4, s2
1800003c8: 1b 89 02 00 	sext.w	s2, t0
1800003cc: b3 3a 2a 01 	sltu	s5, s4, s2
1800003d0: 0b a9 1a 00 	vx_split_n	s2, s5
1800003d4: 63 88 0a 0a 	beqz	s5, 0x180000484 <_Z4Fan2PfS_S_iii+0x15c>
1800003d8: 6f 00 40 00 	j	0x1800003dc <_Z4Fan2PfS_S_iii+0xb4>
1800003dc: 83 2a 03 00 	lw	s5, 0x0(t1)
1800003e0: bb 8a 53 03 	mulw	s5, t2, s5
1800003e4: bb 8a 3a 01 	addw	s5, s5, s3
1800003e8: 9b 09 0e 00 	sext.w	s3, t3
1800003ec: 33 bb 3a 01 	sltu	s6, s5, s3
1800003f0: 8b 29 1b 00 	vx_split_n	s3, s6
1800003f4: 63 04 0b 08 	beqz	s6, 0x18000047c <_Z4Fan2PfS_S_iii+0x154>
1800003f8: 6f 00 40 00 	j	0x1800003fc <_Z4Fan2PfS_S_iii+0xd4>
1800003fc: 3b 8a 4e 01 	addw	s4, t4, s4
180000400: 3b 0b da 02 	mulw	s6, s4, a3
180000404: bb 0b fb 00 	addw	s7, s6, a5
180000408: 93 9b 2b 00 	slli	s7, s7, 0x2
18000040c: b3 0b 75 01 	add	s7, a0, s7
180000410: 87 a7 0b 00 	flw	fa5, 0x0(s7)
180000414: bb 8b fa 00 	addw	s7, s5, a5
180000418: 9b 8a 0a 00 	sext.w	s5, s5
18000041c: 3b 8c eb 01 	addw	s8, s7, t5
180000420: 13 1c 2c 00 	slli	s8, s8, 0x2
180000424: 33 8c 85 01 	add	s8, a1, s8
180000428: 07 27 0c 00 	flw	fa4, 0x0(s8)
18000042c: 3b 8b 6b 01 	addw	s6, s7, s6
180000430: 13 1b 2b 00 	slli	s6, s6, 0x2
180000434: 33 8b 65 01 	add	s6, a1, s6
180000438: 87 26 0b 00 	flw	fa3, 0x0(s6)
18000043c: 4b f7 e7 68 	fnmsub.s	fa4, fa5, fa4, fa3
180000440: 27 20 eb 00 	fsw	fa4, 0x0(s6)
180000444: 13 bb 1a 00 	seqz	s6, s5
180000448: 8b 2a 1b 00 	vx_split_n	s5, s6
18000044c: 63 04 0b 02 	beqz	s6, 0x180000474 <_Z4Fan2PfS_S_iii+0x14c>
180000450: 6f 00 40 00 	j	0x180000454 <_Z4Fan2PfS_S_iii+0x12c>
180000454: 07 a7 0f 00 	flw	fa4, 0x0(t6)
180000458: 1b 0a 0a 00 	sext.w	s4, s4
18000045c: 13 1a 2a 00 	slli	s4, s4, 0x2
180000460: 33 0a 46 01 	add	s4, a2, s4
180000464: 87 26 0a 00 	flw	fa3, 0x0(s4)
180000468: cb f7 e7 68 	fnmsub.s	fa5, fa5, fa4, fa3
18000046c: 27 20 fa 00 	fsw	fa5, 0x0(s4)
180000470: 6f 00 40 00 	j	0x180000474 <_Z4Fan2PfS_S_iii+0x14c>
180000474: 0b b0 0a 00 	vx_join	s5
180000478: 6f 00 40 00 	j	0x18000047c <_Z4Fan2PfS_S_iii+0x154>
18000047c: 0b b0 09 00 	vx_join	s3
180000480: 6f 00 40 00 	j	0x180000484 <_Z4Fan2PfS_S_iii+0x15c>
180000484: 0b 30 09 00 	vx_join	s2
180000488: 6f 00 40 00 	j	0x18000048c <_Z4Fan2PfS_S_iii+0x164>
18000048c: 9b 84 14 00 	addiw	s1, s1, 0x1
180000490: 1b 09 07 00 	sext.w	s2, a4
180000494: e3 92 24 f3 	bne	s1, s2, 0x1800003b8 <_Z4Fan2PfS_S_iii+0x90>
180000498: 6f 00 40 00 	j	0x18000049c <_Z4Fan2PfS_S_iii+0x174>
18000049c: 6f 00 40 00 	j	0x1800004a0 <_Z4Fan2PfS_S_iii+0x178>
1800004a0: 83 30 81 04 	ld	ra, 0x48(sp)
1800004a4: 03 34 01 04 	ld	s0, 0x40(sp)
1800004a8: 83 34 81 03 	ld	s1, 0x38(sp)
1800004ac: 03 39 01 03 	ld	s2, 0x30(sp)
1800004b0: 83 39 81 02 	ld	s3, 0x28(sp)
1800004b4: 03 3a 01 02 	ld	s4, 0x20(sp)
1800004b8: 83 3a 81 01 	ld	s5, 0x18(sp)
1800004bc: 03 3b 01 01 	ld	s6, 0x10(sp)
1800004c0: 83 3b 81 00 	ld	s7, 0x8(sp)
1800004c4: 03 3c 01 00 	ld	s8, 0x0(sp)
1800004c8: 13 01 01 05 	addi	sp, sp, 0x50
1800004cc: 67 80 00 00 	ret

00000001800004d0 <Fan1PfS_ii_wrapper>:
1800004d0: 03 37 05 00 	ld	a4, 0x0(a0)
1800004d4: 83 35 85 00 	ld	a1, 0x8(a0)
1800004d8: 83 26 85 01 	lw	a3, 0x18(a0)
1800004dc: 03 26 05 01 	lw	a2, 0x10(a0)
1800004e0: 13 05 07 00 	mv	a0, a4
1800004e4: 6f f0 9f d6 	j	0x18000024c <_Z4Fan1PfS_ii>

00000001800004e8 <Fan2PfS_S_iii_wrapper>:
1800004e8: 03 37 05 00 	ld	a4, 0x0(a0)
1800004ec: 83 35 85 00 	ld	a1, 0x8(a0)
1800004f0: 03 36 05 01 	ld	a2, 0x10(a0)
1800004f4: 83 27 85 02 	lw	a5, 0x28(a0)
1800004f8: 83 26 85 01 	lw	a3, 0x18(a0)
1800004fc: 13 05 07 00 	mv	a0, a4
180000500: 6f f0 9f e2 	j	0x180000328 <_Z4Fan2PfS_S_iii>

0000000180000504 <_Exit>:
180000504: ef 00 90 2a 	jal	0x180000fac <vx_perf_dump>
180000508: 93 02 80 08 	li	t0, 0x88
18000050c: 23 a0 a2 00 	sw	a0, 0x0(t0)
180000510: 0f 00 f0 0f 	fence
180000514: 0b 00 00 00 	vx_tmc	zero

0000000180000518 <init_regs>:
180000518: 97 41 00 00 	auipc	gp, 0x4
18000051c: 93 81 81 59 	addi	gp, gp, 0x598
180000520: 93 02 10 00 	li	t0, 0x1
180000524: 93 92 02 02 	slli	t0, t0, 0x20
180000528: 37 01 01 00 	lui	sp, 0x10
18000052c: 1b 01 f1 ff 	addiw	sp, sp, -0x1
180000530: 13 11 01 01 	slli	sp, sp, 0x10
180000534: 33 61 51 00 	or	sp, sp, t0
180000538: f3 22 40 f1 	csrr	t0, mhartid
18000053c: 13 93 d2 00 	slli	t1, t0, 0xd
180000540: 33 01 61 40 	sub	sp, sp, t1
180000544: 13 03 00 04 	li	t1, 0x40
180000548: b3 82 62 02 	mul	t0, t0, t1
18000054c: 17 42 00 00 	auipc	tp, 0x4
180000550: 13 02 c2 e8 	addi	tp, tp, -0x174
180000554: 33 02 52 00 	add	tp, tp, t0
180000558: 67 80 00 00 	ret

000000018000055c <init_regs_all>:
18000055c: 93 02 f0 ff 	li	t0, -0x1
180000560: 0b 80 02 00 	vx_tmc	t0
180000564: ef f0 5f fb 	jal	0x180000518 <init_regs>
180000568: 0b 00 00 00 	vx_tmc	zero
18000056c: 67 80 00 00 	ret

0000000180000570 <init_tls_all>:
180000570: 93 02 f0 ff 	li	t0, -0x1
180000574: 0b 80 02 00 	vx_tmc	t0
180000578: ef 00 c0 00 	jal	0x180000584 <__init_tls>
18000057c: 0b 00 00 00 	vx_tmc	zero
180000580: 67 80 00 00 	ret

0000000180000584 <__init_tls>:
180000584: 13 01 01 ff 	addi	sp, sp, -0x10
180000588: 13 06 00 00 	li	a2, 0x0
18000058c: 97 45 00 00 	auipc	a1, 0x4
180000590: 93 85 45 d2 	addi	a1, a1, -0x2dc
180000594: 13 05 02 00 	mv	a0, tp
180000598: 23 30 81 00 	sd	s0, 0x0(sp)
18000059c: 23 34 11 00 	sd	ra, 0x8(sp)
1800005a0: 13 04 02 00 	mv	s0, tp
1800005a4: ef 20 00 32 	jal	0x1800028c4 <memcpy>
1800005a8: 13 05 00 00 	li	a0, 0x0
1800005ac: 33 05 a4 00 	add	a0, s0, a0
1800005b0: 03 34 01 00 	ld	s0, 0x0(sp)
1800005b4: 83 30 81 00 	ld	ra, 0x8(sp)
1800005b8: 13 06 00 04 	li	a2, 0x40
1800005bc: 93 05 00 00 	li	a1, 0x0
1800005c0: 13 01 01 01 	addi	sp, sp, 0x10
1800005c4: 6f 20 d0 04 	j	0x180002e10 <memset>

00000001800005c8 <__libc_init_array>:
1800005c8: 13 01 01 fe 	addi	sp, sp, -0x20
1800005cc: 23 38 81 00 	sd	s0, 0x10(sp)
1800005d0: 23 30 21 01 	sd	s2, 0x0(sp)
1800005d4: 97 47 00 00 	auipc	a5, 0x4
1800005d8: 93 87 c7 cd 	addi	a5, a5, -0x324
1800005dc: 17 44 00 00 	auipc	s0, 0x4
1800005e0: 13 04 44 cd 	addi	s0, s0, -0x32c
1800005e4: 23 3c 11 00 	sd	ra, 0x18(sp)
1800005e8: 23 34 91 00 	sd	s1, 0x8(sp)
1800005ec: 33 89 87 40 	sub	s2, a5, s0
1800005f0: 63 80 87 02 	beq	a5, s0, 0x180000610 <__libc_init_array+0x48>
1800005f4: 13 59 39 40 	srai	s2, s2, 0x3
1800005f8: 93 04 00 00 	li	s1, 0x0
1800005fc: 83 37 04 00 	ld	a5, 0x0(s0)
180000600: 93 84 14 00 	addi	s1, s1, 0x1
180000604: 13 04 84 00 	addi	s0, s0, 0x8
180000608: e7 80 07 00 	jalr	a5
18000060c: e3 e8 24 ff 	bltu	s1, s2, 0x1800005fc <__libc_init_array+0x34>
180000610: 97 47 00 00 	auipc	a5, 0x4
180000614: 93 87 07 ca 	addi	a5, a5, -0x360
180000618: 17 44 00 00 	auipc	s0, 0x4
18000061c: 13 04 84 c9 	addi	s0, s0, -0x368
180000620: 33 89 87 40 	sub	s2, a5, s0
180000624: 13 59 39 40 	srai	s2, s2, 0x3
180000628: 63 8e 87 00 	beq	a5, s0, 0x180000644 <__libc_init_array+0x7c>
18000062c: 93 04 00 00 	li	s1, 0x0
180000630: 83 37 04 00 	ld	a5, 0x0(s0)
180000634: 93 84 14 00 	addi	s1, s1, 0x1
180000638: 13 04 84 00 	addi	s0, s0, 0x8
18000063c: e7 80 07 00 	jalr	a5
180000640: e3 e8 24 ff 	bltu	s1, s2, 0x180000630 <__libc_init_array+0x68>
180000644: 83 30 81 01 	ld	ra, 0x18(sp)
180000648: 03 34 01 01 	ld	s0, 0x10(sp)
18000064c: 83 34 81 00 	ld	s1, 0x8(sp)
180000650: 03 39 01 00 	ld	s2, 0x0(sp)
180000654: 13 01 01 02 	addi	sp, sp, 0x20
180000658: 67 80 00 00 	ret

000000018000065c <__funcs_on_exit>:
18000065c: 13 01 01 fe 	addi	sp, sp, -0x20
180000660: 23 38 81 00 	sd	s0, 0x10(sp)
180000664: 97 47 00 00 	auipc	a5, 0x4
180000668: 93 87 c7 c4 	addi	a5, a5, -0x3b4
18000066c: 17 44 00 00 	auipc	s0, 0x4
180000670: 13 04 44 c4 	addi	s0, s0, -0x3bc
180000674: 33 04 f4 40 	sub	s0, s0, a5
180000678: 23 34 91 00 	sd	s1, 0x8(sp)
18000067c: 23 3c 11 00 	sd	ra, 0x18(sp)
180000680: 93 54 34 40 	srai	s1, s0, 0x3
180000684: 63 80 04 02 	beqz	s1, 0x1800006a4 <__funcs_on_exit+0x48>
180000688: 13 04 84 ff 	addi	s0, s0, -0x8
18000068c: 33 04 f4 00 	add	s0, s0, a5
180000690: 83 37 04 00 	ld	a5, 0x0(s0)
180000694: 93 84 f4 ff 	addi	s1, s1, -0x1
180000698: 13 04 84 ff 	addi	s0, s0, -0x8
18000069c: e7 80 07 00 	jalr	a5
1800006a0: e3 98 04 fe 	bnez	s1, 0x180000690 <__funcs_on_exit+0x34>
1800006a4: 83 30 81 01 	ld	ra, 0x18(sp)
1800006a8: 03 34 01 01 	ld	s0, 0x10(sp)
1800006ac: 83 34 81 00 	ld	s1, 0x8(sp)
1800006b0: 13 01 01 02 	addi	sp, sp, 0x20
1800006b4: 67 80 00 00 	ret

00000001800006b8 <vx_putchar>:
1800006b8: f3 22 40 f1 	csrr	t0, mhartid
1800006bc: 93 f2 f2 03 	andi	t0, t0, 0x3f
1800006c0: 13 03 00 04 	li	t1, 0x40
1800006c4: b3 82 62 00 	add	t0, t0, t1
1800006c8: 23 80 a2 00 	sb	a0, 0x0(t0)
1800006cc: 67 80 00 00 	ret

00000001800006d0 <__vprintf_cb>:
1800006d0: 83 37 85 00 	ld	a5, 0x8(a0)
1800006d4: 13 01 01 ff 	addi	sp, sp, -0x10
1800006d8: 23 30 81 00 	sd	s0, 0x0(sp)
1800006dc: 83 b5 07 00 	ld	a1, 0x0(a5)
1800006e0: 13 04 05 00 	mv	s0, a0
1800006e4: 03 35 05 00 	ld	a0, 0x0(a0)
1800006e8: 23 34 11 00 	sd	ra, 0x8(sp)
1800006ec: ef 20 00 14 	jal	0x18000282c <tiny_vprintf>
1800006f0: 83 30 81 00 	ld	ra, 0x8(sp)
1800006f4: 23 28 a4 00 	sw	a0, 0x10(s0)
1800006f8: 03 34 01 00 	ld	s0, 0x0(sp)
1800006fc: 13 01 01 01 	addi	sp, sp, 0x10
180000700: 67 80 00 00 	ret

0000000180000704 <vx_printf>:
180000704: 13 01 01 f8 	addi	sp, sp, -0x80
180000708: 23 34 f1 06 	sd	a5, 0x68(sp)
18000070c: 93 07 81 04 	addi	a5, sp, 0x48
180000710: 13 03 05 00 	mv	t1, a0
180000714: 23 34 b1 04 	sd	a1, 0x48(sp)
180000718: 23 34 f1 00 	sd	a5, 0x8(sp)
18000071c: 23 38 f1 00 	sd	a5, 0x10(sp)
180000720: 17 05 00 00 	auipc	a0, 0x0
180000724: 13 05 05 fb 	addi	a0, a0, -0x50
180000728: 93 07 01 01 	addi	a5, sp, 0x10
18000072c: 93 05 81 01 	addi	a1, sp, 0x18
180000730: 23 3c 11 02 	sd	ra, 0x38(sp)
180000734: 23 38 c1 04 	sd	a2, 0x50(sp)
180000738: 23 3c d1 04 	sd	a3, 0x58(sp)
18000073c: 23 30 e1 06 	sd	a4, 0x60(sp)
180000740: 23 38 01 07 	sd	a6, 0x70(sp)
180000744: 23 3c 11 07 	sd	a7, 0x78(sp)
180000748: 23 3c 61 00 	sd	t1, 0x18(sp)
18000074c: 23 30 f1 02 	sd	a5, 0x20(sp)
180000750: ef 00 00 7e 	jal	0x180000f30 <vx_serial>
180000754: 83 30 81 03 	ld	ra, 0x38(sp)
180000758: 03 25 81 02 	lw	a0, 0x28(sp)
18000075c: 13 01 01 08 	addi	sp, sp, 0x80
180000760: 67 80 00 00 	ret

0000000180000764 <process_threads>:
180000764: 13 01 01 fa 	addi	sp, sp, -0x60
180000768: 23 3c 11 04 	sd	ra, 0x58(sp)
18000076c: 23 38 81 04 	sd	s0, 0x50(sp)
180000770: 23 34 91 04 	sd	s1, 0x48(sp)
180000774: 23 30 21 05 	sd	s2, 0x40(sp)
180000778: 23 3c 31 03 	sd	s3, 0x38(sp)
18000077c: 23 38 41 03 	sd	s4, 0x30(sp)
180000780: 23 34 51 03 	sd	s5, 0x28(sp)
180000784: 23 30 61 03 	sd	s6, 0x20(sp)
180000788: 23 3c 71 01 	sd	s7, 0x18(sp)
18000078c: 23 38 81 01 	sd	s8, 0x10(sp)
180000790: 23 34 91 01 	sd	s9, 0x8(sp)
180000794: 23 30 a1 01 	sd	s10, 0x0(sp)
180000798: f3 26 00 34 	csrr	a3, mscratch
18000079c: f3 25 00 fc 	csrr	a1, nt
1800007a0: 9b 8a 05 00 	sext.w	s5, a1
1800007a4: f3 27 10 cc 	csrr	a5, wid
1800007a8: 1b 87 07 00 	sext.w	a4, a5
1800007ac: 73 26 00 cc 	csrr	a2, tid
1800007b0: 03 a8 86 01 	lw	a6, 0x18(a3)
1800007b4: 03 a5 c6 01 	lw	a0, 0x1c(a3)
1800007b8: 93 88 07 00 	mv	a7, a5
1800007bc: bb 87 07 03 	mulw	a5, a5, a6
1800007c0: 63 74 e5 00 	bgeu	a0, a4, 0x1800007c8 <process_threads+0x64>
1800007c4: 93 08 05 00 	mv	a7, a0
1800007c8: b3 34 a7 00 	sltu	s1, a4, a0
1800007cc: bb 87 17 01 	addw	a5, a5, a7
1800007d0: bb 84 04 01 	addw	s1, s1, a6
1800007d4: 03 a7 06 01 	lw	a4, 0x10(a3)
1800007d8: 17 45 00 00 	auipc	a0, 0x4
1800007dc: 13 05 05 bf 	addi	a0, a0, -0x410
1800007e0: 03 2d 05 00 	lw	s10, 0x0(a0)
1800007e4: 3b 07 e6 00 	addw	a4, a2, a4
1800007e8: bb 87 b7 02 	mulw	a5, a5, a1
1800007ec: 03 2a 45 00 	lw	s4, 0x4(a0)
1800007f0: 03 bb 06 00 	ld	s6, 0x0(a3)
1800007f4: 83 bb 86 00 	ld	s7, 0x8(a3)
1800007f8: bb 84 b4 02 	mulw	s1, s1, a1
1800007fc: 3b 84 e7 00 	addw	s0, a5, a4
180000800: bb 84 84 00 	addw	s1, s1, s0
180000804: 63 74 94 04 	bgeu	s0, s1, 0x18000084c <process_threads+0xe8>
180000808: bb 0c 4d 03 	mulw	s9, s10, s4
18000080c: 93 09 f0 ff 	li	s3, -0x1
180000810: 93 d9 09 02 	srli	s3, s3, 0x20
180000814: 13 0c 02 03 	addi	s8, tp, 0x30
180000818: 13 85 0b 00 	mv	a0, s7
18000081c: 3b 57 a4 03 	divuw	a4, s0, s10
180000820: bb 77 a4 03 	remuw	a5, s0, s10
180000824: 3b 77 47 03 	remuw	a4, a4, s4
180000828: b3 f7 f9 00 	and	a5, s3, a5
18000082c: bb 56 94 03 	divuw	a3, s0, s9
180000830: 13 17 07 02 	slli	a4, a4, 0x20
180000834: b3 e7 e7 00 	or	a5, a5, a4
180000838: 3b 84 8a 00 	addw	s0, s5, s0
18000083c: 23 38 f2 02 	sd	a5, 0x30(tp)
180000840: 23 24 dc 00 	sw	a3, 0x8(s8)
180000844: e7 00 0b 00 	jalr	s6
180000848: e3 68 94 fc 	bltu	s0, s1, 0x180000818 <process_threads+0xb4>
18000084c: 83 30 81 05 	ld	ra, 0x58(sp)
180000850: 03 34 01 05 	ld	s0, 0x50(sp)
180000854: 83 34 81 04 	ld	s1, 0x48(sp)
180000858: 03 39 01 04 	ld	s2, 0x40(sp)
18000085c: 83 39 81 03 	ld	s3, 0x38(sp)
180000860: 03 3a 01 03 	ld	s4, 0x30(sp)
180000864: 83 3a 81 02 	ld	s5, 0x28(sp)
180000868: 03 3b 01 02 	ld	s6, 0x20(sp)
18000086c: 83 3b 81 01 	ld	s7, 0x18(sp)
180000870: 03 3c 01 01 	ld	s8, 0x10(sp)
180000874: 83 3c 81 00 	ld	s9, 0x8(sp)
180000878: 03 3d 01 00 	ld	s10, 0x0(sp)
18000087c: 13 01 01 06 	addi	sp, sp, 0x60
180000880: 67 80 00 00 	ret

0000000180000884 <process_remaining_threads>:
180000884: f3 25 00 34 	csrr	a1, mscratch
180000888: 73 27 00 cc 	csrr	a4, tid
18000088c: 97 46 00 00 	auipc	a3, 0x4
180000890: 93 86 c6 b3 	addi	a3, a3, -0x4c4
180000894: 03 a6 45 01 	lw	a2, 0x14(a1)
180000898: 83 a7 06 00 	lw	a5, 0x0(a3)
18000089c: 03 a8 46 00 	lw	a6, 0x4(a3)
1800008a0: 3b 07 c7 00 	addw	a4, a4, a2
1800008a4: bb 56 f7 02 	divuw	a3, a4, a5
1800008a8: 83 b8 05 00 	ld	a7, 0x0(a1)
1800008ac: 03 b5 85 00 	ld	a0, 0x8(a1)
1800008b0: 93 05 02 03 	addi	a1, tp, 0x30
1800008b4: 3b 83 07 03 	mulw	t1, a5, a6
1800008b8: bb 77 f7 02 	remuw	a5, a4, a5
1800008bc: bb f6 06 03 	remuw	a3, a3, a6
1800008c0: 93 97 07 02 	slli	a5, a5, 0x20
1800008c4: 93 d7 07 02 	srli	a5, a5, 0x20
1800008c8: 3b 57 67 02 	divuw	a4, a4, t1
1800008cc: 93 96 06 02 	slli	a3, a3, 0x20
1800008d0: b3 e7 d7 00 	or	a5, a5, a3
1800008d4: 23 38 f2 02 	sd	a5, 0x30(tp)
1800008d8: 23 a4 e5 00 	sw	a4, 0x8(a1)
1800008dc: 67 80 08 00 	jr	a7

00000001800008e0 <process_threads_stub>:
1800008e0: 13 01 01 ff 	addi	sp, sp, -0x10
1800008e4: 23 34 11 00 	sd	ra, 0x8(sp)
1800008e8: 93 07 f0 ff 	li	a5, -0x1
1800008ec: 0b 80 07 00 	vx_tmc	a5
1800008f0: ef f0 5f e7 	jal	0x180000764 <process_threads>
1800008f4: 0b 00 00 00 	vx_tmc	zero
1800008f8: 83 30 81 00 	ld	ra, 0x8(sp)
1800008fc: 13 01 01 01 	addi	sp, sp, 0x10
180000900: 67 80 00 00 	ret

0000000180000904 <process_thread_groups>:
180000904: 13 01 01 fa 	addi	sp, sp, -0x60
180000908: 23 3c 11 04 	sd	ra, 0x58(sp)
18000090c: 23 38 81 04 	sd	s0, 0x50(sp)
180000910: 23 34 91 04 	sd	s1, 0x48(sp)
180000914: 23 30 21 05 	sd	s2, 0x40(sp)
180000918: 23 3c 31 03 	sd	s3, 0x38(sp)
18000091c: 23 38 41 03 	sd	s4, 0x30(sp)
180000920: 23 34 51 03 	sd	s5, 0x28(sp)
180000924: 23 30 61 03 	sd	s6, 0x20(sp)
180000928: 23 3c 71 01 	sd	s7, 0x18(sp)
18000092c: 23 38 81 01 	sd	s8, 0x10(sp)
180000930: 23 34 91 01 	sd	s9, 0x8(sp)
180000934: 23 30 a1 01 	sd	s10, 0x0(sp)
180000938: f3 26 00 34 	csrr	a3, mscratch
18000093c: 73 2f 00 fc 	csrr	t5, nt
180000940: 73 26 10 cc 	csrr	a2, wid
180000944: 1b 05 06 00 	sext.w	a0, a2
180000948: f3 2e 00 cc 	csrr	t4, tid
18000094c: 03 a3 c6 01 	lw	t1, 0x1c(a3)
180000950: 97 45 00 00 	auipc	a1, 0x4
180000954: 93 85 85 a6 	addi	a1, a1, -0x598
180000958: 83 a4 86 01 	lw	s1, 0x18(a3)
18000095c: bb 77 66 02 	remuw	a5, a2, t1
180000960: 03 a7 05 00 	lw	a4, 0x0(a1)
180000964: 03 ae 45 00 	lw	t3, 0x4(a1)
180000968: 83 a5 46 01 	lw	a1, 0x14(a3)
18000096c: b3 34 95 00 	sltu	s1, a0, s1
180000970: 83 bb 06 00 	ld	s7, 0x0(a3)
180000974: 03 aa 06 02 	lw	s4, 0x20(a3)
180000978: 03 bc 86 00 	ld	s8, 0x8(a3)
18000097c: bb 84 b4 00 	addw	s1, s1, a1
180000980: 83 a5 06 01 	lw	a1, 0x10(a3)
180000984: 13 09 f0 ff 	li	s2, -0x1
180000988: 17 48 00 00 	auipc	a6, 0x4
18000098c: 13 08 08 a4 	addi	a6, a6, -0x5c0
180000990: 13 59 09 02 	srli	s2, s2, 0x20
180000994: 03 2d 08 00 	lw	s10, 0x0(a6)
180000998: 83 2a 48 00 	lw	s5, 0x4(a6)
18000099c: 13 08 02 02 	addi	a6, tp, 0x20
1800009a0: bb 87 e7 03 	mulw	a5, a5, t5
1800009a4: bb 87 d7 01 	addw	a5, a5, t4
1800009a8: bb d6 e7 02 	divuw	a3, a5, a4
1800009ac: bb 0e c7 03 	mulw	t4, a4, t3
1800009b0: bb f6 c6 03 	remuw	a3, a3, t3
1800009b4: 3b f7 e7 02 	remuw	a4, a5, a4
1800009b8: 93 96 06 02 	slli	a3, a3, 0x20
1800009bc: 3b 56 66 02 	divuw	a2, a2, t1
1800009c0: 33 77 e9 00 	and	a4, s2, a4
1800009c4: 33 67 d7 00 	or	a4, a4, a3
1800009c8: 23 30 e2 02 	sd	a4, 0x20(tp)
1800009cc: bb d7 d7 03 	divuw	a5, a5, t4
1800009d0: 3b 04 b6 00 	addw	s0, a2, a1
1800009d4: 23 2c c2 00 	sw	a2, 0x18(tp)
1800009d8: bb 04 9a 02 	mulw	s1, s4, s1
1800009dc: 23 24 f8 00 	sw	a5, 0x8(a6)
1800009e0: bb 84 84 00 	addw	s1, s1, s0
1800009e4: 3b 0b 5d 03 	mulw	s6, s10, s5
1800009e8: 63 7e 94 02 	bgeu	s0, s1, 0x180000a24 <process_thread_groups+0x120>
1800009ec: 93 0c 02 03 	addi	s9, tp, 0x30
1800009f0: 13 05 0c 00 	mv	a0, s8
1800009f4: 3b 57 a4 03 	divuw	a4, s0, s10
1800009f8: bb 77 a4 03 	remuw	a5, s0, s10
1800009fc: 3b 77 57 03 	remuw	a4, a4, s5
180000a00: b3 77 f9 00 	and	a5, s2, a5
180000a04: bb 56 64 03 	divuw	a3, s0, s6
180000a08: 13 17 07 02 	slli	a4, a4, 0x20
180000a0c: b3 e7 e7 00 	or	a5, a5, a4
180000a10: 3b 04 8a 00 	addw	s0, s4, s0
180000a14: 23 38 f2 02 	sd	a5, 0x30(tp)
180000a18: 23 a4 dc 00 	sw	a3, 0x8(s9)
180000a1c: e7 80 0b 00 	jalr	s7
180000a20: e3 68 94 fc 	bltu	s0, s1, 0x1800009f0 <process_thread_groups+0xec>
180000a24: 83 30 81 05 	ld	ra, 0x58(sp)
180000a28: 03 34 01 05 	ld	s0, 0x50(sp)
180000a2c: 83 34 81 04 	ld	s1, 0x48(sp)
180000a30: 03 39 01 04 	ld	s2, 0x40(sp)
180000a34: 83 39 81 03 	ld	s3, 0x38(sp)
180000a38: 03 3a 01 03 	ld	s4, 0x30(sp)
180000a3c: 83 3a 81 02 	ld	s5, 0x28(sp)
180000a40: 03 3b 01 02 	ld	s6, 0x20(sp)
180000a44: 83 3b 81 01 	ld	s7, 0x18(sp)
180000a48: 03 3c 01 01 	ld	s8, 0x10(sp)
180000a4c: 83 3c 81 00 	ld	s9, 0x8(sp)
180000a50: 03 3d 01 00 	ld	s10, 0x0(sp)
180000a54: 13 01 01 06 	addi	sp, sp, 0x60
180000a58: 67 80 00 00 	ret

0000000180000a5c <process_thread_groups_stub>:
180000a5c: 13 01 01 ff 	addi	sp, sp, -0x10
180000a60: 23 34 11 00 	sd	ra, 0x8(sp)
180000a64: 73 27 00 34 	csrr	a4, mscratch
180000a68: 83 27 c7 01 	lw	a5, 0x1c(a4)
180000a6c: 03 26 47 02 	lw	a2, 0x24(a4)
180000a70: 73 27 10 cc 	csrr	a4, wid
180000a74: 3b 77 f7 02 	remuw	a4, a4, a5
180000a78: 9b 87 f7 ff 	addiw	a5, a5, -0x1
180000a7c: 9b 06 06 00 	sext.w	a3, a2
180000a80: 63 84 e7 00 	beq	a5, a4, 0x180000a88 <process_thread_groups_stub+0x2c>
180000a84: 93 06 f0 ff 	li	a3, -0x1
180000a88: 0b 80 06 00 	vx_tmc	a3
180000a8c: ef f0 9f e7 	jal	0x180000904 <process_thread_groups>
180000a90: f3 27 10 cc 	csrr	a5, wid
180000a94: 9b 87 07 00 	sext.w	a5, a5
180000a98: 93 b7 17 00 	seqz	a5, a5
180000a9c: 0b 80 07 00 	vx_tmc	a5
180000aa0: 83 30 81 00 	ld	ra, 0x8(sp)
180000aa4: 13 01 01 01 	addi	sp, sp, 0x10
180000aa8: 67 80 00 00 	ret

0000000180000aac <vx_spawn_threads>:
180000aac: 13 01 01 fc 	addi	sp, sp, -0x40
180000ab0: 23 3c 11 02 	sd	ra, 0x38(sp)
180000ab4: 23 38 81 02 	sd	s0, 0x30(sp)
180000ab8: 63 80 05 2a 	beqz	a1, 0x180000d58 <vx_spawn_threads+0x2ac>
180000abc: 63 0c 06 16 	beqz	a2, 0x180000c34 <vx_spawn_threads+0x188>
180000ac0: 63 14 05 2e 	bnez	a0, 0x180000da8 <vx_spawn_threads+0x2fc>
180000ac4: 93 07 10 00 	li	a5, 0x1
180000ac8: 17 43 00 00 	auipc	t1, 0x4
180000acc: 13 03 03 90 	addi	t1, t1, -0x700
180000ad0: 97 48 00 00 	auipc	a7, 0x4
180000ad4: 93 88 88 8e 	addi	a7, a7, -0x718
180000ad8: 23 20 f3 00 	sw	a5, 0x0(t1)
180000adc: 23 a0 f8 00 	sw	a5, 0x0(a7)
180000ae0: 13 08 10 00 	li	a6, 0x1
180000ae4: 13 06 10 00 	li	a2, 0x1
180000ae8: 23 22 c3 00 	sw	a2, 0x4(t1)
180000aec: 23 a2 c8 00 	sw	a2, 0x4(a7)
180000af0: 93 05 10 00 	li	a1, 0x1
180000af4: 13 05 10 00 	li	a0, 0x1
180000af8: 23 24 b3 00 	sw	a1, 0x8(t1)
180000afc: 23 a4 a8 00 	sw	a0, 0x8(a7)
180000b00: f3 2f 20 fc 	csrr	t6, nw
180000b04: f3 25 10 fc 	csrr	a1, nw
180000b08: 9b 8e 05 00 	sext.w	t4, a1
180000b0c: 73 25 00 fc 	csrr	a0, nt
180000b10: 73 2e 20 cc 	csrr	t3, cid
180000b14: 3b 86 a5 02 	mulw	a2, a1, a0
180000b18: 9b 08 0e 00 	sext.w	a7, t3
180000b1c: 13 03 06 00 	mv	t1, a2
180000b20: 63 68 f6 3e 	bltu	a2, a5, 0x180000f10 <vx_spawn_threads+0x464>
180000b24: 13 06 10 00 	li	a2, 0x1
180000b28: 63 7c f6 14 	bgeu	a2, a5, 0x180000c80 <vx_spawn_threads+0x1d4>
180000b2c: 3b f6 a7 02 	remuw	a2, a5, a0
180000b30: 13 03 f0 ff 	li	t1, -0x1
180000b34: 3b d5 a7 02 	divuw	a0, a5, a0
180000b38: 63 0a 06 00 	beqz	a2, 0x180000b4c <vx_spawn_threads+0xa0>
180000b3c: 13 03 10 00 	li	t1, 0x1
180000b40: 3b 13 c3 00 	sllw	t1, t1, a2
180000b44: 1b 03 f3 ff 	addiw	t1, t1, -0x1
180000b48: 1b 05 15 00 	addiw	a0, a0, 0x1
180000b4c: 1b 8f f5 ff 	addiw	t5, a1, -0x1
180000b50: 1b 86 0f 00 	sext.w	a2, t6
180000b54: bb 07 05 03 	mulw	a5, a0, a6
180000b58: bb 87 e7 01 	addw	a5, a5, t5
180000b5c: 3b df b7 02 	divuw	t5, a5, a1
180000b60: 93 07 0f 00 	mv	a5, t5
180000b64: 63 74 e6 01 	bgeu	a2, t5, 0x180000b6c <vx_spawn_threads+0xc0>
180000b68: 93 87 0f 00 	mv	a5, t6
180000b6c: 1b 86 07 00 	sext.w	a2, a5
180000b70: 63 f8 c8 0a 	bgeu	a7, a2, 0x180000c20 <vx_spawn_threads+0x174>
180000b74: bb 72 f8 02 	remuw	t0, a6, a5
180000b78: 3b 56 f8 02 	divuw	a2, a6, a5
180000b7c: 13 8f 02 00 	mv	t5, t0
180000b80: 63 f4 58 00 	bgeu	a7, t0, 0x180000b88 <vx_spawn_threads+0xdc>
180000b84: 1b 06 16 00 	addiw	a2, a2, 0x1
180000b88: 13 13 03 02 	slli	t1, t1, 0x20
180000b8c: bb d5 a5 02 	divuw	a1, a1, a0
180000b90: bb 0f c5 02 	mulw	t6, a0, a2
180000b94: 13 98 05 02 	slli	a6, a1, 0x20
180000b98: 13 58 08 02 	srli	a6, a6, 0x20
180000b9c: 33 68 68 00 	or	a6, a6, t1
180000ba0: 93 87 0f 00 	mv	a5, t6
180000ba4: 63 e0 fe 27 	bltu	t4, t6, 0x180000e04 <vx_spawn_threads+0x358>
180000ba8: 93 05 00 00 	li	a1, 0x0
180000bac: 13 03 10 00 	li	t1, 0x1
180000bb0: 23 34 d1 00 	sd	a3, 0x8(sp)
180000bb4: 23 38 e1 00 	sd	a4, 0x10(sp)
180000bb8: bb 07 c6 03 	mulw	a5, a2, t3
180000bbc: 63 f4 58 00 	bgeu	a7, t0, 0x180000bc4 <vx_spawn_threads+0x118>
180000bc0: 13 0f 0e 00 	mv	t5, t3
180000bc4: 13 07 f0 ff 	li	a4, -0x1
180000bc8: 13 57 07 02 	srli	a4, a4, 0x20
180000bcc: bb 87 e7 01 	addw	a5, a5, t5
180000bd0: 93 16 03 02 	slli	a3, t1, 0x20
180000bd4: b3 77 f7 00 	and	a5, a4, a5
180000bd8: 13 16 05 02 	slli	a2, a0, 0x20
180000bdc: 33 f7 e5 00 	and	a4, a1, a4
180000be0: b3 e7 d7 00 	or	a5, a5, a3
180000be4: 33 67 c7 00 	or	a4, a4, a2
180000be8: 23 3c f1 00 	sd	a5, 0x18(sp)
180000bec: 23 30 e1 02 	sd	a4, 0x20(sp)
180000bf0: 23 34 01 03 	sd	a6, 0x28(sp)
180000bf4: 93 07 81 00 	addi	a5, sp, 0x8
180000bf8: 73 90 07 34 	csrw	mscratch, a5
180000bfc: 97 37 00 00 	auipc	a5, 0x3
180000c00: 23 aa a7 7a 	sw	a0, 0x7b4(a5)
180000c04: 97 07 00 00 	auipc	a5, 0x0
180000c08: 93 87 87 e5 	addi	a5, a5, -0x1a8
180000c0c: 0b 90 ff 00 	vx_wspawn	t6, a5
180000c10: ef f0 df e4 	jal	0x180000a5c <process_thread_groups_stub>
180000c14: 93 07 10 00 	li	a5, 0x1
180000c18: 13 07 00 00 	li	a4, 0x0
180000c1c: 0b 90 e7 00 	vx_wspawn	a5, a4
180000c20: 13 05 00 00 	li	a0, 0x0
180000c24: 83 30 81 03 	ld	ra, 0x38(sp)
180000c28: 03 34 01 03 	ld	s0, 0x30(sp)
180000c2c: 13 01 01 04 	addi	sp, sp, 0x40
180000c30: 67 80 00 00 	ret
180000c34: 63 00 05 22 	beqz	a0, 0x180000e54 <vx_spawn_threads+0x3a8>
180000c38: 03 a8 05 00 	lw	a6, 0x0(a1)
180000c3c: 17 33 00 00 	auipc	t1, 0x3
180000c40: 13 03 c3 78 	addi	t1, t1, 0x78c
180000c44: 97 38 00 00 	auipc	a7, 0x3
180000c48: 93 88 48 77 	addi	a7, a7, 0x774
180000c4c: 93 07 10 00 	li	a5, 0x1
180000c50: 23 20 03 01 	sw	a6, 0x0(t1)
180000c54: 23 a0 f8 00 	sw	a5, 0x0(a7)
180000c58: 63 0e f5 20 	beq	a0, a5, 0x180000e74 <vx_spawn_threads+0x3c8>
180000c5c: 03 a6 45 00 	lw	a2, 0x4(a1)
180000c60: 13 0e 20 00 	li	t3, 0x2
180000c64: 23 a2 f8 00 	sw	a5, 0x4(a7)
180000c68: 23 22 c3 00 	sw	a2, 0x4(t1)
180000c6c: 3b 08 c8 02 	mulw	a6, a6, a2
180000c70: 63 06 c5 29 	beq	a0, t3, 0x180000efc <vx_spawn_threads+0x450>
180000c74: 83 a5 85 00 	lw	a1, 0x8(a1)
180000c78: 3b 08 b8 02 	mulw	a6, a6, a1
180000c7c: 6f 00 80 20 	j	0x180000e84 <vx_spawn_threads+0x3d8>
180000c80: 9b 07 f8 ff 	addiw	a5, a6, -0x1
180000c84: bb 87 67 00 	addw	a5, a5, t1
180000c88: bb d7 67 02 	divuw	a5, a5, t1
180000c8c: 13 0f 02 02 	addi	t5, tp, 0x20
180000c90: 23 2c 02 00 	sw	zero, 0x18(tp)
180000c94: 23 30 02 02 	sd	zero, 0x20(tp)
180000c98: 97 32 00 00 	auipc	t0, 0x3
180000c9c: 23 ac 02 70 	sw	zero, 0x718(t0)
180000ca0: 23 24 0f 00 	sw	zero, 0x8(t5)
180000ca4: 1b 86 0f 00 	sext.w	a2, t6
180000ca8: 1b 83 07 00 	sext.w	t1, a5
180000cac: 63 74 66 00 	bgeu	a2, t1, 0x180000cb4 <vx_spawn_threads+0x208>
180000cb0: 93 87 0f 00 	mv	a5, t6
180000cb4: 1b 86 07 00 	sext.w	a2, a5
180000cb8: e3 f4 c8 f6 	bgeu	a7, a2, 0x180000c20 <vx_spawn_threads+0x174>
180000cbc: bb 7f f8 02 	remuw	t6, a6, a5
180000cc0: bb 57 f8 02 	divuw	a5, a6, a5
180000cc4: 13 83 0f 00 	mv	t1, t6
180000cc8: 63 f4 f8 01 	bgeu	a7, t6, 0x180000cd0 <vx_spawn_threads+0x224>
180000ccc: 9b 87 17 00 	addiw	a5, a5, 0x1
180000cd0: 13 08 10 00 	li	a6, 0x1
180000cd4: 3b df a7 02 	divuw	t5, a5, a0
180000cd8: 3b f4 a7 02 	remuw	s0, a5, a0
180000cdc: 13 06 0f 00 	mv	a2, t5
180000ce0: 3b 05 e5 03 	mulw	a0, a0, t5
180000ce4: 63 f0 ee 03 	bgeu	t4, t5, 0x180000d04 <vx_spawn_threads+0x258>
180000ce8: 13 8f 0e 00 	mv	t5, t4
180000cec: 3b 58 b6 02 	divuw	a6, a2, a1
180000cf0: 3b 76 b6 02 	remuw	a2, a2, a1
180000cf4: 13 18 08 02 	slli	a6, a6, 0x20
180000cf8: 13 58 08 02 	srli	a6, a6, 0x20
180000cfc: 13 16 06 02 	slli	a2, a2, 0x20
180000d00: 33 68 c8 00 	or	a6, a6, a2
180000d04: bb 87 c7 03 	mulw	a5, a5, t3
180000d08: 63 e6 f8 11 	bltu	a7, t6, 0x180000e14 <vx_spawn_threads+0x368>
180000d0c: bb 87 67 00 	addw	a5, a5, t1
180000d10: 3b 05 f5 00 	addw	a0, a0, a5
180000d14: 23 2c f1 00 	sw	a5, 0x18(sp)
180000d18: 23 34 d1 00 	sd	a3, 0x8(sp)
180000d1c: 23 38 e1 00 	sd	a4, 0x10(sp)
180000d20: 23 2e a1 00 	sw	a0, 0x1c(sp)
180000d24: 23 30 01 03 	sd	a6, 0x20(sp)
180000d28: 93 07 81 00 	addi	a5, sp, 0x8
180000d2c: 73 90 07 34 	csrw	mscratch, a5
180000d30: 63 10 0f 16 	bnez	t5, 0x180000e90 <vx_spawn_threads+0x3e4>
180000d34: e3 00 04 ee 	beqz	s0, 0x180000c14 <vx_spawn_threads+0x168>
180000d38: 93 07 10 00 	li	a5, 0x1
180000d3c: bb 97 87 00 	sllw	a5, a5, s0
180000d40: 9b 87 f7 ff 	addiw	a5, a5, -0x1
180000d44: 0b 80 07 00 	vx_tmc	a5
180000d48: ef f0 df b3 	jal	0x180000884 <process_remaining_threads>
180000d4c: 13 05 10 00 	li	a0, 0x1
180000d50: 0b 00 05 00 	vx_tmc	a0
180000d54: 6f f0 1f ec 	j	0x180000c14 <vx_spawn_threads+0x168>
180000d58: 63 00 06 16 	beqz	a2, 0x180000eb8 <vx_spawn_threads+0x40c>
180000d5c: 63 00 05 0c 	beqz	a0, 0x180000e1c <vx_spawn_threads+0x370>
180000d60: 83 27 06 00 	lw	a5, 0x0(a2)
180000d64: 17 33 00 00 	auipc	t1, 0x3
180000d68: 13 03 43 66 	addi	t1, t1, 0x664
180000d6c: 93 05 10 00 	li	a1, 0x1
180000d70: 97 38 00 00 	auipc	a7, 0x3
180000d74: 93 88 88 64 	addi	a7, a7, 0x648
180000d78: 23 20 b3 00 	sw	a1, 0x0(t1)
180000d7c: 23 a0 f8 00 	sw	a5, 0x0(a7)
180000d80: 63 02 b5 18 	beq	a0, a1, 0x180000f04 <vx_spawn_threads+0x458>
180000d84: 03 28 46 00 	lw	a6, 0x4(a2)
180000d88: 13 0e 20 00 	li	t3, 0x2
180000d8c: 23 22 b3 00 	sw	a1, 0x4(t1)
180000d90: 23 a2 08 01 	sw	a6, 0x4(a7)
180000d94: bb 87 07 03 	mulw	a5, a5, a6
180000d98: 63 08 c5 19 	beq	a0, t3, 0x180000f28 <vx_spawn_threads+0x47c>
180000d9c: 03 25 86 00 	lw	a0, 0x8(a2)
180000da0: bb 87 a7 02 	mulw	a5, a5, a0
180000da4: 6f 00 40 0a 	j	0x180000e48 <vx_spawn_threads+0x39c>
180000da8: 03 a8 05 00 	lw	a6, 0x0(a1)
180000dac: 83 27 06 00 	lw	a5, 0x0(a2)
180000db0: 17 33 00 00 	auipc	t1, 0x3
180000db4: 13 03 83 61 	addi	t1, t1, 0x618
180000db8: 97 38 00 00 	auipc	a7, 0x3
180000dbc: 93 88 08 60 	addi	a7, a7, 0x600
180000dc0: 23 20 03 01 	sw	a6, 0x0(t1)
180000dc4: 23 a0 f8 00 	sw	a5, 0x0(a7)
180000dc8: 13 0e 10 00 	li	t3, 0x1
180000dcc: e3 0c c5 d1 	beq	a0, t3, 0x180000ae4 <vx_spawn_threads+0x38>
180000dd0: 83 ae 45 00 	lw	t4, 0x4(a1)
180000dd4: 03 2e 46 00 	lw	t3, 0x4(a2)
180000dd8: 93 0f 20 00 	li	t6, 0x2
180000ddc: 23 22 d3 01 	sw	t4, 0x4(t1)
180000de0: 23 a2 c8 01 	sw	t3, 0x4(a7)
180000de4: 3b 08 d8 03 	mulw	a6, a6, t4
180000de8: bb 87 c7 03 	mulw	a5, a5, t3
180000dec: 63 02 f5 11 	beq	a0, t6, 0x180000ef0 <vx_spawn_threads+0x444>
180000df0: 83 a5 85 00 	lw	a1, 0x8(a1)
180000df4: 03 25 86 00 	lw	a0, 0x8(a2)
180000df8: 3b 08 b8 02 	mulw	a6, a6, a1
180000dfc: bb 87 a7 02 	mulw	a5, a5, a0
180000e00: 6f f0 9f cf 	j	0x180000af8 <vx_spawn_threads+0x4c>
180000e04: bb 0f b5 02 	mulw	t6, a0, a1
180000e08: 3b d3 f7 03 	divuw	t1, a5, t6
180000e0c: bb f5 f7 03 	remuw	a1, a5, t6
180000e10: 6f f0 1f da 	j	0x180000bb0 <vx_spawn_threads+0x104>
180000e14: 13 03 0e 00 	mv	t1, t3
180000e18: 6f f0 5f ef 	j	0x180000d0c <vx_spawn_threads+0x260>
180000e1c: 93 07 10 00 	li	a5, 0x1
180000e20: 93 97 07 02 	slli	a5, a5, 0x20
180000e24: 93 87 17 00 	addi	a5, a5, 0x1
180000e28: 17 33 00 00 	auipc	t1, 0x3
180000e2c: 13 03 03 5a 	addi	t1, t1, 0x5a0
180000e30: 97 38 00 00 	auipc	a7, 0x3
180000e34: 93 88 88 58 	addi	a7, a7, 0x588
180000e38: 23 30 f3 00 	sd	a5, 0x0(t1)
180000e3c: 23 b0 f8 00 	sd	a5, 0x0(a7)
180000e40: 13 05 10 00 	li	a0, 0x1
180000e44: 93 07 10 00 	li	a5, 0x1
180000e48: 93 05 10 00 	li	a1, 0x1
180000e4c: 13 08 10 00 	li	a6, 0x1
180000e50: 6f f0 9f ca 	j	0x180000af8 <vx_spawn_threads+0x4c>
180000e54: 93 07 10 00 	li	a5, 0x1
180000e58: 17 33 00 00 	auipc	t1, 0x3
180000e5c: 13 03 03 57 	addi	t1, t1, 0x570
180000e60: 97 38 00 00 	auipc	a7, 0x3
180000e64: 93 88 88 55 	addi	a7, a7, 0x558
180000e68: 23 20 f3 00 	sw	a5, 0x0(t1)
180000e6c: 23 a0 f8 00 	sw	a5, 0x0(a7)
180000e70: 13 08 10 00 	li	a6, 0x1
180000e74: 93 07 10 00 	li	a5, 0x1
180000e78: 23 22 f3 00 	sw	a5, 0x4(t1)
180000e7c: 23 a2 f8 00 	sw	a5, 0x4(a7)
180000e80: 93 05 10 00 	li	a1, 0x1
180000e84: 13 05 10 00 	li	a0, 0x1
180000e88: 93 07 10 00 	li	a5, 0x1
180000e8c: 6f f0 df c6 	j	0x180000af8 <vx_spawn_threads+0x4c>
180000e90: 97 07 00 00 	auipc	a5, 0x0
180000e94: 93 87 07 a5 	addi	a5, a5, -0x5b0
180000e98: 0b 10 ff 00 	vx_wspawn	t5, a5
180000e9c: 93 07 f0 ff 	li	a5, -0x1
180000ea0: 0b 80 07 00 	vx_tmc	a5
180000ea4: ef f0 1f 8c 	jal	0x180000764 <process_threads>
180000ea8: 13 05 10 00 	li	a0, 0x1
180000eac: 0b 00 05 00 	vx_tmc	a0
180000eb0: e3 02 04 d6 	beqz	s0, 0x180000c14 <vx_spawn_threads+0x168>
180000eb4: 6f f0 5f e8 	j	0x180000d38 <vx_spawn_threads+0x28c>
180000eb8: 93 07 10 00 	li	a5, 0x1
180000ebc: 93 97 07 02 	slli	a5, a5, 0x20
180000ec0: 93 87 17 00 	addi	a5, a5, 0x1
180000ec4: 17 33 00 00 	auipc	t1, 0x3
180000ec8: 13 03 43 50 	addi	t1, t1, 0x504
180000ecc: 97 38 00 00 	auipc	a7, 0x3
180000ed0: 93 88 c8 4e 	addi	a7, a7, 0x4ec
180000ed4: 23 30 f3 00 	sd	a5, 0x0(t1)
180000ed8: 23 b0 f8 00 	sd	a5, 0x0(a7)
180000edc: 93 05 10 00 	li	a1, 0x1
180000ee0: 13 05 10 00 	li	a0, 0x1
180000ee4: 93 07 10 00 	li	a5, 0x1
180000ee8: 13 08 10 00 	li	a6, 0x1
180000eec: 6f f0 df c0 	j	0x180000af8 <vx_spawn_threads+0x4c>
180000ef0: 93 05 10 00 	li	a1, 0x1
180000ef4: 13 05 10 00 	li	a0, 0x1
180000ef8: 6f f0 1f c0 	j	0x180000af8 <vx_spawn_threads+0x4c>
180000efc: 93 05 10 00 	li	a1, 0x1
180000f00: 6f f0 5f f8 	j	0x180000e84 <vx_spawn_threads+0x3d8>
180000f04: 23 22 a3 00 	sw	a0, 0x4(t1)
180000f08: 23 a2 a8 00 	sw	a0, 0x4(a7)
180000f0c: 6f f0 df f3 	j	0x180000e48 <vx_spawn_threads+0x39c>
180000f10: 93 85 07 00 	mv	a1, a5
180000f14: 17 25 00 00 	auipc	a0, 0x2
180000f18: 13 05 c5 0f 	addi	a0, a0, 0xfc
180000f1c: ef f0 8f fe 	jal	0x180000704 <vx_printf>
180000f20: 13 05 f0 ff 	li	a0, -0x1
180000f24: 6f f0 1f d0 	j	0x180000c24 <vx_spawn_threads+0x178>
180000f28: 13 05 10 00 	li	a0, 0x1
180000f2c: 6f f0 df f1 	j	0x180000e48 <vx_spawn_threads+0x39c>

0000000180000f30 <vx_serial>:
180000f30: 13 01 81 fc 	addi	sp, sp, -0x38
180000f34: 23 38 11 02 	sd	ra, 0x30(sp)
180000f38: 23 34 51 03 	sd	s5, 0x28(sp)
180000f3c: 23 30 41 03 	sd	s4, 0x20(sp)
180000f40: 23 3c 31 01 	sd	s3, 0x18(sp)
180000f44: 23 38 21 01 	sd	s2, 0x10(sp)
180000f48: 23 34 91 00 	sd	s1, 0x8(sp)
180000f4c: 23 30 81 00 	sd	s0, 0x0(sp)
180000f50: 13 0a 05 00 	mv	s4, a0
180000f54: 93 89 05 00 	mv	s3, a1
180000f58: 73 29 00 fc 	csrr	s2, nt
180000f5c: f3 24 00 cc 	csrr	s1, tid
180000f60: 13 04 00 00 	li	s0, 0x0

0000000180000f64 <label_loop>:
180000f64: b3 02 94 40 	sub	t0, s0, s1
180000f68: 13 b3 12 00 	seqz	t1, t0
180000f6c: 8b 2a 03 00 	vx_split	s5, t1
180000f70: 63 96 02 00 	bnez	t0, 0x180000f7c <label_join>
180000f74: 13 85 09 00 	mv	a0, s3
180000f78: e7 00 0a 00 	jalr	s4

0000000180000f7c <label_join>:
180000f7c: 0b b0 0a 00 	vx_join	s5
180000f80: 13 04 14 00 	addi	s0, s0, 0x1
180000f84: e3 40 24 ff 	blt	s0, s2, 0x180000f64 <label_loop>
180000f88: 83 30 01 03 	ld	ra, 0x30(sp)
180000f8c: 83 3a 81 02 	ld	s5, 0x28(sp)
180000f90: 03 3a 01 02 	ld	s4, 0x20(sp)
180000f94: 83 39 81 01 	ld	s3, 0x18(sp)
180000f98: 03 39 01 01 	ld	s2, 0x10(sp)
180000f9c: 83 34 81 00 	ld	s1, 0x8(sp)
180000fa0: 03 34 01 00 	ld	s0, 0x0(sp)
180000fa4: 13 01 81 03 	addi	sp, sp, 0x38
180000fa8: 67 80 00 00 	ret

0000000180000fac <vx_perf_dump>:
180000fac: 73 27 20 cc 	csrr	a4, cid
180000fb0: 1b 07 07 00 	sext.w	a4, a4
180000fb4: 13 17 87 00 	slli	a4, a4, 0x8
180000fb8: 93 07 07 08 	addi	a5, a4, 0x80
180000fbc: f3 26 00 b0 	csrr	a3, mcycle
180000fc0: 23 30 d7 08 	sd	a3, 0x80(a4)
180000fc4: 73 27 20 b0 	csrr	a4, minstret
180000fc8: 23 b8 e7 00 	sd	a4, 0x10(a5)
180000fcc: 73 27 30 b0 	csrr	a4, mhpmcounter3
180000fd0: 23 bc e7 00 	sd	a4, 0x18(a5)
180000fd4: 73 27 40 b0 	csrr	a4, mhpmcounter4
180000fd8: 23 b0 e7 02 	sd	a4, 0x20(a5)
180000fdc: 73 27 50 b0 	csrr	a4, mhpmcounter5
180000fe0: 23 b4 e7 02 	sd	a4, 0x28(a5)
180000fe4: 73 27 60 b0 	csrr	a4, mhpmcounter6
180000fe8: 23 b8 e7 02 	sd	a4, 0x30(a5)
180000fec: 73 27 70 b0 	csrr	a4, mhpmcounter7
180000ff0: 23 bc e7 02 	sd	a4, 0x38(a5)
180000ff4: 73 27 80 b0 	csrr	a4, mhpmcounter8
180000ff8: 23 b0 e7 04 	sd	a4, 0x40(a5)
180000ffc: 73 27 90 b0 	csrr	a4, mhpmcounter9
180001000: 23 b4 e7 04 	sd	a4, 0x48(a5)
180001004: 73 27 a0 b0 	csrr	a4, mhpmcounter10
180001008: 23 b8 e7 04 	sd	a4, 0x50(a5)
18000100c: 73 27 b0 b0 	csrr	a4, mhpmcounter11
180001010: 23 bc e7 04 	sd	a4, 0x58(a5)
180001014: 73 27 c0 b0 	csrr	a4, mhpmcounter12
180001018: 23 b0 e7 06 	sd	a4, 0x60(a5)
18000101c: 73 27 d0 b0 	csrr	a4, mhpmcounter13
180001020: 23 b4 e7 06 	sd	a4, 0x68(a5)
180001024: 73 27 e0 b0 	csrr	a4, mhpmcounter14
180001028: 23 b8 e7 06 	sd	a4, 0x70(a5)
18000102c: 73 27 f0 b0 	csrr	a4, mhpmcounter15
180001030: 23 bc e7 06 	sd	a4, 0x78(a5)
180001034: 73 27 00 b1 	csrr	a4, mhpmcounter16
180001038: 23 b0 e7 08 	sd	a4, 0x80(a5)
18000103c: 73 27 10 b1 	csrr	a4, mhpmcounter17
180001040: 23 b4 e7 08 	sd	a4, 0x88(a5)
180001044: 73 27 20 b1 	csrr	a4, mhpmcounter18
180001048: 23 b8 e7 08 	sd	a4, 0x90(a5)
18000104c: 73 27 30 b1 	csrr	a4, mhpmcounter19
180001050: 23 bc e7 08 	sd	a4, 0x98(a5)
180001054: 73 27 40 b1 	csrr	a4, mhpmcounter20
180001058: 23 b0 e7 0a 	sd	a4, 0xa0(a5)
18000105c: 73 27 50 b1 	csrr	a4, mhpmcounter21
180001060: 23 b4 e7 0a 	sd	a4, 0xa8(a5)
180001064: 73 27 60 b1 	csrr	a4, mhpmcounter22
180001068: 23 b8 e7 0a 	sd	a4, 0xb0(a5)
18000106c: 73 27 70 b1 	csrr	a4, mhpmcounter23
180001070: 23 bc e7 0a 	sd	a4, 0xb8(a5)
180001074: 73 27 80 b1 	csrr	a4, mhpmcounter24
180001078: 23 b0 e7 0c 	sd	a4, 0xc0(a5)
18000107c: 73 27 90 b1 	csrr	a4, mhpmcounter25
180001080: 23 b4 e7 0c 	sd	a4, 0xc8(a5)
180001084: 73 27 a0 b1 	csrr	a4, mhpmcounter26
180001088: 23 b8 e7 0c 	sd	a4, 0xd0(a5)
18000108c: 73 27 b0 b1 	csrr	a4, mhpmcounter27
180001090: 23 bc e7 0c 	sd	a4, 0xd8(a5)
180001094: 73 27 c0 b1 	csrr	a4, mhpmcounter28
180001098: 23 b0 e7 0e 	sd	a4, 0xe0(a5)
18000109c: 73 27 d0 b1 	csrr	a4, mhpmcounter29
1800010a0: 23 b4 e7 0e 	sd	a4, 0xe8(a5)
1800010a4: 73 27 e0 b1 	csrr	a4, mhpmcounter30
1800010a8: 23 b8 e7 0e 	sd	a4, 0xf0(a5)
1800010ac: 73 27 f0 b1 	csrr	a4, mhpmcounter31
1800010b0: 23 bc e7 0e 	sd	a4, 0xf8(a5)
1800010b4: 67 80 00 00 	ret

00000001800010b8 <_out_null>:
1800010b8: 67 80 00 00 	ret

00000001800010bc <_out_rev>:
1800010bc: 13 01 01 fa 	addi	sp, sp, -0x60
1800010c0: 23 34 91 04 	sd	s1, 0x48(sp)
1800010c4: 23 30 21 05 	sd	s2, 0x40(sp)
1800010c8: 23 3c 31 03 	sd	s3, 0x38(sp)
1800010cc: 23 38 41 03 	sd	s4, 0x30(sp)
1800010d0: 23 34 51 03 	sd	s5, 0x28(sp)
1800010d4: 23 30 61 03 	sd	s6, 0x20(sp)
1800010d8: 93 0a 06 00 	mv	s5, a2
1800010dc: 23 38 81 01 	sd	s8, 0x10(sp)
1800010e0: 23 34 91 01 	sd	s9, 0x8(sp)
1800010e4: 23 30 a1 01 	sd	s10, 0x0(sp)
1800010e8: 23 3c 11 04 	sd	ra, 0x58(sp)
1800010ec: 23 38 81 04 	sd	s0, 0x50(sp)
1800010f0: 23 3c 71 01 	sd	s7, 0x18(sp)
1800010f4: 13 f6 38 00 	andi	a2, a7, 0x3
1800010f8: 93 8c 08 00 	mv	s9, a7
1800010fc: 13 09 05 00 	mv	s2, a0
180001100: 93 89 05 00 	mv	s3, a1
180001104: 13 8a 06 00 	mv	s4, a3
180001108: 13 0b 07 00 	mv	s6, a4
18000110c: 13 8d 07 00 	mv	s10, a5
180001110: 13 0c 08 00 	mv	s8, a6
180001114: 93 84 0a 00 	mv	s1, s5
180001118: 63 1c 06 02 	bnez	a2, 0x180001150 <_out_rev+0x94>
18000111c: 93 17 08 02 	slli	a5, a6, 0x20
180001120: 93 d7 07 02 	srli	a5, a5, 0x20
180001124: b3 84 a7 41 	sub	s1, a5, s10
180001128: b3 84 54 01 	add	s1, s1, s5
18000112c: 13 84 0a 00 	mv	s0, s5
180001130: 63 70 fd 0c 	bgeu	s10, a5, 0x1800011f0 <_out_rev+0x134>
180001134: 13 06 04 00 	mv	a2, s0
180001138: 93 06 0a 00 	mv	a3, s4
18000113c: 13 04 14 00 	addi	s0, s0, 0x1
180001140: 93 85 09 00 	mv	a1, s3
180001144: 13 05 00 02 	li	a0, 0x20
180001148: e7 00 09 00 	jalr	s2
18000114c: e3 14 94 fe 	bne	s0, s1, 0x180001134 <_out_rev+0x78>
180001150: 33 04 ab 01 	add	s0, s6, s10
180001154: b3 0b 94 00 	add	s7, s0, s1
180001158: 63 02 0d 02 	beqz	s10, 0x18000117c <_out_rev+0xc0>
18000115c: 03 45 f4 ff 	lbu	a0, -0x1(s0)
180001160: 33 86 8b 40 	sub	a2, s7, s0
180001164: 93 06 0a 00 	mv	a3, s4
180001168: 13 04 f4 ff 	addi	s0, s0, -0x1
18000116c: 93 85 09 00 	mv	a1, s3
180001170: e7 00 09 00 	jalr	s2
180001174: e3 14 8b fe 	bne	s6, s0, 0x18000115c <_out_rev+0xa0>
180001178: b3 84 a4 01 	add	s1, s1, s10
18000117c: 93 fc 2c 00 	andi	s9, s9, 0x2
180001180: 63 8a 0c 02 	beqz	s9, 0x1800011b4 <_out_rev+0xf8>
180001184: 13 1c 0c 02 	slli	s8, s8, 0x20
180001188: b3 8a 54 41 	sub	s5, s1, s5
18000118c: 13 5c 0c 02 	srli	s8, s8, 0x20
180001190: 63 f2 8a 03 	bgeu	s5, s8, 0x1800011b4 <_out_rev+0xf8>
180001194: 13 86 04 00 	mv	a2, s1
180001198: 93 8a 1a 00 	addi	s5, s5, 0x1
18000119c: 93 06 0a 00 	mv	a3, s4
1800011a0: 93 85 09 00 	mv	a1, s3
1800011a4: 13 05 00 02 	li	a0, 0x20
1800011a8: 93 84 14 00 	addi	s1, s1, 0x1
1800011ac: e7 00 09 00 	jalr	s2
1800011b0: e3 e2 8a ff 	bltu	s5, s8, 0x180001194 <_out_rev+0xd8>
1800011b4: 83 30 81 05 	ld	ra, 0x58(sp)
1800011b8: 03 34 01 05 	ld	s0, 0x50(sp)
1800011bc: 03 39 01 04 	ld	s2, 0x40(sp)
1800011c0: 83 39 81 03 	ld	s3, 0x38(sp)
1800011c4: 03 3a 01 03 	ld	s4, 0x30(sp)
1800011c8: 83 3a 81 02 	ld	s5, 0x28(sp)
1800011cc: 03 3b 01 02 	ld	s6, 0x20(sp)
1800011d0: 83 3b 81 01 	ld	s7, 0x18(sp)
1800011d4: 03 3c 01 01 	ld	s8, 0x10(sp)
1800011d8: 83 3c 81 00 	ld	s9, 0x8(sp)
1800011dc: 03 3d 01 00 	ld	s10, 0x0(sp)
1800011e0: 13 85 04 00 	mv	a0, s1
1800011e4: 83 34 81 04 	ld	s1, 0x48(sp)
1800011e8: 13 01 01 06 	addi	sp, sp, 0x60
1800011ec: 67 80 00 00 	ret
1800011f0: 93 84 0a 00 	mv	s1, s5
1800011f4: 6f f0 df f5 	j	0x180001150 <_out_rev+0x94>

00000001800011f8 <_ntoa_long_long>:
1800011f8: 13 01 01 fb 	addi	sp, sp, -0x50
1800011fc: 23 30 81 04 	sd	s0, 0x40(sp)
180001200: 03 24 81 05 	lw	s0, 0x58(sp)
180001204: 23 3c 91 02 	sd	s1, 0x38(sp)
180001208: 23 38 21 03 	sd	s2, 0x30(sp)
18000120c: 23 34 31 03 	sd	s3, 0x28(sp)
180001210: 23 34 11 04 	sd	ra, 0x48(sp)
180001214: 93 0e 08 00 	mv	t4, a6
180001218: 13 0e 07 00 	mv	t3, a4
18000121c: 03 28 01 05 	lw	a6, 0x50(sp)
180001220: 93 84 07 00 	mv	s1, a5
180001224: 93 79 04 40 	andi	s3, s0, 0x400
180001228: 13 79 04 01 	andi	s2, s0, 0x10
18000122c: 63 1a 07 00 	bnez	a4, 0x180001240 <_ntoa_long_long+0x48>
180001230: 13 09 04 00 	mv	s2, s0
180001234: 13 74 f4 fe 	andi	s0, s0, -0x11
180001238: 63 9e 09 0a 	bnez	s3, 0x1800012f4 <_ntoa_long_long+0xfc>
18000123c: 13 09 00 00 	li	s2, 0x0
180001240: 93 77 04 02 	andi	a5, s0, 0x20
180001244: 93 02 10 06 	li	t0, 0x61
180001248: 63 9c 07 12 	bnez	a5, 0x180001380 <_ntoa_long_long+0x188>
18000124c: 93 07 00 00 	li	a5, 0x0
180001250: 13 07 01 00 	mv	a4, sp
180001254: 93 03 90 00 	li	t2, 0x9
180001258: 9b 82 62 ff 	addiw	t0, t0, -0xa
18000125c: 93 00 00 02 	li	ra, 0x20
180001260: 6f 00 c0 00 	j	0x18000126c <_ntoa_long_long+0x74>
180001264: 63 8c 17 02 	beq	a5, ra, 0x18000129c <_ntoa_long_long+0xa4>
180001268: 13 0e 03 00 	mv	t3, t1
18000126c: 33 7f de 03 	remu	t5, t3, t4
180001270: 13 73 ff 0f 	andi	t1, t5, 0xff
180001274: 9b 0f 03 03 	addiw	t6, t1, 0x30
180001278: 3b 83 62 00 	addw	t1, t0, t1
18000127c: 13 73 f3 0f 	andi	t1, t1, 0xff
180001280: 63 e4 e3 01 	bltu	t2, t5, 0x180001288 <_ntoa_long_long+0x90>
180001284: 13 f3 ff 0f 	andi	t1, t6, 0xff
180001288: 93 87 17 00 	addi	a5, a5, 0x1
18000128c: 33 0f f7 00 	add	t5, a4, a5
180001290: a3 0f 6f fe 	sb	t1, -0x1(t5)
180001294: 33 53 de 03 	divu	t1, t3, t4
180001298: e3 76 de fd 	bgeu	t3, t4, 0x180001264 <_ntoa_long_long+0x6c>
18000129c: 13 73 24 00 	andi	t1, s0, 0x2
1800012a0: 9b 83 0e 00 	sext.w	t2, t4
1800012a4: 63 02 03 06 	beqz	t1, 0x180001308 <_ntoa_long_long+0x110>
1800012a8: 63 00 09 12 	beqz	s2, 0x1800013c8 <_ntoa_long_long+0x1d0>
1800012ac: 63 9e 09 16 	bnez	s3, 0x180001428 <_ntoa_long_long+0x230>
1800012b0: 63 9c 07 0c 	bnez	a5, 0x180001388 <_ntoa_long_long+0x190>
1800012b4: 93 07 00 01 	li	a5, 0x10
1800012b8: 63 80 fe 2c 	beq	t4, a5, 0x180001578 <_ntoa_long_long+0x380>
1800012bc: 93 07 20 00 	li	a5, 0x2
1800012c0: 63 86 f3 2c 	beq	t2, a5, 0x18000158c <_ntoa_long_long+0x394>
1800012c4: 93 07 00 03 	li	a5, 0x30
1800012c8: 23 00 f1 00 	sb	a5, 0x0(sp)
1800012cc: 13 0e 10 00 	li	t3, 0x1
1800012d0: 63 9e 04 18 	bnez	s1, 0x18000146c <_ntoa_long_long+0x274>
1800012d4: 93 77 44 00 	andi	a5, s0, 0x4
1800012d8: 63 86 07 22 	beqz	a5, 0x180001504 <_ntoa_long_long+0x30c>
1800012dc: 93 07 0e 02 	addi	a5, t3, 0x20
1800012e0: b3 88 27 00 	add	a7, a5, sp
1800012e4: 13 03 b0 02 	li	t1, 0x2b
1800012e8: 93 07 1e 00 	addi	a5, t3, 0x1
1800012ec: 23 80 68 fe 	sb	t1, -0x20(a7)
1800012f0: 6f 00 40 0e 	j	0x1800013d4 <_ntoa_long_long+0x1dc>
1800012f4: 13 79 29 00 	andi	s2, s2, 0x2
1800012f8: 63 16 09 18 	bnez	s2, 0x180001484 <_ntoa_long_long+0x28c>
1800012fc: 9b 83 0e 00 	sext.w	t2, t4
180001300: 93 07 00 00 	li	a5, 0x0
180001304: 13 07 01 00 	mv	a4, sp
180001308: 13 9e 08 02 	slli	t3, a7, 0x20
18000130c: 13 5e 0e 02 	srli	t3, t3, 0x20
180001310: 63 14 08 0e 	bnez	a6, 0x1800013f8 <_ntoa_long_long+0x200>
180001314: e3 fa c7 f9 	bgeu	a5, t3, 0x1800012a8 <_ntoa_long_long+0xb0>
180001318: 13 03 00 02 	li	t1, 0x20
18000131c: 93 72 14 00 	andi	t0, s0, 0x1
180001320: 63 8e 67 26 	beq	a5, t1, 0x18000159c <_ntoa_long_long+0x3a4>
180001324: 13 0f 00 03 	li	t5, 0x30
180001328: 93 0f 00 02 	li	t6, 0x20
18000132c: 6f 00 80 00 	j	0x180001334 <_ntoa_long_long+0x13c>
180001330: 63 8e f7 11 	beq	a5, t6, 0x18000144c <_ntoa_long_long+0x254>
180001334: 93 87 17 00 	addi	a5, a5, 0x1
180001338: 33 03 f7 00 	add	t1, a4, a5
18000133c: a3 0f e3 ff 	sb	t5, -0x1(t1)
180001340: e3 e8 c7 ff 	bltu	a5, t3, 0x180001330 <_ntoa_long_long+0x138>
180001344: e3 82 02 f6 	beqz	t0, 0x1800012a8 <_ntoa_long_long+0xb0>
180001348: 13 1f 08 02 	slli	t5, a6, 0x20
18000134c: 13 5f 0f 02 	srli	t5, t5, 0x20
180001350: e3 fc e7 f5 	bgeu	a5, t5, 0x1800012a8 <_ntoa_long_long+0xb0>
180001354: 13 03 00 02 	li	t1, 0x20
180001358: 93 0f 00 03 	li	t6, 0x30
18000135c: 93 02 00 02 	li	t0, 0x20
180001360: 63 96 67 00 	bne	a5, t1, 0x18000136c <_ntoa_long_long+0x174>
180001364: 6f 00 00 0f 	j	0x180001454 <_ntoa_long_long+0x25c>
180001368: 63 8a 57 18 	beq	a5, t0, 0x1800014fc <_ntoa_long_long+0x304>
18000136c: 93 87 17 00 	addi	a5, a5, 0x1
180001370: 33 03 f7 00 	add	t1, a4, a5
180001374: a3 0f f3 ff 	sb	t6, -0x1(t1)
180001378: e3 98 e7 ff 	bne	a5, t5, 0x180001368 <_ntoa_long_long+0x170>
18000137c: 6f f0 df f2 	j	0x1800012a8 <_ntoa_long_long+0xb0>
180001380: 93 02 10 04 	li	t0, 0x41
180001384: 6f f0 9f ec 	j	0x18000124c <_ntoa_long_long+0x54>
180001388: 13 9e 08 02 	slli	t3, a7, 0x20
18000138c: 13 5e 0e 02 	srli	t3, t3, 0x20
180001390: 63 08 fe 00 	beq	t3, a5, 0x1800013a0 <_ntoa_long_long+0x1a8>
180001394: 93 18 08 02 	slli	a7, a6, 0x20
180001398: 93 d8 08 02 	srli	a7, a7, 0x20
18000139c: 63 96 f8 08 	bne	a7, a5, 0x180001428 <_ntoa_long_long+0x230>
1800013a0: 93 88 f7 ff 	addi	a7, a5, -0x1
1800013a4: 63 82 08 1a 	beqz	a7, 0x180001548 <_ntoa_long_long+0x350>
1800013a8: 13 03 00 01 	li	t1, 0x10
1800013ac: 63 8e 6e 1e 	beq	t4, t1, 0x1800015a8 <_ntoa_long_long+0x3b0>
1800013b0: 13 03 20 00 	li	t1, 0x2
1800013b4: 63 86 63 12 	beq	t2, t1, 0x1800014e0 <_ntoa_long_long+0x2e8>
1800013b8: 93 88 08 02 	addi	a7, a7, 0x20
1800013bc: b3 88 28 00 	add	a7, a7, sp
1800013c0: 13 03 00 03 	li	t1, 0x30
1800013c4: 23 80 68 fe 	sb	t1, -0x20(a7)
1800013c8: 93 08 00 02 	li	a7, 0x20
1800013cc: 13 8e 07 00 	mv	t3, a5
1800013d0: e3 90 17 f1 	bne	a5, a7, 0x1800012d0 <_ntoa_long_long+0xd8>
1800013d4: 93 08 04 00 	mv	a7, s0
1800013d8: ef f0 5f ce 	jal	0x1800010bc <_out_rev>
1800013dc: 83 30 81 04 	ld	ra, 0x48(sp)
1800013e0: 03 34 01 04 	ld	s0, 0x40(sp)
1800013e4: 83 34 81 03 	ld	s1, 0x38(sp)
1800013e8: 03 39 01 03 	ld	s2, 0x30(sp)
1800013ec: 83 39 81 02 	ld	s3, 0x28(sp)
1800013f0: 13 01 01 05 	addi	sp, sp, 0x50
1800013f4: 67 80 00 00 	ret
1800013f8: 93 72 14 00 	andi	t0, s0, 0x1
1800013fc: 13 03 04 00 	mv	t1, s0
180001400: 63 88 02 08 	beqz	t0, 0x180001490 <_ntoa_long_long+0x298>
180001404: 63 98 04 0e 	bnez	s1, 0x1800014f4 <_ntoa_long_long+0x2fc>
180001408: 13 73 c3 00 	andi	t1, t1, 0xc
18000140c: 63 14 03 0e 	bnez	t1, 0x1800014f4 <_ntoa_long_long+0x2fc>
180001410: e3 fc c7 f3 	bgeu	a5, t3, 0x180001348 <_ntoa_long_long+0x150>
180001414: 13 03 00 02 	li	t1, 0x20
180001418: e3 96 67 f0 	bne	a5, t1, 0x180001324 <_ntoa_long_long+0x12c>
18000141c: 63 ec 07 03 	bltu	a5, a6, 0x180001454 <_ntoa_long_long+0x25c>
180001420: e3 0a 09 fa 	beqz	s2, 0x1800013d4 <_ntoa_long_long+0x1dc>
180001424: e3 86 09 e8 	beqz	s3, 0x1800012b0 <_ntoa_long_long+0xb8>
180001428: 93 08 00 01 	li	a7, 0x10
18000142c: 63 8e 1e 07 	beq	t4, a7, 0x1800014a8 <_ntoa_long_long+0x2b0>
180001430: 93 08 20 00 	li	a7, 0x2
180001434: 63 8e 13 09 	beq	t2, a7, 0x1800014d0 <_ntoa_long_long+0x2d8>
180001438: 93 08 00 02 	li	a7, 0x20
18000143c: e3 8c 17 f9 	beq	a5, a7, 0x1800013d4 <_ntoa_long_long+0x1dc>
180001440: 93 88 07 00 	mv	a7, a5
180001444: 93 87 17 00 	addi	a5, a5, 0x1
180001448: 6f f0 1f f7 	j	0x1800013b8 <_ntoa_long_long+0x1c0>
18000144c: 63 82 02 1a 	beqz	t0, 0x1800015f0 <_ntoa_long_long+0x3f8>
180001450: 63 f6 07 0b 	bgeu	a5, a6, 0x1800014fc <_ntoa_long_long+0x304>
180001454: 93 07 00 02 	li	a5, 0x20
180001458: e3 0e 09 f6 	beqz	s2, 0x1800013d4 <_ntoa_long_long+0x1dc>
18000145c: 63 90 09 18 	bnez	s3, 0x1800015dc <_ntoa_long_long+0x3e4>
180001460: e3 1a fe f2 	bne	t3, a5, 0x180001394 <_ntoa_long_long+0x19c>
180001464: 93 08 f0 01 	li	a7, 0x1f
180001468: 6f f0 1f f4 	j	0x1800013a8 <_ntoa_long_long+0x1b0>
18000146c: 93 07 0e 02 	addi	a5, t3, 0x20
180001470: b3 88 27 00 	add	a7, a5, sp
180001474: 13 03 d0 02 	li	t1, 0x2d
180001478: 93 07 1e 00 	addi	a5, t3, 0x1
18000147c: 23 80 68 fe 	sb	t1, -0x20(a7)
180001480: 6f f0 5f f5 	j	0x1800013d4 <_ntoa_long_long+0x1dc>
180001484: 13 07 01 00 	mv	a4, sp
180001488: e3 86 04 e4 	beqz	s1, 0x1800012d4 <_ntoa_long_long+0xdc>
18000148c: 6f f0 1f fe 	j	0x18000146c <_ntoa_long_long+0x274>
180001490: e3 fc c7 e1 	bgeu	a5, t3, 0x1800012a8 <_ntoa_long_long+0xb0>
180001494: 13 03 00 02 	li	t1, 0x20
180001498: e3 96 67 e8 	bne	a5, t1, 0x180001324 <_ntoa_long_long+0x12c>
18000149c: e3 0c 09 f2 	beqz	s2, 0x1800013d4 <_ntoa_long_long+0x1dc>
1800014a0: e3 94 09 f8 	bnez	s3, 0x180001428 <_ntoa_long_long+0x230>
1800014a4: 6f f0 df ee 	j	0x180001390 <_ntoa_long_long+0x198>
1800014a8: 93 78 04 02 	andi	a7, s0, 0x20
1800014ac: 63 8e 08 06 	beqz	a7, 0x180001528 <_ntoa_long_long+0x330>
1800014b0: 93 08 00 02 	li	a7, 0x20
1800014b4: e3 80 17 f3 	beq	a5, a7, 0x1800013d4 <_ntoa_long_long+0x1dc>
1800014b8: 93 88 07 02 	addi	a7, a5, 0x20
1800014bc: b3 88 28 00 	add	a7, a7, sp
1800014c0: 13 03 80 05 	li	t1, 0x58
1800014c4: 23 80 68 fe 	sb	t1, -0x20(a7)
1800014c8: 93 87 17 00 	addi	a5, a5, 0x1
1800014cc: 6f f0 df f6 	j	0x180001438 <_ntoa_long_long+0x240>
1800014d0: 93 08 00 02 	li	a7, 0x20
1800014d4: e3 80 17 f1 	beq	a5, a7, 0x1800013d4 <_ntoa_long_long+0x1dc>
1800014d8: 93 88 07 00 	mv	a7, a5
1800014dc: 93 87 17 00 	addi	a5, a5, 0x1
1800014e0: 93 88 08 02 	addi	a7, a7, 0x20
1800014e4: b3 88 28 00 	add	a7, a7, sp
1800014e8: 13 03 20 06 	li	t1, 0x62
1800014ec: 23 80 68 fe 	sb	t1, -0x20(a7)
1800014f0: 6f f0 9f f4 	j	0x180001438 <_ntoa_long_long+0x240>
1800014f4: 1b 08 f8 ff 	addiw	a6, a6, -0x1
1800014f8: 6f f0 9f f1 	j	0x180001410 <_ntoa_long_long+0x218>
1800014fc: 93 07 00 02 	li	a5, 0x20
180001500: 6f f0 df f9 	j	0x18000149c <_ntoa_long_long+0x2a4>
180001504: 93 78 84 00 	andi	a7, s0, 0x8
180001508: 93 07 0e 00 	mv	a5, t3
18000150c: e3 84 08 ec 	beqz	a7, 0x1800013d4 <_ntoa_long_long+0x1dc>
180001510: 93 08 0e 02 	addi	a7, t3, 0x20
180001514: 33 8e 28 00 	add	t3, a7, sp
180001518: 93 08 00 02 	li	a7, 0x20
18000151c: 93 87 17 00 	addi	a5, a5, 0x1
180001520: 23 00 1e ff 	sb	a7, -0x20(t3)
180001524: 6f f0 1f eb 	j	0x1800013d4 <_ntoa_long_long+0x1dc>
180001528: 93 08 00 02 	li	a7, 0x20
18000152c: e3 84 17 eb 	beq	a5, a7, 0x1800013d4 <_ntoa_long_long+0x1dc>
180001530: 93 88 07 02 	addi	a7, a5, 0x20
180001534: b3 88 28 00 	add	a7, a7, sp
180001538: 13 03 80 07 	li	t1, 0x78
18000153c: 23 80 68 fe 	sb	t1, -0x20(a7)
180001540: 93 87 17 00 	addi	a5, a5, 0x1
180001544: 6f f0 5f ef 	j	0x180001438 <_ntoa_long_long+0x240>
180001548: 93 07 00 01 	li	a5, 0x10
18000154c: e3 98 fe d6 	bne	t4, a5, 0x1800012bc <_ntoa_long_long+0xc4>
180001550: 93 78 04 02 	andi	a7, s0, 0x20
180001554: 93 07 80 07 	li	a5, 0x78
180001558: 63 84 08 00 	beqz	a7, 0x180001560 <_ntoa_long_long+0x368>
18000155c: 93 07 80 05 	li	a5, 0x58
180001560: 23 00 f1 00 	sb	a5, 0x0(sp)
180001564: 93 07 00 03 	li	a5, 0x30
180001568: a3 00 f1 00 	sb	a5, 0x1(sp)
18000156c: 13 0e 20 00 	li	t3, 0x2
180001570: e3 82 04 d6 	beqz	s1, 0x1800012d4 <_ntoa_long_long+0xdc>
180001574: 6f f0 9f ef 	j	0x18000146c <_ntoa_long_long+0x274>
180001578: 93 77 04 02 	andi	a5, s0, 0x20
18000157c: 63 8c 07 00 	beqz	a5, 0x180001594 <_ntoa_long_long+0x39c>
180001580: 93 07 80 05 	li	a5, 0x58
180001584: 23 00 f1 00 	sb	a5, 0x0(sp)
180001588: 6f f0 df fd 	j	0x180001564 <_ntoa_long_long+0x36c>
18000158c: 93 07 20 06 	li	a5, 0x62
180001590: 6f f0 1f fd 	j	0x180001560 <_ntoa_long_long+0x368>
180001594: 93 07 80 07 	li	a5, 0x78
180001598: 6f f0 9f fc 	j	0x180001560 <_ntoa_long_long+0x368>
18000159c: e3 80 02 f0 	beqz	t0, 0x18000149c <_ntoa_long_long+0x2a4>
1800015a0: e3 12 09 e8 	bnez	s2, 0x180001424 <_ntoa_long_long+0x22c>
1800015a4: 6f f0 1f e3 	j	0x1800013d4 <_ntoa_long_long+0x1dc>
1800015a8: 93 87 e7 ff 	addi	a5, a5, -0x2
1800015ac: 93 87 07 02 	addi	a5, a5, 0x20
1800015b0: 13 73 04 02 	andi	t1, s0, 0x20
1800015b4: b3 87 27 00 	add	a5, a5, sp
1800015b8: 63 1a 03 00 	bnez	t1, 0x1800015cc <_ntoa_long_long+0x3d4>
1800015bc: 13 03 80 07 	li	t1, 0x78
1800015c0: 23 80 67 fe 	sb	t1, -0x20(a5)
1800015c4: 93 87 08 00 	mv	a5, a7
1800015c8: 6f f0 9f e7 	j	0x180001440 <_ntoa_long_long+0x248>
1800015cc: 13 03 80 05 	li	t1, 0x58
1800015d0: 23 80 67 fe 	sb	t1, -0x20(a5)
1800015d4: 93 87 08 00 	mv	a5, a7
1800015d8: 6f f0 9f e6 	j	0x180001440 <_ntoa_long_long+0x248>
1800015dc: 93 08 00 01 	li	a7, 0x10
1800015e0: e3 84 1e ed 	beq	t4, a7, 0x1800014a8 <_ntoa_long_long+0x2b0>
1800015e4: 93 08 20 00 	li	a7, 0x2
1800015e8: e3 98 13 e5 	bne	t2, a7, 0x180001438 <_ntoa_long_long+0x240>
1800015ec: 6f f0 9f de 	j	0x1800013d4 <_ntoa_long_long+0x1dc>
1800015f0: e3 02 09 de 	beqz	s2, 0x1800013d4 <_ntoa_long_long+0x1dc>
1800015f4: e3 94 09 fe 	bnez	s3, 0x1800015dc <_ntoa_long_long+0x3e4>
1800015f8: e3 9e f8 d8 	bne	a7, a5, 0x180001394 <_ntoa_long_long+0x19c>
1800015fc: 93 08 f0 01 	li	a7, 0x1f
180001600: 6f f0 9f da 	j	0x1800013a8 <_ntoa_long_long+0x1b0>

0000000180001604 <_out_char>:
180001604: 63 14 05 00 	bnez	a0, 0x18000160c <_out_char+0x8>
180001608: 67 80 00 00 	ret
18000160c: 6f f0 cf 8a 	j	0x1800006b8 <vx_putchar>

0000000180001610 <_ftoa>:
180001610: 53 23 a5 a2 	feq.d	t1, fa0, fa0
180001614: 93 08 08 00 	mv	a7, a6
180001618: 63 00 03 20 	beqz	t1, 0x180001818 <_ftoa+0x208>
18000161c: 17 38 00 00 	auipc	a6, 0x3
180001620: 87 37 c8 ce 	fld	fa5, -0x314(a6)
180001624: 53 18 f5 a2 	flt.d	a6, fa0, fa5
180001628: 63 12 08 26 	bnez	a6, 0x18000188c <_ftoa+0x27c>
18000162c: 13 01 01 fc 	addi	sp, sp, -0x40
180001630: 23 34 91 02 	sd	s1, 0x28(sp)
180001634: 93 84 06 00 	mv	s1, a3
180001638: 97 36 00 00 	auipc	a3, 0x3
18000163c: 87 b7 86 cd 	fld	fa5, -0x328(a3)
180001640: d3 96 a7 a2 	flt.d	a3, fa5, fa0
180001644: 23 38 81 02 	sd	s0, 0x30(sp)
180001648: 23 3c 11 02 	sd	ra, 0x38(sp)
18000164c: 23 30 21 03 	sd	s2, 0x20(sp)
180001650: 93 02 05 00 	mv	t0, a0
180001654: 93 83 05 00 	mv	t2, a1
180001658: 13 04 06 00 	mv	s0, a2
18000165c: 63 9c 06 16 	bnez	a3, 0x1800017d4 <_ftoa+0x1c4>
180001660: 97 36 00 00 	auipc	a3, 0x3
180001664: 87 b7 86 c9 	fld	fa5, -0x368(a3)
180001668: d3 96 a7 a2 	flt.d	a3, fa5, fa0
18000166c: 63 9a 06 1e 	bnez	a3, 0x180001860 <_ftoa+0x250>
180001670: 97 36 00 00 	auipc	a3, 0x3
180001674: 07 b7 86 ca 	fld	fa4, -0x358(a3)
180001678: d3 16 e5 a2 	flt.d	a3, fa0, fa4
18000167c: 63 92 06 1e 	bnez	a3, 0x180001860 <_ftoa+0x250>
180001680: 53 07 00 f2 	fmv.d.x	fa4, zero
180001684: 93 05 00 00 	li	a1, 0x0
180001688: d3 16 e5 a2 	flt.d	a3, fa0, fa4
18000168c: 63 94 06 1c 	bnez	a3, 0x180001854 <_ftoa+0x244>
180001690: 93 f6 08 40 	andi	a3, a7, 0x400
180001694: 63 8c 06 18 	beqz	a3, 0x18000182c <_ftoa+0x21c>
180001698: 93 06 90 00 	li	a3, 0x9
18000169c: 63 fa e6 38 	bgeu	a3, a4, 0x180001a30 <_ftoa+0x420>
1800016a0: 1b 03 77 ff 	addiw	t1, a4, -0x9
1800016a4: 13 13 03 02 	slli	t1, t1, 0x20
1800016a8: 13 53 03 02 	srli	t1, t1, 0x20
1800016ac: 13 0e 00 00 	li	t3, 0x0
1800016b0: 13 0f 01 00 	mv	t5, sp
1800016b4: 13 06 00 03 	li	a2, 0x30
1800016b8: 93 06 00 02 	li	a3, 0x20
1800016bc: 13 0e 1e 00 	addi	t3, t3, 0x1
1800016c0: b3 0e cf 01 	add	t4, t5, t3
1800016c4: a3 8f ce fe 	sb	a2, -0x1(t4)
1800016c8: bb 0f c7 41 	subw	t6, a4, t3
1800016cc: 63 08 de 2c 	beq	t3, a3, 0x18000199c <_ftoa+0x38c>
1800016d0: e3 16 6e fe 	bne	t3, t1, 0x1800016bc <_ftoa+0xac>
1800016d4: 53 87 f7 22 	fmv.d	fa4, fa5
1800016d8: d3 16 05 c2 	fcvt.w.d	a3, fa0, rtz
1800016dc: 17 37 00 00 	auipc	a4, 0x3
1800016e0: 87 36 47 c4 	fld	fa3, -0x3bc(a4)
1800016e4: d3 87 06 d2 	fcvt.d.w	fa5, a3
1800016e8: 1b 8e 06 00 	sext.w	t3, a3
1800016ec: d3 77 f5 0a 	fsub.d	fa5, fa0, fa5
1800016f0: d3 f7 e7 12 	fmul.d	fa5, fa5, fa4
1800016f4: 53 97 37 c2 	fcvt.lu.d	a4, fa5, rtz
1800016f8: 53 76 37 d2 	fcvt.d.lu	fa2, a4
1800016fc: d3 f7 c7 0a 	fsub.d	fa5, fa5, fa2
180001700: 53 96 f6 a2 	flt.d	a2, fa3, fa5
180001704: 63 0e 06 22 	beqz	a2, 0x180001940 <_ftoa+0x330>
180001708: 13 07 17 00 	addi	a4, a4, 0x1
18000170c: d3 77 37 d2 	fcvt.d.lu	fa5, a4
180001710: 53 06 f7 a2 	fle.d	a2, fa4, fa5
180001714: 63 06 06 00 	beqz	a2, 0x180001720 <_ftoa+0x110>
180001718: 1b 8e 16 00 	addiw	t3, a3, 0x1
18000171c: 13 07 00 00 	li	a4, 0x0
180001720: 63 9a 0f 1c 	bnez	t6, 0x1800018f4 <_ftoa+0x2e4>
180001724: d3 07 0e d2 	fcvt.d.w	fa5, t3
180001728: 53 75 f5 0a 	fsub.d	fa0, fa0, fa5
18000172c: 53 17 d5 a2 	flt.d	a4, fa0, fa3
180001730: 63 06 07 00 	beqz	a4, 0x18000173c <_ftoa+0x12c>
180001734: 53 97 a6 a2 	flt.d	a4, fa3, fa0
180001738: 63 08 07 00 	beqz	a4, 0x180001748 <_ftoa+0x138>
18000173c: 13 77 1e 00 	andi	a4, t3, 0x1
180001740: 63 04 07 00 	beqz	a4, 0x180001748 <_ftoa+0x138>
180001744: 1b 0e 1e 00 	addiw	t3, t3, 0x1
180001748: 13 06 00 02 	li	a2, 0x20
18000174c: 13 07 a0 00 	li	a4, 0xa
180001750: 63 08 c3 14 	beq	t1, a2, 0x1800018a0 <_ftoa+0x290>
180001754: bb 6e ee 02 	remw	t4, t3, a4
180001758: 13 03 13 00 	addi	t1, t1, 0x1
18000175c: b3 06 6f 00 	add	a3, t5, t1
180001760: 3b 4e ee 02 	divw	t3, t3, a4
180001764: 9b 8e 0e 03 	addiw	t4, t4, 0x30
180001768: a3 8f d6 ff 	sb	t4, -0x1(a3)
18000176c: e3 12 0e fe 	bnez	t3, 0x180001750 <_ftoa+0x140>
180001770: 13 f7 38 00 	andi	a4, a7, 0x3
180001774: 93 06 10 00 	li	a3, 0x1
180001778: 63 00 d7 2e 	beq	a4, a3, 0x180001a58 <_ftoa+0x448>
18000177c: 13 07 00 02 	li	a4, 0x20
180001780: 63 0e e3 00 	beq	t1, a4, 0x18000179c <_ftoa+0x18c>
180001784: 63 86 05 22 	beqz	a1, 0x1800019b0 <_ftoa+0x3a0>
180001788: 13 07 03 02 	addi	a4, t1, 0x20
18000178c: 33 07 27 00 	add	a4, a4, sp
180001790: 93 06 d0 02 	li	a3, 0x2d
180001794: 23 00 d7 fe 	sb	a3, -0x20(a4)
180001798: 13 03 13 00 	addi	t1, t1, 0x1
18000179c: 13 88 07 00 	mv	a6, a5
1800017a0: 93 86 04 00 	mv	a3, s1
1800017a4: 13 06 04 00 	mv	a2, s0
1800017a8: 93 07 03 00 	mv	a5, t1
1800017ac: 13 07 0f 00 	mv	a4, t5
1800017b0: 93 85 03 00 	mv	a1, t2
1800017b4: 13 85 02 00 	mv	a0, t0
1800017b8: ef f0 5f 90 	jal	0x1800010bc <_out_rev>
1800017bc: 83 30 81 03 	ld	ra, 0x38(sp)
1800017c0: 03 34 01 03 	ld	s0, 0x30(sp)
1800017c4: 83 34 81 02 	ld	s1, 0x28(sp)
1800017c8: 03 39 01 02 	ld	s2, 0x20(sp)
1800017cc: 13 01 01 04 	addi	sp, sp, 0x40
1800017d0: 67 80 00 00 	ret
1800017d4: 13 f7 48 00 	andi	a4, a7, 0x4
1800017d8: 63 16 07 06 	bnez	a4, 0x180001844 <_ftoa+0x234>
1800017dc: 17 27 00 00 	auipc	a4, 0x2
1800017e0: 13 07 c7 86 	addi	a4, a4, -0x794
1800017e4: 93 06 30 00 	li	a3, 0x3
1800017e8: 13 06 04 00 	mv	a2, s0
1800017ec: 03 34 01 03 	ld	s0, 0x30(sp)
1800017f0: 83 30 81 03 	ld	ra, 0x38(sp)
1800017f4: 03 39 01 02 	ld	s2, 0x20(sp)
1800017f8: 13 88 07 00 	mv	a6, a5
1800017fc: 93 87 06 00 	mv	a5, a3
180001800: 93 86 04 00 	mv	a3, s1
180001804: 83 34 81 02 	ld	s1, 0x28(sp)
180001808: 93 85 03 00 	mv	a1, t2
18000180c: 13 85 02 00 	mv	a0, t0
180001810: 13 01 01 04 	addi	sp, sp, 0x40
180001814: 6f f0 9f 8a 	j	0x1800010bc <_out_rev>
180001818: 13 88 07 00 	mv	a6, a5
18000181c: 17 27 00 00 	auipc	a4, 0x2
180001820: 13 07 47 83 	addi	a4, a4, -0x7cc
180001824: 93 07 30 00 	li	a5, 0x3
180001828: 6f f0 5f 89 	j	0x1800010bc <_out_rev>
18000182c: 17 37 00 00 	auipc	a4, 0x3
180001830: 07 37 47 ad 	fld	fa4, -0x52c(a4)
180001834: 93 0f 60 00 	li	t6, 0x6
180001838: 13 03 00 00 	li	t1, 0x0
18000183c: 13 0f 01 00 	mv	t5, sp
180001840: 6f f0 9f e9 	j	0x1800016d8 <_ftoa+0xc8>
180001844: 17 17 00 00 	auipc	a4, 0x1
180001848: 13 07 c7 7f 	addi	a4, a4, 0x7fc
18000184c: 93 06 40 00 	li	a3, 0x4
180001850: 6f f0 9f f9 	j	0x1800017e8 <_ftoa+0x1d8>
180001854: 53 75 a7 0a 	fsub.d	fa0, fa4, fa0
180001858: 93 05 10 00 	li	a1, 0x1
18000185c: 6f f0 5f e3 	j	0x180001690 <_ftoa+0x80>
180001860: 13 06 04 00 	mv	a2, s0
180001864: 03 34 01 03 	ld	s0, 0x30(sp)
180001868: 83 30 81 03 	ld	ra, 0x38(sp)
18000186c: 03 39 01 02 	ld	s2, 0x20(sp)
180001870: 93 86 04 00 	mv	a3, s1
180001874: 83 34 81 02 	ld	s1, 0x28(sp)
180001878: 13 88 08 00 	mv	a6, a7
18000187c: 93 85 03 00 	mv	a1, t2
180001880: 13 85 02 00 	mv	a0, t0
180001884: 13 01 01 04 	addi	sp, sp, 0x40
180001888: 6f 00 80 1d 	j	0x180001a60 <_etoa>
18000188c: 13 88 07 00 	mv	a6, a5
180001890: 17 17 00 00 	auipc	a4, 0x1
180001894: 13 07 87 7c 	addi	a4, a4, 0x7c8
180001898: 93 07 40 00 	li	a5, 0x4
18000189c: 6f f0 1f 82 	j	0x1800010bc <_out_rev>
1800018a0: 13 f7 38 00 	andi	a4, a7, 0x3
1800018a4: 93 06 10 00 	li	a3, 0x1
1800018a8: e3 1a d7 ee 	bne	a4, a3, 0x18000179c <_ftoa+0x18c>
1800018ac: e3 88 07 ee 	beqz	a5, 0x18000179c <_ftoa+0x18c>
1800018b0: 63 96 05 16 	bnez	a1, 0x180001a1c <_ftoa+0x40c>
1800018b4: 13 f7 c8 00 	andi	a4, a7, 0xc
1800018b8: 63 12 07 16 	bnez	a4, 0x180001a1c <_ftoa+0x40c>
1800018bc: 13 96 07 02 	slli	a2, a5, 0x20
1800018c0: 13 56 06 02 	srli	a2, a2, 0x20
1800018c4: 63 72 c3 0e 	bgeu	t1, a2, 0x1800019a8 <_ftoa+0x398>
1800018c8: 13 07 00 02 	li	a4, 0x20
1800018cc: 93 06 00 03 	li	a3, 0x30
1800018d0: 13 05 00 02 	li	a0, 0x20
1800018d4: 63 0c e3 00 	beq	t1, a4, 0x1800018ec <_ftoa+0x2dc>
1800018d8: 13 03 13 00 	addi	t1, t1, 0x1
1800018dc: 33 07 6f 00 	add	a4, t5, t1
1800018e0: a3 0f d7 fe 	sb	a3, -0x1(a4)
1800018e4: e3 0c c3 e8 	beq	t1, a2, 0x18000177c <_ftoa+0x16c>
1800018e8: e3 18 a3 fe 	bne	t1, a0, 0x1800018d8 <_ftoa+0x2c8>
1800018ec: 13 03 00 02 	li	t1, 0x20
1800018f0: 6f f0 df ea 	j	0x18000179c <_ftoa+0x18c>
1800018f4: 9b 80 0f fe 	addiw	ra, t6, -0x20
1800018f8: bb 80 60 00 	addw	ra, ra, t1
1800018fc: 13 06 a0 00 	li	a2, 0xa
180001900: 13 09 90 00 	li	s2, 0x9
180001904: 6f 00 80 02 	j	0x18000192c <_ftoa+0x31c>
180001908: b3 76 c7 02 	remu	a3, a4, a2
18000190c: 1b 88 ff ff 	addiw	a6, t6, -0x1
180001910: 9b 86 06 03 	addiw	a3, a3, 0x30
180001914: a3 0f d5 fe 	sb	a3, -0x1(a0)
180001918: b3 56 c7 02 	divu	a3, a4, a2
18000191c: 63 7c e9 02 	bgeu	s2, a4, 0x180001954 <_ftoa+0x344>
180001920: 93 0f 08 00 	mv	t6, a6
180001924: 13 83 0e 00 	mv	t1, t4
180001928: 13 87 06 00 	mv	a4, a3
18000192c: 93 0e 13 00 	addi	t4, t1, 0x1
180001930: 33 05 df 01 	add	a0, t5, t4
180001934: e3 9a 1f fc 	bne	t6, ra, 0x180001908 <_ftoa+0x2f8>
180001938: 13 03 00 02 	li	t1, 0x20
18000193c: 6f f0 df e0 	j	0x180001748 <_ftoa+0x138>
180001940: d3 96 d7 a2 	flt.d	a3, fa5, fa3
180001944: e3 9e 06 dc 	bnez	a3, 0x180001720 <_ftoa+0x110>
180001948: 63 12 07 0c 	bnez	a4, 0x180001a0c <_ftoa+0x3fc>
18000194c: 13 07 17 00 	addi	a4, a4, 0x1
180001950: 6f f0 1f dd 	j	0x180001720 <_ftoa+0x110>
180001954: 13 07 00 02 	li	a4, 0x20
180001958: e3 80 ee fe 	beq	t4, a4, 0x180001938 <_ftoa+0x328>
18000195c: 9b 8f ef ff 	addiw	t6, t6, -0x2
180001960: 63 0c 08 06 	beqz	a6, 0x1800019d8 <_ftoa+0x3c8>
180001964: 93 9f 0f 02 	slli	t6, t6, 0x20
180001968: 13 03 23 00 	addi	t1, t1, 0x2
18000196c: 93 df 0f 02 	srli	t6, t6, 0x20
180001970: 33 03 f3 01 	add	t1, t1, t6
180001974: 13 06 00 03 	li	a2, 0x30
180001978: 93 06 00 02 	li	a3, 0x20
18000197c: 6f 00 80 00 	j	0x180001984 <_ftoa+0x374>
180001980: 63 8e 6e 04 	beq	t4, t1, 0x1800019dc <_ftoa+0x3cc>
180001984: 93 8e 1e 00 	addi	t4, t4, 0x1
180001988: 33 07 df 01 	add	a4, t5, t4
18000198c: a3 0f c7 fe 	sb	a2, -0x1(a4)
180001990: e3 98 de fe 	bne	t4, a3, 0x180001980 <_ftoa+0x370>
180001994: 13 03 00 02 	li	t1, 0x20
180001998: 6f f0 1f db 	j	0x180001748 <_ftoa+0x138>
18000199c: 53 87 f7 22 	fmv.d	fa4, fa5
1800019a0: 13 03 00 02 	li	t1, 0x20
1800019a4: 6f f0 5f d3 	j	0x1800016d8 <_ftoa+0xc8>
1800019a8: 13 07 00 02 	li	a4, 0x20
1800019ac: e3 08 e3 de 	beq	t1, a4, 0x18000179c <_ftoa+0x18c>
1800019b0: 13 f7 48 00 	andi	a4, a7, 0x4
1800019b4: 63 10 07 04 	bnez	a4, 0x1800019f4 <_ftoa+0x3e4>
1800019b8: 13 f7 88 00 	andi	a4, a7, 0x8
1800019bc: e3 00 07 de 	beqz	a4, 0x18000179c <_ftoa+0x18c>
1800019c0: 13 07 03 02 	addi	a4, t1, 0x20
1800019c4: 33 07 27 00 	add	a4, a4, sp
1800019c8: 93 06 00 02 	li	a3, 0x20
1800019cc: 23 00 d7 fe 	sb	a3, -0x20(a4)
1800019d0: 13 03 13 00 	addi	t1, t1, 0x1
1800019d4: 6f f0 9f dc 	j	0x18000179c <_ftoa+0x18c>
1800019d8: 13 83 0e 00 	mv	t1, t4
1800019dc: 13 07 03 02 	addi	a4, t1, 0x20
1800019e0: 33 07 27 00 	add	a4, a4, sp
1800019e4: 93 06 e0 02 	li	a3, 0x2e
1800019e8: 13 03 13 00 	addi	t1, t1, 0x1
1800019ec: 23 00 d7 fe 	sb	a3, -0x20(a4)
1800019f0: 6f f0 9f d5 	j	0x180001748 <_ftoa+0x138>
1800019f4: 13 07 03 02 	addi	a4, t1, 0x20
1800019f8: 33 07 27 00 	add	a4, a4, sp
1800019fc: 93 06 b0 02 	li	a3, 0x2b
180001a00: 23 00 d7 fe 	sb	a3, -0x20(a4)
180001a04: 13 03 13 00 	addi	t1, t1, 0x1
180001a08: 6f f0 5f d9 	j	0x18000179c <_ftoa+0x18c>
180001a0c: 93 76 17 00 	andi	a3, a4, 0x1
180001a10: e3 88 06 d0 	beqz	a3, 0x180001720 <_ftoa+0x110>
180001a14: 13 07 17 00 	addi	a4, a4, 0x1
180001a18: 6f f0 9f d0 	j	0x180001720 <_ftoa+0x110>
180001a1c: 9b 87 f7 ff 	addiw	a5, a5, -0x1
180001a20: 13 96 07 02 	slli	a2, a5, 0x20
180001a24: 13 56 06 02 	srli	a2, a2, 0x20
180001a28: e3 60 c3 ea 	bltu	t1, a2, 0x1800018c8 <_ftoa+0x2b8>
180001a2c: 6f f0 1f d5 	j	0x18000177c <_ftoa+0x16c>
180001a30: 93 16 07 02 	slli	a3, a4, 0x20
180001a34: 13 d6 d6 01 	srli	a2, a3, 0x1d
180001a38: 97 16 00 00 	auipc	a3, 0x1
180001a3c: 93 86 86 7c 	addi	a3, a3, 0x7c8
180001a40: b3 86 c6 00 	add	a3, a3, a2
180001a44: 07 b7 06 00 	fld	fa4, 0x0(a3)
180001a48: 93 0f 07 00 	mv	t6, a4
180001a4c: 13 03 00 00 	li	t1, 0x0
180001a50: 13 0f 01 00 	mv	t5, sp
180001a54: 6f f0 5f c8 	j	0x1800016d8 <_ftoa+0xc8>
180001a58: e3 82 07 d2 	beqz	a5, 0x18000177c <_ftoa+0x16c>
180001a5c: 6f f0 5f e5 	j	0x1800018b0 <_ftoa+0x2a0>

0000000180001a60 <_etoa>:
180001a60: d3 28 a5 a2 	feq.d	a7, fa0, fa0
180001a64: 13 01 01 f9 	addi	sp, sp, -0x70
180001a68: 23 30 81 06 	sd	s0, 0x60(sp)
180001a6c: 23 38 21 05 	sd	s2, 0x50(sp)
180001a70: 23 34 31 05 	sd	s3, 0x48(sp)
180001a74: 23 30 41 05 	sd	s4, 0x40(sp)
180001a78: 23 3c 51 03 	sd	s5, 0x38(sp)
180001a7c: 23 38 61 03 	sd	s6, 0x30(sp)
180001a80: 23 34 11 06 	sd	ra, 0x68(sp)
180001a84: 23 3c 91 04 	sd	s1, 0x58(sp)
180001a88: 23 34 71 03 	sd	s7, 0x28(sp)
180001a8c: 23 30 81 03 	sd	s8, 0x20(sp)
180001a90: 23 3c 91 01 	sd	s9, 0x18(sp)
180001a94: 13 0a 05 00 	mv	s4, a0
180001a98: 93 8a 05 00 	mv	s5, a1
180001a9c: 13 09 06 00 	mv	s2, a2
180001aa0: 13 8b 06 00 	mv	s6, a3
180001aa4: 93 89 07 00 	mv	s3, a5
180001aa8: 13 04 08 00 	mv	s0, a6
180001aac: 63 84 08 2e 	beqz	a7, 0x180001d94 <_etoa+0x334>
180001ab0: 97 37 00 00 	auipc	a5, 0x3
180001ab4: 87 b7 07 86 	fld	fa5, -0x7a0(a5)
180001ab8: d3 97 a7 a2 	flt.d	a5, fa5, fa0
180001abc: 63 9c 07 2c 	bnez	a5, 0x180001d94 <_etoa+0x334>
180001ac0: 97 37 00 00 	auipc	a5, 0x3
180001ac4: 87 b7 87 84 	fld	fa5, -0x7b8(a5)
180001ac8: d3 17 f5 a2 	flt.d	a5, fa0, fa5
180001acc: 63 94 07 2c 	bnez	a5, 0x180001d94 <_etoa+0x334>
180001ad0: d3 07 00 f2 	fmv.d.x	fa5, zero
180001ad4: d3 06 05 e2 	fmv.x.d	a3, fa0
180001ad8: d3 17 f5 a2 	flt.d	a5, fa0, fa5
180001adc: 63 86 07 00 	beqz	a5, 0x180001ae8 <_etoa+0x88>
180001ae0: d3 17 a5 22 	fneg.d	fa5, fa0
180001ae4: d3 86 07 e2 	fmv.x.d	a3, fa5
180001ae8: 93 75 04 40 	andi	a1, s0, 0x400
180001aec: 63 94 05 00 	bnez	a1, 0x180001af4 <_etoa+0x94>
180001af0: 13 07 60 00 	li	a4, 0x6
180001af4: 93 d7 46 03 	srli	a5, a3, 0x34
180001af8: 93 f7 f7 7f 	andi	a5, a5, 0x7ff
180001afc: 17 36 00 00 	auipc	a2, 0x3
180001b00: 87 36 c6 82 	fld	fa3, -0x7d4(a2)
180001b04: 17 36 00 00 	auipc	a2, 0x3
180001b08: 07 37 c6 82 	fld	fa4, -0x7d4(a2)
180001b0c: 9b 87 17 c0 	addiw	a5, a5, -0x3ff
180001b10: 53 86 07 d2 	fcvt.d.w	fa2, a5
180001b14: 13 06 f0 3f 	li	a2, 0x3ff
180001b18: 93 97 c6 00 	slli	a5, a3, 0xc
180001b1c: 13 16 46 03 	slli	a2, a2, 0x34
180001b20: 93 d7 c7 00 	srli	a5, a5, 0xc
180001b24: b3 e7 c7 00 	or	a5, a5, a2
180001b28: 43 76 d6 72 	fmadd.d	fa2, fa2, fa3, fa4
180001b2c: 53 87 07 f2 	fmv.d.x	fa4, a5
180001b30: 17 36 00 00 	auipc	a2, 0x3
180001b34: 87 37 86 80 	fld	fa5, -0x7f8(a2)
180001b38: 97 37 00 00 	auipc	a5, 0x3
180001b3c: 87 b5 87 80 	fld	fa1, -0x7f8(a5)
180001b40: d3 77 f7 0a 	fsub.d	fa5, fa4, fa5
180001b44: 97 37 00 00 	auipc	a5, 0x3
180001b48: 87 b6 47 80 	fld	fa3, -0x7fc(a5)
180001b4c: 97 27 00 00 	auipc	a5, 0x2
180001b50: 07 b2 47 7d 	fld	ft4, 0x7d4(a5)
180001b54: 97 27 00 00 	auipc	a5, 0x2
180001b58: 87 b1 c7 7f 	fld	ft3, 0x7fc(a5)
180001b5c: 97 27 00 00 	auipc	a5, 0x2
180001b60: 07 b1 c7 7f 	fld	ft2, 0x7fc(a5)
180001b64: 97 27 00 00 	auipc	a5, 0x2
180001b68: 07 b7 c7 7f 	fld	fa4, 0x7fc(a5)
180001b6c: 97 37 00 00 	auipc	a5, 0x3
180001b70: 87 b0 47 80 	fld	ft1, -0x7fc(a5)
180001b74: c3 f7 b7 62 	fmadd.d	fa5, fa5, fa1, fa2
180001b78: 97 37 00 00 	auipc	a5, 0x3
180001b7c: 07 b0 87 80 	fld	ft0, -0x7f8(a5)
180001b80: 97 27 00 00 	auipc	a5, 0x2
180001b84: 87 b5 87 7e 	fld	fa1, 0x7e8(a5)
180001b88: 97 27 00 00 	auipc	a5, 0x2
180001b8c: 07 b6 07 7f 	fld	fa2, 0x7f0(a5)
180001b90: 53 96 07 c2 	fcvt.w.d	a2, fa5, rtz
180001b94: d3 07 06 d2 	fcvt.d.w	fa5, a2
180001b98: 1b 0c 06 00 	sext.w	s8, a2
180001b9c: c3 f6 d7 22 	fmadd.d	fa3, fa5, fa3, ft4
180001ba0: d3 97 06 c2 	fcvt.w.d	a5, fa3, rtz
180001ba4: d3 86 07 d2 	fcvt.d.w	fa3, a5
180001ba8: 9b 87 f7 3f 	addiw	a5, a5, 0x3ff
180001bac: 93 97 47 03 	slli	a5, a5, 0x34
180001bb0: d3 f6 36 12 	fmul.d	fa3, fa3, ft3
180001bb4: c7 f7 27 6a 	fmsub.d	fa5, fa5, ft2, fa3
180001bb8: d3 f6 f7 12 	fmul.d	fa3, fa5, fa5
180001bbc: 53 76 f6 0a 	fsub.d	fa2, fa2, fa5
180001bc0: d3 f7 f7 02 	fadd.d	fa5, fa5, fa5
180001bc4: 53 f7 e6 1a 	fdiv.d	fa4, fa3, fa4
180001bc8: 53 77 b7 02 	fadd.d	fa4, fa4, fa1
180001bcc: 53 f7 e6 1a 	fdiv.d	fa4, fa3, fa4
180001bd0: 53 77 17 02 	fadd.d	fa4, fa4, ft1
180001bd4: d3 f6 e6 1a 	fdiv.d	fa3, fa3, fa4
180001bd8: 53 87 07 f2 	fmv.d.x	fa4, a5
180001bdc: d3 f6 c6 02 	fadd.d	fa3, fa3, fa2
180001be0: d3 f7 d7 1a 	fdiv.d	fa5, fa5, fa3
180001be4: d3 f7 07 02 	fadd.d	fa5, fa5, ft0
180001be8: d3 f7 e7 12 	fmul.d	fa5, fa5, fa4
180001bec: 53 87 06 f2 	fmv.d.x	fa4, a3
180001bf0: d3 17 f7 a2 	flt.d	a5, fa4, fa5
180001bf4: 63 86 07 00 	beqz	a5, 0x180001c00 <_etoa+0x1a0>
180001bf8: d3 f7 b7 1a 	fdiv.d	fa5, fa5, fa1
180001bfc: 1b 0c f6 ff 	addiw	s8, a2, -0x1
180001c00: 9b 0c 3c 06 	addiw	s9, s8, 0x63
180001c04: 93 57 b4 00 	srli	a5, s0, 0xb
180001c08: 13 06 60 0c 	li	a2, 0xc6
180001c0c: b3 3c 96 01 	sltu	s9, a2, s9
180001c10: 93 f7 17 00 	andi	a5, a5, 0x1
180001c14: 93 8c 4c 00 	addi	s9, s9, 0x4
180001c18: 63 84 07 04 	beqz	a5, 0x180001c60 <_etoa+0x200>
180001c1c: d3 86 06 f2 	fmv.d.x	fa3, a3
180001c20: 97 27 00 00 	auipc	a5, 0x2
180001c24: 07 b7 87 76 	fld	fa4, 0x768(a5)
180001c28: d3 07 d7 a2 	fle.d	a5, fa4, fa3
180001c2c: 63 82 07 1c 	beqz	a5, 0x180001df0 <_etoa+0x390>
180001c30: 97 27 00 00 	auipc	a5, 0x2
180001c34: 07 b7 07 6d 	fld	fa4, 0x6d0(a5)
180001c38: d3 97 e6 a2 	flt.d	a5, fa3, fa4
180001c3c: 63 8a 07 1a 	beqz	a5, 0x180001df0 <_etoa+0x390>
180001c40: 9b 07 07 00 	sext.w	a5, a4
180001c44: 13 07 00 00 	li	a4, 0x0
180001c48: 63 56 fc 00 	bge	s8, a5, 0x180001c54 <_etoa+0x1f4>
180001c4c: bb 87 87 41 	subw	a5, a5, s8
180001c50: 1b 87 f7 ff 	addiw	a4, a5, -0x1
180001c54: 13 64 04 40 	ori	s0, s0, 0x400
180001c58: 93 0c 00 00 	li	s9, 0x0
180001c5c: 13 0c 00 00 	li	s8, 0x0
180001c60: 93 07 00 00 	li	a5, 0x0
180001c64: 63 f4 3c 01 	bgeu	s9, s3, 0x180001c6c <_etoa+0x20c>
180001c68: bb 87 99 41 	subw	a5, s3, s9
180001c6c: 93 7b 24 00 	andi	s7, s0, 0x2
180001c70: 63 88 0b 00 	beqz	s7, 0x180001c80 <_etoa+0x220>
180001c74: 13 b6 1c 00 	seqz	a2, s9
180001c78: 33 06 c0 40 	neg	a2, a2
180001c7c: b3 f7 c7 00 	and	a5, a5, a2
180001c80: 63 10 0c 16 	bnez	s8, 0x180001de0 <_etoa+0x380>
180001c84: d3 07 00 f2 	fmv.d.x	fa5, zero
180001c88: 53 16 f5 a2 	flt.d	a2, fa0, fa5
180001c8c: 63 08 06 00 	beqz	a2, 0x180001c9c <_etoa+0x23c>
180001c90: d3 87 06 f2 	fmv.d.x	fa5, a3
180001c94: d3 97 f7 22 	fneg.d	fa5, fa5
180001c98: d3 86 07 e2 	fmv.x.d	a3, fa5
180001c9c: 53 85 06 f2 	fmv.d.x	fa0, a3
180001ca0: 37 f8 ff ff 	lui	a6, 0xfffff
180001ca4: 13 08 f8 7f 	addi	a6, a6, 0x7ff
180001ca8: 33 78 04 01 	and	a6, s0, a6
180001cac: 93 06 0b 00 	mv	a3, s6
180001cb0: 13 06 09 00 	mv	a2, s2
180001cb4: 93 85 0a 00 	mv	a1, s5
180001cb8: 13 05 0a 00 	mv	a0, s4
180001cbc: ef f0 5f 95 	jal	0x180001610 <_ftoa>
180001cc0: 93 04 05 00 	mv	s1, a0
180001cc4: 63 8c 0c 08 	beqz	s9, 0x180001d5c <_etoa+0x2fc>
180001cc8: 13 74 04 02 	andi	s0, s0, 0x20
180001ccc: 13 05 50 06 	li	a0, 0x65
180001cd0: 63 04 04 00 	beqz	s0, 0x180001cd8 <_etoa+0x278>
180001cd4: 13 05 50 04 	li	a0, 0x45
180001cd8: 13 86 04 00 	mv	a2, s1
180001cdc: 93 06 0b 00 	mv	a3, s6
180001ce0: 93 85 0a 00 	mv	a1, s5
180001ce4: e7 00 0a 00 	jalr	s4
180001ce8: 1b 57 fc 41 	sraiw	a4, s8, 0x1f
180001cec: b3 46 ec 00 	xor	a3, s8, a4
180001cf0: 9b 87 fc ff 	addiw	a5, s9, -0x1
180001cf4: 93 05 50 00 	li	a1, 0x5
180001cf8: 13 86 14 00 	addi	a2, s1, 0x1
180001cfc: 23 34 b1 00 	sd	a1, 0x8(sp)
180001d00: 23 30 f1 00 	sd	a5, 0x0(sp)
180001d04: 3b 87 e6 40 	subw	a4, a3, a4
180001d08: 93 08 00 00 	li	a7, 0x0
180001d0c: 13 08 a0 00 	li	a6, 0xa
180001d10: 9b 57 fc 01 	srliw	a5, s8, 0x1f
180001d14: 93 06 0b 00 	mv	a3, s6
180001d18: 93 85 0a 00 	mv	a1, s5
180001d1c: 13 05 0a 00 	mv	a0, s4
180001d20: ef f0 8f cd 	jal	0x1800011f8 <_ntoa_long_long>
180001d24: 93 04 05 00 	mv	s1, a0
180001d28: 63 8a 0b 02 	beqz	s7, 0x180001d5c <_etoa+0x2fc>
180001d2c: 93 99 09 02 	slli	s3, s3, 0x20
180001d30: 33 09 25 41 	sub	s2, a0, s2
180001d34: 93 d9 09 02 	srli	s3, s3, 0x20
180001d38: 63 72 39 03 	bgeu	s2, s3, 0x180001d5c <_etoa+0x2fc>
180001d3c: 13 86 04 00 	mv	a2, s1
180001d40: 13 09 19 00 	addi	s2, s2, 0x1
180001d44: 93 06 0b 00 	mv	a3, s6
180001d48: 93 85 0a 00 	mv	a1, s5
180001d4c: 13 05 00 02 	li	a0, 0x20
180001d50: 93 84 14 00 	addi	s1, s1, 0x1
180001d54: e7 00 0a 00 	jalr	s4
180001d58: e3 62 39 ff 	bltu	s2, s3, 0x180001d3c <_etoa+0x2dc>
180001d5c: 83 30 81 06 	ld	ra, 0x68(sp)
180001d60: 03 34 01 06 	ld	s0, 0x60(sp)
180001d64: 03 39 01 05 	ld	s2, 0x50(sp)
180001d68: 83 39 81 04 	ld	s3, 0x48(sp)
180001d6c: 03 3a 01 04 	ld	s4, 0x40(sp)
180001d70: 83 3a 81 03 	ld	s5, 0x38(sp)
180001d74: 03 3b 01 03 	ld	s6, 0x30(sp)
180001d78: 83 3b 81 02 	ld	s7, 0x28(sp)
180001d7c: 03 3c 01 02 	ld	s8, 0x20(sp)
180001d80: 83 3c 81 01 	ld	s9, 0x18(sp)
180001d84: 13 85 04 00 	mv	a0, s1
180001d88: 83 34 81 05 	ld	s1, 0x58(sp)
180001d8c: 13 01 01 07 	addi	sp, sp, 0x70
180001d90: 67 80 00 00 	ret
180001d94: 13 08 04 00 	mv	a6, s0
180001d98: 03 34 01 06 	ld	s0, 0x60(sp)
180001d9c: 83 30 81 06 	ld	ra, 0x68(sp)
180001da0: 83 34 81 05 	ld	s1, 0x58(sp)
180001da4: 83 3b 81 02 	ld	s7, 0x28(sp)
180001da8: 03 3c 01 02 	ld	s8, 0x20(sp)
180001dac: 83 3c 81 01 	ld	s9, 0x18(sp)
180001db0: 93 87 09 00 	mv	a5, s3
180001db4: 93 06 0b 00 	mv	a3, s6
180001db8: 83 39 81 04 	ld	s3, 0x48(sp)
180001dbc: 03 3b 01 03 	ld	s6, 0x30(sp)
180001dc0: 13 06 09 00 	mv	a2, s2
180001dc4: 93 85 0a 00 	mv	a1, s5
180001dc8: 03 39 01 05 	ld	s2, 0x50(sp)
180001dcc: 83 3a 81 03 	ld	s5, 0x38(sp)
180001dd0: 13 05 0a 00 	mv	a0, s4
180001dd4: 03 3a 01 04 	ld	s4, 0x40(sp)
180001dd8: 13 01 01 07 	addi	sp, sp, 0x70
180001ddc: 6f f0 5f 83 	j	0x180001610 <_ftoa>
180001de0: 53 87 06 f2 	fmv.d.x	fa4, a3
180001de4: d3 77 f7 1a 	fdiv.d	fa5, fa4, fa5
180001de8: d3 86 07 e2 	fmv.x.d	a3, fa5
180001dec: 6f f0 9f e9 	j	0x180001c84 <_etoa+0x224>
180001df0: e3 08 07 e6 	beqz	a4, 0x180001c60 <_etoa+0x200>
180001df4: e3 86 05 e6 	beqz	a1, 0x180001c60 <_etoa+0x200>
180001df8: 1b 07 f7 ff 	addiw	a4, a4, -0x1
180001dfc: 6f f0 5f e6 	j	0x180001c60 <_etoa+0x200>

0000000180001e00 <_vsnprintf>:
180001e00: 13 01 01 f6 	addi	sp, sp, -0xa0
180001e04: 23 34 91 08 	sd	s1, 0x88(sp)
180001e08: 23 30 21 09 	sd	s2, 0x80(sp)
180001e0c: 23 3c 31 07 	sd	s3, 0x78(sp)
180001e10: 23 34 51 07 	sd	s5, 0x68(sp)
180001e14: 23 38 81 05 	sd	s8, 0x50(sp)
180001e18: 23 3c 11 08 	sd	ra, 0x98(sp)
180001e1c: 23 38 81 08 	sd	s0, 0x90(sp)
180001e20: 23 38 41 07 	sd	s4, 0x70(sp)
180001e24: 23 30 61 07 	sd	s6, 0x60(sp)
180001e28: 23 3c 71 05 	sd	s7, 0x58(sp)
180001e2c: 23 34 91 05 	sd	s9, 0x48(sp)
180001e30: 23 30 a1 05 	sd	s10, 0x40(sp)
180001e34: 23 3c b1 03 	sd	s11, 0x38(sp)
180001e38: 13 89 05 00 	mv	s2, a1
180001e3c: 93 04 06 00 	mv	s1, a2
180001e40: 93 8a 06 00 	mv	s5, a3
180001e44: 13 0c 07 00 	mv	s8, a4
180001e48: 97 f9 ff ff 	auipc	s3, 0xfffff
180001e4c: 93 89 09 27 	addi	s3, s3, 0x270
180001e50: 63 84 05 00 	beqz	a1, 0x180001e58 <_vsnprintf+0x58>
180001e54: 93 09 05 00 	mv	s3, a0
180001e58: 03 c5 0a 00 	lbu	a0, 0x0(s5)
180001e5c: 93 0b 00 00 	li	s7, 0x0
180001e60: 63 0e 05 6a 	beqz	a0, 0x18000251c <_vsnprintf+0x71c>
180001e64: b7 97 00 00 	lui	a5, 0x9
180001e68: 93 87 17 04 	addi	a5, a5, 0x41
180001e6c: 13 0a 50 02 	li	s4, 0x25
180001e70: 17 1b 00 00 	auipc	s6, 0x1
180001e74: 13 0b 0b 1f 	addi	s6, s6, 0x1f0
180001e78: 23 3c f1 00 	sd	a5, 0x18(sp)
180001e7c: 6f 00 00 02 	j	0x180001e9c <_vsnprintf+0x9c>
180001e80: 13 86 0b 00 	mv	a2, s7
180001e84: 93 86 04 00 	mv	a3, s1
180001e88: 93 05 09 00 	mv	a1, s2
180001e8c: 93 8b 1b 00 	addi	s7, s7, 0x1
180001e90: e7 80 09 00 	jalr	s3
180001e94: 03 c5 0a 00 	lbu	a0, 0x0(s5)
180001e98: 63 06 05 1a 	beqz	a0, 0x180002044 <_vsnprintf+0x244>
180001e9c: 93 8a 1a 00 	addi	s5, s5, 0x1
180001ea0: e3 10 45 ff 	bne	a0, s4, 0x180001e80 <_vsnprintf+0x80>
180001ea4: 13 04 00 00 	li	s0, 0x0
180001ea8: 13 07 00 01 	li	a4, 0x10
180001eac: 03 c5 0a 00 	lbu	a0, 0x0(s5)
180001eb0: 93 86 1a 00 	addi	a3, s5, 0x1
180001eb4: 9b 07 05 fe 	addiw	a5, a0, -0x20
180001eb8: 93 f7 f7 0f 	andi	a5, a5, 0xff
180001ebc: 63 6c f7 00 	bltu	a4, a5, 0x180001ed4 <_vsnprintf+0xd4>
180001ec0: 93 97 27 00 	slli	a5, a5, 0x2
180001ec4: b3 87 67 01 	add	a5, a5, s6
180001ec8: 83 a7 07 00 	lw	a5, 0x0(a5)
180001ecc: b3 87 67 01 	add	a5, a5, s6
180001ed0: 67 80 07 00 	jr	a5
180001ed4: 9b 07 05 fd 	addiw	a5, a0, -0x30
180001ed8: 93 f7 f7 0f 	andi	a5, a5, 0xff
180001edc: 13 07 90 00 	li	a4, 0x9
180001ee0: 63 72 f7 1c 	bgeu	a4, a5, 0x1800020a4 <_vsnprintf+0x2a4>
180001ee4: 13 07 a0 02 	li	a4, 0x2a
180001ee8: 93 0d 00 00 	li	s11, 0x0
180001eec: 63 06 e5 22 	beq	a0, a4, 0x180002118 <_vsnprintf+0x318>
180001ef0: 13 07 e0 02 	li	a4, 0x2e
180001ef4: 93 0c 00 00 	li	s9, 0x0
180001ef8: 63 06 e5 1e 	beq	a0, a4, 0x1800020e4 <_vsnprintf+0x2e4>
180001efc: 1b 06 85 f9 	addiw	a2, a0, -0x68
180001f00: 13 76 f6 0f 	andi	a2, a2, 0xff
180001f04: 13 07 20 01 	li	a4, 0x12
180001f08: 63 60 c7 08 	bltu	a4, a2, 0x180001f88 <_vsnprintf+0x188>
180001f0c: 97 17 00 00 	auipc	a5, 0x1
180001f10: 93 87 87 19 	addi	a5, a5, 0x198
180001f14: 13 16 26 00 	slli	a2, a2, 0x2
180001f18: 33 06 f6 00 	add	a2, a2, a5
180001f1c: 03 27 06 00 	lw	a4, 0x0(a2)
180001f20: 33 07 f7 00 	add	a4, a4, a5
180001f24: 67 00 07 00 	jr	a4
180001f28: 13 64 14 00 	ori	s0, s0, 0x1
180001f2c: 1b 04 04 00 	sext.w	s0, s0
180001f30: 93 8a 06 00 	mv	s5, a3
180001f34: 6f f0 9f f7 	j	0x180001eac <_vsnprintf+0xac>
180001f38: 13 64 24 00 	ori	s0, s0, 0x2
180001f3c: 1b 04 04 00 	sext.w	s0, s0
180001f40: 93 8a 06 00 	mv	s5, a3
180001f44: 6f f0 9f f6 	j	0x180001eac <_vsnprintf+0xac>
180001f48: 13 64 44 00 	ori	s0, s0, 0x4
180001f4c: 1b 04 04 00 	sext.w	s0, s0
180001f50: 93 8a 06 00 	mv	s5, a3
180001f54: 6f f0 9f f5 	j	0x180001eac <_vsnprintf+0xac>
180001f58: 13 64 04 01 	ori	s0, s0, 0x10
180001f5c: 1b 04 04 00 	sext.w	s0, s0
180001f60: 93 8a 06 00 	mv	s5, a3
180001f64: 6f f0 9f f4 	j	0x180001eac <_vsnprintf+0xac>
180001f68: 13 64 84 00 	ori	s0, s0, 0x8
180001f6c: 1b 04 04 00 	sext.w	s0, s0
180001f70: 93 8a 06 00 	mv	s5, a3
180001f74: 6f f0 9f f3 	j	0x180001eac <_vsnprintf+0xac>
180001f78: 03 c5 1a 00 	lbu	a0, 0x1(s5)
180001f7c: 13 64 04 10 	ori	s0, s0, 0x100
180001f80: 1b 04 04 00 	sext.w	s0, s0
180001f84: 93 86 16 00 	addi	a3, a3, 0x1
180001f88: 13 07 70 06 	li	a4, 0x67
180001f8c: 93 8a 06 00 	mv	s5, a3
180001f90: 63 6c a7 02 	bltu	a4, a0, 0x180001fc8 <_vsnprintf+0x1c8>
180001f94: 13 07 40 02 	li	a4, 0x24
180001f98: e3 74 a7 ee 	bgeu	a4, a0, 0x180001e80 <_vsnprintf+0x80>
180001f9c: 1b 07 b5 fd 	addiw	a4, a0, -0x25
180001fa0: 13 77 f7 0f 	andi	a4, a4, 0xff
180001fa4: 93 06 20 04 	li	a3, 0x42
180001fa8: e3 ec e6 ec 	bltu	a3, a4, 0x180001e80 <_vsnprintf+0x80>
180001fac: 97 17 00 00 	auipc	a5, 0x1
180001fb0: 93 87 47 14 	addi	a5, a5, 0x144
180001fb4: 13 17 27 00 	slli	a4, a4, 0x2
180001fb8: 33 07 f7 00 	add	a4, a4, a5
180001fbc: 03 27 07 00 	lw	a4, 0x0(a4)
180001fc0: 33 07 f7 00 	add	a4, a4, a5
180001fc4: 67 00 07 00 	jr	a4
180001fc8: 1b 07 75 f9 	addiw	a4, a0, -0x69
180001fcc: 13 77 f7 0f 	andi	a4, a4, 0xff
180001fd0: 93 06 f0 00 	li	a3, 0xf
180001fd4: e3 e6 e6 ea 	bltu	a3, a4, 0x180001e80 <_vsnprintf+0x80>
180001fd8: 83 37 81 01 	ld	a5, 0x18(sp)
180001fdc: 93 06 10 00 	li	a3, 0x1
180001fe0: b3 96 e6 00 	sll	a3, a3, a4
180001fe4: b3 f6 f6 00 	and	a3, a3, a5
180001fe8: 63 92 06 4e 	bnez	a3, 0x1800024cc <_vsnprintf+0x6cc>
180001fec: 93 06 a0 00 	li	a3, 0xa
180001ff0: 63 00 d7 2a 	beq	a4, a3, 0x180002290 <_vsnprintf+0x490>
180001ff4: 93 07 70 00 	li	a5, 0x7
180001ff8: e3 14 f7 e8 	bne	a4, a5, 0x180001e80 <_vsnprintf+0x80>
180001ffc: 93 67 14 02 	ori	a5, s0, 0x21
180002000: 03 37 0c 00 	ld	a4, 0x0(s8)
180002004: 9b 87 07 00 	sext.w	a5, a5
180002008: 23 34 f1 00 	sd	a5, 0x8(sp)
18000200c: 93 07 00 01 	li	a5, 0x10
180002010: 13 86 0b 00 	mv	a2, s7
180002014: 23 30 f1 00 	sd	a5, 0x0(sp)
180002018: 93 88 0c 00 	mv	a7, s9
18000201c: 13 08 00 01 	li	a6, 0x10
180002020: 93 07 00 00 	li	a5, 0x0
180002024: 93 86 04 00 	mv	a3, s1
180002028: 93 05 09 00 	mv	a1, s2
18000202c: 13 85 09 00 	mv	a0, s3
180002030: ef f0 8f 9c 	jal	0x1800011f8 <_ntoa_long_long>
180002034: 93 0b 05 00 	mv	s7, a0
180002038: 03 c5 0a 00 	lbu	a0, 0x0(s5)
18000203c: 13 0c 8c 00 	addi	s8, s8, 0x8
180002040: e3 1e 05 e4 	bnez	a0, 0x180001e9c <_vsnprintf+0x9c>
180002044: 1b 84 0b 00 	sext.w	s0, s7
180002048: 63 e4 9b 00 	bltu	s7, s1, 0x180002050 <_vsnprintf+0x250>
18000204c: 93 8b f4 ff 	addi	s7, s1, -0x1
180002050: 93 86 04 00 	mv	a3, s1
180002054: 13 86 0b 00 	mv	a2, s7
180002058: 93 05 09 00 	mv	a1, s2
18000205c: 13 05 00 00 	li	a0, 0x0
180002060: e7 80 09 00 	jalr	s3
180002064: 83 30 81 09 	ld	ra, 0x98(sp)
180002068: 13 05 04 00 	mv	a0, s0
18000206c: 03 34 01 09 	ld	s0, 0x90(sp)
180002070: 83 34 81 08 	ld	s1, 0x88(sp)
180002074: 03 39 01 08 	ld	s2, 0x80(sp)
180002078: 83 39 81 07 	ld	s3, 0x78(sp)
18000207c: 03 3a 01 07 	ld	s4, 0x70(sp)
180002080: 83 3a 81 06 	ld	s5, 0x68(sp)
180002084: 03 3b 01 06 	ld	s6, 0x60(sp)
180002088: 83 3b 81 05 	ld	s7, 0x58(sp)
18000208c: 03 3c 01 05 	ld	s8, 0x50(sp)
180002090: 83 3c 81 04 	ld	s9, 0x48(sp)
180002094: 03 3d 01 04 	ld	s10, 0x40(sp)
180002098: 83 3d 81 03 	ld	s11, 0x38(sp)
18000209c: 13 01 01 0a 	addi	sp, sp, 0xa0
1800020a0: 67 80 00 00 	ret
1800020a4: 93 0d 00 00 	li	s11, 0x0
1800020a8: 13 06 90 00 	li	a2, 0x9
1800020ac: 1b 97 2d 00 	slliw	a4, s11, 0x2
1800020b0: 3b 07 b7 01 	addw	a4, a4, s11
1800020b4: 1b 17 17 00 	slliw	a4, a4, 0x1
1800020b8: 3b 07 a7 00 	addw	a4, a4, a0
1800020bc: 03 c5 06 00 	lbu	a0, 0x0(a3)
1800020c0: 9b 0d 07 fd 	addiw	s11, a4, -0x30
1800020c4: 93 8a 06 00 	mv	s5, a3
1800020c8: 1b 07 05 fd 	addiw	a4, a0, -0x30
1800020cc: 13 77 f7 0f 	andi	a4, a4, 0xff
1800020d0: 93 86 16 00 	addi	a3, a3, 0x1
1800020d4: e3 7c e6 fc 	bgeu	a2, a4, 0x1800020ac <_vsnprintf+0x2ac>
1800020d8: 13 07 e0 02 	li	a4, 0x2e
1800020dc: 93 0c 00 00 	li	s9, 0x0
1800020e0: e3 1e e5 e0 	bne	a0, a4, 0x180001efc <_vsnprintf+0xfc>
1800020e4: 03 c5 1a 00 	lbu	a0, 0x1(s5)
1800020e8: 13 64 04 40 	ori	s0, s0, 0x400
1800020ec: 93 05 90 00 	li	a1, 0x9
1800020f0: 1b 07 05 fd 	addiw	a4, a0, -0x30
1800020f4: 13 77 f7 0f 	andi	a4, a4, 0xff
1800020f8: 13 86 06 00 	mv	a2, a3
1800020fc: 1b 04 04 00 	sext.w	s0, s0
180002100: 63 f0 e5 24 	bgeu	a1, a4, 0x180002340 <_vsnprintf+0x540>
180002104: 13 07 a0 02 	li	a4, 0x2a
180002108: 63 08 e5 26 	beq	a0, a4, 0x180002378 <_vsnprintf+0x578>
18000210c: 93 8a 06 00 	mv	s5, a3
180002110: 93 86 16 00 	addi	a3, a3, 0x1
180002114: 6f f0 9f de 	j	0x180001efc <_vsnprintf+0xfc>
180002118: 03 27 0c 00 	lw	a4, 0x0(s8)
18000211c: 13 0c 8c 00 	addi	s8, s8, 0x8
180002120: 9b 0d 07 00 	sext.w	s11, a4
180002124: 63 4a 07 00 	bltz	a4, 0x180002138 <_vsnprintf+0x338>
180002128: 03 c5 1a 00 	lbu	a0, 0x1(s5)
18000212c: 93 8a 06 00 	mv	s5, a3
180002130: 93 86 16 00 	addi	a3, a3, 0x1
180002134: 6f f0 df db 	j	0x180001ef0 <_vsnprintf+0xf0>
180002138: 13 64 24 00 	ori	s0, s0, 0x2
18000213c: 03 c5 1a 00 	lbu	a0, 0x1(s5)
180002140: 1b 04 04 00 	sext.w	s0, s0
180002144: 93 8a 06 00 	mv	s5, a3
180002148: bb 0d e0 40 	negw	s11, a4
18000214c: 93 86 16 00 	addi	a3, a3, 0x1
180002150: 6f f0 1f da 	j	0x180001ef0 <_vsnprintf+0xf0>
180002154: 13 07 70 06 	li	a4, 0x67
180002158: 63 0e e5 30 	beq	a0, a4, 0x180002474 <_vsnprintf+0x674>
18000215c: 13 07 70 04 	li	a4, 0x47
180002160: 63 06 e5 38 	beq	a0, a4, 0x1800024ec <_vsnprintf+0x6ec>
180002164: 13 07 50 04 	li	a4, 0x45
180002168: 63 0a e5 38 	beq	a0, a4, 0x1800024fc <_vsnprintf+0x6fc>
18000216c: 07 35 0c 00 	fld	fa0, 0x0(s8)
180002170: 13 86 0b 00 	mv	a2, s7
180002174: 13 08 04 00 	mv	a6, s0
180002178: 93 87 0d 00 	mv	a5, s11
18000217c: 13 87 0c 00 	mv	a4, s9
180002180: 93 86 04 00 	mv	a3, s1
180002184: 93 05 09 00 	mv	a1, s2
180002188: 13 85 09 00 	mv	a0, s3
18000218c: ef f0 5f 8d 	jal	0x180001a60 <_etoa>
180002190: 13 0c 8c 00 	addi	s8, s8, 0x8
180002194: 93 0b 05 00 	mv	s7, a0
180002198: 6f f0 df cf 	j	0x180001e94 <_vsnprintf+0x94>
18000219c: 03 c5 1a 00 	lbu	a0, 0x1(s5)
1800021a0: 13 07 c0 06 	li	a4, 0x6c
1800021a4: e3 1c e5 dc 	bne	a0, a4, 0x180001f7c <_vsnprintf+0x17c>
1800021a8: 13 64 04 30 	ori	s0, s0, 0x300
1800021ac: 03 c5 2a 00 	lbu	a0, 0x2(s5)
1800021b0: 1b 04 04 00 	sext.w	s0, s0
1800021b4: 93 86 3a 00 	addi	a3, s5, 0x3
1800021b8: 6f f0 1f dd 	j	0x180001f88 <_vsnprintf+0x188>
1800021bc: 03 c5 1a 00 	lbu	a0, 0x1(s5)
1800021c0: 13 07 80 06 	li	a4, 0x68
1800021c4: 63 02 e5 34 	beq	a0, a4, 0x180002508 <_vsnprintf+0x708>
1800021c8: 13 64 04 08 	ori	s0, s0, 0x80
1800021cc: 1b 04 04 00 	sext.w	s0, s0
1800021d0: 93 86 16 00 	addi	a3, a3, 0x1
1800021d4: 6f f0 5f db 	j	0x180001f88 <_vsnprintf+0x188>
1800021d8: 13 07 60 04 	li	a4, 0x46
1800021dc: 63 06 e5 28 	beq	a0, a4, 0x180002468 <_vsnprintf+0x668>
1800021e0: 07 35 0c 00 	fld	fa0, 0x0(s8)
1800021e4: 13 86 0b 00 	mv	a2, s7
1800021e8: 13 08 04 00 	mv	a6, s0
1800021ec: 93 87 0d 00 	mv	a5, s11
1800021f0: 13 87 0c 00 	mv	a4, s9
1800021f4: 93 86 04 00 	mv	a3, s1
1800021f8: 93 05 09 00 	mv	a1, s2
1800021fc: 13 85 09 00 	mv	a0, s3
180002200: ef f0 0f c1 	jal	0x180001610 <_ftoa>
180002204: 13 0c 8c 00 	addi	s8, s8, 0x8
180002208: 93 0b 05 00 	mv	s7, a0
18000220c: 6f f0 9f c8 	j	0x180001e94 <_vsnprintf+0x94>
180002210: 13 78 24 00 	andi	a6, s0, 0x2
180002214: 13 0d 8c 00 	addi	s10, s8, 0x8
180002218: 93 8c 1b 00 	addi	s9, s7, 0x1
18000221c: 63 0c 08 30 	beqz	a6, 0x180002534 <_vsnprintf+0x734>
180002220: 03 45 0c 00 	lbu	a0, 0x0(s8)
180002224: 93 86 04 00 	mv	a3, s1
180002228: 13 86 0b 00 	mv	a2, s7
18000222c: 93 05 09 00 	mv	a1, s2
180002230: e7 80 09 00 	jalr	s3
180002234: 13 07 10 00 	li	a4, 0x1
180002238: 63 76 b7 3d 	bgeu	a4, s11, 0x180002604 <_vsnprintf+0x804>
18000223c: 9b 87 ed ff 	addiw	a5, s11, -0x2
180002240: 93 97 07 02 	slli	a5, a5, 0x20
180002244: 93 8e 2b 00 	addi	t4, s7, 0x2
180002248: 93 d7 07 02 	srli	a5, a5, 0x20
18000224c: b3 8b fe 00 	add	s7, t4, a5
180002250: 13 86 0c 00 	mv	a2, s9
180002254: 93 86 04 00 	mv	a3, s1
180002258: 93 8c 1c 00 	addi	s9, s9, 0x1
18000225c: 93 05 09 00 	mv	a1, s2
180002260: 13 05 00 02 	li	a0, 0x20
180002264: e7 80 09 00 	jalr	s3
180002268: e3 94 7c ff 	bne	s9, s7, 0x180002250 <_vsnprintf+0x450>
18000226c: 13 0c 0d 00 	mv	s8, s10
180002270: 6f f0 5f c2 	j	0x180001e94 <_vsnprintf+0x94>
180002274: 13 86 0b 00 	mv	a2, s7
180002278: 93 86 04 00 	mv	a3, s1
18000227c: 93 05 09 00 	mv	a1, s2
180002280: 13 05 50 02 	li	a0, 0x25
180002284: 93 8b 1b 00 	addi	s7, s7, 0x1
180002288: e7 80 09 00 	jalr	s3
18000228c: 6f f0 9f c0 	j	0x180001e94 <_vsnprintf+0x94>
180002290: 83 37 0c 00 	ld	a5, 0x0(s8)
180002294: 93 06 f0 ff 	li	a3, -0x1
180002298: 23 38 f1 00 	sd	a5, 0x10(sp)
18000229c: 93 07 8c 00 	addi	a5, s8, 0x8
1800022a0: 23 34 f1 02 	sd	a5, 0x28(sp)
1800022a4: 63 9c 0c 0e 	bnez	s9, 0x18000239c <_vsnprintf+0x59c>
1800022a8: 03 3d 01 01 	ld	s10, 0x10(sp)
1800022ac: 03 45 0d 00 	lbu	a0, 0x0(s10)
1800022b0: 63 0e 05 4e 	beqz	a0, 0x1800027ac <_vsnprintf+0x9ac>
1800022b4: b3 06 dd 00 	add	a3, s10, a3
1800022b8: 6f 00 80 00 	j	0x1800022c0 <_vsnprintf+0x4c0>
1800022bc: 63 08 dd 00 	beq	s10, a3, 0x1800022cc <_vsnprintf+0x4cc>
1800022c0: 03 47 1d 00 	lbu	a4, 0x1(s10)
1800022c4: 13 0d 1d 00 	addi	s10, s10, 0x1
1800022c8: e3 1a 07 fe 	bnez	a4, 0x1800022bc <_vsnprintf+0x4bc>
1800022cc: 83 37 01 01 	ld	a5, 0x10(sp)
1800022d0: 3b 0d fd 40 	subw	s10, s10, a5
1800022d4: 93 77 04 40 	andi	a5, s0, 0x400
1800022d8: 23 30 f1 02 	sd	a5, 0x20(sp)
1800022dc: 63 8a 07 00 	beqz	a5, 0x1800022f0 <_vsnprintf+0x4f0>
1800022e0: 13 87 0c 00 	mv	a4, s9
1800022e4: 63 74 9d 01 	bgeu	s10, s9, 0x1800022ec <_vsnprintf+0x4ec>
1800022e8: 13 07 0d 00 	mv	a4, s10
1800022ec: 1b 0d 07 00 	sext.w	s10, a4
1800022f0: 13 74 24 00 	andi	s0, s0, 0x2
1800022f4: 63 0e 04 28 	beqz	s0, 0x180002590 <_vsnprintf+0x790>
1800022f8: 63 08 05 18 	beqz	a0, 0x180002488 <_vsnprintf+0x688>
1800022fc: 83 37 01 02 	ld	a5, 0x20(sp)
180002300: 63 94 07 0a 	bnez	a5, 0x1800023a8 <_vsnprintf+0x5a8>
180002304: 13 8c 0b 00 	mv	s8, s7
180002308: 13 06 0c 00 	mv	a2, s8
18000230c: 93 86 04 00 	mv	a3, s1
180002310: 93 05 09 00 	mv	a1, s2
180002314: e7 80 09 00 	jalr	s3
180002318: 83 37 01 01 	ld	a5, 0x10(sp)
18000231c: 13 0c 1c 00 	addi	s8, s8, 0x1
180002320: b3 06 7c 41 	sub	a3, s8, s7
180002324: b3 86 d7 00 	add	a3, a5, a3
180002328: 03 c5 06 00 	lbu	a0, 0x0(a3)
18000232c: e3 1e 05 fc 	bnez	a0, 0x180002308 <_vsnprintf+0x508>
180002330: 93 0b 0c 00 	mv	s7, s8
180002334: 63 1a 04 14 	bnez	s0, 0x180002488 <_vsnprintf+0x688>
180002338: 03 3c 81 02 	ld	s8, 0x28(sp)
18000233c: 6f f0 9f b5 	j	0x180001e94 <_vsnprintf+0x94>
180002340: 93 06 90 00 	li	a3, 0x9
180002344: 1b 97 2c 00 	slliw	a4, s9, 0x2
180002348: 3b 07 97 01 	addw	a4, a4, s9
18000234c: 13 06 16 00 	addi	a2, a2, 0x1
180002350: 1b 17 17 00 	slliw	a4, a4, 0x1
180002354: 3b 07 a7 00 	addw	a4, a4, a0
180002358: 03 45 06 00 	lbu	a0, 0x0(a2)
18000235c: 9b 0c 07 fd 	addiw	s9, a4, -0x30
180002360: 1b 07 05 fd 	addiw	a4, a0, -0x30
180002364: 13 77 f7 0f 	andi	a4, a4, 0xff
180002368: e3 fe e6 fc 	bgeu	a3, a4, 0x180002344 <_vsnprintf+0x544>
18000236c: 93 0a 06 00 	mv	s5, a2
180002370: 93 06 16 00 	addi	a3, a2, 0x1
180002374: 6f f0 9f b8 	j	0x180001efc <_vsnprintf+0xfc>
180002378: 03 27 0c 00 	lw	a4, 0x0(s8)
18000237c: 03 c5 2a 00 	lbu	a0, 0x2(s5)
180002380: 93 8a 2a 00 	addi	s5, s5, 0x2
180002384: 93 48 f7 ff 	not	a7, a4
180002388: 93 d8 f8 43 	srai	a7, a7, 0x3f
18000238c: b3 fc e8 00 	and	s9, a7, a4
180002390: 13 0c 8c 00 	addi	s8, s8, 0x8
180002394: 93 86 1a 00 	addi	a3, s5, 0x1
180002398: 6f f0 5f b6 	j	0x180001efc <_vsnprintf+0xfc>
18000239c: 93 96 0c 02 	slli	a3, s9, 0x20
1800023a0: 93 d6 06 02 	srli	a3, a3, 0x20
1800023a4: 6f f0 5f f0 	j	0x1800022a8 <_vsnprintf+0x4a8>
1800023a8: 93 98 0c 02 	slli	a7, s9, 0x20
1800023ac: 93 d8 08 02 	srli	a7, a7, 0x20
1800023b0: b3 8c 78 01 	add	s9, a7, s7
1800023b4: 13 86 0b 00 	mv	a2, s7
1800023b8: 63 88 cc 16 	beq	s9, a2, 0x180002528 <_vsnprintf+0x728>
1800023bc: 93 86 04 00 	mv	a3, s1
1800023c0: 93 05 09 00 	mv	a1, s2
1800023c4: 13 0c 16 00 	addi	s8, a2, 0x1
1800023c8: e7 80 09 00 	jalr	s3
1800023cc: 83 37 01 01 	ld	a5, 0x10(sp)
1800023d0: b3 06 7c 41 	sub	a3, s8, s7
1800023d4: b3 86 d7 00 	add	a3, a5, a3
1800023d8: 03 c5 06 00 	lbu	a0, 0x0(a3)
1800023dc: e3 0a 05 f4 	beqz	a0, 0x180002330 <_vsnprintf+0x530>
1800023e0: 13 06 0c 00 	mv	a2, s8
1800023e4: 6f f0 5f fd 	j	0x1800023b8 <_vsnprintf+0x5b8>
1800023e8: 13 07 20 06 	li	a4, 0x62
1800023ec: 63 04 e5 26 	beq	a0, a4, 0x180002654 <_vsnprintf+0x854>
1800023f0: 13 07 80 05 	li	a4, 0x58
1800023f4: 63 0c e5 2a 	beq	a0, a4, 0x1800026ac <_vsnprintf+0x8ac>
1800023f8: 13 77 04 40 	andi	a4, s0, 0x400
1800023fc: 63 14 07 1e 	bnez	a4, 0x1800025e4 <_vsnprintf+0x7e4>
180002400: 93 76 f4 fe 	andi	a3, s0, -0x11
180002404: 9b 86 06 00 	sext.w	a3, a3
180002408: 13 f7 06 20 	andi	a4, a3, 0x200
18000240c: 13 04 8c 00 	addi	s0, s8, 0x8
180002410: 13 86 06 00 	mv	a2, a3
180002414: 63 1e 07 1e 	bnez	a4, 0x180002610 <_vsnprintf+0x810>
180002418: 13 f7 06 10 	andi	a4, a3, 0x100
18000241c: 63 18 07 2e 	bnez	a4, 0x18000270c <_vsnprintf+0x90c>
180002420: 13 77 06 04 	andi	a4, a2, 0x40
180002424: 83 27 0c 00 	lw	a5, 0x0(s8)
180002428: 63 08 07 30 	beqz	a4, 0x180002738 <_vsnprintf+0x938>
18000242c: 93 f7 f7 0f 	andi	a5, a5, 0xff
180002430: 13 87 07 00 	mv	a4, a5
180002434: 13 86 0b 00 	mv	a2, s7
180002438: 23 34 d1 00 	sd	a3, 0x8(sp)
18000243c: 23 30 b1 01 	sd	s11, 0x0(sp)
180002440: 93 88 0c 00 	mv	a7, s9
180002444: 13 08 a0 00 	li	a6, 0xa
180002448: 9b d7 f7 01 	srliw	a5, a5, 0x1f
18000244c: 93 86 04 00 	mv	a3, s1
180002450: 93 05 09 00 	mv	a1, s2
180002454: 13 85 09 00 	mv	a0, s3
180002458: ef e0 1f da 	jal	0x1800011f8 <_ntoa_long_long>
18000245c: 93 0b 05 00 	mv	s7, a0
180002460: 13 0c 04 00 	mv	s8, s0
180002464: 6f f0 1f a3 	j	0x180001e94 <_vsnprintf+0x94>
180002468: 13 64 04 02 	ori	s0, s0, 0x20
18000246c: 1b 04 04 00 	sext.w	s0, s0
180002470: 6f f0 1f d7 	j	0x1800021e0 <_vsnprintf+0x3e0>
180002474: 37 17 00 00 	lui	a4, 0x1
180002478: 13 07 07 80 	addi	a4, a4, -0x800
18000247c: 33 67 e4 00 	or	a4, s0, a4
180002480: 1b 04 07 00 	sext.w	s0, a4
180002484: 6f f0 9f ce 	j	0x18000216c <_vsnprintf+0x36c>
180002488: 13 84 0b 00 	mv	s0, s7
18000248c: e3 76 bd eb 	bgeu	s10, s11, 0x180002338 <_vsnprintf+0x538>
180002490: 9b 87 fd ff 	addiw	a5, s11, -0x1
180002494: bb 87 a7 41 	subw	a5, a5, s10
180002498: 93 97 07 02 	slli	a5, a5, 0x20
18000249c: 93 d7 07 02 	srli	a5, a5, 0x20
1800024a0: 93 8e 1b 00 	addi	t4, s7, 0x1
1800024a4: b3 8b d7 01 	add	s7, a5, t4
1800024a8: 13 06 04 00 	mv	a2, s0
1800024ac: 93 86 04 00 	mv	a3, s1
1800024b0: 13 04 14 00 	addi	s0, s0, 0x1
1800024b4: 93 05 09 00 	mv	a1, s2
1800024b8: 13 05 00 02 	li	a0, 0x20
1800024bc: e7 80 09 00 	jalr	s3
1800024c0: e3 14 74 ff 	bne	s0, s7, 0x1800024a8 <_vsnprintf+0x6a8>
1800024c4: 03 3c 81 02 	ld	s8, 0x28(sp)
1800024c8: 6f f0 df 9c 	j	0x180001e94 <_vsnprintf+0x94>
1800024cc: 13 07 80 07 	li	a4, 0x78
1800024d0: 63 1a e5 20 	bne	a0, a4, 0x1800026e4 <_vsnprintf+0x8e4>
1800024d4: 13 77 04 40 	andi	a4, s0, 0x400
1800024d8: 63 0c 07 2e 	beqz	a4, 0x1800027d0 <_vsnprintf+0x9d0>
1800024dc: 93 76 24 ff 	andi	a3, s0, -0xe
1800024e0: 9b 86 06 00 	sext.w	a3, a3
1800024e4: 13 08 00 01 	li	a6, 0x10
1800024e8: 6f 00 00 18 	j	0x180002668 <_vsnprintf+0x868>
1800024ec: 37 17 00 00 	lui	a4, 0x1
1800024f0: 13 07 07 80 	addi	a4, a4, -0x800
1800024f4: 33 67 e4 00 	or	a4, s0, a4
1800024f8: 1b 04 07 00 	sext.w	s0, a4
1800024fc: 13 64 04 02 	ori	s0, s0, 0x20
180002500: 1b 04 04 00 	sext.w	s0, s0
180002504: 6f f0 9f c6 	j	0x18000216c <_vsnprintf+0x36c>
180002508: 13 64 04 0c 	ori	s0, s0, 0xc0
18000250c: 03 c5 2a 00 	lbu	a0, 0x2(s5)
180002510: 1b 04 04 00 	sext.w	s0, s0
180002514: 93 86 3a 00 	addi	a3, s5, 0x3
180002518: 6f f0 1f a7 	j	0x180001f88 <_vsnprintf+0x188>
18000251c: 13 04 00 00 	li	s0, 0x0
180002520: e3 e8 9b b2 	bltu	s7, s1, 0x180002050 <_vsnprintf+0x250>
180002524: 6f f0 9f b2 	j	0x18000204c <_vsnprintf+0x24c>
180002528: 93 8b 0c 00 	mv	s7, s9
18000252c: e3 06 04 e0 	beqz	s0, 0x180002338 <_vsnprintf+0x538>
180002530: 6f f0 9f f5 	j	0x180002488 <_vsnprintf+0x688>
180002534: 13 07 10 00 	li	a4, 0x1
180002538: 63 7c b7 0b 	bgeu	a4, s11, 0x1800025f0 <_vsnprintf+0x7f0>
18000253c: 9b 87 ed ff 	addiw	a5, s11, -0x2
180002540: 13 94 07 02 	slli	s0, a5, 0x20
180002544: 13 54 04 02 	srli	s0, s0, 0x20
180002548: b3 0c 94 01 	add	s9, s0, s9
18000254c: 93 8d 0b 00 	mv	s11, s7
180002550: 13 86 0d 00 	mv	a2, s11
180002554: 93 86 04 00 	mv	a3, s1
180002558: 93 8d 1d 00 	addi	s11, s11, 0x1
18000255c: 93 05 09 00 	mv	a1, s2
180002560: 13 05 00 02 	li	a0, 0x20
180002564: e7 80 09 00 	jalr	s3
180002568: e3 94 9d ff 	bne	s11, s9, 0x180002550 <_vsnprintf+0x750>
18000256c: 03 45 0c 00 	lbu	a0, 0x0(s8)
180002570: 93 8e 2b 00 	addi	t4, s7, 0x2
180002574: 93 86 04 00 	mv	a3, s1
180002578: 13 86 0d 00 	mv	a2, s11
18000257c: 93 05 09 00 	mv	a1, s2
180002580: b3 8b 8e 00 	add	s7, t4, s0
180002584: 13 0c 0d 00 	mv	s8, s10
180002588: e7 80 09 00 	jalr	s3
18000258c: 6f f0 9f 90 	j	0x180001e94 <_vsnprintf+0x94>
180002590: 63 76 bd 23 	bgeu	s10, s11, 0x1800027bc <_vsnprintf+0x9bc>
180002594: 1b 87 fd ff 	addiw	a4, s11, -0x1
180002598: 3b 0d a7 41 	subw	s10, a4, s10
18000259c: 13 1d 0d 02 	slli	s10, s10, 0x20
1800025a0: 13 5d 0d 02 	srli	s10, s10, 0x20
1800025a4: 13 8c 1b 00 	addi	s8, s7, 0x1
1800025a8: 33 0d 8d 01 	add	s10, s10, s8
1800025ac: 6f 00 80 00 	j	0x1800025b4 <_vsnprintf+0x7b4>
1800025b0: 13 0c 1c 00 	addi	s8, s8, 0x1
1800025b4: 13 86 0b 00 	mv	a2, s7
1800025b8: 93 86 04 00 	mv	a3, s1
1800025bc: 93 05 09 00 	mv	a1, s2
1800025c0: 13 05 00 02 	li	a0, 0x20
1800025c4: 93 0b 0c 00 	mv	s7, s8
1800025c8: e7 80 09 00 	jalr	s3
1800025cc: e3 12 ac ff 	bne	s8, s10, 0x1800025b0 <_vsnprintf+0x7b0>
1800025d0: 83 37 01 01 	ld	a5, 0x10(sp)
1800025d4: 1b 8d 1d 00 	addiw	s10, s11, 0x1
1800025d8: 03 c5 07 00 	lbu	a0, 0x0(a5)
1800025dc: e3 10 05 d2 	bnez	a0, 0x1800022fc <_vsnprintf+0x4fc>
1800025e0: 6f f0 9f d5 	j	0x180002338 <_vsnprintf+0x538>
1800025e4: 93 76 e4 fe 	andi	a3, s0, -0x12
1800025e8: 9b 86 06 00 	sext.w	a3, a3
1800025ec: 6f f0 df e1 	j	0x180002408 <_vsnprintf+0x608>
1800025f0: 03 45 0c 00 	lbu	a0, 0x0(s8)
1800025f4: 93 86 04 00 	mv	a3, s1
1800025f8: 13 86 0b 00 	mv	a2, s7
1800025fc: 93 05 09 00 	mv	a1, s2
180002600: e7 80 09 00 	jalr	s3
180002604: 93 8b 0c 00 	mv	s7, s9
180002608: 13 0c 0d 00 	mv	s8, s10
18000260c: 6f f0 9f 88 	j	0x180001e94 <_vsnprintf+0x94>
180002610: 83 37 0c 00 	ld	a5, 0x0(s8)
180002614: 23 34 d1 00 	sd	a3, 0x8(sp)
180002618: 13 86 0b 00 	mv	a2, s7
18000261c: 13 d7 f7 43 	srai	a4, a5, 0x3f
180002620: b3 46 f7 00 	xor	a3, a4, a5
180002624: 23 30 b1 01 	sd	s11, 0x0(sp)
180002628: 93 88 0c 00 	mv	a7, s9
18000262c: 13 08 a0 00 	li	a6, 0xa
180002630: 93 d7 f7 03 	srli	a5, a5, 0x3f
180002634: 33 87 e6 40 	sub	a4, a3, a4
180002638: 93 86 04 00 	mv	a3, s1
18000263c: 93 05 09 00 	mv	a1, s2
180002640: 13 85 09 00 	mv	a0, s3
180002644: ef e0 5f bb 	jal	0x1800011f8 <_ntoa_long_long>
180002648: 93 0b 05 00 	mv	s7, a0
18000264c: 13 0c 04 00 	mv	s8, s0
180002650: 6f f0 5f 84 	j	0x180001e94 <_vsnprintf+0x94>
180002654: 13 77 04 40 	andi	a4, s0, 0x400
180002658: 63 0a 07 12 	beqz	a4, 0x18000278c <_vsnprintf+0x98c>
18000265c: 93 76 24 ff 	andi	a3, s0, -0xe
180002660: 9b 86 06 00 	sext.w	a3, a3
180002664: 13 08 20 00 	li	a6, 0x2
180002668: 13 f7 06 20 	andi	a4, a3, 0x200
18000266c: 13 04 8c 00 	addi	s0, s8, 0x8
180002670: 13 86 06 00 	mv	a2, a3
180002674: 63 1a 07 04 	bnez	a4, 0x1800026c8 <_vsnprintf+0x8c8>
180002678: 13 f7 06 10 	andi	a4, a3, 0x100
18000267c: 63 1a 07 0e 	bnez	a4, 0x180002770 <_vsnprintf+0x970>
180002680: 13 77 06 04 	andi	a4, a2, 0x40
180002684: 63 0e 07 0c 	beqz	a4, 0x180002760 <_vsnprintf+0x960>
180002688: 03 47 0c 00 	lbu	a4, 0x0(s8)
18000268c: 13 17 07 02 	slli	a4, a4, 0x20
180002690: 13 86 0b 00 	mv	a2, s7
180002694: 23 34 d1 00 	sd	a3, 0x8(sp)
180002698: 23 30 b1 01 	sd	s11, 0x0(sp)
18000269c: 93 88 0c 00 	mv	a7, s9
1800026a0: 93 07 00 00 	li	a5, 0x0
1800026a4: 13 57 07 02 	srli	a4, a4, 0x20
1800026a8: 6f f0 5f da 	j	0x18000244c <_vsnprintf+0x64c>
1800026ac: 13 77 04 40 	andi	a4, s0, 0x400
1800026b0: 63 0c 07 10 	beqz	a4, 0x1800027c8 <_vsnprintf+0x9c8>
1800026b4: 93 76 24 ff 	andi	a3, s0, -0xe
1800026b8: 9b 86 06 00 	sext.w	a3, a3
1800026bc: 93 e6 06 02 	ori	a3, a3, 0x20
1800026c0: 13 08 00 01 	li	a6, 0x10
1800026c4: 6f f0 5f fa 	j	0x180002668 <_vsnprintf+0x868>
1800026c8: 03 37 0c 00 	ld	a4, 0x0(s8)
1800026cc: 13 86 0b 00 	mv	a2, s7
1800026d0: 23 34 d1 00 	sd	a3, 0x8(sp)
1800026d4: 23 30 b1 01 	sd	s11, 0x0(sp)
1800026d8: 93 88 0c 00 	mv	a7, s9
1800026dc: 93 07 00 00 	li	a5, 0x0
1800026e0: 6f f0 9f f5 	j	0x180002638 <_vsnprintf+0x838>
1800026e4: 13 07 f0 06 	li	a4, 0x6f
1800026e8: 63 1c e5 0e 	bne	a0, a4, 0x1800027e0 <_vsnprintf+0x9e0>
1800026ec: 93 76 34 ff 	andi	a3, s0, -0xd
1800026f0: 13 77 04 40 	andi	a4, s0, 0x400
1800026f4: 13 08 80 00 	li	a6, 0x8
1800026f8: 9b 86 06 00 	sext.w	a3, a3
1800026fc: e3 06 07 f6 	beqz	a4, 0x180002668 <_vsnprintf+0x868>
180002700: 93 76 24 ff 	andi	a3, s0, -0xe
180002704: 9b 86 06 00 	sext.w	a3, a3
180002708: 6f f0 1f f6 	j	0x180002668 <_vsnprintf+0x868>
18000270c: 83 37 0c 00 	ld	a5, 0x0(s8)
180002710: 23 34 d1 00 	sd	a3, 0x8(sp)
180002714: 13 86 0b 00 	mv	a2, s7
180002718: 13 d7 f7 43 	srai	a4, a5, 0x3f
18000271c: b3 46 f7 00 	xor	a3, a4, a5
180002720: 23 30 b1 01 	sd	s11, 0x0(sp)
180002724: 93 88 0c 00 	mv	a7, s9
180002728: 13 08 a0 00 	li	a6, 0xa
18000272c: 93 d7 f7 03 	srli	a5, a5, 0x3f
180002730: 33 87 e6 40 	sub	a4, a3, a4
180002734: 6f f0 9f d1 	j	0x18000244c <_vsnprintf+0x64c>
180002738: 13 76 06 08 	andi	a2, a2, 0x80
18000273c: 63 00 06 06 	beqz	a2, 0x18000279c <_vsnprintf+0x99c>
180002740: 9b 97 07 01 	slliw	a5, a5, 0x10
180002744: 9b d7 07 41 	sraiw	a5, a5, 0x10
180002748: 1b d6 f7 40 	sraiw	a2, a5, 0xf
18000274c: 33 c7 c7 00 	xor	a4, a5, a2
180002750: 3b 07 c7 40 	subw	a4, a4, a2
180002754: 13 17 07 03 	slli	a4, a4, 0x30
180002758: 13 57 07 03 	srli	a4, a4, 0x30
18000275c: 6f f0 9f cd 	j	0x180002434 <_vsnprintf+0x634>
180002760: 13 76 06 08 	andi	a2, a2, 0x80
180002764: 63 08 06 04 	beqz	a2, 0x1800027b4 <_vsnprintf+0x9b4>
180002768: 03 57 0c 00 	lhu	a4, 0x0(s8)
18000276c: 6f f0 1f f2 	j	0x18000268c <_vsnprintf+0x88c>
180002770: 03 37 0c 00 	ld	a4, 0x0(s8)
180002774: 13 86 0b 00 	mv	a2, s7
180002778: 23 34 d1 00 	sd	a3, 0x8(sp)
18000277c: 23 30 b1 01 	sd	s11, 0x0(sp)
180002780: 93 88 0c 00 	mv	a7, s9
180002784: 93 07 00 00 	li	a5, 0x0
180002788: 6f f0 5f cc 	j	0x18000244c <_vsnprintf+0x64c>
18000278c: 93 76 34 ff 	andi	a3, s0, -0xd
180002790: 9b 86 06 00 	sext.w	a3, a3
180002794: 13 08 20 00 	li	a6, 0x2
180002798: 6f f0 1f ed 	j	0x180002668 <_vsnprintf+0x868>
18000279c: 1b d6 f7 41 	sraiw	a2, a5, 0x1f
1800027a0: 33 c7 c7 00 	xor	a4, a5, a2
1800027a4: 3b 07 c7 40 	subw	a4, a4, a2
1800027a8: 6f f0 df c8 	j	0x180002434 <_vsnprintf+0x634>
1800027ac: 13 0d 00 00 	li	s10, 0x0
1800027b0: 6f f0 5f b2 	j	0x1800022d4 <_vsnprintf+0x4d4>
1800027b4: 03 27 0c 00 	lw	a4, 0x0(s8)
1800027b8: 6f f0 5f ed 	j	0x18000268c <_vsnprintf+0x88c>
1800027bc: 1b 0d 1d 00 	addiw	s10, s10, 0x1
1800027c0: e3 1e 05 b2 	bnez	a0, 0x1800022fc <_vsnprintf+0x4fc>
1800027c4: 6f f0 5f b7 	j	0x180002338 <_vsnprintf+0x538>
1800027c8: 13 64 04 02 	ori	s0, s0, 0x20
1800027cc: 1b 04 04 00 	sext.w	s0, s0
1800027d0: 93 76 34 ff 	andi	a3, s0, -0xd
1800027d4: 9b 86 06 00 	sext.w	a3, a3
1800027d8: 13 08 00 01 	li	a6, 0x10
1800027dc: 6f f0 df e8 	j	0x180002668 <_vsnprintf+0x868>
1800027e0: 93 76 f4 fe 	andi	a3, s0, -0x11
1800027e4: 13 06 90 06 	li	a2, 0x69
1800027e8: 13 07 04 00 	mv	a4, s0
1800027ec: 9b 86 06 00 	sext.w	a3, a3
1800027f0: 63 1c c5 00 	bne	a0, a2, 0x180002808 <_vsnprintf+0xa08>
1800027f4: 13 78 04 40 	andi	a6, s0, 0x400
1800027f8: e3 08 08 c0 	beqz	a6, 0x180002408 <_vsnprintf+0x608>
1800027fc: 13 77 e7 fe 	andi	a4, a4, -0x12
180002800: 9b 06 07 00 	sext.w	a3, a4
180002804: 6f f0 5f c0 	j	0x180002408 <_vsnprintf+0x608>
180002808: 13 78 04 40 	andi	a6, s0, 0x400
18000280c: 63 08 08 00 	beqz	a6, 0x18000281c <_vsnprintf+0xa1c>
180002810: 13 84 06 00 	mv	s0, a3
180002814: 13 08 a0 00 	li	a6, 0xa
180002818: 6f f0 9f ee 	j	0x180002700 <_vsnprintf+0x900>
18000281c: 13 77 37 fe 	andi	a4, a4, -0x1d
180002820: 9b 06 07 00 	sext.w	a3, a4
180002824: 13 08 a0 00 	li	a6, 0xa
180002828: 6f f0 1f e4 	j	0x180002668 <_vsnprintf+0x868>

000000018000282c <tiny_vprintf>:
18000282c: 13 01 01 fe 	addi	sp, sp, -0x20
180002830: 93 06 05 00 	mv	a3, a0
180002834: 13 87 05 00 	mv	a4, a1
180002838: 13 06 f0 ff 	li	a2, -0x1
18000283c: 93 05 81 00 	addi	a1, sp, 0x8
180002840: 17 f5 ff ff 	auipc	a0, 0xfffff
180002844: 13 05 45 dc 	addi	a0, a0, -0x23c
180002848: 23 3c 11 00 	sd	ra, 0x18(sp)
18000284c: ef f0 4f db 	jal	0x180001e00 <_vsnprintf>
180002850: 83 30 81 01 	ld	ra, 0x18(sp)
180002854: 13 01 01 02 	addi	sp, sp, 0x20
180002858: 67 80 00 00 	ret

000000018000285c <dummy>:
18000285c: 67 80 00 00 	ret

0000000180002860 <libc_exit_fini>:
180002860: 13 01 01 fe 	addi	sp, sp, -0x20
180002864: 23 3c 11 00 	sd	ra, 0x18(sp)
180002868: 23 38 81 00 	sd	s0, 0x10(sp)
18000286c: 23 34 91 00 	sd	s1, 0x8(sp)
180002870: 23 30 21 01 	sd	s2, 0x0(sp)
180002874: 17 25 00 00 	auipc	a0, 0x2
180002878: 03 34 45 a7 	ld	s0, -0x58c(a0)
18000287c: 17 25 00 00 	auipc	a0, 0x2
180002880: 83 34 45 a7 	ld	s1, -0x58c(a0)
180002884: 1b 05 04 00 	sext.w	a0, s0
180002888: 9b 84 04 00 	sext.w	s1, s1
18000288c: 63 f0 a4 02 	bgeu	s1, a0, 0x1800028ac <libc_exit_fini+0x4c>
180002890: 13 15 04 02 	slli	a0, s0, 0x20
180002894: 13 55 05 02 	srli	a0, a0, 0x20
180002898: 83 35 85 ff 	ld	a1, -0x8(a0)
18000289c: 1b 09 85 ff 	addiw	s2, a0, -0x8
1800028a0: e7 80 05 00 	jalr	a1
1800028a4: 13 04 84 ff 	addi	s0, s0, -0x8
1800028a8: e3 e4 24 ff 	bltu	s1, s2, 0x180002890 <libc_exit_fini+0x30>
1800028ac: 83 30 81 01 	ld	ra, 0x18(sp)
1800028b0: 03 34 01 01 	ld	s0, 0x10(sp)
1800028b4: 83 34 81 00 	ld	s1, 0x8(sp)
1800028b8: 03 39 01 00 	ld	s2, 0x0(sp)
1800028bc: 13 01 01 02 	addi	sp, sp, 0x20
1800028c0: 6f f0 df f9 	j	0x18000285c <dummy>

00000001800028c4 <memcpy>:
1800028c4: 13 01 01 fe 	addi	sp, sp, -0x20
1800028c8: 23 3c 81 00 	sd	s0, 0x18(sp)
1800028cc: 23 38 91 00 	sd	s1, 0x10(sp)
1800028d0: 23 34 21 01 	sd	s2, 0x8(sp)
1800028d4: 23 30 31 01 	sd	s3, 0x0(sp)
1800028d8: 93 f6 35 00 	andi	a3, a1, 0x3
1800028dc: b3 36 d0 00 	snez	a3, a3
1800028e0: 33 37 c0 00 	snez	a4, a2
1800028e4: b3 f7 e6 00 	and	a5, a3, a4
1800028e8: 0b a7 17 00 	vx_split_n	a4, a5
1800028ec: 93 06 05 00 	mv	a3, a0
1800028f0: 63 8c 07 04 	beqz	a5, 0x180002948 <memcpy+0x84>
1800028f4: 93 87 15 00 	addi	a5, a1, 0x1
1800028f8: 73 28 40 cc 	csrr	a6, tmask
1800028fc: 93 82 05 00 	mv	t0, a1
180002900: 13 03 05 00 	mv	t1, a0
180002904: 93 08 06 00 	mv	a7, a2
180002908: 03 c6 02 00 	lbu	a2, 0x0(t0)
18000290c: 93 85 12 00 	addi	a1, t0, 0x1
180002910: 93 06 13 00 	addi	a3, t1, 0x1
180002914: 23 00 c3 00 	sb	a2, 0x0(t1)
180002918: 1b 86 f8 ff 	addiw	a2, a7, -0x1
18000291c: 93 f2 37 00 	andi	t0, a5, 0x3
180002920: 93 b2 12 00 	seqz	t0, t0
180002924: 93 88 f8 ff 	addi	a7, a7, -0x1
180002928: 93 b8 18 00 	seqz	a7, a7
18000292c: b3 e3 12 01 	or	t2, t0, a7
180002930: 93 87 17 00 	addi	a5, a5, 0x1
180002934: 8b d0 03 01 	vx_pred_n	t2, a6
180002938: 93 82 05 00 	mv	t0, a1
18000293c: 13 83 06 00 	mv	t1, a3
180002940: 93 08 06 00 	mv	a7, a2
180002944: e3 82 03 fc 	beqz	t2, 0x180002908 <memcpy+0x44>
180002948: 0b 30 07 00 	vx_join	a4
18000294c: 13 08 00 00 	li	a6, 0x0
180002950: 93 fe 36 00 	andi	t4, a3, 0x3
180002954: 33 33 d0 01 	snez	t1, t4
180002958: 0b 27 13 00 	vx_split_n	a4, t1
18000295c: 93 02 10 00 	li	t0, 0x1
180002960: 63 08 03 38 	beqz	t1, 0x180002cf0 <memcpy+0x42c>
180002964: 93 37 06 02 	sltiu	a5, a2, 0x20
180002968: 13 c3 17 00 	xori	t1, a5, 0x1
18000296c: 8b 22 13 00 	vx_split_n	t0, t1
180002970: 93 88 05 00 	mv	a7, a1
180002974: 93 87 06 00 	mv	a5, a3
180002978: 13 08 06 00 	mv	a6, a2
18000297c: 63 0a 03 1e 	beqz	t1, 0x180002b70 <memcpy+0x2ac>
180002980: 03 a3 05 00 	lw	t1, 0x0(a1)
180002984: 93 a7 3e 00 	slti	a5, t4, 0x3
180002988: 13 ce 17 00 	xori	t3, a5, 0x1
18000298c: 8b 23 1e 00 	vx_split_n	t2, t3
180002990: 13 0f 10 00 	li	t5, 0x1
180002994: 63 06 0e 08 	beqz	t3, 0x180002a20 <memcpy+0x15c>
180002998: 93 87 16 00 	addi	a5, a3, 0x1
18000299c: 23 80 66 00 	sb	t1, 0x0(a3)
1800029a0: 13 08 f6 ff 	addi	a6, a2, -0x1
1800029a4: 93 88 05 01 	addi	a7, a1, 0x10
1800029a8: 73 2e 40 cc 	csrr	t3, tmask
1800029ac: 13 0f 03 00 	mv	t5, t1
1800029b0: 83 af 48 ff 	lw	t6, -0xc(a7)
1800029b4: 1b 5f 8f 00 	srliw	t5, t5, 0x8
1800029b8: 13 94 8f 01 	slli	s0, t6, 0x18
1800029bc: 83 a4 88 ff 	lw	s1, -0x8(a7)
1800029c0: 33 6f e4 01 	or	t5, s0, t5
1800029c4: 23 a0 e7 01 	sw	t5, 0x0(a5)
1800029c8: 1b df 8f 00 	srliw	t5, t6, 0x8
1800029cc: 93 9f 84 01 	slli	t6, s1, 0x18
1800029d0: 03 a4 c8 ff 	lw	s0, -0x4(a7)
1800029d4: 33 ef ef 01 	or	t5, t6, t5
1800029d8: 23 a2 e7 01 	sw	t5, 0x4(a5)
1800029dc: 9b df 84 00 	srliw	t6, s1, 0x8
1800029e0: 93 14 84 01 	slli	s1, s0, 0x18
1800029e4: 03 af 08 00 	lw	t5, 0x0(a7)
1800029e8: b3 ef f4 01 	or	t6, s1, t6
1800029ec: 23 a4 f7 01 	sw	t6, 0x8(a5)
1800029f0: 9b 5f 84 00 	srliw	t6, s0, 0x8
1800029f4: 13 14 8f 01 	slli	s0, t5, 0x18
1800029f8: b3 6f f4 01 	or	t6, s0, t6
1800029fc: 23 a6 f7 01 	sw	t6, 0xc(a5)
180002a00: 93 87 07 01 	addi	a5, a5, 0x10
180002a04: 1b 08 08 ff 	addiw	a6, a6, -0x10
180002a08: 93 88 08 01 	addi	a7, a7, 0x10
180002a0c: 93 3f 38 01 	sltiu	t6, a6, 0x13
180002a10: 8b d0 cf 01 	vx_pred_n	t6, t3
180002a14: e3 8e 0f f8 	beqz	t6, 0x1800029b0 <memcpy+0xec>
180002a18: 13 0f 00 00 	li	t5, 0x0
180002a1c: 93 88 18 ff 	addi	a7, a7, -0xf
180002a20: 13 8e 05 01 	addi	t3, a1, 0x10
180002a24: 0b b0 03 00 	vx_join	t2
180002a28: 8b 23 1f 00 	vx_split_n	t2, t5
180002a2c: 63 00 0f 14 	beqz	t5, 0x180002b6c <memcpy+0x2a8>
180002a30: 93 8e ee ff 	addi	t4, t4, -0x2
180002a34: 33 34 d0 01 	snez	s0, t4
180002a38: 0b 2f 14 00 	vx_split_n	t5, s0
180002a3c: 93 0f 10 00 	li	t6, 0x1
180002a40: 93 5e 83 00 	srli	t4, t1, 0x8
180002a44: 63 0c 04 08 	beqz	s0, 0x180002adc <memcpy+0x218>
180002a48: 23 80 66 00 	sb	t1, 0x0(a3)
180002a4c: a3 80 d6 01 	sb	t4, 0x1(a3)
180002a50: 13 58 03 01 	srli	a6, t1, 0x10
180002a54: 93 87 36 00 	addi	a5, a3, 0x3
180002a58: 23 81 06 01 	sb	a6, 0x2(a3)
180002a5c: 13 08 d6 ff 	addi	a6, a2, -0x3
180002a60: 93 88 05 01 	addi	a7, a1, 0x10
180002a64: f3 2f 40 cc 	csrr	t6, tmask
180002a68: 13 04 03 00 	mv	s0, t1
180002a6c: 83 a4 48 ff 	lw	s1, -0xc(a7)
180002a70: 1b 54 84 01 	srliw	s0, s0, 0x18
180002a74: 13 99 84 00 	slli	s2, s1, 0x8
180002a78: 83 a9 88 ff 	lw	s3, -0x8(a7)
180002a7c: 33 64 89 00 	or	s0, s2, s0
180002a80: 23 a0 87 00 	sw	s0, 0x0(a5)
180002a84: 1b d4 84 01 	srliw	s0, s1, 0x18
180002a88: 93 94 89 00 	slli	s1, s3, 0x8
180002a8c: 03 a9 c8 ff 	lw	s2, -0x4(a7)
180002a90: 33 e4 84 00 	or	s0, s1, s0
180002a94: 23 a2 87 00 	sw	s0, 0x4(a5)
180002a98: 9b d4 89 01 	srliw	s1, s3, 0x18
180002a9c: 93 19 89 00 	slli	s3, s2, 0x8
180002aa0: 03 a4 08 00 	lw	s0, 0x0(a7)
180002aa4: b3 e4 99 00 	or	s1, s3, s1
180002aa8: 23 a4 97 00 	sw	s1, 0x8(a5)
180002aac: 9b 54 89 01 	srliw	s1, s2, 0x18
180002ab0: 13 19 84 00 	slli	s2, s0, 0x8
180002ab4: b3 64 99 00 	or	s1, s2, s1
180002ab8: 23 a6 97 00 	sw	s1, 0xc(a5)
180002abc: 93 87 07 01 	addi	a5, a5, 0x10
180002ac0: 1b 08 08 ff 	addiw	a6, a6, -0x10
180002ac4: 93 88 08 01 	addi	a7, a7, 0x10
180002ac8: 93 34 18 01 	sltiu	s1, a6, 0x11
180002acc: 8b d0 f4 01 	vx_pred_n	s1, t6
180002ad0: e3 8e 04 f8 	beqz	s1, 0x180002a6c <memcpy+0x1a8>
180002ad4: 93 0f 00 00 	li	t6, 0x0
180002ad8: 93 88 38 ff 	addi	a7, a7, -0xd
180002adc: 0b 30 0f 00 	vx_join	t5
180002ae0: 0b af 1f 00 	vx_split_n	t5, t6
180002ae4: 63 82 0f 08 	beqz	t6, 0x180002b68 <memcpy+0x2a4>
180002ae8: 23 80 66 00 	sb	t1, 0x0(a3)
180002aec: 93 87 26 00 	addi	a5, a3, 0x2
180002af0: a3 80 d6 01 	sb	t4, 0x1(a3)
180002af4: 13 08 e6 ff 	addi	a6, a2, -0x2
180002af8: f3 28 40 cc 	csrr	a7, tmask
180002afc: 83 2e 4e ff 	lw	t4, -0xc(t3)
180002b00: 1b 53 03 01 	srliw	t1, t1, 0x10
180002b04: 93 9f 0e 01 	slli	t6, t4, 0x10
180002b08: 03 24 8e ff 	lw	s0, -0x8(t3)
180002b0c: 33 e3 6f 00 	or	t1, t6, t1
180002b10: 23 a0 67 00 	sw	t1, 0x0(a5)
180002b14: 1b d3 0e 01 	srliw	t1, t4, 0x10
180002b18: 93 1e 04 01 	slli	t4, s0, 0x10
180002b1c: 83 2f ce ff 	lw	t6, -0x4(t3)
180002b20: 33 e3 6e 00 	or	t1, t4, t1
180002b24: 23 a2 67 00 	sw	t1, 0x4(a5)
180002b28: 9b 5e 04 01 	srliw	t4, s0, 0x10
180002b2c: 13 94 0f 01 	slli	s0, t6, 0x10
180002b30: 03 23 0e 00 	lw	t1, 0x0(t3)
180002b34: b3 6e d4 01 	or	t4, s0, t4
180002b38: 23 a4 d7 01 	sw	t4, 0x8(a5)
180002b3c: 9b de 0f 01 	srliw	t4, t6, 0x10
180002b40: 93 1f 03 01 	slli	t6, t1, 0x10
180002b44: b3 ee df 01 	or	t4, t6, t4
180002b48: 23 a6 d7 01 	sw	t4, 0xc(a5)
180002b4c: 93 87 07 01 	addi	a5, a5, 0x10
180002b50: 1b 08 08 ff 	addiw	a6, a6, -0x10
180002b54: 13 0e 0e 01 	addi	t3, t3, 0x10
180002b58: 93 3e 28 01 	sltiu	t4, a6, 0x12
180002b5c: 8b d0 1e 01 	vx_pred_n	t4, a7
180002b60: e3 8e 0e f8 	beqz	t4, 0x180002afc <memcpy+0x238>
180002b64: 93 08 2e ff 	addi	a7, t3, -0xe
180002b68: 0b 30 0f 00 	vx_join	t5
180002b6c: 0b b0 03 00 	vx_join	t2
180002b70: 0b b0 02 00 	vx_join	t0
180002b74: 9b 02 08 00 	sext.w	t0, a6
180002b78: 93 b2 02 01 	sltiu	t0, t0, 0x10
180002b7c: 13 c3 12 00 	xori	t1, t0, 0x1
180002b80: 8b 22 13 00 	vx_split_n	t0, t1
180002b84: 63 08 03 08 	beqz	t1, 0x180002c14 <memcpy+0x350>
180002b88: 03 c3 08 00 	lbu	t1, 0x0(a7)
180002b8c: 83 c3 18 00 	lbu	t2, 0x1(a7)
180002b90: 03 ce 28 00 	lbu	t3, 0x2(a7)
180002b94: 23 80 67 00 	sb	t1, 0x0(a5)
180002b98: a3 80 77 00 	sb	t2, 0x1(a5)
180002b9c: 03 c3 38 00 	lbu	t1, 0x3(a7)
180002ba0: 23 81 c7 01 	sb	t3, 0x2(a5)
180002ba4: 83 c3 48 00 	lbu	t2, 0x4(a7)
180002ba8: 03 ce 58 00 	lbu	t3, 0x5(a7)
180002bac: a3 81 67 00 	sb	t1, 0x3(a5)
180002bb0: 03 c3 68 00 	lbu	t1, 0x6(a7)
180002bb4: 23 82 77 00 	sb	t2, 0x4(a5)
180002bb8: a3 82 c7 01 	sb	t3, 0x5(a5)
180002bbc: 83 c3 78 00 	lbu	t2, 0x7(a7)
180002bc0: 23 83 67 00 	sb	t1, 0x6(a5)
180002bc4: 03 c3 88 00 	lbu	t1, 0x8(a7)
180002bc8: 03 ce 98 00 	lbu	t3, 0x9(a7)
180002bcc: a3 83 77 00 	sb	t2, 0x7(a5)
180002bd0: 83 c3 a8 00 	lbu	t2, 0xa(a7)
180002bd4: 23 84 67 00 	sb	t1, 0x8(a5)
180002bd8: a3 84 c7 01 	sb	t3, 0x9(a5)
180002bdc: 03 c3 b8 00 	lbu	t1, 0xb(a7)
180002be0: 23 85 77 00 	sb	t2, 0xa(a5)
180002be4: 83 c3 c8 00 	lbu	t2, 0xc(a7)
180002be8: 03 ce d8 00 	lbu	t3, 0xd(a7)
180002bec: a3 85 67 00 	sb	t1, 0xb(a5)
180002bf0: 03 c3 e8 00 	lbu	t1, 0xe(a7)
180002bf4: 23 86 77 00 	sb	t2, 0xc(a5)
180002bf8: a3 86 c7 01 	sb	t3, 0xd(a5)
180002bfc: 83 c3 f8 00 	lbu	t2, 0xf(a7)
180002c00: 23 87 67 00 	sb	t1, 0xe(a5)
180002c04: 93 88 08 01 	addi	a7, a7, 0x10
180002c08: 13 83 07 01 	addi	t1, a5, 0x10
180002c0c: a3 87 77 00 	sb	t2, 0xf(a5)
180002c10: 93 07 03 00 	mv	a5, t1
180002c14: 0b b0 02 00 	vx_join	t0
180002c18: 93 12 c8 03 	slli	t0, a6, 0x3c
180002c1c: 13 d3 f2 03 	srli	t1, t0, 0x3f
180002c20: 8b 22 13 00 	vx_split_n	t0, t1
180002c24: 63 08 03 04 	beqz	t1, 0x180002c74 <memcpy+0x3b0>
180002c28: 03 c3 08 00 	lbu	t1, 0x0(a7)
180002c2c: 83 c3 18 00 	lbu	t2, 0x1(a7)
180002c30: 03 ce 28 00 	lbu	t3, 0x2(a7)
180002c34: 23 80 67 00 	sb	t1, 0x0(a5)
180002c38: a3 80 77 00 	sb	t2, 0x1(a5)
180002c3c: 03 c3 38 00 	lbu	t1, 0x3(a7)
180002c40: 23 81 c7 01 	sb	t3, 0x2(a5)
180002c44: 83 c3 48 00 	lbu	t2, 0x4(a7)
180002c48: 03 ce 58 00 	lbu	t3, 0x5(a7)
180002c4c: a3 81 67 00 	sb	t1, 0x3(a5)
180002c50: 03 c3 68 00 	lbu	t1, 0x6(a7)
180002c54: 23 82 77 00 	sb	t2, 0x4(a5)
180002c58: a3 82 c7 01 	sb	t3, 0x5(a5)
180002c5c: 83 c3 78 00 	lbu	t2, 0x7(a7)
180002c60: 23 83 67 00 	sb	t1, 0x6(a5)
180002c64: 93 88 88 00 	addi	a7, a7, 0x8
180002c68: 13 83 87 00 	addi	t1, a5, 0x8
180002c6c: a3 83 77 00 	sb	t2, 0x7(a5)
180002c70: 93 07 03 00 	mv	a5, t1
180002c74: 0b b0 02 00 	vx_join	t0
180002c78: 93 12 d8 03 	slli	t0, a6, 0x3d
180002c7c: 13 d3 f2 03 	srli	t1, t0, 0x3f
180002c80: 8b 22 13 00 	vx_split_n	t0, t1
180002c84: 63 08 03 02 	beqz	t1, 0x180002cb4 <memcpy+0x3f0>
180002c88: 03 c3 08 00 	lbu	t1, 0x0(a7)
180002c8c: 83 c3 18 00 	lbu	t2, 0x1(a7)
180002c90: 03 ce 28 00 	lbu	t3, 0x2(a7)
180002c94: 23 80 67 00 	sb	t1, 0x0(a5)
180002c98: a3 80 77 00 	sb	t2, 0x1(a5)
180002c9c: 03 c3 38 00 	lbu	t1, 0x3(a7)
180002ca0: 23 81 c7 01 	sb	t3, 0x2(a5)
180002ca4: 93 88 48 00 	addi	a7, a7, 0x4
180002ca8: 93 83 47 00 	addi	t2, a5, 0x4
180002cac: a3 81 67 00 	sb	t1, 0x3(a5)
180002cb0: 93 87 03 00 	mv	a5, t2
180002cb4: 0b b0 02 00 	vx_join	t0
180002cb8: 93 12 e8 03 	slli	t0, a6, 0x3e
180002cbc: 13 d3 f2 03 	srli	t1, t0, 0x3f
180002cc0: 8b 22 13 00 	vx_split_n	t0, t1
180002cc4: 63 00 03 02 	beqz	t1, 0x180002ce4 <memcpy+0x420>
180002cc8: 03 c3 08 00 	lbu	t1, 0x0(a7)
180002ccc: 83 c3 18 00 	lbu	t2, 0x1(a7)
180002cd0: 23 80 67 00 	sb	t1, 0x0(a5)
180002cd4: 13 83 27 00 	addi	t1, a5, 0x2
180002cd8: 93 88 28 00 	addi	a7, a7, 0x2
180002cdc: a3 80 77 00 	sb	t2, 0x1(a5)
180002ce0: 93 07 03 00 	mv	a5, t1
180002ce4: 0b b0 02 00 	vx_join	t0
180002ce8: 93 02 00 00 	li	t0, 0x0
180002cec: 13 78 18 00 	andi	a6, a6, 0x1
180002cf0: 0b 30 07 00 	vx_join	a4
180002cf4: 0b a7 12 00 	vx_split_n	a4, t0
180002cf8: 63 84 02 0e 	beqz	t0, 0x180002de0 <memcpy+0x51c>
180002cfc: 93 37 06 01 	sltiu	a5, a2, 0x10
180002d00: 13 c8 17 00 	xori	a6, a5, 0x1
180002d04: 8b 27 18 00 	vx_split_n	a5, a6
180002d08: 63 00 08 04 	beqz	a6, 0x180002d48 <memcpy+0x484>
180002d0c: 73 28 40 cc 	csrr	a6, tmask
180002d10: 83 a8 05 00 	lw	a7, 0x0(a1)
180002d14: 83 a2 45 00 	lw	t0, 0x4(a1)
180002d18: 03 a3 85 00 	lw	t1, 0x8(a1)
180002d1c: 83 a3 c5 00 	lw	t2, 0xc(a1)
180002d20: 23 a0 16 01 	sw	a7, 0x0(a3)
180002d24: 23 a2 56 00 	sw	t0, 0x4(a3)
180002d28: 23 a4 66 00 	sw	t1, 0x8(a3)
180002d2c: 23 a6 76 00 	sw	t2, 0xc(a3)
180002d30: 93 85 05 01 	addi	a1, a1, 0x10
180002d34: 93 86 06 01 	addi	a3, a3, 0x10
180002d38: 1b 06 06 ff 	addiw	a2, a2, -0x10
180002d3c: 93 38 06 01 	sltiu	a7, a2, 0x10
180002d40: 8b d0 08 01 	vx_pred_n	a7, a6
180002d44: e3 86 08 fc 	beqz	a7, 0x180002d10 <memcpy+0x44c>
180002d48: 0b b0 07 00 	vx_join	a5
180002d4c: 93 37 86 00 	sltiu	a5, a2, 0x8
180002d50: 13 c8 17 00 	xori	a6, a5, 0x1
180002d54: 8b 27 18 00 	vx_split_n	a5, a6
180002d58: 63 00 08 02 	beqz	a6, 0x180002d78 <memcpy+0x4b4>
180002d5c: 03 a8 05 00 	lw	a6, 0x0(a1)
180002d60: 83 a8 45 00 	lw	a7, 0x4(a1)
180002d64: 93 85 85 00 	addi	a1, a1, 0x8
180002d68: 23 a0 06 01 	sw	a6, 0x0(a3)
180002d6c: 13 88 86 00 	addi	a6, a3, 0x8
180002d70: 23 a2 16 01 	sw	a7, 0x4(a3)
180002d74: 93 06 08 00 	mv	a3, a6
180002d78: 0b b0 07 00 	vx_join	a5
180002d7c: 93 17 d6 03 	slli	a5, a2, 0x3d
180002d80: 13 d8 f7 03 	srli	a6, a5, 0x3f
180002d84: 8b 27 18 00 	vx_split_n	a5, a6
180002d88: 63 0c 08 00 	beqz	a6, 0x180002da0 <memcpy+0x4dc>
180002d8c: 03 a8 05 00 	lw	a6, 0x0(a1)
180002d90: 93 85 45 00 	addi	a1, a1, 0x4
180002d94: 93 88 46 00 	addi	a7, a3, 0x4
180002d98: 23 a0 06 01 	sw	a6, 0x0(a3)
180002d9c: 93 86 08 00 	mv	a3, a7
180002da0: 0b b0 07 00 	vx_join	a5
180002da4: 93 17 e6 03 	slli	a5, a2, 0x3e
180002da8: 13 d8 f7 03 	srli	a6, a5, 0x3f
180002dac: 8b 27 18 00 	vx_split_n	a5, a6
180002db0: 63 00 08 02 	beqz	a6, 0x180002dd0 <memcpy+0x50c>
180002db4: 03 c8 05 00 	lbu	a6, 0x0(a1)
180002db8: 83 c8 15 00 	lbu	a7, 0x1(a1)
180002dbc: 23 80 06 01 	sb	a6, 0x0(a3)
180002dc0: 13 88 26 00 	addi	a6, a3, 0x2
180002dc4: 93 85 25 00 	addi	a1, a1, 0x2
180002dc8: a3 80 16 01 	sb	a7, 0x1(a3)
180002dcc: 93 06 08 00 	mv	a3, a6
180002dd0: 0b b0 07 00 	vx_join	a5
180002dd4: 13 78 16 00 	andi	a6, a2, 0x1
180002dd8: 93 88 05 00 	mv	a7, a1
180002ddc: 93 87 06 00 	mv	a5, a3
180002de0: 0b 30 07 00 	vx_join	a4
180002de4: 8b 25 18 00 	vx_split_n	a1, a6
180002de8: 63 06 08 00 	beqz	a6, 0x180002df4 <memcpy+0x530>
180002dec: 03 c6 08 00 	lbu	a2, 0x0(a7)
180002df0: 23 80 c7 00 	sb	a2, 0x0(a5)
180002df4: 0b b0 05 00 	vx_join	a1
180002df8: 03 34 81 01 	ld	s0, 0x18(sp)
180002dfc: 83 34 01 01 	ld	s1, 0x10(sp)
180002e00: 03 39 81 00 	ld	s2, 0x8(sp)
180002e04: 83 39 01 00 	ld	s3, 0x0(sp)
180002e08: 13 01 01 02 	addi	sp, sp, 0x20
180002e0c: 67 80 00 00 	ret

0000000180002e10 <memset>:
180002e10: 33 37 c0 00 	snez	a4, a2
180002e14: 8b 26 17 00 	vx_split_n	a3, a4
180002e18: 63 06 07 1a 	beqz	a4, 0x180002fc4 <memset+0x1b4>
180002e1c: 23 00 b5 00 	sb	a1, 0x0(a0)
180002e20: 13 07 f6 ff 	addi	a4, a2, -0x1
180002e24: 13 17 07 02 	slli	a4, a4, 0x20
180002e28: 13 57 07 02 	srli	a4, a4, 0x20
180002e2c: 33 07 e5 00 	add	a4, a0, a4
180002e30: 23 00 b7 00 	sb	a1, 0x0(a4)
180002e34: 13 37 36 00 	sltiu	a4, a2, 0x3
180002e38: 93 47 17 00 	xori	a5, a4, 0x1
180002e3c: 0b a7 17 00 	vx_split_n	a4, a5
180002e40: 63 80 07 18 	beqz	a5, 0x180002fc0 <memset+0x1b0>
180002e44: a3 00 b5 00 	sb	a1, 0x1(a0)
180002e48: 23 01 b5 00 	sb	a1, 0x2(a0)
180002e4c: 93 07 e6 ff 	addi	a5, a2, -0x2
180002e50: 93 97 07 02 	slli	a5, a5, 0x20
180002e54: 93 d7 07 02 	srli	a5, a5, 0x20
180002e58: b3 07 f5 00 	add	a5, a0, a5
180002e5c: 23 80 b7 00 	sb	a1, 0x0(a5)
180002e60: 93 07 d6 ff 	addi	a5, a2, -0x3
180002e64: 93 97 07 02 	slli	a5, a5, 0x20
180002e68: 93 d7 07 02 	srli	a5, a5, 0x20
180002e6c: b3 07 f5 00 	add	a5, a0, a5
180002e70: 23 80 b7 00 	sb	a1, 0x0(a5)
180002e74: 93 37 76 00 	sltiu	a5, a2, 0x7
180002e78: 13 c8 17 00 	xori	a6, a5, 0x1
180002e7c: 8b 27 18 00 	vx_split_n	a5, a6
180002e80: 63 0e 08 12 	beqz	a6, 0x180002fbc <memset+0x1ac>
180002e84: a3 01 b5 00 	sb	a1, 0x3(a0)
180002e88: 13 08 c6 ff 	addi	a6, a2, -0x4
180002e8c: 13 18 08 02 	slli	a6, a6, 0x20
180002e90: 13 58 08 02 	srli	a6, a6, 0x20
180002e94: 33 08 05 01 	add	a6, a0, a6
180002e98: 23 00 b8 00 	sb	a1, 0x0(a6)
180002e9c: 13 38 96 00 	sltiu	a6, a2, 0x9
180002ea0: 93 48 18 00 	xori	a7, a6, 0x1
180002ea4: 0b a8 18 00 	vx_split_n	a6, a7
180002ea8: 63 88 08 10 	beqz	a7, 0x180002fb8 <memset+0x1a8>
180002eac: bb 08 a0 40 	negw	a7, a0
180002eb0: 93 f8 38 00 	andi	a7, a7, 0x3
180002eb4: b3 02 15 01 	add	t0, a0, a7
180002eb8: 3b 06 16 41 	subw	a2, a2, a7
180002ebc: 13 73 c6 ff 	andi	t1, a2, -0x4
180002ec0: 93 95 85 03 	slli	a1, a1, 0x38
180002ec4: b7 13 10 10 	lui	t2, 0x10101
180002ec8: 93 93 43 00 	slli	t2, t2, 0x4
180002ecc: 93 83 03 10 	addi	t2, t2, 0x100
180002ed0: b3 b3 75 02 	mulhu	t2, a1, t2
180002ed4: 23 a0 72 00 	sw	t2, 0x0(t0)
180002ed8: 9b 55 26 00 	srliw	a1, a2, 0x2
180002edc: 93 95 25 00 	slli	a1, a1, 0x2
180002ee0: 33 8e b2 00 	add	t3, t0, a1
180002ee4: 23 2e 7e fe 	sw	t2, -0x4(t3)
180002ee8: 93 35 93 00 	sltiu	a1, t1, 0x9
180002eec: 13 c6 15 00 	xori	a2, a1, 0x1
180002ef0: 8b 25 16 00 	vx_split_n	a1, a2
180002ef4: 63 00 06 0c 	beqz	a2, 0x180002fb4 <memset+0x1a4>
180002ef8: 23 a2 72 00 	sw	t2, 0x4(t0)
180002efc: 23 a4 72 00 	sw	t2, 0x8(t0)
180002f00: 23 2a 7e fe 	sw	t2, -0xc(t3)
180002f04: 23 2c 7e fe 	sw	t2, -0x8(t3)
180002f08: 13 36 93 01 	sltiu	a2, t1, 0x19
180002f0c: 93 4e 16 00 	xori	t4, a2, 0x1
180002f10: 0b a6 1e 00 	vx_split_n	a2, t4
180002f14: 63 8e 0e 08 	beqz	t4, 0x180002fb0 <memset+0x1a0>
180002f18: 23 a6 72 00 	sw	t2, 0xc(t0)
180002f1c: 23 a8 72 00 	sw	t2, 0x10(t0)
180002f20: 23 aa 72 00 	sw	t2, 0x14(t0)
180002f24: 23 ac 72 00 	sw	t2, 0x18(t0)
180002f28: 23 22 7e fe 	sw	t2, -0x1c(t3)
180002f2c: 23 24 7e fe 	sw	t2, -0x18(t3)
180002f30: 23 26 7e fe 	sw	t2, -0x14(t3)
180002f34: 23 28 7e fe 	sw	t2, -0x10(t3)
180002f38: 93 fe 42 00 	andi	t4, t0, 0x4
180002f3c: 13 8f 8e 01 	addi	t5, t4, 0x18
180002f40: 3b 0e e3 41 	subw	t3, t1, t5
180002f44: 13 3e 0e 02 	sltiu	t3, t3, 0x20
180002f48: 93 4f 1e 00 	xori	t6, t3, 0x1
180002f4c: 0b ae 1f 00 	vx_split_n	t3, t6
180002f50: 63 8e 0f 04 	beqz	t6, 0x180002fac <memset+0x19c>
180002f54: 93 93 03 02 	slli	t2, t2, 0x20
180002f58: 93 df 03 02 	srli	t6, t2, 0x20
180002f5c: b3 e3 f3 01 	or	t2, t2, t6
180002f60: b3 82 e2 01 	add	t0, t0, t5
180002f64: 3b 03 d3 41 	subw	t1, t1, t4
180002f68: 13 03 83 fc 	addi	t1, t1, -0x38
180002f6c: 1b 53 53 00 	srliw	t1, t1, 0x5
180002f70: 13 13 53 00 	slli	t1, t1, 0x5
180002f74: b3 e8 1e 01 	or	a7, t4, a7
180002f78: b3 68 13 01 	or	a7, t1, a7
180002f7c: b3 88 a8 00 	add	a7, a7, a0
180002f80: 93 88 88 03 	addi	a7, a7, 0x38
180002f84: 73 23 40 cc 	csrr	t1, tmask
180002f88: 23 b0 72 00 	sd	t2, 0x0(t0)
180002f8c: 23 b4 72 00 	sd	t2, 0x8(t0)
180002f90: 23 b8 72 00 	sd	t2, 0x10(t0)
180002f94: 23 bc 72 00 	sd	t2, 0x18(t0)
180002f98: 93 82 02 02 	addi	t0, t0, 0x20
180002f9c: b3 ce 12 01 	xor	t4, t0, a7
180002fa0: 93 be 1e 00 	seqz	t4, t4
180002fa4: 8b d0 6e 00 	vx_pred_n	t4, t1
180002fa8: e3 80 0e fe 	beqz	t4, 0x180002f88 <memset+0x178>
180002fac: 0b 30 0e 00 	vx_join	t3
180002fb0: 0b 30 06 00 	vx_join	a2
180002fb4: 0b b0 05 00 	vx_join	a1
180002fb8: 0b 30 08 00 	vx_join	a6
180002fbc: 0b b0 07 00 	vx_join	a5
180002fc0: 0b 30 07 00 	vx_join	a4
180002fc4: 0b b0 06 00 	vx_join	a3
180002fc8: 67 80 00 00 	ret

Disassembly of section .rodata:

0000000180002fd0 <.rodata>:
180002fd0: 43 48 45 43 	fmadd.d	fa6, fa0, fs4, fs0, rmm
180002fd4: 4b 3a 20 63 	fnmsub.d	fs4, ft0, fs2, fa2, rup
180002fd8: 75 64       	<unknown>
180002fda: 61 6d       	<unknown>
180002fdc: 65 6d       	<unknown>
180002fde: 63 70 79 74 	bgeu	s2, t2, 0x18000371e <STARTUP_ADDR+0x371e>
180002fe2: 6f 73 79 6d 	jal	t1, 0x18009aeb8 <_end+0x96ae0>
180002fe6: 62 6f       	<unknown>
180002fe8: 6c 2c       	<unknown>
180002fea: 20 6e       	<unknown>
180002fec: 75 6d       	<unknown>
180002fee: 62 65       	<unknown>
180002ff0: 72 20       	<unknown>
180002ff2: 6f 66 20 63 	jal	a2, 0x180009624 <_end+0x524c>
180002ff6: 75 64       	<unknown>
180002ff8: 61 6d       	<unknown>
180002ffa: 65 6d       	<unknown>
180002ffc: 63 70 79 74 	bgeu	s2, t2, 0x18000373c <STARTUP_ADDR+0x373c>
180003000: 6f 73 79 6d 	jal	t1, 0x18009aed6 <_end+0x96afe>
180003004: 62 6f       	<unknown>
180003006: 6c 3d       	<unknown>
180003008: 25 64       	<unknown>
18000300a: 20 0a       	<unknown>
18000300c: 00 00       	<unknown>
18000300e: 00 00       	<unknown>
180003010: 65 72       	<unknown>
180003012: 72 6f       	<unknown>
180003014: 72 3a       	<unknown>
180003016: 20 67       	<unknown>
180003018: 72 6f       	<unknown>
18000301a: 75 70       	<unknown>
18000301c: 5f 73 69 7a 	<unknown>
180003020: 65 20       	<unknown>
180003022: 3e 20       	<unknown>
180003024: 74 68       	<unknown>
180003026: 72 65       	<unknown>
180003028: 61 64       	<unknown>
18000302a: 73 5f 70 65 	csrrwi	t5, 0x657, 0x0
18000302e: 72 5f       	<unknown>
180003030: 63 6f 72 65 	bltu	tp, s7, 0x18000368e <STARTUP_ADDR+0x368e>
180003034: 20 28       	<unknown>
180003036: 25 64       	<unknown>
180003038: 2c 25       	<unknown>
18000303a: 64 29       	<unknown>
18000303c: 0a 00       	<unknown>
18000303e: 00 00       	<unknown>
180003040: 66 6e       	<unknown>
180003042: 69 2b       	<unknown>
180003044: 00 00       	<unknown>
180003046: 00 00       	<unknown>
180003048: 66 6e       	<unknown>
18000304a: 69 00       	<unknown>
18000304c: 00 00       	<unknown>
18000304e: 00 00       	<unknown>
180003050: 6e 61       	<unknown>
180003052: 6e 00       	<unknown>
180003054: 00 00       	<unknown>
180003056: 00 00       	<unknown>
180003058: 66 6e       	<unknown>
18000305a: 69 2d       	<unknown>
18000305c: 00 00       	<unknown>
18000305e: 00 00       	<unknown>
180003060: 08 ef       	<unknown>
180003062: ff ff 74 ee 	<unknown>
180003066: ff ff 74 ee 	<unknown>
18000306a: ff ff f8 ee 	<unknown>
18000306e: ff ff 74 ee 	<unknown>
180003072: ff ff 74 ee 	<unknown>
180003076: ff ff 74 ee 	<unknown>
18000307a: ff ff 74 ee 	<unknown>
18000307e: ff ff 74 ee 	<unknown>
180003082: ff ff 74 ee 	<unknown>
180003086: ff ff 74 ee 	<unknown>
18000308a: ff ff e8 ee 	<unknown>
18000308e: ff ff 74 ee 	<unknown>
180003092: ff ff d8 ee 	<unknown>
180003096: ff ff 74 ee 	<unknown>
18000309a: ff ff 74 ee 	<unknown>
18000309e: ff ff c8 ee 	<unknown>
1800030a2: ff ff 18 f1 	<unknown>
1800030a6: ff ff e4 ee 	<unknown>
1800030aa: ff ff d4 ee 	<unknown>
1800030ae: ff ff e4 ee 	<unknown>
1800030b2: ff ff f8 f0 	<unknown>
1800030b6: ff ff e4 ee 	<unknown>
1800030ba: ff ff e4 ee 	<unknown>
1800030be: ff ff e4 ee 	<unknown>
1800030c2: ff ff e4 ee 	<unknown>
1800030c6: ff ff e4 ee 	<unknown>
1800030ca: ff ff e4 ee 	<unknown>
1800030ce: ff ff e4 ee 	<unknown>
1800030d2: ff ff d4 ee 	<unknown>
1800030d6: ff ff e4 ee 	<unknown>
1800030da: ff ff e4 ee 	<unknown>
1800030de: ff ff e4 ee 	<unknown>
1800030e2: ff ff e4 ee 	<unknown>
1800030e6: ff ff e4 ee 	<unknown>
1800030ea: ff ff d4 ee 	<unknown>
1800030ee: ff ff 84 f1 	<unknown>
1800030f2: ff ff 90 ed 	<unknown>
1800030f6: ff ff 90 ed 	<unknown>
1800030fa: ff ff 90 ed 	<unknown>
1800030fe: ff ff 90 ed 	<unknown>
180003102: ff ff 90 ed 	<unknown>
180003106: ff ff 90 ed 	<unknown>
18000310a: ff ff 90 ed 	<unknown>
18000310e: ff ff 90 ed 	<unknown>
180003112: ff ff 90 ed 	<unknown>
180003116: ff ff 90 ed 	<unknown>
18000311a: ff ff 90 ed 	<unknown>
18000311e: ff ff 90 ed 	<unknown>
180003122: ff ff 90 ed 	<unknown>
180003126: ff ff 90 ed 	<unknown>
18000312a: ff ff 90 ed 	<unknown>
18000312e: ff ff 90 ed 	<unknown>
180003132: ff ff 90 ed 	<unknown>
180003136: ff ff 90 ed 	<unknown>
18000313a: ff ff 90 ed 	<unknown>
18000313e: ff ff 90 ed 	<unknown>
180003142: ff ff 90 ed 	<unknown>
180003146: ff ff 90 ed 	<unknown>
18000314a: ff ff 90 ed 	<unknown>
18000314e: ff ff 90 ed 	<unknown>
180003152: ff ff 90 ed 	<unknown>
180003156: ff ff 90 ed 	<unknown>
18000315a: ff ff 90 ed 	<unknown>
18000315e: ff ff 90 ed 	<unknown>
180003162: ff ff 90 ed 	<unknown>
180003166: ff ff 90 ed 	<unknown>
18000316a: ff ff 90 ed 	<unknown>
18000316e: ff ff 64 f0 	<unknown>
180003172: ff ff e8 f0 	<unknown>
180003176: ff ff 64 f0 	<unknown>
18000317a: ff ff 90 ed 	<unknown>
18000317e: ff ff 90 ed 	<unknown>
180003182: ff ff 90 ed 	<unknown>
180003186: ff ff 90 ed 	<unknown>
18000318a: ff ff 90 ed 	<unknown>
18000318e: ff ff 90 ed 	<unknown>
180003192: ff ff 90 ed 	<unknown>
180003196: ff ff 90 ed 	<unknown>
18000319a: ff ff 90 ed 	<unknown>
18000319e: ff ff 90 ed 	<unknown>
1800031a2: ff ff 90 ed 	<unknown>
1800031a6: ff ff 90 ed 	<unknown>
1800031aa: ff ff 90 ed 	<unknown>
1800031ae: ff ff 90 ed 	<unknown>
1800031b2: ff ff 90 ed 	<unknown>
1800031b6: ff ff 90 ed 	<unknown>
1800031ba: ff ff f8 f2 	<unknown>
1800031be: ff ff 90 ed 	<unknown>
1800031c2: ff ff 90 ed 	<unknown>
1800031c6: ff ff 90 ed 	<unknown>
1800031ca: ff ff 90 ed 	<unknown>
1800031ce: ff ff 90 ed 	<unknown>
1800031d2: ff ff 90 ed 	<unknown>
1800031d6: ff ff 90 ed 	<unknown>
1800031da: ff ff 90 ed 	<unknown>
1800031de: ff ff 90 ed 	<unknown>
1800031e2: ff ff f8 f2 	<unknown>
1800031e6: ff ff 20 f1 	<unknown>
1800031ea: ff ff f8 f2 	<unknown>
1800031ee: ff ff 64 f0 	<unknown>
1800031f2: ff ff e8 f0 	<unknown>
1800031f6: ff ff 64 f0 	<unknown>
1800031fa: ff ff 00 00 	<unknown>
1800031fe: 00 00       	<unknown>

0000000180003200 <pow10.0>:
180003200: 00 00       	<unknown>
180003202: 00 00       	<unknown>
180003204: 00 00       	<unknown>
180003206: f0 3f       	<unknown>
180003208: 00 00       	<unknown>
18000320a: 00 00       	<unknown>
18000320c: 00 00       	<unknown>
18000320e: 24 40       	<unknown>
180003210: 00 00       	<unknown>
180003212: 00 00       	<unknown>
180003214: 00 00       	<unknown>
180003216: 59 40       	<unknown>
180003218: 00 00       	<unknown>
18000321a: 00 00       	<unknown>
18000321c: 00 40       	<unknown>
18000321e: 8f 40 00 00 	<unknown>
180003222: 00 00       	<unknown>
180003224: 00 88       	<unknown>
180003226: c3 40 00 00 	fmadd.s	ft1, ft0, ft0, ft0, rmm
18000322a: 00 00       	<unknown>
18000322c: 00 6a       	<unknown>
18000322e: f8 40       	<unknown>
180003230: 00 00       	<unknown>
180003232: 00 00       	<unknown>
180003234: 80 84       	<unknown>
180003236: 2e 41       	<unknown>
180003238: 00 00       	<unknown>
18000323a: 00 00       	<unknown>
18000323c: d0 12       	<unknown>
18000323e: 63 41 00 00 	bltz	zero, 0x180003240 <pow10.0+0x40>
180003242: 00 00       	<unknown>
180003244: 84 d7       	<unknown>
180003246: 97 41 00 00 	auipc	gp, 0x4
18000324a: 00 00       	<unknown>
18000324c: 65 cd       	<unknown>
18000324e: cd 41       	<unknown>

Disassembly of section .eh_frame:

0000000180003250 <.eh_frame>:
180003250: 10 00       	<unknown>
180003252: 00 00       	<unknown>
180003254: 00 00       	<unknown>
180003256: 00 00       	<unknown>
180003258: 01 7a       	<unknown>
18000325a: 52 00       	<unknown>
18000325c: 01 78       	<unknown>
18000325e: 01 01       	<unknown>
180003260: 1b 0c 02 00 	sext.w	s8, tp
180003264: 10 00       	<unknown>
180003266: 00 00       	<unknown>
180003268: 18 00       	<unknown>
18000326a: 00 00       	<unknown>
18000326c: 28 ce       	<unknown>
18000326e: ff ff 4c 00 	<unknown>
180003272: 00 00       	<unknown>
180003274: 00 00       	<unknown>
180003276: 00 00       	<unknown>
180003278: 10 00       	<unknown>
18000327a: 00 00       	<unknown>
18000327c: 2c 00       	<unknown>
18000327e: 00 00       	<unknown>
180003280: 60 ce       	<unknown>
180003282: ff ff 4c 00 	<unknown>
180003286: 00 00       	<unknown>
180003288: 00 00       	<unknown>
18000328a: 00 00       	<unknown>
18000328c: 20 00       	<unknown>
18000328e: 00 00       	<unknown>
180003290: 40 00       	<unknown>
180003292: 00 00       	<unknown>
180003294: 98 ce       	<unknown>
180003296: ff ff 20 01 	<unknown>
18000329a: 00 00       	<unknown>
18000329c: 00 44       	<unknown>
18000329e: 0e 30       	<unknown>
1800032a0: 58 81       	<unknown>
1800032a2: 01 88       	<unknown>
1800032a4: 02 89       	<unknown>
1800032a6: 03 92 04 93 	lh	tp, -0x6d0(s1)
1800032aa: 05 94       	<unknown>
1800032ac: 06 00       	<unknown>
1800032ae: 00 00       	<unknown>

Disassembly of section .tbss:

00000001800042b0 <__tbss_start>:
...

Disassembly of section .data:

00000001800042b0 <callbacks>:
1800042b0: 94 00       	<unknown>
1800042b2: 00 80       	<unknown>
1800042b4: 01 00       	<unknown>
1800042b6: 00 00       	<unknown>
1800042b8: e0 00       	<unknown>
1800042ba: 00 80       	<unknown>
1800042bc: 01 00       	<unknown>
1800042be: 00 00       	<unknown>

Disassembly of section .got:

00000001800042c0 <.got>:
1800042c0: ff ff ff ff 	<unknown>
1800042c4: ff ff ff ff 	<unknown>
		...

00000001800042d0 <_GLOBAL_OFFSET_TABLE_>:
		...
1800042d8: 20 00       	<unknown>
1800042da: 00 00       	<unknown>
1800042dc: 00 00       	<unknown>
1800042de: 00 00       	<unknown>
1800042e0: 30 00       	<unknown>
1800042e2: 00 00       	<unknown>
1800042e4: 00 00       	<unknown>
1800042e6: 00 00       	<unknown>
1800042e8: b0 42       	<unknown>
1800042ea: 00 80       	<unknown>
1800042ec: 01 00       	<unknown>
1800042ee: 00 00       	<unknown>
1800042f0: b0 42       	<unknown>
1800042f2: 00 80       	<unknown>
1800042f4: 01 00       	<unknown>
1800042f6: 00 00       	<unknown>

Disassembly of section .sdata:

00000001800042f8 <__SDATA_BEGIN__>:
1800042f8: 00 00       	<unknown>
1800042fa: 00 00       	<unknown>
1800042fc: 65 cd       	<unknown>
1800042fe: cd 41       	<unknown>
180004300: 00 00       	<unknown>
180004302: 00 00       	<unknown>
180004304: 80 84       	<unknown>
180004306: 2e 41       	<unknown>
180004308: ff ff ff ff 	<unknown>
18000430c: ff ff ef ff 	<unknown>
180004310: ff ff ff ff 	<unknown>
180004314: ff ff ef 7f 	<unknown>
180004318: 00 00       	<unknown>
18000431a: 00 00       	<unknown>
18000431c: 65 cd       	<unknown>
18000431e: cd c1       	<unknown>
180004320: 00 00       	<unknown>
180004322: 00 00       	<unknown>
180004324: 00 00       	<unknown>
180004326: e0 3f       	<unknown>
180004328: fb 79 9f 50 	<unknown>
18000432c: 13 44 d3 3f 	xori	s0, t1, 0x3fd
180004330: b3 c8 60 8b 	<unknown>
180004334: 28 8a       	<unknown>
180004336: c6 3f       	<unknown>
180004338: 00 00       	<unknown>
18000433a: 00 00       	<unknown>
18000433c: 00 00       	<unknown>
18000433e: f8 3f       	<unknown>
180004340: 61 43       	<unknown>
180004342: 6f 63 a7 87 	jal	t1, 0x17ff7a3bc <__tbss_size+0x17ff7a37c>
180004346: d2 3f       	<unknown>
180004348: 71 a3       	<unknown>
18000434a: 79 09       	<unknown>
18000434c: 4f 93 0a 40 	fnmadd.s	ft6, fs5, ft0, fs0, rtz
180004350: ef 39 fa fe 	jal	s3, 0x17ffa833e <__tbss_size+0x17ffa82fe>
180004354: 42 2e       	<unknown>
180004356: e6 3f       	<unknown>
180004358: 16 55       	<unknown>
18000435a: b5 bb       	<unknown>
18000435c: b1 6b       	<unknown>
18000435e: 02 40       	<unknown>
180004360: 00 00       	<unknown>
180004362: 00 00       	<unknown>
180004364: 00 00       	<unknown>
180004366: 2c 40       	<unknown>
180004368: 00 00       	<unknown>
18000436a: 00 00       	<unknown>
18000436c: 00 00       	<unknown>
18000436e: 24 40       	<unknown>
180004370: 00 00       	<unknown>
180004372: 00 00       	<unknown>
180004374: 00 00       	<unknown>
180004376: 18 40       	<unknown>
180004378: 00 00       	<unknown>
18000437a: 00 00       	<unknown>
18000437c: 00 00       	<unknown>
18000437e: 00 40       	<unknown>
180004380: 00 00       	<unknown>
180004382: 00 00       	<unknown>
180004384: 00 00       	<unknown>
180004386: f0 3f       	<unknown>
180004388: 2d 43       	<unknown>
18000438a: 1c eb       	<unknown>
18000438c: e2 36       	<unknown>
18000438e: 1a 3f       	<unknown>

Disassembly of section .sbss:

0000000180004390 <grid_size_x>:
...

0000000180004394 <grid_size_y>:
...

0000000180004398 <grid_size_z>:
...

000000018000439c <block_size_x>:
...

00000001800043a0 <block_size_y>:
...

00000001800043a4 <block_size_z>:
...

00000001800043a8 <block_size>:
...

00000001800043ac <dyn_shared_mem_size>:
...

00000001800043b0 <__warps_per_group>:
...

Disassembly of section .bss:

00000001800043b8 <blockDim>:
...

00000001800043c8 <gridDim>:
...

Disassembly of section .comment:

0000000000000000 <.comment>:
       0: 63 6c 61 6e  	bltu	sp, t1, 0x6f8 <.comment+0x6f8>
       4: 67 20 76 65  	<unknown>
       8: 72 73        	<unknown>
       a: 69 6f        	<unknown>
       c: 6e 20        	<unknown>
       e: 31 38        	<unknown>
      10: 2e 31        	<unknown>
      12: 2e 37        	<unknown>
      14: 20 28        	<unknown>
      16: 68 74        	<unknown>
      18: 74 70        	<unknown>
      1a: 73 3a 2f 2f  	csrrc	s4, 0x2f2, t5
      1e: 67 69 74 68  	<unknown>
      22: 75 62        	<unknown>
      24: 2e 63        	<unknown>
      26: 6f 6d 2f 76  	jal	s10, 0xf6788 <.comment+0xf6788>
      2a: 6f 72 74 65  	jal	tp, 0x47e80 <.comment+0x47e80>
      2e: 78 67        	<unknown>
      30: 70 67        	<unknown>
      32: 70 75        	<unknown>
      34: 2f 6c 6c 76  	<unknown>
      38: 6d 2e        	<unknown>
      3a: 67 69 74 20  	<unknown>
      3e: 61 35        	<unknown>
      40: 65 62        	<unknown>
      42: 66 37        	<unknown>
      44: 66 32        	<unknown>
      46: 63 31 66 32  	<unknown>
      4a: 34 36        	<unknown>
      4c: 61 35        	<unknown>
      4e: 65 33        	<unknown>
      50: 61 30        	<unknown>
      52: 38 31        	<unknown>
      54: 61 34        	<unknown>
      56: 66 64        	<unknown>
      58: 31 35        	<unknown>
      5a: 37 36 32 34  	lui	a2, 0x34323
      5e: 37 65 35 37  	lui	a0, 0x37356
      62: 34 62        	<unknown>
      64: 33 30 29 00  	sltu	zero, s2, sp
      68: 63 6c 61 6e  	bltu	sp, t1, 0x760 <.comment+0x760>
      6c: 67 20 76 65  	<unknown>
      70: 72 73        	<unknown>
      72: 69 6f        	<unknown>
      74: 6e 20        	<unknown>
      76: 33 2e 38 2e  	<unknown>
      7a: 30 20        	<unknown>
      7c: 28 74        	<unknown>
      7e: 61 67        	<unknown>
      80: 73 2f 52 45  	csrrs	t5, 0x455, tp
      84: 4c 45        	<unknown>
      86: 41 53        	<unknown>
      88: 45 5f        	<unknown>
      8a: 33 38 30 2f  	<unknown>
      8e: 66 69        	<unknown>
      90: 6e 61        	<unknown>
      92: 6c 29        	<unknown>
      94: 00 63        	<unknown>
      96: 6c 61        	<unknown>
      98: 6e 67        	<unknown>
      9a: 20 76        	<unknown>
      9c: 65 72        	<unknown>
      9e: 73 69 6f 6e  	csrrsi	s2, 0x6e6, 0x1e
      a2: 20 31        	<unknown>
      a4: 38 2e        	<unknown>
      a6: 31 2e        	<unknown>
      a8: 37 20 28 68  	lui	zero, 0x68282
      ac: 74 74        	<unknown>
      ae: 70 73        	<unknown>
      b0: 3a 2f        	<unknown>
      b2: 2f 67 69 74  	<unknown>
      b6: 68 75        	<unknown>
      b8: 62 2e        	<unknown>
      ba: 63 6f 6d 2f  	bltu	s10, s6, 0x3b8 <.comment+0x3b8>
      be: 76 6f        	<unknown>
      c0: 72 74        	<unknown>
      c2: 65 78        	<unknown>
      c4: 67 70 67 70  	<unknown>
      c8: 75 2f        	<unknown>
      ca: 6c 6c        	<unknown>
      cc: 76 6d        	<unknown>
      ce: 2e 67        	<unknown>
      d0: 69 74        	<unknown>
      d2: 20 35        	<unknown>
      d4: 32 31        	<unknown>
      d6: 32 62        	<unknown>
      d8: 31 30        	<unknown>
      da: 31 36        	<unknown>
      dc: 30 65        	<unknown>
      de: 36 33        	<unknown>
      e0: 63 39 61 39  	<unknown>
      e4: 38 38        	<unknown>
      e6: 33 63 33 66  	<unknown>
      ea: 62 38        	<unknown>
      ec: 62 30        	<unknown>
      ee: 38 64        	<unknown>
      f0: 30 31        	<unknown>
      f2: 35 62        	<unknown>
      f4: 36 36        	<unknown>
      f6: 37 64 64 61  	lui	s0, 0x61646
      fa: 62 29        	<unknown>
      fc: 00 47        	<unknown>
      fe: 43 43 3a 20  	fmadd.s	ft6, fs4, ft3, ft4, rmm
     102: 28 67        	<unknown>
     104: 32 65        	<unknown>
     106: 65 35        	<unknown>
     108: 65 34        	<unknown>
     10a: 33 30 30 31  	<unknown>
     10e: 38 2d        	<unknown>
     110: 64 69        	<unknown>
     112: 72 74        	<unknown>
     114: 79 29        	<unknown>
     116: 20 31        	<unknown>
     118: 32 2e        	<unknown>
     11a: 32 2e        	<unknown>
     11c: 30 00        	<unknown>
     11e: 63 6c 61 6e  	bltu	sp, t1, 0x816 <.comment+0x816>
     122: 67 20 76 65  	<unknown>
     126: 72 73        	<unknown>
     128: 69 6f        	<unknown>
     12a: 6e 20        	<unknown>
     12c: 31 38        	<unknown>
     12e: 2e 31        	<unknown>
     130: 2e 36        	<unknown>
     132: 20 28        	<unknown>
     134: 68 74        	<unknown>
     136: 74 70        	<unknown>
     138: 73 3a 2f 2f  	csrrc	s4, 0x2f2, t5
     13c: 67 69 74 68  	<unknown>
     140: 75 62        	<unknown>
     142: 2e 63        	<unknown>
     144: 6f 6d 2f 6c  	jal	s10, 0xf6806 <.comment+0xf6806>
     148: 6c 76        	<unknown>
     14a: 6d 2f        	<unknown>
     14c: 6c 6c        	<unknown>
     14e: 76 6d        	<unknown>
     150: 2d 70        	<unknown>
     152: 72 6f        	<unknown>
     154: 6a 65        	<unknown>
     156: 63 74 2e 67  	bgeu	t3, s2, 0x7be <.comment+0x7be>
     15a: 69 74        	<unknown>
     15c: 20 31        	<unknown>
     15e: 64 36        	<unknown>
     160: 31 62        	<unknown>
     162: 34 30        	<unknown>
     164: 34 34        	<unknown>
     166: 64 64        	<unknown>
     168: 64 64        	<unknown>
     16a: 61 36        	<unknown>
     16c: 35 65        	<unknown>
     16e: 39 38        	<unknown>
     170: 65 37        	<unknown>
     172: 39 32        	<unknown>
     174: 38 66        	<unknown>
     176: 64 33        	<unknown>
     178: 39 35        	<unknown>
     17a: 65 36        	<unknown>
     17c: 61 39        	<unknown>
     17e: 35 31        	<unknown>
     180: 63 35 61 38  	<unknown>
     184: 66 29        	<unknown>
     186: 00           	<unknown>

Disassembly of section .riscv.attributes:

0000000000000000 <.riscv.attributes>:
       0: 41 4f        	<unknown>
       2: 00 00        	<unknown>
       4: 00 72        	<unknown>
       6: 69 73        	<unknown>
       8: 63 76 00 01  	bgeu	zero, a6, 0x14 <.comment+0x14>
       c: 45 00        	<unknown>
       e: 00 00        	<unknown>
      10: 04 10        	<unknown>
      12: 05 72        	<unknown>
      14: 76 36        	<unknown>
      16: 34 69        	<unknown>
      18: 32 70        	<unknown>
      1a: 31 5f        	<unknown>
      1c: 6d 32        	<unknown>
      1e: 70 30        	<unknown>
      20: 5f 61 32 70  	<unknown>
      24: 31 5f        	<unknown>
      26: 66 32        	<unknown>
      28: 70 32        	<unknown>
      2a: 5f 64 32 70  	<unknown>
      2e: 32 5f        	<unknown>
      30: 7a 69        	<unknown>
      32: 63 6f 6e 64  	bltu	t3, t1, 0x690 <.comment+0x690>
      36: 31 70        	<unknown>
      38: 30 5f        	<unknown>
      3a: 7a 69        	<unknown>
      3c: 63 73 72 32  	bgeu	tp, t2, 0x362 <.comment+0x362>
      40: 70 30        	<unknown>
      42: 5f 7a 6d 6d  	<unknown>
      46: 75 6c        	<unknown>
      48: 31 70        	<unknown>
      4a: 30 00        	<unknown>
      4c: 08 01        	<unknown>
      4e: 0a 0b        	<unknown>

Disassembly of section .debug_info:

0000000000000000 <.debug_info>:
       0: 13 2a 00 00  	slti	s4, zero, 0x0
       4: 02 00        	<unknown>
       6: 00 00        	<unknown>
       8: 00 00        	<unknown>
       a: 08 01        	<unknown>
       c: 00 00        	<unknown>
       e: 00 00        	<unknown>
      10: 1a 00        	<unknown>
      12: 68 00        	<unknown>
      14: 00 00        	<unknown>
      16: 00 00        	<unknown>
      18: 00 00        	<unknown>
      1a: 74 00        	<unknown>
      1c: 00 00        	<unknown>
      1e: 02 9a        	<unknown>
      20: 0c 00        	<unknown>
      22: 00 02        	<unknown>
      24: 9a 00        	<unknown>
      26: 00 00        	<unknown>
      28: 02 a1        	<unknown>
      2a: 00 00        	<unknown>
      2c: 00 03        	<unknown>
      2e: 08 01        	<unknown>
      30: 00 00        	<unknown>
      32: 08 01        	<unknown>
      34: 58 04        	<unknown>
      36: a8 00        	<unknown>
      38: 00 00        	<unknown>
      3a: 23 04 ae 00  	sb	a0, 0x8(t3)
      3e: 00 00        	<unknown>
      40: 25 04        	<unknown>
      42: b4 00        	<unknown>
      44: 00 00        	<unknown>
      46: 32 04        	<unknown>
      48: ba 00        	<unknown>
      4a: 00 00        	<unknown>
      4c: 34 04        	<unknown>
      4e: c0 00        	<unknown>
      50: 00 00        	<unknown>
      52: 35 04        	<unknown>
      54: c6 00        	<unknown>
      56: 00 00        	<unknown>
      58: 3c 04        	<unknown>
      5a: cc 00        	<unknown>
      5c: 00 00        	<unknown>
      5e: 3d 04        	<unknown>
      60: d2 00        	<unknown>
      62: 00 00        	<unknown>
      64: 3e 04        	<unknown>
      66: d8 00        	<unknown>
      68: 00 00        	<unknown>
      6a: 46 04        	<unknown>
      6c: de 00        	<unknown>
      6e: 00 00        	<unknown>
      70: 48 04        	<unknown>
      72: e4 00        	<unknown>
      74: 00 00        	<unknown>
      76: 4b 04 ea 00  	fnmsub.s	fs0, fs4, fa4, ft0, rne
      7a: 00 00        	<unknown>
      7c: 50 04        	<unknown>
      7e: f0 00        	<unknown>
      80: 00 00        	<unknown>
      82: 56 04        	<unknown>
      84: f6 00        	<unknown>
      86: 00 00        	<unknown>
      88: 57 04 fc 00  	<unknown>
      8c: 00 00        	<unknown>
      8e: 59 04        	<unknown>
      90: 02 01        	<unknown>
      92: 00 00        	<unknown>
      94: 5a 00        	<unknown>
      96: 05 05        	<unknown>
      98: 3a 01        	<unknown>
      9a: 00 00        	<unknown>
      9c: 08 01        	<unknown>
      9e: 51 06        	<unknown>
      a0: 14 01        	<unknown>
      a2: 00 00        	<unknown>
      a4: c3 00 00 00  	fmadd.s	ft1, ft0, ft0, ft0, rne
      a8: 01 52        	<unknown>
      aa: 02 23        	<unknown>
      ac: 00 07        	<unknown>
      ae: 3a 01        	<unknown>
      b0: 00 00        	<unknown>
      b2: 01 54        	<unknown>
      b4: 01 01        	<unknown>
      b6: 08 22        	<unknown>
      b8: 01 00        	<unknown>
      ba: 00 01        	<unknown>
      bc: 09 c3        	<unknown>
      be: 00 00        	<unknown>
      c0: 00 00        	<unknown>
      c2: 00 0a        	<unknown>
      c4: 1b 01 00 00  	sext.w	sp, zero
      c8: 2f 01 00 00  	<unknown>
      cc: 01 32        	<unknown>
      ce: 0b 28 10 00  	vx_split_n	a6, zero
      d2: 00 5c        	<unknown>
      d4: 10 00        	<unknown>
      d6: 00 01        	<unknown>
      d8: 8e 96        	<unknown>
      da: 00 00        	<unknown>
      dc: 00 01        	<unknown>
      de: 01 09        	<unknown>
      e0: 2d 00        	<unknown>
      e2: 00 00        	<unknown>
      e4: 00 0b        	<unknown>
      e6: 67 10 00 00  	<unknown>
      ea: 98 10        	<unknown>
      ec: 00 00        	<unknown>
      ee: 01 93        	<unknown>
      f0: 96 00        	<unknown>
      f2: 00 00        	<unknown>
      f4: 01 01        	<unknown>
      f6: 09 2d        	<unknown>
      f8: 00 00        	<unknown>
      fa: 00 00        	<unknown>
      fc: 00 0c        	<unknown>
      fe: 01 ab        	<unknown>
     100: 96 00        	<unknown>
     102: 00 00        	<unknown>
     104: 0c 01        	<unknown>
     106: ac 2d        	<unknown>
     108: 00 00        	<unknown>
     10a: 00 0c        	<unknown>
     10c: 01 ca        	<unknown>
     10e: ce 00        	<unknown>
     110: 00 00        	<unknown>
     112: 0c 01        	<unknown>
     114: cb e5 00 00  	<unknown>
     118: 00 00        	<unknown>
     11a: 00 0d        	<unknown>
     11c: 1c 01        	<unknown>
     11e: 00 00        	<unknown>
     120: 07 08 0e 96  	<unknown>
     124: 00 00        	<unknown>
     126: 00 0f        	<unknown>
     128: 05 85        	<unknown>
     12a: 02 00        	<unknown>
     12c: 00 0c        	<unknown>
     12e: 02 a2        	<unknown>
     130: 01 10        	<unknown>
     132: c2 01        	<unknown>
     134: 00 00        	<unknown>
     136: ae 01        	<unknown>
     138: 00 00        	<unknown>
     13a: 02 a4        	<unknown>
     13c: 01 02        	<unknown>
     13e: 23 00 10 09  	sb	a7, 0x80(zero)
     142: 02 00        	<unknown>
     144: 00 ae        	<unknown>
     146: 01 00        	<unknown>
     148: 00 02        	<unknown>
     14a: a4 01        	<unknown>
     14c: 02 23        	<unknown>
     14e: 04 10        	<unknown>
     150: 50 02        	<unknown>
     152: 00 00        	<unknown>
     154: ae 01        	<unknown>
     156: 00 00        	<unknown>
     158: 02 a4        	<unknown>
     15a: 01 02        	<unknown>
     15c: 23 08 11 85  	sb	a7, -0x7b0(sp)
     160: 02 00        	<unknown>
     162: 00 02        	<unknown>
     164: a7 01 01 01  	<unknown>
     168: 08 b5        	<unknown>
     16a: 01 00        	<unknown>
     16c: 00 01        	<unknown>
     16e: 09 ae        	<unknown>
     170: 01 00        	<unknown>
     172: 00 09        	<unknown>
     174: ae 01        	<unknown>
     176: 00 00        	<unknown>
     178: 09 ae        	<unknown>
     17a: 01 00        	<unknown>
     17c: 00 00        	<unknown>
     17e: 11 85        	<unknown>
     180: 02 00        	<unknown>
     182: 00 02        	<unknown>
     184: a8 01        	<unknown>
     186: 01 01        	<unknown>
     188: 08 b5        	<unknown>
     18a: 01 00        	<unknown>
     18c: 00 01        	<unknown>
     18e: 09 ba        	<unknown>
     190: 01 00        	<unknown>
     192: 00 00        	<unknown>
     194: 12 5a        	<unknown>
     196: 01 00        	<unknown>
     198: 00 6e        	<unknown>
     19a: 01 00        	<unknown>
     19c: 00 02        	<unknown>
     19e: a9 01        	<unknown>
     1a0: ba 01        	<unknown>
     1a2: 00 00        	<unknown>
     1a4: 01 01        	<unknown>
     1a6: 08 fa        	<unknown>
     1a8: 01 00        	<unknown>
     1aa: 00 01        	<unknown>
     1ac: 00 00        	<unknown>
     1ae: 0d 4d        	<unknown>
     1b0: 01 00        	<unknown>
     1b2: 00 07        	<unknown>
     1b4: 04 0e        	<unknown>
     1b6: 27 01 00 00  	<unknown>
     1ba: 13 c6 01 00  	xori	a2, gp, 0x0
     1be: 00 77        	<unknown>
     1c0: 01 00        	<unknown>
     1c2: 00 02        	<unknown>
     1c4: 80 01        	<unknown>
     1c6: 05 05        	<unknown>
     1c8: 77 01 00 00  	<unknown>
     1cc: 0c 02        	<unknown>
     1ce: c0 06        	<unknown>
     1d0: c2 01        	<unknown>
     1d2: 00 00        	<unknown>
     1d4: ae 01        	<unknown>
     1d6: 00 00        	<unknown>
     1d8: 02 c2        	<unknown>
     1da: 02 23        	<unknown>
     1dc: 00 06        	<unknown>
     1de: 09 02        	<unknown>
     1e0: 00 00        	<unknown>
     1e2: ae 01        	<unknown>
     1e4: 00 00        	<unknown>
     1e6: 02 c2        	<unknown>
     1e8: 02 23        	<unknown>
     1ea: 04 06        	<unknown>
     1ec: 50 02        	<unknown>
     1ee: 00 00        	<unknown>
     1f0: ae 01        	<unknown>
     1f2: 00 00        	<unknown>
     1f4: 02 c2        	<unknown>
     1f6: 02 23        	<unknown>
     1f8: 08 00        	<unknown>
     1fa: 0e ff        	<unknown>
     1fc: 01 00        	<unknown>
     1fe: 00 14        	<unknown>
     200: 27 01 00 00  	<unknown>
     204: 05 04        	<unknown>
     206: b5 02        	<unknown>
     208: 00 00        	<unknown>
     20a: 01 03        	<unknown>
     20c: 34 15        	<unknown>
     20e: 7d 01        	<unknown>
     210: 00 00        	<unknown>
     212: b2 01        	<unknown>
     214: 00 00        	<unknown>
     216: 03 35 ae 01  	ld	a0, 0x1a(t3)
     21a: 00 00        	<unknown>
     21c: 01 01        	<unknown>
     21e: 15 c4        	<unknown>
     220: 01 00        	<unknown>
     222: 00 f9        	<unknown>
     224: 01 00        	<unknown>
     226: 00 03        	<unknown>
     228: 36 ae        	<unknown>
     22a: 01 00        	<unknown>
     22c: 00 01        	<unknown>
     22e: 01 15        	<unknown>
     230: 0b 02 00 00  	<unknown>
     234: 40 02        	<unknown>
     236: 00 00        	<unknown>
     238: 03 37 ae 01  	ld	a4, 0x1a(t3)
     23c: 00 00        	<unknown>
     23e: 01 01        	<unknown>
     240: 0b 52 02 00  	<unknown>
     244: 00 7c        	<unknown>
     246: 02 00        	<unknown>
     248: 00 03        	<unknown>
     24a: 3a 27        	<unknown>
     24c: 01 00        	<unknown>
     24e: 00 01        	<unknown>
     250: 01 08        	<unknown>
     252: cb 02 00 00  	fnmsub.s	ft5, ft0, ft0, ft0, rne
     256: 01 00        	<unknown>
     258: 0b 8a 02 00  	<unknown>
     25c: 00 6e        	<unknown>
     25e: 01 00        	<unknown>
     260: 00 03        	<unknown>
     262: 3b c6 01 00  	<unknown>
     266: 00 01        	<unknown>
     268: 01 08        	<unknown>
     26a: cb 02 00 00  	fnmsub.s	ft5, ft0, ft0, ft0, rne
     26e: 01 00        	<unknown>
     270: 16 b5        	<unknown>
     272: 02 00        	<unknown>
     274: 00 03        	<unknown>
     276: 3e 01        	<unknown>
     278: 01 03        	<unknown>
     27a: 08 d5        	<unknown>
     27c: 02 00        	<unknown>
     27e: 00 01        	<unknown>
     280: 00 16        	<unknown>
     282: b5 02        	<unknown>
     284: 00 00        	<unknown>
     286: 03 3e 01 01  	ld	t3, 0x10(sp)
     28a: 03 08 d5 02  	lb	a6, 0x2d(a0)
     28e: 00 00        	<unknown>
     290: 01 09        	<unknown>
     292: da 02        	<unknown>
     294: 00 00        	<unknown>
     296: 00 17        	<unknown>
     298: d0 02        	<unknown>
     29a: 00 00        	<unknown>
     29c: f8 02        	<unknown>
     29e: 00 00        	<unknown>
     2a0: 03 3e 01 01  	ld	t3, 0x10(sp)
     2a4: 03 08 cb 02  	lb	a6, 0x2c(s6)
     2a8: 00 00        	<unknown>
     2aa: 01 09        	<unknown>
     2ac: da 02        	<unknown>
     2ae: 00 00        	<unknown>
     2b0: 00 18        	<unknown>
     2b2: 02 03        	<unknown>
     2b4: 00 00        	<unknown>
     2b6: 27 03 00 00  	<unknown>
     2ba: 03 3e df 02  	ld	t3, 0x2d(t5)
     2be: 00 00        	<unknown>
     2c0: 01 01        	<unknown>
     2c2: 03 08 cb 02  	lb	a6, 0x2c(s6)
     2c6: 00 00        	<unknown>
     2c8: 01 00        	<unknown>
     2ca: 00 0e        	<unknown>
     2cc: d0 02        	<unknown>
     2ce: 00 00        	<unknown>
     2d0: 14 04        	<unknown>
     2d2: 02 00        	<unknown>
     2d4: 00 0e        	<unknown>
     2d6: 04 02        	<unknown>
     2d8: 00 00        	<unknown>
     2da: 19 d0        	<unknown>
     2dc: 02 00        	<unknown>
     2de: 00 0e        	<unknown>
     2e0: 04 02        	<unknown>
     2e2: 00 00        	<unknown>
     2e4: 05 04        	<unknown>
     2e6: 20 04        	<unknown>
     2e8: 00 00        	<unknown>
     2ea: 01 03        	<unknown>
     2ec: 41 15        	<unknown>
     2ee: 31 03        	<unknown>
     2f0: 00 00        	<unknown>
     2f2: b2 01        	<unknown>
     2f4: 00 00        	<unknown>
     2f6: 03 42 ae 01  	lbu	tp, 0x1a(t3)
     2fa: 00 00        	<unknown>
     2fc: 01 01        	<unknown>
     2fe: 15 65        	<unknown>
     300: 03 00 00 f9  	lb	zero, -0x70(zero)
     304: 01 00        	<unknown>
     306: 00 03        	<unknown>
     308: 43 ae 01 00  	fmadd.s	ft8, ft3, ft0, ft0, rdn
     30c: 00 01        	<unknown>
     30e: 01 15        	<unknown>
     310: 99 03        	<unknown>
     312: 00 00        	<unknown>
     314: 40 02        	<unknown>
     316: 00 00        	<unknown>
     318: 03 44 ae 01  	lbu	s0, 0x1a(t3)
     31c: 00 00        	<unknown>
     31e: 01 01        	<unknown>
     320: 0b cd 03 00  	<unknown>
     324: 00 7c        	<unknown>
     326: 02 00        	<unknown>
     328: 00 03        	<unknown>
     32a: 47 27 01 00  	fmsub.s	fa4, ft2, ft0, ft0, rdn
     32e: 00 01        	<unknown>
     330: 01 08        	<unknown>
     332: ab 03 00 00  	vx_tex	t2, zero, zero, zero
     336: 01 00        	<unknown>
     338: 0b f6 03 00  	<unknown>
     33c: 00 6e        	<unknown>
     33e: 01 00        	<unknown>
     340: 00 03        	<unknown>
     342: 48 c6        	<unknown>
     344: 01 00        	<unknown>
     346: 00 01        	<unknown>
     348: 01 08        	<unknown>
     34a: ab 03 00 00  	vx_tex	t2, zero, zero, zero
     34e: 01 00        	<unknown>
     350: 16 20        	<unknown>
     352: 04 00        	<unknown>
     354: 00 03        	<unknown>
     356: 4b 01 01 03  	fnmsub.d	ft2, ft2, fa6, ft0, rne
     35a: 08 b5        	<unknown>
     35c: 03 00 00 01  	lb	zero, 0x10(zero)
     360: 00 16        	<unknown>
     362: 20 04        	<unknown>
     364: 00 00        	<unknown>
     366: 03 4b 01 01  	lbu	s6, 0x10(sp)
     36a: 03 08 b5 03  	lb	a6, 0x3b(a0)
     36e: 00 00        	<unknown>
     370: 01 09        	<unknown>
     372: ba 03        	<unknown>
     374: 00 00        	<unknown>
     376: 00 17        	<unknown>
     378: 3a 04        	<unknown>
     37a: 00 00        	<unknown>
     37c: f8 02        	<unknown>
     37e: 00 00        	<unknown>
     380: 03 4b 01 01  	lbu	s6, 0x10(sp)
     384: 03 08 ab 03  	lb	a6, 0x3a(s6)
     388: 00 00        	<unknown>
     38a: 01 09        	<unknown>
     38c: ba 03        	<unknown>
     38e: 00 00        	<unknown>
     390: 00 18        	<unknown>
     392: 61 04        	<unknown>
     394: 00 00        	<unknown>
     396: 27 03 00 00  	<unknown>
     39a: 03 4b bf 03  	lbu	s6, 0x3b(t5)
     39e: 00 00        	<unknown>
     3a0: 01 01        	<unknown>
     3a2: 03 08 ab 03  	lb	a6, 0x3a(s6)
     3a6: 00 00        	<unknown>
     3a8: 01 00        	<unknown>
     3aa: 00 0e        	<unknown>
     3ac: b0 03        	<unknown>
     3ae: 00 00        	<unknown>
     3b0: 14 e4        	<unknown>
     3b2: 02 00        	<unknown>
     3b4: 00 0e        	<unknown>
     3b6: e4 02        	<unknown>
     3b8: 00 00        	<unknown>
     3ba: 19 b0        	<unknown>
     3bc: 03 00 00 0e  	lb	zero, 0xe0(zero)
     3c0: e4 02        	<unknown>
     3c2: 00 00        	<unknown>
     3c4: 05 04        	<unknown>
     3c6: 74 05        	<unknown>
     3c8: 00 00        	<unknown>
     3ca: 01 03        	<unknown>
     3cc: 4e 15        	<unknown>
     3ce: 85 04        	<unknown>
     3d0: 00 00        	<unknown>
     3d2: b2 01        	<unknown>
     3d4: 00 00        	<unknown>
     3d6: 03 4f ae 01  	lbu	t5, 0x1a(t3)
     3da: 00 00        	<unknown>
     3dc: 01 01        	<unknown>
     3de: 15 b9        	<unknown>
     3e0: 04 00        	<unknown>
     3e2: 00 f9        	<unknown>
     3e4: 01 00        	<unknown>
     3e6: 00 03        	<unknown>
     3e8: 50 ae        	<unknown>
     3ea: 01 00        	<unknown>
     3ec: 00 01        	<unknown>
     3ee: 01 15        	<unknown>
     3f0: ed 04        	<unknown>
     3f2: 00 00        	<unknown>
     3f4: 40 02        	<unknown>
     3f6: 00 00        	<unknown>
     3f8: 03 51 ae 01  	lhu	sp, 0x1a(t3)
     3fc: 00 00        	<unknown>
     3fe: 01 01        	<unknown>
     400: 0b 21 05 00  	vx_split	sp, a0
     404: 00 7c        	<unknown>
     406: 02 00        	<unknown>
     408: 00 03        	<unknown>
     40a: 54 27        	<unknown>
     40c: 01 00        	<unknown>
     40e: 00 01        	<unknown>
     410: 01 08        	<unknown>
     412: 8b 04 00 00  	<unknown>
     416: 01 00        	<unknown>
     418: 0b 4a 05 00  	<unknown>
     41c: 00 6e        	<unknown>
     41e: 01 00        	<unknown>
     420: 00 03        	<unknown>
     422: 55 c6        	<unknown>
     424: 01 00        	<unknown>
     426: 00 01        	<unknown>
     428: 01 08        	<unknown>
     42a: 8b 04 00 00  	<unknown>
     42e: 01 00        	<unknown>
     430: 16 74        	<unknown>
     432: 05 00        	<unknown>
     434: 00 03        	<unknown>
     436: 58 01        	<unknown>
     438: 01 03        	<unknown>
     43a: 08 95        	<unknown>
     43c: 04 00        	<unknown>
     43e: 00 01        	<unknown>
     440: 00 16        	<unknown>
     442: 74 05        	<unknown>
     444: 00 00        	<unknown>
     446: 03 58 01 01  	lhu	a6, 0x10(sp)
     44a: 03 08 95 04  	lb	a6, 0x49(a0)
     44e: 00 00        	<unknown>
     450: 01 09        	<unknown>
     452: 9a 04        	<unknown>
     454: 00 00        	<unknown>
     456: 00 17        	<unknown>
     458: 8e 05        	<unknown>
     45a: 00 00        	<unknown>
     45c: f8 02        	<unknown>
     45e: 00 00        	<unknown>
     460: 03 58 01 01  	lhu	a6, 0x10(sp)
     464: 03 08 8b 04  	lb	a6, 0x48(s6)
     468: 00 00        	<unknown>
     46a: 01 09        	<unknown>
     46c: 9a 04        	<unknown>
     46e: 00 00        	<unknown>
     470: 00 18        	<unknown>
     472: b5 05        	<unknown>
     474: 00 00        	<unknown>
     476: 27 03 00 00  	<unknown>
     47a: 03 58 9f 04  	lhu	a6, 0x49(t5)
     47e: 00 00        	<unknown>
     480: 01 01        	<unknown>
     482: 03 08 8b 04  	lb	a6, 0x48(s6)
     486: 00 00        	<unknown>
     488: 01 00        	<unknown>
     48a: 00 0e        	<unknown>
     48c: 90 04        	<unknown>
     48e: 00 00        	<unknown>
     490: 14 c4        	<unknown>
     492: 03 00 00 0e  	lb	zero, 0xe0(zero)
     496: c4 03        	<unknown>
     498: 00 00        	<unknown>
     49a: 19 90        	<unknown>
     49c: 04 00        	<unknown>
     49e: 00 0e        	<unknown>
     4a0: c4 03        	<unknown>
     4a2: 00 00        	<unknown>
     4a4: 02 d9        	<unknown>
     4a6: 05 00        	<unknown>
     4a8: 00 0c        	<unknown>
     4aa: 04 c8        	<unknown>
     4ac: c3 0d 00 00  	fmadd.s	fs11, ft0, ft0, ft0, rne
     4b0: 0c 04        	<unknown>
     4b2: c9 e0        	<unknown>
     4b4: 0d 00        	<unknown>
     4b6: 00 0c        	<unknown>
     4b8: 04 ca        	<unknown>
     4ba: fd 0d        	<unknown>
     4bc: 00 00        	<unknown>
     4be: 0c 04        	<unknown>
     4c0: cb 13 0e 00  	fnmsub.s	ft7, ft8, ft0, ft0, rtz
     4c4: 00 0c        	<unknown>
     4c6: 04 cc        	<unknown>
     4c8: 29 0e        	<unknown>
     4ca: 00 00        	<unknown>
     4cc: 0c 04        	<unknown>
     4ce: cd 3f        	<unknown>
     4d0: 0e 00        	<unknown>
     4d2: 00 0c        	<unknown>
     4d4: 04 ce        	<unknown>
     4d6: 55 0e        	<unknown>
     4d8: 00 00        	<unknown>
     4da: 0c 04        	<unknown>
     4dc: cf 70 0e 00  	fnmadd.s	ft1, ft8, ft0, ft0
     4e0: 00 0c        	<unknown>
     4e2: 04 d0        	<unknown>
     4e4: 86 0e        	<unknown>
     4e6: 00 00        	<unknown>
     4e8: 0c 04        	<unknown>
     4ea: d1 9c        	<unknown>
     4ec: 0e 00        	<unknown>
     4ee: 00 0c        	<unknown>
     4f0: 04 d2        	<unknown>
     4f2: b2 0e        	<unknown>
     4f4: 00 00        	<unknown>
     4f6: 0c 04        	<unknown>
     4f8: d3 cd 0e 00  	fadd.s	fs11, ft9, ft0, rmm
     4fc: 00 0c        	<unknown>
     4fe: 04 d4        	<unknown>
     500: e3 0e 00 00  	beqz	zero, 0xd1c <.debug_info+0xd1c>
     504: 0c 04        	<unknown>
     506: d5 f9        	<unknown>
     508: 0e 00        	<unknown>
     50a: 00 0c        	<unknown>
     50c: 04 d6        	<unknown>
     50e: 0f 0f 00 00  	<unknown>
     512: 0c 04        	<unknown>
     514: d7 25 0f 00  	<unknown>
     518: 00 0c        	<unknown>
     51a: 04 d8        	<unknown>
     51c: 3b 0f 00 00  	addw	t5, zero, zero
     520: 0c 04        	<unknown>
     522: d9 51        	<unknown>
     524: 0f 00 00 0c  	fence	io, 0
     528: 04 da        	<unknown>
     52a: 67 0f 00 00  	jalr	t5, zero <.debug_info>
     52e: 0c 04        	<unknown>
     530: db 7d 0f 00  	<unknown>
     534: 00 0c        	<unknown>
     536: 04 dc        	<unknown>
     538: 98 0f        	<unknown>
     53a: 00 00        	<unknown>
     53c: 0c 04        	<unknown>
     53e: dd ae        	<unknown>
     540: 0f 00 00 0c  	fence	io, 0
     544: 04 de        	<unknown>
     546: ce 0f        	<unknown>
     548: 00 00        	<unknown>
     54a: 0c 04        	<unknown>
     54c: df e9 0f 00  	<unknown>
     550: 00 0c        	<unknown>
     552: 04 e0        	<unknown>
     554: 04 10        	<unknown>
     556: 00 00        	<unknown>
     558: 0c 04        	<unknown>
     55a: e1 1f        	<unknown>
     55c: 10 00        	<unknown>
     55e: 00 0c        	<unknown>
     560: 04 e2        	<unknown>
     562: 35 10        	<unknown>
     564: 00 00        	<unknown>
     566: 0c 04        	<unknown>
     568: e3 55 10 00  	blez	ra, 0xd72 <.debug_info+0xd72>
     56c: 00 0c        	<unknown>
     56e: 04 e4        	<unknown>
     570: 70 10        	<unknown>
     572: 00 00        	<unknown>
     574: 0c 04        	<unknown>
     576: e5 86        	<unknown>
     578: 10 00        	<unknown>
     57a: 00 0c        	<unknown>
     57c: 04 e6        	<unknown>
     57e: a3 10 00 00  	sh	zero, 0x1(zero)
     582: 0c 04        	<unknown>
     584: e7 be 10 00  	<unknown>
     588: 00 0c        	<unknown>
     58a: 04 e8        	<unknown>
     58c: d9 10        	<unknown>
     58e: 00 00        	<unknown>
     590: 0c 04        	<unknown>
     592: e9 ef        	<unknown>
     594: 10 00        	<unknown>
     596: 00 0c        	<unknown>
     598: 04 ea        	<unknown>
     59a: 0a 11        	<unknown>
     59c: 00 00        	<unknown>
     59e: 0c 04        	<unknown>
     5a0: eb 25 11 00  	<unknown>
     5a4: 00 0c        	<unknown>
     5a6: 04 ec        	<unknown>
     5a8: 40 11        	<unknown>
     5aa: 00 00        	<unknown>
     5ac: 0c 04        	<unknown>
     5ae: ed 56        	<unknown>
     5b0: 11 00        	<unknown>
     5b2: 00 0c        	<unknown>
     5b4: 04 ee        	<unknown>
     5b6: 6c 11        	<unknown>
     5b8: 00 00        	<unknown>
     5ba: 0c 04        	<unknown>
     5bc: ef 87 11 00  	jal	a5, 0x18dbc <.debug_info+0x18dbc>
     5c0: 00 0c        	<unknown>
     5c2: 04 f0        	<unknown>
     5c4: a4 11        	<unknown>
     5c6: 00 00        	<unknown>
     5c8: 0c 04        	<unknown>
     5ca: f1 bf        	<unknown>
     5cc: 11 00        	<unknown>
     5ce: 00 0c        	<unknown>
     5d0: 04 f2        	<unknown>
     5d2: d5 11        	<unknown>
     5d4: 00 00        	<unknown>
     5d6: 0c 04        	<unknown>
     5d8: f3 f2 11 00  	csrrci	t0, fflags, 0x3
     5dc: 00 0c        	<unknown>
     5de: 04 f4        	<unknown>
     5e0: 08 12        	<unknown>
     5e2: 00 00        	<unknown>
     5e4: 0c 04        	<unknown>
     5e6: f5 1e        	<unknown>
     5e8: 12 00        	<unknown>
     5ea: 00 0c        	<unknown>
     5ec: 04 f6        	<unknown>
     5ee: 34 12        	<unknown>
     5f0: 00 00        	<unknown>
     5f2: 0c 04        	<unknown>
     5f4: f7 4a 12 00  	<unknown>
     5f8: 00 0c        	<unknown>
     5fa: 04 f8        	<unknown>
     5fc: 60 12        	<unknown>
     5fe: 00 00        	<unknown>
     600: 0c 04        	<unknown>
     602: f9 76        	<unknown>
     604: 12 00        	<unknown>
     606: 00 0c        	<unknown>
     608: 04 fa        	<unknown>
     60a: 8c 12        	<unknown>
     60c: 00 00        	<unknown>
     60e: 0c 04        	<unknown>
     610: fb a2 12 00  	<unknown>
     614: 00 0c        	<unknown>
     616: 04 fc        	<unknown>
     618: b8 12        	<unknown>
     61a: 00 00        	<unknown>
     61c: 0c 04        	<unknown>
     61e: fd d8        	<unknown>
     620: 12 00        	<unknown>
     622: 00 0c        	<unknown>
     624: 04 fe        	<unknown>
     626: 06 13        	<unknown>
     628: 00 00        	<unknown>
     62a: 0c 04        	<unknown>
     62c: ff 1c 13 00  	<unknown>
     630: 00 1a        	<unknown>
     632: 04 00        	<unknown>
     634: 01 32        	<unknown>
     636: 13 00 00 1a  	li	zero, 0x1a0
     63a: 04 01        	<unknown>
     63c: 01 4d        	<unknown>
     63e: 13 00 00 1a  	li	zero, 0x1a0
     642: 04 02        	<unknown>
     644: 01 68        	<unknown>
     646: 13 00 00 1a  	li	zero, 0x1a0
     64a: 04 03        	<unknown>
     64c: 01 83        	<unknown>
     64e: 13 00 00 1a  	li	zero, 0x1a0
     652: 04 04        	<unknown>
     654: 01 a3        	<unknown>
     656: 13 00 00 1a  	li	zero, 0x1a0
     65a: 04 05        	<unknown>
     65c: 01 b9        	<unknown>
     65e: 13 00 00 1a  	li	zero, 0x1a0
     662: 04 06        	<unknown>
     664: 01 cf        	<unknown>
     666: 13 00 00 1a  	li	zero, 0x1a0
     66a: 04 07        	<unknown>
     66c: 01 ea        	<unknown>
     66e: 13 00 00 1a  	li	zero, 0x1a0
     672: 04 08        	<unknown>
     674: 01 05        	<unknown>
     676: 14 00        	<unknown>
     678: 00 1a        	<unknown>
     67a: 04 09        	<unknown>
     67c: 01 1b        	<unknown>
     67e: 14 00        	<unknown>
     680: 00 1a        	<unknown>
     682: 04 0a        	<unknown>
     684: 01 31        	<unknown>
     686: 14 00        	<unknown>
     688: 00 1a        	<unknown>
     68a: 04 0b        	<unknown>
     68c: 01 47        	<unknown>
     68e: 14 00        	<unknown>
     690: 00 1a        	<unknown>
     692: 04 0c        	<unknown>
     694: 01 5d        	<unknown>
     696: 14 00        	<unknown>
     698: 00 1a        	<unknown>
     69a: 04 0d        	<unknown>
     69c: 01 73        	<unknown>
     69e: 14 00        	<unknown>
     6a0: 00 1a        	<unknown>
     6a2: 04 0e        	<unknown>
     6a4: 01 89        	<unknown>
     6a6: 14 00        	<unknown>
     6a8: 00 1a        	<unknown>
     6aa: 04 0f        	<unknown>
     6ac: 01 9f        	<unknown>
     6ae: 14 00        	<unknown>
     6b0: 00 0c        	<unknown>
     6b2: 06 34        	<unknown>
     6b4: b5 14        	<unknown>
     6b6: 00 00        	<unknown>
     6b8: 0c 08        	<unknown>
     6ba: 55 c9        	<unknown>
     6bc: 14 00        	<unknown>
     6be: 00 0c        	<unknown>
     6c0: 08 68        	<unknown>
     6c2: dc 14        	<unknown>
     6c4: 00 00        	<unknown>
     6c6: 0c 08        	<unknown>
     6c8: 7b ef 14 00  	<unknown>
     6cc: 00 0c        	<unknown>
     6ce: 08 8e        	<unknown>
     6d0: 02 15        	<unknown>
     6d2: 00 00        	<unknown>
     6d4: 0c 08        	<unknown>
     6d6: 9a 1a        	<unknown>
     6d8: 15 00        	<unknown>
     6da: 00 0c        	<unknown>
     6dc: 08 ad        	<unknown>
     6de: 2d 15        	<unknown>
     6e0: 00 00        	<unknown>
     6e2: 0c 08        	<unknown>
     6e4: c0 40        	<unknown>
     6e6: 15 00        	<unknown>
     6e8: 00 0c        	<unknown>
     6ea: 08 d3        	<unknown>
     6ec: 53 15 00 00  	fadd.s	fa0, ft0, ft0, rtz
     6f0: 0c 08        	<unknown>
     6f2: e6 66        	<unknown>
     6f4: 15 00        	<unknown>
     6f6: 00 0c        	<unknown>
     6f8: 08 f9        	<unknown>
     6fa: 79 15        	<unknown>
     6fc: 00 00        	<unknown>
     6fe: 1a 08        	<unknown>
     700: 0c 01        	<unknown>
     702: 8c 15        	<unknown>
     704: 00 00        	<unknown>
     706: 1a 08        	<unknown>
     708: 18 01        	<unknown>
     70a: a4 15        	<unknown>
     70c: 00 00        	<unknown>
     70e: 1a 08        	<unknown>
     710: 2b 01 bc 15  	<unknown>
     714: 00 00        	<unknown>
     716: 1a 08        	<unknown>
     718: 3e 01        	<unknown>
     71a: d4 15        	<unknown>
     71c: 00 00        	<unknown>
     71e: 1a 08        	<unknown>
     720: 51 01        	<unknown>
     722: e7 15 00 00  	<unknown>
     726: 1a 08        	<unknown>
     728: 64 01        	<unknown>
     72a: fa 15        	<unknown>
     72c: 00 00        	<unknown>
     72e: 1a 08        	<unknown>
     730: 70 01        	<unknown>
     732: 17 16 00 00  	auipc	a2, 0x1
     736: 1a 08        	<unknown>
     738: 8c 01        	<unknown>
     73a: 2f 16 00 00  	<unknown>
     73e: 1a 08        	<unknown>
     740: 9f 01 42 16  	<unknown>
     744: 00 00        	<unknown>
     746: 1a 08        	<unknown>
     748: b2 01        	<unknown>
     74a: 55 16        	<unknown>
     74c: 00 00        	<unknown>
     74e: 1a 08        	<unknown>
     750: c5 01        	<unknown>
     752: 68 16        	<unknown>
     754: 00 00        	<unknown>
     756: 1a 08        	<unknown>
     758: d8 01        	<unknown>
     75a: 7b 16 00 00  	<unknown>
     75e: 1a 08        	<unknown>
     760: 59 07        	<unknown>
     762: 8e 16        	<unknown>
     764: 00 00        	<unknown>
     766: 1a 08        	<unknown>
     768: 5a 07        	<unknown>
     76a: 99 16        	<unknown>
     76c: 00 00        	<unknown>
     76e: 1a 08        	<unknown>
     770: 5d 07        	<unknown>
     772: a4 16        	<unknown>
     774: 00 00        	<unknown>
     776: 1a 08        	<unknown>
     778: 5e 07        	<unknown>
     77a: b7 16 00 00  	lui	a3, 0x1
     77e: 1a 08        	<unknown>
     780: 5f 07 ca 16  	<unknown>
     784: 00 00        	<unknown>
     786: 1a 08        	<unknown>
     788: 61 07        	<unknown>
     78a: e4 16        	<unknown>
     78c: 00 00        	<unknown>
     78e: 1a 08        	<unknown>
     790: 62 07        	<unknown>
     792: f7 16 00 00  	<unknown>
     796: 1a 08        	<unknown>
     798: 63 07 0a 17  	beq	s4, a6, 0x906 <.debug_info+0x906>
     79c: 00 00        	<unknown>
     79e: 1a 08        	<unknown>
     7a0: 65 07        	<unknown>
     7a2: 1d 17        	<unknown>
     7a4: 00 00        	<unknown>
     7a6: 1a 08        	<unknown>
     7a8: 66 07        	<unknown>
     7aa: 30 17        	<unknown>
     7ac: 00 00        	<unknown>
     7ae: 1a 08        	<unknown>
     7b0: 67 07 43 17  	jalr	a4, 0x174(t1)
     7b4: 00 00        	<unknown>
     7b6: 1a 08        	<unknown>
     7b8: 69 07        	<unknown>
     7ba: 56 17        	<unknown>
     7bc: 00 00        	<unknown>
     7be: 1a 08        	<unknown>
     7c0: 6a 07        	<unknown>
     7c2: 69 17        	<unknown>
     7c4: 00 00        	<unknown>
     7c6: 1a 08        	<unknown>
     7c8: 6b 07 7c 17  	<unknown>
     7cc: 00 00        	<unknown>
     7ce: 1a 08        	<unknown>
     7d0: 6d 07        	<unknown>
     7d2: 8f 17 00 00  	<unknown>
     7d6: 1a 08        	<unknown>
     7d8: 6e 07        	<unknown>
     7da: a7 17 00 00  	<unknown>
     7de: 1a 08        	<unknown>
     7e0: 6f 07 bf 17  	jal	a4, 0xf115a <.debug_info+0xf115a>
     7e4: 00 00        	<unknown>
     7e6: 1a 08        	<unknown>
     7e8: 71 07        	<unknown>
     7ea: d7 17 00 00  	<unknown>
     7ee: 1a 08        	<unknown>
     7f0: 72 07        	<unknown>
     7f2: ea 17        	<unknown>
     7f4: 00 00        	<unknown>
     7f6: 1a 08        	<unknown>
     7f8: 73 07 fd 17  	<unknown>
     7fc: 00 00        	<unknown>
     7fe: 1a 08        	<unknown>
     800: 75 07        	<unknown>
     802: 10 18        	<unknown>
     804: 00 00        	<unknown>
     806: 1a 08        	<unknown>
     808: 76 07        	<unknown>
     80a: 23 18 00 00  	sh	zero, 0x10(zero)
     80e: 1a 08        	<unknown>
     810: 77 07 36 18  	<unknown>
     814: 00 00        	<unknown>
     816: 1a 08        	<unknown>
     818: 79 07        	<unknown>
     81a: 49 18        	<unknown>
     81c: 00 00        	<unknown>
     81e: 1a 08        	<unknown>
     820: 7a 07        	<unknown>
     822: 5c 18        	<unknown>
     824: 00 00        	<unknown>
     826: 1a 08        	<unknown>
     828: 7b 07 6f 18  	<unknown>
     82c: 00 00        	<unknown>
     82e: 1a 08        	<unknown>
     830: 7d 07        	<unknown>
     832: 82 18        	<unknown>
     834: 00 00        	<unknown>
     836: 1a 08        	<unknown>
     838: 7e 07        	<unknown>
     83a: 95 18        	<unknown>
     83c: 00 00        	<unknown>
     83e: 1a 08        	<unknown>
     840: 7f 07 a8 18  	<unknown>
     844: 00 00        	<unknown>
     846: 1a 08        	<unknown>
     848: 81 07        	<unknown>
     84a: bb 18 00 00  	sllw	a7, zero, zero
     84e: 1a 08        	<unknown>
     850: 82 07        	<unknown>
     852: d4 18        	<unknown>
     854: 00 00        	<unknown>
     856: 1a 08        	<unknown>
     858: 83 07 ed 18  	lb	a5, 0x18e(s10)
     85c: 00 00        	<unknown>
     85e: 1a 08        	<unknown>
     860: 85 07        	<unknown>
     862: 06 19        	<unknown>
     864: 00 00        	<unknown>
     866: 1a 08        	<unknown>
     868: 86 07        	<unknown>
     86a: 24 19        	<unknown>
     86c: 00 00        	<unknown>
     86e: 1a 08        	<unknown>
     870: 87 07 42 19  	<unknown>
     874: 00 00        	<unknown>
     876: 1a 08        	<unknown>
     878: 89 07        	<unknown>
     87a: 60 19        	<unknown>
     87c: 00 00        	<unknown>
     87e: 1a 08        	<unknown>
     880: 8a 07        	<unknown>
     882: 79 19        	<unknown>
     884: 00 00        	<unknown>
     886: 1a 08        	<unknown>
     888: 8b 07 92 19  	<unknown>
     88c: 00 00        	<unknown>
     88e: 1a 08        	<unknown>
     890: 8d 07        	<unknown>
     892: ab 19 00 00  	<unknown>
     896: 1a 08        	<unknown>
     898: 8e 07        	<unknown>
     89a: c4 19        	<unknown>
     89c: 00 00        	<unknown>
     89e: 1a 08        	<unknown>
     8a0: 8f 07 dd 19  	<unknown>
     8a4: 00 00        	<unknown>
     8a6: 1a 08        	<unknown>
     8a8: 91 07        	<unknown>
     8aa: f6 19        	<unknown>
     8ac: 00 00        	<unknown>
     8ae: 1a 08        	<unknown>
     8b0: 92 07        	<unknown>
     8b2: 0e 1a        	<unknown>
     8b4: 00 00        	<unknown>
     8b6: 1a 08        	<unknown>
     8b8: 93 07 26 1a  	addi	a5, a2, 0x1a2
     8bc: 00 00        	<unknown>
     8be: 1a 08        	<unknown>
     8c0: 95 07        	<unknown>
     8c2: 3e 1a        	<unknown>
     8c4: 00 00        	<unknown>
     8c6: 1a 08        	<unknown>
     8c8: 96 07        	<unknown>
     8ca: 52 1a        	<unknown>
     8cc: 00 00        	<unknown>
     8ce: 1a 08        	<unknown>
     8d0: 97 07 66 1a  	auipc	a5, 0x1a660
     8d4: 00 00        	<unknown>
     8d6: 1a 08        	<unknown>
     8d8: 99 07        	<unknown>
     8da: 7a 1a        	<unknown>
     8dc: 00 00        	<unknown>
     8de: 1a 08        	<unknown>
     8e0: 9a 07        	<unknown>
     8e2: 8d 1a        	<unknown>
     8e4: 00 00        	<unknown>
     8e6: 1a 08        	<unknown>
     8e8: 9b 07 a0 1a  	addiw	a5, zero, 0x1aa
     8ec: 00 00        	<unknown>
     8ee: 1a 08        	<unknown>
     8f0: 9e 07        	<unknown>
     8f2: b3 1a 00 00  	sll	s5, zero, zero
     8f6: 1a 08        	<unknown>
     8f8: 9f 07 c7 1a  	<unknown>
     8fc: 00 00        	<unknown>
     8fe: 1a 08        	<unknown>
     900: a0 07        	<unknown>
     902: db 1a 00 00  	<unknown>
     906: 1a 08        	<unknown>
     908: a2 07        	<unknown>
     90a: ef 1a 00 00  	jal	s5, 0x190a <.debug_info+0x190a>
     90e: 1a 08        	<unknown>
     910: a3 07 03 1b  	sb	a6, 0x1af(t1)
     914: 00 00        	<unknown>
     916: 1a 08        	<unknown>
     918: a4 07        	<unknown>
     91a: 17 1b 00 00  	auipc	s6, 0x1
     91e: 1a 08        	<unknown>
     920: a7 07 2b 1b  	<unknown>
     924: 00 00        	<unknown>
     926: 1a 08        	<unknown>
     928: a8 07        	<unknown>
     92a: 3e 1b        	<unknown>
     92c: 00 00        	<unknown>
     92e: 1a 08        	<unknown>
     930: a9 07        	<unknown>
     932: 51 1b        	<unknown>
     934: 00 00        	<unknown>
     936: 1a 08        	<unknown>
     938: ab 07 64 1b  	<unknown>
     93c: 00 00        	<unknown>
     93e: 1a 08        	<unknown>
     940: ac 07        	<unknown>
     942: 77 1b 00 00  	<unknown>
     946: 1a 08        	<unknown>
     948: ad 07        	<unknown>
     94a: 8a 1b        	<unknown>
     94c: 00 00        	<unknown>
     94e: 1a 08        	<unknown>
     950: af 07 9d 1b  	<unknown>
     954: 00 00        	<unknown>
     956: 1a 08        	<unknown>
     958: b0 07        	<unknown>
     95a: b0 1b        	<unknown>
     95c: 00 00        	<unknown>
     95e: 1a 08        	<unknown>
     960: b1 07        	<unknown>
     962: c3 1b 00 00  	fmadd.s	fs7, ft0, ft0, ft0, rtz
     966: 1a 08        	<unknown>
     968: b3 07 d6 1b  	<unknown>
     96c: 00 00        	<unknown>
     96e: 1a 08        	<unknown>
     970: b4 07        	<unknown>
     972: ea 1b        	<unknown>
     974: 00 00        	<unknown>
     976: 1a 08        	<unknown>
     978: b5 07        	<unknown>
     97a: fe 1b        	<unknown>
     97c: 00 00        	<unknown>
     97e: 1a 08        	<unknown>
     980: b7 07 12 1c  	lui	a5, 0x1c120
     984: 00 00        	<unknown>
     986: 1a 08        	<unknown>
     988: b8 07        	<unknown>
     98a: 26 1c        	<unknown>
     98c: 00 00        	<unknown>
     98e: 1a 08        	<unknown>
     990: b9 07        	<unknown>
     992: 3a 1c        	<unknown>
     994: 00 00        	<unknown>
     996: 1a 08        	<unknown>
     998: bb 07 4e 1c  	<unknown>
     99c: 00 00        	<unknown>
     99e: 1a 08        	<unknown>
     9a0: bc 07        	<unknown>
     9a2: 61 1c        	<unknown>
     9a4: 00 00        	<unknown>
     9a6: 1a 08        	<unknown>
     9a8: bd 07        	<unknown>
     9aa: 74 1c        	<unknown>
     9ac: 00 00        	<unknown>
     9ae: 1a 08        	<unknown>
     9b0: bf 07 87 1c  	<unknown>
     9b4: 00 00        	<unknown>
     9b6: 1a 08        	<unknown>
     9b8: c0 07        	<unknown>
     9ba: 9b 1c 00 00  	slliw	s9, zero, 0x0
     9be: 1a 08        	<unknown>
     9c0: c1 07        	<unknown>
     9c2: af 1c 00 00  	<unknown>
     9c6: 1a 08        	<unknown>
     9c8: c3 07 c3 1c  	<unknown>
     9cc: 00 00        	<unknown>
     9ce: 1a 08        	<unknown>
     9d0: c4 07        	<unknown>
     9d2: dc 1c        	<unknown>
     9d4: 00 00        	<unknown>
     9d6: 1a 08        	<unknown>
     9d8: c5 07        	<unknown>
     9da: f5 1c        	<unknown>
     9dc: 00 00        	<unknown>
     9de: 1a 08        	<unknown>
     9e0: c7 07 0e 1d  	<unknown>
     9e4: 00 00        	<unknown>
     9e6: 1a 08        	<unknown>
     9e8: c8 07        	<unknown>
     9ea: 27 1d 00 00  	<unknown>
     9ee: 1a 08        	<unknown>
     9f0: c9 07        	<unknown>
     9f2: 40 1d        	<unknown>
     9f4: 00 00        	<unknown>
     9f6: 1a 08        	<unknown>
     9f8: cb 07 59 1d  	<unknown>
     9fc: 00 00        	<unknown>
     9fe: 1a 08        	<unknown>
     a00: cc 07        	<unknown>
     a02: 72 1d        	<unknown>
     a04: 00 00        	<unknown>
     a06: 1a 08        	<unknown>
     a08: cd 07        	<unknown>
     a0a: 8b 1d 00 00  	<unknown>
     a0e: 1a 08        	<unknown>
     a10: cf 07 a4 1d  	<unknown>
     a14: 00 00        	<unknown>
     a16: 1a 08        	<unknown>
     a18: d0 07        	<unknown>
     a1a: c2 1d        	<unknown>
     a1c: 00 00        	<unknown>
     a1e: 1a 08        	<unknown>
     a20: d1 07        	<unknown>
     a22: e0 1d        	<unknown>
     a24: 00 00        	<unknown>
     a26: 1a 08        	<unknown>
     a28: d3 07 fe 1d  	<unknown>
     a2c: 00 00        	<unknown>
     a2e: 1a 08        	<unknown>
     a30: d4 07        	<unknown>
     a32: 12 1e        	<unknown>
     a34: 00 00        	<unknown>
     a36: 1a 08        	<unknown>
     a38: d5 07        	<unknown>
     a3a: 26 1e        	<unknown>
     a3c: 00 00        	<unknown>
     a3e: 1a 08        	<unknown>
     a40: d7 07 3a 1e  	<unknown>
     a44: 00 00        	<unknown>
     a46: 1a 08        	<unknown>
     a48: d8 07        	<unknown>
     a4a: 4e 1e        	<unknown>
     a4c: 00 00        	<unknown>
     a4e: 1a 08        	<unknown>
     a50: d9 07        	<unknown>
     a52: 62 1e        	<unknown>
     a54: 00 00        	<unknown>
     a56: 1a 08        	<unknown>
     a58: db 07 76 1e  	<unknown>
     a5c: 00 00        	<unknown>
     a5e: 1a 08        	<unknown>
     a60: dc 07        	<unknown>
     a62: 8f 1e 00 00  	<unknown>
     a66: 1a 08        	<unknown>
     a68: dd 07        	<unknown>
     a6a: a8 1e        	<unknown>
     a6c: 00 00        	<unknown>
     a6e: 1a 08        	<unknown>
     a70: df 07 c1 1e  	<unknown>
     a74: 00 00        	<unknown>
     a76: 1a 08        	<unknown>
     a78: e0 07        	<unknown>
     a7a: da 1e        	<unknown>
     a7c: 00 00        	<unknown>
     a7e: 1a 08        	<unknown>
     a80: e1 07        	<unknown>
     a82: f3 1e 00 00  	csrrw	t4, 0x0, zero
     a86: 1a 08        	<unknown>
     a88: e3 07 0c 1f  	beq	s8, a6, 0x1476 <.debug_info+0x1476>
     a8c: 00 00        	<unknown>
     a8e: 1a 08        	<unknown>
     a90: e4 07        	<unknown>
     a92: 1f 1f 00 00  	<unknown>
     a96: 1a 08        	<unknown>
     a98: e5 07        	<unknown>
     a9a: 32 1f        	<unknown>
     a9c: 00 00        	<unknown>
     a9e: 1a 08        	<unknown>
     aa0: e7 07 45 1f  	jalr	a5, 0x1f4(a0)
     aa4: 00 00        	<unknown>
     aa6: 1a 08        	<unknown>
     aa8: e8 07        	<unknown>
     aaa: 59 1f        	<unknown>
     aac: 00 00        	<unknown>
     aae: 1a 08        	<unknown>
     ab0: e9 07        	<unknown>
     ab2: 6d 1f        	<unknown>
     ab4: 00 00        	<unknown>
     ab6: 0c 0a        	<unknown>
     ab8: 83 81 1f 00  	lb	gp, 0x1(t6)
     abc: 00 0c        	<unknown>
     abe: 0a 84        	<unknown>
     ac0: 8e 1f        	<unknown>
     ac2: 00 00        	<unknown>
     ac4: 0c 0a        	<unknown>
     ac6: 86 bb        	<unknown>
     ac8: 1f 00 00 0c  	<unknown>
     acc: 0a 8a        	<unknown>
     ace: c6 1f        	<unknown>
     ad0: 00 00        	<unknown>
     ad2: 0c 0a        	<unknown>
     ad4: 8d e0        	<unknown>
     ad6: 1f 00 00 0c  	<unknown>
     ada: 0a 90        	<unknown>
     adc: f4 1f        	<unknown>
     ade: 00 00        	<unknown>
     ae0: 0c 0a        	<unknown>
     ae2: 91 07        	<unknown>
     ae4: 20 00        	<unknown>
     ae6: 00 0c        	<unknown>
     ae8: 0a 92        	<unknown>
     aea: 1a 20        	<unknown>
     aec: 00 00        	<unknown>
     aee: 0c 0a        	<unknown>
     af0: 93 2d 20 00  	slti	s11, zero, 0x2
     af4: 00 0c        	<unknown>
     af6: 0a 94        	<unknown>
     af8: 8f 20 00 00  	<unknown>
     afc: 0c 0a        	<unknown>
     afe: 95 a8        	<unknown>
     b00: 20 00        	<unknown>
     b02: 00 0c        	<unknown>
     b04: 0a 96        	<unknown>
     b06: c1 20        	<unknown>
     b08: 00 00        	<unknown>
     b0a: 0c 0a        	<unknown>
     b0c: 97 d2 20 00  	auipc	t0, 0x20d
     b10: 00 0c        	<unknown>
     b12: 0a 98        	<unknown>
     b14: e2 20        	<unknown>
     b16: 00 00        	<unknown>
     b18: 0c 0a        	<unknown>
     b1a: 99 fb        	<unknown>
     b1c: 20 00        	<unknown>
     b1e: 00 0c        	<unknown>
     b20: 0a 9a        	<unknown>
     b22: 0f 21 00 00  	<unknown>
     b26: 0c 0a        	<unknown>
     b28: 9b 28 21 00  	<unknown>
     b2c: 00 0c        	<unknown>
     b2e: 0a 9d        	<unknown>
     b30: 3c 21        	<unknown>
     b32: 00 00        	<unknown>
     b34: 0c 0a        	<unknown>
     b36: 9e 55        	<unknown>
     b38: 21 00        	<unknown>
     b3a: 00 0c        	<unknown>
     b3c: 0a 9f        	<unknown>
     b3e: 7f 21 00 00  	<unknown>
     b42: 0c 0a        	<unknown>
     b44: a1 9d        	<unknown>
     b46: 21 00        	<unknown>
     b48: 00 0c        	<unknown>
     b4a: 0a a4        	<unknown>
     b4c: bc 21        	<unknown>
     b4e: 00 00        	<unknown>
     b50: 0c 0a        	<unknown>
     b52: a7 cd 21 00  	<unknown>
     b56: 00 0c        	<unknown>
     b58: 0a a8        	<unknown>
     b5a: db 21 00 00  	<unknown>
     b5e: 0c 0a        	<unknown>
     b60: a9 f4        	<unknown>
     b62: 21 00        	<unknown>
     b64: 00 0c        	<unknown>
     b66: 0a aa        	<unknown>
     b68: 04 22        	<unknown>
     b6a: 00 00        	<unknown>
     b6c: 0c 0a        	<unknown>
     b6e: ab 21 22 00  	<unknown>
     b72: 00 0c        	<unknown>
     b74: 0a ac        	<unknown>
     b76: 3e 22        	<unknown>
     b78: 00 00        	<unknown>
     b7a: 0c 0a        	<unknown>
     b7c: ad 5b        	<unknown>
     b7e: 22 00        	<unknown>
     b80: 00 0c        	<unknown>
     b82: 0a af        	<unknown>
     b84: 6f 22 00 00  	jal	tp, 0x2b84 <.debug_info+0x2b84>
     b88: 0c 0a        	<unknown>
     b8a: b0 97        	<unknown>
     b8c: 22 00        	<unknown>
     b8e: 00 0c        	<unknown>
     b90: 0a f4        	<unknown>
     b92: 11 23        	<unknown>
     b94: 00 00        	<unknown>
     b96: 0c 0a        	<unknown>
     b98: f6 3e        	<unknown>
     b9a: 23 00 00 0c  	sb	zero, 0xc0(zero)
     b9e: 0a f8        	<unknown>
     ba0: 4f 23 00 00  	fnmadd.s	ft6, ft0, ft0, ft0, rdn
     ba4: 0c 0a        	<unknown>
     ba6: f9 f4        	<unknown>
     ba8: 22 00        	<unknown>
     baa: 00 0c        	<unknown>
     bac: 0a fa        	<unknown>
     bae: 63 23 00 00  	<unknown>
     bb2: 0c 0a        	<unknown>
     bb4: fc 7c        	<unknown>
     bb6: 23 00 00 0c  	sb	zero, 0xc0(zero)
     bba: 0a fd        	<unknown>
     bbc: c9 23        	<unknown>
     bbe: 00 00        	<unknown>
     bc0: 0c 0a        	<unknown>
     bc2: fe 8f        	<unknown>
     bc4: 23 00 00 0c  	sb	zero, 0xc0(zero)
     bc8: 0a ff        	<unknown>
     bca: ac 23        	<unknown>
     bcc: 00 00        	<unknown>
     bce: 1a 0a        	<unknown>
     bd0: 00 01        	<unknown>
     bd2: e1 23        	<unknown>
     bd4: 00 00        	<unknown>
     bd6: 0b 5c 0d 00  	<unknown>
     bda: 00 f3        	<unknown>
     bdc: 06 00        	<unknown>
     bde: 00 06        	<unknown>
     be0: 4f dd 16 00  	<unknown>
     be4: 00 01        	<unknown>
     be6: 01 09        	<unknown>
     be8: dd 16        	<unknown>
     bea: 00 00        	<unknown>
     bec: 00 1a        	<unknown>
     bee: 0e bb        	<unknown>
     bf0: 01 e0        	<unknown>
     bf2: 24 00        	<unknown>
     bf4: 00 1a        	<unknown>
     bf6: 0e bc        	<unknown>
     bf8: 01 f6        	<unknown>
     bfa: 24 00        	<unknown>
     bfc: 00 1a        	<unknown>
     bfe: 0e bd        	<unknown>
     c00: 01 0c        	<unknown>
     c02: 25 00        	<unknown>
     c04: 00 1a        	<unknown>
     c06: 0e be        	<unknown>
     c08: 01 22        	<unknown>
     c0a: 25 00        	<unknown>
     c0c: 00 1a        	<unknown>
     c0e: 0e bf        	<unknown>
     c10: 01 38        	<unknown>
     c12: 25 00        	<unknown>
     c14: 00 1a        	<unknown>
     c16: 0e c0        	<unknown>
     c18: 01 53        	<unknown>
     c1a: 25 00        	<unknown>
     c1c: 00 1a        	<unknown>
     c1e: 0e c1        	<unknown>
     c20: 01 69        	<unknown>
     c22: 25 00        	<unknown>
     c24: 00 1a        	<unknown>
     c26: 0e c2        	<unknown>
     c28: 01 7f        	<unknown>
     c2a: 25 00        	<unknown>
     c2c: 00 1a        	<unknown>
     c2e: 0e c3        	<unknown>
     c30: 01 95        	<unknown>
     c32: 25 00        	<unknown>
     c34: 00 1a        	<unknown>
     c36: 0e c4        	<unknown>
     c38: 01 ab        	<unknown>
     c3a: 25 00        	<unknown>
     c3c: 00 1a        	<unknown>
     c3e: 0e c5        	<unknown>
     c40: 01 c6        	<unknown>
     c42: 25 00        	<unknown>
     c44: 00 1a        	<unknown>
     c46: 0e c6        	<unknown>
     c48: 01 dc        	<unknown>
     c4a: 25 00        	<unknown>
     c4c: 00 1a        	<unknown>
     c4e: 0e c7        	<unknown>
     c50: 01 f2        	<unknown>
     c52: 25 00        	<unknown>
     c54: 00 1a        	<unknown>
     c56: 0e c8        	<unknown>
     c58: 01 08        	<unknown>
     c5a: 26 00        	<unknown>
     c5c: 00 1a        	<unknown>
     c5e: 0e c9        	<unknown>
     c60: 01 1e        	<unknown>
     c62: 26 00        	<unknown>
     c64: 00 1a        	<unknown>
     c66: 0e ca        	<unknown>
     c68: 01 34        	<unknown>
     c6a: 26 00        	<unknown>
     c6c: 00 1a        	<unknown>
     c6e: 0e cb        	<unknown>
     c70: 01 4a        	<unknown>
     c72: 26 00        	<unknown>
     c74: 00 1a        	<unknown>
     c76: 0e cc        	<unknown>
     c78: 01 60        	<unknown>
     c7a: 26 00        	<unknown>
     c7c: 00 1a        	<unknown>
     c7e: 0e cd        	<unknown>
     c80: 01 76        	<unknown>
     c82: 26 00        	<unknown>
     c84: 00 1a        	<unknown>
     c86: 0e ce        	<unknown>
     c88: 01 91        	<unknown>
     c8a: 26 00        	<unknown>
     c8c: 00 1a        	<unknown>
     c8e: 0e cf        	<unknown>
     c90: 01 a7        	<unknown>
     c92: 26 00        	<unknown>
     c94: 00 1a        	<unknown>
     c96: 0e d0        	<unknown>
     c98: 01 c7        	<unknown>
     c9a: 26 00        	<unknown>
     c9c: 00 1a        	<unknown>
     c9e: 0e d1        	<unknown>
     ca0: 01 e2        	<unknown>
     ca2: 26 00        	<unknown>
     ca4: 00 1a        	<unknown>
     ca6: 0e d2        	<unknown>
     ca8: 01 fd        	<unknown>
     caa: 26 00        	<unknown>
     cac: 00 1a        	<unknown>
     cae: 0e d3        	<unknown>
     cb0: 01 18        	<unknown>
     cb2: 27 00 00 1a  	<unknown>
     cb6: 0e d4        	<unknown>
     cb8: 01 33        	<unknown>
     cba: 27 00 00 1a  	<unknown>
     cbe: 0e d5        	<unknown>
     cc0: 01 4e        	<unknown>
     cc2: 27 00 00 1a  	<unknown>
     cc6: 0e d6        	<unknown>
     cc8: 01 64        	<unknown>
     cca: 27 00 00 1a  	<unknown>
     cce: 0e d7        	<unknown>
     cd0: 01 7f        	<unknown>
     cd2: 27 00 00 1a  	<unknown>
     cd6: 0e d8        	<unknown>
     cd8: 01 95        	<unknown>
     cda: 27 00 00 1a  	<unknown>
     cde: 0e d9        	<unknown>
     ce0: 01 ab        	<unknown>
     ce2: 27 00 00 1a  	<unknown>
     ce6: 0e da        	<unknown>
     ce8: 01 c1        	<unknown>
     cea: 27 00 00 1a  	<unknown>
     cee: 0e db        	<unknown>
     cf0: 01 d7        	<unknown>
     cf2: 27 00 00 1a  	<unknown>
     cf6: 0e dc        	<unknown>
     cf8: 01 ed        	<unknown>
     cfa: 27 00 00 1a  	<unknown>
     cfe: 0e dd        	<unknown>
     d00: 01 03        	<unknown>
     d02: 28 00        	<unknown>
     d04: 00 1a        	<unknown>
     d06: 0e de        	<unknown>
     d08: 01 19        	<unknown>
     d0a: 28 00        	<unknown>
     d0c: 00 1a        	<unknown>
     d0e: 0e df        	<unknown>
     d10: 01 2f        	<unknown>
     d12: 28 00        	<unknown>
     d14: 00 1a        	<unknown>
     d16: 0e e0        	<unknown>
     d18: 01 45        	<unknown>
     d1a: 28 00        	<unknown>
     d1c: 00 1a        	<unknown>
     d1e: 0e e1        	<unknown>
     d20: 01 5b        	<unknown>
     d22: 28 00        	<unknown>
     d24: 00 1a        	<unknown>
     d26: 0e e2        	<unknown>
     d28: 01 76        	<unknown>
     d2a: 28 00        	<unknown>
     d2c: 00 1a        	<unknown>
     d2e: 0e e3        	<unknown>
     d30: 01 8c        	<unknown>
     d32: 28 00        	<unknown>
     d34: 00 1a        	<unknown>
     d36: 0e e4        	<unknown>
     d38: 01 a7        	<unknown>
     d3a: 28 00        	<unknown>
     d3c: 00 1a        	<unknown>
     d3e: 0e e5        	<unknown>
     d40: 01 c2        	<unknown>
     d42: 28 00        	<unknown>
     d44: 00 1a        	<unknown>
     d46: 0e e6        	<unknown>
     d48: 01 dd        	<unknown>
     d4a: 28 00        	<unknown>
     d4c: 00 1a        	<unknown>
     d4e: 0e e7        	<unknown>
     d50: 01 fd        	<unknown>
     d52: 28 00        	<unknown>
     d54: 00 1a        	<unknown>
     d56: 0e e8        	<unknown>
     d58: 01 14        	<unknown>
     d5a: 29 00        	<unknown>
     d5c: 00 1a        	<unknown>
     d5e: 0e e9        	<unknown>
     d60: 01 2a        	<unknown>
     d62: 29 00        	<unknown>
     d64: 00 1a        	<unknown>
     d66: 0e ea        	<unknown>
     d68: 01 46        	<unknown>
     d6a: 29 00        	<unknown>
     d6c: 00 1a        	<unknown>
     d6e: 0e eb        	<unknown>
     d70: 01 62        	<unknown>
     d72: 29 00        	<unknown>
     d74: 00 1a        	<unknown>
     d76: 0e ec        	<unknown>
     d78: 01 79        	<unknown>
     d7a: 29 00        	<unknown>
     d7c: 00 1a        	<unknown>
     d7e: 0e ed        	<unknown>
     d80: 01 90        	<unknown>
     d82: 29 00        	<unknown>
     d84: 00 1a        	<unknown>
     d86: 0e ee        	<unknown>
     d88: 01 a7        	<unknown>
     d8a: 29 00        	<unknown>
     d8c: 00 1a        	<unknown>
     d8e: 0e ef        	<unknown>
     d90: 01 be        	<unknown>
     d92: 29 00        	<unknown>
     d94: 00 1a        	<unknown>
     d96: 0e f0        	<unknown>
     d98: 01 d5        	<unknown>
     d9a: 29 00        	<unknown>
     d9c: 00 1a        	<unknown>
     d9e: 0e f1        	<unknown>
     da0: 01 ec        	<unknown>
     da2: 29 00        	<unknown>
     da4: 00 12        	<unknown>
     da6: a1 10        	<unknown>
     da8: 00 00        	<unknown>
     daa: 84 0e        	<unknown>
     dac: 00 00        	<unknown>
     dae: 08 6c        	<unknown>
     db0: 01 dd        	<unknown>
     db2: 16 00        	<unknown>
     db4: 00 01        	<unknown>
     db6: 01 09        	<unknown>
     db8: dd 16        	<unknown>
     dba: 00 00        	<unknown>
     dbc: 09 0a        	<unknown>
     dbe: 2a 00        	<unknown>
     dc0: 00 00        	<unknown>
     dc2: 00 1b        	<unknown>
     dc4: dd 05        	<unknown>
     dc6: 00 00        	<unknown>
     dc8: f3 06 00 00  	<unknown>
     dcc: 04 1e        	<unknown>
     dce: d9 0d        	<unknown>
     dd0: 00 00        	<unknown>
     dd2: 01 09        	<unknown>
     dd4: d9 0d        	<unknown>
     dd6: 00 00        	<unknown>
     dd8: 00 0d        	<unknown>
     dda: 56 01        	<unknown>
     ddc: 00 00        	<unknown>
     dde: 05 04        	<unknown>
     de0: 1b e6 05 00  	<unknown>
     de4: 00 f0        	<unknown>
     de6: 05 00        	<unknown>
     de8: 00 04        	<unknown>
     dea: 20 f6        	<unknown>
     dec: 0d 00        	<unknown>
     dee: 00 01        	<unknown>
     df0: 09 f6        	<unknown>
     df2: 0d 00        	<unknown>
     df4: 00 00        	<unknown>
     df6: 0d f5        	<unknown>
     df8: 05 00        	<unknown>
     dfa: 00 04        	<unknown>
     dfc: 04 1b        	<unknown>
     dfe: fb 05 00 00  	<unknown>
     e02: 06 06        	<unknown>
     e04: 00 00        	<unknown>
     e06: 04 22        	<unknown>
     e08: f6 0d        	<unknown>
     e0a: 00 00        	<unknown>
     e0c: 01 09        	<unknown>
     e0e: f6 0d        	<unknown>
     e10: 00 00        	<unknown>
     e12: 00 1b        	<unknown>
     e14: 0c 06        	<unknown>
     e16: 00 00        	<unknown>
     e18: 16 06        	<unknown>
     e1a: 00 00        	<unknown>
     e1c: 04 24        	<unknown>
     e1e: f6 0d        	<unknown>
     e20: 00 00        	<unknown>
     e22: 01 09        	<unknown>
     e24: f6 0d        	<unknown>
     e26: 00 00        	<unknown>
     e28: 00 1b        	<unknown>
     e2a: 1b 06 00 00  	sext.w	a2, zero
     e2e: 26 06        	<unknown>
     e30: 00 00        	<unknown>
     e32: 04 26        	<unknown>
     e34: f6 0d        	<unknown>
     e36: 00 00        	<unknown>
     e38: 01 09        	<unknown>
     e3a: f6 0d        	<unknown>
     e3c: 00 00        	<unknown>
     e3e: 00 1b        	<unknown>
     e40: 2c 06        	<unknown>
     e42: 00 00        	<unknown>
     e44: 36 06        	<unknown>
     e46: 00 00        	<unknown>
     e48: 04 2a        	<unknown>
     e4a: f6 0d        	<unknown>
     e4c: 00 00        	<unknown>
     e4e: 01 09        	<unknown>
     e50: f6 0d        	<unknown>
     e52: 00 00        	<unknown>
     e54: 00 1b        	<unknown>
     e56: 3b 06 00 00  	addw	a2, zero, zero
     e5a: 47 06 00 00  	fmsub.s	fa2, ft0, ft0, ft0, rne
     e5e: 04 28        	<unknown>
     e60: f6 0d        	<unknown>
     e62: 00 00        	<unknown>
     e64: 01 09        	<unknown>
     e66: f6 0d        	<unknown>
     e68: 00 00        	<unknown>
     e6a: 09 f6        	<unknown>
     e6c: 0d 00        	<unknown>
     e6e: 00 00        	<unknown>
     e70: 1b 4d 06 00  	<unknown>
     e74: 00 58        	<unknown>
     e76: 06 00        	<unknown>
     e78: 00 04        	<unknown>
     e7a: 2c f6        	<unknown>
     e7c: 0d 00        	<unknown>
     e7e: 00 01        	<unknown>
     e80: 09 f6        	<unknown>
     e82: 0d 00        	<unknown>
     e84: 00 00        	<unknown>
     e86: 1b 5e 06 00  	srliw	t3, a2, 0x0
     e8a: 00 68        	<unknown>
     e8c: 06 00        	<unknown>
     e8e: 00 04        	<unknown>
     e90: 2e f6        	<unknown>
     e92: 0d 00        	<unknown>
     e94: 00 01        	<unknown>
     e96: 09 f6        	<unknown>
     e98: 0d 00        	<unknown>
     e9a: 00 00        	<unknown>
     e9c: 1b 6d 06 00  	<unknown>
     ea0: 00 77        	<unknown>
     ea2: 06 00        	<unknown>
     ea4: 00 04        	<unknown>
     ea6: 30 f6        	<unknown>
     ea8: 0d 00        	<unknown>
     eaa: 00 01        	<unknown>
     eac: 09 f6        	<unknown>
     eae: 0d 00        	<unknown>
     eb0: 00 00        	<unknown>
     eb2: 1b 7c 06 00  	<unknown>
     eb6: 00 8b        	<unknown>
     eb8: 06 00        	<unknown>
     eba: 00 04        	<unknown>
     ebc: 32 f6        	<unknown>
     ebe: 0d 00        	<unknown>
     ec0: 00 01        	<unknown>
     ec2: 09 f6        	<unknown>
     ec4: 0d 00        	<unknown>
     ec6: 00 09        	<unknown>
     ec8: f6 0d        	<unknown>
     eca: 00 00        	<unknown>
     ecc: 00 1b        	<unknown>
     ece: 94 06        	<unknown>
     ed0: 00 00        	<unknown>
     ed2: f1 05        	<unknown>
     ed4: 00 00        	<unknown>
     ed6: 04 34        	<unknown>
     ed8: f6 0d        	<unknown>
     eda: 00 00        	<unknown>
     edc: 01 09        	<unknown>
     ede: f6 0d        	<unknown>
     ee0: 00 00        	<unknown>
     ee2: 00 1b        	<unknown>
     ee4: 9d 06        	<unknown>
     ee6: 00 00        	<unknown>
     ee8: 07 06 00 00  	<unknown>
     eec: 04 36        	<unknown>
     eee: f6 0d        	<unknown>
     ef0: 00 00        	<unknown>
     ef2: 01 09        	<unknown>
     ef4: f6 0d        	<unknown>
     ef6: 00 00        	<unknown>
     ef8: 00 1b        	<unknown>
     efa: a7 06 00 00  	<unknown>
     efe: dc 0b        	<unknown>
     f00: 00 00        	<unknown>
     f02: 04 3a        	<unknown>
     f04: f6 0d        	<unknown>
     f06: 00 00        	<unknown>
     f08: 01 09        	<unknown>
     f0a: f6 0d        	<unknown>
     f0c: 00 00        	<unknown>
     f0e: 00 1b        	<unknown>
     f10: b0 06        	<unknown>
     f12: 00 00        	<unknown>
     f14: ba 06        	<unknown>
     f16: 00 00        	<unknown>
     f18: 04 38        	<unknown>
     f1a: f6 0d        	<unknown>
     f1c: 00 00        	<unknown>
     f1e: 01 09        	<unknown>
     f20: f6 0d        	<unknown>
     f22: 00 00        	<unknown>
     f24: 00 1b        	<unknown>
     f26: bf 06 00 00  	<unknown>
     f2a: ca 08        	<unknown>
     f2c: 00 00        	<unknown>
     f2e: 04 3e        	<unknown>
     f30: f6 0d        	<unknown>
     f32: 00 00        	<unknown>
     f34: 01 09        	<unknown>
     f36: f6 0d        	<unknown>
     f38: 00 00        	<unknown>
     f3a: 00 1b        	<unknown>
     f3c: c8 06        	<unknown>
     f3e: 00 00        	<unknown>
     f40: d2 06        	<unknown>
     f42: 00 00        	<unknown>
     f44: 04 3c        	<unknown>
     f46: f6 0d        	<unknown>
     f48: 00 00        	<unknown>
     f4a: 01 09        	<unknown>
     f4c: f6 0d        	<unknown>
     f4e: 00 00        	<unknown>
     f50: 00 1b        	<unknown>
     f52: d7 06 00 00  	<unknown>
     f56: e2 06        	<unknown>
     f58: 00 00        	<unknown>
     f5a: 04 40        	<unknown>
     f5c: f6 0d        	<unknown>
     f5e: 00 00        	<unknown>
     f60: 01 09        	<unknown>
     f62: f6 0d        	<unknown>
     f64: 00 00        	<unknown>
     f66: 00 1b        	<unknown>
     f68: e8 06        	<unknown>
     f6a: 00 00        	<unknown>
     f6c: f2 06        	<unknown>
     f6e: 00 00        	<unknown>
     f70: 04 42        	<unknown>
     f72: f6 0d        	<unknown>
     f74: 00 00        	<unknown>
     f76: 01 09        	<unknown>
     f78: f6 0d        	<unknown>
     f7a: 00 00        	<unknown>
     f7c: 00 1b        	<unknown>
     f7e: f7 06 00 00  	<unknown>
     f82: 02 07        	<unknown>
     f84: 00 00        	<unknown>
     f86: 04 44        	<unknown>
     f88: f6 0d        	<unknown>
     f8a: 00 00        	<unknown>
     f8c: 01 09        	<unknown>
     f8e: f6 0d        	<unknown>
     f90: 00 00        	<unknown>
     f92: 09 f6        	<unknown>
     f94: 0d 00        	<unknown>
     f96: 00 00        	<unknown>
     f98: 1b 07 07 00  	sext.w	a4, a4
     f9c: 00 12        	<unknown>
     f9e: 07 00 00 04  	<unknown>
     fa2: 46 f6        	<unknown>
     fa4: 0d 00        	<unknown>
     fa6: 00 01        	<unknown>
     fa8: 09 f6        	<unknown>
     faa: 0d 00        	<unknown>
     fac: 00 00        	<unknown>
     fae: 1b 18 07 00  	slliw	a6, a4, 0x0
     fb2: 00 23        	<unknown>
     fb4: 07 00 00 04  	<unknown>
     fb8: 48 f6        	<unknown>
     fba: 0d 00        	<unknown>
     fbc: 00 01        	<unknown>
     fbe: 09 f6        	<unknown>
     fc0: 0d 00        	<unknown>
     fc2: 00 09        	<unknown>
     fc4: f6 0d        	<unknown>
     fc6: 00 00        	<unknown>
     fc8: 09 f6        	<unknown>
     fca: 0d 00        	<unknown>
     fcc: 00 00        	<unknown>
     fce: 1b 27 07 00  	<unknown>
     fd2: 00 32        	<unknown>
     fd4: 07 00 00 04  	<unknown>
     fd8: 4a f6        	<unknown>
     fda: 0d 00        	<unknown>
     fdc: 00 01        	<unknown>
     fde: 09 f6        	<unknown>
     fe0: 0d 00        	<unknown>
     fe2: 00 09        	<unknown>
     fe4: f6 0d        	<unknown>
     fe6: 00 00        	<unknown>
     fe8: 00 1b        	<unknown>
     fea: 37 07 00 00  	lui	a4, 0x0
     fee: 42 07        	<unknown>
     ff0: 00 00        	<unknown>
     ff2: 04 4c        	<unknown>
     ff4: f6 0d        	<unknown>
     ff6: 00 00        	<unknown>
     ff8: 01 09        	<unknown>
     ffa: f6 0d        	<unknown>
     ffc: 00 00        	<unknown>
     ffe: 09 f6        	<unknown>
    1000: 0d 00        	<unknown>
    1002: 00 00        	<unknown>
    1004: 1b 47 07 00  	<unknown>
    1008: 00 52        	<unknown>
    100a: 07 00 00 04  	<unknown>
    100e: 4e f6        	<unknown>
    1010: 0d 00        	<unknown>
    1012: 00 01        	<unknown>
    1014: 09 f6        	<unknown>
    1016: 0d 00        	<unknown>
    1018: 00 09        	<unknown>
    101a: f6 0d        	<unknown>
    101c: 00 00        	<unknown>
    101e: 00 1b        	<unknown>
    1020: 57 07 00 00  	<unknown>
    1024: 68 07        	<unknown>
    1026: 00 00        	<unknown>
    1028: 04 50        	<unknown>
    102a: d9 0d        	<unknown>
    102c: 00 00        	<unknown>
    102e: 01 09        	<unknown>
    1030: f6 0d        	<unknown>
    1032: 00 00        	<unknown>
    1034: 00 1b        	<unknown>
    1036: 73 07 00 00  	<unknown>
    103a: 80 07        	<unknown>
    103c: 00 00        	<unknown>
    103e: 04 52        	<unknown>
    1040: f6 0d        	<unknown>
    1042: 00 00        	<unknown>
    1044: 01 09        	<unknown>
    1046: f6 0d        	<unknown>
    1048: 00 00        	<unknown>
    104a: 09 50        	<unknown>
    104c: 10 00        	<unknown>
    104e: 00 00        	<unknown>
    1050: 0e d9        	<unknown>
    1052: 0d 00        	<unknown>
    1054: 00 1b        	<unknown>
    1056: 86 07        	<unknown>
    1058: 00 00        	<unknown>
    105a: 92 07        	<unknown>
    105c: 00 00        	<unknown>
    105e: 04 54        	<unknown>
    1060: f6 0d        	<unknown>
    1062: 00 00        	<unknown>
    1064: 01 09        	<unknown>
    1066: f6 0d        	<unknown>
    1068: 00 00        	<unknown>
    106a: 09 f6        	<unknown>
    106c: 0d 00        	<unknown>
    106e: 00 00        	<unknown>
    1070: 1b 98 07 00  	slliw	a6, a5, 0x0
    1074: 00 a3        	<unknown>
    1076: 07 00 00 04  	<unknown>
    107a: 56 d9        	<unknown>
    107c: 0d 00        	<unknown>
    107e: 00 01        	<unknown>
    1080: 09 f6        	<unknown>
    1082: 0d 00        	<unknown>
    1084: 00 00        	<unknown>
    1086: 1b a9 07 00  	<unknown>
    108a: 00 b7        	<unknown>
    108c: 07 00 00 04  	<unknown>
    1090: 5b 9c 10 00  	<unknown>
    1094: 00 01        	<unknown>
    1096: 09 f6        	<unknown>
    1098: 0d 00        	<unknown>
    109a: 00 00        	<unknown>
    109c: 0d c0        	<unknown>
    109e: 07 00 00 02  	<unknown>
    10a2: 01 1b        	<unknown>
    10a4: c5 07        	<unknown>
    10a6: 00 00        	<unknown>
    10a8: d5 07        	<unknown>
    10aa: 00 00        	<unknown>
    10ac: 04 5f        	<unknown>
    10ae: 9c 10        	<unknown>
    10b0: 00 00        	<unknown>
    10b2: 01 09        	<unknown>
    10b4: f6 0d        	<unknown>
    10b6: 00 00        	<unknown>
    10b8: 09 f6        	<unknown>
    10ba: 0d 00        	<unknown>
    10bc: 00 00        	<unknown>
    10be: 1b df 07 00  	srliw	t5, a5, 0x0
    10c2: 00 f5        	<unknown>
    10c4: 07 00 00 04  	<unknown>
    10c8: 5e 9c        	<unknown>
    10ca: 10 00        	<unknown>
    10cc: 00 01        	<unknown>
    10ce: 09 f6        	<unknown>
    10d0: 0d 00        	<unknown>
    10d2: 00 09        	<unknown>
    10d4: f6 0d        	<unknown>
    10d6: 00 00        	<unknown>
    10d8: 00 1b        	<unknown>
    10da: 04 08        	<unknown>
    10dc: 00 00        	<unknown>
    10de: 0f 08 00 00  	<unknown>
    10e2: 04 64        	<unknown>
    10e4: 9c 10        	<unknown>
    10e6: 00 00        	<unknown>
    10e8: 01 09        	<unknown>
    10ea: f6 0d        	<unknown>
    10ec: 00 00        	<unknown>
    10ee: 00 1b        	<unknown>
    10f0: 15 08        	<unknown>
    10f2: 00 00        	<unknown>
    10f4: 22 08        	<unknown>
    10f6: 00 00        	<unknown>
    10f8: 04 68        	<unknown>
    10fa: 9c 10        	<unknown>
    10fc: 00 00        	<unknown>
    10fe: 01 09        	<unknown>
    1100: f6 0d        	<unknown>
    1102: 00 00        	<unknown>
    1104: 09 f6        	<unknown>
    1106: 0d 00        	<unknown>
    1108: 00 00        	<unknown>
    110a: 1b 29 08 00  	<unknown>
    110e: 00 3c        	<unknown>
    1110: 08 00        	<unknown>
    1112: 00 04        	<unknown>
    1114: 67 9c 10 00  	<unknown>
    1118: 00 01        	<unknown>
    111a: 09 f6        	<unknown>
    111c: 0d 00        	<unknown>
    111e: 00 09        	<unknown>
    1120: f6 0d        	<unknown>
    1122: 00 00        	<unknown>
    1124: 00 1b        	<unknown>
    1126: 48 08        	<unknown>
    1128: 00 00        	<unknown>
    112a: 5d 08        	<unknown>
    112c: 00 00        	<unknown>
    112e: 04 6a        	<unknown>
    1130: 9c 10        	<unknown>
    1132: 00 00        	<unknown>
    1134: 01 09        	<unknown>
    1136: f6 0d        	<unknown>
    1138: 00 00        	<unknown>
    113a: 09 f6        	<unknown>
    113c: 0d 00        	<unknown>
    113e: 00 00        	<unknown>
    1140: 1b 6b 08 00  	<unknown>
    1144: 00 76        	<unknown>
    1146: 08 00        	<unknown>
    1148: 00 04        	<unknown>
    114a: 6f 9c 10 00  	jal	s8, 0xa94a <.debug_info+0xa94a>
    114e: 00 01        	<unknown>
    1150: 09 f6        	<unknown>
    1152: 0d 00        	<unknown>
    1154: 00 00        	<unknown>
    1156: 1b 7c 08 00  	<unknown>
    115a: 00 8a        	<unknown>
    115c: 08 00        	<unknown>
    115e: 00 04        	<unknown>
    1160: 71 9c        	<unknown>
    1162: 10 00        	<unknown>
    1164: 00 01        	<unknown>
    1166: 09 f6        	<unknown>
    1168: 0d 00        	<unknown>
    116a: 00 00        	<unknown>
    116c: 1b 93 08 00  	slliw	t1, a7, 0x0
    1170: 00 a6        	<unknown>
    1172: 08 00        	<unknown>
    1174: 00 04        	<unknown>
    1176: 73 9c 10 00  	fsflags	s8, ra
    117a: 00 01        	<unknown>
    117c: 09 f6        	<unknown>
    117e: 0d 00        	<unknown>
    1180: 00 09        	<unknown>
    1182: f6 0d        	<unknown>
    1184: 00 00        	<unknown>
    1186: 00 1b        	<unknown>
    1188: b2 08        	<unknown>
    118a: 00 00        	<unknown>
    118c: ed 08        	<unknown>
    118e: 00 00        	<unknown>
    1190: 04 74        	<unknown>
    1192: 9d 11        	<unknown>
    1194: 00 00        	<unknown>
    1196: 01 09        	<unknown>
    1198: 9d 11        	<unknown>
    119a: 00 00        	<unknown>
    119c: 00 0d        	<unknown>
    119e: 70 0c        	<unknown>
    11a0: 00 00        	<unknown>
    11a2: 05 08        	<unknown>
    11a4: 1b bc 08 00  	<unknown>
    11a8: 00 c8        	<unknown>
    11aa: 08 00        	<unknown>
    11ac: 00 04        	<unknown>
    11ae: 76 f6        	<unknown>
    11b0: 0d 00        	<unknown>
    11b2: 00 01        	<unknown>
    11b4: 09 f6        	<unknown>
    11b6: 0d 00        	<unknown>
    11b8: 00 09        	<unknown>
    11ba: d9 0d        	<unknown>
    11bc: 00 00        	<unknown>
    11be: 00 1b        	<unknown>
    11c0: ce 08        	<unknown>
    11c2: 00 00        	<unknown>
    11c4: da 08        	<unknown>
    11c6: 00 00        	<unknown>
    11c8: 04 78        	<unknown>
    11ca: f6 0d        	<unknown>
    11cc: 00 00        	<unknown>
    11ce: 01 09        	<unknown>
    11d0: f6 0d        	<unknown>
    11d2: 00 00        	<unknown>
    11d4: 00 1b        	<unknown>
    11d6: e1 08        	<unknown>
    11d8: 00 00        	<unknown>
    11da: ec 08        	<unknown>
    11dc: 00 00        	<unknown>
    11de: 04 79        	<unknown>
    11e0: eb 11 00 00  	<unknown>
    11e4: 01 09        	<unknown>
    11e6: eb 11 00 00  	<unknown>
    11ea: 00 0d        	<unknown>
    11ec: 25 01        	<unknown>
    11ee: 00 00        	<unknown>
    11f0: 05 08        	<unknown>
    11f2: 1b f2 08 00  	<unknown>
    11f6: 00 fe        	<unknown>
    11f8: 08 00        	<unknown>
    11fa: 00 04        	<unknown>
    11fc: 7b eb 11 00  	<unknown>
    1200: 00 01        	<unknown>
    1202: 09 f6        	<unknown>
    1204: 0d 00        	<unknown>
    1206: 00 00        	<unknown>
    1208: 1b 05 09 00  	sext.w	a0, s2
    120c: 00 0e        	<unknown>
    120e: 09 00        	<unknown>
    1210: 00 04        	<unknown>
    1212: 85 f6        	<unknown>
    1214: 0d 00        	<unknown>
    1216: 00 01        	<unknown>
    1218: 09 f6        	<unknown>
    121a: 0d 00        	<unknown>
    121c: 00 00        	<unknown>
    121e: 1b 12 09 00  	slliw	tp, s2, 0x0
    1222: 00 1d        	<unknown>
    1224: 09 00        	<unknown>
    1226: 00 04        	<unknown>
    1228: 7d f6        	<unknown>
    122a: 0d 00        	<unknown>
    122c: 00 01        	<unknown>
    122e: 09 f6        	<unknown>
    1230: 0d 00        	<unknown>
    1232: 00 00        	<unknown>
    1234: 1b 23 09 00  	<unknown>
    1238: 00 2e        	<unknown>
    123a: 09 00        	<unknown>
    123c: 00 04        	<unknown>
    123e: 7f f6 0d 00  	<unknown>
    1242: 00 01        	<unknown>
    1244: 09 f6        	<unknown>
    1246: 0d 00        	<unknown>
    1248: 00 00        	<unknown>
    124a: 1b 34 09 00  	<unknown>
    124e: 00 3e        	<unknown>
    1250: 09 00        	<unknown>
    1252: 00 04        	<unknown>
    1254: 81 f6        	<unknown>
    1256: 0d 00        	<unknown>
    1258: 00 01        	<unknown>
    125a: 09 f6        	<unknown>
    125c: 0d 00        	<unknown>
    125e: 00 00        	<unknown>
    1260: 1b 43 09 00  	<unknown>
    1264: 00 a4        	<unknown>
    1266: 07 00 00 04  	<unknown>
    126a: 83 f6 0d 00  	<unknown>
    126e: 00 01        	<unknown>
    1270: 09 f6        	<unknown>
    1272: 0d 00        	<unknown>
    1274: 00 00        	<unknown>
    1276: 1b 4d 09 00  	<unknown>
    127a: 00 ff        	<unknown>
    127c: 08 00        	<unknown>
    127e: 00 04        	<unknown>
    1280: 87 9d 11 00  	<unknown>
    1284: 00 01        	<unknown>
    1286: 09 f6        	<unknown>
    1288: 0d 00        	<unknown>
    128a: 00 00        	<unknown>
    128c: 1b 58 09 00  	srliw	a6, s2, 0x0
    1290: 00 72        	<unknown>
    1292: 09 00        	<unknown>
    1294: 00 04        	<unknown>
    1296: 89 9d        	<unknown>
    1298: 11 00        	<unknown>
    129a: 00 01        	<unknown>
    129c: 09 f6        	<unknown>
    129e: 0d 00        	<unknown>
    12a0: 00 00        	<unknown>
    12a2: 1b 64 09 00  	<unknown>
    12a6: 00 71        	<unknown>
    12a8: 09 00        	<unknown>
    12aa: 00 04        	<unknown>
    12ac: 8a eb        	<unknown>
    12ae: 11 00        	<unknown>
    12b0: 00 01        	<unknown>
    12b2: 09 f6        	<unknown>
    12b4: 0d 00        	<unknown>
    12b6: 00 00        	<unknown>
    12b8: 1b 79 09 00  	<unknown>
    12bc: 00 84        	<unknown>
    12be: 0e 00        	<unknown>
    12c0: 00 04        	<unknown>
    12c2: 8c f6        	<unknown>
    12c4: 0d 00        	<unknown>
    12c6: 00 01        	<unknown>
    12c8: 09 f6        	<unknown>
    12ca: 0d 00        	<unknown>
    12cc: 00 09        	<unknown>
    12ce: d3 12 00 00  	fadd.s	ft5, ft0, ft0, rtz
    12d2: 00 0e        	<unknown>
    12d4: f6 0d        	<unknown>
    12d6: 00 00        	<unknown>
    12d8: 1b 85 09 00  	sext.w	a0, s3
    12dc: 00 78        	<unknown>
    12de: 08 00        	<unknown>
    12e0: 00 04        	<unknown>
    12e2: 8d ee        	<unknown>
    12e4: 12 00        	<unknown>
    12e6: 00 01        	<unknown>
    12e8: 09 f5        	<unknown>
    12ea: 12 00        	<unknown>
    12ec: 00 00        	<unknown>
    12ee: 0d dc        	<unknown>
    12f0: 0a 00        	<unknown>
    12f2: 00 04        	<unknown>
    12f4: 08 0e        	<unknown>
    12f6: fa 12        	<unknown>
    12f8: 00 00        	<unknown>
    12fa: 14 ff        	<unknown>
    12fc: 12 00        	<unknown>
    12fe: 00 0d        	<unknown>
    1300: 90 09        	<unknown>
    1302: 00 00        	<unknown>
    1304: 06 01        	<unknown>
    1306: 1b 95 09 00  	slliw	a0, s3, 0x0
    130a: 00 71        	<unknown>
    130c: 08 00        	<unknown>
    130e: 00 04        	<unknown>
    1310: 8e f6        	<unknown>
    1312: 0d 00        	<unknown>
    1314: 00 01        	<unknown>
    1316: 09 f5        	<unknown>
    1318: 12 00        	<unknown>
    131a: 00 00        	<unknown>
    131c: 1b a1 09 00  	<unknown>
    1320: 00 b0        	<unknown>
    1322: 09 00        	<unknown>
    1324: 00 04        	<unknown>
    1326: 90 f6        	<unknown>
    1328: 0d 00        	<unknown>
    132a: 00 01        	<unknown>
    132c: 09 f6        	<unknown>
    132e: 0d 00        	<unknown>
    1330: 00 00        	<unknown>
    1332: 1b ba 09 00  	<unknown>
    1336: 00 ca        	<unknown>
    1338: 09 00        	<unknown>
    133a: 00 04        	<unknown>
    133c: 92 f6        	<unknown>
    133e: 0d 00        	<unknown>
    1340: 00 01        	<unknown>
    1342: 09 f6        	<unknown>
    1344: 0d 00        	<unknown>
    1346: 00 09        	<unknown>
    1348: f6 0d        	<unknown>
    134a: 00 00        	<unknown>
    134c: 00 1b        	<unknown>
    134e: d4 09        	<unknown>
    1350: 00 00        	<unknown>
    1352: de 09        	<unknown>
    1354: 00 00        	<unknown>
    1356: 04 96        	<unknown>
    1358: f6 0d        	<unknown>
    135a: 00 00        	<unknown>
    135c: 01 09        	<unknown>
    135e: f6 0d        	<unknown>
    1360: 00 00        	<unknown>
    1362: 09 d9        	<unknown>
    1364: 0d 00        	<unknown>
    1366: 00 00        	<unknown>
    1368: 1b e2 09 00  	<unknown>
    136c: 00 f2        	<unknown>
    136e: 09 00        	<unknown>
    1370: 00 04        	<unknown>
    1372: 98 f6        	<unknown>
    1374: 0d 00        	<unknown>
    1376: 00 01        	<unknown>
    1378: 09 f6        	<unknown>
    137a: 0d 00        	<unknown>
    137c: 00 09        	<unknown>
    137e: f6 0d        	<unknown>
    1380: 00 00        	<unknown>
    1382: 00 1b        	<unknown>
    1384: fc 09        	<unknown>
    1386: 00 00        	<unknown>
    1388: 0b 0a 00 00  	<unknown>
    138c: 04 9a        	<unknown>
    138e: f6 0d        	<unknown>
    1390: 00 00        	<unknown>
    1392: 01 09        	<unknown>
    1394: f6 0d        	<unknown>
    1396: 00 00        	<unknown>
    1398: 09 f6        	<unknown>
    139a: 0d 00        	<unknown>
    139c: 00 09        	<unknown>
    139e: 50 10        	<unknown>
    13a0: 00 00        	<unknown>
    13a2: 00 1b        	<unknown>
    13a4: 12 0a        	<unknown>
    13a6: 00 00        	<unknown>
    13a8: 00 09        	<unknown>
    13aa: 00 00        	<unknown>
    13ac: 04 9c        	<unknown>
    13ae: f6 0d        	<unknown>
    13b0: 00 00        	<unknown>
    13b2: 01 09        	<unknown>
    13b4: f6 0d        	<unknown>
    13b6: 00 00        	<unknown>
    13b8: 00 1b        	<unknown>
    13ba: 1c 0a        	<unknown>
    13bc: 00 00        	<unknown>
    13be: 73 09 00 00  	<unknown>
    13c2: 04 9e        	<unknown>
    13c4: f6 0d        	<unknown>
    13c6: 00 00        	<unknown>
    13c8: 01 09        	<unknown>
    13ca: f6 0d        	<unknown>
    13cc: 00 00        	<unknown>
    13ce: 00 1b        	<unknown>
    13d0: 27 0a 00 00  	<unknown>
    13d4: 35 0a        	<unknown>
    13d6: 00 00        	<unknown>
    13d8: 04 a0        	<unknown>
    13da: f6 0d        	<unknown>
    13dc: 00 00        	<unknown>
    13de: 01 09        	<unknown>
    13e0: f6 0d        	<unknown>
    13e2: 00 00        	<unknown>
    13e4: 09 9d        	<unknown>
    13e6: 11 00        	<unknown>
    13e8: 00 00        	<unknown>
    13ea: 1b 3d 0a 00  	<unknown>
    13ee: 00 4a        	<unknown>
    13f0: 0a 00        	<unknown>
    13f2: 00 04        	<unknown>
    13f4: a2 f6        	<unknown>
    13f6: 0d 00        	<unknown>
    13f8: 00 01        	<unknown>
    13fa: 09 f6        	<unknown>
    13fc: 0d 00        	<unknown>
    13fe: 00 09        	<unknown>
    1400: d9 0d        	<unknown>
    1402: 00 00        	<unknown>
    1404: 00 1b        	<unknown>
    1406: 51 0a        	<unknown>
    1408: 00 00        	<unknown>
    140a: 5e 0a        	<unknown>
    140c: 00 00        	<unknown>
    140e: 04 a7        	<unknown>
    1410: 9c 10        	<unknown>
    1412: 00 00        	<unknown>
    1414: 01 09        	<unknown>
    1416: f6 0d        	<unknown>
    1418: 00 00        	<unknown>
    141a: 00 1b        	<unknown>
    141c: 66 0a        	<unknown>
    141e: 00 00        	<unknown>
    1420: 17 06 00 00  	auipc	a2, 0x0
    1424: 04 a9        	<unknown>
    1426: f6 0d        	<unknown>
    1428: 00 00        	<unknown>
    142a: 01 09        	<unknown>
    142c: f6 0d        	<unknown>
    142e: 00 00        	<unknown>
    1430: 00 1b        	<unknown>
    1432: 6f 0a 00 00  	jal	s4, 0x1432 <.debug_info+0x1432>
    1436: 27 06 00 00  	<unknown>
    143a: 04 ab        	<unknown>
    143c: f6 0d        	<unknown>
    143e: 00 00        	<unknown>
    1440: 01 09        	<unknown>
    1442: f6 0d        	<unknown>
    1444: 00 00        	<unknown>
    1446: 00 1b        	<unknown>
    1448: 79 0a        	<unknown>
    144a: 00 00        	<unknown>
    144c: 83 0a 00 00  	lb	s5, 0x0(zero)
    1450: 04 ad        	<unknown>
    1452: f6 0d        	<unknown>
    1454: 00 00        	<unknown>
    1456: 01 09        	<unknown>
    1458: f6 0d        	<unknown>
    145a: 00 00        	<unknown>
    145c: 00 1b        	<unknown>
    145e: 88 0a        	<unknown>
    1460: 00 00        	<unknown>
    1462: 37 06 00 00  	lui	a2, 0x0
    1466: 04 af        	<unknown>
    1468: f6 0d        	<unknown>
    146a: 00 00        	<unknown>
    146c: 01 09        	<unknown>
    146e: f6 0d        	<unknown>
    1470: 00 00        	<unknown>
    1472: 00 1b        	<unknown>
    1474: 91 0a        	<unknown>
    1476: 00 00        	<unknown>
    1478: 59 06        	<unknown>
    147a: 00 00        	<unknown>
    147c: 04 b1        	<unknown>
    147e: f6 0d        	<unknown>
    1480: 00 00        	<unknown>
    1482: 01 09        	<unknown>
    1484: f6 0d        	<unknown>
    1486: 00 00        	<unknown>
    1488: 00 1b        	<unknown>
    148a: 9b 0a 00 00  	sext.w	s5, zero
    148e: a7 0a 00 00  	<unknown>
    1492: 04 b3        	<unknown>
    1494: f6 0d        	<unknown>
    1496: 00 00        	<unknown>
    1498: 01 09        	<unknown>
    149a: f6 0d        	<unknown>
    149c: 00 00        	<unknown>
    149e: 00 1b        	<unknown>
    14a0: ae 0a        	<unknown>
    14a2: 00 00        	<unknown>
    14a4: b9 0a        	<unknown>
    14a6: 00 00        	<unknown>
    14a8: 04 b5        	<unknown>
    14aa: f6 0d        	<unknown>
    14ac: 00 00        	<unknown>
    14ae: 01 09        	<unknown>
    14b0: f6 0d        	<unknown>
    14b2: 00 00        	<unknown>
    14b4: 00 1c        	<unknown>
    14b6: f3 06 00 00  	<unknown>
    14ba: 05 48        	<unknown>
    14bc: 03 d9 0d 00  	lhu	s2, 0x0(s11)
    14c0: 00 01        	<unknown>
    14c2: 01 09        	<unknown>
    14c4: d9 0d        	<unknown>
    14c6: 00 00        	<unknown>
    14c8: 00 1d        	<unknown>
    14ca: f0 05        	<unknown>
    14cc: 00 00        	<unknown>
    14ce: 07 35 ee 12  	fld	fa0, 0x12e(t3)
    14d2: 00 00        	<unknown>
    14d4: 01 01        	<unknown>
    14d6: 09 ee        	<unknown>
    14d8: 12 00        	<unknown>
    14da: 00 00        	<unknown>
    14dc: 1d 16        	<unknown>
    14de: 06 00        	<unknown>
    14e0: 00 07        	<unknown>
    14e2: 37 ee 12 00  	lui	t3, 0x12e
    14e6: 00 01        	<unknown>
    14e8: 01 09        	<unknown>
    14ea: ee 12        	<unknown>
    14ec: 00 00        	<unknown>
    14ee: 00 1d        	<unknown>
    14f0: 36 06        	<unknown>
    14f2: 00 00        	<unknown>
    14f4: 07 39 ee 12  	fld	fs2, 0x12e(t3)
    14f8: 00 00        	<unknown>
    14fa: 01 01        	<unknown>
    14fc: 09 ee        	<unknown>
    14fe: 12 00        	<unknown>
    1500: 00 00        	<unknown>
    1502: 1d 47        	<unknown>
    1504: 06 00        	<unknown>
    1506: 00 07        	<unknown>
    1508: 3b ee 12 00  	<unknown>
    150c: 00 01        	<unknown>
    150e: 01 09        	<unknown>
    1510: ee 12        	<unknown>
    1512: 00 00        	<unknown>
    1514: 09 ee        	<unknown>
    1516: 12 00        	<unknown>
    1518: 00 00        	<unknown>
    151a: 1d 77        	<unknown>
    151c: 06 00        	<unknown>
    151e: 00 07        	<unknown>
    1520: 9f ee 12 00  	<unknown>
    1524: 00 01        	<unknown>
    1526: 01 09        	<unknown>
    1528: ee 12        	<unknown>
    152a: 00 00        	<unknown>
    152c: 00 1d        	<unknown>
    152e: f1 05        	<unknown>
    1530: 00 00        	<unknown>
    1532: 07 3e ee 12  	fld	ft8, 0x12e(t3)
    1536: 00 00        	<unknown>
    1538: 01 01        	<unknown>
    153a: 09 ee        	<unknown>
    153c: 12 00        	<unknown>
    153e: 00 00        	<unknown>
    1540: 1d 07        	<unknown>
    1542: 06 00        	<unknown>
    1544: 00 07        	<unknown>
    1546: 47 ee 12 00  	<unknown>
    154a: 00 01        	<unknown>
    154c: 01 09        	<unknown>
    154e: ee 12        	<unknown>
    1550: 00 00        	<unknown>
    1552: 00 1d        	<unknown>
    1554: ca 08        	<unknown>
    1556: 00 00        	<unknown>
    1558: 07 5f ee 12  	<unknown>
    155c: 00 00        	<unknown>
    155e: 01 01        	<unknown>
    1560: 09 ee        	<unknown>
    1562: 12 00        	<unknown>
    1564: 00 00        	<unknown>
    1566: 1d f2        	<unknown>
    1568: 06 00        	<unknown>
    156a: 00 07        	<unknown>
    156c: a2 ee        	<unknown>
    156e: 12 00        	<unknown>
    1570: 00 01        	<unknown>
    1572: 01 09        	<unknown>
    1574: ee 12        	<unknown>
    1576: 00 00        	<unknown>
    1578: 00 1d        	<unknown>
    157a: 12 07        	<unknown>
    157c: 00 00        	<unknown>
    157e: 07 a5 ee 12  	flw	fa0, 0x12e(t4)
    1582: 00 00        	<unknown>
    1584: 01 01        	<unknown>
    1586: 09 ee        	<unknown>
    1588: 12 00        	<unknown>
    158a: 00 00        	<unknown>
    158c: 1d 52        	<unknown>
    158e: 07 00 00 07  	<unknown>
    1592: a8 ee        	<unknown>
    1594: 12 00        	<unknown>
    1596: 00 01        	<unknown>
    1598: 01 09        	<unknown>
    159a: ee 12        	<unknown>
    159c: 00 00        	<unknown>
    159e: 09 ee        	<unknown>
    15a0: 12 00        	<unknown>
    15a2: 00 00        	<unknown>
    15a4: 1d 80        	<unknown>
    15a6: 07 00 00 07  	<unknown>
    15aa: 62 ee        	<unknown>
    15ac: 12 00        	<unknown>
    15ae: 00 01        	<unknown>
    15b0: 01 09        	<unknown>
    15b2: ee 12        	<unknown>
    15b4: 00 00        	<unknown>
    15b6: 09 50        	<unknown>
    15b8: 10 00        	<unknown>
    15ba: 00 00        	<unknown>
    15bc: 1d c8        	<unknown>
    15be: 08 00        	<unknown>
    15c0: 00 07        	<unknown>
    15c2: 65 ee        	<unknown>
    15c4: 12 00        	<unknown>
    15c6: 00 01        	<unknown>
    15c8: 01 09        	<unknown>
    15ca: ee 12        	<unknown>
    15cc: 00 00        	<unknown>
    15ce: 09 d9        	<unknown>
    15d0: 0d 00        	<unknown>
    15d2: 00 00        	<unknown>
    15d4: 1d 0e        	<unknown>
    15d6: 09 00        	<unknown>
    15d8: 00 07        	<unknown>
    15da: 68 ee        	<unknown>
    15dc: 12 00        	<unknown>
    15de: 00 01        	<unknown>
    15e0: 01 09        	<unknown>
    15e2: ee 12        	<unknown>
    15e4: 00 00        	<unknown>
    15e6: 00 1d        	<unknown>
    15e8: 1d 09        	<unknown>
    15ea: 00 00        	<unknown>
    15ec: 07 6b ee 12  	<unknown>
    15f0: 00 00        	<unknown>
    15f2: 01 01        	<unknown>
    15f4: 09 ee        	<unknown>
    15f6: 12 00        	<unknown>
    15f8: 00 00        	<unknown>
    15fa: 1d 84        	<unknown>
    15fc: 0e 00        	<unknown>
    15fe: 00 07        	<unknown>
    1600: 6e ee        	<unknown>
    1602: 12 00        	<unknown>
    1604: 00 01        	<unknown>
    1606: 01 09        	<unknown>
    1608: ee 12        	<unknown>
    160a: 00 00        	<unknown>
    160c: 09 12        	<unknown>
    160e: 16 00        	<unknown>
    1610: 00 00        	<unknown>
    1612: 0e ee        	<unknown>
    1614: 12 00        	<unknown>
    1616: 00 1d        	<unknown>
    1618: de 09        	<unknown>
    161a: 00 00        	<unknown>
    161c: 07 8c ee 12  	<unknown>
    1620: 00 00        	<unknown>
    1622: 01 01        	<unknown>
    1624: 09 ee        	<unknown>
    1626: 12 00        	<unknown>
    1628: 00 09        	<unknown>
    162a: ee 12        	<unknown>
    162c: 00 00        	<unknown>
    162e: 00 1d        	<unknown>
    1630: 17 06 00 00  	auipc	a2, 0x0
    1634: 07 40 ee 12  	<unknown>
    1638: 00 00        	<unknown>
    163a: 01 01        	<unknown>
    163c: 09 ee        	<unknown>
    163e: 12 00        	<unknown>
    1640: 00 00        	<unknown>
    1642: 1d 27        	<unknown>
    1644: 06 00        	<unknown>
    1646: 00 07        	<unknown>
    1648: 49 ee        	<unknown>
    164a: 12 00        	<unknown>
    164c: 00 01        	<unknown>
    164e: 01 09        	<unknown>
    1650: ee 12        	<unknown>
    1652: 00 00        	<unknown>
    1654: 00 1d        	<unknown>
    1656: 83 0a 00 00  	lb	s5, 0x0(zero)
    165a: 07 8f ee 12  	<unknown>
    165e: 00 00        	<unknown>
    1660: 01 01        	<unknown>
    1662: 09 ee        	<unknown>
    1664: 12 00        	<unknown>
    1666: 00 00        	<unknown>
    1668: 1d 37        	<unknown>
    166a: 06 00        	<unknown>
    166c: 00 07        	<unknown>
    166e: 42 ee        	<unknown>
    1670: 12 00        	<unknown>
    1672: 00 01        	<unknown>
    1674: 01 09        	<unknown>
    1676: ee 12        	<unknown>
    1678: 00 00        	<unknown>
    167a: 00 1d        	<unknown>
    167c: 59 06        	<unknown>
    167e: 00 00        	<unknown>
    1680: 07 4b ee 12  	<unknown>
    1684: 00 00        	<unknown>
    1686: 01 01        	<unknown>
    1688: 09 ee        	<unknown>
    168a: 12 00        	<unknown>
    168c: 00 00        	<unknown>
    168e: 0a ee        	<unknown>
    1690: 12 00        	<unknown>
    1692: 00 bf        	<unknown>
    1694: 0a 00        	<unknown>
    1696: 00 09        	<unknown>
    1698: 96 0a        	<unknown>
    169a: f6 0d        	<unknown>
    169c: 00 00        	<unknown>
    169e: c8 0a        	<unknown>
    16a0: 00 00        	<unknown>
    16a2: 09 95        	<unknown>
    16a4: 1d 06        	<unknown>
    16a6: 06 00        	<unknown>
    16a8: 00 07        	<unknown>
    16aa: 55 ee        	<unknown>
    16ac: 12 00        	<unknown>
    16ae: 00 01        	<unknown>
    16b0: 01 09        	<unknown>
    16b2: ee 12        	<unknown>
    16b4: 00 00        	<unknown>
    16b6: 00 1d        	<unknown>
    16b8: ff 05 00 00  	<unknown>
    16bc: 07 55 f6 0d  	<unknown>
    16c0: 00 00        	<unknown>
    16c2: 01 01        	<unknown>
    16c4: 09 f6        	<unknown>
    16c6: 0d 00        	<unknown>
    16c8: 00 00        	<unknown>
    16ca: 1d d0        	<unknown>
    16cc: 0a 00        	<unknown>
    16ce: 00 07        	<unknown>
    16d0: 55 dd        	<unknown>
    16d2: 16 00        	<unknown>
    16d4: 00 01        	<unknown>
    16d6: 01 09        	<unknown>
    16d8: dd 16        	<unknown>
    16da: 00 00        	<unknown>
    16dc: 00 0d        	<unknown>
    16de: d7 0a 00 00  	<unknown>
    16e2: 04 08        	<unknown>
    16e4: 1d 26        	<unknown>
    16e6: 06 00        	<unknown>
    16e8: 00 07        	<unknown>
    16ea: 57 ee 12 00  	<unknown>
    16ee: 00 01        	<unknown>
    16f0: 01 09        	<unknown>
    16f2: ee 12        	<unknown>
    16f4: 00 00        	<unknown>
    16f6: 00 1d        	<unknown>
    16f8: 1f 06 00 00  	<unknown>
    16fc: 07 57 f6 0d  	<unknown>
    1700: 00 00        	<unknown>
    1702: 01 01        	<unknown>
    1704: 09 f6        	<unknown>
    1706: 0d 00        	<unknown>
    1708: 00 00        	<unknown>
    170a: 1d e3        	<unknown>
    170c: 0a 00        	<unknown>
    170e: 00 07        	<unknown>
    1710: 57 dd 16 00  	<unknown>
    1714: 00 01        	<unknown>
    1716: 01 09        	<unknown>
    1718: dd 16        	<unknown>
    171a: 00 00        	<unknown>
    171c: 00 1d        	<unknown>
    171e: 58 06        	<unknown>
    1720: 00 00        	<unknown>
    1722: 07 59 ee 12  	<unknown>
    1726: 00 00        	<unknown>
    1728: 01 01        	<unknown>
    172a: 09 ee        	<unknown>
    172c: 12 00        	<unknown>
    172e: 00 00        	<unknown>
    1730: 1d 51        	<unknown>
    1732: 06 00        	<unknown>
    1734: 00 07        	<unknown>
    1736: 59 f6        	<unknown>
    1738: 0d 00        	<unknown>
    173a: 00 01        	<unknown>
    173c: 01 09        	<unknown>
    173e: f6 0d        	<unknown>
    1740: 00 00        	<unknown>
    1742: 00 1d        	<unknown>
    1744: ea 0a        	<unknown>
    1746: 00 00        	<unknown>
    1748: 07 59 dd 16  	<unknown>
    174c: 00 00        	<unknown>
    174e: 01 01        	<unknown>
    1750: 09 dd        	<unknown>
    1752: 16 00        	<unknown>
    1754: 00 00        	<unknown>
    1756: 1d 68        	<unknown>
    1758: 06 00        	<unknown>
    175a: 00 07        	<unknown>
    175c: 98 ee        	<unknown>
    175e: 12 00        	<unknown>
    1760: 00 01        	<unknown>
    1762: 01 09        	<unknown>
    1764: ee 12        	<unknown>
    1766: 00 00        	<unknown>
    1768: 00 1d        	<unknown>
    176a: 62 06        	<unknown>
    176c: 00 00        	<unknown>
    176e: 07 98 f6 0d  	<unknown>
    1772: 00 00        	<unknown>
    1774: 01 01        	<unknown>
    1776: 09 f6        	<unknown>
    1778: 0d 00        	<unknown>
    177a: 00 00        	<unknown>
    177c: 1d f1        	<unknown>
    177e: 0a 00        	<unknown>
    1780: 00 07        	<unknown>
    1782: 98 dd        	<unknown>
    1784: 16 00        	<unknown>
    1786: 00 01        	<unknown>
    1788: 01 09        	<unknown>
    178a: dd 16        	<unknown>
    178c: 00 00        	<unknown>
    178e: 00 1d        	<unknown>
    1790: 8b 06 00 00  	<unknown>
    1794: 07 c4 ee 12  	<unknown>
    1798: 00 00        	<unknown>
    179a: 01 01        	<unknown>
    179c: 09 ee        	<unknown>
    179e: 12 00        	<unknown>
    17a0: 00 09        	<unknown>
    17a2: ee 12        	<unknown>
    17a4: 00 00        	<unknown>
    17a6: 00 1d        	<unknown>
    17a8: f7 0a 00 00  	<unknown>
    17ac: 07 c4 f6 0d  	<unknown>
    17b0: 00 00        	<unknown>
    17b2: 01 01        	<unknown>
    17b4: 09 f6        	<unknown>
    17b6: 0d 00        	<unknown>
    17b8: 00 09        	<unknown>
    17ba: f6 0d        	<unknown>
    17bc: 00 00        	<unknown>
    17be: 00 1d        	<unknown>
    17c0: 01 0b        	<unknown>
    17c2: 00 00        	<unknown>
    17c4: 07 c4 dd 16  	<unknown>
    17c8: 00 00        	<unknown>
    17ca: 01 01        	<unknown>
    17cc: 09 dd        	<unknown>
    17ce: 16 00        	<unknown>
    17d0: 00 09        	<unknown>
    17d2: dd 16        	<unknown>
    17d4: 00 00        	<unknown>
    17d6: 00 1d        	<unknown>
    17d8: dc 0b        	<unknown>
    17da: 00 00        	<unknown>
    17dc: 07 e4 ee 12  	<unknown>
    17e0: 00 00        	<unknown>
    17e2: 01 01        	<unknown>
    17e4: 09 ee        	<unknown>
    17e6: 12 00        	<unknown>
    17e8: 00 00        	<unknown>
    17ea: 1d ab        	<unknown>
    17ec: 06 00        	<unknown>
    17ee: 00 07        	<unknown>
    17f0: e4 f6        	<unknown>
    17f2: 0d 00        	<unknown>
    17f4: 00 01        	<unknown>
    17f6: 01 09        	<unknown>
    17f8: f6 0d        	<unknown>
    17fa: 00 00        	<unknown>
    17fc: 00 1d        	<unknown>
    17fe: 0b 0b 00 00  	<unknown>
    1802: 07 e4 dd 16  	<unknown>
    1806: 00 00        	<unknown>
    1808: 01 01        	<unknown>
    180a: 09 dd        	<unknown>
    180c: 16 00        	<unknown>
    180e: 00 00        	<unknown>
    1810: 1d ba        	<unknown>
    1812: 06 00        	<unknown>
    1814: 00 07        	<unknown>
    1816: e5 ee        	<unknown>
    1818: 12 00        	<unknown>
    181a: 00 01        	<unknown>
    181c: 01 09        	<unknown>
    181e: ee 12        	<unknown>
    1820: 00 00        	<unknown>
    1822: 00 1d        	<unknown>
    1824: b4 06        	<unknown>
    1826: 00 00        	<unknown>
    1828: 07 e5 f6 0d  	<unknown>
    182c: 00 00        	<unknown>
    182e: 01 01        	<unknown>
    1830: 09 f6        	<unknown>
    1832: 0d 00        	<unknown>
    1834: 00 00        	<unknown>
    1836: 1d 10        	<unknown>
    1838: 0b 00 00 07  	<unknown>
    183c: e5 dd        	<unknown>
    183e: 16 00        	<unknown>
    1840: 00 01        	<unknown>
    1842: 01 09        	<unknown>
    1844: dd 16        	<unknown>
    1846: 00 00        	<unknown>
    1848: 00 1d        	<unknown>
    184a: d2 06        	<unknown>
    184c: 00 00        	<unknown>
    184e: 07 82 ee 12  	<unknown>
    1852: 00 00        	<unknown>
    1854: 01 01        	<unknown>
    1856: 09 ee        	<unknown>
    1858: 12 00        	<unknown>
    185a: 00 00        	<unknown>
    185c: 1d cc        	<unknown>
    185e: 06 00        	<unknown>
    1860: 00 07        	<unknown>
    1862: 82 f6        	<unknown>
    1864: 0d 00        	<unknown>
    1866: 00 01        	<unknown>
    1868: 01 09        	<unknown>
    186a: f6 0d        	<unknown>
    186c: 00 00        	<unknown>
    186e: 00 1d        	<unknown>
    1870: 16 0b        	<unknown>
    1872: 00 00        	<unknown>
    1874: 07 82 dd 16  	<unknown>
    1878: 00 00        	<unknown>
    187a: 01 01        	<unknown>
    187c: 09 dd        	<unknown>
    187e: 16 00        	<unknown>
    1880: 00 00        	<unknown>
    1882: 1d e2        	<unknown>
    1884: 06 00        	<unknown>
    1886: 00 07        	<unknown>
    1888: 77 ee 12 00  	<unknown>
    188c: 00 01        	<unknown>
    188e: 01 09        	<unknown>
    1890: ee 12        	<unknown>
    1892: 00 00        	<unknown>
    1894: 00 1d        	<unknown>
    1896: db 06 00 00  	<unknown>
    189a: 07 77 f6 0d  	<unknown>
    189e: 00 00        	<unknown>
    18a0: 01 01        	<unknown>
    18a2: 09 f6        	<unknown>
    18a4: 0d 00        	<unknown>
    18a6: 00 00        	<unknown>
    18a8: 1d 1c        	<unknown>
    18aa: 0b 00 00 07  	<unknown>
    18ae: 77 dd 16 00  	<unknown>
    18b2: 00 01        	<unknown>
    18b4: 01 09        	<unknown>
    18b6: dd 16        	<unknown>
    18b8: 00 00        	<unknown>
    18ba: 00 1c        	<unknown>
    18bc: 02 07        	<unknown>
    18be: 00 00        	<unknown>
    18c0: 07 46 01 ee  	<unknown>
    18c4: 12 00        	<unknown>
    18c6: 00 01        	<unknown>
    18c8: 01 09        	<unknown>
    18ca: ee 12        	<unknown>
    18cc: 00 00        	<unknown>
    18ce: 09 ee        	<unknown>
    18d0: 12 00        	<unknown>
    18d2: 00 00        	<unknown>
    18d4: 1c 23        	<unknown>
    18d6: 0b 00 00 07  	<unknown>
    18da: 46 01        	<unknown>
    18dc: f6 0d        	<unknown>
    18de: 00 00        	<unknown>
    18e0: 01 01        	<unknown>
    18e2: 09 f6        	<unknown>
    18e4: 0d 00        	<unknown>
    18e6: 00 09        	<unknown>
    18e8: f6 0d        	<unknown>
    18ea: 00 00        	<unknown>
    18ec: 00 1c        	<unknown>
    18ee: 29 0b        	<unknown>
    18f0: 00 00        	<unknown>
    18f2: 07 46 01 dd  	<unknown>
    18f6: 16 00        	<unknown>
    18f8: 00 01        	<unknown>
    18fa: 01 09        	<unknown>
    18fc: dd 16        	<unknown>
    18fe: 00 00        	<unknown>
    1900: 09 dd        	<unknown>
    1902: 16 00        	<unknown>
    1904: 00 00        	<unknown>
    1906: 1c 23        	<unknown>
    1908: 07 00 00 07  	<unknown>
    190c: 4f 01 ee 12  	fnmadd.d	ft2, ft8, fa4, ft2, rne
    1910: 00 00        	<unknown>
    1912: 01 01        	<unknown>
    1914: 09 ee        	<unknown>
    1916: 12 00        	<unknown>
    1918: 00 09        	<unknown>
    191a: ee 12        	<unknown>
    191c: 00 00        	<unknown>
    191e: 09 ee        	<unknown>
    1920: 12 00        	<unknown>
    1922: 00 00        	<unknown>
    1924: 1c 2f        	<unknown>
    1926: 0b 00 00 07  	<unknown>
    192a: 4f 01 f6 0d  	<unknown>
    192e: 00 00        	<unknown>
    1930: 01 01        	<unknown>
    1932: 09 f6        	<unknown>
    1934: 0d 00        	<unknown>
    1936: 00 09        	<unknown>
    1938: f6 0d        	<unknown>
    193a: 00 00        	<unknown>
    193c: 09 f6        	<unknown>
    193e: 0d 00        	<unknown>
    1940: 00 00        	<unknown>
    1942: 1c 34        	<unknown>
    1944: 0b 00 00 07  	<unknown>
    1948: 4f 01 dd 16  	<unknown>
    194c: 00 00        	<unknown>
    194e: 01 01        	<unknown>
    1950: 09 dd        	<unknown>
    1952: 16 00        	<unknown>
    1954: 00 09        	<unknown>
    1956: dd 16        	<unknown>
    1958: 00 00        	<unknown>
    195a: 09 dd        	<unknown>
    195c: 16 00        	<unknown>
    195e: 00 00        	<unknown>
    1960: 1c 32        	<unknown>
    1962: 07 00 00 07  	<unknown>
    1966: 49 01        	<unknown>
    1968: ee 12        	<unknown>
    196a: 00 00        	<unknown>
    196c: 01 01        	<unknown>
    196e: 09 ee        	<unknown>
    1970: 12 00        	<unknown>
    1972: 00 09        	<unknown>
    1974: ee 12        	<unknown>
    1976: 00 00        	<unknown>
    1978: 00 1c        	<unknown>
    197a: 39 0b        	<unknown>
    197c: 00 00        	<unknown>
    197e: 07 49 01 f6  	<unknown>
    1982: 0d 00        	<unknown>
    1984: 00 01        	<unknown>
    1986: 01 09        	<unknown>
    1988: f6 0d        	<unknown>
    198a: 00 00        	<unknown>
    198c: 09 f6        	<unknown>
    198e: 0d 00        	<unknown>
    1990: 00 00        	<unknown>
    1992: 1c 3f        	<unknown>
    1994: 0b 00 00 07  	<unknown>
    1998: 49 01        	<unknown>
    199a: dd 16        	<unknown>
    199c: 00 00        	<unknown>
    199e: 01 01        	<unknown>
    19a0: 09 dd        	<unknown>
    19a2: 16 00        	<unknown>
    19a4: 00 09        	<unknown>
    19a6: dd 16        	<unknown>
    19a8: 00 00        	<unknown>
    19aa: 00 1c        	<unknown>
    19ac: 42 07        	<unknown>
    19ae: 00 00        	<unknown>
    19b0: 07 4c 01 ee  	<unknown>
    19b4: 12 00        	<unknown>
    19b6: 00 01        	<unknown>
    19b8: 01 09        	<unknown>
    19ba: ee 12        	<unknown>
    19bc: 00 00        	<unknown>
    19be: 09 ee        	<unknown>
    19c0: 12 00        	<unknown>
    19c2: 00 00        	<unknown>
    19c4: 1c 45        	<unknown>
    19c6: 0b 00 00 07  	<unknown>
    19ca: 4c 01        	<unknown>
    19cc: f6 0d        	<unknown>
    19ce: 00 00        	<unknown>
    19d0: 01 01        	<unknown>
    19d2: 09 f6        	<unknown>
    19d4: 0d 00        	<unknown>
    19d6: 00 09        	<unknown>
    19d8: f6 0d        	<unknown>
    19da: 00 00        	<unknown>
    19dc: 00 1c        	<unknown>
    19de: 4b 0b 00 00  	fnmsub.s	fs6, ft0, ft0, ft0, rne
    19e2: 07 4c 01 dd  	<unknown>
    19e6: 16 00        	<unknown>
    19e8: 00 01        	<unknown>
    19ea: 01 09        	<unknown>
    19ec: dd 16        	<unknown>
    19ee: 00 00        	<unknown>
    19f0: 09 dd        	<unknown>
    19f2: 16 00        	<unknown>
    19f4: 00 00        	<unknown>
    19f6: 1d 92        	<unknown>
    19f8: 07 00 00 07  	<unknown>
    19fc: 93 ee 12 00  	ori	t4, t0, 0x1
    1a00: 00 01        	<unknown>
    1a02: 01 09        	<unknown>
    1a04: ee 12        	<unknown>
    1a06: 00 00        	<unknown>
    1a08: 09 ee        	<unknown>
    1a0a: 12 00        	<unknown>
    1a0c: 00 00        	<unknown>
    1a0e: 1d 51        	<unknown>
    1a10: 0b 00 00 07  	<unknown>
    1a14: 93 f6 0d 00  	andi	a3, s11, 0x0
    1a18: 00 01        	<unknown>
    1a1a: 01 09        	<unknown>
    1a1c: f6 0d        	<unknown>
    1a1e: 00 00        	<unknown>
    1a20: 09 f6        	<unknown>
    1a22: 0d 00        	<unknown>
    1a24: 00 00        	<unknown>
    1a26: 1d 58        	<unknown>
    1a28: 0b 00 00 07  	<unknown>
    1a2c: 93 dd 16 00  	srli	s11, a3, 0x1
    1a30: 00 01        	<unknown>
    1a32: 01 09        	<unknown>
    1a34: dd 16        	<unknown>
    1a36: 00 00        	<unknown>
    1a38: 09 dd        	<unknown>
    1a3a: 16 00        	<unknown>
    1a3c: 00 00        	<unknown>
    1a3e: 1c a3        	<unknown>
    1a40: 07 00 00 07  	<unknown>
    1a44: 18 01        	<unknown>
    1a46: d9 0d        	<unknown>
    1a48: 00 00        	<unknown>
    1a4a: 01 01        	<unknown>
    1a4c: 09 ee        	<unknown>
    1a4e: 12 00        	<unknown>
    1a50: 00 00        	<unknown>
    1a52: 1c 9c        	<unknown>
    1a54: 07 00 00 07  	<unknown>
    1a58: 18 01        	<unknown>
    1a5a: d9 0d        	<unknown>
    1a5c: 00 00        	<unknown>
    1a5e: 01 01        	<unknown>
    1a60: 09 f6        	<unknown>
    1a62: 0d 00        	<unknown>
    1a64: 00 00        	<unknown>
    1a66: 1c 5f        	<unknown>
    1a68: 0b 00 00 07  	<unknown>
    1a6c: 18 01        	<unknown>
    1a6e: d9 0d        	<unknown>
    1a70: 00 00        	<unknown>
    1a72: 01 01        	<unknown>
    1a74: 09 dd        	<unknown>
    1a76: 16 00        	<unknown>
    1a78: 00 00        	<unknown>
    1a7a: 1d da        	<unknown>
    1a7c: 08 00        	<unknown>
    1a7e: 00 07        	<unknown>
    1a80: e6 ee        	<unknown>
    1a82: 12 00        	<unknown>
    1a84: 00 01        	<unknown>
    1a86: 01 09        	<unknown>
    1a88: ee 12        	<unknown>
    1a8a: 00 00        	<unknown>
    1a8c: 00 1d        	<unknown>
    1a8e: d2 08        	<unknown>
    1a90: 00 00        	<unknown>
    1a92: 07 e6 f6 0d  	<unknown>
    1a96: 00 00        	<unknown>
    1a98: 01 01        	<unknown>
    1a9a: 09 f6        	<unknown>
    1a9c: 0d 00        	<unknown>
    1a9e: 00 00        	<unknown>
    1aa0: 1d 66        	<unknown>
    1aa2: 0b 00 00 07  	<unknown>
    1aa6: e6 dd        	<unknown>
    1aa8: 16 00        	<unknown>
    1aaa: 00 01        	<unknown>
    1aac: 01 09        	<unknown>
    1aae: dd 16        	<unknown>
    1ab0: 00 00        	<unknown>
    1ab2: 00 1c        	<unknown>
    1ab4: fe 08        	<unknown>
    1ab6: 00 00        	<unknown>
    1ab8: 07 3c 01 eb  	fld	fs8, -0x150(sp)
    1abc: 11 00        	<unknown>
    1abe: 00 01        	<unknown>
    1ac0: 01 09        	<unknown>
    1ac2: ee 12        	<unknown>
    1ac4: 00 00        	<unknown>
    1ac6: 00 1c        	<unknown>
    1ac8: f6 08        	<unknown>
    1aca: 00 00        	<unknown>
    1acc: 07 3c 01 eb  	fld	fs8, -0x150(sp)
    1ad0: 11 00        	<unknown>
    1ad2: 00 01        	<unknown>
    1ad4: 01 09        	<unknown>
    1ad6: f6 0d        	<unknown>
    1ad8: 00 00        	<unknown>
    1ada: 00 1c        	<unknown>
    1adc: 6e 0b        	<unknown>
    1ade: 00 00        	<unknown>
    1ae0: 07 3c 01 eb  	fld	fs8, -0x150(sp)
    1ae4: 11 00        	<unknown>
    1ae6: 00 01        	<unknown>
    1ae8: 01 09        	<unknown>
    1aea: dd 16        	<unknown>
    1aec: 00 00        	<unknown>
    1aee: 00 1c        	<unknown>
    1af0: 71 09        	<unknown>
    1af2: 00 00        	<unknown>
    1af4: 07 42 01 eb  	<unknown>
    1af8: 11 00        	<unknown>
    1afa: 00 01        	<unknown>
    1afc: 01 09        	<unknown>
    1afe: ee 12        	<unknown>
    1b00: 00 00        	<unknown>
    1b02: 00 1c        	<unknown>
    1b04: 68 09        	<unknown>
    1b06: 00 00        	<unknown>
    1b08: 07 42 01 eb  	<unknown>
    1b0c: 11 00        	<unknown>
    1b0e: 00 01        	<unknown>
    1b10: 01 09        	<unknown>
    1b12: f6 0d        	<unknown>
    1b14: 00 00        	<unknown>
    1b16: 00 1c        	<unknown>
    1b18: 76 0b        	<unknown>
    1b1a: 00 00        	<unknown>
    1b1c: 07 42 01 eb  	<unknown>
    1b20: 11 00        	<unknown>
    1b22: 00 01        	<unknown>
    1b24: 01 09        	<unknown>
    1b26: dd 16        	<unknown>
    1b28: 00 00        	<unknown>
    1b2a: 00 1d        	<unknown>
    1b2c: 2e 09        	<unknown>
    1b2e: 00 00        	<unknown>
    1b30: 07 7a ee 12  	<unknown>
    1b34: 00 00        	<unknown>
    1b36: 01 01        	<unknown>
    1b38: 09 ee        	<unknown>
    1b3a: 12 00        	<unknown>
    1b3c: 00 00        	<unknown>
    1b3e: 1d 27        	<unknown>
    1b40: 09 00        	<unknown>
    1b42: 00 07        	<unknown>
    1b44: 7a f6        	<unknown>
    1b46: 0d 00        	<unknown>
    1b48: 00 01        	<unknown>
    1b4a: 01 09        	<unknown>
    1b4c: f6 0d        	<unknown>
    1b4e: 00 00        	<unknown>
    1b50: 00 1d        	<unknown>
    1b52: 7f 0b 00 00  	<unknown>
    1b56: 07 7a dd 16  	<unknown>
    1b5a: 00 00        	<unknown>
    1b5c: 01 01        	<unknown>
    1b5e: 09 dd        	<unknown>
    1b60: 16 00        	<unknown>
    1b62: 00 00        	<unknown>
    1b64: 1d 3e        	<unknown>
    1b66: 09 00        	<unknown>
    1b68: 00 07        	<unknown>
    1b6a: 85 ee        	<unknown>
    1b6c: 12 00        	<unknown>
    1b6e: 00 01        	<unknown>
    1b70: 01 09        	<unknown>
    1b72: ee 12        	<unknown>
    1b74: 00 00        	<unknown>
    1b76: 00 1d        	<unknown>
    1b78: 38 09        	<unknown>
    1b7a: 00 00        	<unknown>
    1b7c: 07 85 f6 0d  	<unknown>
    1b80: 00 00        	<unknown>
    1b82: 01 01        	<unknown>
    1b84: 09 f6        	<unknown>
    1b86: 0d 00        	<unknown>
    1b88: 00 00        	<unknown>
    1b8a: 1d 86        	<unknown>
    1b8c: 0b 00 00 07  	<unknown>
    1b90: 85 dd        	<unknown>
    1b92: 16 00        	<unknown>
    1b94: 00 01        	<unknown>
    1b96: 01 09        	<unknown>
    1b98: dd 16        	<unknown>
    1b9a: 00 00        	<unknown>
    1b9c: 00 1d        	<unknown>
    1b9e: a4 07        	<unknown>
    1ba0: 00 00        	<unknown>
    1ba2: 07 7d ee 12  	<unknown>
    1ba6: 00 00        	<unknown>
    1ba8: 01 01        	<unknown>
    1baa: 09 ee        	<unknown>
    1bac: 12 00        	<unknown>
    1bae: 00 00        	<unknown>
    1bb0: 1d 47        	<unknown>
    1bb2: 09 00        	<unknown>
    1bb4: 00 07        	<unknown>
    1bb6: 7d f6        	<unknown>
    1bb8: 0d 00        	<unknown>
    1bba: 00 01        	<unknown>
    1bbc: 01 09        	<unknown>
    1bbe: f6 0d        	<unknown>
    1bc0: 00 00        	<unknown>
    1bc2: 00 1d        	<unknown>
    1bc4: 60 0b        	<unknown>
    1bc6: 00 00        	<unknown>
    1bc8: 07 7d dd 16  	<unknown>
    1bcc: 00 00        	<unknown>
    1bce: 01 01        	<unknown>
    1bd0: 09 dd        	<unknown>
    1bd2: 16 00        	<unknown>
    1bd4: 00 00        	<unknown>
    1bd6: 1c ff        	<unknown>
    1bd8: 08 00        	<unknown>
    1bda: 00 07        	<unknown>
    1bdc: 3a 01        	<unknown>
    1bde: 9d 11        	<unknown>
    1be0: 00 00        	<unknown>
    1be2: 01 01        	<unknown>
    1be4: 09 ee        	<unknown>
    1be6: 12 00        	<unknown>
    1be8: 00 00        	<unknown>
    1bea: 1c 51        	<unknown>
    1bec: 09 00        	<unknown>
    1bee: 00 07        	<unknown>
    1bf0: 3a 01        	<unknown>
    1bf2: 9d 11        	<unknown>
    1bf4: 00 00        	<unknown>
    1bf6: 01 01        	<unknown>
    1bf8: 09 f6        	<unknown>
    1bfa: 0d 00        	<unknown>
    1bfc: 00 00        	<unknown>
    1bfe: 1c 6f        	<unknown>
    1c00: 0b 00 00 07  	<unknown>
    1c04: 3a 01        	<unknown>
    1c06: 9d 11        	<unknown>
    1c08: 00 00        	<unknown>
    1c0a: 01 01        	<unknown>
    1c0c: 09 dd        	<unknown>
    1c0e: 16 00        	<unknown>
    1c10: 00 00        	<unknown>
    1c12: 1c 72        	<unknown>
    1c14: 09 00        	<unknown>
    1c16: 00 07        	<unknown>
    1c18: 40 01        	<unknown>
    1c1a: 9d 11        	<unknown>
    1c1c: 00 00        	<unknown>
    1c1e: 01 01        	<unknown>
    1c20: 09 ee        	<unknown>
    1c22: 12 00        	<unknown>
    1c24: 00 00        	<unknown>
    1c26: 1c 5c        	<unknown>
    1c28: 09 00        	<unknown>
    1c2a: 00 07        	<unknown>
    1c2c: 40 01        	<unknown>
    1c2e: 9d 11        	<unknown>
    1c30: 00 00        	<unknown>
    1c32: 01 01        	<unknown>
    1c34: 09 f6        	<unknown>
    1c36: 0d 00        	<unknown>
    1c38: 00 00        	<unknown>
    1c3a: 1c 77        	<unknown>
    1c3c: 0b 00 00 07  	<unknown>
    1c40: 40 01        	<unknown>
    1c42: 9d 11        	<unknown>
    1c44: 00 00        	<unknown>
    1c46: 01 01        	<unknown>
    1c48: 09 dd        	<unknown>
    1c4a: 16 00        	<unknown>
    1c4c: 00 00        	<unknown>
    1c4e: 1d 78        	<unknown>
    1c50: 08 00        	<unknown>
    1c52: 00 07        	<unknown>
    1c54: c9 ee        	<unknown>
    1c56: 12 00        	<unknown>
    1c58: 00 01        	<unknown>
    1c5a: 01 09        	<unknown>
    1c5c: f5 12        	<unknown>
    1c5e: 00 00        	<unknown>
    1c60: 00 1d        	<unknown>
    1c62: 71 08        	<unknown>
    1c64: 00 00        	<unknown>
    1c66: 07 c9 f6 0d  	<unknown>
    1c6a: 00 00        	<unknown>
    1c6c: 01 01        	<unknown>
    1c6e: 09 f5        	<unknown>
    1c70: 12 00        	<unknown>
    1c72: 00 00        	<unknown>
    1c74: 1d 8c        	<unknown>
    1c76: 0b 00 00 07  	<unknown>
    1c7a: c9 dd        	<unknown>
    1c7c: 16 00        	<unknown>
    1c7e: 00 01        	<unknown>
    1c80: 01 09        	<unknown>
    1c82: f5 12        	<unknown>
    1c84: 00 00        	<unknown>
    1c86: 00 1c        	<unknown>
    1c88: b0 09        	<unknown>
    1c8a: 00 00        	<unknown>
    1c8c: 07 26 01 ee  	flw	fa2, -0x120(sp)
    1c90: 12 00        	<unknown>
    1c92: 00 01        	<unknown>
    1c94: 01 09        	<unknown>
    1c96: ee 12        	<unknown>
    1c98: 00 00        	<unknown>
    1c9a: 00 1c        	<unknown>
    1c9c: a5 09        	<unknown>
    1c9e: 00 00        	<unknown>
    1ca0: 07 26 01 f6  	flw	fa2, -0xa0(sp)
    1ca4: 0d 00        	<unknown>
    1ca6: 00 01        	<unknown>
    1ca8: 01 09        	<unknown>
    1caa: f6 0d        	<unknown>
    1cac: 00 00        	<unknown>
    1cae: 00 1c        	<unknown>
    1cb0: 91 0b        	<unknown>
    1cb2: 00 00        	<unknown>
    1cb4: 07 26 01 dd  	flw	fa2, -0x230(sp)
    1cb8: 16 00        	<unknown>
    1cba: 00 01        	<unknown>
    1cbc: 01 09        	<unknown>
    1cbe: dd 16        	<unknown>
    1cc0: 00 00        	<unknown>
    1cc2: 00 1c        	<unknown>
    1cc4: ca 09        	<unknown>
    1cc6: 00 00        	<unknown>
    1cc8: 07 03 01 ee  	<unknown>
    1ccc: 12 00        	<unknown>
    1cce: 00 01        	<unknown>
    1cd0: 01 09        	<unknown>
    1cd2: ee 12        	<unknown>
    1cd4: 00 00        	<unknown>
    1cd6: 09 ee        	<unknown>
    1cd8: 12 00        	<unknown>
    1cda: 00 00        	<unknown>
    1cdc: 1c 9c        	<unknown>
    1cde: 0b 00 00 07  	<unknown>
    1ce2: 03 01 f6 0d  	lb	sp, 0xdf(a2)
    1ce6: 00 00        	<unknown>
    1ce8: 01 01        	<unknown>
    1cea: 09 f6        	<unknown>
    1cec: 0d 00        	<unknown>
    1cee: 00 09        	<unknown>
    1cf0: f6 0d        	<unknown>
    1cf2: 00 00        	<unknown>
    1cf4: 00 1c        	<unknown>
    1cf6: a7 0b 00 00  	<unknown>
    1cfa: 07 03 01 dd  	<unknown>
    1cfe: 16 00        	<unknown>
    1d00: 00 01        	<unknown>
    1d02: 01 09        	<unknown>
    1d04: dd 16        	<unknown>
    1d06: 00 00        	<unknown>
    1d08: 09 dd        	<unknown>
    1d0a: 16 00        	<unknown>
    1d0c: 00 00        	<unknown>
    1d0e: 1c b2        	<unknown>
    1d10: 0b 00 00 07  	<unknown>
    1d14: 05 01        	<unknown>
    1d16: ee 12        	<unknown>
    1d18: 00 00        	<unknown>
    1d1a: 01 01        	<unknown>
    1d1c: 09 ee        	<unknown>
    1d1e: 12 00        	<unknown>
    1d20: 00 09        	<unknown>
    1d22: dd 16        	<unknown>
    1d24: 00 00        	<unknown>
    1d26: 00 1c        	<unknown>
    1d28: bd 0b        	<unknown>
    1d2a: 00 00        	<unknown>
    1d2c: 07 05 01 f6  	<unknown>
    1d30: 0d 00        	<unknown>
    1d32: 00 01        	<unknown>
    1d34: 01 09        	<unknown>
    1d36: f6 0d        	<unknown>
    1d38: 00 00        	<unknown>
    1d3a: 09 dd        	<unknown>
    1d3c: 16 00        	<unknown>
    1d3e: 00 00        	<unknown>
    1d40: 1c c9        	<unknown>
    1d42: 0b 00 00 07  	<unknown>
    1d46: 05 01        	<unknown>
    1d48: dd 16        	<unknown>
    1d4a: 00 00        	<unknown>
    1d4c: 01 01        	<unknown>
    1d4e: 09 dd        	<unknown>
    1d50: 16 00        	<unknown>
    1d52: 00 09        	<unknown>
    1d54: dd 16        	<unknown>
    1d56: 00 00        	<unknown>
    1d58: 00 1c        	<unknown>
    1d5a: f2 09        	<unknown>
    1d5c: 00 00        	<unknown>
    1d5e: 07 10 01 ee  	<unknown>
    1d62: 12 00        	<unknown>
    1d64: 00 01        	<unknown>
    1d66: 01 09        	<unknown>
    1d68: ee 12        	<unknown>
    1d6a: 00 00        	<unknown>
    1d6c: 09 ee        	<unknown>
    1d6e: 12 00        	<unknown>
    1d70: 00 00        	<unknown>
    1d72: 1c d5        	<unknown>
    1d74: 0b 00 00 07  	<unknown>
    1d78: 10 01        	<unknown>
    1d7a: f6 0d        	<unknown>
    1d7c: 00 00        	<unknown>
    1d7e: 01 01        	<unknown>
    1d80: 09 f6        	<unknown>
    1d82: 0d 00        	<unknown>
    1d84: 00 09        	<unknown>
    1d86: f6 0d        	<unknown>
    1d88: 00 00        	<unknown>
    1d8a: 00 1c        	<unknown>
    1d8c: e0 0b        	<unknown>
    1d8e: 00 00        	<unknown>
    1d90: 07 10 01 dd  	<unknown>
    1d94: 16 00        	<unknown>
    1d96: 00 01        	<unknown>
    1d98: 01 09        	<unknown>
    1d9a: dd 16        	<unknown>
    1d9c: 00 00        	<unknown>
    1d9e: 09 dd        	<unknown>
    1da0: 16 00        	<unknown>
    1da2: 00 00        	<unknown>
    1da4: 1c 0b        	<unknown>
    1da6: 0a 00        	<unknown>
    1da8: 00 07        	<unknown>
    1daa: 33 01 ee 12  	<unknown>
    1dae: 00 00        	<unknown>
    1db0: 01 01        	<unknown>
    1db2: 09 ee        	<unknown>
    1db4: 12 00        	<unknown>
    1db6: 00 09        	<unknown>
    1db8: ee 12        	<unknown>
    1dba: 00 00        	<unknown>
    1dbc: 09 50        	<unknown>
    1dbe: 10 00        	<unknown>
    1dc0: 00 00        	<unknown>
    1dc2: 1c eb        	<unknown>
    1dc4: 0b 00 00 07  	<unknown>
    1dc8: 33 01 f6 0d  	<unknown>
    1dcc: 00 00        	<unknown>
    1dce: 01 01        	<unknown>
    1dd0: 09 f6        	<unknown>
    1dd2: 0d 00        	<unknown>
    1dd4: 00 09        	<unknown>
    1dd6: f6 0d        	<unknown>
    1dd8: 00 00        	<unknown>
    1dda: 09 50        	<unknown>
    1ddc: 10 00        	<unknown>
    1dde: 00 00        	<unknown>
    1de0: 1c f3        	<unknown>
    1de2: 0b 00 00 07  	<unknown>
    1de6: 33 01 dd 16  	<unknown>
    1dea: 00 00        	<unknown>
    1dec: 01 01        	<unknown>
    1dee: 09 dd        	<unknown>
    1df0: 16 00        	<unknown>
    1df2: 00 09        	<unknown>
    1df4: dd 16        	<unknown>
    1df6: 00 00        	<unknown>
    1df8: 09 50        	<unknown>
    1dfa: 10 00        	<unknown>
    1dfc: 00 00        	<unknown>
    1dfe: 1c 00        	<unknown>
    1e00: 09 00        	<unknown>
    1e02: 00 07        	<unknown>
    1e04: 00 01        	<unknown>
    1e06: ee 12        	<unknown>
    1e08: 00 00        	<unknown>
    1e0a: 01 01        	<unknown>
    1e0c: 09 ee        	<unknown>
    1e0e: 12 00        	<unknown>
    1e10: 00 00        	<unknown>
    1e12: 1c 16        	<unknown>
    1e14: 0a 00        	<unknown>
    1e16: 00 07        	<unknown>
    1e18: 00 01        	<unknown>
    1e1a: f6 0d        	<unknown>
    1e1c: 00 00        	<unknown>
    1e1e: 01 01        	<unknown>
    1e20: 09 f6        	<unknown>
    1e22: 0d 00        	<unknown>
    1e24: 00 00        	<unknown>
    1e26: 1c 70        	<unknown>
    1e28: 0b 00 00 07  	<unknown>
    1e2c: 00 01        	<unknown>
    1e2e: dd 16        	<unknown>
    1e30: 00 00        	<unknown>
    1e32: 01 01        	<unknown>
    1e34: 09 dd        	<unknown>
    1e36: 16 00        	<unknown>
    1e38: 00 00        	<unknown>
    1e3a: 1c 73        	<unknown>
    1e3c: 09 00        	<unknown>
    1e3e: 00 07        	<unknown>
    1e40: 2a 01        	<unknown>
    1e42: ee 12        	<unknown>
    1e44: 00 00        	<unknown>
    1e46: 01 01        	<unknown>
    1e48: 09 ee        	<unknown>
    1e4a: 12 00        	<unknown>
    1e4c: 00 00        	<unknown>
    1e4e: 1c 20        	<unknown>
    1e50: 0a 00        	<unknown>
    1e52: 00 07        	<unknown>
    1e54: 2a 01        	<unknown>
    1e56: f6 0d        	<unknown>
    1e58: 00 00        	<unknown>
    1e5a: 01 01        	<unknown>
    1e5c: 09 f6        	<unknown>
    1e5e: 0d 00        	<unknown>
    1e60: 00 00        	<unknown>
    1e62: 1c 78        	<unknown>
    1e64: 0b 00 00 07  	<unknown>
    1e68: 2a 01        	<unknown>
    1e6a: dd 16        	<unknown>
    1e6c: 00 00        	<unknown>
    1e6e: 01 01        	<unknown>
    1e70: 09 dd        	<unknown>
    1e72: 16 00        	<unknown>
    1e74: 00 00        	<unknown>
    1e76: 1c 35        	<unknown>
    1e78: 0a 00        	<unknown>
    1e7a: 00 07        	<unknown>
    1e7c: 22 01        	<unknown>
    1e7e: ee 12        	<unknown>
    1e80: 00 00        	<unknown>
    1e82: 01 01        	<unknown>
    1e84: 09 ee        	<unknown>
    1e86: 12 00        	<unknown>
    1e88: 00 09        	<unknown>
    1e8a: 9d 11        	<unknown>
    1e8c: 00 00        	<unknown>
    1e8e: 00 1c        	<unknown>
    1e90: fb 0b 00 00  	<unknown>
    1e94: 07 22 01 f6  	flw	ft4, -0xa0(sp)
    1e98: 0d 00        	<unknown>
    1e9a: 00 01        	<unknown>
    1e9c: 01 09        	<unknown>
    1e9e: f6 0d        	<unknown>
    1ea0: 00 00        	<unknown>
    1ea2: 09 9d        	<unknown>
    1ea4: 11 00        	<unknown>
    1ea6: 00 00        	<unknown>
    1ea8: 1c 04        	<unknown>
    1eaa: 0c 00        	<unknown>
    1eac: 00 07        	<unknown>
    1eae: 22 01        	<unknown>
    1eb0: dd 16        	<unknown>
    1eb2: 00 00        	<unknown>
    1eb4: 01 01        	<unknown>
    1eb6: 09 dd        	<unknown>
    1eb8: 16 00        	<unknown>
    1eba: 00 09        	<unknown>
    1ebc: 9d 11        	<unknown>
    1ebe: 00 00        	<unknown>
    1ec0: 00 1c        	<unknown>
    1ec2: 4a 0a        	<unknown>
    1ec4: 00 00        	<unknown>
    1ec6: 07 14 01 ee  	<unknown>
    1eca: 12 00        	<unknown>
    1ecc: 00 01        	<unknown>
    1ece: 01 09        	<unknown>
    1ed0: ee 12        	<unknown>
    1ed2: 00 00        	<unknown>
    1ed4: 09 d9        	<unknown>
    1ed6: 0d 00        	<unknown>
    1ed8: 00 00        	<unknown>
    1eda: 1c 0d        	<unknown>
    1edc: 0c 00        	<unknown>
    1ede: 00 07        	<unknown>
    1ee0: 14 01        	<unknown>
    1ee2: f6 0d        	<unknown>
    1ee4: 00 00        	<unknown>
    1ee6: 01 01        	<unknown>
    1ee8: 09 f6        	<unknown>
    1eea: 0d 00        	<unknown>
    1eec: 00 09        	<unknown>
    1eee: d9 0d        	<unknown>
    1ef0: 00 00        	<unknown>
    1ef2: 00 1c        	<unknown>
    1ef4: 15 0c        	<unknown>
    1ef6: 00 00        	<unknown>
    1ef8: 07 14 01 dd  	<unknown>
    1efc: 16 00        	<unknown>
    1efe: 00 01        	<unknown>
    1f00: 01 09        	<unknown>
    1f02: dd 16        	<unknown>
    1f04: 00 00        	<unknown>
    1f06: 09 d9        	<unknown>
    1f08: 0d 00        	<unknown>
    1f0a: 00 00        	<unknown>
    1f0c: 1d a7        	<unknown>
    1f0e: 0a 00        	<unknown>
    1f10: 00 07        	<unknown>
    1f12: eb ee 12 00  	<unknown>
    1f16: 00 01        	<unknown>
    1f18: 01 09        	<unknown>
    1f1a: ee 12        	<unknown>
    1f1c: 00 00        	<unknown>
    1f1e: 00 1d        	<unknown>
    1f20: 9f 0a 00 00  	<unknown>
    1f24: 07 eb f6 0d  	<unknown>
    1f28: 00 00        	<unknown>
    1f2a: 01 01        	<unknown>
    1f2c: 09 f6        	<unknown>
    1f2e: 0d 00        	<unknown>
    1f30: 00 00        	<unknown>
    1f32: 1d 1d        	<unknown>
    1f34: 0c 00        	<unknown>
    1f36: 00 07        	<unknown>
    1f38: eb dd 16 00  	<unknown>
    1f3c: 00 01        	<unknown>
    1f3e: 01 09        	<unknown>
    1f40: dd 16        	<unknown>
    1f42: 00 00        	<unknown>
    1f44: 00 1c        	<unknown>
    1f46: b9 0a        	<unknown>
    1f48: 00 00        	<unknown>
    1f4a: 07 2e 01 ee  	flw	ft8, -0x120(sp)
    1f4e: 12 00        	<unknown>
    1f50: 00 01        	<unknown>
    1f52: 01 09        	<unknown>
    1f54: ee 12        	<unknown>
    1f56: 00 00        	<unknown>
    1f58: 00 1c        	<unknown>
    1f5a: b2 0a        	<unknown>
    1f5c: 00 00        	<unknown>
    1f5e: 07 2e 01 f6  	flw	ft8, -0xa0(sp)
    1f62: 0d 00        	<unknown>
    1f64: 00 01        	<unknown>
    1f66: 01 09        	<unknown>
    1f68: f6 0d        	<unknown>
    1f6a: 00 00        	<unknown>
    1f6c: 00 1c        	<unknown>
    1f6e: 25 0c        	<unknown>
    1f70: 00 00        	<unknown>
    1f72: 07 2e 01 dd  	flw	ft8, -0x230(sp)
    1f76: 16 00        	<unknown>
    1f78: 00 01        	<unknown>
    1f7a: 01 09        	<unknown>
    1f7c: dd 16        	<unknown>
    1f7e: 00 00        	<unknown>
    1f80: 00 0a        	<unknown>
    1f82: 8c 1f        	<unknown>
    1f84: 00 00        	<unknown>
    1f86: 0f 0d 00 00  	<unknown>
    1f8a: 05 3e        	<unknown>
    1f8c: 1e 01        	<unknown>
    1f8e: 0a 99        	<unknown>
    1f90: 1f 00 00 0e  	<unknown>
    1f94: 0d 00        	<unknown>
    1f96: 00 05        	<unknown>
    1f98: 46 1f        	<unknown>
    1f9a: 05 10        	<unknown>
    1f9c: 05 42        	<unknown>
    1f9e: 06 2c        	<unknown>
    1fa0: 0c 00        	<unknown>
    1fa2: 00 9d        	<unknown>
    1fa4: 11 00        	<unknown>
    1fa6: 00 05        	<unknown>
    1fa8: 44 02        	<unknown>
    1faa: 23 00 06 31  	sb	a6, 0x300(a2)
    1fae: 0c 00        	<unknown>
    1fb0: 00 9d        	<unknown>
    1fb2: 11 00        	<unknown>
    1fb4: 00 05        	<unknown>
    1fb6: 45 02        	<unknown>
    1fb8: 23 08 00 20  	sb	zero, 0x210(zero)
    1fbc: 35 0c        	<unknown>
    1fbe: 00 00        	<unknown>
    1fc0: 05 4f        	<unknown>
    1fc2: 02 01        	<unknown>
    1fc4: 01 01        	<unknown>
    1fc6: 1c 3b        	<unknown>
    1fc8: 0c 00        	<unknown>
    1fca: 00 05        	<unknown>
    1fcc: 53 02 d9 0d  	<unknown>
    1fd0: 00 00        	<unknown>
    1fd2: 01 01        	<unknown>
    1fd4: 09 da        	<unknown>
    1fd6: 1f 00 00 00  	<unknown>
    1fda: 0e df        	<unknown>
    1fdc: 1f 00 00 21  	<unknown>
    1fe0: 1c 42        	<unknown>
    1fe2: 0c 00        	<unknown>
    1fe4: 00 05        	<unknown>
    1fe6: 58 02        	<unknown>
    1fe8: d9 0d        	<unknown>
    1fea: 00 00        	<unknown>
    1fec: 01 01        	<unknown>
    1fee: 09 da        	<unknown>
    1ff0: 1f 00 00 00  	<unknown>
    1ff4: 1d 50        	<unknown>
    1ff6: 0c 00        	<unknown>
    1ff8: 00 05        	<unknown>
    1ffa: 65 ee        	<unknown>
    1ffc: 12 00        	<unknown>
    1ffe: 00 01        	<unknown>
    2000: 01 09        	<unknown>
    2002: f5 12        	<unknown>
    2004: 00 00        	<unknown>
    2006: 00 1d        	<unknown>
    2008: 55 0c        	<unknown>
    200a: 00 00        	<unknown>
    200c: 05 68        	<unknown>
    200e: d9 0d        	<unknown>
    2010: 00 00        	<unknown>
    2012: 01 01        	<unknown>
    2014: 09 f5        	<unknown>
    2016: 12 00        	<unknown>
    2018: 00 00        	<unknown>
    201a: 1d 5a        	<unknown>
    201c: 0c 00        	<unknown>
    201e: 00 05        	<unknown>
    2020: 6b 9d 11 00  	<unknown>
    2024: 00 01        	<unknown>
    2026: 01 09        	<unknown>
    2028: f5 12        	<unknown>
    202a: 00 00        	<unknown>
    202c: 00 1c        	<unknown>
    202e: 5f 0c 00 00  	<unknown>
    2032: 05 34        	<unknown>
    2034: 03 55 20 00  	lhu	a0, 0x2(zero)
    2038: 00 01        	<unknown>
    203a: 01 09        	<unknown>
    203c: 56 20        	<unknown>
    203e: 00 00        	<unknown>
    2040: 09 56        	<unknown>
    2042: 20 00        	<unknown>
    2044: 00 09        	<unknown>
    2046: 5c 20        	<unknown>
    2048: 00 00        	<unknown>
    204a: 09 5c        	<unknown>
    204c: 20 00        	<unknown>
    204e: 00 09        	<unknown>
    2050: 6e 20        	<unknown>
    2052: 00 00        	<unknown>
    2054: 00 22        	<unknown>
    2056: 0e 5b        	<unknown>
    2058: 20 00        	<unknown>
    205a: 00 23        	<unknown>
    205c: 0a 67        	<unknown>
    205e: 20 00        	<unknown>
    2060: 00 75        	<unknown>
    2062: 0c 00        	<unknown>
    2064: 00 0b        	<unknown>
    2066: 12 0d        	<unknown>
    2068: 67 0c 00 00  	jalr	s8, zero <.debug_info>
    206c: 07 08 13 7a  	<unknown>
    2070: 20 00        	<unknown>
    2072: 00 7c        	<unknown>
    2074: 0c 00        	<unknown>
    2076: 00 05        	<unknown>
    2078: 28 03        	<unknown>
    207a: 0e 7f        	<unknown>
    207c: 20 00        	<unknown>
    207e: 00 24        	<unknown>
    2080: d9 0d        	<unknown>
    2082: 00 00        	<unknown>
    2084: 09 56        	<unknown>
    2086: 20 00        	<unknown>
    2088: 00 09        	<unknown>
    208a: 56 20        	<unknown>
    208c: 00 00        	<unknown>
    208e: 00 1c        	<unknown>
    2090: 8a 0c        	<unknown>
    2092: 00 00        	<unknown>
    2094: 05 1e        	<unknown>
    2096: 02 55        	<unknown>
    2098: 20 00        	<unknown>
    209a: 00 01        	<unknown>
    209c: 01 09        	<unknown>
    209e: 5c 20        	<unknown>
    20a0: 00 00        	<unknown>
    20a2: 09 5c        	<unknown>
    20a4: 20 00        	<unknown>
    20a6: 00 00        	<unknown>
    20a8: 1c 1d        	<unknown>
    20aa: 0d 00        	<unknown>
    20ac: 00 05        	<unknown>
    20ae: 54 03        	<unknown>
    20b0: 81 1f        	<unknown>
    20b2: 00 00        	<unknown>
    20b4: 01 01        	<unknown>
    20b6: 09 d9        	<unknown>
    20b8: 0d 00        	<unknown>
    20ba: 00 09        	<unknown>
    20bc: d9 0d        	<unknown>
    20be: 00 00        	<unknown>
    20c0: 00 25        	<unknown>
    20c2: 4b 0c 00 00  	fnmsub.s	fs8, ft0, ft0, ft0, rne
    20c6: 05 69        	<unknown>
    20c8: 02 01        	<unknown>
    20ca: 01 01        	<unknown>
    20cc: 09 d9        	<unknown>
    20ce: 0d 00        	<unknown>
    20d0: 00 00        	<unknown>
    20d2: 11 91        	<unknown>
    20d4: 0c 00        	<unknown>
    20d6: 00 05        	<unknown>
    20d8: 35 02        	<unknown>
    20da: 01 01        	<unknown>
    20dc: 09 55        	<unknown>
    20de: 20 00        	<unknown>
    20e0: 00 00        	<unknown>
    20e2: 1c 96        	<unknown>
    20e4: 0c 00        	<unknown>
    20e6: 00 05        	<unknown>
    20e8: 7a 02        	<unknown>
    20ea: f6 20        	<unknown>
    20ec: 00 00        	<unknown>
    20ee: 01 01        	<unknown>
    20f0: 09 f5        	<unknown>
    20f2: 12 00        	<unknown>
    20f4: 00 00        	<unknown>
    20f6: 0e ff        	<unknown>
    20f8: 12 00        	<unknown>
    20fa: 00 1c        	<unknown>
    20fc: ed 08        	<unknown>
    20fe: 00 00        	<unknown>
    2100: 05 49        	<unknown>
    2102: 03 9d 11 00  	lh	s10, 0x1(gp)
    2106: 00 01        	<unknown>
    2108: 01 09        	<unknown>
    210a: 9d 11        	<unknown>
    210c: 00 00        	<unknown>
    210e: 00 1c        	<unknown>
    2110: 1c 0d        	<unknown>
    2112: 00 00        	<unknown>
    2114: 05 56        	<unknown>
    2116: 03 8e 1f 00  	lb	t3, 0x1(t6)
    211a: 00 01        	<unknown>
    211c: 01 09        	<unknown>
    211e: 9d 11        	<unknown>
    2120: 00 00        	<unknown>
    2122: 09 9d        	<unknown>
    2124: 11 00        	<unknown>
    2126: 00 00        	<unknown>
    2128: 1c 9d        	<unknown>
    212a: 0c 00        	<unknown>
    212c: 00 05        	<unknown>
    212e: 1b 02 55 20  	addiw	tp, a0, 0x205
    2132: 00 00        	<unknown>
    2134: 01 01        	<unknown>
    2136: 09 5c        	<unknown>
    2138: 20 00        	<unknown>
    213a: 00 00        	<unknown>
    213c: 1c a4        	<unknown>
    213e: 0c 00        	<unknown>
    2140: 00 05        	<unknown>
    2142: 9a 03        	<unknown>
    2144: d9 0d        	<unknown>
    2146: 00 00        	<unknown>
    2148: 01 01        	<unknown>
    214a: 09 f5        	<unknown>
    214c: 12 00        	<unknown>
    214e: 00 09        	<unknown>
    2150: 5c 20        	<unknown>
    2152: 00 00        	<unknown>
    2154: 00 1c        	<unknown>
    2156: aa 0c        	<unknown>
    2158: 00 00        	<unknown>
    215a: 05 a5        	<unknown>
    215c: 03 5c 20 00  	lhu	s8, 0x2(zero)
    2160: 00 01        	<unknown>
    2162: 01 09        	<unknown>
    2164: 73 21 00 00  	csrr	sp, 0x0
    2168: 09 f5        	<unknown>
    216a: 12 00        	<unknown>
    216c: 00 09        	<unknown>
    216e: 5c 20        	<unknown>
    2170: 00 00        	<unknown>
    2172: 00 0e        	<unknown>
    2174: 78 21        	<unknown>
    2176: 00 00        	<unknown>
    2178: 0d b3        	<unknown>
    217a: 0c 00        	<unknown>
    217c: 00 05        	<unknown>
    217e: 04 1c        	<unknown>
    2180: bb 0c 00 00  	addw	s9, zero, zero
    2184: 05 9d        	<unknown>
    2186: 03 d9 0d 00  	lhu	s2, 0x0(s11)
    218a: 00 01        	<unknown>
    218c: 01 09        	<unknown>
    218e: 73 21 00 00  	csrr	sp, 0x0
    2192: 09 f5        	<unknown>
    2194: 12 00        	<unknown>
    2196: 00 09        	<unknown>
    2198: 5c 20        	<unknown>
    219a: 00 00        	<unknown>
    219c: 00 11        	<unknown>
    219e: c2 0c        	<unknown>
    21a0: 00 00        	<unknown>
    21a2: 05 3e        	<unknown>
    21a4: 03 01 01 09  	lb	sp, 0x90(sp)
    21a8: 55 20        	<unknown>
    21aa: 00 00        	<unknown>
    21ac: 09 5c        	<unknown>
    21ae: 20 00        	<unknown>
    21b0: 00 09        	<unknown>
    21b2: 5c 20        	<unknown>
    21b4: 00 00        	<unknown>
    21b6: 09 6e        	<unknown>
    21b8: 20 00        	<unknown>
    21ba: 00 00        	<unknown>
    21bc: 25 45        	<unknown>
    21be: 0c 00        	<unknown>
    21c0: 00 05        	<unknown>
    21c2: 6f 02 01 01  	jal	tp, 0x121d2 <.debug_info+0x121d2>
    21c6: 01 09        	<unknown>
    21c8: d9 0d        	<unknown>
    21ca: 00 00        	<unknown>
    21cc: 00 26        	<unknown>
    21ce: d1 0c        	<unknown>
    21d0: 00 00        	<unknown>
    21d2: 05 c5        	<unknown>
    21d4: 01 d9        	<unknown>
    21d6: 0d 00        	<unknown>
    21d8: 00 01        	<unknown>
    21da: 01 1c        	<unknown>
    21dc: c8 0c        	<unknown>
    21de: 00 00        	<unknown>
    21e0: 05 26        	<unknown>
    21e2: 02 55        	<unknown>
    21e4: 20 00        	<unknown>
    21e6: 00 01        	<unknown>
    21e8: 01 09        	<unknown>
    21ea: 55 20        	<unknown>
    21ec: 00 00        	<unknown>
    21ee: 09 5c        	<unknown>
    21f0: 20 00        	<unknown>
    21f2: 00 00        	<unknown>
    21f4: 11 d0        	<unknown>
    21f6: 0c 00        	<unknown>
    21f8: 00 05        	<unknown>
    21fa: c7 01 01 01  	fmsub.s	ft3, ft2, fa6, ft0, rne
    21fe: 09 ae        	<unknown>
    2200: 01 00        	<unknown>
    2202: 00 00        	<unknown>
    2204: 1d d6        	<unknown>
    2206: 0c 00        	<unknown>
    2208: 00 05        	<unknown>
    220a: 75 ee        	<unknown>
    220c: 12 00        	<unknown>
    220e: 00 01        	<unknown>
    2210: 01 09        	<unknown>
    2212: f5 12        	<unknown>
    2214: 00 00        	<unknown>
    2216: 09 1c        	<unknown>
    2218: 22 00        	<unknown>
    221a: 00 00        	<unknown>
    221c: 0e f6        	<unknown>
    221e: 20 00        	<unknown>
    2220: 00 1d        	<unknown>
    2222: dd 0c        	<unknown>
    2224: 00 00        	<unknown>
    2226: 05 b0        	<unknown>
    2228: 9d 11        	<unknown>
    222a: 00 00        	<unknown>
    222c: 01 01        	<unknown>
    222e: 09 f5        	<unknown>
    2230: 12 00        	<unknown>
    2232: 00 09        	<unknown>
    2234: 1c 22        	<unknown>
    2236: 00 00        	<unknown>
    2238: 09 d9        	<unknown>
    223a: 0d 00        	<unknown>
    223c: 00 00        	<unknown>
    223e: 1d e4        	<unknown>
    2240: 0c 00        	<unknown>
    2242: 00 05        	<unknown>
    2244: b4 67        	<unknown>
    2246: 20 00        	<unknown>
    2248: 00 01        	<unknown>
    224a: 01 09        	<unknown>
    224c: f5 12        	<unknown>
    224e: 00 00        	<unknown>
    2250: 09 1c        	<unknown>
    2252: 22 00        	<unknown>
    2254: 00 09        	<unknown>
    2256: d9 0d        	<unknown>
    2258: 00 00        	<unknown>
    225a: 00 1c        	<unknown>
    225c: ec 0c        	<unknown>
    225e: 00 00        	<unknown>
    2260: 05 10        	<unknown>
    2262: 03 d9 0d 00  	lhu	s2, 0x0(s11)
    2266: 00 01        	<unknown>
    2268: 01 09        	<unknown>
    226a: f5 12        	<unknown>
    226c: 00 00        	<unknown>
    226e: 00 1c        	<unknown>
    2270: f3 0c 00 00  	<unknown>
    2274: 05 a8        	<unknown>
    2276: 03 5c 20 00  	lhu	s8, 0x2(zero)
    227a: 00 01        	<unknown>
    227c: 01 09        	<unknown>
    227e: f6 20        	<unknown>
    2280: 00 00        	<unknown>
    2282: 09 8d        	<unknown>
    2284: 22 00        	<unknown>
    2286: 00 09        	<unknown>
    2288: 5c 20        	<unknown>
    228a: 00 00        	<unknown>
    228c: 00 0e        	<unknown>
    228e: 92 22        	<unknown>
    2290: 00 00        	<unknown>
    2292: 14 78        	<unknown>
    2294: 21 00        	<unknown>
    2296: 00 1c        	<unknown>
    2298: fc 0c        	<unknown>
    229a: 00 00        	<unknown>
    229c: 05 a1        	<unknown>
    229e: 03 d9 0d 00  	lhu	s2, 0x0(s11)
    22a2: 00 01        	<unknown>
    22a4: 01 09        	<unknown>
    22a6: f6 20        	<unknown>
    22a8: 00 00        	<unknown>
    22aa: 09 78        	<unknown>
    22ac: 21 00        	<unknown>
    22ae: 00 00        	<unknown>
    22b0: 02 03        	<unknown>
    22b2: 0d 00        	<unknown>
    22b4: 00 0c        	<unknown>
    22b6: 0a cc        	<unknown>
    22b8: 11 23        	<unknown>
    22ba: 00 00        	<unknown>
    22bc: 0c 0a        	<unknown>
    22be: d2 3e        	<unknown>
    22c0: 23 00 00 0c  	sb	zero, 0xc0(zero)
    22c4: 0a d6        	<unknown>
    22c6: 4f 23 00 00  	fnmadd.s	ft6, ft0, ft0, ft0, rdn
    22ca: 0c 0a        	<unknown>
    22cc: dc 63        	<unknown>
    22ce: 23 00 00 0c  	sb	zero, 0xc0(zero)
    22d2: 0a e7        	<unknown>
    22d4: 7c 23        	<unknown>
    22d6: 00 00        	<unknown>
    22d8: 0c 0a        	<unknown>
    22da: e8 8f        	<unknown>
    22dc: 23 00 00 0c  	sb	zero, 0xc0(zero)
    22e0: 0a e9        	<unknown>
    22e2: ac 23        	<unknown>
    22e4: 00 00        	<unknown>
    22e6: 0c 0a        	<unknown>
    22e8: eb c9 23 00  	<unknown>
    22ec: 00 0c        	<unknown>
    22ee: 0a ec        	<unknown>
    22f0: e1 23        	<unknown>
    22f2: 00 00        	<unknown>
    22f4: 0b 47 0d 00  	<unknown>
    22f8: 00 1d        	<unknown>
    22fa: 0d 00        	<unknown>
    22fc: 00 0a        	<unknown>
    22fe: d9 11        	<unknown>
    2300: 23 00 00 01  	sb	a6, 0x0(zero)
    2304: 01 09        	<unknown>
    2306: eb 11 00 00  	<unknown>
    230a: 09 eb        	<unknown>
    230c: 11 00        	<unknown>
    230e: 00 00        	<unknown>
    2310: 00 0a        	<unknown>
    2312: 1c 23        	<unknown>
    2314: 00 00        	<unknown>
    2316: 0d 0d        	<unknown>
    2318: 00 00        	<unknown>
    231a: 05 50        	<unknown>
    231c: 1f 05 10 05  	<unknown>
    2320: 4c 06        	<unknown>
    2322: 2c 0c        	<unknown>
    2324: 00 00        	<unknown>
    2326: eb 11 00 00  	<unknown>
    232a: 05 4e        	<unknown>
    232c: 02 23        	<unknown>
    232e: 00 06        	<unknown>
    2330: 31 0c        	<unknown>
    2332: 00 00        	<unknown>
    2334: eb 11 00 00  	<unknown>
    2338: 05 4f        	<unknown>
    233a: 02 23        	<unknown>
    233c: 08 00        	<unknown>
    233e: 25 15        	<unknown>
    2340: 0d 00        	<unknown>
    2342: 00 05        	<unknown>
    2344: 75 02        	<unknown>
    2346: 01 01        	<unknown>
    2348: 01 09        	<unknown>
    234a: d9 0d        	<unknown>
    234c: 00 00        	<unknown>
    234e: 00 1c        	<unknown>
    2350: ec 08        	<unknown>
    2352: 00 00        	<unknown>
    2354: 05 4c        	<unknown>
    2356: 03 eb 11 00  	lwu	s6, 0x1(gp)
    235a: 00 01        	<unknown>
    235c: 01 09        	<unknown>
    235e: eb 11 00 00  	<unknown>
    2362: 00 1c        	<unknown>
    2364: 1b 0d 00 00  	sext.w	s10, zero
    2368: 05 5a        	<unknown>
    236a: 03 11 23 00  	lh	sp, 0x2(t1)
    236e: 00 01        	<unknown>
    2370: 01 09        	<unknown>
    2372: eb 11 00 00  	<unknown>
    2376: 09 eb        	<unknown>
    2378: 11 00        	<unknown>
    237a: 00 00        	<unknown>
    237c: 1d 21        	<unknown>
    237e: 0d 00        	<unknown>
    2380: 00 05        	<unknown>
    2382: 70 eb        	<unknown>
    2384: 11 00        	<unknown>
    2386: 00 01        	<unknown>
    2388: 01 09        	<unknown>
    238a: f5 12        	<unknown>
    238c: 00 00        	<unknown>
    238e: 00 1d        	<unknown>
    2390: 27 0d 00 00  	<unknown>
    2394: 05 c8        	<unknown>
    2396: eb 11 00 00  	<unknown>
    239a: 01 01        	<unknown>
    239c: 09 f5        	<unknown>
    239e: 12 00        	<unknown>
    23a0: 00 09        	<unknown>
    23a2: 1c 22        	<unknown>
    23a4: 00 00        	<unknown>
    23a6: 09 d9        	<unknown>
    23a8: 0d 00        	<unknown>
    23aa: 00 00        	<unknown>
    23ac: 1d 2f        	<unknown>
    23ae: 0d 00        	<unknown>
    23b0: 00 05        	<unknown>
    23b2: cd 1b        	<unknown>
    23b4: 01 00        	<unknown>
    23b6: 00 01        	<unknown>
    23b8: 01 09        	<unknown>
    23ba: f5 12        	<unknown>
    23bc: 00 00        	<unknown>
    23be: 09 1c        	<unknown>
    23c0: 22 00        	<unknown>
    23c2: 00 09        	<unknown>
    23c4: d9 0d        	<unknown>
    23c6: 00 00        	<unknown>
    23c8: 00 1d        	<unknown>
    23ca: 38 0d        	<unknown>
    23cc: 00 00        	<unknown>
    23ce: 05 7b        	<unknown>
    23d0: f6 0d        	<unknown>
    23d2: 00 00        	<unknown>
    23d4: 01 01        	<unknown>
    23d6: 09 f5        	<unknown>
    23d8: 12 00        	<unknown>
    23da: 00 09        	<unknown>
    23dc: 1c 22        	<unknown>
    23de: 00 00        	<unknown>
    23e0: 00 1d        	<unknown>
    23e2: 3f 0d 00 00  	<unknown>
    23e6: 05 7e        	<unknown>
    23e8: dd 16        	<unknown>
    23ea: 00 00        	<unknown>
    23ec: 01 01        	<unknown>
    23ee: 09 f5        	<unknown>
    23f0: 12 00        	<unknown>
    23f2: 00 09        	<unknown>
    23f4: 1c 22        	<unknown>
    23f6: 00 00        	<unknown>
    23f8: 00 0c        	<unknown>
    23fa: 0c 26        	<unknown>
    23fc: bb 1f 00 00  	sllw	t6, zero, zero
    2400: 0c 0c        	<unknown>
    2402: 27 c6 1f 00  	<unknown>
    2406: 00 0c        	<unknown>
    2408: 0c 28        	<unknown>
    240a: c1 20        	<unknown>
    240c: 00 00        	<unknown>
    240e: 0c 0c        	<unknown>
    2410: 2b e0 1f 00  	<unknown>
    2414: 00 0c        	<unknown>
    2416: 0c 2e        	<unknown>
    2418: bc 21        	<unknown>
    241a: 00 00        	<unknown>
    241c: 0c 0c        	<unknown>
    241e: 31 3e        	<unknown>
    2420: 23 00 00 0c  	sb	zero, 0xc0(zero)
    2424: 0c 36        	<unknown>
    2426: 81 1f        	<unknown>
    2428: 00 00        	<unknown>
    242a: 0c 0c        	<unknown>
    242c: 37 8e 1f 00  	lui	t3, 0x1f8
    2430: 00 0c        	<unknown>
    2432: 0c 39        	<unknown>
    2434: d6 0b        	<unknown>
    2436: 00 00        	<unknown>
    2438: 0c 0c        	<unknown>
    243a: 3a f4        	<unknown>
    243c: 1f 00 00 0c  	<unknown>
    2440: 0c 3b        	<unknown>
    2442: 07 20 00 00  	flw	ft0, 0x0(zero)
    2446: 0c 0c        	<unknown>
    2448: 3c 1a        	<unknown>
    244a: 20 00        	<unknown>
    244c: 00 0c        	<unknown>
    244e: 0c 3d        	<unknown>
    2450: 2d 20        	<unknown>
    2452: 00 00        	<unknown>
    2454: 0c 0c        	<unknown>
    2456: 3e 8f        	<unknown>
    2458: 20 00        	<unknown>
    245a: 00 0c        	<unknown>
    245c: 0c 3f        	<unknown>
    245e: f4 22        	<unknown>
    2460: 00 00        	<unknown>
    2462: 0c 0c        	<unknown>
    2464: 40 d2        	<unknown>
    2466: 20 00        	<unknown>
    2468: 00 0c        	<unknown>
    246a: 0c 41        	<unknown>
    246c: e2 20        	<unknown>
    246e: 00 00        	<unknown>
    2470: 0c 0c        	<unknown>
    2472: 42 fb        	<unknown>
    2474: 20 00        	<unknown>
    2476: 00 0c        	<unknown>
    2478: 0c 43        	<unknown>
    247a: 0f 21 00 00  	<unknown>
    247e: 0c 0c        	<unknown>
    2480: 44 28        	<unknown>
    2482: 21 00        	<unknown>
    2484: 00 0c        	<unknown>
    2486: 0c 46        	<unknown>
    2488: 3c 21        	<unknown>
    248a: 00 00        	<unknown>
    248c: 0c 0c        	<unknown>
    248e: 47 55 21 00  	<unknown>
    2492: 00 0c        	<unknown>
    2494: 0c 48        	<unknown>
    2496: 7f 21 00 00  	<unknown>
    249a: 0c 0c        	<unknown>
    249c: 4a 9d        	<unknown>
    249e: 21 00        	<unknown>
    24a0: 00 0c        	<unknown>
    24a2: 0c 4b        	<unknown>
    24a4: cd 21        	<unknown>
    24a6: 00 00        	<unknown>
    24a8: 0c 0c        	<unknown>
    24aa: 4c db        	<unknown>
    24ac: 21 00        	<unknown>
    24ae: 00 0c        	<unknown>
    24b0: 0c 4d        	<unknown>
    24b2: f4 21        	<unknown>
    24b4: 00 00        	<unknown>
    24b6: 0c 0c        	<unknown>
    24b8: 4e 04        	<unknown>
    24ba: 22 00        	<unknown>
    24bc: 00 0c        	<unknown>
    24be: 0c 4f        	<unknown>
    24c0: 21 22        	<unknown>
    24c2: 00 00        	<unknown>
    24c4: 0c 0c        	<unknown>
    24c6: 50 3e        	<unknown>
    24c8: 22 00        	<unknown>
    24ca: 00 0c        	<unknown>
    24cc: 0c 51        	<unknown>
    24ce: 5b 22 00 00  	<unknown>
    24d2: 0c 0c        	<unknown>
    24d4: 53 6f 22 00  	<unknown>
    24d8: 00 0c        	<unknown>
    24da: 0c 54        	<unknown>
    24dc: 97 22 00 00  	auipc	t0, 0x2
    24e0: 1b 66 0d 00  	<unknown>
    24e4: 00 ea        	<unknown>
    24e6: 05 00        	<unknown>
    24e8: 00 0d        	<unknown>
    24ea: 3b f6 0d 00  	<unknown>
    24ee: 00 01        	<unknown>
    24f0: 09 f6        	<unknown>
    24f2: 0d 00        	<unknown>
    24f4: 00 00        	<unknown>
    24f6: 1b 71 0d 00  	<unknown>
    24fa: 00 ff        	<unknown>
    24fc: 05 00        	<unknown>
    24fe: 00 0d        	<unknown>
    2500: 3d f6        	<unknown>
    2502: 0d 00        	<unknown>
    2504: 00 01        	<unknown>
    2506: 09 f6        	<unknown>
    2508: 0d 00        	<unknown>
    250a: 00 00        	<unknown>
    250c: 1b 7d 0d 00  	<unknown>
    2510: 00 10        	<unknown>
    2512: 06 00        	<unknown>
    2514: 00 0d        	<unknown>
    2516: 3f f6 0d 00  	<unknown>
    251a: 00 01        	<unknown>
    251c: 09 f6        	<unknown>
    251e: 0d 00        	<unknown>
    2520: 00 00        	<unknown>
    2522: 1b 88 0d 00  	sext.w	a6, s11
    2526: 00 1f        	<unknown>
    2528: 06 00        	<unknown>
    252a: 00 0d        	<unknown>
    252c: 41 f6        	<unknown>
    252e: 0d 00        	<unknown>
    2530: 00 01        	<unknown>
    2532: 09 f6        	<unknown>
    2534: 0d 00        	<unknown>
    2536: 00 00        	<unknown>
    2538: 1b 94 0d 00  	slliw	s0, s11, 0x0
    253c: 00 a1        	<unknown>
    253e: 0d 00        	<unknown>
    2540: 00 0d        	<unknown>
    2542: 44 f6        	<unknown>
    2544: 0d 00        	<unknown>
    2546: 00 01        	<unknown>
    2548: 09 f6        	<unknown>
    254a: 0d 00        	<unknown>
    254c: 00 09        	<unknown>
    254e: f6 0d        	<unknown>
    2550: 00 00        	<unknown>
    2552: 00 1b        	<unknown>
    2554: a8 0d        	<unknown>
    2556: 00 00        	<unknown>
    2558: 30 06        	<unknown>
    255a: 00 00        	<unknown>
    255c: 0d 45        	<unknown>
    255e: f6 0d        	<unknown>
    2560: 00 00        	<unknown>
    2562: 01 09        	<unknown>
    2564: f6 0d        	<unknown>
    2566: 00 00        	<unknown>
    2568: 00 1b        	<unknown>
    256a: b3 0d 00 00  	add	s11, zero, zero
    256e: 51 06        	<unknown>
    2570: 00 00        	<unknown>
    2572: 0d 47        	<unknown>
    2574: f6 0d        	<unknown>
    2576: 00 00        	<unknown>
    2578: 01 09        	<unknown>
    257a: f6 0d        	<unknown>
    257c: 00 00        	<unknown>
    257e: 00 1b        	<unknown>
    2580: bf 0d 00 00  	<unknown>
    2584: 62 06        	<unknown>
    2586: 00 00        	<unknown>
    2588: 0d 49        	<unknown>
    258a: f6 0d        	<unknown>
    258c: 00 00        	<unknown>
    258e: 01 09        	<unknown>
    2590: f6 0d        	<unknown>
    2592: 00 00        	<unknown>
    2594: 00 1b        	<unknown>
    2596: ca 0d        	<unknown>
    2598: 00 00        	<unknown>
    259a: 71 06        	<unknown>
    259c: 00 00        	<unknown>
    259e: 0d 4b        	<unknown>
    25a0: f6 0d        	<unknown>
    25a2: 00 00        	<unknown>
    25a4: 01 09        	<unknown>
    25a6: f6 0d        	<unknown>
    25a8: 00 00        	<unknown>
    25aa: 00 1b        	<unknown>
    25ac: d5 0d        	<unknown>
    25ae: 00 00        	<unknown>
    25b0: f7 0a 00 00  	<unknown>
    25b4: 0d 4f        	<unknown>
    25b6: f6 0d        	<unknown>
    25b8: 00 00        	<unknown>
    25ba: 01 09        	<unknown>
    25bc: f6 0d        	<unknown>
    25be: 00 00        	<unknown>
    25c0: 09 f6        	<unknown>
    25c2: 0d 00        	<unknown>
    25c4: 00 00        	<unknown>
    25c6: 1b e5 0d 00  	<unknown>
    25ca: 00 98        	<unknown>
    25cc: 06 00        	<unknown>
    25ce: 00 0d        	<unknown>
    25d0: 53 f6 0d 00  	fadd.s	fa2, fs11, ft0
    25d4: 00 01        	<unknown>
    25d6: 09 f6        	<unknown>
    25d8: 0d 00        	<unknown>
    25da: 00 00        	<unknown>
    25dc: 1b ef 0d 00  	<unknown>
    25e0: 00 a1        	<unknown>
    25e2: 06 00        	<unknown>
    25e4: 00 0d        	<unknown>
    25e6: 57 f6 0d 00  	<unknown>
    25ea: 00 01        	<unknown>
    25ec: 09 f6        	<unknown>
    25ee: 0d 00        	<unknown>
    25f0: 00 00        	<unknown>
    25f2: 1b fa 0d 00  	<unknown>
    25f6: 00 b4        	<unknown>
    25f8: 06 00        	<unknown>
    25fa: 00 0d        	<unknown>
    25fc: 60 f6        	<unknown>
    25fe: 0d 00        	<unknown>
    2600: 00 01        	<unknown>
    2602: 09 f6        	<unknown>
    2604: 0d 00        	<unknown>
    2606: 00 00        	<unknown>
    2608: 1b 05 0e 00  	sext.w	a0, t3
    260c: 00 ab        	<unknown>
    260e: 06 00        	<unknown>
    2610: 00 0d        	<unknown>
    2612: 65 f6        	<unknown>
    2614: 0d 00        	<unknown>
    2616: 00 01        	<unknown>
    2618: 09 f6        	<unknown>
    261a: 0d 00        	<unknown>
    261c: 00 00        	<unknown>
    261e: 1b 0f 0e 00  	sext.w	t5, t3
    2622: 00 cc        	<unknown>
    2624: 06 00        	<unknown>
    2626: 00 0d        	<unknown>
    2628: 6c f6        	<unknown>
    262a: 0d 00        	<unknown>
    262c: 00 01        	<unknown>
    262e: 09 f6        	<unknown>
    2630: 0d 00        	<unknown>
    2632: 00 00        	<unknown>
    2634: 1b 1a 0e 00  	slliw	s4, t3, 0x0
    2638: 00 c3        	<unknown>
    263a: 06 00        	<unknown>
    263c: 00 0d        	<unknown>
    263e: 6d f6        	<unknown>
    2640: 0d 00        	<unknown>
    2642: 00 01        	<unknown>
    2644: 09 f6        	<unknown>
    2646: 0d 00        	<unknown>
    2648: 00 00        	<unknown>
    264a: 1b 24 0e 00  	<unknown>
    264e: 00 db        	<unknown>
    2650: 06 00        	<unknown>
    2652: 00 0d        	<unknown>
    2654: 6f f6 0d 00  	jal	a2, 0xe1654 <.debug_info+0xe1654>
    2658: 00 01        	<unknown>
    265a: 09 f6        	<unknown>
    265c: 0d 00        	<unknown>
    265e: 00 00        	<unknown>
    2660: 1b 30 0e 00  	<unknown>
    2664: 00 ec        	<unknown>
    2666: 06 00        	<unknown>
    2668: 00 0d        	<unknown>
    266a: 70 f6        	<unknown>
    266c: 0d 00        	<unknown>
    266e: 00 01        	<unknown>
    2670: 09 f6        	<unknown>
    2672: 0d 00        	<unknown>
    2674: 00 00        	<unknown>
    2676: 1b 3b 0e 00  	<unknown>
    267a: 00 23        	<unknown>
    267c: 0b 00 00 0d  	<unknown>
    2680: 72 f6        	<unknown>
    2682: 0d 00        	<unknown>
    2684: 00 01        	<unknown>
    2686: 09 f6        	<unknown>
    2688: 0d 00        	<unknown>
    268a: 00 09        	<unknown>
    268c: f6 0d        	<unknown>
    268e: 00 00        	<unknown>
    2690: 00 1b        	<unknown>
    2692: 47 0e 00 00  	fmsub.s	ft8, ft0, ft0, ft0, rne
    2696: 0b 07 00 00  	<unknown>
    269a: 0d 7c        	<unknown>
    269c: f6 0d        	<unknown>
    269e: 00 00        	<unknown>
    26a0: 01 09        	<unknown>
    26a2: f6 0d        	<unknown>
    26a4: 00 00        	<unknown>
    26a6: 00 1b        	<unknown>
    26a8: 53 0e 00 00  	fadd.s	ft8, ft0, ft0, rne
    26ac: 2f 0b 00 00  	<unknown>
    26b0: 0d 80        	<unknown>
    26b2: f6 0d        	<unknown>
    26b4: 00 00        	<unknown>
    26b6: 01 09        	<unknown>
    26b8: f6 0d        	<unknown>
    26ba: 00 00        	<unknown>
    26bc: 09 f6        	<unknown>
    26be: 0d 00        	<unknown>
    26c0: 00 09        	<unknown>
    26c2: f6 0d        	<unknown>
    26c4: 00 00        	<unknown>
    26c6: 00 1b        	<unknown>
    26c8: 5f 0e 00 00  	<unknown>
    26cc: 39 0b        	<unknown>
    26ce: 00 00        	<unknown>
    26d0: 0d 84        	<unknown>
    26d2: f6 0d        	<unknown>
    26d4: 00 00        	<unknown>
    26d6: 01 09        	<unknown>
    26d8: f6 0d        	<unknown>
    26da: 00 00        	<unknown>
    26dc: 09 f6        	<unknown>
    26de: 0d 00        	<unknown>
    26e0: 00 00        	<unknown>
    26e2: 1b 6b 0e 00  	<unknown>
    26e6: 00 45        	<unknown>
    26e8: 0b 00 00 0d  	<unknown>
    26ec: 86 f6        	<unknown>
    26ee: 0d 00        	<unknown>
    26f0: 00 01        	<unknown>
    26f2: 09 f6        	<unknown>
    26f4: 0d 00        	<unknown>
    26f6: 00 09        	<unknown>
    26f8: f6 0d        	<unknown>
    26fa: 00 00        	<unknown>
    26fc: 00 1b        	<unknown>
    26fe: 77 0e 00 00  	<unknown>
    2702: 83 0e 00 00  	lb	t4, 0x0(zero)
    2706: 0d 88        	<unknown>
    2708: f6 0d        	<unknown>
    270a: 00 00        	<unknown>
    270c: 01 09        	<unknown>
    270e: f6 0d        	<unknown>
    2710: 00 00        	<unknown>
    2712: 09 f6        	<unknown>
    2714: 0d 00        	<unknown>
    2716: 00 00        	<unknown>
    2718: 1b 89 0e 00  	sext.w	s2, t4
    271c: 00 97        	<unknown>
    271e: 0e 00        	<unknown>
    2720: 00 0d        	<unknown>
    2722: 8a f6        	<unknown>
    2724: 0d 00        	<unknown>
    2726: 00 01        	<unknown>
    2728: 09 f6        	<unknown>
    272a: 0d 00        	<unknown>
    272c: 00 09        	<unknown>
    272e: 50 10        	<unknown>
    2730: 00 00        	<unknown>
    2732: 00 1b        	<unknown>
    2734: 9e 0e        	<unknown>
    2736: 00 00        	<unknown>
    2738: 51 0b        	<unknown>
    273a: 00 00        	<unknown>
    273c: 0d 8c        	<unknown>
    273e: f6 0d        	<unknown>
    2740: 00 00        	<unknown>
    2742: 01 09        	<unknown>
    2744: f6 0d        	<unknown>
    2746: 00 00        	<unknown>
    2748: 09 f6        	<unknown>
    274a: 0d 00        	<unknown>
    274c: 00 00        	<unknown>
    274e: 1b ab 0e 00  	<unknown>
    2752: 00 9c        	<unknown>
    2754: 07 00 00 0d  	<unknown>
    2758: 8e d9        	<unknown>
    275a: 0d 00        	<unknown>
    275c: 00 01        	<unknown>
    275e: 09 f6        	<unknown>
    2760: 0d 00        	<unknown>
    2762: 00 00        	<unknown>
    2764: 1b b7 0e 00  	<unknown>
    2768: 00 c4        	<unknown>
    276a: 0e 00        	<unknown>
    276c: 00 0d        	<unknown>
    276e: 9b f6 0d 00  	<unknown>
    2772: 00 01        	<unknown>
    2774: 09 f6        	<unknown>
    2776: 0d 00        	<unknown>
    2778: 00 09        	<unknown>
    277a: d9 0d        	<unknown>
    277c: 00 00        	<unknown>
    277e: 00 1b        	<unknown>
    2780: cb 0e 00 00  	fnmsub.s	ft9, ft0, ft0, ft0, rne
    2784: d2 08        	<unknown>
    2786: 00 00        	<unknown>
    2788: 0d 9d        	<unknown>
    278a: f6 0d        	<unknown>
    278c: 00 00        	<unknown>
    278e: 01 09        	<unknown>
    2790: f6 0d        	<unknown>
    2792: 00 00        	<unknown>
    2794: 00 1b        	<unknown>
    2796: d8 0e        	<unknown>
    2798: 00 00        	<unknown>
    279a: f6 08        	<unknown>
    279c: 00 00        	<unknown>
    279e: 0d a6        	<unknown>
    27a0: eb 11 00 00  	<unknown>
    27a4: 01 09        	<unknown>
    27a6: f6 0d        	<unknown>
    27a8: 00 00        	<unknown>
    27aa: 00 1b        	<unknown>
    27ac: e5 0e        	<unknown>
    27ae: 00 00        	<unknown>
    27b0: 68 09        	<unknown>
    27b2: 00 00        	<unknown>
    27b4: 0d a8        	<unknown>
    27b6: eb 11 00 00  	<unknown>
    27ba: 01 09        	<unknown>
    27bc: f6 0d        	<unknown>
    27be: 00 00        	<unknown>
    27c0: 00 1b        	<unknown>
    27c2: f3 0e 00 00  	<unknown>
    27c6: 16 09        	<unknown>
    27c8: 00 00        	<unknown>
    27ca: 0d ad        	<unknown>
    27cc: f6 0d        	<unknown>
    27ce: 00 00        	<unknown>
    27d0: 01 09        	<unknown>
    27d2: f6 0d        	<unknown>
    27d4: 00 00        	<unknown>
    27d6: 00 1b        	<unknown>
    27d8: ff 0e 00 00  	<unknown>
    27dc: 27 09 00 00  	<unknown>
    27e0: 0d af        	<unknown>
    27e2: f6 0d        	<unknown>
    27e4: 00 00        	<unknown>
    27e6: 01 09        	<unknown>
    27e8: f6 0d        	<unknown>
    27ea: 00 00        	<unknown>
    27ec: 00 1b        	<unknown>
    27ee: 0b 0f 00 00  	<unknown>
    27f2: 38 09        	<unknown>
    27f4: 00 00        	<unknown>
    27f6: 0d b1        	<unknown>
    27f8: f6 0d        	<unknown>
    27fa: 00 00        	<unknown>
    27fc: 01 09        	<unknown>
    27fe: f6 0d        	<unknown>
    2800: 00 00        	<unknown>
    2802: 00 1b        	<unknown>
    2804: 16 0f        	<unknown>
    2806: 00 00        	<unknown>
    2808: 47 09 00 00  	fmsub.s	fs2, ft0, ft0, ft0, rne
    280c: 0d b5        	<unknown>
    280e: f6 0d        	<unknown>
    2810: 00 00        	<unknown>
    2812: 01 09        	<unknown>
    2814: f6 0d        	<unknown>
    2816: 00 00        	<unknown>
    2818: 00 1b        	<unknown>
    281a: 21 0f        	<unknown>
    281c: 00 00        	<unknown>
    281e: 09 09        	<unknown>
    2820: 00 00        	<unknown>
    2822: 0d b6        	<unknown>
    2824: f6 0d        	<unknown>
    2826: 00 00        	<unknown>
    2828: 01 09        	<unknown>
    282a: f6 0d        	<unknown>
    282c: 00 00        	<unknown>
    282e: 00 1b        	<unknown>
    2830: 2b 0f 00 00  	vx_tex	t5, zero, zero, zero
    2834: 51 09        	<unknown>
    2836: 00 00        	<unknown>
    2838: 0d bb        	<unknown>
    283a: 9d 11        	<unknown>
    283c: 00 00        	<unknown>
    283e: 01 09        	<unknown>
    2840: f6 0d        	<unknown>
    2842: 00 00        	<unknown>
    2844: 00 1b        	<unknown>
    2846: 37 0f 00 00  	lui	t5, 0x0
    284a: 5c 09        	<unknown>
    284c: 00 00        	<unknown>
    284e: 0d bd        	<unknown>
    2850: 9d 11        	<unknown>
    2852: 00 00        	<unknown>
    2854: 01 09        	<unknown>
    2856: f6 0d        	<unknown>
    2858: 00 00        	<unknown>
    285a: 00 1b        	<unknown>
    285c: 44 0f        	<unknown>
    285e: 00 00        	<unknown>
    2860: 4c 07        	<unknown>
    2862: 00 00        	<unknown>
    2864: 0d c7        	<unknown>
    2866: f6 0d        	<unknown>
    2868: 00 00        	<unknown>
    286a: 01 09        	<unknown>
    286c: f6 0d        	<unknown>
    286e: 00 00        	<unknown>
    2870: 09 d3        	<unknown>
    2872: 12 00        	<unknown>
    2874: 00 00        	<unknown>
    2876: 1b 51 0f 00  	srliw	sp, t5, 0x0
    287a: 00 a5        	<unknown>
    287c: 09 00        	<unknown>
    287e: 00 0d        	<unknown>
    2880: c9 f6        	<unknown>
    2882: 0d 00        	<unknown>
    2884: 00 01        	<unknown>
    2886: 09 f6        	<unknown>
    2888: 0d 00        	<unknown>
    288a: 00 00        	<unknown>
    288c: 1b 62 0f 00  	<unknown>
    2890: 00 9c        	<unknown>
    2892: 0b 00 00 0d  	<unknown>
    2896: cd f6        	<unknown>
    2898: 0d 00        	<unknown>
    289a: 00 01        	<unknown>
    289c: 09 f6        	<unknown>
    289e: 0d 00        	<unknown>
    28a0: 00 09        	<unknown>
    28a2: f6 0d        	<unknown>
    28a4: 00 00        	<unknown>
    28a6: 00 1b        	<unknown>
    28a8: 74 0f        	<unknown>
    28aa: 00 00        	<unknown>
    28ac: 7f 0f 00 00  	<unknown>
    28b0: 0d e7        	<unknown>
    28b2: f6 0d        	<unknown>
    28b4: 00 00        	<unknown>
    28b6: 01 09        	<unknown>
    28b8: f6 0d        	<unknown>
    28ba: 00 00        	<unknown>
    28bc: 09 f6        	<unknown>
    28be: 0d 00        	<unknown>
    28c0: 00 00        	<unknown>
    28c2: 1b 84 0f 00  	sext.w	s0, t6
    28c6: 00 d5        	<unknown>
    28c8: 0b 00 00 0d  	<unknown>
    28cc: ef f6 0d 00  	jal	a3, 0xe18cc <.debug_info+0xe18cc>
    28d0: 00 01        	<unknown>
    28d2: 09 f6        	<unknown>
    28d4: 0d 00        	<unknown>
    28d6: 00 09        	<unknown>
    28d8: f6 0d        	<unknown>
    28da: 00 00        	<unknown>
    28dc: 00 1b        	<unknown>
    28de: 96 0f        	<unknown>
    28e0: 00 00        	<unknown>
    28e2: eb 0b 00 00  	<unknown>
    28e6: 0d f5        	<unknown>
    28e8: f6 0d        	<unknown>
    28ea: 00 00        	<unknown>
    28ec: 01 09        	<unknown>
    28ee: f6 0d        	<unknown>
    28f0: 00 00        	<unknown>
    28f2: 09 f6        	<unknown>
    28f4: 0d 00        	<unknown>
    28f6: 00 09        	<unknown>
    28f8: 50 10        	<unknown>
    28fa: 00 00        	<unknown>
    28fc: 00 27        	<unknown>
    28fe: a6 0f        	<unknown>
    2900: 00 00        	<unknown>
    2902: 16 0a        	<unknown>
    2904: 00 00        	<unknown>
    2906: 0d 00        	<unknown>
    2908: 01 f6        	<unknown>
    290a: 0d 00        	<unknown>
    290c: 00 01        	<unknown>
    290e: 09 f6        	<unknown>
    2910: 0d 00        	<unknown>
    2912: 00 00        	<unknown>
    2914: 1b b1 0f 00  	<unknown>
    2918: 00 20        	<unknown>
    291a: 0a 00        	<unknown>
    291c: 00 0d        	<unknown>
    291e: aa f6        	<unknown>
    2920: 0d 00        	<unknown>
    2922: 00 01        	<unknown>
    2924: 09 f6        	<unknown>
    2926: 0d 00        	<unknown>
    2928: 00 00        	<unknown>
    292a: 27 bd 0f 00  	fsd	ft0, 0x1a(t6)
    292e: 00 fb        	<unknown>
    2930: 0b 00 00 0d  	<unknown>
    2934: 1e 01        	<unknown>
    2936: f6 0d        	<unknown>
    2938: 00 00        	<unknown>
    293a: 01 09        	<unknown>
    293c: f6 0d        	<unknown>
    293e: 00 00        	<unknown>
    2940: 09 9d        	<unknown>
    2942: 11 00        	<unknown>
    2944: 00 00        	<unknown>
    2946: 27 cc 0f 00  	<unknown>
    294a: 00 0d        	<unknown>
    294c: 0c 00        	<unknown>
    294e: 00 0d        	<unknown>
    2950: 16 01        	<unknown>
    2952: f6 0d        	<unknown>
    2954: 00 00        	<unknown>
    2956: 01 09        	<unknown>
    2958: f6 0d        	<unknown>
    295a: 00 00        	<unknown>
    295c: 09 d9        	<unknown>
    295e: 0d 00        	<unknown>
    2960: 00 00        	<unknown>
    2962: 27 da 0f 00  	<unknown>
    2966: 00 6a        	<unknown>
    2968: 0a 00        	<unknown>
    296a: 00 0d        	<unknown>
    296c: 32 01        	<unknown>
    296e: f6 0d        	<unknown>
    2970: 00 00        	<unknown>
    2972: 01 09        	<unknown>
    2974: f6 0d        	<unknown>
    2976: 00 00        	<unknown>
    2978: 00 27        	<unknown>
    297a: e4 0f        	<unknown>
    297c: 00 00        	<unknown>
    297e: 73 0a 00 00  	<unknown>
    2982: 0d 36        	<unknown>
    2984: 01 f6        	<unknown>
    2986: 0d 00        	<unknown>
    2988: 00 01        	<unknown>
    298a: 09 f6        	<unknown>
    298c: 0d 00        	<unknown>
    298e: 00 00        	<unknown>
    2990: 27 ef 0f 00  	<unknown>
    2994: 00 7d        	<unknown>
    2996: 0a 00        	<unknown>
    2998: 00 0d        	<unknown>
    299a: 3a 01        	<unknown>
    299c: f6 0d        	<unknown>
    299e: 00 00        	<unknown>
    29a0: 01 09        	<unknown>
    29a2: f6 0d        	<unknown>
    29a4: 00 00        	<unknown>
    29a6: 00 27        	<unknown>
    29a8: fa 0f        	<unknown>
    29aa: 00 00        	<unknown>
    29ac: 8c 0a        	<unknown>
    29ae: 00 00        	<unknown>
    29b0: 0d 3c        	<unknown>
    29b2: 01 f6        	<unknown>
    29b4: 0d 00        	<unknown>
    29b6: 00 01        	<unknown>
    29b8: 09 f6        	<unknown>
    29ba: 0d 00        	<unknown>
    29bc: 00 00        	<unknown>
    29be: 27 04 10 00  	<unknown>
    29c2: 00 95        	<unknown>
    29c4: 0a 00        	<unknown>
    29c6: 00 0d        	<unknown>
    29c8: 3e 01        	<unknown>
    29ca: f6 0d        	<unknown>
    29cc: 00 00        	<unknown>
    29ce: 01 09        	<unknown>
    29d0: f6 0d        	<unknown>
    29d2: 00 00        	<unknown>
    29d4: 00 27        	<unknown>
    29d6: 0f 10 00 00  	fence.i
    29da: 9f 0a 00 00  	<unknown>
    29de: 0d 40        	<unknown>
    29e0: 01 f6        	<unknown>
    29e2: 0d 00        	<unknown>
    29e4: 00 01        	<unknown>
    29e6: 09 f6        	<unknown>
    29e8: 0d 00        	<unknown>
    29ea: 00 00        	<unknown>
    29ec: 27 1c 10 00  	<unknown>
    29f0: 00 b2        	<unknown>
    29f2: 0a 00        	<unknown>
    29f4: 00 0d        	<unknown>
    29f6: 42 01        	<unknown>
    29f8: f6 0d        	<unknown>
    29fa: 00 00        	<unknown>
    29fc: 01 09        	<unknown>
    29fe: f6 0d        	<unknown>
    2a00: 00 00        	<unknown>
    2a02: 00 0c        	<unknown>
    2a04: 0f 26 d6 0b  	<unknown>
    2a08: 00 00        	<unknown>
    2a0a: 0e dd        	<unknown>
    2a0c: 16 00        	<unknown>
    2a0e: 00 0c        	<unknown>
    2a10: 0f 36 a5 0d  	<unknown>
    2a14: 00 00        	<unknown>
    2a16: 00           	<unknown>

Disassembly of section .debug_abbrev:

0000000000000000 <.debug_abbrev>:
       0: 01 11        	<unknown>
       2: 01 25        	<unknown>
       4: 0e 13        	<unknown>
       6: 05 03        	<unknown>
       8: 0e 10        	<unknown>
       a: 06 1b        	<unknown>
       c: 0e 00        	<unknown>
       e: 00 02        	<unknown>
      10: 39 01        	<unknown>
      12: 03 0e 00 00  	lb	t3, 0x0(zero)
      16: 03 04 01 03  	lb	s0, 0x30(sp)
      1a: 0e 0b        	<unknown>
      1c: 0b 3a 0b 3b  	<unknown>
      20: 0b 00 00 04  	<unknown>
      24: 28 00        	<unknown>
      26: 03 0e 1c 0f  	lb	t3, 0xf1(s8)
      2a: 00 00        	<unknown>
      2c: 05 13        	<unknown>
      2e: 01 36        	<unknown>
      30: 0b 03 0e 0b  	<unknown>
      34: 0b 3a 0b 3b  	<unknown>
      38: 0b 00 00 06  	<unknown>
      3c: 0d 00        	<unknown>
      3e: 03 0e 49 13  	lb	t3, 0x134(s2)
      42: 3a 0b        	<unknown>
      44: 3b 0b 38 0a  	<unknown>
      48: 00 00        	<unknown>
      4a: 07 2e 01 03  	flw	ft8, 0x30(sp)
      4e: 0e 3a        	<unknown>
      50: 0b 3b 0b 3c  	<unknown>
      54: 0c 3f        	<unknown>
      56: 0c 00        	<unknown>
      58: 00 08        	<unknown>
      5a: 05 00        	<unknown>
      5c: 49 13        	<unknown>
      5e: 34 0c        	<unknown>
      60: 00 00        	<unknown>
      62: 09 05        	<unknown>
      64: 00 49        	<unknown>
      66: 13 00 00 0a  	li	zero, 0xa0
      6a: 16 00        	<unknown>
      6c: 49 13        	<unknown>
      6e: 03 0e 3a 0b  	lb	t3, 0xb3(s4)
      72: 3b 0b 00 00  	addw	s6, zero, zero
      76: 0b 2e 01 87  	<unknown>
      7a: 40 0e        	<unknown>
      7c: 03 0e 3a 0b  	lb	t3, 0xb3(s4)
      80: 3b 0b 49 13  	<unknown>
      84: 3c 0c        	<unknown>
      86: 3f 0c 00 00  	<unknown>
      8a: 0c 08        	<unknown>
      8c: 00 3a        	<unknown>
      8e: 0b 3b 0b 18  	<unknown>
      92: 13 00 00 0d  	li	zero, 0xd0
      96: 24 00        	<unknown>
      98: 03 0e 3e 0b  	lb	t3, 0xb3(t3)
      9c: 0b 0b 00 00  	<unknown>
      a0: 0e 0f        	<unknown>
      a2: 00 49        	<unknown>
      a4: 13 00 00 0f  	li	zero, 0xf0
      a8: 13 01 36 0b  	addi	sp, a2, 0xb3
      ac: 03 0e 0b 0b  	lb	t3, 0xb0(s6)
      b0: 3a 0b        	<unknown>
      b2: 3b 05 00 00  	addw	a0, zero, zero
      b6: 10 0d        	<unknown>
      b8: 00 03        	<unknown>
      ba: 0e 49        	<unknown>
      bc: 13 3a 0b 3b  	sltiu	s4, s6, 0x3b0
      c0: 05 38        	<unknown>
      c2: 0a 00        	<unknown>
      c4: 00 11        	<unknown>
      c6: 2e 01        	<unknown>
      c8: 03 0e 3a 0b  	lb	t3, 0xb3(s4)
      cc: 3b 05 3c 0c  	<unknown>
      d0: 3f 0c 00 00  	<unknown>
      d4: 12 2e        	<unknown>
      d6: 01 87        	<unknown>
      d8: 40 0e        	<unknown>
      da: 03 0e 3a 0b  	lb	t3, 0xb3(s4)
      de: 3b 05 49 13  	<unknown>
      e2: 3c 0c        	<unknown>
      e4: 3f 0c 00 00  	<unknown>
      e8: 13 16 00 49  	<unknown>
      ec: 13 03 0e 3a  	addi	t1, t3, 0x3a0
      f0: 0b 3b 05 00  	<unknown>
      f4: 00 14        	<unknown>
      f6: 26 00        	<unknown>
      f8: 49 13        	<unknown>
      fa: 00 00        	<unknown>
      fc: 15 2e        	<unknown>
      fe: 00 87        	<unknown>
     100: 40 0e        	<unknown>
     102: 03 0e 3a 0b  	lb	t3, 0xb3(s4)
     106: 3b 0b 49 13  	<unknown>
     10a: 3c 0c        	<unknown>
     10c: 3f 0c 00 00  	<unknown>
     110: 16 2e        	<unknown>
     112: 01 03        	<unknown>
     114: 0e 3a        	<unknown>
     116: 0b 3b 0b 3c  	<unknown>
     11a: 0c 3f        	<unknown>
     11c: 0c 32        	<unknown>
     11e: 0b 00 00 17  	<unknown>
     122: 2e 01        	<unknown>
     124: 87 40 0e 03  	<unknown>
     128: 0e 3a        	<unknown>
     12a: 0b 3b 0b 3c  	<unknown>
     12e: 0c 3f        	<unknown>
     130: 0c 32        	<unknown>
     132: 0b 00 00 18  	<unknown>
     136: 2e 01        	<unknown>
     138: 87 40 0e 03  	<unknown>
     13c: 0e 3a        	<unknown>
     13e: 0b 3b 0b 49  	<unknown>
     142: 13 3c 0c 3f  	sltiu	s8, s8, 0x3f0
     146: 0c 32        	<unknown>
     148: 0b 00 00 19  	<unknown>
     14c: 10 00        	<unknown>
     14e: 49 13        	<unknown>
     150: 00 00        	<unknown>
     152: 1a 08        	<unknown>
     154: 00 3a        	<unknown>
     156: 0b 3b 05 18  	<unknown>
     15a: 13 00 00 1b  	li	zero, 0x1b0
     15e: 2e 01        	<unknown>
     160: 87 40 0e 03  	<unknown>
     164: 0e 3a        	<unknown>
     166: 0b 3b 0b 49  	<unknown>
     16a: 13 3c 0c 00  	sltiu	s8, s8, 0x0
     16e: 00 1c        	<unknown>
     170: 2e 01        	<unknown>
     172: 03 0e 3a 0b  	lb	t3, 0xb3(s4)
     176: 3b 05 49 13  	<unknown>
     17a: 3c 0c        	<unknown>
     17c: 3f 0c 00 00  	<unknown>
     180: 1d 2e        	<unknown>
     182: 01 03        	<unknown>
     184: 0e 3a        	<unknown>
     186: 0b 3b 0b 49  	<unknown>
     18a: 13 3c 0c 3f  	sltiu	s8, s8, 0x3f0
     18e: 0c 00        	<unknown>
     190: 00 1e        	<unknown>
     192: 13 00 3c 0c  	addi	zero, s8, 0xc3
     196: 00 00        	<unknown>
     198: 1f 13 01 36  	<unknown>
     19c: 0b 0b 0b 3a  	<unknown>
     1a0: 0b 3b 0b 00  	<unknown>
     1a4: 00 20        	<unknown>
     1a6: 2e 00        	<unknown>
     1a8: 03 0e 3a 0b  	lb	t3, 0xb3(s4)
     1ac: 3b 05 3c 0c  	<unknown>
     1b0: 3f 0c 87 01  	<unknown>
     1b4: 0c 00        	<unknown>
     1b6: 00 21        	<unknown>
     1b8: 15 00        	<unknown>
     1ba: 00 00        	<unknown>
     1bc: 22 0f        	<unknown>
     1be: 00 00        	<unknown>
     1c0: 00 23        	<unknown>
     1c2: 26 00        	<unknown>
     1c4: 00 00        	<unknown>
     1c6: 24 15        	<unknown>
     1c8: 01 49        	<unknown>
     1ca: 13 00 00 25  	li	zero, 0x250
     1ce: 2e 01        	<unknown>
     1d0: 03 0e 3a 0b  	lb	t3, 0xb3(s4)
     1d4: 3b 05 3c 0c  	<unknown>
     1d8: 3f 0c 87 01  	<unknown>
     1dc: 0c 00        	<unknown>
     1de: 00 26        	<unknown>
     1e0: 2e 00        	<unknown>
     1e2: 03 0e 3a 0b  	lb	t3, 0xb3(s4)
     1e6: 3b 05 49 13  	<unknown>
     1ea: 3c 0c        	<unknown>
     1ec: 3f 0c 00 00  	<unknown>
     1f0: 27 2e 01 87  	fsw	fa6, -0x784(sp)
     1f4: 40 0e        	<unknown>
     1f6: 03 0e 3a 0b  	lb	t3, 0xb3(s4)
     1fa: 3b 05 49 13  	<unknown>
     1fe: 3c 0c        	<unknown>
     200: 00 00        	<unknown>
     202: 00           	<unknown>

Disassembly of section .debug_line:

0000000000000000 <.debug_line>:
       0: 0c 03        	<unknown>
       2: 00 00        	<unknown>
       4: 02 00        	<unknown>
       6: 06 03        	<unknown>
       8: 00 00        	<unknown>
       a: 01 01        	<unknown>
       c: fb 0e 0d 00  	<unknown>
      10: 01 01        	<unknown>
      12: 01 01        	<unknown>
      14: 00 00        	<unknown>
      16: 00 01        	<unknown>
      18: 00 00        	<unknown>
      1a: 01 2f        	<unknown>
      1c: 6e 65        	<unknown>
      1e: 74 68        	<unknown>
      20: 6f 6d 65 2f  	jal	s10, 0x56316 <.debug_info+0x56316>
      24: 63 61 68 6e  	bltu	a6, t1, 0x706 <.debug_info+0x706>
      28: 34 35        	<unknown>
      2a: 2f 43 75 50  	<unknown>
      2e: 42 6f        	<unknown>
      30: 50 00        	<unknown>
      32: 2f 6e 65 74  	<unknown>
      36: 68 6f        	<unknown>
      38: 6d 65        	<unknown>
      3a: 2f 63 61 68  	<unknown>
      3e: 6e 34        	<unknown>
      40: 35 00        	<unknown>
      42: 2f 75 73 72  	<unknown>
      46: 2f 69 6e 63  	<unknown>
      4a: 6c 75        	<unknown>
      4c: 64 65        	<unknown>
      4e: 00 2f        	<unknown>
      50: 75 73        	<unknown>
      52: 72 2f        	<unknown>
      54: 6c 69        	<unknown>
      56: 62 2f        	<unknown>
      58: 67 63 63 2f  	<unknown>
      5c: 78 38        	<unknown>
      5e: 36 5f        	<unknown>
      60: 36 34        	<unknown>
      62: 2d 6c        	<unknown>
      64: 69 6e        	<unknown>
      66: 75 78        	<unknown>
      68: 2d 67        	<unknown>
      6a: 6e 75        	<unknown>
      6c: 2f 31 33 2f  	<unknown>
      70: 2e 2e        	<unknown>
      72: 2f 2e 2e 2f  	<unknown>
      76: 2e 2e        	<unknown>
      78: 2f 2e 2e 2f  	<unknown>
      7c: 69 6e        	<unknown>
      7e: 63 6c 75 64  	bltu	a0, t2, 0x6d6 <.debug_info+0x6d6>
      82: 65 2f        	<unknown>
      84: 63 2b 2b 2f  	<unknown>
      88: 31 33        	<unknown>
      8a: 2f 62 69 74  	<unknown>
      8e: 73 00 2f 75  	<unknown>
      92: 73 72 2f 69  	csrrci	tp, 0x692, 0x1e
      96: 6e 63        	<unknown>
      98: 6c 75        	<unknown>
      9a: 64 65        	<unknown>
      9c: 2f 78 38 36  	<unknown>
      a0: 5f 36 34 2d  	<unknown>
      a4: 6c 69        	<unknown>
      a6: 6e 75        	<unknown>
      a8: 78 2d        	<unknown>
      aa: 67 6e 75 2f  	<unknown>
      ae: 62 69        	<unknown>
      b0: 74 73        	<unknown>
      b2: 00 2f        	<unknown>
      b4: 75 73        	<unknown>
      b6: 72 2f        	<unknown>
      b8: 6c 69        	<unknown>
      ba: 62 2f        	<unknown>
      bc: 67 63 63 2f  	<unknown>
      c0: 78 38        	<unknown>
      c2: 36 5f        	<unknown>
      c4: 36 34        	<unknown>
      c6: 2d 6c        	<unknown>
      c8: 69 6e        	<unknown>
      ca: 75 78        	<unknown>
      cc: 2d 67        	<unknown>
      ce: 6e 75        	<unknown>
      d0: 2f 31 33 2f  	<unknown>
      d4: 2e 2e        	<unknown>
      d6: 2f 2e 2e 2f  	<unknown>
      da: 2e 2e        	<unknown>
      dc: 2f 2e 2e 2f  	<unknown>
      e0: 69 6e        	<unknown>
      e2: 63 6c 75 64  	bltu	a0, t2, 0x73a <.debug_info+0x73a>
      e6: 65 2f        	<unknown>
      e8: 63 2b 2b 2f  	<unknown>
      ec: 31 33        	<unknown>
      ee: 00 00        	<unknown>
      f0: 63 75 64 61  	bgeu	s0, s6, 0x6fa <.debug_info+0x6fa>
      f4: 2d 31        	<unknown>
      f6: 32 2e        	<unknown>
      f8: 31 2f        	<unknown>
      fa: 69 6e        	<unknown>
      fc: 63 6c 75 64  	bltu	a0, t2, 0x754 <.debug_info+0x754>
     100: 65 2f        	<unknown>
     102: 6e 76        	<unknown>
     104: 2f 74 61 72  	<unknown>
     108: 67 65 74 00  	<unknown>
     10c: 01 00        	<unknown>
     10e: 00 63        	<unknown>
     110: 75 64        	<unknown>
     112: 61 2d        	<unknown>
     114: 31 32        	<unknown>
     116: 2e 31        	<unknown>
     118: 2f 69 6e 63  	<unknown>
     11c: 6c 75        	<unknown>
     11e: 64 65        	<unknown>
     120: 2f 76 65 63  	<unknown>
     124: 74 6f        	<unknown>
     126: 72 5f        	<unknown>
     128: 74 79        	<unknown>
     12a: 70 65        	<unknown>
     12c: 73 2e 68 00  	csrrs	t3, 0x6, a6
     130: 01 00        	<unknown>
     132: 00 6c        	<unknown>
     134: 6c 76        	<unknown>
     136: 6d 2d        	<unknown>
     138: 76 6f        	<unknown>
     13a: 72 74        	<unknown>
     13c: 65 78        	<unknown>
     13e: 2d 77        	<unknown>
     140: 69 74        	<unknown>
     142: 68 2d        	<unknown>
     144: 63 75 64 61  	bgeu	s0, s6, 0x74e <.debug_info+0x74e>
     148: 2d 62        	<unknown>
     14a: 75 69        	<unknown>
     14c: 6c 64        	<unknown>
     14e: 2f 6c 69 62  	<unknown>
     152: 2f 63 6c 61  	<unknown>
     156: 6e 67        	<unknown>
     158: 2f 31 38 2f  	<unknown>
     15c: 69 6e        	<unknown>
     15e: 63 6c 75 64  	bltu	a0, t2, 0x7b6 <.debug_info+0x7b6>
     162: 65 2f        	<unknown>
     164: 5f 5f 63 6c  	<unknown>
     168: 61 6e        	<unknown>
     16a: 67 5f 63 75  	<unknown>
     16e: 64 61        	<unknown>
     170: 5f 62 75 69  	<unknown>
     174: 6c 74        	<unknown>
     176: 69 6e        	<unknown>
     178: 5f 76 61 72  	<unknown>
     17c: 73 2e 68 00  	csrrs	t3, 0x6, a6
     180: 02 00        	<unknown>
     182: 00 6c        	<unknown>
     184: 6c 76        	<unknown>
     186: 6d 2d        	<unknown>
     188: 76 6f        	<unknown>
     18a: 72 74        	<unknown>
     18c: 65 78        	<unknown>
     18e: 2d 77        	<unknown>
     190: 69 74        	<unknown>
     192: 68 2d        	<unknown>
     194: 63 75 64 61  	bgeu	s0, s6, 0x79e <.debug_info+0x79e>
     198: 2d 62        	<unknown>
     19a: 75 69        	<unknown>
     19c: 6c 64        	<unknown>
     19e: 2f 6c 69 62  	<unknown>
     1a2: 2f 63 6c 61  	<unknown>
     1a6: 6e 67        	<unknown>
     1a8: 2f 31 38 2f  	<unknown>
     1ac: 69 6e        	<unknown>
     1ae: 63 6c 75 64  	bltu	a0, t2, 0x806 <.debug_info+0x806>
     1b2: 65 2f        	<unknown>
     1b4: 5f 5f 63 6c  	<unknown>
     1b8: 61 6e        	<unknown>
     1ba: 67 5f 63 75  	<unknown>
     1be: 64 61        	<unknown>
     1c0: 5f 6d 61 74  	<unknown>
     1c4: 68 5f        	<unknown>
     1c6: 66 6f        	<unknown>
     1c8: 72 77        	<unknown>
     1ca: 61 72        	<unknown>
     1cc: 64 5f        	<unknown>
     1ce: 64 65        	<unknown>
     1d0: 63 6c 61 72  	bltu	sp, t1, 0x908 <.debug_info+0x908>
     1d4: 65 73        	<unknown>
     1d6: 2e 68        	<unknown>
     1d8: 00 02        	<unknown>
     1da: 00 00        	<unknown>
     1dc: 73 74 64 6c  	csrrci	s0, 0x6c6, 0x8
     1e0: 69 62        	<unknown>
     1e2: 2e 68        	<unknown>
     1e4: 00 03        	<unknown>
     1e6: 00 00        	<unknown>
     1e8: 73 74 64 5f  	csrrci	s0, 0x5f6, 0x8
     1ec: 61 62        	<unknown>
     1ee: 73 2e 68 00  	csrrs	t3, 0x6, a6
     1f2: 04 00        	<unknown>
     1f4: 00 6d        	<unknown>
     1f6: 61 74        	<unknown>
     1f8: 68 63        	<unknown>
     1fa: 61 6c        	<unknown>
     1fc: 6c 73        	<unknown>
     1fe: 2e 68        	<unknown>
     200: 00 05        	<unknown>
     202: 00 00        	<unknown>
     204: 63 6d 61 74  	bltu	sp, t1, 0x95e <.debug_info+0x95e>
     208: 68 00        	<unknown>
     20a: 06 00        	<unknown>
     20c: 00 6d        	<unknown>
     20e: 61 74        	<unknown>
     210: 68 2e        	<unknown>
     212: 68 00        	<unknown>
     214: 03 00 00 63  	lb	zero, 0x630(zero)
     218: 73 74 64 6c  	csrrci	s0, 0x6c6, 0x8
     21c: 69 62        	<unknown>
     21e: 00 06        	<unknown>
     220: 00 00        	<unknown>
     222: 6c 6c        	<unknown>
     224: 76 6d        	<unknown>
     226: 2d 76        	<unknown>
     228: 6f 72 74 65  	jal	tp, 0x4807e <.debug_info+0x4807e>
     22c: 78 2d        	<unknown>
     22e: 77 69 74 68  	<unknown>
     232: 2d 63        	<unknown>
     234: 75 64        	<unknown>
     236: 61 2d        	<unknown>
     238: 62 75        	<unknown>
     23a: 69 6c        	<unknown>
     23c: 64 2f        	<unknown>
     23e: 6c 69        	<unknown>
     240: 62 2f        	<unknown>
     242: 63 6c 61 6e  	bltu	sp, t1, 0x93a <.debug_info+0x93a>
     246: 67 2f 31 38  	<unknown>
     24a: 2f 69 6e 63  	<unknown>
     24e: 6c 75        	<unknown>
     250: 64 65        	<unknown>
     252: 2f 5f 5f 73  	<unknown>
     256: 74 64        	<unknown>
     258: 64 65        	<unknown>
     25a: 66 5f        	<unknown>
     25c: 73 69 7a 65  	csrrsi	s2, 0x657, 0x14
     260: 5f 74 2e 68  	<unknown>
     264: 00 02        	<unknown>
     266: 00 00        	<unknown>
     268: 73 74 64 6c  	csrrci	s0, 0x6c6, 0x8
     26c: 69 62        	<unknown>
     26e: 2e 68        	<unknown>
     270: 00 06        	<unknown>
     272: 00 00        	<unknown>
     274: 6c 6c        	<unknown>
     276: 76 6d        	<unknown>
     278: 2d 76        	<unknown>
     27a: 6f 72 74 65  	jal	tp, 0x480d0 <.debug_info+0x480d0>
     27e: 78 2d        	<unknown>
     280: 77 69 74 68  	<unknown>
     284: 2d 63        	<unknown>
     286: 75 64        	<unknown>
     288: 61 2d        	<unknown>
     28a: 62 75        	<unknown>
     28c: 69 6c        	<unknown>
     28e: 64 2f        	<unknown>
     290: 6c 69        	<unknown>
     292: 62 2f        	<unknown>
     294: 63 6c 61 6e  	bltu	sp, t1, 0x98c <.debug_info+0x98c>
     298: 67 2f 31 38  	<unknown>
     29c: 2f 69 6e 63  	<unknown>
     2a0: 6c 75        	<unknown>
     2a2: 64 65        	<unknown>
     2a4: 2f 5f 5f 63  	<unknown>
     2a8: 6c 61        	<unknown>
     2aa: 6e 67        	<unknown>
     2ac: 5f 63 75 64  	<unknown>
     2b0: 61 5f        	<unknown>
     2b2: 6d 61        	<unknown>
     2b4: 74 68        	<unknown>
     2b6: 2e 68        	<unknown>
     2b8: 00 02        	<unknown>
     2ba: 00 00        	<unknown>
     2bc: 6c 6c        	<unknown>
     2be: 76 6d        	<unknown>
     2c0: 2d 76        	<unknown>
     2c2: 6f 72 74 65  	jal	tp, 0x48118 <.debug_info+0x48118>
     2c6: 78 2d        	<unknown>
     2c8: 77 69 74 68  	<unknown>
     2cc: 2d 63        	<unknown>
     2ce: 75 64        	<unknown>
     2d0: 61 2d        	<unknown>
     2d2: 62 75        	<unknown>
     2d4: 69 6c        	<unknown>
     2d6: 64 2f        	<unknown>
     2d8: 6c 69        	<unknown>
     2da: 62 2f        	<unknown>
     2dc: 63 6c 61 6e  	bltu	sp, t1, 0x9d4 <.debug_info+0x9d4>
     2e0: 67 2f 31 38  	<unknown>
     2e4: 2f 69 6e 63  	<unknown>
     2e8: 6c 75        	<unknown>
     2ea: 64 65        	<unknown>
     2ec: 2f 5f 5f 63  	<unknown>
     2f0: 6c 61        	<unknown>
     2f2: 6e 67        	<unknown>
     2f4: 5f 63 75 64  	<unknown>
     2f8: 61 5f        	<unknown>
     2fa: 63 6d 61 74  	bltu	sp, t1, 0xa54 <.debug_info+0xa54>
     2fe: 68 2e        	<unknown>
     300: 68 00        	<unknown>
     302: 02 00        	<unknown>
     304: 00 6d        	<unknown>
     306: 61 74        	<unknown>
     308: 68 2e        	<unknown>
     30a: 68 00        	<unknown>
     30c: 06 00        	<unknown>
     30e: 00 00        	<unknown>

Disassembly of section .debug_frame:

0000000000000000 <.debug_frame>:
       0: 0c 00        	<unknown>
       2: 00 00        	<unknown>
       4: ff ff ff ff  	<unknown>
       8: 01 00        	<unknown>
       a: 01 78        	<unknown>
       c: 01 0c        	<unknown>
       e: 02 00        	<unknown>
      10: 24 00        	<unknown>
      12: 00 00        	<unknown>
      14: 00 00        	<unknown>
      16: 00 00        	<unknown>
      18: 4c 02        	<unknown>
      1a: 00 80        	<unknown>
      1c: 01 00        	<unknown>
      1e: 00 00        	<unknown>
      20: dc 00        	<unknown>
      22: 00 00        	<unknown>
      24: 00 00        	<unknown>
      26: 00 00        	<unknown>
      28: 44 0e        	<unknown>
      2a: 10 48        	<unknown>
      2c: 81 01        	<unknown>
      2e: 88 02        	<unknown>
      30: 44 0c        	<unknown>
      32: 08 00        	<unknown>
      34: 00 00        	<unknown>
      36: 00 00        	<unknown>
      38: 34 00        	<unknown>
      3a: 00 00        	<unknown>
      3c: 00 00        	<unknown>
      3e: 00 00        	<unknown>
      40: 28 03        	<unknown>
      42: 00 80        	<unknown>
      44: 01 00        	<unknown>
      46: 00 00        	<unknown>
      48: a8 01        	<unknown>
      4a: 00 00        	<unknown>
      4c: 00 00        	<unknown>
      4e: 00 00        	<unknown>
      50: 44 0e        	<unknown>
      52: 50 68        	<unknown>
      54: 81 01        	<unknown>
      56: 88 02        	<unknown>
      58: 89 03        	<unknown>
      5a: 92 04        	<unknown>
      5c: 93 05 94 06  	addi	a1, s0, 0x69
      60: 95 07        	<unknown>
      62: 96 08        	<unknown>
      64: 97 09 98 0a  	auipc	s3, 0xa980
      68: 44 0c        	<unknown>
      6a: 08 00        	<unknown>
      6c: 00 00        	<unknown>
      6e: 00 00        	<unknown>
      70: 14 00        	<unknown>
      72: 00 00        	<unknown>
      74: 00 00        	<unknown>
      76: 00 00        	<unknown>
      78: d0 04        	<unknown>
      7a: 00 80        	<unknown>
      7c: 01 00        	<unknown>
      7e: 00 00        	<unknown>
      80: 18 00        	<unknown>
      82: 00 00        	<unknown>
      84: 00 00        	<unknown>
      86: 00 00        	<unknown>
      88: 14 00        	<unknown>
      8a: 00 00        	<unknown>
      8c: 00 00        	<unknown>
      8e: 00 00        	<unknown>
      90: e8 04        	<unknown>
      92: 00 80        	<unknown>
      94: 01 00        	<unknown>
      96: 00 00        	<unknown>
      98: 1c 00        	<unknown>
      9a: 00 00        	<unknown>
      9c: 00 00        	<unknown>
      9e: 00 00        	<unknown>

Disassembly of section .debug_str:

0000000000000000 <.debug_str>:
       0: 63 6c 61 6e  	bltu	sp, t1, 0x6f8 <.debug_info+0x6f8>
       4: 67 20 76 65  	<unknown>
       8: 72 73        	<unknown>
       a: 69 6f        	<unknown>
       c: 6e 20        	<unknown>
       e: 31 38        	<unknown>
      10: 2e 31        	<unknown>
      12: 2e 37        	<unknown>
      14: 20 28        	<unknown>
      16: 68 74        	<unknown>
      18: 74 70        	<unknown>
      1a: 73 3a 2f 2f  	csrrc	s4, 0x2f2, t5
      1e: 67 69 74 68  	<unknown>
      22: 75 62        	<unknown>
      24: 2e 63        	<unknown>
      26: 6f 6d 2f 76  	jal	s10, 0xf6788 <.debug_info+0xf6788>
      2a: 6f 72 74 65  	jal	tp, 0x47e80 <.debug_info+0x47e80>
      2e: 78 67        	<unknown>
      30: 70 67        	<unknown>
      32: 70 75        	<unknown>
      34: 2f 6c 6c 76  	<unknown>
      38: 6d 2e        	<unknown>
      3a: 67 69 74 20  	<unknown>
      3e: 61 35        	<unknown>
      40: 65 62        	<unknown>
      42: 66 37        	<unknown>
      44: 66 32        	<unknown>
      46: 63 31 66 32  	<unknown>
      4a: 34 36        	<unknown>
      4c: 61 35        	<unknown>
      4e: 65 33        	<unknown>
      50: 61 30        	<unknown>
      52: 38 31        	<unknown>
      54: 61 34        	<unknown>
      56: 66 64        	<unknown>
      58: 31 35        	<unknown>
      5a: 37 36 32 34  	lui	a2, 0x34323
      5e: 37 65 35 37  	lui	a0, 0x37356
      62: 34 62        	<unknown>
      64: 33 30 29 00  	sltu	zero, s2, sp
      68: 67 61 75 73  	<unknown>
      6c: 73 69 61 6e  	csrrsi	s2, 0x6e6, 0x2
      70: 2e 63        	<unknown>
      72: 75 00        	<unknown>
      74: 2f 6e 65 74  	<unknown>
      78: 68 6f        	<unknown>
      7a: 6d 65        	<unknown>
      7c: 2f 63 61 68  	<unknown>
      80: 6e 34        	<unknown>
      82: 35 2f        	<unknown>
      84: 43 75 50 42  	fmadd.d	fa0, ft0, ft5, fs0
      88: 6f 50 2f 65  	j	0xf56da <.debug_info+0xf56da>
      8c: 78 61        	<unknown>
      8e: 6d 70        	<unknown>
      90: 6c 65        	<unknown>
      92: 73 2f 67 61  	csrrs	t5, 0x616, a4
      96: 75 73        	<unknown>
      98: 73 00 74 61  	<unknown>
      9c: 72 67        	<unknown>
      9e: 65 74        	<unknown>
      a0: 00 64        	<unknown>
      a2: 65 74        	<unknown>
      a4: 61 69        	<unknown>
      a6: 6c 00        	<unknown>
      a8: 73 6d 5f 33  	csrrsi	s10, mhpmevent21, 0x1e
      ac: 35 00        	<unknown>
      ae: 73 6d 5f 33  	csrrsi	s10, mhpmevent21, 0x1e
      b2: 37 00 73 6d  	lui	zero, 0x6d730
      b6: 5f 35 30 00  	<unknown>
      ba: 73 6d 5f 35  	csrrsi	s10, 0x355, 0x1e
      be: 32 00        	<unknown>
      c0: 73 6d 5f 35  	csrrsi	s10, 0x355, 0x1e
      c4: 33 00 73 6d  	<unknown>
      c8: 5f 36 30 00  	<unknown>
      cc: 73 6d 5f 36  	csrrsi	s10, 0x365, 0x1e
      d0: 31 00        	<unknown>
      d2: 73 6d 5f 36  	csrrsi	s10, 0x365, 0x1e
      d6: 32 00        	<unknown>
      d8: 73 6d 5f 37  	csrrsi	s10, 0x375, 0x1e
      dc: 30 00        	<unknown>
      de: 73 6d 5f 37  	csrrsi	s10, 0x375, 0x1e
      e2: 32 00        	<unknown>
      e4: 73 6d 5f 37  	csrrsi	s10, 0x375, 0x1e
      e8: 35 00        	<unknown>
      ea: 73 6d 5f 38  	csrrsi	s10, 0x385, 0x1e
      ee: 30 00        	<unknown>
      f0: 73 6d 5f 38  	csrrsi	s10, 0x385, 0x1e
      f4: 36 00        	<unknown>
      f6: 73 6d 5f 38  	csrrsi	s10, 0x385, 0x1e
      fa: 37 00 73 6d  	lui	zero, 0x6d730
      fe: 5f 38 39 00  	<unknown>
     102: 73 6d 5f 39  	csrrsi	s10, 0x395, 0x1e
     106: 30 00        	<unknown>
     108: 73 6d 5f 73  	csrrsi	s10, 0x735, 0x1e
     10c: 65 6c        	<unknown>
     10e: 65 63        	<unknown>
     110: 74 6f        	<unknown>
     112: 72 00        	<unknown>
     114: 74 61        	<unknown>
     116: 72 67        	<unknown>
     118: 65 74        	<unknown>
     11a: 73 00 75 6e  	<unknown>
     11e: 73 69 67 6e  	csrrsi	s2, 0x6e6, 0xe
     122: 65 64        	<unknown>
     124: 20 6c        	<unknown>
     126: 6f 6e 67 20  	jal	t3, 0x7632c <.debug_info+0x7632c>
     12a: 6c 6f        	<unknown>
     12c: 6e 67        	<unknown>
     12e: 00 62        	<unknown>
     130: 61 73        	<unknown>
     132: 65 5f        	<unknown>
     134: 69 6e        	<unknown>
     136: 74 5f        	<unknown>
     138: 74 00        	<unknown>
     13a: 74 61        	<unknown>
     13c: 72 67        	<unknown>
     13e: 65 74        	<unknown>
     140: 5f 64 65 73  	<unknown>
     144: 63 72 69 70  	bgeu	s2, t1, 0x848 <.debug_info+0x848>
     148: 74 69        	<unknown>
     14a: 6f 6e 00 75  	jal	t3, 0x689a <.debug_info+0x689a>
     14e: 6e 73        	<unknown>
     150: 69 67        	<unknown>
     152: 6e 65        	<unknown>
     154: 64 20        	<unknown>
     156: 69 6e        	<unknown>
     158: 74 00        	<unknown>
     15a: 5f 5a 4e 4b  	<unknown>
     15e: 34 64        	<unknown>
     160: 69 6d        	<unknown>
     162: 33 63 76 35  	<unknown>
     166: 75 69        	<unknown>
     168: 6e 74        	<unknown>
     16a: 33 45 76 00  	xor	a0, a2, t2
     16e: 6f 70 65 72  	j	0x57894 <.debug_info+0x57894>
     172: 61 74        	<unknown>
     174: 6f 72 20 75  	jal	tp, 0x78c6 <.debug_info+0x78c6>
     178: 69 6e        	<unknown>
     17a: 74 33        	<unknown>
     17c: 00 5f        	<unknown>
     17e: 5a 4e        	<unknown>
     180: 32 36        	<unknown>
     182: 5f 5f 63 75  	<unknown>
     186: 64 61        	<unknown>
     188: 5f 62 75 69  	<unknown>
     18c: 6c 74        	<unknown>
     18e: 69 6e        	<unknown>
     190: 5f 74 68 72  	<unknown>
     194: 65 61        	<unknown>
     196: 64 49        	<unknown>
     198: 64 78        	<unknown>
     19a: 5f 74 31 37  	<unknown>
     19e: 5f 5f 66 65  	<unknown>
     1a2: 74 63        	<unknown>
     1a4: 68 5f        	<unknown>
     1a6: 62 75        	<unknown>
     1a8: 69 6c        	<unknown>
     1aa: 74 69        	<unknown>
     1ac: 6e 5f        	<unknown>
     1ae: 78 45        	<unknown>
     1b0: 76 00        	<unknown>
     1b2: 5f 5f 66 65  	<unknown>
     1b6: 74 63        	<unknown>
     1b8: 68 5f        	<unknown>
     1ba: 62 75        	<unknown>
     1bc: 69 6c        	<unknown>
     1be: 74 69        	<unknown>
     1c0: 6e 5f        	<unknown>
     1c2: 78 00        	<unknown>
     1c4: 5f 5a 4e 32  	<unknown>
     1c8: 36 5f        	<unknown>
     1ca: 5f 63 75 64  	<unknown>
     1ce: 61 5f        	<unknown>
     1d0: 62 75        	<unknown>
     1d2: 69 6c        	<unknown>
     1d4: 74 69        	<unknown>
     1d6: 6e 5f        	<unknown>
     1d8: 74 68        	<unknown>
     1da: 72 65        	<unknown>
     1dc: 61 64        	<unknown>
     1de: 49 64        	<unknown>
     1e0: 78 5f        	<unknown>
     1e2: 74 31        	<unknown>
     1e4: 37 5f 5f 66  	lui	t5, 0x665f5
     1e8: 65 74        	<unknown>
     1ea: 63 68 5f 62  	bltu	t5, t0, 0x81a <.debug_info+0x81a>
     1ee: 75 69        	<unknown>
     1f0: 6c 74        	<unknown>
     1f2: 69 6e        	<unknown>
     1f4: 5f 79 45 76  	<unknown>
     1f8: 00 5f        	<unknown>
     1fa: 5f 66 65 74  	<unknown>
     1fe: 63 68 5f 62  	bltu	t5, t0, 0x82e <.debug_info+0x82e>
     202: 75 69        	<unknown>
     204: 6c 74        	<unknown>
     206: 69 6e        	<unknown>
     208: 5f 79 00 5f  	<unknown>
     20c: 5a 4e        	<unknown>
     20e: 32 36        	<unknown>
     210: 5f 5f 63 75  	<unknown>
     214: 64 61        	<unknown>
     216: 5f 62 75 69  	<unknown>
     21a: 6c 74        	<unknown>
     21c: 69 6e        	<unknown>
     21e: 5f 74 68 72  	<unknown>
     222: 65 61        	<unknown>
     224: 64 49        	<unknown>
     226: 64 78        	<unknown>
     228: 5f 74 31 37  	<unknown>
     22c: 5f 5f 66 65  	<unknown>
     230: 74 63        	<unknown>
     232: 68 5f        	<unknown>
     234: 62 75        	<unknown>
     236: 69 6c        	<unknown>
     238: 74 69        	<unknown>
     23a: 6e 5f        	<unknown>
     23c: 7a 45        	<unknown>
     23e: 76 00        	<unknown>
     240: 5f 5f 66 65  	<unknown>
     244: 74 63        	<unknown>
     246: 68 5f        	<unknown>
     248: 62 75        	<unknown>
     24a: 69 6c        	<unknown>
     24c: 74 69        	<unknown>
     24e: 6e 5f        	<unknown>
     250: 7a 00        	<unknown>
     252: 5f 5a 4e 4b  	<unknown>
     256: 32 36        	<unknown>
     258: 5f 5f 63 75  	<unknown>
     25c: 64 61        	<unknown>
     25e: 5f 62 75 69  	<unknown>
     262: 6c 74        	<unknown>
     264: 69 6e        	<unknown>
     266: 5f 74 68 72  	<unknown>
     26a: 65 61        	<unknown>
     26c: 64 49        	<unknown>
     26e: 64 78        	<unknown>
     270: 5f 74 63 76  	<unknown>
     274: 34 64        	<unknown>
     276: 69 6d        	<unknown>
     278: 33 45 76 00  	xor	a0, a2, t2
     27c: 6f 70 65 72  	j	0x579a2 <.debug_info+0x579a2>
     280: 61 74        	<unknown>
     282: 6f 72 20 64  	jal	tp, 0x78c4 <.debug_info+0x78c4>
     286: 69 6d        	<unknown>
     288: 33 00 5f 5a  	<unknown>
     28c: 4e 4b        	<unknown>
     28e: 32 36        	<unknown>
     290: 5f 5f 63 75  	<unknown>
     294: 64 61        	<unknown>
     296: 5f 62 75 69  	<unknown>
     29a: 6c 74        	<unknown>
     29c: 69 6e        	<unknown>
     29e: 5f 74 68 72  	<unknown>
     2a2: 65 61        	<unknown>
     2a4: 64 49        	<unknown>
     2a6: 64 78        	<unknown>
     2a8: 5f 74 63 76  	<unknown>
     2ac: 35 75        	<unknown>
     2ae: 69 6e        	<unknown>
     2b0: 74 33        	<unknown>
     2b2: 45 76        	<unknown>
     2b4: 00 5f        	<unknown>
     2b6: 5f 63 75 64  	<unknown>
     2ba: 61 5f        	<unknown>
     2bc: 62 75        	<unknown>
     2be: 69 6c        	<unknown>
     2c0: 74 69        	<unknown>
     2c2: 6e 5f        	<unknown>
     2c4: 74 68        	<unknown>
     2c6: 72 65        	<unknown>
     2c8: 61 64        	<unknown>
     2ca: 49 64        	<unknown>
     2cc: 78 5f        	<unknown>
     2ce: 74 00        	<unknown>
     2d0: 5f 5a 4e 4b  	<unknown>
     2d4: 32 36        	<unknown>
     2d6: 5f 5f 63 75  	<unknown>
     2da: 64 61        	<unknown>
     2dc: 5f 62 75 69  	<unknown>
     2e0: 6c 74        	<unknown>
     2e2: 69 6e        	<unknown>
     2e4: 5f 74 68 72  	<unknown>
     2e8: 65 61        	<unknown>
     2ea: 64 49        	<unknown>
     2ec: 64 78        	<unknown>
     2ee: 5f 74 61 53  	<unknown>
     2f2: 45 52        	<unknown>
     2f4: 4b 53 5f 00  	<unknown>
     2f8: 6f 70 65 72  	j	0x57a1e <.debug_info+0x57a1e>
     2fc: 61 74        	<unknown>
     2fe: 6f 72 3d 00  	jal	tp, 0xd7b00 <.debug_info+0xd7b00>
     302: 5f 5a 4e 4b  	<unknown>
     306: 32 36        	<unknown>
     308: 5f 5f 63 75  	<unknown>
     30c: 64 61        	<unknown>
     30e: 5f 62 75 69  	<unknown>
     312: 6c 74        	<unknown>
     314: 69 6e        	<unknown>
     316: 5f 74 68 72  	<unknown>
     31a: 65 61        	<unknown>
     31c: 64 49        	<unknown>
     31e: 64 78        	<unknown>
     320: 5f 74 61 64  	<unknown>
     324: 45 76        	<unknown>
     326: 00 6f        	<unknown>
     328: 70 65        	<unknown>
     32a: 72 61        	<unknown>
     32c: 74 6f        	<unknown>
     32e: 72 26        	<unknown>
     330: 00 5f        	<unknown>
     332: 5a 4e        	<unknown>
     334: 32 35        	<unknown>
     336: 5f 5f 63 75  	<unknown>
     33a: 64 61        	<unknown>
     33c: 5f 62 75 69  	<unknown>
     340: 6c 74        	<unknown>
     342: 69 6e        	<unknown>
     344: 5f 62 6c 6f  	<unknown>
     348: 63 6b 49 64  	bltu	s2, tp, 0x99e <.debug_info+0x99e>
     34c: 78 5f        	<unknown>
     34e: 74 31        	<unknown>
     350: 37 5f 5f 66  	lui	t5, 0x665f5
     354: 65 74        	<unknown>
     356: 63 68 5f 62  	bltu	t5, t0, 0x986 <.debug_info+0x986>
     35a: 75 69        	<unknown>
     35c: 6c 74        	<unknown>
     35e: 69 6e        	<unknown>
     360: 5f 78 45 76  	<unknown>
     364: 00 5f        	<unknown>
     366: 5a 4e        	<unknown>
     368: 32 35        	<unknown>
     36a: 5f 5f 63 75  	<unknown>
     36e: 64 61        	<unknown>
     370: 5f 62 75 69  	<unknown>
     374: 6c 74        	<unknown>
     376: 69 6e        	<unknown>
     378: 5f 62 6c 6f  	<unknown>
     37c: 63 6b 49 64  	bltu	s2, tp, 0x9d2 <.debug_info+0x9d2>
     380: 78 5f        	<unknown>
     382: 74 31        	<unknown>
     384: 37 5f 5f 66  	lui	t5, 0x665f5
     388: 65 74        	<unknown>
     38a: 63 68 5f 62  	bltu	t5, t0, 0x9ba <.debug_info+0x9ba>
     38e: 75 69        	<unknown>
     390: 6c 74        	<unknown>
     392: 69 6e        	<unknown>
     394: 5f 79 45 76  	<unknown>
     398: 00 5f        	<unknown>
     39a: 5a 4e        	<unknown>
     39c: 32 35        	<unknown>
     39e: 5f 5f 63 75  	<unknown>
     3a2: 64 61        	<unknown>
     3a4: 5f 62 75 69  	<unknown>
     3a8: 6c 74        	<unknown>
     3aa: 69 6e        	<unknown>
     3ac: 5f 62 6c 6f  	<unknown>
     3b0: 63 6b 49 64  	bltu	s2, tp, 0xa06 <.debug_info+0xa06>
     3b4: 78 5f        	<unknown>
     3b6: 74 31        	<unknown>
     3b8: 37 5f 5f 66  	lui	t5, 0x665f5
     3bc: 65 74        	<unknown>
     3be: 63 68 5f 62  	bltu	t5, t0, 0x9ee <.debug_info+0x9ee>
     3c2: 75 69        	<unknown>
     3c4: 6c 74        	<unknown>
     3c6: 69 6e        	<unknown>
     3c8: 5f 7a 45 76  	<unknown>
     3cc: 00 5f        	<unknown>
     3ce: 5a 4e        	<unknown>
     3d0: 4b 32 35 5f  	<unknown>
     3d4: 5f 63 75 64  	<unknown>
     3d8: 61 5f        	<unknown>
     3da: 62 75        	<unknown>
     3dc: 69 6c        	<unknown>
     3de: 74 69        	<unknown>
     3e0: 6e 5f        	<unknown>
     3e2: 62 6c        	<unknown>
     3e4: 6f 63 6b 49  	jal	t1, 0xb687a <.debug_info+0xb687a>
     3e8: 64 78        	<unknown>
     3ea: 5f 74 63 76  	<unknown>
     3ee: 34 64        	<unknown>
     3f0: 69 6d        	<unknown>
     3f2: 33 45 76 00  	xor	a0, a2, t2
     3f6: 5f 5a 4e 4b  	<unknown>
     3fa: 32 35        	<unknown>
     3fc: 5f 5f 63 75  	<unknown>
     400: 64 61        	<unknown>
     402: 5f 62 75 69  	<unknown>
     406: 6c 74        	<unknown>
     408: 69 6e        	<unknown>
     40a: 5f 62 6c 6f  	<unknown>
     40e: 63 6b 49 64  	bltu	s2, tp, 0xa64 <.debug_info+0xa64>
     412: 78 5f        	<unknown>
     414: 74 63        	<unknown>
     416: 76 35        	<unknown>
     418: 75 69        	<unknown>
     41a: 6e 74        	<unknown>
     41c: 33 45 76 00  	xor	a0, a2, t2
     420: 5f 5f 63 75  	<unknown>
     424: 64 61        	<unknown>
     426: 5f 62 75 69  	<unknown>
     42a: 6c 74        	<unknown>
     42c: 69 6e        	<unknown>
     42e: 5f 62 6c 6f  	<unknown>
     432: 63 6b 49 64  	bltu	s2, tp, 0xa88 <.debug_info+0xa88>
     436: 78 5f        	<unknown>
     438: 74 00        	<unknown>
     43a: 5f 5a 4e 4b  	<unknown>
     43e: 32 35        	<unknown>
     440: 5f 5f 63 75  	<unknown>
     444: 64 61        	<unknown>
     446: 5f 62 75 69  	<unknown>
     44a: 6c 74        	<unknown>
     44c: 69 6e        	<unknown>
     44e: 5f 62 6c 6f  	<unknown>
     452: 63 6b 49 64  	bltu	s2, tp, 0xaa8 <.debug_info+0xaa8>
     456: 78 5f        	<unknown>
     458: 74 61        	<unknown>
     45a: 53 45 52 4b  	<unknown>
     45e: 53 5f 00 5f  	<unknown>
     462: 5a 4e        	<unknown>
     464: 4b 32 35 5f  	<unknown>
     468: 5f 63 75 64  	<unknown>
     46c: 61 5f        	<unknown>
     46e: 62 75        	<unknown>
     470: 69 6c        	<unknown>
     472: 74 69        	<unknown>
     474: 6e 5f        	<unknown>
     476: 62 6c        	<unknown>
     478: 6f 63 6b 49  	jal	t1, 0xb690e <.debug_info+0xb690e>
     47c: 64 78        	<unknown>
     47e: 5f 74 61 64  	<unknown>
     482: 45 76        	<unknown>
     484: 00 5f        	<unknown>
     486: 5a 4e        	<unknown>
     488: 32 35        	<unknown>
     48a: 5f 5f 63 75  	<unknown>
     48e: 64 61        	<unknown>
     490: 5f 62 75 69  	<unknown>
     494: 6c 74        	<unknown>
     496: 69 6e        	<unknown>
     498: 5f 62 6c 6f  	<unknown>
     49c: 63 6b 44 69  	bltu	s0, s4, 0xb32 <.debug_info+0xb32>
     4a0: 6d 5f        	<unknown>
     4a2: 74 31        	<unknown>
     4a4: 37 5f 5f 66  	lui	t5, 0x665f5
     4a8: 65 74        	<unknown>
     4aa: 63 68 5f 62  	bltu	t5, t0, 0xada <.debug_info+0xada>
     4ae: 75 69        	<unknown>
     4b0: 6c 74        	<unknown>
     4b2: 69 6e        	<unknown>
     4b4: 5f 78 45 76  	<unknown>
     4b8: 00 5f        	<unknown>
     4ba: 5a 4e        	<unknown>
     4bc: 32 35        	<unknown>
     4be: 5f 5f 63 75  	<unknown>
     4c2: 64 61        	<unknown>
     4c4: 5f 62 75 69  	<unknown>
     4c8: 6c 74        	<unknown>
     4ca: 69 6e        	<unknown>
     4cc: 5f 62 6c 6f  	<unknown>
     4d0: 63 6b 44 69  	bltu	s0, s4, 0xb66 <.debug_info+0xb66>
     4d4: 6d 5f        	<unknown>
     4d6: 74 31        	<unknown>
     4d8: 37 5f 5f 66  	lui	t5, 0x665f5
     4dc: 65 74        	<unknown>
     4de: 63 68 5f 62  	bltu	t5, t0, 0xb0e <.debug_info+0xb0e>
     4e2: 75 69        	<unknown>
     4e4: 6c 74        	<unknown>
     4e6: 69 6e        	<unknown>
     4e8: 5f 79 45 76  	<unknown>
     4ec: 00 5f        	<unknown>
     4ee: 5a 4e        	<unknown>
     4f0: 32 35        	<unknown>
     4f2: 5f 5f 63 75  	<unknown>
     4f6: 64 61        	<unknown>
     4f8: 5f 62 75 69  	<unknown>
     4fc: 6c 74        	<unknown>
     4fe: 69 6e        	<unknown>
     500: 5f 62 6c 6f  	<unknown>
     504: 63 6b 44 69  	bltu	s0, s4, 0xb9a <.debug_info+0xb9a>
     508: 6d 5f        	<unknown>
     50a: 74 31        	<unknown>
     50c: 37 5f 5f 66  	lui	t5, 0x665f5
     510: 65 74        	<unknown>
     512: 63 68 5f 62  	bltu	t5, t0, 0xb42 <.debug_info+0xb42>
     516: 75 69        	<unknown>
     518: 6c 74        	<unknown>
     51a: 69 6e        	<unknown>
     51c: 5f 7a 45 76  	<unknown>
     520: 00 5f        	<unknown>
     522: 5a 4e        	<unknown>
     524: 4b 32 35 5f  	<unknown>
     528: 5f 63 75 64  	<unknown>
     52c: 61 5f        	<unknown>
     52e: 62 75        	<unknown>
     530: 69 6c        	<unknown>
     532: 74 69        	<unknown>
     534: 6e 5f        	<unknown>
     536: 62 6c        	<unknown>
     538: 6f 63 6b 44  	jal	t1, 0xb697e <.debug_info+0xb697e>
     53c: 69 6d        	<unknown>
     53e: 5f 74 63 76  	<unknown>
     542: 34 64        	<unknown>
     544: 69 6d        	<unknown>
     546: 33 45 76 00  	xor	a0, a2, t2
     54a: 5f 5a 4e 4b  	<unknown>
     54e: 32 35        	<unknown>
     550: 5f 5f 63 75  	<unknown>
     554: 64 61        	<unknown>
     556: 5f 62 75 69  	<unknown>
     55a: 6c 74        	<unknown>
     55c: 69 6e        	<unknown>
     55e: 5f 62 6c 6f  	<unknown>
     562: 63 6b 44 69  	bltu	s0, s4, 0xbf8 <.debug_info+0xbf8>
     566: 6d 5f        	<unknown>
     568: 74 63        	<unknown>
     56a: 76 35        	<unknown>
     56c: 75 69        	<unknown>
     56e: 6e 74        	<unknown>
     570: 33 45 76 00  	xor	a0, a2, t2
     574: 5f 5f 63 75  	<unknown>
     578: 64 61        	<unknown>
     57a: 5f 62 75 69  	<unknown>
     57e: 6c 74        	<unknown>
     580: 69 6e        	<unknown>
     582: 5f 62 6c 6f  	<unknown>
     586: 63 6b 44 69  	bltu	s0, s4, 0xc1c <.debug_info+0xc1c>
     58a: 6d 5f        	<unknown>
     58c: 74 00        	<unknown>
     58e: 5f 5a 4e 4b  	<unknown>
     592: 32 35        	<unknown>
     594: 5f 5f 63 75  	<unknown>
     598: 64 61        	<unknown>
     59a: 5f 62 75 69  	<unknown>
     59e: 6c 74        	<unknown>
     5a0: 69 6e        	<unknown>
     5a2: 5f 62 6c 6f  	<unknown>
     5a6: 63 6b 44 69  	bltu	s0, s4, 0xc3c <.debug_info+0xc3c>
     5aa: 6d 5f        	<unknown>
     5ac: 74 61        	<unknown>
     5ae: 53 45 52 4b  	<unknown>
     5b2: 53 5f 00 5f  	<unknown>
     5b6: 5a 4e        	<unknown>
     5b8: 4b 32 35 5f  	<unknown>
     5bc: 5f 63 75 64  	<unknown>
     5c0: 61 5f        	<unknown>
     5c2: 62 75        	<unknown>
     5c4: 69 6c        	<unknown>
     5c6: 74 69        	<unknown>
     5c8: 6e 5f        	<unknown>
     5ca: 62 6c        	<unknown>
     5cc: 6f 63 6b 44  	jal	t1, 0xb6a12 <.debug_info+0xb6a12>
     5d0: 69 6d        	<unknown>
     5d2: 5f 74 61 64  	<unknown>
     5d6: 45 76        	<unknown>
     5d8: 00 73        	<unknown>
     5da: 74 64        	<unknown>
     5dc: 00 5f        	<unknown>
     5de: 5a 4c        	<unknown>
     5e0: 33 61 62 73  	<unknown>
     5e4: 69 00        	<unknown>
     5e6: 5f 5a 4c 34  	<unknown>
     5ea: 61 63        	<unknown>
     5ec: 6f 73 66 00  	jal	t1, 0x675f2 <.debug_info+0x675f2>
     5f0: 61 63        	<unknown>
     5f2: 6f 73 00 66  	jal	t1, 0x7c52 <.debug_info+0x7c52>
     5f6: 6c 6f        	<unknown>
     5f8: 61 74        	<unknown>
     5fa: 00 5f        	<unknown>
     5fc: 5a 4c        	<unknown>
     5fe: 35 61        	<unknown>
     600: 63 6f 73 68  	bltu	t1, t2, 0xc9e <.debug_info+0xc9e>
     604: 66 00        	<unknown>
     606: 61 63        	<unknown>
     608: 6f 73 68 00  	jal	t1, 0x8760e <.debug_info+0x8760e>
     60c: 5f 5a 4c 34  	<unknown>
     610: 61 73        	<unknown>
     612: 69 6e        	<unknown>
     614: 66 00        	<unknown>
     616: 61 73        	<unknown>
     618: 69 6e        	<unknown>
     61a: 00 5f        	<unknown>
     61c: 5a 4c        	<unknown>
     61e: 35 61        	<unknown>
     620: 73 69 6e 68  	csrrsi	s2, 0x686, 0x1c
     624: 66 00        	<unknown>
     626: 61 73        	<unknown>
     628: 69 6e        	<unknown>
     62a: 68 00        	<unknown>
     62c: 5f 5a 4c 34  	<unknown>
     630: 61 74        	<unknown>
     632: 61 6e        	<unknown>
     634: 66 00        	<unknown>
     636: 61 74        	<unknown>
     638: 61 6e        	<unknown>
     63a: 00 5f        	<unknown>
     63c: 5a 4c        	<unknown>
     63e: 35 61        	<unknown>
     640: 74 61        	<unknown>
     642: 6e 32        	<unknown>
     644: 66 66        	<unknown>
     646: 00 61        	<unknown>
     648: 74 61        	<unknown>
     64a: 6e 32        	<unknown>
     64c: 00 5f        	<unknown>
     64e: 5a 4c        	<unknown>
     650: 35 61        	<unknown>
     652: 74 61        	<unknown>
     654: 6e 68        	<unknown>
     656: 66 00        	<unknown>
     658: 61 74        	<unknown>
     65a: 61 6e        	<unknown>
     65c: 68 00        	<unknown>
     65e: 5f 5a 4c 34  	<unknown>
     662: 63 62 72 74  	bltu	tp, t2, 0xda6 <.debug_info+0xda6>
     666: 66 00        	<unknown>
     668: 63 62 72 74  	bltu	tp, t2, 0xdac <.debug_info+0xdac>
     66c: 00 5f        	<unknown>
     66e: 5a 4c        	<unknown>
     670: 34 63        	<unknown>
     672: 65 69        	<unknown>
     674: 6c 66        	<unknown>
     676: 00 63        	<unknown>
     678: 65 69        	<unknown>
     67a: 6c 00        	<unknown>
     67c: 5f 5a 4c 38  	<unknown>
     680: 63 6f 70 79  	bltu	zero, s7, 0xe1e <.debug_info+0xe1e>
     684: 73 69 67 6e  	csrrsi	s2, 0x6e6, 0xe
     688: 66 66        	<unknown>
     68a: 00 63        	<unknown>
     68c: 6f 70 79 73  	j	0x985c2 <.debug_info+0x985c2>
     690: 69 67        	<unknown>
     692: 6e 00        	<unknown>
     694: 5f 5a 4c 33  	<unknown>
     698: 63 6f 73 66  	bltu	t1, t2, 0xd16 <.debug_info+0xd16>
     69c: 00 5f        	<unknown>
     69e: 5a 4c        	<unknown>
     6a0: 34 63        	<unknown>
     6a2: 6f 73 68 66  	jal	t1, 0x87d08 <.debug_info+0x87d08>
     6a6: 00 5f        	<unknown>
     6a8: 5a 4c        	<unknown>
     6aa: 33 65 72 66  	<unknown>
     6ae: 66 00        	<unknown>
     6b0: 5f 5a 4c 34  	<unknown>
     6b4: 65 72        	<unknown>
     6b6: 66 63        	<unknown>
     6b8: 66 00        	<unknown>
     6ba: 65 72        	<unknown>
     6bc: 66 63        	<unknown>
     6be: 00 5f        	<unknown>
     6c0: 5a 4c        	<unknown>
     6c2: 33 65 78 70  	<unknown>
     6c6: 66 00        	<unknown>
     6c8: 5f 5a 4c 34  	<unknown>
     6cc: 65 78        	<unknown>
     6ce: 70 32        	<unknown>
     6d0: 66 00        	<unknown>
     6d2: 65 78        	<unknown>
     6d4: 70 32        	<unknown>
     6d6: 00 5f        	<unknown>
     6d8: 5a 4c        	<unknown>
     6da: 35 65        	<unknown>
     6dc: 78 70        	<unknown>
     6de: 6d 31        	<unknown>
     6e0: 66 00        	<unknown>
     6e2: 65 78        	<unknown>
     6e4: 70 6d        	<unknown>
     6e6: 31 00        	<unknown>
     6e8: 5f 5a 4c 34  	<unknown>
     6ec: 66 61        	<unknown>
     6ee: 62 73        	<unknown>
     6f0: 66 00        	<unknown>
     6f2: 66 61        	<unknown>
     6f4: 62 73        	<unknown>
     6f6: 00 5f        	<unknown>
     6f8: 5a 4c        	<unknown>
     6fa: 34 66        	<unknown>
     6fc: 64 69        	<unknown>
     6fe: 6d 66        	<unknown>
     700: 66 00        	<unknown>
     702: 66 64        	<unknown>
     704: 69 6d        	<unknown>
     706: 00 5f        	<unknown>
     708: 5a 4c        	<unknown>
     70a: 35 66        	<unknown>
     70c: 6c 6f        	<unknown>
     70e: 6f 72 66 00  	jal	tp, 0x67714 <.debug_info+0x67714>
     712: 66 6c        	<unknown>
     714: 6f 6f 72 00  	jal	t5, 0x26f1a <.debug_info+0x26f1a>
     718: 5f 5a 4c 33  	<unknown>
     71c: 66 6d        	<unknown>
     71e: 61 66        	<unknown>
     720: 66 66        	<unknown>
     722: 00 66        	<unknown>
     724: 6d 61        	<unknown>
     726: 00 5f        	<unknown>
     728: 5a 4c        	<unknown>
     72a: 34 66        	<unknown>
     72c: 6d 61        	<unknown>
     72e: 78 66        	<unknown>
     730: 66 00        	<unknown>
     732: 66 6d        	<unknown>
     734: 61 78        	<unknown>
     736: 00 5f        	<unknown>
     738: 5a 4c        	<unknown>
     73a: 34 66        	<unknown>
     73c: 6d 69        	<unknown>
     73e: 6e 66        	<unknown>
     740: 66 00        	<unknown>
     742: 66 6d        	<unknown>
     744: 69 6e        	<unknown>
     746: 00 5f        	<unknown>
     748: 5a 4c        	<unknown>
     74a: 34 66        	<unknown>
     74c: 6d 6f        	<unknown>
     74e: 64 66        	<unknown>
     750: 66 00        	<unknown>
     752: 66 6d        	<unknown>
     754: 6f 64 00 5f  	jal	s0, 0x6d44 <.debug_info+0x6d44>
     758: 5a 4c        	<unknown>
     75a: 31 30        	<unknown>
     75c: 66 70        	<unknown>
     75e: 63 6c 61 73  	bltu	sp, s6, 0xe96 <.debug_info+0xe96>
     762: 73 69 66 79  	csrrsi	s2, 0x796, 0xc
     766: 66 00        	<unknown>
     768: 66 70        	<unknown>
     76a: 63 6c 61 73  	bltu	sp, s6, 0xea2 <.debug_info+0xea2>
     76e: 73 69 66 79  	csrrsi	s2, 0x796, 0xc
     772: 00 5f        	<unknown>
     774: 5a 4c        	<unknown>
     776: 35 66        	<unknown>
     778: 72 65        	<unknown>
     77a: 78 70        	<unknown>
     77c: 66 50        	<unknown>
     77e: 69 00        	<unknown>
     780: 66 72        	<unknown>
     782: 65 78        	<unknown>
     784: 70 00        	<unknown>
     786: 5f 5a 4c 35  	<unknown>
     78a: 68 79        	<unknown>
     78c: 70 6f        	<unknown>
     78e: 74 66        	<unknown>
     790: 66 00        	<unknown>
     792: 68 79        	<unknown>
     794: 70 6f        	<unknown>
     796: 74 00        	<unknown>
     798: 5f 5a 4c 35  	<unknown>
     79c: 69 6c        	<unknown>
     79e: 6f 67 62 66  	jal	a4, 0x26e04 <.debug_info+0x26e04>
     7a2: 00 69        	<unknown>
     7a4: 6c 6f        	<unknown>
     7a6: 67 62 00 5f  	<unknown>
     7aa: 5a 4c        	<unknown>
     7ac: 38 69        	<unknown>
     7ae: 73 66 69 6e  	csrrsi	a2, 0x6e6, 0x12
     7b2: 69 74        	<unknown>
     7b4: 65 66        	<unknown>
     7b6: 00 69        	<unknown>
     7b8: 73 66 69 6e  	csrrsi	a2, 0x6e6, 0x12
     7bc: 69 74        	<unknown>
     7be: 65 00        	<unknown>
     7c0: 62 6f        	<unknown>
     7c2: 6f 6c 00 5f  	jal	s8, 0x6db2 <.debug_info+0x6db2>
     7c6: 5a 4c        	<unknown>
     7c8: 39 69        	<unknown>
     7ca: 73 67 72 65  	csrrsi	a4, 0x657, 0x4
     7ce: 61 74        	<unknown>
     7d0: 65 72        	<unknown>
     7d2: 66 66        	<unknown>
     7d4: 00 69        	<unknown>
     7d6: 73 67 72 65  	csrrsi	a4, 0x657, 0x4
     7da: 61 74        	<unknown>
     7dc: 65 72        	<unknown>
     7de: 00 5f        	<unknown>
     7e0: 5a 4c        	<unknown>
     7e2: 31 34        	<unknown>
     7e4: 69 73        	<unknown>
     7e6: 67 72 65 61  	<unknown>
     7ea: 74 65        	<unknown>
     7ec: 72 65        	<unknown>
     7ee: 71 75        	<unknown>
     7f0: 61 6c        	<unknown>
     7f2: 66 66        	<unknown>
     7f4: 00 69        	<unknown>
     7f6: 73 67 72 65  	csrrsi	a4, 0x657, 0x4
     7fa: 61 74        	<unknown>
     7fc: 65 72        	<unknown>
     7fe: 65 71        	<unknown>
     800: 75 61        	<unknown>
     802: 6c 00        	<unknown>
     804: 5f 5a 4c 35  	<unknown>
     808: 69 73        	<unknown>
     80a: 69 6e        	<unknown>
     80c: 66 66        	<unknown>
     80e: 00 69        	<unknown>
     810: 73 69 6e 66  	csrrsi	s2, 0x666, 0x1c
     814: 00 5f        	<unknown>
     816: 5a 4c        	<unknown>
     818: 36 69        	<unknown>
     81a: 73 6c 65 73  	csrrsi	s8, 0x736, 0xa
     81e: 73 66 66 00  	csrrsi	a2, 0x6, 0xc
     822: 69 73        	<unknown>
     824: 6c 65        	<unknown>
     826: 73 73 00 5f  	csrrci	t1, 0x5f0, 0x0
     82a: 5a 4c        	<unknown>
     82c: 31 31        	<unknown>
     82e: 69 73        	<unknown>
     830: 6c 65        	<unknown>
     832: 73 73 65 71  	csrrci	t1, 0x716, 0xa
     836: 75 61        	<unknown>
     838: 6c 66        	<unknown>
     83a: 66 00        	<unknown>
     83c: 69 73        	<unknown>
     83e: 6c 65        	<unknown>
     840: 73 73 65 71  	csrrci	t1, 0x716, 0xa
     844: 75 61        	<unknown>
     846: 6c 00        	<unknown>
     848: 5f 5a 4c 31  	<unknown>
     84c: 33 69 73 6c  	<unknown>
     850: 65 73        	<unknown>
     852: 73 67 72 65  	csrrsi	a4, 0x657, 0x4
     856: 61 74        	<unknown>
     858: 65 72        	<unknown>
     85a: 66 66        	<unknown>
     85c: 00 69        	<unknown>
     85e: 73 6c 65 73  	csrrsi	s8, 0x736, 0xa
     862: 73 67 72 65  	csrrsi	a4, 0x657, 0x4
     866: 61 74        	<unknown>
     868: 65 72        	<unknown>
     86a: 00 5f        	<unknown>
     86c: 5a 4c        	<unknown>
     86e: 35 69        	<unknown>
     870: 73 6e 61 6e  	csrrsi	t3, 0x6e6, 0x2
     874: 66 00        	<unknown>
     876: 69 73        	<unknown>
     878: 6e 61        	<unknown>
     87a: 6e 00        	<unknown>
     87c: 5f 5a 4c 38  	<unknown>
     880: 69 73        	<unknown>
     882: 6e 6f        	<unknown>
     884: 72 6d        	<unknown>
     886: 61 6c        	<unknown>
     888: 66 00        	<unknown>
     88a: 69 73        	<unknown>
     88c: 6e 6f        	<unknown>
     88e: 72 6d        	<unknown>
     890: 61 6c        	<unknown>
     892: 00 5f        	<unknown>
     894: 5a 4c        	<unknown>
     896: 31 31        	<unknown>
     898: 69 73        	<unknown>
     89a: 75 6e        	<unknown>
     89c: 6f 72 64 65  	jal	tp, 0x47ef2 <.debug_info+0x47ef2>
     8a0: 72 65        	<unknown>
     8a2: 64 66        	<unknown>
     8a4: 66 00        	<unknown>
     8a6: 69 73        	<unknown>
     8a8: 75 6e        	<unknown>
     8aa: 6f 72 64 65  	jal	tp, 0x47f00 <.debug_info+0x47f00>
     8ae: 72 65        	<unknown>
     8b0: 64 00        	<unknown>
     8b2: 5f 5a 4c 34  	<unknown>
     8b6: 6c 61        	<unknown>
     8b8: 62 73        	<unknown>
     8ba: 6c 00        	<unknown>
     8bc: 5f 5a 4c 35  	<unknown>
     8c0: 6c 64        	<unknown>
     8c2: 65 78        	<unknown>
     8c4: 70 66        	<unknown>
     8c6: 69 00        	<unknown>
     8c8: 6c 64        	<unknown>
     8ca: 65 78        	<unknown>
     8cc: 70 00        	<unknown>
     8ce: 5f 5a 4c 36  	<unknown>
     8d2: 6c 67        	<unknown>
     8d4: 61 6d        	<unknown>
     8d6: 6d 61        	<unknown>
     8d8: 66 00        	<unknown>
     8da: 6c 67        	<unknown>
     8dc: 61 6d        	<unknown>
     8de: 6d 61        	<unknown>
     8e0: 00 5f        	<unknown>
     8e2: 5a 4c        	<unknown>
     8e4: 35 6c        	<unknown>
     8e6: 6c 61        	<unknown>
     8e8: 62 73        	<unknown>
     8ea: 78 00        	<unknown>
     8ec: 6c 6c        	<unknown>
     8ee: 61 62        	<unknown>
     8f0: 73 00 5f 5a  	<unknown>
     8f4: 4c 36        	<unknown>
     8f6: 6c 6c        	<unknown>
     8f8: 72 69        	<unknown>
     8fa: 6e 74        	<unknown>
     8fc: 66 00        	<unknown>
     8fe: 6c 6c        	<unknown>
     900: 72 69        	<unknown>
     902: 6e 74        	<unknown>
     904: 00 5f        	<unknown>
     906: 5a 4c        	<unknown>
     908: 33 6c 6f 67  	<unknown>
     90c: 66 00        	<unknown>
     90e: 6c 6f        	<unknown>
     910: 67 00 5f 5a  	jr	0x5a5(t5)
     914: 4c 35        	<unknown>
     916: 6c 6f        	<unknown>
     918: 67 31 30 66  	<unknown>
     91c: 00 6c        	<unknown>
     91e: 6f 67 31 30  	jal	a4, 0x17420 <.debug_info+0x17420>
     922: 00 5f        	<unknown>
     924: 5a 4c        	<unknown>
     926: 35 6c        	<unknown>
     928: 6f 67 31 70  	jal	a4, 0x1782a <.debug_info+0x1782a>
     92c: 66 00        	<unknown>
     92e: 6c 6f        	<unknown>
     930: 67 31 70 00  	<unknown>
     934: 5f 5a 4c 34  	<unknown>
     938: 6c 6f        	<unknown>
     93a: 67 32 66 00  	<unknown>
     93e: 6c 6f        	<unknown>
     940: 67 32 00 5f  	<unknown>
     944: 5a 4c        	<unknown>
     946: 34 6c        	<unknown>
     948: 6f 67 62 66  	jal	a4, 0x26fae <.debug_info+0x26fae>
     94c: 00 5f        	<unknown>
     94e: 5a 4c        	<unknown>
     950: 35 6c        	<unknown>
     952: 72 69        	<unknown>
     954: 6e 74        	<unknown>
     956: 66 00        	<unknown>
     958: 5f 5a 4c 36  	<unknown>
     95c: 6c 72        	<unknown>
     95e: 6f 75 6e 64  	jal	a0, 0xe7fa4 <.debug_info+0xe7fa4>
     962: 66 00        	<unknown>
     964: 5f 5a 4c 37  	<unknown>
     968: 6c 6c        	<unknown>
     96a: 72 6f        	<unknown>
     96c: 75 6e        	<unknown>
     96e: 64 66        	<unknown>
     970: 00 6c        	<unknown>
     972: 6c 72        	<unknown>
     974: 6f 75 6e 64  	jal	a0, 0xe7fba <.debug_info+0xe7fba>
     978: 00 5f        	<unknown>
     97a: 5a 4c        	<unknown>
     97c: 34 6d        	<unknown>
     97e: 6f 64 66 66  	jal	s0, 0x66fe4 <.debug_info+0x66fe4>
     982: 50 66        	<unknown>
     984: 00 5f        	<unknown>
     986: 5a 4c        	<unknown>
     988: 33 6e 61 6e  	<unknown>
     98c: 50 4b        	<unknown>
     98e: 63 00 63 68  	beq	t1, t1, 0x100e <.debug_info+0x100e>
     992: 61 72        	<unknown>
     994: 00 5f        	<unknown>
     996: 5a 4c        	<unknown>
     998: 34 6e        	<unknown>
     99a: 61 6e        	<unknown>
     99c: 66 50        	<unknown>
     99e: 4b 63 00 5f  	<unknown>
     9a2: 5a 4c        	<unknown>
     9a4: 39 6e        	<unknown>
     9a6: 65 61        	<unknown>
     9a8: 72 62        	<unknown>
     9aa: 79 69        	<unknown>
     9ac: 6e 74        	<unknown>
     9ae: 66 00        	<unknown>
     9b0: 6e 65        	<unknown>
     9b2: 61 72        	<unknown>
     9b4: 62 79        	<unknown>
     9b6: 69 6e        	<unknown>
     9b8: 74 00        	<unknown>
     9ba: 5f 5a 4c 39  	<unknown>
     9be: 6e 65        	<unknown>
     9c0: 78 74        	<unknown>
     9c2: 61 66        	<unknown>
     9c4: 74 65        	<unknown>
     9c6: 72 66        	<unknown>
     9c8: 66 00        	<unknown>
     9ca: 6e 65        	<unknown>
     9cc: 78 74        	<unknown>
     9ce: 61 66        	<unknown>
     9d0: 74 65        	<unknown>
     9d2: 72 00        	<unknown>
     9d4: 5f 5a 4c 33  	<unknown>
     9d8: 70 6f        	<unknown>
     9da: 77 66 69 00  	<unknown>
     9de: 70 6f        	<unknown>
     9e0: 77 00 5f 5a  	<unknown>
     9e4: 4c 39        	<unknown>
     9e6: 72 65        	<unknown>
     9e8: 6d 61        	<unknown>
     9ea: 69 6e        	<unknown>
     9ec: 64 65        	<unknown>
     9ee: 72 66        	<unknown>
     9f0: 66 00        	<unknown>
     9f2: 72 65        	<unknown>
     9f4: 6d 61        	<unknown>
     9f6: 69 6e        	<unknown>
     9f8: 64 65        	<unknown>
     9fa: 72 00        	<unknown>
     9fc: 5f 5a 4c 36  	<unknown>
     a00: 72 65        	<unknown>
     a02: 6d 71        	<unknown>
     a04: 75 6f        	<unknown>
     a06: 66 66        	<unknown>
     a08: 50 69        	<unknown>
     a0a: 00 72        	<unknown>
     a0c: 65 6d        	<unknown>
     a0e: 71 75        	<unknown>
     a10: 6f 00 5f 5a  	j	0xf17b4 <.debug_info+0xf17b4>
     a14: 4c 34        	<unknown>
     a16: 72 69        	<unknown>
     a18: 6e 74        	<unknown>
     a1a: 66 00        	<unknown>
     a1c: 5f 5a 4c 35  	<unknown>
     a20: 72 6f        	<unknown>
     a22: 75 6e        	<unknown>
     a24: 64 66        	<unknown>
     a26: 00 5f        	<unknown>
     a28: 5a 4c        	<unknown>
     a2a: 37 73 63 61  	lui	t1, 0x61637
     a2e: 6c 62        	<unknown>
     a30: 6c 6e        	<unknown>
     a32: 66 6c        	<unknown>
     a34: 00 73        	<unknown>
     a36: 63 61 6c 62  	bltu	s8, t1, 0x1058 <.debug_info+0x1058>
     a3a: 6c 6e        	<unknown>
     a3c: 00 5f        	<unknown>
     a3e: 5a 4c        	<unknown>
     a40: 36 73        	<unknown>
     a42: 63 61 6c 62  	bltu	s8, t1, 0x1064 <.debug_info+0x1064>
     a46: 6e 66        	<unknown>
     a48: 69 00        	<unknown>
     a4a: 73 63 61 6c  	csrrsi	t1, 0x6c6, 0x2
     a4e: 62 6e        	<unknown>
     a50: 00 5f        	<unknown>
     a52: 5a 4c        	<unknown>
     a54: 37 73 69 67  	lui	t1, 0x67697
     a58: 6e 62        	<unknown>
     a5a: 69 74        	<unknown>
     a5c: 66 00        	<unknown>
     a5e: 73 69 67 6e  	csrrsi	s2, 0x6e6, 0xe
     a62: 62 69        	<unknown>
     a64: 74 00        	<unknown>
     a66: 5f 5a 4c 33  	<unknown>
     a6a: 73 69 6e 66  	csrrsi	s2, 0x666, 0x1c
     a6e: 00 5f        	<unknown>
     a70: 5a 4c        	<unknown>
     a72: 34 73        	<unknown>
     a74: 69 6e        	<unknown>
     a76: 68 66        	<unknown>
     a78: 00 5f        	<unknown>
     a7a: 5a 4c        	<unknown>
     a7c: 34 73        	<unknown>
     a7e: 71 72        	<unknown>
     a80: 74 66        	<unknown>
     a82: 00 73        	<unknown>
     a84: 71 72        	<unknown>
     a86: 74 00        	<unknown>
     a88: 5f 5a 4c 33  	<unknown>
     a8c: 74 61        	<unknown>
     a8e: 6e 66        	<unknown>
     a90: 00 5f        	<unknown>
     a92: 5a 4c        	<unknown>
     a94: 34 74        	<unknown>
     a96: 61 6e        	<unknown>
     a98: 68 66        	<unknown>
     a9a: 00 5f        	<unknown>
     a9c: 5a 4c        	<unknown>
     a9e: 36 74        	<unknown>
     aa0: 67 61 6d 6d  	<unknown>
     aa4: 61 66        	<unknown>
     aa6: 00 74        	<unknown>
     aa8: 67 61 6d 6d  	<unknown>
     aac: 61 00        	<unknown>
     aae: 5f 5a 4c 35  	<unknown>
     ab2: 74 72        	<unknown>
     ab4: 75 6e        	<unknown>
     ab6: 63 66 00 74  	bltu	zero, zero, 0x1202 <.debug_info+0x1202>
     aba: 72 75        	<unknown>
     abc: 6e 63        	<unknown>
     abe: 00 64        	<unknown>
     ac0: 6f 75 62 6c  	jal	a0, 0x28186 <.debug_info+0x28186>
     ac4: 65 5f        	<unknown>
     ac6: 74 00        	<unknown>
     ac8: 66 6c        	<unknown>
     aca: 6f 61 74 5f  	jal	sp, 0x478c0 <.debug_info+0x478c0>
     ace: 74 00        	<unknown>
     ad0: 61 63        	<unknown>
     ad2: 6f 73 68 6c  	jal	t1, 0x88198 <.debug_info+0x88198>
     ad6: 00 6c        	<unknown>
     ad8: 6f 6e 67 20  	jal	t3, 0x76cde <.debug_info+0x76cde>
     adc: 64 6f        	<unknown>
     ade: 75 62        	<unknown>
     ae0: 6c 65        	<unknown>
     ae2: 00 61        	<unknown>
     ae4: 73 69 6e 68  	csrrsi	s2, 0x686, 0x1c
     ae8: 6c 00        	<unknown>
     aea: 61 74        	<unknown>
     aec: 61 6e        	<unknown>
     aee: 68 6c        	<unknown>
     af0: 00 63        	<unknown>
     af2: 62 72        	<unknown>
     af4: 74 6c        	<unknown>
     af6: 00 63        	<unknown>
     af8: 6f 70 79 73  	j	0x98a2e <.debug_info+0x98a2e>
     afc: 69 67        	<unknown>
     afe: 6e 66        	<unknown>
     b00: 00 63        	<unknown>
     b02: 6f 70 79 73  	j	0x98a38 <.debug_info+0x98a38>
     b06: 69 67        	<unknown>
     b08: 6e 6c        	<unknown>
     b0a: 00 65        	<unknown>
     b0c: 72 66        	<unknown>
     b0e: 6c 00        	<unknown>
     b10: 65 72        	<unknown>
     b12: 66 63        	<unknown>
     b14: 6c 00        	<unknown>
     b16: 65 78        	<unknown>
     b18: 70 32        	<unknown>
     b1a: 6c 00        	<unknown>
     b1c: 65 78        	<unknown>
     b1e: 70 6d        	<unknown>
     b20: 31 6c        	<unknown>
     b22: 00 66        	<unknown>
     b24: 64 69        	<unknown>
     b26: 6d 66        	<unknown>
     b28: 00 66        	<unknown>
     b2a: 64 69        	<unknown>
     b2c: 6d 6c        	<unknown>
     b2e: 00 66        	<unknown>
     b30: 6d 61        	<unknown>
     b32: 66 00        	<unknown>
     b34: 66 6d        	<unknown>
     b36: 61 6c        	<unknown>
     b38: 00 66        	<unknown>
     b3a: 6d 61        	<unknown>
     b3c: 78 66        	<unknown>
     b3e: 00 66        	<unknown>
     b40: 6d 61        	<unknown>
     b42: 78 6c        	<unknown>
     b44: 00 66        	<unknown>
     b46: 6d 69        	<unknown>
     b48: 6e 66        	<unknown>
     b4a: 00 66        	<unknown>
     b4c: 6d 69        	<unknown>
     b4e: 6e 6c        	<unknown>
     b50: 00 68        	<unknown>
     b52: 79 70        	<unknown>
     b54: 6f 74 66 00  	jal	s0, 0x67b5a <.debug_info+0x67b5a>
     b58: 68 79        	<unknown>
     b5a: 70 6f        	<unknown>
     b5c: 74 6c        	<unknown>
     b5e: 00 69        	<unknown>
     b60: 6c 6f        	<unknown>
     b62: 67 62 6c 00  	<unknown>
     b66: 6c 67        	<unknown>
     b68: 61 6d        	<unknown>
     b6a: 6d 61        	<unknown>
     b6c: 6c 00        	<unknown>
     b6e: 6c 6c        	<unknown>
     b70: 72 69        	<unknown>
     b72: 6e 74        	<unknown>
     b74: 6c 00        	<unknown>
     b76: 6c 6c        	<unknown>
     b78: 72 6f        	<unknown>
     b7a: 75 6e        	<unknown>
     b7c: 64 6c        	<unknown>
     b7e: 00 6c        	<unknown>
     b80: 6f 67 31 70  	jal	a4, 0x17a82 <.debug_info+0x17a82>
     b84: 6c 00        	<unknown>
     b86: 6c 6f        	<unknown>
     b88: 67 32 6c 00  	<unknown>
     b8c: 6e 61        	<unknown>
     b8e: 6e 6c        	<unknown>
     b90: 00 6e        	<unknown>
     b92: 65 61        	<unknown>
     b94: 72 62        	<unknown>
     b96: 79 69        	<unknown>
     b98: 6e 74        	<unknown>
     b9a: 6c 00        	<unknown>
     b9c: 6e 65        	<unknown>
     b9e: 78 74        	<unknown>
     ba0: 61 66        	<unknown>
     ba2: 74 65        	<unknown>
     ba4: 72 66        	<unknown>
     ba6: 00 6e        	<unknown>
     ba8: 65 78        	<unknown>
     baa: 74 61        	<unknown>
     bac: 66 74        	<unknown>
     bae: 65 72        	<unknown>
     bb0: 6c 00        	<unknown>
     bb2: 6e 65        	<unknown>
     bb4: 78 74        	<unknown>
     bb6: 74 6f        	<unknown>
     bb8: 77 61 72 64  	<unknown>
     bbc: 00 6e        	<unknown>
     bbe: 65 78        	<unknown>
     bc0: 74 74        	<unknown>
     bc2: 6f 77 61 72  	jal	a4, 0x182e8 <.debug_info+0x182e8>
     bc6: 64 66        	<unknown>
     bc8: 00 6e        	<unknown>
     bca: 65 78        	<unknown>
     bcc: 74 74        	<unknown>
     bce: 6f 77 61 72  	jal	a4, 0x182f4 <.debug_info+0x182f4>
     bd2: 64 6c        	<unknown>
     bd4: 00 72        	<unknown>
     bd6: 65 6d        	<unknown>
     bd8: 61 69        	<unknown>
     bda: 6e 64        	<unknown>
     bdc: 65 72        	<unknown>
     bde: 66 00        	<unknown>
     be0: 72 65        	<unknown>
     be2: 6d 61        	<unknown>
     be4: 69 6e        	<unknown>
     be6: 64 65        	<unknown>
     be8: 72 6c        	<unknown>
     bea: 00 72        	<unknown>
     bec: 65 6d        	<unknown>
     bee: 71 75        	<unknown>
     bf0: 6f 66 00 72  	jal	a2, 0x7310 <.debug_info+0x7310>
     bf4: 65 6d        	<unknown>
     bf6: 71 75        	<unknown>
     bf8: 6f 6c 00 73  	jal	s8, 0x7328 <.debug_info+0x7328>
     bfc: 63 61 6c 62  	bltu	s8, t1, 0x121e <.debug_info+0x121e>
     c00: 6c 6e        	<unknown>
     c02: 66 00        	<unknown>
     c04: 73 63 61 6c  	csrrsi	t1, 0x6c6, 0x2
     c08: 62 6c        	<unknown>
     c0a: 6e 6c        	<unknown>
     c0c: 00 73        	<unknown>
     c0e: 63 61 6c 62  	bltu	s8, t1, 0x1230 <.debug_info+0x1230>
     c12: 6e 66        	<unknown>
     c14: 00 73        	<unknown>
     c16: 63 61 6c 62  	bltu	s8, t1, 0x1238 <.debug_info+0x1238>
     c1a: 6e 6c        	<unknown>
     c1c: 00 74        	<unknown>
     c1e: 67 61 6d 6d  	<unknown>
     c22: 61 6c        	<unknown>
     c24: 00 74        	<unknown>
     c26: 72 75        	<unknown>
     c28: 6e 63        	<unknown>
     c2a: 6c 00        	<unknown>
     c2c: 71 75        	<unknown>
     c2e: 6f 74 00 72  	jal	s0, 0x834e <.debug_info+0x834e>
     c32: 65 6d        	<unknown>
     c34: 00 61        	<unknown>
     c36: 62 6f        	<unknown>
     c38: 72 74        	<unknown>
     c3a: 00 61        	<unknown>
     c3c: 74 65        	<unknown>
     c3e: 78 69        	<unknown>
     c40: 74 00        	<unknown>
     c42: 61 74        	<unknown>
     c44: 5f 71 75 69  	<unknown>
     c48: 63 6b 5f 65  	bltu	t5, s5, 0x129e <.debug_info+0x129e>
     c4c: 78 69        	<unknown>
     c4e: 74 00        	<unknown>
     c50: 61 74        	<unknown>
     c52: 6f 66 00 61  	jal	a2, 0x7262 <.debug_info+0x7262>
     c56: 74 6f        	<unknown>
     c58: 69 00        	<unknown>
     c5a: 61 74        	<unknown>
     c5c: 6f 6c 00 62  	jal	s8, 0x727c <.debug_info+0x727c>
     c60: 73 65 61 72  	csrrsi	a0, 0x726, 0x2
     c64: 63 68 00 75  	bltu	zero, a6, 0x13b4 <.debug_info+0x13b4>
     c68: 6e 73        	<unknown>
     c6a: 69 67        	<unknown>
     c6c: 6e 65        	<unknown>
     c6e: 64 20        	<unknown>
     c70: 6c 6f        	<unknown>
     c72: 6e 67        	<unknown>
     c74: 00 73        	<unknown>
     c76: 69 7a        	<unknown>
     c78: 65 5f        	<unknown>
     c7a: 74 00        	<unknown>
     c7c: 5f 5f 63 6f  	<unknown>
     c80: 6d 70        	<unknown>
     c82: 61 72        	<unknown>
     c84: 5f 66 6e 5f  	<unknown>
     c88: 74 00        	<unknown>
     c8a: 63 61 6c 6c  	bltu	s8, t1, 0x134c <.debug_info+0x134c>
     c8e: 6f 63 00 66  	jal	t1, 0x72ee <.debug_info+0x72ee>
     c92: 72 65        	<unknown>
     c94: 65 00        	<unknown>
     c96: 67 65 74 65  	<unknown>
     c9a: 6e 76        	<unknown>
     c9c: 00 6d        	<unknown>
     c9e: 61 6c        	<unknown>
     ca0: 6c 6f        	<unknown>
     ca2: 63 00 6d 62  	beq	s10, t1, 0x12c2 <.debug_info+0x12c2>
     ca6: 6c 65        	<unknown>
     ca8: 6e 00        	<unknown>
     caa: 6d 62        	<unknown>
     cac: 73 74 6f 77  	csrrci	s0, 0x776, 0x1e
     cb0: 63 73 00 77  	bgeu	zero, a6, 0x1416 <.debug_info+0x1416>
     cb4: 63 68 61 72  	bltu	sp, t1, 0x13e4 <.debug_info+0x13e4>
     cb8: 5f 74 00 6d  	<unknown>
     cbc: 62 74        	<unknown>
     cbe: 6f 77 63 00  	jal	a4, 0x37cc4 <.debug_info+0x37cc4>
     cc2: 71 73        	<unknown>
     cc4: 6f 72 74 00  	jal	tp, 0x484ca <.debug_info+0x484ca>
     cc8: 72 65        	<unknown>
     cca: 61 6c        	<unknown>
     ccc: 6c 6f        	<unknown>
     cce: 63 00 73 72  	beq	t1, t2, 0x13ee <.debug_info+0x13ee>
     cd2: 61 6e        	<unknown>
     cd4: 64 00        	<unknown>
     cd6: 73 74 72 74  	csrrci	s0, mseccfg, 0x4
     cda: 6f 64 00 73  	jal	s0, 0x740a <.debug_info+0x740a>
     cde: 74 72        	<unknown>
     ce0: 74 6f        	<unknown>
     ce2: 6c 00        	<unknown>
     ce4: 73 74 72 74  	csrrci	s0, mseccfg, 0x4
     ce8: 6f 75 6c 00  	jal	a0, 0xc7cee <.debug_info+0xc7cee>
     cec: 73 79 73 74  	csrrci	s2, mseccfg, 0x6
     cf0: 65 6d        	<unknown>
     cf2: 00 77        	<unknown>
     cf4: 63 73 74 6f  	bgeu	s0, s7, 0x13da <.debug_info+0x13da>
     cf8: 6d 62        	<unknown>
     cfa: 73 00 77 63  	<unknown>
     cfe: 74 6f        	<unknown>
     d00: 6d 62        	<unknown>
     d02: 00 5f        	<unknown>
     d04: 5f 67 6e 75  	<unknown>
     d08: 5f 63 78 78  	<unknown>
     d0c: 00 6c        	<unknown>
     d0e: 6c 64        	<unknown>
     d10: 69 76        	<unknown>
     d12: 5f 74 00 5f  	<unknown>
     d16: 45 78        	<unknown>
     d18: 69 74        	<unknown>
     d1a: 00 6c        	<unknown>
     d1c: 6c 64        	<unknown>
     d1e: 69 76        	<unknown>
     d20: 00 61        	<unknown>
     d22: 74 6f        	<unknown>
     d24: 6c 6c        	<unknown>
     d26: 00 73        	<unknown>
     d28: 74 72        	<unknown>
     d2a: 74 6f        	<unknown>
     d2c: 6c 6c        	<unknown>
     d2e: 00 73        	<unknown>
     d30: 74 72        	<unknown>
     d32: 74 6f        	<unknown>
     d34: 75 6c        	<unknown>
     d36: 6c 00        	<unknown>
     d38: 73 74 72 74  	csrrci	s0, mseccfg, 0x4
     d3c: 6f 66 00 73  	jal	a2, 0x746c <.debug_info+0x746c>
     d40: 74 72        	<unknown>
     d42: 74 6f        	<unknown>
     d44: 6c 64        	<unknown>
     d46: 00 5f        	<unknown>
     d48: 5a 4e        	<unknown>
     d4a: 39 5f        	<unknown>
     d4c: 5f 67 6e 75  	<unknown>
     d50: 5f 63 78 78  	<unknown>
     d54: 33 64 69 76  	<unknown>
     d58: 45 78        	<unknown>
     d5a: 78 00        	<unknown>
     d5c: 5f 5a 53 74  	<unknown>
     d60: 33 61 62 73  	<unknown>
     d64: 65 00        	<unknown>
     d66: 5f 5a 4c 35  	<unknown>
     d6a: 61 63        	<unknown>
     d6c: 6f 73 66 66  	jal	t1, 0x683d2 <.debug_info+0x683d2>
     d70: 00 5f        	<unknown>
     d72: 5a 4c        	<unknown>
     d74: 36 61        	<unknown>
     d76: 63 6f 73 68  	bltu	t1, t2, 0x1414 <.debug_info+0x1414>
     d7a: 66 66        	<unknown>
     d7c: 00 5f        	<unknown>
     d7e: 5a 4c        	<unknown>
     d80: 35 61        	<unknown>
     d82: 73 69 6e 66  	csrrsi	s2, 0x666, 0x1c
     d86: 66 00        	<unknown>
     d88: 5f 5a 4c 36  	<unknown>
     d8c: 61 73        	<unknown>
     d8e: 69 6e        	<unknown>
     d90: 68 66        	<unknown>
     d92: 66 00        	<unknown>
     d94: 5f 5a 4c 36  	<unknown>
     d98: 61 74        	<unknown>
     d9a: 61 6e        	<unknown>
     d9c: 32 66        	<unknown>
     d9e: 66 66        	<unknown>
     da0: 00 61        	<unknown>
     da2: 74 61        	<unknown>
     da4: 6e 32        	<unknown>
     da6: 66 00        	<unknown>
     da8: 5f 5a 4c 35  	<unknown>
     dac: 61 74        	<unknown>
     dae: 61 6e        	<unknown>
     db0: 66 66        	<unknown>
     db2: 00 5f        	<unknown>
     db4: 5a 4c        	<unknown>
     db6: 36 61        	<unknown>
     db8: 74 61        	<unknown>
     dba: 6e 68        	<unknown>
     dbc: 66 66        	<unknown>
     dbe: 00 5f        	<unknown>
     dc0: 5a 4c        	<unknown>
     dc2: 35 63        	<unknown>
     dc4: 62 72        	<unknown>
     dc6: 74 66        	<unknown>
     dc8: 66 00        	<unknown>
     dca: 5f 5a 4c 35  	<unknown>
     dce: 63 65 69 6c  	bltu	s2, t1, 0x1498 <.debug_info+0x1498>
     dd2: 66 66        	<unknown>
     dd4: 00 5f        	<unknown>
     dd6: 5a 4c        	<unknown>
     dd8: 39 63        	<unknown>
     dda: 6f 70 79 73  	j	0x98d10 <.debug_info+0x98d10>
     dde: 69 67        	<unknown>
     de0: 6e 66        	<unknown>
     de2: 66 66        	<unknown>
     de4: 00 5f        	<unknown>
     de6: 5a 4c        	<unknown>
     de8: 34 63        	<unknown>
     dea: 6f 73 66 66  	jal	t1, 0x68450 <.debug_info+0x68450>
     dee: 00 5f        	<unknown>
     df0: 5a 4c        	<unknown>
     df2: 35 63        	<unknown>
     df4: 6f 73 68 66  	jal	t1, 0x8845a <.debug_info+0x8845a>
     df8: 66 00        	<unknown>
     dfa: 5f 5a 4c 35  	<unknown>
     dfe: 65 72        	<unknown>
     e00: 66 63        	<unknown>
     e02: 66 66        	<unknown>
     e04: 00 5f        	<unknown>
     e06: 5a 4c        	<unknown>
     e08: 34 65        	<unknown>
     e0a: 72 66        	<unknown>
     e0c: 66 66        	<unknown>
     e0e: 00 5f        	<unknown>
     e10: 5a 4c        	<unknown>
     e12: 35 65        	<unknown>
     e14: 78 70        	<unknown>
     e16: 32 66        	<unknown>
     e18: 66 00        	<unknown>
     e1a: 5f 5a 4c 34  	<unknown>
     e1e: 65 78        	<unknown>
     e20: 70 66        	<unknown>
     e22: 66 00        	<unknown>
     e24: 5f 5a 4c 36  	<unknown>
     e28: 65 78        	<unknown>
     e2a: 70 6d        	<unknown>
     e2c: 31 66        	<unknown>
     e2e: 66 00        	<unknown>
     e30: 5f 5a 4c 35  	<unknown>
     e34: 66 61        	<unknown>
     e36: 62 73        	<unknown>
     e38: 66 66        	<unknown>
     e3a: 00 5f        	<unknown>
     e3c: 5a 4c        	<unknown>
     e3e: 35 66        	<unknown>
     e40: 64 69        	<unknown>
     e42: 6d 66        	<unknown>
     e44: 66 66        	<unknown>
     e46: 00 5f        	<unknown>
     e48: 5a 4c        	<unknown>
     e4a: 36 66        	<unknown>
     e4c: 6c 6f        	<unknown>
     e4e: 6f 72 66 66  	jal	tp, 0x684b4 <.debug_info+0x684b4>
     e52: 00 5f        	<unknown>
     e54: 5a 4c        	<unknown>
     e56: 34 66        	<unknown>
     e58: 6d 61        	<unknown>
     e5a: 66 66        	<unknown>
     e5c: 66 66        	<unknown>
     e5e: 00 5f        	<unknown>
     e60: 5a 4c        	<unknown>
     e62: 35 66        	<unknown>
     e64: 6d 61        	<unknown>
     e66: 78 66        	<unknown>
     e68: 66 66        	<unknown>
     e6a: 00 5f        	<unknown>
     e6c: 5a 4c        	<unknown>
     e6e: 35 66        	<unknown>
     e70: 6d 69        	<unknown>
     e72: 6e 66        	<unknown>
     e74: 66 66        	<unknown>
     e76: 00 5f        	<unknown>
     e78: 5a 4c        	<unknown>
     e7a: 35 66        	<unknown>
     e7c: 6d 6f        	<unknown>
     e7e: 64 66        	<unknown>
     e80: 66 66        	<unknown>
     e82: 00 66        	<unknown>
     e84: 6d 6f        	<unknown>
     e86: 64 66        	<unknown>
     e88: 00 5f        	<unknown>
     e8a: 5a 4c        	<unknown>
     e8c: 36 66        	<unknown>
     e8e: 72 65        	<unknown>
     e90: 78 70        	<unknown>
     e92: 66 66        	<unknown>
     e94: 50 69        	<unknown>
     e96: 00 66        	<unknown>
     e98: 72 65        	<unknown>
     e9a: 78 70        	<unknown>
     e9c: 66 00        	<unknown>
     e9e: 5f 5a 4c 36  	<unknown>
     ea2: 68 79        	<unknown>
     ea4: 70 6f        	<unknown>
     ea6: 74 66        	<unknown>
     ea8: 66 66        	<unknown>
     eaa: 00 5f        	<unknown>
     eac: 5a 4c        	<unknown>
     eae: 36 69        	<unknown>
     eb0: 6c 6f        	<unknown>
     eb2: 67 62 66 66  	<unknown>
     eb6: 00 5f        	<unknown>
     eb8: 5a 4c        	<unknown>
     eba: 36 6c        	<unknown>
     ebc: 64 65        	<unknown>
     ebe: 78 70        	<unknown>
     ec0: 66 66        	<unknown>
     ec2: 69 00        	<unknown>
     ec4: 6c 64        	<unknown>
     ec6: 65 78        	<unknown>
     ec8: 70 66        	<unknown>
     eca: 00 5f        	<unknown>
     ecc: 5a 4c        	<unknown>
     ece: 37 6c 67 61  	lui	s8, 0x61676
     ed2: 6d 6d        	<unknown>
     ed4: 61 66        	<unknown>
     ed6: 66 00        	<unknown>
     ed8: 5f 5a 4c 37  	<unknown>
     edc: 6c 6c        	<unknown>
     ede: 72 69        	<unknown>
     ee0: 6e 74        	<unknown>
     ee2: 66 66        	<unknown>
     ee4: 00 5f        	<unknown>
     ee6: 5a 4c        	<unknown>
     ee8: 38 6c        	<unknown>
     eea: 6c 72        	<unknown>
     eec: 6f 75 6e 64  	jal	a0, 0xe8532 <.debug_info+0xe8532>
     ef0: 66 66        	<unknown>
     ef2: 00 5f        	<unknown>
     ef4: 5a 4c        	<unknown>
     ef6: 36 6c        	<unknown>
     ef8: 6f 67 31 30  	jal	a4, 0x179fa <.debug_info+0x179fa>
     efc: 66 66        	<unknown>
     efe: 00 5f        	<unknown>
     f00: 5a 4c        	<unknown>
     f02: 36 6c        	<unknown>
     f04: 6f 67 31 70  	jal	a4, 0x17e06 <.debug_info+0x17e06>
     f08: 66 66        	<unknown>
     f0a: 00 5f        	<unknown>
     f0c: 5a 4c        	<unknown>
     f0e: 35 6c        	<unknown>
     f10: 6f 67 32 66  	jal	a4, 0x27d72 <.debug_info+0x27d72>
     f14: 66 00        	<unknown>
     f16: 5f 5a 4c 35  	<unknown>
     f1a: 6c 6f        	<unknown>
     f1c: 67 62 66 66  	<unknown>
     f20: 00 5f        	<unknown>
     f22: 5a 4c        	<unknown>
     f24: 34 6c        	<unknown>
     f26: 6f 67 66 66  	jal	a4, 0x6758c <.debug_info+0x6758c>
     f2a: 00 5f        	<unknown>
     f2c: 5a 4c        	<unknown>
     f2e: 36 6c        	<unknown>
     f30: 72 69        	<unknown>
     f32: 6e 74        	<unknown>
     f34: 66 66        	<unknown>
     f36: 00 5f        	<unknown>
     f38: 5a 4c        	<unknown>
     f3a: 37 6c 72 6f  	lui	s8, 0x6f726
     f3e: 75 6e        	<unknown>
     f40: 64 66        	<unknown>
     f42: 66 00        	<unknown>
     f44: 5f 5a 4c 35  	<unknown>
     f48: 6d 6f        	<unknown>
     f4a: 64 66        	<unknown>
     f4c: 66 66        	<unknown>
     f4e: 50 66        	<unknown>
     f50: 00 5f        	<unknown>
     f52: 5a 4c        	<unknown>
     f54: 31 30        	<unknown>
     f56: 6e 65        	<unknown>
     f58: 61 72        	<unknown>
     f5a: 62 79        	<unknown>
     f5c: 69 6e        	<unknown>
     f5e: 74 66        	<unknown>
     f60: 66 00        	<unknown>
     f62: 5f 5a 4c 31  	<unknown>
     f66: 30 6e        	<unknown>
     f68: 65 78        	<unknown>
     f6a: 74 61        	<unknown>
     f6c: 66 74        	<unknown>
     f6e: 65 72        	<unknown>
     f70: 66 66        	<unknown>
     f72: 66 00        	<unknown>
     f74: 5f 5a 4c 34  	<unknown>
     f78: 70 6f        	<unknown>
     f7a: 77 66 66 66  	<unknown>
     f7e: 00 70        	<unknown>
     f80: 6f 77 66 00  	jal	a4, 0x67f86 <.debug_info+0x67f86>
     f84: 5f 5a 4c 31  	<unknown>
     f88: 30 72        	<unknown>
     f8a: 65 6d        	<unknown>
     f8c: 61 69        	<unknown>
     f8e: 6e 64        	<unknown>
     f90: 65 72        	<unknown>
     f92: 66 66        	<unknown>
     f94: 66 00        	<unknown>
     f96: 5f 5a 4c 37  	<unknown>
     f9a: 72 65        	<unknown>
     f9c: 6d 71        	<unknown>
     f9e: 75 6f        	<unknown>
     fa0: 66 66        	<unknown>
     fa2: 66 50        	<unknown>
     fa4: 69 00        	<unknown>
     fa6: 5f 5a 4c 35  	<unknown>
     faa: 72 69        	<unknown>
     fac: 6e 74        	<unknown>
     fae: 66 66        	<unknown>
     fb0: 00 5f        	<unknown>
     fb2: 5a 4c        	<unknown>
     fb4: 36 72        	<unknown>
     fb6: 6f 75 6e 64  	jal	a0, 0xe85fc <.debug_info+0xe85fc>
     fba: 66 66        	<unknown>
     fbc: 00 5f        	<unknown>
     fbe: 5a 4c        	<unknown>
     fc0: 38 73        	<unknown>
     fc2: 63 61 6c 62  	bltu	s8, t1, 0x15e4 <.debug_info+0x15e4>
     fc6: 6c 6e        	<unknown>
     fc8: 66 66        	<unknown>
     fca: 6c 00        	<unknown>
     fcc: 5f 5a 4c 37  	<unknown>
     fd0: 73 63 61 6c  	csrrsi	t1, 0x6c6, 0x2
     fd4: 62 6e        	<unknown>
     fd6: 66 66        	<unknown>
     fd8: 69 00        	<unknown>
     fda: 5f 5a 4c 34  	<unknown>
     fde: 73 69 6e 66  	csrrsi	s2, 0x666, 0x1c
     fe2: 66 00        	<unknown>
     fe4: 5f 5a 4c 35  	<unknown>
     fe8: 73 69 6e 68  	csrrsi	s2, 0x686, 0x1c
     fec: 66 66        	<unknown>
     fee: 00 5f        	<unknown>
     ff0: 5a 4c        	<unknown>
     ff2: 35 73        	<unknown>
     ff4: 71 72        	<unknown>
     ff6: 74 66        	<unknown>
     ff8: 66 00        	<unknown>
     ffa: 5f 5a 4c 34  	<unknown>
     ffe: 74 61        	<unknown>
    1000: 6e 66        	<unknown>
    1002: 66 00        	<unknown>
    1004: 5f 5a 4c 35  	<unknown>
    1008: 74 61        	<unknown>
    100a: 6e 68        	<unknown>
    100c: 66 66        	<unknown>
    100e: 00 5f        	<unknown>
    1010: 5a 4c        	<unknown>
    1012: 37 74 67 61  	lui	s0, 0x61677
    1016: 6d 6d        	<unknown>
    1018: 61 66        	<unknown>
    101a: 66 00        	<unknown>
    101c: 5f 5a 4c 36  	<unknown>
    1020: 74 72        	<unknown>
    1022: 75 6e        	<unknown>
    1024: 63 66 66 00  	bltu	a2, t1, 0x1030 <.debug_info+0x1030>
    1028: 5f 5a 4e 32  	<unknown>
    102c: 6e 76        	<unknown>
    102e: 36 74        	<unknown>
    1030: 61 72        	<unknown>
    1032: 67 65 74 36  	<unknown>
    1036: 64 65        	<unknown>
    1038: 74 61        	<unknown>
    103a: 69 6c        	<unknown>
    103c: 31 30        	<unknown>
    103e: 69 73        	<unknown>
    1040: 5f 65 78 61  	<unknown>
    1044: 63 74 6c 79  	bgeu	s8, s6, 0x17cc <.debug_info+0x17cc>
    1048: 45 4e        	<unknown>
    104a: 53 31 5f 31  	<unknown>
    104e: 31 73        	<unknown>
    1050: 6d 5f        	<unknown>
    1052: 73 65 6c 65  	csrrsi	a0, 0x656, 0x18
    1056: 63 74 6f 72  	bgeu	t5, t1, 0x177e <.debug_info+0x177e>
    105a: 45 00        	<unknown>
    105c: 69 73        	<unknown>
    105e: 5f 65 78 61  	<unknown>
    1062: 63 74 6c 79  	bgeu	s8, s6, 0x17ea <.debug_info+0x17ea>
    1066: 00 5f        	<unknown>
    1068: 5a 4e        	<unknown>
    106a: 32 6e        	<unknown>
    106c: 76 36        	<unknown>
    106e: 74 61        	<unknown>
    1070: 72 67        	<unknown>
    1072: 65 74        	<unknown>
    1074: 36 64        	<unknown>
    1076: 65 74        	<unknown>
    1078: 61 69        	<unknown>
    107a: 6c 38        	<unknown>
    107c: 70 72        	<unknown>
    107e: 6f 76 69 64  	jal	a2, 0x986c4 <.debug_info+0x986c4>
    1082: 65 73        	<unknown>
    1084: 45 4e        	<unknown>
    1086: 53 31 5f 31  	<unknown>
    108a: 31 73        	<unknown>
    108c: 6d 5f        	<unknown>
    108e: 73 65 6c 65  	csrrsi	a0, 0x656, 0x18
    1092: 63 74 6f 72  	bgeu	t5, t1, 0x17ba <.debug_info+0x17ba>
    1096: 45 00        	<unknown>
    1098: 70 72        	<unknown>
    109a: 6f 76 69 64  	jal	a2, 0x986e0 <.debug_info+0x986e0>
    109e: 65 73        	<unknown>
    10a0: 00 5f        	<unknown>
    10a2: 5a 53        	<unknown>
    10a4: 74 34        	<unknown>
    10a6: 6d 6f        	<unknown>
    10a8: 64 66        	<unknown>
    10aa: 65 50        	<unknown>
    10ac: 65 00        	<unknown>

Disassembly of section .symtab:

0000000000000000 <.symtab>:
		...
      1c: 03 00 01 00  	lb	zero, 0x0(sp)
      20: 00 00        	<unknown>
      22: 00 80        	<unknown>
      24: 01 00        	<unknown>
		...
      32: 00 00        	<unknown>
      34: 03 00 02 00  	lb	zero, 0x0(tp)
      38: 70 00        	<unknown>
      3a: 00 80        	<unknown>
      3c: 01 00        	<unknown>
		...
      4a: 00 00        	<unknown>
      4c: 03 00 03 00  	lb	zero, 0x0(t1)
      50: d0 2f        	<unknown>
      52: 00 80        	<unknown>
      54: 01 00        	<unknown>
		...
      62: 00 00        	<unknown>
      64: 03 00 04 00  	lb	zero, 0x0(s0)
      68: 50 32        	<unknown>
      6a: 00 80        	<unknown>
      6c: 01 00        	<unknown>
		...
      7a: 00 00        	<unknown>
      7c: 03 00 05 00  	lb	zero, 0x0(a0)
      80: b0 42        	<unknown>
      82: 00 80        	<unknown>
      84: 01 00        	<unknown>
		...
      92: 00 00        	<unknown>
      94: 03 00 06 00  	lb	zero, 0x0(a2)
      98: b0 42        	<unknown>
      9a: 00 80        	<unknown>
      9c: 01 00        	<unknown>
		...
      aa: 00 00        	<unknown>
      ac: 03 00 07 00  	lb	zero, 0x0(a4)
      b0: c0 42        	<unknown>
      b2: 00 80        	<unknown>
      b4: 01 00        	<unknown>
		...
      c2: 00 00        	<unknown>
      c4: 03 00 08 00  	lb	zero, 0x0(a6)
      c8: f8 42        	<unknown>
      ca: 00 80        	<unknown>
      cc: 01 00        	<unknown>
		...
      da: 00 00        	<unknown>
      dc: 03 00 09 00  	lb	zero, 0x0(s2)
      e0: 90 43        	<unknown>
      e2: 00 80        	<unknown>
      e4: 01 00        	<unknown>
		...
      f2: 00 00        	<unknown>
      f4: 03 00 0a 00  	lb	zero, 0x0(s4)
      f8: b8 43        	<unknown>
      fa: 00 80        	<unknown>
      fc: 01 00        	<unknown>
		...
     10a: 00 00        	<unknown>
     10c: 03 00 0b 00  	lb	zero, 0x0(s6)
		...
     124: 03 00 0c 00  	lb	zero, 0x0(s8)
		...
     13c: 03 00 0d 00  	lb	zero, 0x0(s10)
		...
     154: 03 00 0e 00  	lb	zero, 0x0(t3)
		...
     16c: 03 00 0f 00  	lb	zero, 0x0(t5)
		...
     184: 03 00 10 00  	lb	zero, 0x1(zero)
		...
     19c: 03 00 11 00  	lb	zero, 0x1(sp)
		...
     1b0: 01 00        	<unknown>
     1b2: 00 00        	<unknown>
     1b4: 04 00        	<unknown>
     1b6: f1 ff        	<unknown>
		...
     1c8: 0e 00        	<unknown>
     1ca: 00 00        	<unknown>
     1cc: 00 00        	<unknown>
     1ce: 01 00        	<unknown>
     1d0: 00 00        	<unknown>
     1d2: 00 80        	<unknown>
     1d4: 01 00        	<unknown>
		...
     1de: 00 00        	<unknown>
     1e0: 3f 00 00 00  	<unknown>
     1e4: 02 00        	<unknown>
     1e6: 02 00        	<unknown>
     1e8: 5c 05        	<unknown>
     1ea: 00 80        	<unknown>
     1ec: 01 00        	<unknown>
		...
     1f6: 00 00        	<unknown>
     1f8: 4d 00        	<unknown>
     1fa: 00 00        	<unknown>
     1fc: 02 00        	<unknown>
     1fe: 02 00        	<unknown>
     200: 18 05        	<unknown>
     202: 00 80        	<unknown>
     204: 01 00        	<unknown>
		...
     20e: 00 00        	<unknown>
     210: 57 00 00 00  	<unknown>
     214: 02 00        	<unknown>
     216: 02 00        	<unknown>
     218: 70 05        	<unknown>
     21a: 00 80        	<unknown>
     21c: 01 00        	<unknown>
		...
     226: 00 00        	<unknown>
     228: 0e 00        	<unknown>
     22a: 00 00        	<unknown>
     22c: 00 00        	<unknown>
     22e: 02 00        	<unknown>
     230: 04 05        	<unknown>
     232: 00 80        	<unknown>
     234: 01 00        	<unknown>
		...
     23e: 00 00        	<unknown>
     240: 64 00        	<unknown>
     242: 00 00        	<unknown>
     244: 04 00        	<unknown>
     246: f1 ff        	<unknown>
		...
     258: 6b 00 00 00  	<unknown>
     25c: 02 00        	<unknown>
     25e: 02 00        	<unknown>
     260: 5c 28        	<unknown>
     262: 00 80        	<unknown>
     264: 01 00        	<unknown>
     266: 00 00        	<unknown>
     268: 04 00        	<unknown>
     26a: 00 00        	<unknown>
     26c: 00 00        	<unknown>
     26e: 00 00        	<unknown>
     270: 71 00        	<unknown>
     272: 00 00        	<unknown>
     274: 00 00        	<unknown>
     276: 02 00        	<unknown>
     278: 5c 28        	<unknown>
     27a: 00 80        	<unknown>
     27c: 01 00        	<unknown>
		...
     286: 00 00        	<unknown>
     288: 37 05 00 00  	lui	a0, 0x0
     28c: 02 00        	<unknown>
     28e: 02 00        	<unknown>
     290: 60 28        	<unknown>
     292: 00 80        	<unknown>
     294: 01 00        	<unknown>
     296: 00 00        	<unknown>
     298: 64 00        	<unknown>
     29a: 00 00        	<unknown>
     29c: 00 00        	<unknown>
     29e: 00 00        	<unknown>
     2a0: 76 00        	<unknown>
     2a2: 00 00        	<unknown>
     2a4: 00 00        	<unknown>
     2a6: 02 00        	<unknown>
     2a8: 60 28        	<unknown>
     2aa: 00 80        	<unknown>
     2ac: 01 00        	<unknown>
		...
     2b6: 00 00        	<unknown>
     2b8: 7b 00 00 00  	<unknown>
     2bc: 00 00        	<unknown>
     2be: 02 00        	<unknown>
     2c0: 70 00        	<unknown>
     2c2: 00 80        	<unknown>
     2c4: 01 00        	<unknown>
		...
     2ce: 00 00        	<unknown>
     2d0: 80 00        	<unknown>
     2d2: 00 00        	<unknown>
     2d4: 00 00        	<unknown>
     2d6: 0b 00 67 00  	<unknown>
		...
     2e6: 00 00        	<unknown>
     2e8: 85 00        	<unknown>
     2ea: 00 00        	<unknown>
     2ec: 00 00        	<unknown>
     2ee: 0c 00        	<unknown>
     2f0: e1 02        	<unknown>
		...
     2fe: 00 00        	<unknown>
     300: 8a 00        	<unknown>
     302: 00 00        	<unknown>
     304: 04 00        	<unknown>
     306: f1 ff        	<unknown>
		...
     31c: 00 00        	<unknown>
     31e: 02 00        	<unknown>
     320: 94 00        	<unknown>
     322: 00 80        	<unknown>
     324: 01 00        	<unknown>
		...
     32e: 00 00        	<unknown>
     330: 7b 00 00 00  	<unknown>
     334: 00 00        	<unknown>
     336: 02 00        	<unknown>
     338: 94 00        	<unknown>
     33a: 00 80        	<unknown>
     33c: 01 00        	<unknown>
		...
     34e: 02 00        	<unknown>
     350: e0 00        	<unknown>
     352: 00 80        	<unknown>
     354: 01 00        	<unknown>
		...
     366: 02 00        	<unknown>
     368: e0 00        	<unknown>
     36a: 00 80        	<unknown>
     36c: 01 00        	<unknown>
		...
     376: 00 00        	<unknown>
     378: 9d 00        	<unknown>
     37a: 00 00        	<unknown>
     37c: 00 00        	<unknown>
     37e: 02 00        	<unknown>
     380: e0 00        	<unknown>
     382: 00 80        	<unknown>
     384: 01 00        	<unknown>
		...
     396: 02 00        	<unknown>
     398: 2c 01        	<unknown>
     39a: 00 80        	<unknown>
     39c: 01 00        	<unknown>
		...
     3ae: 02 00        	<unknown>
     3b0: 2c 01        	<unknown>
     3b2: 00 80        	<unknown>
     3b4: 01 00        	<unknown>
		...
     3be: 00 00        	<unknown>
     3c0: a2 00        	<unknown>
     3c2: 00 00        	<unknown>
     3c4: 00 00        	<unknown>
     3c6: 02 00        	<unknown>
     3c8: 2c 01        	<unknown>
     3ca: 00 80        	<unknown>
     3cc: 01 00        	<unknown>
		...
     3de: 02 00        	<unknown>
     3e0: 4c 02        	<unknown>
     3e2: 00 80        	<unknown>
     3e4: 01 00        	<unknown>
		...
     3ee: 00 00        	<unknown>
     3f0: a7 00 00 00  	<unknown>
     3f4: 00 00        	<unknown>
     3f6: 09 00        	<unknown>
     3f8: 90 43        	<unknown>
     3fa: 00 80        	<unknown>
     3fc: 01 00        	<unknown>
		...
     406: 00 00        	<unknown>
     408: ac 00        	<unknown>
     40a: 00 00        	<unknown>
     40c: 00 00        	<unknown>
     40e: 05 00        	<unknown>
     410: b0 42        	<unknown>
     412: 00 80        	<unknown>
     414: 01 00        	<unknown>
		...
     41e: 00 00        	<unknown>
     420: b1 00        	<unknown>
     422: 00 00        	<unknown>
     424: 00 00        	<unknown>
     426: 05 00        	<unknown>
     428: b4 42        	<unknown>
     42a: 00 80        	<unknown>
     42c: 01 00        	<unknown>
		...
     436: 00 00        	<unknown>
     438: b6 00        	<unknown>
     43a: 00 00        	<unknown>
     43c: 00 00        	<unknown>
     43e: 05 00        	<unknown>
     440: b8 42        	<unknown>
     442: 00 80        	<unknown>
     444: 01 00        	<unknown>
		...
     44e: 00 00        	<unknown>
     450: bb 00 00 00  	addw	ra, zero, zero
     454: 00 00        	<unknown>
     456: 05 00        	<unknown>
     458: bc 42        	<unknown>
     45a: 00 80        	<unknown>
     45c: 01 00        	<unknown>
		...
     466: 00 00        	<unknown>
     468: c1 00        	<unknown>
     46a: 00 00        	<unknown>
     46c: 00 00        	<unknown>
     46e: 05 00        	<unknown>
     470: c0 42        	<unknown>
     472: 00 80        	<unknown>
     474: 01 00        	<unknown>
		...
     47e: 00 00        	<unknown>
     480: c7 00 00 00  	fmsub.s	ft1, ft0, ft0, ft0, rne
     484: 00 00        	<unknown>
     486: 05 00        	<unknown>
     488: c4 42        	<unknown>
     48a: 00 80        	<unknown>
     48c: 01 00        	<unknown>
		...
     496: 00 00        	<unknown>
     498: cd 00        	<unknown>
     49a: 00 00        	<unknown>
     49c: 00 00        	<unknown>
     49e: 06 00        	<unknown>
     4a0: b0 42        	<unknown>
     4a2: 00 80        	<unknown>
     4a4: 01 00        	<unknown>
		...
     4ae: 00 00        	<unknown>
     4b0: d3 00 00 00  	fadd.s	ft1, ft0, ft0, rne
     4b4: 00 00        	<unknown>
     4b6: 03 00 d0 2f  	lb	zero, 0x2fd(zero)
     4ba: 00 80        	<unknown>
     4bc: 01 00        	<unknown>
		...
     4c6: 00 00        	<unknown>
     4c8: d9 00        	<unknown>
     4ca: 00 00        	<unknown>
     4cc: 00 00        	<unknown>
     4ce: 0b 00 67 00  	<unknown>
		...
     4de: 00 00        	<unknown>
     4e0: df 00 00 00  	<unknown>
     4e4: 00 00        	<unknown>
     4e6: 0c 00        	<unknown>
		...
     4f8: e5 00        	<unknown>
     4fa: 00 00        	<unknown>
     4fc: 00 00        	<unknown>
     4fe: 04 00        	<unknown>
     500: 50 32        	<unknown>
     502: 00 80        	<unknown>
     504: 01 00        	<unknown>
		...
     50e: 00 00        	<unknown>
     510: eb 00 00 00  	<unknown>
     514: 04 00        	<unknown>
     516: f1 ff        	<unknown>
		...
     52c: 00 00        	<unknown>
     52e: 02 00        	<unknown>
     530: 4c 02        	<unknown>
     532: 00 80        	<unknown>
     534: 01 00        	<unknown>
		...
     53e: 00 00        	<unknown>
     540: 71 00        	<unknown>
     542: 00 00        	<unknown>
     544: 00 00        	<unknown>
     546: 02 00        	<unknown>
     548: 4c 02        	<unknown>
     54a: 00 80        	<unknown>
     54c: 01 00        	<unknown>
		...
     55e: 02 00        	<unknown>
     560: 28 03        	<unknown>
     562: 00 80        	<unknown>
     564: 01 00        	<unknown>
		...
     576: 02 00        	<unknown>
     578: 28 03        	<unknown>
     57a: 00 80        	<unknown>
     57c: 01 00        	<unknown>
		...
     586: 00 00        	<unknown>
     588: 76 00        	<unknown>
     58a: 00 00        	<unknown>
     58c: 00 00        	<unknown>
     58e: 02 00        	<unknown>
     590: 28 03        	<unknown>
     592: 00 80        	<unknown>
     594: 01 00        	<unknown>
		...
     5a6: 02 00        	<unknown>
     5a8: d0 04        	<unknown>
     5aa: 00 80        	<unknown>
     5ac: 01 00        	<unknown>
		...
     5be: 02 00        	<unknown>
     5c0: d0 04        	<unknown>
     5c2: 00 80        	<unknown>
     5c4: 01 00        	<unknown>
		...
     5ce: 00 00        	<unknown>
     5d0: 7b 00 00 00  	<unknown>
     5d4: 00 00        	<unknown>
     5d6: 02 00        	<unknown>
     5d8: d0 04        	<unknown>
     5da: 00 80        	<unknown>
     5dc: 01 00        	<unknown>
		...
     5ee: 02 00        	<unknown>
     5f0: e8 04        	<unknown>
     5f2: 00 80        	<unknown>
     5f4: 01 00        	<unknown>
		...
     606: 02 00        	<unknown>
     608: e8 04        	<unknown>
     60a: 00 80        	<unknown>
     60c: 01 00        	<unknown>
		...
     616: 00 00        	<unknown>
     618: 9d 00        	<unknown>
     61a: 00 00        	<unknown>
     61c: 00 00        	<unknown>
     61e: 02 00        	<unknown>
     620: e8 04        	<unknown>
     622: 00 80        	<unknown>
     624: 01 00        	<unknown>
		...
     636: 02 00        	<unknown>
     638: 04 05        	<unknown>
     63a: 00 80        	<unknown>
     63c: 01 00        	<unknown>
		...
     646: 00 00        	<unknown>
     648: 85 00        	<unknown>
     64a: 00 00        	<unknown>
     64c: 00 00        	<unknown>
     64e: 0e 00        	<unknown>
		...
     660: f7 00 00 00  	<unknown>
     664: 00 00        	<unknown>
     666: 0d 00        	<unknown>
		...
     67c: 00 00        	<unknown>
     67e: 11 00        	<unknown>
		...
     694: 00 00        	<unknown>
     696: 11 00        	<unknown>
     698: 68 00        	<unknown>
		...
     6ae: 11 00        	<unknown>
     6b0: 74 00        	<unknown>
		...
     6c6: 11 00        	<unknown>
     6c8: 9a 0c        	<unknown>
		...
     6de: 11 00        	<unknown>
     6e0: 9a 00        	<unknown>
		...
     6f6: 11 00        	<unknown>
     6f8: a1 00        	<unknown>
		...
     70e: 11 00        	<unknown>
     710: 08 01        	<unknown>
		...
     726: 11 00        	<unknown>
     728: a8 00        	<unknown>
		...
     73e: 11 00        	<unknown>
     740: ae 00        	<unknown>
		...
     756: 11 00        	<unknown>
     758: b4 00        	<unknown>
		...
     76e: 11 00        	<unknown>
     770: ba 00        	<unknown>
		...
     786: 11 00        	<unknown>
     788: c0 00        	<unknown>
		...
     79e: 11 00        	<unknown>
     7a0: c6 00        	<unknown>
		...
     7b6: 11 00        	<unknown>
     7b8: cc 00        	<unknown>
		...
     7ce: 11 00        	<unknown>
     7d0: d2 00        	<unknown>
		...
     7e6: 11 00        	<unknown>
     7e8: d8 00        	<unknown>
		...
     7fe: 11 00        	<unknown>
     800: de 00        	<unknown>
		...
     816: 11 00        	<unknown>
     818: e4 00        	<unknown>
		...
     82e: 11 00        	<unknown>
     830: ea 00        	<unknown>
		...
     846: 11 00        	<unknown>
     848: f0 00        	<unknown>
		...
     85e: 11 00        	<unknown>
     860: f6 00        	<unknown>
		...
     876: 11 00        	<unknown>
     878: fc 00        	<unknown>
		...
     88e: 11 00        	<unknown>
     890: 02 01        	<unknown>
		...
     8a6: 11 00        	<unknown>
     8a8: 3a 01        	<unknown>
		...
     8be: 11 00        	<unknown>
     8c0: 14 01        	<unknown>
		...
     8d6: 11 00        	<unknown>
     8d8: 2f 01 00 00  	<unknown>
		...
     8ec: 00 00        	<unknown>
     8ee: 11 00        	<unknown>
     8f0: 28 10        	<unknown>
		...
     906: 11 00        	<unknown>
     908: 5c 10        	<unknown>
		...
     91e: 11 00        	<unknown>
     920: 67 10 00 00  	<unknown>
		...
     934: 00 00        	<unknown>
     936: 11 00        	<unknown>
     938: 98 10        	<unknown>
		...
     94e: 11 00        	<unknown>
     950: 1c 01        	<unknown>
		...
     966: 11 00        	<unknown>
     968: 85 02        	<unknown>
		...
     97e: 11 00        	<unknown>
     980: c2 01        	<unknown>
		...
     996: 11 00        	<unknown>
     998: 09 02        	<unknown>
		...
     9ae: 11 00        	<unknown>
     9b0: 50 02        	<unknown>
		...
     9c6: 11 00        	<unknown>
     9c8: 5a 01        	<unknown>
		...
     9de: 11 00        	<unknown>
     9e0: 6e 01        	<unknown>
		...
     9f6: 11 00        	<unknown>
     9f8: 4d 01        	<unknown>
		...
     a0e: 11 00        	<unknown>
     a10: 77 01 00 00  	<unknown>
		...
     a24: 00 00        	<unknown>
     a26: 11 00        	<unknown>
     a28: b5 02        	<unknown>
		...
     a3e: 11 00        	<unknown>
     a40: 7d 01        	<unknown>
		...
     a56: 11 00        	<unknown>
     a58: b2 01        	<unknown>
		...
     a6e: 11 00        	<unknown>
     a70: c4 01        	<unknown>
		...
     a86: 11 00        	<unknown>
     a88: f9 01        	<unknown>
		...
     a9e: 11 00        	<unknown>
     aa0: 0b 02 00 00  	<unknown>
		...
     ab4: 00 00        	<unknown>
     ab6: 11 00        	<unknown>
     ab8: 40 02        	<unknown>
		...
     ace: 11 00        	<unknown>
     ad0: 52 02        	<unknown>
		...
     ae6: 11 00        	<unknown>
     ae8: 7c 02        	<unknown>
		...
     afe: 11 00        	<unknown>
     b00: 8a 02        	<unknown>
		...
     b16: 11 00        	<unknown>
     b18: d0 02        	<unknown>
		...
     b2e: 11 00        	<unknown>
     b30: f8 02        	<unknown>
		...
     b46: 11 00        	<unknown>
     b48: 02 03        	<unknown>
		...
     b5e: 11 00        	<unknown>
     b60: 27 03 00 00  	<unknown>
		...
     b74: 00 00        	<unknown>
     b76: 11 00        	<unknown>
     b78: 20 04        	<unknown>
		...
     b8e: 11 00        	<unknown>
     b90: 31 03        	<unknown>
		...
     ba6: 11 00        	<unknown>
     ba8: 65 03        	<unknown>
		...
     bbe: 11 00        	<unknown>
     bc0: 99 03        	<unknown>
		...
     bd6: 11 00        	<unknown>
     bd8: cd 03        	<unknown>
		...
     bee: 11 00        	<unknown>
     bf0: f6 03        	<unknown>
		...
     c06: 11 00        	<unknown>
     c08: 3a 04        	<unknown>
		...
     c1e: 11 00        	<unknown>
     c20: 61 04        	<unknown>
		...
     c36: 11 00        	<unknown>
     c38: 74 05        	<unknown>
		...
     c4e: 11 00        	<unknown>
     c50: 85 04        	<unknown>
		...
     c66: 11 00        	<unknown>
     c68: b9 04        	<unknown>
		...
     c7e: 11 00        	<unknown>
     c80: ed 04        	<unknown>
		...
     c96: 11 00        	<unknown>
     c98: 21 05        	<unknown>
		...
     cae: 11 00        	<unknown>
     cb0: 4a 05        	<unknown>
		...
     cc6: 11 00        	<unknown>
     cc8: 8e 05        	<unknown>
		...
     cde: 11 00        	<unknown>
     ce0: b5 05        	<unknown>
		...
     cf6: 11 00        	<unknown>
     cf8: d9 05        	<unknown>
		...
     d0e: 11 00        	<unknown>
     d10: 5c 0d        	<unknown>
		...
     d26: 11 00        	<unknown>
     d28: f3 06 00 00  	<unknown>
		...
     d3c: 00 00        	<unknown>
     d3e: 11 00        	<unknown>
     d40: a1 10        	<unknown>
		...
     d56: 11 00        	<unknown>
     d58: 84 0e        	<unknown>
		...
     d6e: 11 00        	<unknown>
     d70: dd 05        	<unknown>
		...
     d86: 11 00        	<unknown>
     d88: 56 01        	<unknown>
		...
     d9e: 11 00        	<unknown>
     da0: e6 05        	<unknown>
		...
     db6: 11 00        	<unknown>
     db8: f0 05        	<unknown>
		...
     dce: 11 00        	<unknown>
     dd0: f5 05        	<unknown>
		...
     de6: 11 00        	<unknown>
     de8: fb 05 00 00  	<unknown>
		...
     dfc: 00 00        	<unknown>
     dfe: 11 00        	<unknown>
     e00: 06 06        	<unknown>
		...
     e16: 11 00        	<unknown>
     e18: 0c 06        	<unknown>
		...
     e2e: 11 00        	<unknown>
     e30: 16 06        	<unknown>
		...
     e46: 11 00        	<unknown>
     e48: 1b 06 00 00  	sext.w	a2, zero
		...
     e5c: 00 00        	<unknown>
     e5e: 11 00        	<unknown>
     e60: 26 06        	<unknown>
		...
     e76: 11 00        	<unknown>
     e78: 2c 06        	<unknown>
		...
     e8e: 11 00        	<unknown>
     e90: 36 06        	<unknown>
		...
     ea6: 11 00        	<unknown>
     ea8: 3b 06 00 00  	addw	a2, zero, zero
		...
     ebc: 00 00        	<unknown>
     ebe: 11 00        	<unknown>
     ec0: 47 06 00 00  	fmsub.s	fa2, ft0, ft0, ft0, rne
		...
     ed4: 00 00        	<unknown>
     ed6: 11 00        	<unknown>
     ed8: 4d 06        	<unknown>
		...
     eee: 11 00        	<unknown>
     ef0: 58 06        	<unknown>
		...
     f06: 11 00        	<unknown>
     f08: 5e 06        	<unknown>
		...
     f1e: 11 00        	<unknown>
     f20: 68 06        	<unknown>
		...
     f36: 11 00        	<unknown>
     f38: 6d 06        	<unknown>
		...
     f4e: 11 00        	<unknown>
     f50: 77 06 00 00  	<unknown>
		...
     f64: 00 00        	<unknown>
     f66: 11 00        	<unknown>
     f68: 7c 06        	<unknown>
		...
     f7e: 11 00        	<unknown>
     f80: 8b 06 00 00  	<unknown>
		...
     f94: 00 00        	<unknown>
     f96: 11 00        	<unknown>
     f98: 94 06        	<unknown>
		...
     fae: 11 00        	<unknown>
     fb0: f1 05        	<unknown>
		...
     fc6: 11 00        	<unknown>
     fc8: 9d 06        	<unknown>
		...
     fde: 11 00        	<unknown>
     fe0: 07 06 00 00  	<unknown>
		...
     ff4: 00 00        	<unknown>
     ff6: 11 00        	<unknown>
     ff8: a7 06 00 00  	<unknown>
		...
    100c: 00 00        	<unknown>
    100e: 11 00        	<unknown>
    1010: dc 0b        	<unknown>
		...
    1026: 11 00        	<unknown>
    1028: b0 06        	<unknown>
		...
    103e: 11 00        	<unknown>
    1040: ba 06        	<unknown>
		...
    1056: 11 00        	<unknown>
    1058: bf 06 00 00  	<unknown>
		...
    106c: 00 00        	<unknown>
    106e: 11 00        	<unknown>
    1070: ca 08        	<unknown>
		...
    1086: 11 00        	<unknown>
    1088: c8 06        	<unknown>
		...
    109e: 11 00        	<unknown>
    10a0: d2 06        	<unknown>
		...
    10b6: 11 00        	<unknown>
    10b8: d7 06 00 00  	<unknown>
		...
    10cc: 00 00        	<unknown>
    10ce: 11 00        	<unknown>
    10d0: e2 06        	<unknown>
		...
    10e6: 11 00        	<unknown>
    10e8: e8 06        	<unknown>
		...
    10fe: 11 00        	<unknown>
    1100: f2 06        	<unknown>
		...
    1116: 11 00        	<unknown>
    1118: f7 06 00 00  	<unknown>
		...
    112c: 00 00        	<unknown>
    112e: 11 00        	<unknown>
    1130: 02 07        	<unknown>
		...
    1146: 11 00        	<unknown>
    1148: 07 07 00 00  	<unknown>
		...
    115c: 00 00        	<unknown>
    115e: 11 00        	<unknown>
    1160: 12 07        	<unknown>
		...
    1176: 11 00        	<unknown>
    1178: 18 07        	<unknown>
		...
    118e: 11 00        	<unknown>
    1190: 23 07 00 00  	sb	zero, 0xe(zero)
		...
    11a4: 00 00        	<unknown>
    11a6: 11 00        	<unknown>
    11a8: 27 07 00 00  	<unknown>
		...
    11bc: 00 00        	<unknown>
    11be: 11 00        	<unknown>
    11c0: 32 07        	<unknown>
		...
    11d6: 11 00        	<unknown>
    11d8: 37 07 00 00  	lui	a4, 0x0
		...
    11ec: 00 00        	<unknown>
    11ee: 11 00        	<unknown>
    11f0: 42 07        	<unknown>
		...
    1206: 11 00        	<unknown>
    1208: 47 07 00 00  	fmsub.s	fa4, ft0, ft0, ft0, rne
		...
    121c: 00 00        	<unknown>
    121e: 11 00        	<unknown>
    1220: 52 07        	<unknown>
		...
    1236: 11 00        	<unknown>
    1238: 57 07 00 00  	<unknown>
		...
    124c: 00 00        	<unknown>
    124e: 11 00        	<unknown>
    1250: 68 07        	<unknown>
		...
    1266: 11 00        	<unknown>
    1268: 73 07 00 00  	<unknown>
		...
    127c: 00 00        	<unknown>
    127e: 11 00        	<unknown>
    1280: 80 07        	<unknown>
		...
    1296: 11 00        	<unknown>
    1298: 86 07        	<unknown>
		...
    12ae: 11 00        	<unknown>
    12b0: 92 07        	<unknown>
		...
    12c6: 11 00        	<unknown>
    12c8: 98 07        	<unknown>
		...
    12de: 11 00        	<unknown>
    12e0: a3 07 00 00  	sb	zero, 0xf(zero)
		...
    12f4: 00 00        	<unknown>
    12f6: 11 00        	<unknown>
    12f8: a9 07        	<unknown>
		...
    130e: 11 00        	<unknown>
    1310: b7 07 00 00  	lui	a5, 0x0
		...
    1324: 00 00        	<unknown>
    1326: 11 00        	<unknown>
    1328: c0 07        	<unknown>
		...
    133e: 11 00        	<unknown>
    1340: c5 07        	<unknown>
		...
    1356: 11 00        	<unknown>
    1358: d5 07        	<unknown>
		...
    136e: 11 00        	<unknown>
    1370: df 07 00 00  	<unknown>
		...
    1384: 00 00        	<unknown>
    1386: 11 00        	<unknown>
    1388: f5 07        	<unknown>
		...
    139e: 11 00        	<unknown>
    13a0: 04 08        	<unknown>
		...
    13b6: 11 00        	<unknown>
    13b8: 0f 08 00 00  	<unknown>
		...
    13cc: 00 00        	<unknown>
    13ce: 11 00        	<unknown>
    13d0: 15 08        	<unknown>
		...
    13e6: 11 00        	<unknown>
    13e8: 22 08        	<unknown>
		...
    13fe: 11 00        	<unknown>
    1400: 29 08        	<unknown>
		...
    1416: 11 00        	<unknown>
    1418: 3c 08        	<unknown>
		...
    142e: 11 00        	<unknown>
    1430: 48 08        	<unknown>
		...
    1446: 11 00        	<unknown>
    1448: 5d 08        	<unknown>
		...
    145e: 11 00        	<unknown>
    1460: 6b 08 00 00  	<unknown>
		...
    1474: 00 00        	<unknown>
    1476: 11 00        	<unknown>
    1478: 76 08        	<unknown>
		...
    148e: 11 00        	<unknown>
    1490: 7c 08        	<unknown>
		...
    14a6: 11 00        	<unknown>
    14a8: 8a 08        	<unknown>
		...
    14be: 11 00        	<unknown>
    14c0: 93 08 00 00  	li	a7, 0x0
		...
    14d4: 00 00        	<unknown>
    14d6: 11 00        	<unknown>
    14d8: a6 08        	<unknown>
		...
    14ee: 11 00        	<unknown>
    14f0: b2 08        	<unknown>
		...
    1506: 11 00        	<unknown>
    1508: ed 08        	<unknown>
		...
    151e: 11 00        	<unknown>
    1520: 70 0c        	<unknown>
		...
    1536: 11 00        	<unknown>
    1538: bc 08        	<unknown>
		...
    154e: 11 00        	<unknown>
    1550: c8 08        	<unknown>
		...
    1566: 11 00        	<unknown>
    1568: ce 08        	<unknown>
		...
    157e: 11 00        	<unknown>
    1580: da 08        	<unknown>
		...
    1596: 11 00        	<unknown>
    1598: e1 08        	<unknown>
		...
    15ae: 11 00        	<unknown>
    15b0: ec 08        	<unknown>
		...
    15c6: 11 00        	<unknown>
    15c8: 25 01        	<unknown>
		...
    15de: 11 00        	<unknown>
    15e0: f2 08        	<unknown>
		...
    15f6: 11 00        	<unknown>
    15f8: fe 08        	<unknown>
		...
    160e: 11 00        	<unknown>
    1610: 05 09        	<unknown>
		...
    1626: 11 00        	<unknown>
    1628: 0e 09        	<unknown>
		...
    163e: 11 00        	<unknown>
    1640: 12 09        	<unknown>
		...
    1656: 11 00        	<unknown>
    1658: 1d 09        	<unknown>
		...
    166e: 11 00        	<unknown>
    1670: 23 09 00 00  	sb	zero, 0x12(zero)
		...
    1684: 00 00        	<unknown>
    1686: 11 00        	<unknown>
    1688: 2e 09        	<unknown>
		...
    169e: 11 00        	<unknown>
    16a0: 34 09        	<unknown>
		...
    16b6: 11 00        	<unknown>
    16b8: 3e 09        	<unknown>
		...
    16ce: 11 00        	<unknown>
    16d0: 43 09 00 00  	fmadd.s	fs2, ft0, ft0, ft0, rne
		...
    16e4: 00 00        	<unknown>
    16e6: 11 00        	<unknown>
    16e8: a4 07        	<unknown>
		...
    16fe: 11 00        	<unknown>
    1700: 4d 09        	<unknown>
		...
    1716: 11 00        	<unknown>
    1718: ff 08 00 00  	<unknown>
		...
    172c: 00 00        	<unknown>
    172e: 11 00        	<unknown>
    1730: 58 09        	<unknown>
		...
    1746: 11 00        	<unknown>
    1748: 72 09        	<unknown>
		...
    175e: 11 00        	<unknown>
    1760: 64 09        	<unknown>
		...
    1776: 11 00        	<unknown>
    1778: 71 09        	<unknown>
		...
    178e: 11 00        	<unknown>
    1790: 79 09        	<unknown>
		...
    17a6: 11 00        	<unknown>
    17a8: 85 09        	<unknown>
		...
    17be: 11 00        	<unknown>
    17c0: 78 08        	<unknown>
		...
    17d6: 11 00        	<unknown>
    17d8: dc 0a        	<unknown>
		...
    17ee: 11 00        	<unknown>
    17f0: 90 09        	<unknown>
		...
    1806: 11 00        	<unknown>
    1808: 95 09        	<unknown>
		...
    181e: 11 00        	<unknown>
    1820: 71 08        	<unknown>
		...
    1836: 11 00        	<unknown>
    1838: a1 09        	<unknown>
		...
    184e: 11 00        	<unknown>
    1850: b0 09        	<unknown>
		...
    1866: 11 00        	<unknown>
    1868: ba 09        	<unknown>
		...
    187e: 11 00        	<unknown>
    1880: ca 09        	<unknown>
		...
    1896: 11 00        	<unknown>
    1898: d4 09        	<unknown>
		...
    18ae: 11 00        	<unknown>
    18b0: de 09        	<unknown>
		...
    18c6: 11 00        	<unknown>
    18c8: e2 09        	<unknown>
		...
    18de: 11 00        	<unknown>
    18e0: f2 09        	<unknown>
		...
    18f6: 11 00        	<unknown>
    18f8: fc 09        	<unknown>
		...
    190e: 11 00        	<unknown>
    1910: 0b 0a 00 00  	<unknown>
		...
    1924: 00 00        	<unknown>
    1926: 11 00        	<unknown>
    1928: 12 0a        	<unknown>
		...
    193e: 11 00        	<unknown>
    1940: 00 09        	<unknown>
		...
    1956: 11 00        	<unknown>
    1958: 1c 0a        	<unknown>
		...
    196e: 11 00        	<unknown>
    1970: 73 09 00 00  	<unknown>
		...
    1984: 00 00        	<unknown>
    1986: 11 00        	<unknown>
    1988: 27 0a 00 00  	<unknown>
		...
    199c: 00 00        	<unknown>
    199e: 11 00        	<unknown>
    19a0: 35 0a        	<unknown>
		...
    19b6: 11 00        	<unknown>
    19b8: 3d 0a        	<unknown>
		...
    19ce: 11 00        	<unknown>
    19d0: 4a 0a        	<unknown>
		...
    19e6: 11 00        	<unknown>
    19e8: 51 0a        	<unknown>
		...
    19fe: 11 00        	<unknown>
    1a00: 5e 0a        	<unknown>
		...
    1a16: 11 00        	<unknown>
    1a18: 66 0a        	<unknown>
		...
    1a2e: 11 00        	<unknown>
    1a30: 17 06 00 00  	auipc	a2, 0x0
		...
    1a44: 00 00        	<unknown>
    1a46: 11 00        	<unknown>
    1a48: 6f 0a 00 00  	jal	s4, 0x1a48 <.symtab+0x1a48>
		...
    1a5c: 00 00        	<unknown>
    1a5e: 11 00        	<unknown>
    1a60: 27 06 00 00  	<unknown>
		...
    1a74: 00 00        	<unknown>
    1a76: 11 00        	<unknown>
    1a78: 79 0a        	<unknown>
		...
    1a8e: 11 00        	<unknown>
    1a90: 83 0a 00 00  	lb	s5, 0x0(zero)
		...
    1aa4: 00 00        	<unknown>
    1aa6: 11 00        	<unknown>
    1aa8: 88 0a        	<unknown>
		...
    1abe: 11 00        	<unknown>
    1ac0: 37 06 00 00  	lui	a2, 0x0
		...
    1ad4: 00 00        	<unknown>
    1ad6: 11 00        	<unknown>
    1ad8: 91 0a        	<unknown>
		...
    1aee: 11 00        	<unknown>
    1af0: 59 06        	<unknown>
		...
    1b06: 11 00        	<unknown>
    1b08: 9b 0a 00 00  	sext.w	s5, zero
		...
    1b1c: 00 00        	<unknown>
    1b1e: 11 00        	<unknown>
    1b20: a7 0a 00 00  	<unknown>
		...
    1b34: 00 00        	<unknown>
    1b36: 11 00        	<unknown>
    1b38: ae 0a        	<unknown>
		...
    1b4e: 11 00        	<unknown>
    1b50: b9 0a        	<unknown>
		...
    1b66: 11 00        	<unknown>
    1b68: bf 0a 00 00  	<unknown>
		...
    1b7c: 00 00        	<unknown>
    1b7e: 11 00        	<unknown>
    1b80: c8 0a        	<unknown>
		...
    1b96: 11 00        	<unknown>
    1b98: ff 05 00 00  	<unknown>
		...
    1bac: 00 00        	<unknown>
    1bae: 11 00        	<unknown>
    1bb0: d0 0a        	<unknown>
		...
    1bc6: 11 00        	<unknown>
    1bc8: d7 0a 00 00  	<unknown>
		...
    1bdc: 00 00        	<unknown>
    1bde: 11 00        	<unknown>
    1be0: 1f 06 00 00  	<unknown>
		...
    1bf4: 00 00        	<unknown>
    1bf6: 11 00        	<unknown>
    1bf8: e3 0a 00 00  	beqz	zero, 0x240c <.symtab+0x240c>
		...
    1c0c: 00 00        	<unknown>
    1c0e: 11 00        	<unknown>
    1c10: 51 06        	<unknown>
		...
    1c26: 11 00        	<unknown>
    1c28: ea 0a        	<unknown>
		...
    1c3e: 11 00        	<unknown>
    1c40: 62 06        	<unknown>
		...
    1c56: 11 00        	<unknown>
    1c58: f1 0a        	<unknown>
		...
    1c6e: 11 00        	<unknown>
    1c70: f7 0a 00 00  	<unknown>
		...
    1c84: 00 00        	<unknown>
    1c86: 11 00        	<unknown>
    1c88: 01 0b        	<unknown>
		...
    1c9e: 11 00        	<unknown>
    1ca0: ab 06 00 00  	vx_tex	a3, zero, zero, zero
		...
    1cb4: 00 00        	<unknown>
    1cb6: 11 00        	<unknown>
    1cb8: 0b 0b 00 00  	<unknown>
		...
    1ccc: 00 00        	<unknown>
    1cce: 11 00        	<unknown>
    1cd0: b4 06        	<unknown>
		...
    1ce6: 11 00        	<unknown>
    1ce8: 10 0b        	<unknown>
		...
    1cfe: 11 00        	<unknown>
    1d00: cc 06        	<unknown>
		...
    1d16: 11 00        	<unknown>
    1d18: 16 0b        	<unknown>
		...
    1d2e: 11 00        	<unknown>
    1d30: db 06 00 00  	<unknown>
		...
    1d44: 00 00        	<unknown>
    1d46: 11 00        	<unknown>
    1d48: 1c 0b        	<unknown>
		...
    1d5e: 11 00        	<unknown>
    1d60: 23 0b 00 00  	sb	zero, 0x16(zero)
		...
    1d74: 00 00        	<unknown>
    1d76: 11 00        	<unknown>
    1d78: 29 0b        	<unknown>
		...
    1d8e: 11 00        	<unknown>
    1d90: 2f 0b 00 00  	<unknown>
		...
    1da4: 00 00        	<unknown>
    1da6: 11 00        	<unknown>
    1da8: 34 0b        	<unknown>
		...
    1dbe: 11 00        	<unknown>
    1dc0: 39 0b        	<unknown>
		...
    1dd6: 11 00        	<unknown>
    1dd8: 3f 0b 00 00  	<unknown>
		...
    1dec: 00 00        	<unknown>
    1dee: 11 00        	<unknown>
    1df0: 45 0b        	<unknown>
		...
    1e06: 11 00        	<unknown>
    1e08: 4b 0b 00 00  	fnmsub.s	fs6, ft0, ft0, ft0, rne
		...
    1e1c: 00 00        	<unknown>
    1e1e: 11 00        	<unknown>
    1e20: 51 0b        	<unknown>
		...
    1e36: 11 00        	<unknown>
    1e38: 58 0b        	<unknown>
		...
    1e4e: 11 00        	<unknown>
    1e50: 9c 07        	<unknown>
		...
    1e66: 11 00        	<unknown>
    1e68: 5f 0b 00 00  	<unknown>
		...
    1e7c: 00 00        	<unknown>
    1e7e: 11 00        	<unknown>
    1e80: d2 08        	<unknown>
		...
    1e96: 11 00        	<unknown>
    1e98: 66 0b        	<unknown>
		...
    1eae: 11 00        	<unknown>
    1eb0: f6 08        	<unknown>
		...
    1ec6: 11 00        	<unknown>
    1ec8: 6e 0b        	<unknown>
		...
    1ede: 11 00        	<unknown>
    1ee0: 68 09        	<unknown>
		...
    1ef6: 11 00        	<unknown>
    1ef8: 76 0b        	<unknown>
		...
    1f0e: 11 00        	<unknown>
    1f10: 27 09 00 00  	<unknown>
		...
    1f24: 00 00        	<unknown>
    1f26: 11 00        	<unknown>
    1f28: 7f 0b 00 00  	<unknown>
		...
    1f3c: 00 00        	<unknown>
    1f3e: 11 00        	<unknown>
    1f40: 38 09        	<unknown>
		...
    1f56: 11 00        	<unknown>
    1f58: 86 0b        	<unknown>
		...
    1f6e: 11 00        	<unknown>
    1f70: 47 09 00 00  	fmsub.s	fs2, ft0, ft0, ft0, rne
		...
    1f84: 00 00        	<unknown>
    1f86: 11 00        	<unknown>
    1f88: 60 0b        	<unknown>
		...
    1f9e: 11 00        	<unknown>
    1fa0: 51 09        	<unknown>
		...
    1fb6: 11 00        	<unknown>
    1fb8: 6f 0b 00 00  	jal	s6, 0x1fb8 <.symtab+0x1fb8>
		...
    1fcc: 00 00        	<unknown>
    1fce: 11 00        	<unknown>
    1fd0: 5c 09        	<unknown>
		...
    1fe6: 11 00        	<unknown>
    1fe8: 77 0b 00 00  	<unknown>
		...
    1ffc: 00 00        	<unknown>
    1ffe: 11 00        	<unknown>
    2000: 8c 0b        	<unknown>
		...
    2016: 11 00        	<unknown>
    2018: a5 09        	<unknown>
		...
    202e: 11 00        	<unknown>
    2030: 91 0b        	<unknown>
		...
    2046: 11 00        	<unknown>
    2048: 9c 0b        	<unknown>
		...
    205e: 11 00        	<unknown>
    2060: a7 0b 00 00  	<unknown>
		...
    2074: 00 00        	<unknown>
    2076: 11 00        	<unknown>
    2078: b2 0b        	<unknown>
		...
    208e: 11 00        	<unknown>
    2090: bd 0b        	<unknown>
		...
    20a6: 11 00        	<unknown>
    20a8: c9 0b        	<unknown>
		...
    20be: 11 00        	<unknown>
    20c0: d5 0b        	<unknown>
		...
    20d6: 11 00        	<unknown>
    20d8: e0 0b        	<unknown>
		...
    20ee: 11 00        	<unknown>
    20f0: eb 0b 00 00  	<unknown>
		...
    2104: 00 00        	<unknown>
    2106: 11 00        	<unknown>
    2108: f3 0b 00 00  	<unknown>
		...
    211c: 00 00        	<unknown>
    211e: 11 00        	<unknown>
    2120: 16 0a        	<unknown>
		...
    2136: 11 00        	<unknown>
    2138: 70 0b        	<unknown>
		...
    214e: 11 00        	<unknown>
    2150: 20 0a        	<unknown>
		...
    2166: 11 00        	<unknown>
    2168: 78 0b        	<unknown>
		...
    217e: 11 00        	<unknown>
    2180: fb 0b 00 00  	<unknown>
		...
    2194: 00 00        	<unknown>
    2196: 11 00        	<unknown>
    2198: 04 0c        	<unknown>
		...
    21ae: 11 00        	<unknown>
    21b0: 0d 0c        	<unknown>
		...
    21c6: 11 00        	<unknown>
    21c8: 15 0c        	<unknown>
		...
    21de: 11 00        	<unknown>
    21e0: 9f 0a 00 00  	<unknown>
		...
    21f4: 00 00        	<unknown>
    21f6: 11 00        	<unknown>
    21f8: 1d 0c        	<unknown>
		...
    220e: 11 00        	<unknown>
    2210: b2 0a        	<unknown>
		...
    2226: 11 00        	<unknown>
    2228: 25 0c        	<unknown>
		...
    223e: 11 00        	<unknown>
    2240: 0f 0d 00 00  	<unknown>
		...
    2254: 00 00        	<unknown>
    2256: 11 00        	<unknown>
    2258: 0e 0d        	<unknown>
		...
    226e: 11 00        	<unknown>
    2270: 2c 0c        	<unknown>
		...
    2286: 11 00        	<unknown>
    2288: 31 0c        	<unknown>
		...
    229e: 11 00        	<unknown>
    22a0: 35 0c        	<unknown>
		...
    22b6: 11 00        	<unknown>
    22b8: 3b 0c 00 00  	addw	s8, zero, zero
		...
    22cc: 00 00        	<unknown>
    22ce: 11 00        	<unknown>
    22d0: 42 0c        	<unknown>
		...
    22e6: 11 00        	<unknown>
    22e8: 50 0c        	<unknown>
		...
    22fe: 11 00        	<unknown>
    2300: 55 0c        	<unknown>
		...
    2316: 11 00        	<unknown>
    2318: 5a 0c        	<unknown>
		...
    232e: 11 00        	<unknown>
    2330: 5f 0c 00 00  	<unknown>
		...
    2344: 00 00        	<unknown>
    2346: 11 00        	<unknown>
    2348: 75 0c        	<unknown>
		...
    235e: 11 00        	<unknown>
    2360: 67 0c 00 00  	jalr	s8, zero <.symtab>
		...
    2374: 00 00        	<unknown>
    2376: 11 00        	<unknown>
    2378: 7c 0c        	<unknown>
		...
    238e: 11 00        	<unknown>
    2390: 8a 0c        	<unknown>
		...
    23a6: 11 00        	<unknown>
    23a8: 1d 0d        	<unknown>
		...
    23be: 11 00        	<unknown>
    23c0: 4b 0c 00 00  	fnmsub.s	fs8, ft0, ft0, ft0, rne
		...
    23d4: 00 00        	<unknown>
    23d6: 11 00        	<unknown>
    23d8: 91 0c        	<unknown>
		...
    23ee: 11 00        	<unknown>
    23f0: 96 0c        	<unknown>
		...
    2406: 11 00        	<unknown>
    2408: 1c 0d        	<unknown>
		...
    241e: 11 00        	<unknown>
    2420: 9d 0c        	<unknown>
		...
    2436: 11 00        	<unknown>
    2438: a4 0c        	<unknown>
		...
    244e: 11 00        	<unknown>
    2450: aa 0c        	<unknown>
		...
    2466: 11 00        	<unknown>
    2468: b3 0c 00 00  	add	s9, zero, zero
		...
    247c: 00 00        	<unknown>
    247e: 11 00        	<unknown>
    2480: bb 0c 00 00  	addw	s9, zero, zero
		...
    2494: 00 00        	<unknown>
    2496: 11 00        	<unknown>
    2498: c2 0c        	<unknown>
		...
    24ae: 11 00        	<unknown>
    24b0: 45 0c        	<unknown>
		...
    24c6: 11 00        	<unknown>
    24c8: d1 0c        	<unknown>
		...
    24de: 11 00        	<unknown>
    24e0: c8 0c        	<unknown>
		...
    24f6: 11 00        	<unknown>
    24f8: d0 0c        	<unknown>
		...
    250e: 11 00        	<unknown>
    2510: d6 0c        	<unknown>
		...
    2526: 11 00        	<unknown>
    2528: dd 0c        	<unknown>
		...
    253e: 11 00        	<unknown>
    2540: e4 0c        	<unknown>
		...
    2556: 11 00        	<unknown>
    2558: ec 0c        	<unknown>
		...
    256e: 11 00        	<unknown>
    2570: f3 0c 00 00  	<unknown>
		...
    2584: 00 00        	<unknown>
    2586: 11 00        	<unknown>
    2588: fc 0c        	<unknown>
		...
    259e: 11 00        	<unknown>
    25a0: 03 0d 00 00  	lb	s10, 0x0(zero)
		...
    25b4: 00 00        	<unknown>
    25b6: 11 00        	<unknown>
    25b8: 47 0d 00 00  	fmsub.s	fs10, ft0, ft0, ft0, rne
		...
    25cc: 00 00        	<unknown>
    25ce: 11 00        	<unknown>
    25d0: 0d 0d        	<unknown>
		...
    25e6: 11 00        	<unknown>
    25e8: 15 0d        	<unknown>
		...
    25fe: 11 00        	<unknown>
    2600: 1b 0d 00 00  	sext.w	s10, zero
		...
    2614: 00 00        	<unknown>
    2616: 11 00        	<unknown>
    2618: 21 0d        	<unknown>
		...
    262e: 11 00        	<unknown>
    2630: 27 0d 00 00  	<unknown>
		...
    2644: 00 00        	<unknown>
    2646: 11 00        	<unknown>
    2648: 2f 0d 00 00  	<unknown>
		...
    265c: 00 00        	<unknown>
    265e: 11 00        	<unknown>
    2660: 38 0d        	<unknown>
		...
    2676: 11 00        	<unknown>
    2678: 3f 0d 00 00  	<unknown>
		...
    268c: 00 00        	<unknown>
    268e: 11 00        	<unknown>
    2690: 66 0d        	<unknown>
		...
    26a6: 11 00        	<unknown>
    26a8: ea 05        	<unknown>
		...
    26be: 11 00        	<unknown>
    26c0: 71 0d        	<unknown>
		...
    26d6: 11 00        	<unknown>
    26d8: 7d 0d        	<unknown>
		...
    26ee: 11 00        	<unknown>
    26f0: 10 06        	<unknown>
		...
    2706: 11 00        	<unknown>
    2708: 88 0d        	<unknown>
		...
    271e: 11 00        	<unknown>
    2720: 94 0d        	<unknown>
		...
    2736: 11 00        	<unknown>
    2738: a1 0d        	<unknown>
		...
    274e: 11 00        	<unknown>
    2750: a8 0d        	<unknown>
		...
    2766: 11 00        	<unknown>
    2768: 30 06        	<unknown>
		...
    277e: 11 00        	<unknown>
    2780: b3 0d 00 00  	add	s11, zero, zero
		...
    2794: 00 00        	<unknown>
    2796: 11 00        	<unknown>
    2798: bf 0d 00 00  	<unknown>
		...
    27ac: 00 00        	<unknown>
    27ae: 11 00        	<unknown>
    27b0: ca 0d        	<unknown>
		...
    27c6: 11 00        	<unknown>
    27c8: 71 06        	<unknown>
		...
    27de: 11 00        	<unknown>
    27e0: d5 0d        	<unknown>
		...
    27f6: 11 00        	<unknown>
    27f8: e5 0d        	<unknown>
		...
    280e: 11 00        	<unknown>
    2810: 98 06        	<unknown>
		...
    2826: 11 00        	<unknown>
    2828: ef 0d 00 00  	jal	s11, 0x2828 <.symtab+0x2828>
		...
    283c: 00 00        	<unknown>
    283e: 11 00        	<unknown>
    2840: a1 06        	<unknown>
		...
    2856: 11 00        	<unknown>
    2858: fa 0d        	<unknown>
		...
    286e: 11 00        	<unknown>
    2870: 05 0e        	<unknown>
		...
    2886: 11 00        	<unknown>
    2888: 0f 0e 00 00  	<unknown>
		...
    289c: 00 00        	<unknown>
    289e: 11 00        	<unknown>
    28a0: 1a 0e        	<unknown>
		...
    28b6: 11 00        	<unknown>
    28b8: c3 06 00 00  	fmadd.s	fa3, ft0, ft0, ft0, rne
		...
    28cc: 00 00        	<unknown>
    28ce: 11 00        	<unknown>
    28d0: 24 0e        	<unknown>
		...
    28e6: 11 00        	<unknown>
    28e8: 30 0e        	<unknown>
		...
    28fe: 11 00        	<unknown>
    2900: ec 06        	<unknown>
		...
    2916: 11 00        	<unknown>
    2918: 3b 0e 00 00  	addw	t3, zero, zero
		...
    292c: 00 00        	<unknown>
    292e: 11 00        	<unknown>
    2930: 47 0e 00 00  	fmsub.s	ft8, ft0, ft0, ft0, rne
		...
    2944: 00 00        	<unknown>
    2946: 11 00        	<unknown>
    2948: 0b 07 00 00  	<unknown>
		...
    295c: 00 00        	<unknown>
    295e: 11 00        	<unknown>
    2960: 53 0e 00 00  	fadd.s	ft8, ft0, ft0, rne
		...
    2974: 00 00        	<unknown>
    2976: 11 00        	<unknown>
    2978: 5f 0e 00 00  	<unknown>
		...
    298c: 00 00        	<unknown>
    298e: 11 00        	<unknown>
    2990: 6b 0e 00 00  	<unknown>
		...
    29a4: 00 00        	<unknown>
    29a6: 11 00        	<unknown>
    29a8: 77 0e 00 00  	<unknown>
		...
    29bc: 00 00        	<unknown>
    29be: 11 00        	<unknown>
    29c0: 83 0e 00 00  	lb	t4, 0x0(zero)
		...
    29d4: 00 00        	<unknown>
    29d6: 11 00        	<unknown>
    29d8: 89 0e        	<unknown>
		...
    29ee: 11 00        	<unknown>
    29f0: 97 0e 00 00  	auipc	t4, 0x0
		...
    2a04: 00 00        	<unknown>
    2a06: 11 00        	<unknown>
    2a08: 9e 0e        	<unknown>
		...
    2a1e: 11 00        	<unknown>
    2a20: ab 0e 00 00  	vx_tex	t4, zero, zero, zero
		...
    2a34: 00 00        	<unknown>
    2a36: 11 00        	<unknown>
    2a38: b7 0e 00 00  	lui	t4, 0x0
		...
    2a4c: 00 00        	<unknown>
    2a4e: 11 00        	<unknown>
    2a50: c4 0e        	<unknown>
		...
    2a66: 11 00        	<unknown>
    2a68: cb 0e 00 00  	fnmsub.s	ft9, ft0, ft0, ft0, rne
		...
    2a7c: 00 00        	<unknown>
    2a7e: 11 00        	<unknown>
    2a80: d8 0e        	<unknown>
		...
    2a96: 11 00        	<unknown>
    2a98: e5 0e        	<unknown>
		...
    2aae: 11 00        	<unknown>
    2ab0: f3 0e 00 00  	<unknown>
		...
    2ac4: 00 00        	<unknown>
    2ac6: 11 00        	<unknown>
    2ac8: 16 09        	<unknown>
		...
    2ade: 11 00        	<unknown>
    2ae0: ff 0e 00 00  	<unknown>
		...
    2af4: 00 00        	<unknown>
    2af6: 11 00        	<unknown>
    2af8: 0b 0f 00 00  	<unknown>
		...
    2b0c: 00 00        	<unknown>
    2b0e: 11 00        	<unknown>
    2b10: 16 0f        	<unknown>
		...
    2b26: 11 00        	<unknown>
    2b28: 21 0f        	<unknown>
		...
    2b3e: 11 00        	<unknown>
    2b40: 09 09        	<unknown>
		...
    2b56: 11 00        	<unknown>
    2b58: 2b 0f 00 00  	vx_tex	t5, zero, zero, zero
		...
    2b6c: 00 00        	<unknown>
    2b6e: 11 00        	<unknown>
    2b70: 37 0f 00 00  	lui	t5, 0x0
		...
    2b84: 00 00        	<unknown>
    2b86: 11 00        	<unknown>
    2b88: 44 0f        	<unknown>
		...
    2b9e: 11 00        	<unknown>
    2ba0: 4c 07        	<unknown>
		...
    2bb6: 11 00        	<unknown>
    2bb8: 51 0f        	<unknown>
		...
    2bce: 11 00        	<unknown>
    2bd0: 62 0f        	<unknown>
		...
    2be6: 11 00        	<unknown>
    2be8: 74 0f        	<unknown>
		...
    2bfe: 11 00        	<unknown>
    2c00: 7f 0f 00 00  	<unknown>
		...
    2c14: 00 00        	<unknown>
    2c16: 11 00        	<unknown>
    2c18: 84 0f        	<unknown>
		...
    2c2e: 11 00        	<unknown>
    2c30: 96 0f        	<unknown>
		...
    2c46: 11 00        	<unknown>
    2c48: a6 0f        	<unknown>
		...
    2c5e: 11 00        	<unknown>
    2c60: b1 0f        	<unknown>
		...
    2c76: 11 00        	<unknown>
    2c78: bd 0f        	<unknown>
		...
    2c8e: 11 00        	<unknown>
    2c90: cc 0f        	<unknown>
		...
    2ca6: 11 00        	<unknown>
    2ca8: da 0f        	<unknown>
		...
    2cbe: 11 00        	<unknown>
    2cc0: 6a 0a        	<unknown>
		...
    2cd6: 11 00        	<unknown>
    2cd8: e4 0f        	<unknown>
		...
    2cee: 11 00        	<unknown>
    2cf0: 73 0a 00 00  	<unknown>
		...
    2d04: 00 00        	<unknown>
    2d06: 11 00        	<unknown>
    2d08: ef 0f 00 00  	jal	t6, 0x2d08 <.symtab+0x2d08>
		...
    2d1c: 00 00        	<unknown>
    2d1e: 11 00        	<unknown>
    2d20: 7d 0a        	<unknown>
		...
    2d36: 11 00        	<unknown>
    2d38: fa 0f        	<unknown>
		...
    2d4e: 11 00        	<unknown>
    2d50: 8c 0a        	<unknown>
		...
    2d66: 11 00        	<unknown>
    2d68: 04 10        	<unknown>
		...
    2d7e: 11 00        	<unknown>
    2d80: 95 0a        	<unknown>
		...
    2d96: 11 00        	<unknown>
    2d98: 0f 10 00 00  	fence.i
		...
    2dac: 00 00        	<unknown>
    2dae: 11 00        	<unknown>
    2db0: 1c 10        	<unknown>
		...
    2dbe: 00 00        	<unknown>
    2dc0: a7 00 00 00  	<unknown>
    2dc4: 00 00        	<unknown>
    2dc6: 11 00        	<unknown>
		...
    2dd8: ac 00        	<unknown>
    2dda: 00 00        	<unknown>
    2ddc: 00 00        	<unknown>
    2dde: 0b 00 67 00  	<unknown>
		...
    2dee: 00 00        	<unknown>
    2df0: b1 00        	<unknown>
    2df2: 00 00        	<unknown>
    2df4: 00 00        	<unknown>
    2df6: 0b 00 68 00  	<unknown>
		...
    2e06: 00 00        	<unknown>
    2e08: b6 00        	<unknown>
    2e0a: 00 00        	<unknown>
    2e0c: 00 00        	<unknown>
    2e0e: 0c 00        	<unknown>
    2e10: 43 00 00 00  	fmadd.s	ft0, ft0, ft0, ft0, rne
		...
    2e24: 00 00        	<unknown>
    2e26: 10 00        	<unknown>
		...
    2e38: bb 00 00 00  	addw	ra, zero, zero
    2e3c: 00 00        	<unknown>
    2e3e: 10 00        	<unknown>
		...
    2e50: c1 00        	<unknown>
    2e52: 00 00        	<unknown>
    2e54: 00 00        	<unknown>
    2e56: 0f 00 00 00  	fence	0, 0
		...
    2e66: 00 00        	<unknown>
    2e68: fc 00        	<unknown>
    2e6a: 00 00        	<unknown>
    2e6c: 04 00        	<unknown>
    2e6e: f1 ff        	<unknown>
		...
    2e80: 0e 00        	<unknown>
    2e82: 00 00        	<unknown>
    2e84: 00 00        	<unknown>
    2e86: 02 00        	<unknown>
    2e88: 84 05        	<unknown>
    2e8a: 00 80        	<unknown>
    2e8c: 01 00        	<unknown>
		...
    2e96: 00 00        	<unknown>
    2e98: 0e 00        	<unknown>
    2e9a: 00 00        	<unknown>
    2e9c: 00 00        	<unknown>
    2e9e: 02 00        	<unknown>
    2ea0: c8 05        	<unknown>
    2ea2: 00 80        	<unknown>
    2ea4: 01 00        	<unknown>
		...
    2eae: 00 00        	<unknown>
    2eb0: 0e 00        	<unknown>
    2eb2: 00 00        	<unknown>
    2eb4: 00 00        	<unknown>
    2eb6: 02 00        	<unknown>
    2eb8: 5c 06        	<unknown>
    2eba: 00 80        	<unknown>
    2ebc: 01 00        	<unknown>
		...
    2ec6: 00 00        	<unknown>
    2ec8: 0a 01        	<unknown>
    2eca: 00 00        	<unknown>
    2ecc: 04 00        	<unknown>
    2ece: f1 ff        	<unknown>
		...
    2ee0: 0e 00        	<unknown>
    2ee2: 00 00        	<unknown>
    2ee4: 00 00        	<unknown>
    2ee6: 02 00        	<unknown>
    2ee8: b8 06        	<unknown>
    2eea: 00 80        	<unknown>
    2eec: 01 00        	<unknown>
		...
    2ef6: 00 00        	<unknown>
    2ef8: 17 01 00 00  	auipc	sp, 0x0
    2efc: 04 00        	<unknown>
    2efe: f1 ff        	<unknown>
		...
    2f10: 22 01        	<unknown>
    2f12: 00 00        	<unknown>
    2f14: 02 00        	<unknown>
    2f16: 02 00        	<unknown>
    2f18: d0 06        	<unknown>
    2f1a: 00 80        	<unknown>
    2f1c: 01 00        	<unknown>
    2f1e: 00 00        	<unknown>
    2f20: 34 00        	<unknown>
    2f22: 00 00        	<unknown>
    2f24: 00 00        	<unknown>
    2f26: 00 00        	<unknown>
    2f28: 0e 00        	<unknown>
    2f2a: 00 00        	<unknown>
    2f2c: 00 00        	<unknown>
    2f2e: 02 00        	<unknown>
    2f30: d0 06        	<unknown>
    2f32: 00 80        	<unknown>
    2f34: 01 00        	<unknown>
		...
    2f3e: 00 00        	<unknown>
    2f40: 0e 00        	<unknown>
    2f42: 00 00        	<unknown>
    2f44: 00 00        	<unknown>
    2f46: 02 00        	<unknown>
    2f48: 04 07        	<unknown>
    2f4a: 00 80        	<unknown>
    2f4c: 01 00        	<unknown>
		...
    2f56: 00 00        	<unknown>
    2f58: 2f 01 00 00  	<unknown>
    2f5c: 04 00        	<unknown>
    2f5e: f1 ff        	<unknown>
		...
    2f70: 3a 01        	<unknown>
    2f72: 00 00        	<unknown>
    2f74: 02 00        	<unknown>
    2f76: 02 00        	<unknown>
    2f78: 64 07        	<unknown>
    2f7a: 00 80        	<unknown>
    2f7c: 01 00        	<unknown>
    2f7e: 00 00        	<unknown>
    2f80: 20 01        	<unknown>
    2f82: 00 00        	<unknown>
    2f84: 00 00        	<unknown>
    2f86: 00 00        	<unknown>
    2f88: 0e 00        	<unknown>
    2f8a: 00 00        	<unknown>
    2f8c: 00 00        	<unknown>
    2f8e: 02 00        	<unknown>
    2f90: 64 07        	<unknown>
    2f92: 00 80        	<unknown>
    2f94: 01 00        	<unknown>
		...
    2f9e: 00 00        	<unknown>
    2fa0: 4a 01        	<unknown>
    2fa2: 00 00        	<unknown>
    2fa4: 02 00        	<unknown>
    2fa6: 02 00        	<unknown>
    2fa8: 84 08        	<unknown>
    2faa: 00 80        	<unknown>
    2fac: 01 00        	<unknown>
    2fae: 00 00        	<unknown>
    2fb0: 5c 00        	<unknown>
    2fb2: 00 00        	<unknown>
    2fb4: 00 00        	<unknown>
    2fb6: 00 00        	<unknown>
    2fb8: 0e 00        	<unknown>
    2fba: 00 00        	<unknown>
    2fbc: 00 00        	<unknown>
    2fbe: 02 00        	<unknown>
    2fc0: 84 08        	<unknown>
    2fc2: 00 80        	<unknown>
    2fc4: 01 00        	<unknown>
		...
    2fce: 00 00        	<unknown>
    2fd0: 64 01        	<unknown>
    2fd2: 00 00        	<unknown>
    2fd4: 02 00        	<unknown>
    2fd6: 02 00        	<unknown>
    2fd8: e0 08        	<unknown>
    2fda: 00 80        	<unknown>
    2fdc: 01 00        	<unknown>
    2fde: 00 00        	<unknown>
    2fe0: 24 00        	<unknown>
    2fe2: 00 00        	<unknown>
    2fe4: 00 00        	<unknown>
    2fe6: 00 00        	<unknown>
    2fe8: 0e 00        	<unknown>
    2fea: 00 00        	<unknown>
    2fec: 00 00        	<unknown>
    2fee: 02 00        	<unknown>
    2ff0: e0 08        	<unknown>
    2ff2: 00 80        	<unknown>
    2ff4: 01 00        	<unknown>
		...
    2ffe: 00 00        	<unknown>
    3000: 79 01        	<unknown>
    3002: 00 00        	<unknown>
    3004: 02 00        	<unknown>
    3006: 02 00        	<unknown>
    3008: 04 09        	<unknown>
    300a: 00 80        	<unknown>
    300c: 01 00        	<unknown>
    300e: 00 00        	<unknown>
    3010: 58 01        	<unknown>
    3012: 00 00        	<unknown>
    3014: 00 00        	<unknown>
    3016: 00 00        	<unknown>
    3018: 0e 00        	<unknown>
    301a: 00 00        	<unknown>
    301c: 00 00        	<unknown>
    301e: 02 00        	<unknown>
    3020: 04 09        	<unknown>
    3022: 00 80        	<unknown>
    3024: 01 00        	<unknown>
		...
    302e: 00 00        	<unknown>
    3030: 8f 01 00 00  	<unknown>
    3034: 02 00        	<unknown>
    3036: 02 00        	<unknown>
    3038: 5c 0a        	<unknown>
    303a: 00 80        	<unknown>
    303c: 01 00        	<unknown>
    303e: 00 00        	<unknown>
    3040: 50 00        	<unknown>
    3042: 00 00        	<unknown>
    3044: 00 00        	<unknown>
    3046: 00 00        	<unknown>
    3048: 0e 00        	<unknown>
    304a: 00 00        	<unknown>
    304c: 00 00        	<unknown>
    304e: 02 00        	<unknown>
    3050: 5c 0a        	<unknown>
    3052: 00 80        	<unknown>
    3054: 01 00        	<unknown>
		...
    305e: 00 00        	<unknown>
    3060: 0e 00        	<unknown>
    3062: 00 00        	<unknown>
    3064: 00 00        	<unknown>
    3066: 02 00        	<unknown>
    3068: ac 0a        	<unknown>
    306a: 00 80        	<unknown>
    306c: 01 00        	<unknown>
		...
    3076: 00 00        	<unknown>
    3078: aa 01        	<unknown>
    307a: 00 00        	<unknown>
    307c: 04 00        	<unknown>
    307e: f1 ff        	<unknown>
		...
    3090: 0e 00        	<unknown>
    3092: 00 00        	<unknown>
    3094: 00 00        	<unknown>
    3096: 02 00        	<unknown>
    3098: 30 0f        	<unknown>
    309a: 00 80        	<unknown>
    309c: 01 00        	<unknown>
		...
    30a6: 00 00        	<unknown>
    30a8: b8 01        	<unknown>
    30aa: 00 00        	<unknown>
    30ac: 00 00        	<unknown>
    30ae: 02 00        	<unknown>
    30b0: 64 0f        	<unknown>
    30b2: 00 80        	<unknown>
    30b4: 01 00        	<unknown>
		...
    30be: 00 00        	<unknown>
    30c0: c3 01 00 00  	fmadd.s	ft3, ft0, ft0, ft0, rne
    30c4: 00 00        	<unknown>
    30c6: 02 00        	<unknown>
    30c8: 7c 0f        	<unknown>
    30ca: 00 80        	<unknown>
    30cc: 01 00        	<unknown>
		...
    30d6: 00 00        	<unknown>
    30d8: ce 01        	<unknown>
    30da: 00 00        	<unknown>
    30dc: 04 00        	<unknown>
    30de: f1 ff        	<unknown>
		...
    30f0: 0e 00        	<unknown>
    30f2: 00 00        	<unknown>
    30f4: 00 00        	<unknown>
    30f6: 02 00        	<unknown>
    30f8: ac 0f        	<unknown>
    30fa: 00 80        	<unknown>
    30fc: 01 00        	<unknown>
		...
    3106: 00 00        	<unknown>
    3108: d8 01        	<unknown>
    310a: 00 00        	<unknown>
    310c: 04 00        	<unknown>
    310e: f1 ff        	<unknown>
		...
    3120: e5 01        	<unknown>
    3122: 00 00        	<unknown>
    3124: 02 00        	<unknown>
    3126: 02 00        	<unknown>
    3128: b8 10        	<unknown>
    312a: 00 80        	<unknown>
    312c: 01 00        	<unknown>
    312e: 00 00        	<unknown>
    3130: 04 00        	<unknown>
    3132: 00 00        	<unknown>
    3134: 00 00        	<unknown>
    3136: 00 00        	<unknown>
    3138: 0e 00        	<unknown>
    313a: 00 00        	<unknown>
    313c: 00 00        	<unknown>
    313e: 02 00        	<unknown>
    3140: b8 10        	<unknown>
    3142: 00 80        	<unknown>
    3144: 01 00        	<unknown>
		...
    314e: 00 00        	<unknown>
    3150: ef 01 00 00  	jal	gp, 0x3150 <.symtab+0x3150>
    3154: 02 00        	<unknown>
    3156: 02 00        	<unknown>
    3158: bc 10        	<unknown>
    315a: 00 80        	<unknown>
    315c: 01 00        	<unknown>
    315e: 00 00        	<unknown>
    3160: 3c 01        	<unknown>
    3162: 00 00        	<unknown>
    3164: 00 00        	<unknown>
    3166: 00 00        	<unknown>
    3168: 0e 00        	<unknown>
    316a: 00 00        	<unknown>
    316c: 00 00        	<unknown>
    316e: 02 00        	<unknown>
    3170: bc 10        	<unknown>
    3172: 00 80        	<unknown>
    3174: 01 00        	<unknown>
		...
    317e: 00 00        	<unknown>
    3180: f8 01        	<unknown>
    3182: 00 00        	<unknown>
    3184: 02 00        	<unknown>
    3186: 02 00        	<unknown>
    3188: f8 11        	<unknown>
    318a: 00 80        	<unknown>
    318c: 01 00        	<unknown>
    318e: 00 00        	<unknown>
    3190: 0c 04        	<unknown>
    3192: 00 00        	<unknown>
    3194: 00 00        	<unknown>
    3196: 00 00        	<unknown>
    3198: 0e 00        	<unknown>
    319a: 00 00        	<unknown>
    319c: 00 00        	<unknown>
    319e: 02 00        	<unknown>
    31a0: f8 11        	<unknown>
    31a2: 00 80        	<unknown>
    31a4: 01 00        	<unknown>
		...
    31ae: 00 00        	<unknown>
    31b0: 03 02 00 00  	lb	tp, 0x0(zero)
    31b4: 02 00        	<unknown>
    31b6: 02 00        	<unknown>
    31b8: f8 11        	<unknown>
    31ba: 00 80        	<unknown>
    31bc: 01 00        	<unknown>
    31be: 00 00        	<unknown>
    31c0: 0c 04        	<unknown>
    31c2: 00 00        	<unknown>
    31c4: 00 00        	<unknown>
    31c6: 00 00        	<unknown>
    31c8: 13 02 00 00  	li	tp, 0x0
    31cc: 02 00        	<unknown>
    31ce: 02 00        	<unknown>
    31d0: 04 16        	<unknown>
    31d2: 00 80        	<unknown>
    31d4: 01 00        	<unknown>
    31d6: 00 00        	<unknown>
    31d8: 0c 00        	<unknown>
    31da: 00 00        	<unknown>
    31dc: 00 00        	<unknown>
    31de: 00 00        	<unknown>
    31e0: 0e 00        	<unknown>
    31e2: 00 00        	<unknown>
    31e4: 00 00        	<unknown>
    31e6: 02 00        	<unknown>
    31e8: 04 16        	<unknown>
    31ea: 00 80        	<unknown>
    31ec: 01 00        	<unknown>
		...
    31f6: 00 00        	<unknown>
    31f8: 1d 02        	<unknown>
    31fa: 00 00        	<unknown>
    31fc: 02 00        	<unknown>
    31fe: 02 00        	<unknown>
    3200: 10 16        	<unknown>
    3202: 00 80        	<unknown>
    3204: 01 00        	<unknown>
    3206: 00 00        	<unknown>
    3208: 50 04        	<unknown>
    320a: 00 00        	<unknown>
    320c: 00 00        	<unknown>
    320e: 00 00        	<unknown>
    3210: 0e 00        	<unknown>
    3212: 00 00        	<unknown>
    3214: 00 00        	<unknown>
    3216: 02 00        	<unknown>
    3218: 10 16        	<unknown>
    321a: 00 80        	<unknown>
    321c: 01 00        	<unknown>
		...
    3226: 00 00        	<unknown>
    3228: 23 02 00 00  	sb	zero, 0x4(zero)
    322c: 02 00        	<unknown>
    322e: 02 00        	<unknown>
    3230: 60 1a        	<unknown>
    3232: 00 80        	<unknown>
    3234: 01 00        	<unknown>
    3236: 00 00        	<unknown>
    3238: a0 03        	<unknown>
    323a: 00 00        	<unknown>
    323c: 00 00        	<unknown>
    323e: 00 00        	<unknown>
    3240: 29 02        	<unknown>
    3242: 00 00        	<unknown>
    3244: 01 00        	<unknown>
    3246: 03 00 00 32  	lb	zero, 0x320(zero)
    324a: 00 80        	<unknown>
    324c: 01 00        	<unknown>
    324e: 00 00        	<unknown>
    3250: 50 00        	<unknown>
    3252: 00 00        	<unknown>
    3254: 00 00        	<unknown>
    3256: 00 00        	<unknown>
    3258: 0e 00        	<unknown>
    325a: 00 00        	<unknown>
    325c: 00 00        	<unknown>
    325e: 02 00        	<unknown>
    3260: 60 1a        	<unknown>
    3262: 00 80        	<unknown>
    3264: 01 00        	<unknown>
		...
    326e: 00 00        	<unknown>
    3270: 31 02        	<unknown>
    3272: 00 00        	<unknown>
    3274: 02 00        	<unknown>
    3276: 02 00        	<unknown>
    3278: 00 1e        	<unknown>
    327a: 00 80        	<unknown>
    327c: 01 00        	<unknown>
    327e: 00 00        	<unknown>
    3280: 2c 0a        	<unknown>
    3282: 00 00        	<unknown>
    3284: 00 00        	<unknown>
    3286: 00 00        	<unknown>
    3288: 0e 00        	<unknown>
    328a: 00 00        	<unknown>
    328c: 00 00        	<unknown>
    328e: 02 00        	<unknown>
    3290: 00 1e        	<unknown>
    3292: 00 80        	<unknown>
    3294: 01 00        	<unknown>
		...
    329e: 00 00        	<unknown>
    32a0: 0e 00        	<unknown>
    32a2: 00 00        	<unknown>
    32a4: 00 00        	<unknown>
    32a6: 02 00        	<unknown>
    32a8: 2c 28        	<unknown>
    32aa: 00 80        	<unknown>
    32ac: 01 00        	<unknown>
		...
    32b6: 00 00        	<unknown>
    32b8: 3c 02        	<unknown>
    32ba: 00 00        	<unknown>
    32bc: 04 00        	<unknown>
    32be: f1 ff        	<unknown>
		...
    32d0: 71 00        	<unknown>
    32d2: 00 00        	<unknown>
    32d4: 00 00        	<unknown>
    32d6: 02 00        	<unknown>
    32d8: c4 28        	<unknown>
    32da: 00 80        	<unknown>
    32dc: 01 00        	<unknown>
		...
    32e6: 00 00        	<unknown>
    32e8: 45 02        	<unknown>
    32ea: 00 00        	<unknown>
    32ec: 00 00        	<unknown>
    32ee: 0b 00 67 00  	<unknown>
		...
    32fe: 00 00        	<unknown>
    3300: 4a 02        	<unknown>
    3302: 00 00        	<unknown>
    3304: 00 00        	<unknown>
    3306: 0c 00        	<unknown>
    3308: 24 03        	<unknown>
		...
    3316: 00 00        	<unknown>
    3318: 4f 02 00 00  	fnmadd.s	ft4, ft0, ft0, ft0, rne
    331c: 04 00        	<unknown>
    331e: f1 ff        	<unknown>
		...
    3330: 71 00        	<unknown>
    3332: 00 00        	<unknown>
    3334: 00 00        	<unknown>
    3336: 02 00        	<unknown>
    3338: 10 2e        	<unknown>
    333a: 00 80        	<unknown>
    333c: 01 00        	<unknown>
		...
    3346: 00 00        	<unknown>
    3348: 45 02        	<unknown>
    334a: 00 00        	<unknown>
    334c: 00 00        	<unknown>
    334e: 0b 00 67 00  	<unknown>
		...
    335e: 00 00        	<unknown>
    3360: 4a 02        	<unknown>
    3362: 00 00        	<unknown>
    3364: 00 00        	<unknown>
    3366: 0c 00        	<unknown>
    3368: 67 03 00 00  	jalr	t1, zero <.symtab>
		...
    3378: 58 02        	<unknown>
    337a: 00 00        	<unknown>
    337c: 04 00        	<unknown>
    337e: f1 ff        	<unknown>
		...
    3390: 6b 02 00 00  	<unknown>
    3394: 00 00        	<unknown>
    3396: 0b 00 67 00  	<unknown>
		...
    33a6: 00 00        	<unknown>
    33a8: 71 02        	<unknown>
    33aa: 00 00        	<unknown>
    33ac: 00 00        	<unknown>
    33ae: 0c 00        	<unknown>
    33b0: 86 00        	<unknown>
		...
    33be: 00 00        	<unknown>
    33c0: 77 02 00 00  	<unknown>
    33c4: 00 00        	<unknown>
    33c6: 04 00        	<unknown>
    33c8: b0 32        	<unknown>
    33ca: 00 80        	<unknown>
    33cc: 01 00        	<unknown>
		...
    33da: 00 00        	<unknown>
    33dc: 04 00        	<unknown>
    33de: f1 ff        	<unknown>
		...
    33f0: 7d 02        	<unknown>
    33f2: 00 00        	<unknown>
    33f4: 00 00        	<unknown>
    33f6: 05 00        	<unknown>
    33f8: b0 42        	<unknown>
    33fa: 00 80        	<unknown>
    33fc: 01 00        	<unknown>
		...
    3406: 00 00        	<unknown>
    3408: 8e 02        	<unknown>
    340a: 00 00        	<unknown>
    340c: 00 00        	<unknown>
    340e: 05 00        	<unknown>
    3410: b0 42        	<unknown>
    3412: 00 80        	<unknown>
    3414: 01 00        	<unknown>
		...
    341e: 00 00        	<unknown>
    3420: 9b 02 00 00  	sext.w	t0, zero
    3424: 00 00        	<unknown>
    3426: 05 00        	<unknown>
    3428: b0 42        	<unknown>
    342a: 00 80        	<unknown>
    342c: 01 00        	<unknown>
		...
    3436: 00 00        	<unknown>
    3438: ae 02        	<unknown>
    343a: 00 00        	<unknown>
    343c: 00 00        	<unknown>
    343e: 04 00        	<unknown>
    3440: b0 42        	<unknown>
    3442: 00 80        	<unknown>
    3444: 01 00        	<unknown>
		...
    344e: 00 00        	<unknown>
    3450: bc 02        	<unknown>
    3452: 00 00        	<unknown>
    3454: 00 00        	<unknown>
    3456: 05 00        	<unknown>
    3458: b0 42        	<unknown>
    345a: 00 80        	<unknown>
    345c: 01 00        	<unknown>
		...
    3466: 00 00        	<unknown>
    3468: cd 02        	<unknown>
    346a: 00 00        	<unknown>
    346c: 00 00        	<unknown>
    346e: f1 ff        	<unknown>
		...
    3480: db 02 00 00  	<unknown>
    3484: 00 00        	<unknown>
    3486: 05 00        	<unknown>
    3488: b0 42        	<unknown>
    348a: 00 80        	<unknown>
    348c: 01 00        	<unknown>
		...
    3496: 00 00        	<unknown>
    3498: ef 02 00 00  	jal	t0, 0x3498 <.symtab+0x3498>
    349c: 01 00        	<unknown>
    349e: 07 00 d0 42  	<unknown>
    34a2: 00 80        	<unknown>
    34a4: 01 00        	<unknown>
		...
    34ae: 00 00        	<unknown>
    34b0: 05 03        	<unknown>
    34b2: 00 00        	<unknown>
    34b4: 00 00        	<unknown>
    34b6: 05 00        	<unknown>
    34b8: b0 42        	<unknown>
    34ba: 00 80        	<unknown>
    34bc: 01 00        	<unknown>
		...
    34c6: 00 00        	<unknown>
    34c8: 18 03        	<unknown>
    34ca: 00 00        	<unknown>
    34cc: 00 00        	<unknown>
    34ce: 05 00        	<unknown>
    34d0: b0 42        	<unknown>
    34d2: 00 80        	<unknown>
    34d4: 01 00        	<unknown>
		...
    34de: 00 00        	<unknown>
    34e0: 2e 03        	<unknown>
    34e2: 00 00        	<unknown>
    34e4: 16 00        	<unknown>
    34e6: 05 00        	<unknown>
    34e8: 20 00        	<unknown>
    34ea: 00 00        	<unknown>
    34ec: 00 00        	<unknown>
    34ee: 00 00        	<unknown>
    34f0: 0c 00        	<unknown>
    34f2: 00 00        	<unknown>
    34f4: 00 00        	<unknown>
    34f6: 00 00        	<unknown>
    34f8: 38 03        	<unknown>
    34fa: 00 00        	<unknown>
    34fc: 11 00        	<unknown>
    34fe: 09 00        	<unknown>
    3500: 98 43        	<unknown>
    3502: 00 80        	<unknown>
    3504: 01 00        	<unknown>
    3506: 00 00        	<unknown>
    3508: 04 00        	<unknown>
    350a: 00 00        	<unknown>
    350c: 00 00        	<unknown>
    350e: 00 00        	<unknown>
    3510: 44 03        	<unknown>
    3512: 00 00        	<unknown>
    3514: 16 00        	<unknown>
    3516: 05 00        	<unknown>
		...
    3520: 04 00        	<unknown>
    3522: 00 00        	<unknown>
    3524: 00 00        	<unknown>
    3526: 00 00        	<unknown>
    3528: 52 03        	<unknown>
    352a: 00 00        	<unknown>
    352c: 16 00        	<unknown>
    352e: 05 00        	<unknown>
    3530: 10 00        	<unknown>
    3532: 00 00        	<unknown>
    3534: 00 00        	<unknown>
    3536: 00 00        	<unknown>
    3538: 04 00        	<unknown>
    353a: 00 00        	<unknown>
    353c: 00 00        	<unknown>
    353e: 00 00        	<unknown>
    3540: 5e 03        	<unknown>
    3542: 00 00        	<unknown>
    3544: 16 00        	<unknown>
    3546: 05 00        	<unknown>
    3548: 30 00        	<unknown>
    354a: 00 00        	<unknown>
    354c: 00 00        	<unknown>
    354e: 00 00        	<unknown>
    3550: 0c 00        	<unknown>
    3552: 00 00        	<unknown>
    3554: 00 00        	<unknown>
    3556: 00 00        	<unknown>
    3558: 67 03 00 00  	jalr	t1, zero <.symtab>
    355c: 12 00        	<unknown>
    355e: 02 00        	<unknown>
    3560: 28 03        	<unknown>
    3562: 00 80        	<unknown>
    3564: 01 00        	<unknown>
    3566: 00 00        	<unknown>
    3568: a8 01        	<unknown>
    356a: 00 00        	<unknown>
    356c: 00 00        	<unknown>
    356e: 00 00        	<unknown>
    3570: 78 03        	<unknown>
    3572: 00 00        	<unknown>
    3574: 12 00        	<unknown>
    3576: 02 00        	<unknown>
    3578: e8 04        	<unknown>
    357a: 00 80        	<unknown>
    357c: 01 00        	<unknown>
    357e: 00 00        	<unknown>
    3580: 1c 00        	<unknown>
    3582: 00 00        	<unknown>
    3584: 00 00        	<unknown>
    3586: 00 00        	<unknown>
    3588: 8e 03        	<unknown>
    358a: 00 00        	<unknown>
    358c: 10 00        	<unknown>
    358e: 08 00        	<unknown>
    3590: f8 42        	<unknown>
    3592: 00 80        	<unknown>
    3594: 01 00        	<unknown>
		...
    359e: 00 00        	<unknown>
    35a0: 9e 03        	<unknown>
    35a2: 00 00        	<unknown>
    35a4: 12 00        	<unknown>
    35a6: 02 00        	<unknown>
    35a8: c4 28        	<unknown>
    35aa: 00 80        	<unknown>
    35ac: 01 00        	<unknown>
    35ae: 00 00        	<unknown>
    35b0: 4c 05        	<unknown>
    35b2: 00 00        	<unknown>
    35b4: 00 00        	<unknown>
    35b6: 00 00        	<unknown>
    35b8: a5 03        	<unknown>
    35ba: 00 00        	<unknown>
    35bc: 10 00        	<unknown>
    35be: f1 ff        	<unknown>
    35c0: b0 4a        	<unknown>
    35c2: 00 80        	<unknown>
    35c4: 01 00        	<unknown>
		...
    35ce: 00 00        	<unknown>
    35d0: b6 03        	<unknown>
    35d2: 00 00        	<unknown>
    35d4: 12 00        	<unknown>
    35d6: 02 00        	<unknown>
    35d8: ac 0a        	<unknown>
    35da: 00 80        	<unknown>
    35dc: 01 00        	<unknown>
    35de: 00 00        	<unknown>
    35e0: 84 04        	<unknown>
    35e2: 00 00        	<unknown>
    35e4: 00 00        	<unknown>
    35e6: 00 00        	<unknown>
    35e8: c7 03 00 00  	fmsub.s	ft7, ft0, ft0, ft0, rne
    35ec: 16 00        	<unknown>
    35ee: 05 00        	<unknown>
    35f0: 0c 00        	<unknown>
    35f2: 00 00        	<unknown>
    35f4: 00 00        	<unknown>
    35f6: 00 00        	<unknown>
    35f8: 04 00        	<unknown>
    35fa: 00 00        	<unknown>
    35fc: 00 00        	<unknown>
    35fe: 00 00        	<unknown>
    3600: d3 03 00 00  	fadd.s	ft7, ft0, ft0, rne
    3604: 11 00        	<unknown>
    3606: 09 00        	<unknown>
    3608: 9c 43        	<unknown>
    360a: 00 80        	<unknown>
    360c: 01 00        	<unknown>
    360e: 00 00        	<unknown>
    3610: 04 00        	<unknown>
    3612: 00 00        	<unknown>
    3614: 00 00        	<unknown>
    3616: 00 00        	<unknown>
    3618: e0 03        	<unknown>
    361a: 00 00        	<unknown>
    361c: 12 00        	<unknown>
    361e: 02 00        	<unknown>
    3620: c8 05        	<unknown>
    3622: 00 80        	<unknown>
    3624: 01 00        	<unknown>
    3626: 00 00        	<unknown>
    3628: 94 00        	<unknown>
    362a: 00 00        	<unknown>
    362c: 00 00        	<unknown>
    362e: 00 00        	<unknown>
    3630: f2 03        	<unknown>
    3632: 00 00        	<unknown>
    3634: 12 00        	<unknown>
    3636: 02 00        	<unknown>
    3638: 04 05        	<unknown>
    363a: 00 80        	<unknown>
    363c: 01 00        	<unknown>
		...
    3646: 00 00        	<unknown>
    3648: f8 03        	<unknown>
    364a: 00 00        	<unknown>
    364c: 12 00        	<unknown>
    364e: 02 00        	<unknown>
    3650: 4c 02        	<unknown>
    3652: 00 80        	<unknown>
    3654: 01 00        	<unknown>
    3656: 00 00        	<unknown>
    3658: dc 00        	<unknown>
    365a: 00 00        	<unknown>
    365c: 00 00        	<unknown>
    365e: 00 00        	<unknown>
    3660: 06 04        	<unknown>
    3662: 00 00        	<unknown>
    3664: 12 00        	<unknown>
    3666: 02 00        	<unknown>
    3668: 84 05        	<unknown>
    366a: 00 80        	<unknown>
    366c: 01 00        	<unknown>
    366e: 00 00        	<unknown>
    3670: 44 00        	<unknown>
    3672: 00 00        	<unknown>
    3674: 00 00        	<unknown>
    3676: 00 00        	<unknown>
    3678: 11 04        	<unknown>
    367a: 00 00        	<unknown>
    367c: 11 00        	<unknown>
    367e: 0a 00        	<unknown>
    3680: b8 43        	<unknown>
    3682: 00 80        	<unknown>
    3684: 01 00        	<unknown>
    3686: 00 00        	<unknown>
    3688: 0c 00        	<unknown>
    368a: 00 00        	<unknown>
    368c: 00 00        	<unknown>
    368e: 00 00        	<unknown>
    3690: 1a 04        	<unknown>
    3692: 00 00        	<unknown>
    3694: 11 00        	<unknown>
    3696: 06 00        	<unknown>
    3698: b0 42        	<unknown>
    369a: 00 80        	<unknown>
    369c: 01 00        	<unknown>
    369e: 00 00        	<unknown>
    36a0: 10 00        	<unknown>
    36a2: 00 00        	<unknown>
    36a4: 00 00        	<unknown>
    36a6: 00 00        	<unknown>
    36a8: 24 04        	<unknown>
    36aa: 00 00        	<unknown>
    36ac: 12 00        	<unknown>
    36ae: 02 00        	<unknown>
    36b0: 30 0f        	<unknown>
    36b2: 00 80        	<unknown>
    36b4: 01 00        	<unknown>
		...
    36be: 00 00        	<unknown>
    36c0: 2e 04        	<unknown>
    36c2: 00 00        	<unknown>
    36c4: 11 00        	<unknown>
    36c6: 09 00        	<unknown>
    36c8: b0 43        	<unknown>
    36ca: 00 80        	<unknown>
    36cc: 01 00        	<unknown>
    36ce: 00 00        	<unknown>
    36d0: 04 00        	<unknown>
    36d2: 00 00        	<unknown>
    36d4: 00 00        	<unknown>
    36d6: 00 00        	<unknown>
    36d8: 40 04        	<unknown>
    36da: 00 00        	<unknown>
    36dc: 11 00        	<unknown>
    36de: 09 00        	<unknown>
    36e0: a0 43        	<unknown>
    36e2: 00 80        	<unknown>
    36e4: 01 00        	<unknown>
    36e6: 00 00        	<unknown>
    36e8: 04 00        	<unknown>
    36ea: 00 00        	<unknown>
    36ec: 00 00        	<unknown>
    36ee: 00 00        	<unknown>
    36f0: 4d 04        	<unknown>
    36f2: 00 00        	<unknown>
    36f4: 12 00        	<unknown>
    36f6: 02 00        	<unknown>
    36f8: 04 07        	<unknown>
    36fa: 00 80        	<unknown>
    36fc: 01 00        	<unknown>
    36fe: 00 00        	<unknown>
    3700: 60 00        	<unknown>
    3702: 00 00        	<unknown>
    3704: 00 00        	<unknown>
    3706: 00 00        	<unknown>
    3708: 57 04 00 00  	<unknown>
    370c: 12 02        	<unknown>
    370e: 02 00        	<unknown>
    3710: 5c 06        	<unknown>
    3712: 00 80        	<unknown>
    3714: 01 00        	<unknown>
    3716: 00 00        	<unknown>
    3718: 5c 00        	<unknown>
    371a: 00 00        	<unknown>
    371c: 00 00        	<unknown>
    371e: 00 00        	<unknown>
    3720: 67 04 00 00  	jalr	s0, zero <.symtab>
    3724: 10 00        	<unknown>
    3726: f1 ff        	<unknown>
		...
    3738: 74 04        	<unknown>
    373a: 00 00        	<unknown>
    373c: 10 00        	<unknown>
    373e: f1 ff        	<unknown>
    3740: 40 00        	<unknown>
		...
    374e: 00 00        	<unknown>
    3750: 80 04        	<unknown>
    3752: 00 00        	<unknown>
    3754: 12 00        	<unknown>
    3756: 02 00        	<unknown>
    3758: d0 04        	<unknown>
    375a: 00 80        	<unknown>
    375c: 01 00        	<unknown>
    375e: 00 00        	<unknown>
    3760: 18 00        	<unknown>
    3762: 00 00        	<unknown>
    3764: 00 00        	<unknown>
    3766: 00 00        	<unknown>
    3768: b5 02        	<unknown>
    376a: 00 00        	<unknown>
    376c: 12 00        	<unknown>
    376e: 01 00        	<unknown>
    3770: 00 00        	<unknown>
    3772: 00 80        	<unknown>
    3774: 01 00        	<unknown>
    3776: 00 00        	<unknown>
    3778: 70 00        	<unknown>
    377a: 00 00        	<unknown>
    377c: 00 00        	<unknown>
    377e: 00 00        	<unknown>
    3780: 93 04 00 00  	li	s1, 0x0
    3784: 11 00        	<unknown>
    3786: 0a 00        	<unknown>
    3788: c8 43        	<unknown>
    378a: 00 80        	<unknown>
    378c: 01 00        	<unknown>
    378e: 00 00        	<unknown>
    3790: 0c 00        	<unknown>
    3792: 00 00        	<unknown>
    3794: 00 00        	<unknown>
    3796: 00 00        	<unknown>
    3798: 9b 04 00 00  	sext.w	s1, zero
    379c: 10 00        	<unknown>
    379e: 0a 00        	<unknown>
    37a0: d8 43        	<unknown>
    37a2: 00 80        	<unknown>
    37a4: 01 00        	<unknown>
		...
    37ae: 00 00        	<unknown>
    37b0: a7 04 00 00  	<unknown>
    37b4: 11 00        	<unknown>
    37b6: 09 00        	<unknown>
    37b8: 90 43        	<unknown>
    37ba: 00 80        	<unknown>
    37bc: 01 00        	<unknown>
    37be: 00 00        	<unknown>
    37c0: 04 00        	<unknown>
    37c2: 00 00        	<unknown>
    37c4: 00 00        	<unknown>
    37c6: 00 00        	<unknown>
    37c8: b3 04 00 00  	add	s1, zero, zero
    37cc: 10 00        	<unknown>
    37ce: 09 00        	<unknown>
    37d0: 90 43        	<unknown>
    37d2: 00 80        	<unknown>
    37d4: 01 00        	<unknown>
		...
    37de: 00 00        	<unknown>
    37e0: bf 04 00 00  	<unknown>
    37e4: 12 00        	<unknown>
    37e6: 02 00        	<unknown>
    37e8: 10 2e        	<unknown>
    37ea: 00 80        	<unknown>
    37ec: 01 00        	<unknown>
    37ee: 00 00        	<unknown>
    37f0: bc 01        	<unknown>
    37f2: 00 00        	<unknown>
    37f4: 00 00        	<unknown>
    37f6: 00 00        	<unknown>
    37f8: c6 04        	<unknown>
    37fa: 00 00        	<unknown>
    37fc: 12 00        	<unknown>
    37fe: 02 00        	<unknown>
    3800: 2c 01        	<unknown>
    3802: 00 80        	<unknown>
    3804: 01 00        	<unknown>
    3806: 00 00        	<unknown>
    3808: 20 01        	<unknown>
    380a: 00 00        	<unknown>
    380c: 00 00        	<unknown>
    380e: 00 00        	<unknown>
    3810: cb 04 00 00  	fnmsub.s	fs1, ft0, ft0, ft0, rne
    3814: 22 00        	<unknown>
    3816: 02 00        	<unknown>
    3818: 5c 28        	<unknown>
    381a: 00 80        	<unknown>
    381c: 01 00        	<unknown>
    381e: 00 00        	<unknown>
    3820: 04 00        	<unknown>
    3822: 00 00        	<unknown>
    3824: 00 00        	<unknown>
    3826: 00 00        	<unknown>
    3828: d8 04        	<unknown>
    382a: 00 00        	<unknown>
    382c: 16 00        	<unknown>
    382e: 05 00        	<unknown>
    3830: 14 00        	<unknown>
    3832: 00 00        	<unknown>
    3834: 00 00        	<unknown>
    3836: 00 00        	<unknown>
    3838: 04 00        	<unknown>
    383a: 00 00        	<unknown>
    383c: 00 00        	<unknown>
    383e: 00 00        	<unknown>
    3840: e4 04        	<unknown>
    3842: 00 00        	<unknown>
    3844: 16 00        	<unknown>
    3846: 05 00        	<unknown>
    3848: 18 00        	<unknown>
    384a: 00 00        	<unknown>
    384c: 00 00        	<unknown>
    384e: 00 00        	<unknown>
    3850: 04 00        	<unknown>
    3852: 00 00        	<unknown>
    3854: 00 00        	<unknown>
    3856: 00 00        	<unknown>
    3858: 40 05        	<unknown>
    385a: 00 00        	<unknown>
    385c: 22 00        	<unknown>
    385e: 02 00        	<unknown>
    3860: 5c 28        	<unknown>
    3862: 00 80        	<unknown>
    3864: 01 00        	<unknown>
    3866: 00 00        	<unknown>
    3868: 04 00        	<unknown>
    386a: 00 00        	<unknown>
    386c: 00 00        	<unknown>
    386e: 00 00        	<unknown>
    3870: f5 04        	<unknown>
    3872: 00 00        	<unknown>
    3874: 11 00        	<unknown>
    3876: 09 00        	<unknown>
    3878: a8 43        	<unknown>
    387a: 00 80        	<unknown>
    387c: 01 00        	<unknown>
    387e: 00 00        	<unknown>
    3880: 04 00        	<unknown>
    3882: 00 00        	<unknown>
    3884: 00 00        	<unknown>
    3886: 00 00        	<unknown>
    3888: 00 05        	<unknown>
    388a: 00 00        	<unknown>
    388c: 16 00        	<unknown>
    388e: 05 00        	<unknown>
    3890: 08 00        	<unknown>
    3892: 00 00        	<unknown>
    3894: 00 00        	<unknown>
    3896: 00 00        	<unknown>
    3898: 04 00        	<unknown>
    389a: 00 00        	<unknown>
    389c: 00 00        	<unknown>
    389e: 00 00        	<unknown>
    38a0: 0e 05        	<unknown>
    38a2: 00 00        	<unknown>
    38a4: 11 00        	<unknown>
    38a6: 09 00        	<unknown>
    38a8: 94 43        	<unknown>
    38aa: 00 80        	<unknown>
    38ac: 01 00        	<unknown>
    38ae: 00 00        	<unknown>
    38b0: 04 00        	<unknown>
    38b2: 00 00        	<unknown>
    38b4: 00 00        	<unknown>
    38b6: 00 00        	<unknown>
    38b8: 1a 05        	<unknown>
    38ba: 00 00        	<unknown>
    38bc: 16 00        	<unknown>
    38be: 05 00        	<unknown>
    38c0: 04 00        	<unknown>
    38c2: 00 00        	<unknown>
    38c4: 00 00        	<unknown>
    38c6: 00 00        	<unknown>
    38c8: 04 00        	<unknown>
    38ca: 00 00        	<unknown>
    38cc: 00 00        	<unknown>
    38ce: 00 00        	<unknown>
    38d0: 28 05        	<unknown>
    38d2: 00 00        	<unknown>
    38d4: 10 00        	<unknown>
    38d6: f1 ff        	<unknown>
    38d8: 00 00        	<unknown>
    38da: 00 80        	<unknown>
    38dc: 01 00        	<unknown>
		...
    38e6: 00 00        	<unknown>
    38e8: 35 05        	<unknown>
    38ea: 00 00        	<unknown>
    38ec: 22 02        	<unknown>
    38ee: 02 00        	<unknown>
    38f0: 60 28        	<unknown>
    38f2: 00 80        	<unknown>
    38f4: 01 00        	<unknown>
    38f6: 00 00        	<unknown>
    38f8: 64 00        	<unknown>
    38fa: 00 00        	<unknown>
    38fc: 00 00        	<unknown>
    38fe: 00 00        	<unknown>
    3900: 46 05        	<unknown>
    3902: 00 00        	<unknown>
    3904: 10 00        	<unknown>
    3906: 06 00        	<unknown>
    3908: b0 42        	<unknown>
    390a: 00 80        	<unknown>
    390c: 01 00        	<unknown>
		...
    3916: 00 00        	<unknown>
    3918: 55 05        	<unknown>
    391a: 00 00        	<unknown>
    391c: 10 00        	<unknown>
    391e: 08 00        	<unknown>
    3920: 90 43        	<unknown>
    3922: 00 80        	<unknown>
    3924: 01 00        	<unknown>
		...
    392e: 00 00        	<unknown>
    3930: 89 02        	<unknown>
    3932: 00 00        	<unknown>
    3934: 10 00        	<unknown>
    3936: 0a 00        	<unknown>
    3938: d8 43        	<unknown>
    393a: 00 80        	<unknown>
    393c: 01 00        	<unknown>
		...
    3946: 00 00        	<unknown>
    3948: 62 04        	<unknown>
    394a: 00 00        	<unknown>
    394c: 12 00        	<unknown>
    394e: 02 00        	<unknown>
    3950: 70 00        	<unknown>
    3952: 00 80        	<unknown>
    3954: 01 00        	<unknown>
    3956: 00 00        	<unknown>
    3958: 24 00        	<unknown>
    395a: 00 00        	<unknown>
    395c: 00 00        	<unknown>
    395e: 00 00        	<unknown>
    3960: 5c 05        	<unknown>
    3962: 00 00        	<unknown>
    3964: 12 00        	<unknown>
    3966: 02 00        	<unknown>
    3968: e0 00        	<unknown>
    396a: 00 80        	<unknown>
    396c: 01 00        	<unknown>
    396e: 00 00        	<unknown>
    3970: 4c 00        	<unknown>
    3972: 00 00        	<unknown>
    3974: 00 00        	<unknown>
    3976: 00 00        	<unknown>
    3978: 7d 05        	<unknown>
    397a: 00 00        	<unknown>
    397c: 12 00        	<unknown>
    397e: 02 00        	<unknown>
    3980: ac 0f        	<unknown>
    3982: 00 80        	<unknown>
    3984: 01 00        	<unknown>
    3986: 00 00        	<unknown>
    3988: 0c 01        	<unknown>
    398a: 00 00        	<unknown>
    398c: 00 00        	<unknown>
    398e: 00 00        	<unknown>
    3990: 8a 05        	<unknown>
    3992: 00 00        	<unknown>
    3994: 12 00        	<unknown>
    3996: 02 00        	<unknown>
    3998: 94 00        	<unknown>
    399a: 00 80        	<unknown>
    399c: 01 00        	<unknown>
    399e: 00 00        	<unknown>
    39a0: 4c 00        	<unknown>
    39a2: 00 00        	<unknown>
    39a4: 00 00        	<unknown>
    39a6: 00 00        	<unknown>
    39a8: a8 05        	<unknown>
    39aa: 00 00        	<unknown>
    39ac: 11 00        	<unknown>
    39ae: 09 00        	<unknown>
    39b0: ac 43        	<unknown>
    39b2: 00 80        	<unknown>
    39b4: 01 00        	<unknown>
    39b6: 00 00        	<unknown>
    39b8: 04 00        	<unknown>
    39ba: 00 00        	<unknown>
    39bc: 00 00        	<unknown>
    39be: 00 00        	<unknown>
    39c0: bc 05        	<unknown>
    39c2: 00 00        	<unknown>
    39c4: 12 00        	<unknown>
    39c6: 02 00        	<unknown>
    39c8: b8 06        	<unknown>
    39ca: 00 80        	<unknown>
    39cc: 01 00        	<unknown>
		...
    39d6: 00 00        	<unknown>
    39d8: c7 05 00 00  	fmsub.s	fa1, ft0, ft0, ft0, rne
    39dc: 12 00        	<unknown>
    39de: 02 00        	<unknown>
    39e0: 2c 28        	<unknown>
    39e2: 00 80        	<unknown>
    39e4: 01 00        	<unknown>
    39e6: 00 00        	<unknown>
    39e8: 30 00        	<unknown>
    39ea: 00 00        	<unknown>
    39ec: 00 00        	<unknown>
    39ee: 00 00        	<unknown>
    39f0: d4 05        	<unknown>
    39f2: 00 00        	<unknown>
    39f4: 11 00        	<unknown>
    39f6: 09 00        	<unknown>
    39f8: a4 43        	<unknown>
    39fa: 00 80        	<unknown>
    39fc: 01 00        	<unknown>
    39fe: 00 00        	<unknown>
    3a00: 04 00        	<unknown>
    3a02: 00 00        	<unknown>
    3a04: 00 00        	<unknown>
    3a06: 00 00        	<unknown>

Disassembly of section .strtab:

0000000000000000 <.strtab>:
       0: 00 76        	<unknown>
       2: 78 5f        	<unknown>
       4: 73 74 61 72  	csrrci	s0, 0x726, 0x2
       8: 74 2e        	<unknown>
       a: 53 2e 6f 00  	fadd.s	ft8, ft10, ft6, rdn
       e: 24 78        	<unknown>
      10: 72 76        	<unknown>
      12: 36 34        	<unknown>
      14: 69 32        	<unknown>
      16: 70 31        	<unknown>
      18: 5f 6d 32 70  	<unknown>
      1c: 30 5f        	<unknown>
      1e: 61 32        	<unknown>
      20: 70 31        	<unknown>
      22: 5f 66 32 70  	<unknown>
      26: 32 5f        	<unknown>
      28: 64 32        	<unknown>
      2a: 70 32        	<unknown>
      2c: 5f 7a 69 63  	<unknown>
      30: 73 72 32 70  	csrrci	tp, 0x703, 0x4
      34: 30 5f        	<unknown>
      36: 7a 6d        	<unknown>
      38: 6d 75        	<unknown>
      3a: 6c 31        	<unknown>
      3c: 70 30        	<unknown>
      3e: 00 69        	<unknown>
      40: 6e 69        	<unknown>
      42: 74 5f        	<unknown>
      44: 72 65        	<unknown>
      46: 67 73 5f 61  	<unknown>
      4a: 6c 6c        	<unknown>
      4c: 00 69        	<unknown>
      4e: 6e 69        	<unknown>
      50: 74 5f        	<unknown>
      52: 72 65        	<unknown>
      54: 67 73 00 69  	<unknown>
      58: 6e 69        	<unknown>
      5a: 74 5f        	<unknown>
      5c: 74 6c        	<unknown>
      5e: 73 5f 61 6c  	csrrwi	t5, 0x6c6, 0x2
      62: 6c 00        	<unknown>
      64: 65 78        	<unknown>
      66: 69 74        	<unknown>
      68: 2e 63        	<unknown>
      6a: 00 64        	<unknown>
      6c: 75 6d        	<unknown>
      6e: 6d 79        	<unknown>
      70: 00 24        	<unknown>
      72: 78 2e        	<unknown>
      74: 30 00        	<unknown>
      76: 24 78        	<unknown>
      78: 2e 31        	<unknown>
      7a: 00 24        	<unknown>
      7c: 78 2e        	<unknown>
      7e: 32 00        	<unknown>
      80: 24 64        	<unknown>
      82: 2e 33        	<unknown>
      84: 00 24        	<unknown>
      86: 64 2e        	<unknown>
      88: 34 00        	<unknown>
      8a: 6b 65 72 6e  	<unknown>
      8e: 65 6c        	<unknown>
      90: 5f 77 72 61  	<unknown>
      94: 70 70        	<unknown>
      96: 65 72        	<unknown>
      98: 2e 63        	<unknown>
      9a: 70 70        	<unknown>
      9c: 00 24        	<unknown>
      9e: 78 2e        	<unknown>
      a0: 33 00 24 78  	<unknown>
      a4: 2e 34        	<unknown>
      a6: 00 24        	<unknown>
      a8: 64 2e        	<unknown>
      aa: 36 00        	<unknown>
      ac: 24 64        	<unknown>
      ae: 2e 37        	<unknown>
      b0: 00 24        	<unknown>
      b2: 64 2e        	<unknown>
      b4: 38 00        	<unknown>
      b6: 24 64        	<unknown>
      b8: 2e 39        	<unknown>
      ba: 00 24        	<unknown>
      bc: 64 2e        	<unknown>
      be: 31 30        	<unknown>
      c0: 00 24        	<unknown>
      c2: 64 2e        	<unknown>
      c4: 31 31        	<unknown>
      c6: 00 24        	<unknown>
      c8: 64 2e        	<unknown>
      ca: 31 32        	<unknown>
      cc: 00 24        	<unknown>
      ce: 64 2e        	<unknown>
      d0: 31 33        	<unknown>
      d2: 00 24        	<unknown>
      d4: 64 2e        	<unknown>
      d6: 31 34        	<unknown>
      d8: 00 24        	<unknown>
      da: 64 2e        	<unknown>
      dc: 31 35        	<unknown>
      de: 00 24        	<unknown>
      e0: 64 2e        	<unknown>
      e2: 31 36        	<unknown>
      e4: 00 24        	<unknown>
      e6: 64 2e        	<unknown>
      e8: 31 37        	<unknown>
      ea: 00 67        	<unknown>
      ec: 61 75        	<unknown>
      ee: 73 73 69 61  	csrrci	t1, 0x616, 0x12
      f2: 6e 2e        	<unknown>
      f4: 63 75 00 24  	bgeu	zero, zero, 0x33e <.symtab+0x33e>
      f8: 64 2e        	<unknown>
      fa: 35 00        	<unknown>
      fc: 76 78        	<unknown>
      fe: 5f 73 79 73  	<unknown>
     102: 63 61 6c 6c  	bltu	s8, t1, 0x7c4 <.symtab+0x7c4>
     106: 73 2e 63 00  	csrrs	t3, 0x6, t1
     10a: 76 78        	<unknown>
     10c: 5f 70 72 69  	<unknown>
     110: 6e 74        	<unknown>
     112: 2e 53        	<unknown>
     114: 2e 6f        	<unknown>
     116: 00 76        	<unknown>
     118: 78 5f        	<unknown>
     11a: 70 72        	<unknown>
     11c: 69 6e        	<unknown>
     11e: 74 2e        	<unknown>
     120: 63 00 5f 5f  	beq	t5, s5, 0x700 <.symtab+0x700>
     124: 76 70        	<unknown>
     126: 72 69        	<unknown>
     128: 6e 74        	<unknown>
     12a: 66 5f        	<unknown>
     12c: 63 62 00 76  	bltu	zero, zero, 0x890 <.symtab+0x890>
     130: 78 5f        	<unknown>
     132: 73 70 61 77  	csrci	0x776, 0x2
     136: 6e 2e        	<unknown>
     138: 63 00 70 72  	beq	zero, t2, 0x858 <.symtab+0x858>
     13c: 6f 63 65 73  	jal	t1, 0x56872 <.symtab+0x56872>
     140: 73 5f 74 68  	csrrwi	t5, 0x687, 0x8
     144: 72 65        	<unknown>
     146: 61 64        	<unknown>
     148: 73 00 70 72  	<unknown>
     14c: 6f 63 65 73  	jal	t1, 0x56882 <.symtab+0x56882>
     150: 73 5f 72 65  	csrrwi	t5, 0x657, 0x4
     154: 6d 61        	<unknown>
     156: 69 6e        	<unknown>
     158: 69 6e        	<unknown>
     15a: 67 5f 74 68  	<unknown>
     15e: 72 65        	<unknown>
     160: 61 64        	<unknown>
     162: 73 00 70 72  	<unknown>
     166: 6f 63 65 73  	jal	t1, 0x5689c <.symtab+0x5689c>
     16a: 73 5f 74 68  	csrrwi	t5, 0x687, 0x8
     16e: 72 65        	<unknown>
     170: 61 64        	<unknown>
     172: 73 5f 73 74  	csrrwi	t5, mseccfg, 0x6
     176: 75 62        	<unknown>
     178: 00 70        	<unknown>
     17a: 72 6f        	<unknown>
     17c: 63 65 73 73  	bltu	t1, s7, 0x8a6 <.symtab+0x8a6>
     180: 5f 74 68 72  	<unknown>
     184: 65 61        	<unknown>
     186: 64 5f        	<unknown>
     188: 67 72 6f 75  	<unknown>
     18c: 70 73        	<unknown>
     18e: 00 70        	<unknown>
     190: 72 6f        	<unknown>
     192: 63 65 73 73  	bltu	t1, s7, 0x8bc <.symtab+0x8bc>
     196: 5f 74 68 72  	<unknown>
     19a: 65 61        	<unknown>
     19c: 64 5f        	<unknown>
     19e: 67 72 6f 75  	<unknown>
     1a2: 70 73        	<unknown>
     1a4: 5f 73 74 75  	<unknown>
     1a8: 62 00        	<unknown>
     1aa: 76 78        	<unknown>
     1ac: 5f 73 65 72  	<unknown>
     1b0: 69 61        	<unknown>
     1b2: 6c 2e        	<unknown>
     1b4: 53 2e 6f 00  	fadd.s	ft8, ft10, ft6, rdn
     1b8: 6c 61        	<unknown>
     1ba: 62 65        	<unknown>
     1bc: 6c 5f        	<unknown>
     1be: 6c 6f        	<unknown>
     1c0: 6f 70 00 6c  	j	0x7880 <.symtab+0x7880>
     1c4: 61 62        	<unknown>
     1c6: 65 6c        	<unknown>
     1c8: 5f 6a 6f 69  	<unknown>
     1cc: 6e 00        	<unknown>
     1ce: 76 78        	<unknown>
     1d0: 5f 70 65 72  	<unknown>
     1d4: 66 2e        	<unknown>
     1d6: 63 00 74 69  	beq	s0, s7, 0x856 <.symtab+0x856>
     1da: 6e 79        	<unknown>
     1dc: 70 72        	<unknown>
     1de: 69 6e        	<unknown>
     1e0: 74 66        	<unknown>
     1e2: 2e 63        	<unknown>
     1e4: 00 5f        	<unknown>
     1e6: 6f 75 74 5f  	jal	a0, 0x47fdc <.symtab+0x47fdc>
     1ea: 6e 75        	<unknown>
     1ec: 6c 6c        	<unknown>
     1ee: 00 5f        	<unknown>
     1f0: 6f 75 74 5f  	jal	a0, 0x47fe6 <.symtab+0x47fe6>
     1f4: 72 65        	<unknown>
     1f6: 76 00        	<unknown>
     1f8: 5f 6e 74 6f  	<unknown>
     1fc: 61 5f        	<unknown>
     1fe: 6c 6f        	<unknown>
     200: 6e 67        	<unknown>
     202: 00 5f        	<unknown>
     204: 6e 74        	<unknown>
     206: 6f 61 5f 6c  	jal	sp, 0xf70ca <.symtab+0xf70ca>
     20a: 6f 6e 67 5f  	jal	t3, 0x76800 <.symtab+0x76800>
     20e: 6c 6f        	<unknown>
     210: 6e 67        	<unknown>
     212: 00 5f        	<unknown>
     214: 6f 75 74 5f  	jal	a0, 0x4800a <.symtab+0x4800a>
     218: 63 68 61 72  	bltu	sp, t1, 0x948 <.symtab+0x948>
     21c: 00 5f        	<unknown>
     21e: 66 74        	<unknown>
     220: 6f 61 00 5f  	jal	sp, 0x6810 <.symtab+0x6810>
     224: 65 74        	<unknown>
     226: 6f 61 00 70  	jal	sp, 0x6926 <.symtab+0x6926>
     22a: 6f 77 31 30  	jal	a4, 0x17d2c <.symtab+0x17d2c>
     22e: 2e 30        	<unknown>
     230: 00 5f        	<unknown>
