	.text
	.file	"needle.cu"
	.file	0 "/nethome/cahn45/CuPBoP/examples/nw" "needle.cu" md5 0xf8bded7ab6806ab94774cecbbec0ff26
	.file	1 "." "needle.cu"
	.file	2 "/nethome/cahn45/CuPBoP" "cuda-12.1/include/nv/target"
	.file	3 "/nethome/cahn45/CuPBoP" "cuda-12.1/include/driver_types.h"
	.file	4 "/nethome/cahn45/CuPBoP" "cuda-12.1/include/vector_types.h"
	.globl	_Z35__device_stub__needle_cuda_shared_1PiS_iiii # -- Begin function _Z35__device_stub__needle_cuda_shared_1PiS_iiii
	.p2align	4, 0x90
	.type	_Z35__device_stub__needle_cuda_shared_1PiS_iiii,@function
_Z35__device_stub__needle_cuda_shared_1PiS_iiii: # @_Z35__device_stub__needle_cuda_shared_1PiS_iiii
.Lfunc_begin0:
	.file	5 "." "needle_kernel.cu"
	.loc	5 21 0                          # ./needle_kernel.cu:21:0
	.cfi_startproc
# %bb.0:                                # %entry
	pushq	%rbp
	.cfi_def_cfa_offset 16
	.cfi_offset %rbp, -16
	movq	%rsp, %rbp
	.cfi_def_cfa_register %rbp
	subq	$176, %rsp
	movq	%rdi, -8(%rbp)
	movq	%rsi, -16(%rbp)
	movl	%edx, -20(%rbp)
	movl	%ecx, -24(%rbp)
	movl	%r8d, -28(%rbp)
	movl	%r9d, -32(%rbp)
.Ltmp0:
	.loc	5 21 55 prologue_end            # ./needle_kernel.cu:21:55
	leaq	-8(%rbp), %rax
	movq	%rax, -160(%rbp)
	leaq	-16(%rbp), %rax
	movq	%rax, -152(%rbp)
	leaq	-20(%rbp), %rax
	movq	%rax, -144(%rbp)
	leaq	-24(%rbp), %rax
	movq	%rax, -136(%rbp)
	leaq	-28(%rbp), %rax
	movq	%rax, -128(%rbp)
	leaq	-32(%rbp), %rax
	movq	%rax, -120(%rbp)
	leaq	-48(%rbp), %rdi
	leaq	-64(%rbp), %rsi
	leaq	-72(%rbp), %rdx
	leaq	-80(%rbp), %rcx
	callq	__cudaPopCallConfiguration@PLT
	movq	-72(%rbp), %r10
	movq	-80(%rbp), %rax
	movq	-48(%rbp), %rcx
	movq	%rcx, -96(%rbp)
	movl	-40(%rbp), %ecx
	movl	%ecx, -88(%rbp)
	movq	-96(%rbp), %rsi
	movl	-88(%rbp), %edx
	movq	-64(%rbp), %rcx
	movq	%rcx, -112(%rbp)
	movl	-56(%rbp), %ecx
	movl	%ecx, -104(%rbp)
	movq	-112(%rbp), %rcx
	movl	-104(%rbp), %r8d
	leaq	_Z35__device_stub__needle_cuda_shared_1PiS_iiii(%rip), %rdi
	leaq	-160(%rbp), %r9
	movq	%r10, (%rsp)
	movq	%rax, 8(%rsp)
	callq	cudaLaunchKernel@PLT
# %bb.1:                                # %setup.end
	.loc	5 94 1 epilogue_begin           # ./needle_kernel.cu:94:1
	addq	$176, %rsp
	popq	%rbp
	.cfi_def_cfa %rsp, 8
	retq
.Ltmp1:
.Lfunc_end0:
	.size	_Z35__device_stub__needle_cuda_shared_1PiS_iiii, .Lfunc_end0-_Z35__device_stub__needle_cuda_shared_1PiS_iiii
	.cfi_endproc
                                        # -- End function
	.globl	_Z35__device_stub__needle_cuda_shared_2PiS_iiii # -- Begin function _Z35__device_stub__needle_cuda_shared_2PiS_iiii
	.p2align	4, 0x90
	.type	_Z35__device_stub__needle_cuda_shared_2PiS_iiii,@function
_Z35__device_stub__needle_cuda_shared_2PiS_iiii: # @_Z35__device_stub__needle_cuda_shared_2PiS_iiii
.Lfunc_begin1:
	.loc	5 99 0                          # ./needle_kernel.cu:99:0
	.cfi_startproc
# %bb.0:                                # %entry
	pushq	%rbp
	.cfi_def_cfa_offset 16
	.cfi_offset %rbp, -16
	movq	%rsp, %rbp
	.cfi_def_cfa_register %rbp
	subq	$176, %rsp
	movq	%rdi, -8(%rbp)
	movq	%rsi, -16(%rbp)
	movl	%edx, -20(%rbp)
	movl	%ecx, -24(%rbp)
	movl	%r8d, -28(%rbp)
	movl	%r9d, -32(%rbp)
.Ltmp2:
	.loc	5 99 55 prologue_end            # ./needle_kernel.cu:99:55
	leaq	-8(%rbp), %rax
	movq	%rax, -160(%rbp)
	leaq	-16(%rbp), %rax
	movq	%rax, -152(%rbp)
	leaq	-20(%rbp), %rax
	movq	%rax, -144(%rbp)
	leaq	-24(%rbp), %rax
	movq	%rax, -136(%rbp)
	leaq	-28(%rbp), %rax
	movq	%rax, -128(%rbp)
	leaq	-32(%rbp), %rax
	movq	%rax, -120(%rbp)
	leaq	-48(%rbp), %rdi
	leaq	-64(%rbp), %rsi
	leaq	-72(%rbp), %rdx
	leaq	-80(%rbp), %rcx
	callq	__cudaPopCallConfiguration@PLT
	movq	-72(%rbp), %r10
	movq	-80(%rbp), %rax
	movq	-48(%rbp), %rcx
	movq	%rcx, -96(%rbp)
	movl	-40(%rbp), %ecx
	movl	%ecx, -88(%rbp)
	movq	-96(%rbp), %rsi
	movl	-88(%rbp), %edx
	movq	-64(%rbp), %rcx
	movq	%rcx, -112(%rbp)
	movl	-56(%rbp), %ecx
	movl	%ecx, -104(%rbp)
	movq	-112(%rbp), %rcx
	movl	-104(%rbp), %r8d
	leaq	_Z35__device_stub__needle_cuda_shared_2PiS_iiii(%rip), %rdi
	leaq	-160(%rbp), %r9
	movq	%r10, (%rsp)
	movq	%rax, 8(%rsp)
	callq	cudaLaunchKernel@PLT
# %bb.1:                                # %setup.end
	.loc	5 169 1 epilogue_begin          # ./needle_kernel.cu:169:1
	addq	$176, %rsp
	popq	%rbp
	.cfi_def_cfa %rsp, 8
	retq
.Ltmp3:
.Lfunc_end1:
	.size	_Z35__device_stub__needle_cuda_shared_2PiS_iiii, .Lfunc_end1-_Z35__device_stub__needle_cuda_shared_2PiS_iiii
	.cfi_endproc
                                        # -- End function
	.globl	_Z7maximumiii                   # -- Begin function _Z7maximumiii
	.p2align	4, 0x90
	.type	_Z7maximumiii,@function
_Z7maximumiii:                          # @_Z7maximumiii
.Lfunc_begin2:
	.loc	1 31 0                          # ./needle.cu:31:0
	.cfi_startproc
# %bb.0:                                # %entry
	pushq	%rbp
	.cfi_def_cfa_offset 16
	.cfi_offset %rbp, -16
	movq	%rsp, %rbp
	.cfi_def_cfa_register %rbp
	movl	%edi, -8(%rbp)
	movl	%esi, -12(%rbp)
	movl	%edx, -16(%rbp)
.Ltmp4:
	.loc	1 34 7 prologue_end             # ./needle.cu:34:7
	movl	-8(%rbp), %eax
	.loc	1 34 9 is_stmt 0                # ./needle.cu:34:9
	cmpl	-12(%rbp), %eax
.Ltmp5:
	.loc	1 34 7                          # ./needle.cu:34:7
	jg	.LBB2_2
# %bb.1:                                # %if.then
.Ltmp6:
	.loc	1 35 9 is_stmt 1                # ./needle.cu:35:9
	movl	-12(%rbp), %eax
	.loc	1 35 7 is_stmt 0                # ./needle.cu:35:7
	movl	%eax, -20(%rbp)
	.loc	1 35 5                          # ./needle.cu:35:5
	jmp	.LBB2_3
.LBB2_2:                                # %if.else
	.loc	1 37 9 is_stmt 1                # ./needle.cu:37:9
	movl	-8(%rbp), %eax
	.loc	1 37 7 is_stmt 0                # ./needle.cu:37:7
	movl	%eax, -20(%rbp)
.Ltmp7:
.LBB2_3:                                # %if.end
	.loc	1 39 7 is_stmt 1                # ./needle.cu:39:7
	movl	-20(%rbp), %eax
	.loc	1 39 9 is_stmt 0                # ./needle.cu:39:9
	cmpl	-16(%rbp), %eax
.Ltmp8:
	.loc	1 39 7                          # ./needle.cu:39:7
	jg	.LBB2_5
# %bb.4:                                # %if.then2
.Ltmp9:
	.loc	1 40 13 is_stmt 1               # ./needle.cu:40:13
	movl	-16(%rbp), %eax
	.loc	1 40 5 is_stmt 0                # ./needle.cu:40:5
	movl	%eax, -4(%rbp)
	jmp	.LBB2_6
.LBB2_5:                                # %if.else3
	.loc	1 42 13 is_stmt 1               # ./needle.cu:42:13
	movl	-20(%rbp), %eax
	.loc	1 42 5 is_stmt 0                # ./needle.cu:42:5
	movl	%eax, -4(%rbp)
.Ltmp10:
.LBB2_6:                                # %return
	.loc	1 43 1 is_stmt 1                # ./needle.cu:43:1
	movl	-4(%rbp), %eax
	.loc	1 43 1 epilogue_begin is_stmt 0 # ./needle.cu:43:1
	popq	%rbp
	.cfi_def_cfa %rsp, 8
	retq
.Ltmp11:
.Lfunc_end2:
	.size	_Z7maximumiii, .Lfunc_end2-_Z7maximumiii
	.cfi_endproc
                                        # -- End function
	.section	.rodata.cst8,"aM",@progbits,8
	.p2align	3, 0x0                          # -- Begin function _Z7gettimev
.LCPI3_0:
	.quad	0x3eb0c6f7a0b5ed8d              # double 9.9999999999999995E-7
	.text
	.globl	_Z7gettimev
	.p2align	4, 0x90
	.type	_Z7gettimev,@function
_Z7gettimev:                            # @_Z7gettimev
.Lfunc_begin3:
	.loc	1 94 0 is_stmt 1                # ./needle.cu:94:0
	.cfi_startproc
# %bb.0:                                # %entry
	pushq	%rbp
	.cfi_def_cfa_offset 16
	.cfi_offset %rbp, -16
	movq	%rsp, %rbp
	.cfi_def_cfa_register %rbp
	subq	$16, %rsp
.Ltmp12:
	.loc	1 96 3 prologue_end             # ./needle.cu:96:3
	leaq	-16(%rbp), %rdi
	xorl	%eax, %eax
	movl	%eax, %esi
	callq	gettimeofday@PLT
	.loc	1 97 10                         # ./needle.cu:97:10
	cvtsi2sdq	-16(%rbp), %xmm1
	.loc	1 97 21 is_stmt 0               # ./needle.cu:97:21
	cvtsi2sdq	-8(%rbp), %xmm0
	movsd	.LCPI3_0(%rip), %xmm2           # xmm2 = [9.9999999999999995E-7,0.0E+0]
	.loc	1 97 19                         # ./needle.cu:97:19
	mulsd	%xmm2, %xmm0
	addsd	%xmm1, %xmm0
	.loc	1 97 3 epilogue_begin           # ./needle.cu:97:3
	addq	$16, %rsp
	popq	%rbp
	.cfi_def_cfa %rsp, 8
	retq
.Ltmp13:
.Lfunc_end3:
	.size	_Z7gettimev, .Lfunc_end3-_Z7gettimev
	.cfi_endproc
                                        # -- End function
	.globl	main                            # -- Begin function main
	.p2align	4, 0x90
	.type	main,@function
main:                                   # @main
.Lfunc_begin4:
	.loc	1 103 0 is_stmt 1               # ./needle.cu:103:0
	.cfi_startproc
# %bb.0:                                # %entry
	pushq	%rbp
	.cfi_def_cfa_offset 16
	.cfi_offset %rbp, -16
	movq	%rsp, %rbp
	.cfi_def_cfa_register %rbp
	subq	$16, %rsp
	movl	$0, -4(%rbp)
	movl	%edi, -8(%rbp)
	movq	%rsi, -16(%rbp)
.Ltmp14:
	.loc	1 104 3 prologue_end            # ./needle.cu:104:3
	xorl	%edi, %edi
	callq	cudaSetDevice@PLT
	.loc	1 105 3                         # ./needle.cu:105:3
	leaq	.L.str(%rip), %rdi
	movl	$4, %esi
	movb	$0, %al
	callq	printf@PLT
	.loc	1 107 11                        # ./needle.cu:107:11
	movl	-8(%rbp), %edi
	.loc	1 107 17 is_stmt 0              # ./needle.cu:107:17
	movq	-16(%rbp), %rsi
	.loc	1 107 3                         # ./needle.cu:107:3
	callq	_Z7runTestiPPc
	.loc	1 109 3 is_stmt 1               # ./needle.cu:109:3
	xorl	%eax, %eax
	.loc	1 109 3 epilogue_begin is_stmt 0 # ./needle.cu:109:3
	addq	$16, %rsp
	popq	%rbp
	.cfi_def_cfa %rsp, 8
	retq
.Ltmp15:
.Lfunc_end4:
	.size	main, .Lfunc_end4-main
	.cfi_endproc
                                        # -- End function
	.globl	_Z7runTestiPPc                  # -- Begin function _Z7runTestiPPc
	.p2align	4, 0x90
	.type	_Z7runTestiPPc,@function
_Z7runTestiPPc:                         # @_Z7runTestiPPc
.Lfunc_begin5:
	.loc	1 119 0 is_stmt 1               # ./needle.cu:119:0
	.cfi_startproc
# %bb.0:                                # %entry
	pushq	%rbp
	.cfi_def_cfa_offset 16
	.cfi_offset %rbp, -16
	movq	%rsp, %rbp
	.cfi_def_cfa_register %rbp
	subq	$304, %rsp                      # imm = 0x130
	movl	%edi, -4(%rbp)
	movq	%rsi, -16(%rbp)
.Ltmp16:
	.loc	1 127 12 prologue_end           # ./needle.cu:127:12
	cmpl	$3, -4(%rbp)
.Ltmp17:
	.loc	1 127 7 is_stmt 0               # ./needle.cu:127:7
	jne	.LBB5_2
# %bb.1:                                # %if.then
.Ltmp18:
	.loc	1 128 21 is_stmt 1              # ./needle.cu:128:21
	movq	-16(%rbp), %rax
	movq	8(%rax), %rdi
	.loc	1 128 16 is_stmt 0              # ./needle.cu:128:16
	callq	atoi@PLT
	.loc	1 128 14                        # ./needle.cu:128:14
	movl	%eax, -20(%rbp)
	.loc	1 129 21 is_stmt 1              # ./needle.cu:129:21
	movq	-16(%rbp), %rax
	movq	8(%rax), %rdi
	.loc	1 129 16 is_stmt 0              # ./needle.cu:129:16
	callq	atoi@PLT
	.loc	1 129 14                        # ./needle.cu:129:14
	movl	%eax, -24(%rbp)
	.loc	1 130 20 is_stmt 1              # ./needle.cu:130:20
	movq	-16(%rbp), %rax
	movq	16(%rax), %rdi
	.loc	1 130 15 is_stmt 0              # ./needle.cu:130:15
	callq	atoi@PLT
	.loc	1 130 13                        # ./needle.cu:130:13
	movl	%eax, -28(%rbp)
	.loc	1 131 3 is_stmt 1               # ./needle.cu:131:3
	jmp	.LBB5_3
.Ltmp19:
.LBB5_2:                                # %if.else
	.loc	1 132 11                        # ./needle.cu:132:11
	movl	-4(%rbp), %edi
	.loc	1 132 17 is_stmt 0              # ./needle.cu:132:17
	movq	-16(%rbp), %rsi
	.loc	1 132 5                         # ./needle.cu:132:5
	callq	_Z5usageiPPc
.Ltmp20:
.LBB5_3:                                # %if.end
	.loc	1 135 12 is_stmt 1              # ./needle.cu:135:12
	movq	-16(%rbp), %rax
	movq	8(%rax), %rdi
	.loc	1 135 7 is_stmt 0               # ./needle.cu:135:7
	callq	atoi@PLT
	.loc	1 135 21                        # ./needle.cu:135:21
	movl	$16, %ecx
	cltd
	idivl	%ecx
	.loc	1 135 26                        # ./needle.cu:135:26
	cmpl	$0, %edx
.Ltmp21:
	.loc	1 135 7                         # ./needle.cu:135:7
	je	.LBB5_5
# %bb.4:                                # %if.then8
.Ltmp22:
	.loc	1 136 13 is_stmt 1              # ./needle.cu:136:13
	movq	stderr@GOTPCREL(%rip), %rax
	movq	(%rax), %rdi
	.loc	1 136 5 is_stmt 0               # ./needle.cu:136:5
	leaq	.L.str.4(%rip), %rsi
	movb	$0, %al
	callq	fprintf@PLT
	.loc	1 137 5 is_stmt 1               # ./needle.cu:137:5
	movl	$1, %edi
	callq	exit@PLT
.Ltmp23:
.LBB5_5:                                # %if.end10
	.loc	1 140 14                        # ./needle.cu:140:14
	movl	-20(%rbp), %eax
	.loc	1 140 23 is_stmt 0              # ./needle.cu:140:23
	addl	$1, %eax
	.loc	1 140 12                        # ./needle.cu:140:12
	movl	%eax, -20(%rbp)
	.loc	1 141 14 is_stmt 1              # ./needle.cu:141:14
	movl	-24(%rbp), %eax
	.loc	1 141 23 is_stmt 0              # ./needle.cu:141:23
	addl	$1, %eax
	.loc	1 141 12                        # ./needle.cu:141:12
	movl	%eax, -24(%rbp)
	.loc	1 142 30 is_stmt 1              # ./needle.cu:142:30
	movl	-20(%rbp), %eax
	.loc	1 142 39 is_stmt 0              # ./needle.cu:142:39
	imull	-24(%rbp), %eax
	.loc	1 142 30                        # ./needle.cu:142:30
	movslq	%eax, %rdi
	.loc	1 142 50                        # ./needle.cu:142:50
	shlq	$2, %rdi
	.loc	1 142 23                        # ./needle.cu:142:23
	callq	malloc@PLT
	.loc	1 142 14                        # ./needle.cu:142:14
	movq	%rax, -56(%rbp)
	.loc	1 143 34 is_stmt 1              # ./needle.cu:143:34
	movl	-20(%rbp), %eax
	.loc	1 143 43 is_stmt 0              # ./needle.cu:143:43
	imull	-24(%rbp), %eax
	.loc	1 143 34                        # ./needle.cu:143:34
	movslq	%eax, %rdi
	.loc	1 143 54                        # ./needle.cu:143:54
	shlq	$2, %rdi
	.loc	1 143 27                        # ./needle.cu:143:27
	callq	malloc@PLT
	.loc	1 143 18                        # ./needle.cu:143:18
	movq	%rax, -40(%rbp)
	.loc	1 144 35 is_stmt 1              # ./needle.cu:144:35
	movl	-20(%rbp), %eax
	.loc	1 144 44 is_stmt 0              # ./needle.cu:144:44
	imull	-24(%rbp), %eax
	.loc	1 144 35                        # ./needle.cu:144:35
	movslq	%eax, %rdi
	.loc	1 144 55                        # ./needle.cu:144:55
	shlq	$2, %rdi
	.loc	1 144 28                        # ./needle.cu:144:28
	callq	malloc@PLT
	.loc	1 144 19                        # ./needle.cu:144:19
	movq	%rax, -48(%rbp)
.Ltmp24:
	.loc	1 146 8 is_stmt 1               # ./needle.cu:146:8
	cmpq	$0, -40(%rbp)
.Ltmp25:
	.loc	1 146 7 is_stmt 0               # ./needle.cu:146:7
	jne	.LBB5_7
# %bb.6:                                # %if.then22
.Ltmp26:
	.loc	1 147 13 is_stmt 1              # ./needle.cu:147:13
	movq	stderr@GOTPCREL(%rip), %rax
	movq	(%rax), %rdi
	.loc	1 147 5 is_stmt 0               # ./needle.cu:147:5
	leaq	.L.str.5(%rip), %rsi
	movb	$0, %al
	callq	fprintf@PLT
.Ltmp27:
.LBB5_7:                                # %if.end24
	.loc	1 149 3 is_stmt 1               # ./needle.cu:149:3
	movl	$7, %edi
	callq	srand@PLT
.Ltmp28:
	.loc	1 151 12                        # ./needle.cu:151:12
	movl	$0, -80(%rbp)
.LBB5_8:                                # %for.cond
                                        # =>This Loop Header: Depth=1
                                        #     Child Loop BB5_10 Depth 2
.Ltmp29:
	.loc	1 151 19 is_stmt 0              # ./needle.cu:151:19
	movl	-80(%rbp), %eax
	.loc	1 151 21                        # ./needle.cu:151:21
	cmpl	-24(%rbp), %eax
.Ltmp30:
	.loc	1 151 3                         # ./needle.cu:151:3
	jge	.LBB5_15
# %bb.9:                                # %for.body
                                        #   in Loop: Header=BB5_8 Depth=1
.Ltmp31:
	.loc	1 152 14 is_stmt 1              # ./needle.cu:152:14
	movl	$0, -84(%rbp)
.LBB5_10:                               # %for.cond26
                                        #   Parent Loop BB5_8 Depth=1
                                        # =>  This Inner Loop Header: Depth=2
.Ltmp32:
	.loc	1 152 21 is_stmt 0              # ./needle.cu:152:21
	movl	-84(%rbp), %eax
	.loc	1 152 23                        # ./needle.cu:152:23
	cmpl	-20(%rbp), %eax
.Ltmp33:
	.loc	1 152 5                         # ./needle.cu:152:5
	jge	.LBB5_13
# %bb.11:                               # %for.body28
                                        #   in Loop: Header=BB5_10 Depth=2
.Ltmp34:
	.loc	1 153 7 is_stmt 1               # ./needle.cu:153:7
	movq	-40(%rbp), %rax
	.loc	1 153 22 is_stmt 0              # ./needle.cu:153:22
	movl	-80(%rbp), %ecx
	.loc	1 153 24                        # ./needle.cu:153:24
	imull	-24(%rbp), %ecx
	.loc	1 153 35                        # ./needle.cu:153:35
	addl	-84(%rbp), %ecx
	.loc	1 153 7                         # ./needle.cu:153:7
	movslq	%ecx, %rcx
	.loc	1 153 40                        # ./needle.cu:153:40
	movl	$0, (%rax,%rcx,4)
.Ltmp35:
# %bb.12:                               # %for.inc
                                        #   in Loop: Header=BB5_10 Depth=2
	.loc	1 152 36 is_stmt 1              # ./needle.cu:152:36
	movl	-84(%rbp), %eax
	addl	$1, %eax
	movl	%eax, -84(%rbp)
	.loc	1 152 5 is_stmt 0               # ./needle.cu:152:5
	jmp	.LBB5_10
.Ltmp36:
.LBB5_13:                               # %for.end
                                        #   in Loop: Header=BB5_8 Depth=1
	.loc	1 155 3 is_stmt 1               # ./needle.cu:155:3
	jmp	.LBB5_14
.Ltmp37:
.LBB5_14:                               # %for.inc32
                                        #   in Loop: Header=BB5_8 Depth=1
	.loc	1 151 34                        # ./needle.cu:151:34
	movl	-80(%rbp), %eax
	addl	$1, %eax
	movl	%eax, -80(%rbp)
	.loc	1 151 3 is_stmt 0               # ./needle.cu:151:3
	jmp	.LBB5_8
.Ltmp38:
.LBB5_15:                               # %for.end34
	.loc	1 157 3 is_stmt 1               # ./needle.cu:157:3
	leaq	.L.str.6(%rip), %rdi
	movb	$0, %al
	callq	printf@PLT
.Ltmp39:
	.loc	1 159 12                        # ./needle.cu:159:12
	movl	$1, -88(%rbp)
.LBB5_16:                               # %for.cond37
                                        # =>This Inner Loop Header: Depth=1
.Ltmp40:
	.loc	1 159 19 is_stmt 0              # ./needle.cu:159:19
	movl	-88(%rbp), %eax
	.loc	1 159 21                        # ./needle.cu:159:21
	cmpl	-20(%rbp), %eax
.Ltmp41:
	.loc	1 159 3                         # ./needle.cu:159:3
	jge	.LBB5_19
# %bb.17:                               # %for.body39
                                        #   in Loop: Header=BB5_16 Depth=1
.Ltmp42:
	.loc	1 160 36 is_stmt 1              # ./needle.cu:160:36
	callq	rand@PLT
	.loc	1 160 43 is_stmt 0              # ./needle.cu:160:43
	movl	$10, %ecx
	cltd
	idivl	%ecx
	.loc	1 160 48                        # ./needle.cu:160:48
	addl	$1, %edx
	.loc	1 160 5                         # ./needle.cu:160:5
	movq	-40(%rbp), %rax
	.loc	1 160 20                        # ./needle.cu:160:20
	movl	-88(%rbp), %ecx
	.loc	1 160 22                        # ./needle.cu:160:22
	imull	-24(%rbp), %ecx
	.loc	1 160 5                         # ./needle.cu:160:5
	movslq	%ecx, %rcx
	.loc	1 160 34                        # ./needle.cu:160:34
	movl	%edx, (%rax,%rcx,4)
.Ltmp43:
# %bb.18:                               # %for.inc46
                                        #   in Loop: Header=BB5_16 Depth=1
	.loc	1 159 34 is_stmt 1              # ./needle.cu:159:34
	movl	-88(%rbp), %eax
	addl	$1, %eax
	movl	%eax, -88(%rbp)
	.loc	1 159 3 is_stmt 0               # ./needle.cu:159:3
	jmp	.LBB5_16
.Ltmp44:
.LBB5_19:                               # %for.end48
	.loc	1 162 12 is_stmt 1              # ./needle.cu:162:12
	movl	$1, -92(%rbp)
.LBB5_20:                               # %for.cond50
                                        # =>This Inner Loop Header: Depth=1
.Ltmp45:
	.loc	1 162 19 is_stmt 0              # ./needle.cu:162:19
	movl	-92(%rbp), %eax
	.loc	1 162 21                        # ./needle.cu:162:21
	cmpl	-24(%rbp), %eax
.Ltmp46:
	.loc	1 162 3                         # ./needle.cu:162:3
	jge	.LBB5_23
# %bb.21:                               # %for.body52
                                        #   in Loop: Header=BB5_20 Depth=1
.Ltmp47:
	.loc	1 163 25 is_stmt 1              # ./needle.cu:163:25
	callq	rand@PLT
	.loc	1 163 32 is_stmt 0              # ./needle.cu:163:32
	movl	$10, %ecx
	cltd
	idivl	%ecx
	.loc	1 163 37                        # ./needle.cu:163:37
	addl	$1, %edx
	.loc	1 163 5                         # ./needle.cu:163:5
	movq	-40(%rbp), %rax
	movslq	-92(%rbp), %rcx
	.loc	1 163 23                        # ./needle.cu:163:23
	movl	%edx, (%rax,%rcx,4)
.Ltmp48:
# %bb.22:                               # %for.inc58
                                        #   in Loop: Header=BB5_20 Depth=1
	.loc	1 162 34 is_stmt 1              # ./needle.cu:162:34
	movl	-92(%rbp), %eax
	addl	$1, %eax
	movl	%eax, -92(%rbp)
	.loc	1 162 3 is_stmt 0               # ./needle.cu:162:3
	jmp	.LBB5_20
.Ltmp49:
.LBB5_23:                               # %for.end60
	.loc	1 166 12 is_stmt 1              # ./needle.cu:166:12
	movl	$1, -96(%rbp)
.LBB5_24:                               # %for.cond62
                                        # =>This Loop Header: Depth=1
                                        #     Child Loop BB5_26 Depth 2
.Ltmp50:
	.loc	1 166 19 is_stmt 0              # ./needle.cu:166:19
	movl	-96(%rbp), %eax
	.loc	1 166 21                        # ./needle.cu:166:21
	cmpl	-24(%rbp), %eax
.Ltmp51:
	.loc	1 166 3                         # ./needle.cu:166:3
	jge	.LBB5_31
# %bb.25:                               # %for.body64
                                        #   in Loop: Header=BB5_24 Depth=1
.Ltmp52:
	.loc	1 167 14 is_stmt 1              # ./needle.cu:167:14
	movl	$1, -100(%rbp)
.LBB5_26:                               # %for.cond66
                                        #   Parent Loop BB5_24 Depth=1
                                        # =>  This Inner Loop Header: Depth=2
.Ltmp53:
	.loc	1 167 21 is_stmt 0              # ./needle.cu:167:21
	movl	-100(%rbp), %eax
	.loc	1 167 23                        # ./needle.cu:167:23
	cmpl	-20(%rbp), %eax
.Ltmp54:
	.loc	1 167 5                         # ./needle.cu:167:5
	jge	.LBB5_29
# %bb.27:                               # %for.body68
                                        #   in Loop: Header=BB5_26 Depth=2
.Ltmp55:
	.loc	1 169 20 is_stmt 1              # ./needle.cu:169:20
	movq	-40(%rbp), %rax
	.loc	1 169 35 is_stmt 0              # ./needle.cu:169:35
	movl	-96(%rbp), %ecx
	.loc	1 169 37                        # ./needle.cu:169:37
	imull	-24(%rbp), %ecx
	.loc	1 169 20                        # ./needle.cu:169:20
	movslq	%ecx, %rcx
	.loc	1 169 11                        # ./needle.cu:169:11
	movslq	(%rax,%rcx,4), %rcx
	leaq	blosum62(%rip), %rax
	imulq	$96, %rcx, %rcx
	addq	%rcx, %rax
	.loc	1 169 50                        # ./needle.cu:169:50
	movq	-40(%rbp), %rcx
	movslq	-100(%rbp), %rdx
	.loc	1 169 11                        # ./needle.cu:169:11
	movslq	(%rcx,%rdx,4), %rcx
	movl	(%rax,%rcx,4), %edx
	.loc	1 168 7 is_stmt 1               # ./needle.cu:168:7
	movq	-56(%rbp), %rax
	.loc	1 168 18 is_stmt 0              # ./needle.cu:168:18
	movl	-96(%rbp), %ecx
	.loc	1 168 20                        # ./needle.cu:168:20
	imull	-24(%rbp), %ecx
	.loc	1 168 31                        # ./needle.cu:168:31
	addl	-100(%rbp), %ecx
	.loc	1 168 7                         # ./needle.cu:168:7
	movslq	%ecx, %rcx
	.loc	1 168 36                        # ./needle.cu:168:36
	movl	%edx, (%rax,%rcx,4)
.Ltmp56:
# %bb.28:                               # %for.inc82
                                        #   in Loop: Header=BB5_26 Depth=2
	.loc	1 167 36 is_stmt 1              # ./needle.cu:167:36
	movl	-100(%rbp), %eax
	addl	$1, %eax
	movl	%eax, -100(%rbp)
	.loc	1 167 5 is_stmt 0               # ./needle.cu:167:5
	jmp	.LBB5_26
.Ltmp57:
.LBB5_29:                               # %for.end84
                                        #   in Loop: Header=BB5_24 Depth=1
	.loc	1 171 3 is_stmt 1               # ./needle.cu:171:3
	jmp	.LBB5_30
.Ltmp58:
.LBB5_30:                               # %for.inc85
                                        #   in Loop: Header=BB5_24 Depth=1
	.loc	1 166 34                        # ./needle.cu:166:34
	movl	-96(%rbp), %eax
	addl	$1, %eax
	movl	%eax, -96(%rbp)
	.loc	1 166 3 is_stmt 0               # ./needle.cu:166:3
	jmp	.LBB5_24
.Ltmp59:
.LBB5_31:                               # %for.end87
	.loc	1 173 12 is_stmt 1              # ./needle.cu:173:12
	movl	$1, -104(%rbp)
.LBB5_32:                               # %for.cond89
                                        # =>This Inner Loop Header: Depth=1
.Ltmp60:
	.loc	1 173 19 is_stmt 0              # ./needle.cu:173:19
	movl	-104(%rbp), %eax
	.loc	1 173 21                        # ./needle.cu:173:21
	cmpl	-20(%rbp), %eax
.Ltmp61:
	.loc	1 173 3                         # ./needle.cu:173:3
	jge	.LBB5_35
# %bb.33:                               # %for.body91
                                        #   in Loop: Header=BB5_32 Depth=1
.Ltmp62:
	.loc	1 174 36 is_stmt 1              # ./needle.cu:174:36
	xorl	%edx, %edx
	subl	-104(%rbp), %edx
	.loc	1 174 39 is_stmt 0              # ./needle.cu:174:39
	imull	-28(%rbp), %edx
	.loc	1 174 5                         # ./needle.cu:174:5
	movq	-40(%rbp), %rax
	.loc	1 174 20                        # ./needle.cu:174:20
	movl	-104(%rbp), %ecx
	.loc	1 174 22                        # ./needle.cu:174:22
	imull	-24(%rbp), %ecx
	.loc	1 174 5                         # ./needle.cu:174:5
	movslq	%ecx, %rcx
	.loc	1 174 34                        # ./needle.cu:174:34
	movl	%edx, (%rax,%rcx,4)
# %bb.34:                               # %for.inc96
                                        #   in Loop: Header=BB5_32 Depth=1
	.loc	1 173 34 is_stmt 1              # ./needle.cu:173:34
	movl	-104(%rbp), %eax
	addl	$1, %eax
	movl	%eax, -104(%rbp)
	.loc	1 173 3 is_stmt 0               # ./needle.cu:173:3
	jmp	.LBB5_32
.Ltmp63:
.LBB5_35:                               # %for.end98
	.loc	1 175 12 is_stmt 1              # ./needle.cu:175:12
	movl	$1, -108(%rbp)
.LBB5_36:                               # %for.cond100
                                        # =>This Inner Loop Header: Depth=1
.Ltmp64:
	.loc	1 175 19 is_stmt 0              # ./needle.cu:175:19
	movl	-108(%rbp), %eax
	.loc	1 175 21                        # ./needle.cu:175:21
	cmpl	-24(%rbp), %eax
.Ltmp65:
	.loc	1 175 3                         # ./needle.cu:175:3
	jge	.LBB5_39
# %bb.37:                               # %for.body102
                                        #   in Loop: Header=BB5_36 Depth=1
.Ltmp66:
	.loc	1 176 25 is_stmt 1              # ./needle.cu:176:25
	xorl	%edx, %edx
	subl	-108(%rbp), %edx
	.loc	1 176 28 is_stmt 0              # ./needle.cu:176:28
	imull	-28(%rbp), %edx
	.loc	1 176 5                         # ./needle.cu:176:5
	movq	-40(%rbp), %rax
	movslq	-108(%rbp), %rcx
	.loc	1 176 23                        # ./needle.cu:176:23
	movl	%edx, (%rax,%rcx,4)
# %bb.38:                               # %for.inc107
                                        #   in Loop: Header=BB5_36 Depth=1
	.loc	1 175 34 is_stmt 1              # ./needle.cu:175:34
	movl	-108(%rbp), %eax
	addl	$1, %eax
	movl	%eax, -108(%rbp)
	.loc	1 175 3 is_stmt 0               # ./needle.cu:175:3
	jmp	.LBB5_36
.Ltmp67:
.LBB5_39:                               # %for.end109
	.loc	1 178 10 is_stmt 1              # ./needle.cu:178:10
	movl	-24(%rbp), %eax
	.loc	1 178 19 is_stmt 0              # ./needle.cu:178:19
	imull	-20(%rbp), %eax
	.loc	1 178 8                         # ./needle.cu:178:8
	movl	%eax, -76(%rbp)
	.loc	1 179 55 is_stmt 1              # ./needle.cu:179:55
	movslq	-76(%rbp), %rsi
	.loc	1 179 53 is_stmt 0              # ./needle.cu:179:53
	shlq	$2, %rsi
	.loc	1 179 3                         # ./needle.cu:179:3
	leaq	-72(%rbp), %rdi
	callq	cudaMalloc@PLT
	.loc	1 180 51 is_stmt 1              # ./needle.cu:180:51
	movslq	-76(%rbp), %rsi
	.loc	1 180 49 is_stmt 0              # ./needle.cu:180:49
	shlq	$2, %rsi
	.loc	1 180 3                         # ./needle.cu:180:3
	leaq	-64(%rbp), %rdi
	callq	cudaMalloc@PLT
	.loc	1 182 14 is_stmt 1              # ./needle.cu:182:14
	movq	-72(%rbp), %rdi
	.loc	1 182 31 is_stmt 0              # ./needle.cu:182:31
	movq	-56(%rbp), %rsi
	.loc	1 182 57                        # ./needle.cu:182:57
	movslq	-76(%rbp), %rdx
	.loc	1 182 55                        # ./needle.cu:182:55
	shlq	$2, %rdx
	.loc	1 182 3                         # ./needle.cu:182:3
	movl	$1, %ecx
	callq	cudaMemcpy@PLT
	.loc	1 184 14 is_stmt 1              # ./needle.cu:184:14
	movq	-64(%rbp), %rdi
	.loc	1 184 27 is_stmt 0              # ./needle.cu:184:27
	movq	-40(%rbp), %rsi
	.loc	1 184 57                        # ./needle.cu:184:57
	movslq	-76(%rbp), %rdx
	.loc	1 184 55                        # ./needle.cu:184:55
	shlq	$2, %rdx
	.loc	1 184 3                         # ./needle.cu:184:3
	movl	$1, %ecx
	callq	cudaMemcpy@PLT
	.loc	1 186 3 is_stmt 1               # ./needle.cu:186:3
	callq	cudaDeviceSynchronize@PLT
	.loc	1 188 8                         # ./needle.cu:188:8
	leaq	-120(%rbp), %rdi
	movl	$1, %ecx
	movl	%ecx, %esi
	movl	%ecx, %edx
	callq	_ZN4dim3C2Ejjj
	.loc	1 189 8                         # ./needle.cu:189:8
	leaq	-132(%rbp), %rdi
	movl	$4, %esi
	movl	$1, %ecx
	movl	%ecx, %edx
	callq	_ZN4dim3C2Ejjj
	.loc	1 190 22                        # ./needle.cu:190:22
	movl	-24(%rbp), %eax
	.loc	1 190 31 is_stmt 0              # ./needle.cu:190:31
	subl	$1, %eax
	.loc	1 190 36                        # ./needle.cu:190:36
	movl	$4, %ecx
	cltd
	idivl	%ecx
	.loc	1 190 7                         # ./needle.cu:190:7
	movl	%eax, -136(%rbp)
	.loc	1 196 3 is_stmt 1               # ./needle.cu:196:3
	leaq	.L.str.7(%rip), %rdi
	movb	$0, %al
	callq	printf@PLT
.Ltmp68:
	.loc	1 198 12                        # ./needle.cu:198:12
	movl	$1, -140(%rbp)
.LBB5_40:                               # %for.cond127
                                        # =>This Inner Loop Header: Depth=1
.Ltmp69:
	.loc	1 198 19 is_stmt 0              # ./needle.cu:198:19
	movl	-140(%rbp), %eax
	.loc	1 198 21                        # ./needle.cu:198:21
	cmpl	-136(%rbp), %eax
.Ltmp70:
	.loc	1 198 3                         # ./needle.cu:198:3
	jg	.LBB5_45
# %bb.41:                               # %for.body129
                                        #   in Loop: Header=BB5_40 Depth=1
.Ltmp71:
	.loc	1 199 17 is_stmt 1              # ./needle.cu:199:17
	movl	-140(%rbp), %eax
	.loc	1 199 15 is_stmt 0              # ./needle.cu:199:15
	movl	%eax, -120(%rbp)
	.loc	1 200 15 is_stmt 1              # ./needle.cu:200:15
	movl	$1, -116(%rbp)
	.loc	1 201 28                        # ./needle.cu:201:28
	movq	-120(%rbp), %rax
	movq	%rax, -152(%rbp)
	movl	-112(%rbp), %eax
	movl	%eax, -144(%rbp)
	.loc	1 201 37 is_stmt 0              # ./needle.cu:201:37
	movq	-132(%rbp), %rax
	movq	%rax, -164(%rbp)
	movl	-124(%rbp), %eax
	movl	%eax, -156(%rbp)
	.loc	1 201 25                        # ./needle.cu:201:25
	movq	-152(%rbp), %rax
	movq	%rax, -180(%rbp)
	movl	-144(%rbp), %eax
	movl	%eax, -172(%rbp)
	movq	-180(%rbp), %rdi
	movl	-172(%rbp), %esi
	movq	-164(%rbp), %rax
	movq	%rax, -196(%rbp)
	movl	-156(%rbp), %eax
	movl	%eax, -188(%rbp)
	movq	-196(%rbp), %rdx
	movl	-188(%rbp), %ecx
	xorl	%eax, %eax
	movl	%eax, %r9d
	movq	%r9, %r8
	callq	__cudaPushCallConfiguration@PLT
	cmpl	$0, %eax
	.loc	1 201 5                         # ./needle.cu:201:5
	jne	.LBB5_43
# %bb.42:                               # %kcall.configok
                                        #   in Loop: Header=BB5_40 Depth=1
	.loc	1 202 9 is_stmt 1               # ./needle.cu:202:9
	movq	-72(%rbp), %rdi
	.loc	1 202 26 is_stmt 0              # ./needle.cu:202:26
	movq	-64(%rbp), %rsi
	.loc	1 202 39                        # ./needle.cu:202:39
	movl	-24(%rbp), %edx
	.loc	1 202 49                        # ./needle.cu:202:49
	movl	-28(%rbp), %ecx
	.loc	1 202 58                        # ./needle.cu:202:58
	movl	-140(%rbp), %r8d
	.loc	1 202 61                        # ./needle.cu:202:61
	movl	-136(%rbp), %r9d
	.loc	1 201 5 is_stmt 1               # ./needle.cu:201:5
	callq	_Z35__device_stub__needle_cuda_shared_1PiS_iiii
.LBB5_43:                               # %kcall.end
                                        #   in Loop: Header=BB5_40 Depth=1
	.loc	1 203 5                         # ./needle.cu:203:5
	callq	cudaDeviceSynchronize@PLT
.Ltmp72:
# %bb.44:                               # %for.inc134
                                        #   in Loop: Header=BB5_40 Depth=1
	.loc	1 198 38                        # ./needle.cu:198:38
	movl	-140(%rbp), %eax
	addl	$1, %eax
	movl	%eax, -140(%rbp)
	.loc	1 198 3 is_stmt 0               # ./needle.cu:198:3
	jmp	.LBB5_40
.Ltmp73:
.LBB5_45:                               # %for.end136
	.loc	1 205 14 is_stmt 1              # ./needle.cu:205:14
	movq	-48(%rbp), %rdi
	.loc	1 205 31 is_stmt 0              # ./needle.cu:205:31
	movq	-64(%rbp), %rsi
	.loc	1 205 58                        # ./needle.cu:205:58
	movslq	-76(%rbp), %rdx
	.loc	1 205 56                        # ./needle.cu:205:56
	shlq	$2, %rdx
	.loc	1 205 3                         # ./needle.cu:205:3
	movl	$2, %ecx
	callq	cudaMemcpy@PLT
	.loc	1 207 3 is_stmt 1               # ./needle.cu:207:3
	callq	cudaDeviceSynchronize@PLT
	.loc	1 209 3                         # ./needle.cu:209:3
	leaq	.L.str.8(%rip), %rdi
	movb	$0, %al
	callq	printf@PLT
.Ltmp74:
	.loc	1 211 16                        # ./needle.cu:211:16
	movl	-136(%rbp), %eax
	.loc	1 211 28 is_stmt 0              # ./needle.cu:211:28
	subl	$1, %eax
	.loc	1 211 12                        # ./needle.cu:211:12
	movl	%eax, -200(%rbp)
.LBB5_46:                               # %for.cond144
                                        # =>This Inner Loop Header: Depth=1
.Ltmp75:
	.loc	1 211 35                        # ./needle.cu:211:35
	cmpl	$1, -200(%rbp)
.Ltmp76:
	.loc	1 211 3                         # ./needle.cu:211:3
	jl	.LBB5_51
# %bb.47:                               # %for.body146
                                        #   in Loop: Header=BB5_46 Depth=1
.Ltmp77:
	.loc	1 212 17 is_stmt 1              # ./needle.cu:212:17
	movl	-200(%rbp), %eax
	.loc	1 212 15 is_stmt 0              # ./needle.cu:212:15
	movl	%eax, -120(%rbp)
	.loc	1 213 15 is_stmt 1              # ./needle.cu:213:15
	movl	$1, -116(%rbp)
	.loc	1 214 28                        # ./needle.cu:214:28
	movq	-120(%rbp), %rax
	movq	%rax, -212(%rbp)
	movl	-112(%rbp), %eax
	movl	%eax, -204(%rbp)
	.loc	1 214 37 is_stmt 0              # ./needle.cu:214:37
	movq	-132(%rbp), %rax
	movq	%rax, -224(%rbp)
	movl	-124(%rbp), %eax
	movl	%eax, -216(%rbp)
	.loc	1 214 25                        # ./needle.cu:214:25
	movq	-212(%rbp), %rax
	movq	%rax, -240(%rbp)
	movl	-204(%rbp), %eax
	movl	%eax, -232(%rbp)
	movq	-240(%rbp), %rdi
	movl	-232(%rbp), %esi
	movq	-224(%rbp), %rax
	movq	%rax, -256(%rbp)
	movl	-216(%rbp), %eax
	movl	%eax, -248(%rbp)
	movq	-256(%rbp), %rdx
	movl	-248(%rbp), %ecx
	xorl	%eax, %eax
	movl	%eax, %r9d
	movq	%r9, %r8
	callq	__cudaPushCallConfiguration@PLT
	cmpl	$0, %eax
	.loc	1 214 5                         # ./needle.cu:214:5
	jne	.LBB5_49
# %bb.48:                               # %kcall.configok153
                                        #   in Loop: Header=BB5_46 Depth=1
	.loc	1 215 9 is_stmt 1               # ./needle.cu:215:9
	movq	-72(%rbp), %rdi
	.loc	1 215 26 is_stmt 0              # ./needle.cu:215:26
	movq	-64(%rbp), %rsi
	.loc	1 215 39                        # ./needle.cu:215:39
	movl	-24(%rbp), %edx
	.loc	1 215 49                        # ./needle.cu:215:49
	movl	-28(%rbp), %ecx
	.loc	1 215 58                        # ./needle.cu:215:58
	movl	-200(%rbp), %r8d
	.loc	1 215 61                        # ./needle.cu:215:61
	movl	-136(%rbp), %r9d
	.loc	1 214 5 is_stmt 1               # ./needle.cu:214:5
	callq	_Z35__device_stub__needle_cuda_shared_2PiS_iiii
.LBB5_49:                               # %kcall.end154
                                        #   in Loop: Header=BB5_46 Depth=1
	.loc	1 216 5                         # ./needle.cu:216:5
	callq	cudaDeviceSynchronize@PLT
.Ltmp78:
# %bb.50:                               # %for.inc156
                                        #   in Loop: Header=BB5_46 Depth=1
	.loc	1 211 42                        # ./needle.cu:211:42
	movl	-200(%rbp), %eax
	addl	$-1, %eax
	movl	%eax, -200(%rbp)
	.loc	1 211 3 is_stmt 0               # ./needle.cu:211:3
	jmp	.LBB5_46
.Ltmp79:
.LBB5_51:                               # %for.end157
	.loc	1 225 14 is_stmt 1              # ./needle.cu:225:14
	movq	-48(%rbp), %rdi
	.loc	1 225 31 is_stmt 0              # ./needle.cu:225:31
	movq	-64(%rbp), %rsi
	.loc	1 225 58                        # ./needle.cu:225:58
	movslq	-76(%rbp), %rdx
	.loc	1 225 56                        # ./needle.cu:225:56
	shlq	$2, %rdx
	.loc	1 225 3                         # ./needle.cu:225:3
	movl	$2, %ecx
	callq	cudaMemcpy@PLT
	.loc	1 230 15 is_stmt 1              # ./needle.cu:230:15
	leaq	.L.str.9(%rip), %rdi
	leaq	.L.str.10(%rip), %rsi
	callq	fopen@PLT
	.loc	1 230 9 is_stmt 0               # ./needle.cu:230:9
	movq	%rax, -264(%rbp)
	.loc	1 231 11 is_stmt 1              # ./needle.cu:231:11
	movq	-264(%rbp), %rdi
	.loc	1 231 3 is_stmt 0               # ./needle.cu:231:3
	leaq	.L.str.11(%rip), %rsi
	movb	$0, %al
	callq	fprintf@PLT
.Ltmp80:
	.loc	1 233 16 is_stmt 1              # ./needle.cu:233:16
	movl	-20(%rbp), %eax
	.loc	1 233 25 is_stmt 0              # ./needle.cu:233:25
	subl	$2, %eax
	.loc	1 233 12                        # ./needle.cu:233:12
	movl	%eax, -268(%rbp)
	.loc	1 233 34                        # ./needle.cu:233:34
	movl	-20(%rbp), %eax
	.loc	1 233 43                        # ./needle.cu:233:43
	subl	$2, %eax
	.loc	1 233 30                        # ./needle.cu:233:30
	movl	%eax, -272(%rbp)
.LBB5_52:                               # %for.cond167
                                        # =>This Inner Loop Header: Depth=1
.Ltmp81:
	.loc	1 233 58                        # ./needle.cu:233:58
	cmpl	$0, -272(%rbp)
.Ltmp82:
	.loc	1 233 3                         # ./needle.cu:233:3
	jl	.LBB5_85
# %bb.53:                               # %for.body170
                                        #   in Loop: Header=BB5_52 Depth=1
.Ltmp83:
	.loc	1 235 9 is_stmt 1               # ./needle.cu:235:9
	movl	-268(%rbp), %eax
	.loc	1 235 14 is_stmt 0              # ./needle.cu:235:14
	movl	-20(%rbp), %ecx
	.loc	1 235 23                        # ./needle.cu:235:23
	subl	$2, %ecx
	.loc	1 235 11                        # ./needle.cu:235:11
	cmpl	%ecx, %eax
	.loc	1 235 27                        # ./needle.cu:235:27
	jne	.LBB5_56
# %bb.54:                               # %land.lhs.true
                                        #   in Loop: Header=BB5_52 Depth=1
	.loc	1 235 30                        # ./needle.cu:235:30
	movl	-272(%rbp), %eax
	.loc	1 235 35                        # ./needle.cu:235:35
	movl	-20(%rbp), %ecx
	.loc	1 235 44                        # ./needle.cu:235:44
	subl	$2, %ecx
	.loc	1 235 32                        # ./needle.cu:235:32
	cmpl	%ecx, %eax
.Ltmp84:
	.loc	1 235 9                         # ./needle.cu:235:9
	jne	.LBB5_56
# %bb.55:                               # %if.then175
                                        #   in Loop: Header=BB5_52 Depth=1
.Ltmp85:
	.loc	1 236 15 is_stmt 1              # ./needle.cu:236:15
	movq	-264(%rbp), %rdi
	.loc	1 237 15                        # ./needle.cu:237:15
	movq	-48(%rbp), %rax
	.loc	1 237 31 is_stmt 0              # ./needle.cu:237:31
	movl	-268(%rbp), %ecx
	.loc	1 237 33                        # ./needle.cu:237:33
	imull	-24(%rbp), %ecx
	.loc	1 237 44                        # ./needle.cu:237:44
	addl	-272(%rbp), %ecx
	.loc	1 237 15                        # ./needle.cu:237:15
	movslq	%ecx, %rcx
	movl	(%rax,%rcx,4), %edx
	.loc	1 236 7 is_stmt 1               # ./needle.cu:236:7
	leaq	.L.str.12(%rip), %rsi
	movb	$0, %al
	callq	fprintf@PLT
.Ltmp86:
.LBB5_56:                               # %if.end181
                                        #   in Loop: Header=BB5_52 Depth=1
	.loc	1 238 11                        # ./needle.cu:238:11
	cmpl	$0, -268(%rbp)
	.loc	1 238 16 is_stmt 0              # ./needle.cu:238:16
	jne	.LBB5_59
# %bb.57:                               # %land.lhs.true183
                                        #   in Loop: Header=BB5_52 Depth=1
	.loc	1 238 21                        # ./needle.cu:238:21
	cmpl	$0, -272(%rbp)
.Ltmp87:
	.loc	1 238 9                         # ./needle.cu:238:9
	jne	.LBB5_59
# %bb.58:                               # %if.then185
.Ltmp88:
	.loc	1 239 7 is_stmt 1               # ./needle.cu:239:7
	jmp	.LBB5_85
.Ltmp89:
.LBB5_59:                               # %if.end186
                                        #   in Loop: Header=BB5_52 Depth=1
	.loc	1 240 11                        # ./needle.cu:240:11
	cmpl	$0, -268(%rbp)
	.loc	1 240 15 is_stmt 0              # ./needle.cu:240:15
	jle	.LBB5_62
# %bb.60:                               # %land.lhs.true188
                                        #   in Loop: Header=BB5_52 Depth=1
	.loc	1 240 20                        # ./needle.cu:240:20
	cmpl	$0, -272(%rbp)
.Ltmp90:
	.loc	1 240 9                         # ./needle.cu:240:9
	jle	.LBB5_62
# %bb.61:                               # %if.then190
                                        #   in Loop: Header=BB5_52 Depth=1
.Ltmp91:
	.loc	1 241 12 is_stmt 1              # ./needle.cu:241:12
	movq	-48(%rbp), %rax
	.loc	1 241 29 is_stmt 0              # ./needle.cu:241:29
	movl	-268(%rbp), %ecx
	.loc	1 241 31                        # ./needle.cu:241:31
	subl	$1, %ecx
	.loc	1 241 36                        # ./needle.cu:241:36
	imull	-24(%rbp), %ecx
	.loc	1 241 47                        # ./needle.cu:241:47
	addl	-272(%rbp), %ecx
	.loc	1 241 51                        # ./needle.cu:241:51
	subl	$1, %ecx
	.loc	1 241 12                        # ./needle.cu:241:12
	movslq	%ecx, %rcx
	movl	(%rax,%rcx,4), %eax
	.loc	1 241 10                        # ./needle.cu:241:10
	movl	%eax, -276(%rbp)
	.loc	1 242 11 is_stmt 1              # ./needle.cu:242:11
	movq	-48(%rbp), %rax
	.loc	1 242 27 is_stmt 0              # ./needle.cu:242:27
	movl	-268(%rbp), %ecx
	.loc	1 242 29                        # ./needle.cu:242:29
	imull	-24(%rbp), %ecx
	.loc	1 242 40                        # ./needle.cu:242:40
	addl	-272(%rbp), %ecx
	.loc	1 242 44                        # ./needle.cu:242:44
	subl	$1, %ecx
	.loc	1 242 11                        # ./needle.cu:242:11
	movslq	%ecx, %rcx
	movl	(%rax,%rcx,4), %eax
	.loc	1 242 9                         # ./needle.cu:242:9
	movl	%eax, -284(%rbp)
	.loc	1 243 11 is_stmt 1              # ./needle.cu:243:11
	movq	-48(%rbp), %rax
	.loc	1 243 28 is_stmt 0              # ./needle.cu:243:28
	movl	-268(%rbp), %ecx
	.loc	1 243 30                        # ./needle.cu:243:30
	subl	$1, %ecx
	.loc	1 243 35                        # ./needle.cu:243:35
	imull	-24(%rbp), %ecx
	.loc	1 243 46                        # ./needle.cu:243:46
	addl	-272(%rbp), %ecx
	.loc	1 243 11                        # ./needle.cu:243:11
	movslq	%ecx, %rcx
	movl	(%rax,%rcx,4), %eax
	.loc	1 243 9                         # ./needle.cu:243:9
	movl	%eax, -280(%rbp)
	.loc	1 244 5 is_stmt 1               # ./needle.cu:244:5
	jmp	.LBB5_69
.Ltmp92:
.LBB5_62:                               # %if.else207
                                        #   in Loop: Header=BB5_52 Depth=1
	.loc	1 244 18 is_stmt 0              # ./needle.cu:244:18
	cmpl	$0, -268(%rbp)
.Ltmp93:
	.loc	1 244 16                        # ./needle.cu:244:16
	jne	.LBB5_64
# %bb.63:                               # %if.then209
                                        #   in Loop: Header=BB5_52 Depth=1
.Ltmp94:
	.loc	1 245 14 is_stmt 1              # ./needle.cu:245:14
	movl	$-999, -280(%rbp)               # imm = 0xFC19
	.loc	1 245 10 is_stmt 0              # ./needle.cu:245:10
	movl	$-999, -276(%rbp)               # imm = 0xFC19
	.loc	1 246 11 is_stmt 1              # ./needle.cu:246:11
	movq	-48(%rbp), %rax
	.loc	1 246 27 is_stmt 0              # ./needle.cu:246:27
	movl	-268(%rbp), %ecx
	.loc	1 246 29                        # ./needle.cu:246:29
	imull	-24(%rbp), %ecx
	.loc	1 246 40                        # ./needle.cu:246:40
	addl	-272(%rbp), %ecx
	.loc	1 246 44                        # ./needle.cu:246:44
	subl	$1, %ecx
	.loc	1 246 11                        # ./needle.cu:246:11
	movslq	%ecx, %rcx
	movl	(%rax,%rcx,4), %eax
	.loc	1 246 9                         # ./needle.cu:246:9
	movl	%eax, -284(%rbp)
	.loc	1 247 5 is_stmt 1               # ./needle.cu:247:5
	jmp	.LBB5_68
.Ltmp95:
.LBB5_64:                               # %if.else215
                                        #   in Loop: Header=BB5_52 Depth=1
	.loc	1 247 18 is_stmt 0              # ./needle.cu:247:18
	cmpl	$0, -272(%rbp)
.Ltmp96:
	.loc	1 247 16                        # ./needle.cu:247:16
	jne	.LBB5_66
# %bb.65:                               # %if.then217
                                        #   in Loop: Header=BB5_52 Depth=1
.Ltmp97:
	.loc	1 248 14 is_stmt 1              # ./needle.cu:248:14
	movl	$-999, -284(%rbp)               # imm = 0xFC19
	.loc	1 248 10 is_stmt 0              # ./needle.cu:248:10
	movl	$-999, -276(%rbp)               # imm = 0xFC19
	.loc	1 249 11 is_stmt 1              # ./needle.cu:249:11
	movq	-48(%rbp), %rax
	.loc	1 249 28 is_stmt 0              # ./needle.cu:249:28
	movl	-268(%rbp), %ecx
	.loc	1 249 30                        # ./needle.cu:249:30
	subl	$1, %ecx
	.loc	1 249 35                        # ./needle.cu:249:35
	imull	-24(%rbp), %ecx
	.loc	1 249 46                        # ./needle.cu:249:46
	addl	-272(%rbp), %ecx
	.loc	1 249 11                        # ./needle.cu:249:11
	movslq	%ecx, %rcx
	movl	(%rax,%rcx,4), %eax
	.loc	1 249 9                         # ./needle.cu:249:9
	movl	%eax, -280(%rbp)
	.loc	1 250 5 is_stmt 1               # ./needle.cu:250:5
	jmp	.LBB5_67
.Ltmp98:
.LBB5_66:                               # %if.else223
                                        #   in Loop: Header=BB5_52 Depth=1
	.loc	1 0 5 is_stmt 0                 # ./needle.cu:0:5
	jmp	.LBB5_67
.LBB5_67:                               # %if.end224
                                        #   in Loop: Header=BB5_52 Depth=1
	jmp	.LBB5_68
.LBB5_68:                               # %if.end225
                                        #   in Loop: Header=BB5_52 Depth=1
	jmp	.LBB5_69
.LBB5_69:                               # %if.end226
                                        #   in Loop: Header=BB5_52 Depth=1
	.loc	1 255 14 is_stmt 1              # ./needle.cu:255:14
	movl	-276(%rbp), %eax
	.loc	1 255 19 is_stmt 0              # ./needle.cu:255:19
	movq	-56(%rbp), %rcx
	.loc	1 255 30                        # ./needle.cu:255:30
	movl	-268(%rbp), %edx
	.loc	1 255 32                        # ./needle.cu:255:32
	imull	-24(%rbp), %edx
	.loc	1 255 43                        # ./needle.cu:255:43
	addl	-272(%rbp), %edx
	.loc	1 255 19                        # ./needle.cu:255:19
	movslq	%edx, %rdx
	.loc	1 255 17                        # ./needle.cu:255:17
	addl	(%rcx,%rdx,4), %eax
	.loc	1 255 12                        # ./needle.cu:255:12
	movl	%eax, -292(%rbp)
	.loc	1 256 13 is_stmt 1              # ./needle.cu:256:13
	movl	-284(%rbp), %eax
	.loc	1 256 15 is_stmt 0              # ./needle.cu:256:15
	subl	-28(%rbp), %eax
	.loc	1 256 11                        # ./needle.cu:256:11
	movl	%eax, -296(%rbp)
	.loc	1 257 13 is_stmt 1              # ./needle.cu:257:13
	movl	-280(%rbp), %eax
	.loc	1 257 15 is_stmt 0              # ./needle.cu:257:15
	subl	-28(%rbp), %eax
	.loc	1 257 11                        # ./needle.cu:257:11
	movl	%eax, -300(%rbp)
	.loc	1 259 25 is_stmt 1              # ./needle.cu:259:25
	movl	-292(%rbp), %edi
	.loc	1 259 33 is_stmt 0              # ./needle.cu:259:33
	movl	-296(%rbp), %esi
	.loc	1 259 40                        # ./needle.cu:259:40
	movl	-300(%rbp), %edx
	.loc	1 259 17                        # ./needle.cu:259:17
	callq	_Z7maximumiii
	.loc	1 259 15                        # ./needle.cu:259:15
	movl	%eax, -288(%rbp)
.Ltmp99:
	.loc	1 260 9 is_stmt 1               # ./needle.cu:260:9
	movl	-288(%rbp), %eax
	.loc	1 260 19 is_stmt 0              # ./needle.cu:260:19
	cmpl	-292(%rbp), %eax
.Ltmp100:
	.loc	1 260 9                         # ./needle.cu:260:9
	jne	.LBB5_71
# %bb.70:                               # %if.then236
                                        #   in Loop: Header=BB5_52 Depth=1
.Ltmp101:
	.loc	1 261 19 is_stmt 1              # ./needle.cu:261:19
	movl	-276(%rbp), %eax
	.loc	1 261 17 is_stmt 0              # ./needle.cu:261:17
	movl	%eax, -288(%rbp)
.Ltmp102:
.LBB5_71:                               # %if.end237
                                        #   in Loop: Header=BB5_52 Depth=1
	.loc	1 262 9 is_stmt 1               # ./needle.cu:262:9
	movl	-288(%rbp), %eax
	.loc	1 262 19 is_stmt 0              # ./needle.cu:262:19
	cmpl	-296(%rbp), %eax
.Ltmp103:
	.loc	1 262 9                         # ./needle.cu:262:9
	jne	.LBB5_73
# %bb.72:                               # %if.then239
                                        #   in Loop: Header=BB5_52 Depth=1
.Ltmp104:
	.loc	1 263 19 is_stmt 1              # ./needle.cu:263:19
	movl	-284(%rbp), %eax
	.loc	1 263 17 is_stmt 0              # ./needle.cu:263:17
	movl	%eax, -288(%rbp)
.Ltmp105:
.LBB5_73:                               # %if.end240
                                        #   in Loop: Header=BB5_52 Depth=1
	.loc	1 264 9 is_stmt 1               # ./needle.cu:264:9
	movl	-288(%rbp), %eax
	.loc	1 264 19 is_stmt 0              # ./needle.cu:264:19
	cmpl	-300(%rbp), %eax
.Ltmp106:
	.loc	1 264 9                         # ./needle.cu:264:9
	jne	.LBB5_75
# %bb.74:                               # %if.then242
                                        #   in Loop: Header=BB5_52 Depth=1
.Ltmp107:
	.loc	1 265 19 is_stmt 1              # ./needle.cu:265:19
	movl	-280(%rbp), %eax
	.loc	1 265 17 is_stmt 0              # ./needle.cu:265:17
	movl	%eax, -288(%rbp)
.Ltmp108:
.LBB5_75:                               # %if.end243
                                        #   in Loop: Header=BB5_52 Depth=1
	.loc	1 267 13 is_stmt 1              # ./needle.cu:267:13
	movq	-264(%rbp), %rdi
	.loc	1 267 25 is_stmt 0              # ./needle.cu:267:25
	movl	-288(%rbp), %edx
	.loc	1 267 5                         # ./needle.cu:267:5
	leaq	.L.str.12(%rip), %rsi
	movb	$0, %al
	callq	fprintf@PLT
.Ltmp109:
	.loc	1 269 9 is_stmt 1               # ./needle.cu:269:9
	movl	-288(%rbp), %eax
	.loc	1 269 19 is_stmt 0              # ./needle.cu:269:19
	cmpl	-276(%rbp), %eax
.Ltmp110:
	.loc	1 269 9                         # ./needle.cu:269:9
	jne	.LBB5_77
# %bb.76:                               # %if.then246
                                        #   in Loop: Header=BB5_52 Depth=1
.Ltmp111:
	.loc	1 270 8 is_stmt 1               # ./needle.cu:270:8
	movl	-268(%rbp), %eax
	addl	$-1, %eax
	movl	%eax, -268(%rbp)
	.loc	1 271 8                         # ./needle.cu:271:8
	movl	-272(%rbp), %eax
	addl	$-1, %eax
	movl	%eax, -272(%rbp)
	.loc	1 272 7                         # ./needle.cu:272:7
	jmp	.LBB5_52
.Ltmp112:
.LBB5_77:                               # %if.else249
                                        #   in Loop: Header=BB5_52 Depth=1
	.loc	1 275 14                        # ./needle.cu:275:14
	movl	-288(%rbp), %eax
	.loc	1 275 24 is_stmt 0              # ./needle.cu:275:24
	cmpl	-284(%rbp), %eax
.Ltmp113:
	.loc	1 275 14                        # ./needle.cu:275:14
	jne	.LBB5_79
# %bb.78:                               # %if.then251
                                        #   in Loop: Header=BB5_52 Depth=1
.Ltmp114:
	.loc	1 276 8 is_stmt 1               # ./needle.cu:276:8
	movl	-272(%rbp), %eax
	addl	$-1, %eax
	movl	%eax, -272(%rbp)
	.loc	1 277 7                         # ./needle.cu:277:7
	jmp	.LBB5_52
.Ltmp115:
.LBB5_79:                               # %if.else253
                                        #   in Loop: Header=BB5_52 Depth=1
	.loc	1 280 14                        # ./needle.cu:280:14
	movl	-288(%rbp), %eax
	.loc	1 280 24 is_stmt 0              # ./needle.cu:280:24
	cmpl	-280(%rbp), %eax
.Ltmp116:
	.loc	1 280 14                        # ./needle.cu:280:14
	jne	.LBB5_81
# %bb.80:                               # %if.then255
                                        #   in Loop: Header=BB5_52 Depth=1
.Ltmp117:
	.loc	1 281 8 is_stmt 1               # ./needle.cu:281:8
	movl	-268(%rbp), %eax
	addl	$-1, %eax
	movl	%eax, -268(%rbp)
	.loc	1 282 7                         # ./needle.cu:282:7
	jmp	.LBB5_52
.Ltmp118:
.LBB5_81:                               # %if.else257
                                        #   in Loop: Header=BB5_52 Depth=1
	.loc	1 0 7 is_stmt 0                 # ./needle.cu:0:7
	jmp	.LBB5_82
.LBB5_82:                               # %if.end258
                                        #   in Loop: Header=BB5_52 Depth=1
	jmp	.LBB5_83
.LBB5_83:                               # %if.end259
                                        #   in Loop: Header=BB5_52 Depth=1
	jmp	.LBB5_84
.LBB5_84:                               # %if.end260
                                        #   in Loop: Header=BB5_52 Depth=1
	.loc	1 233 3 is_stmt 1               # ./needle.cu:233:3
	jmp	.LBB5_52
.Ltmp119:
.LBB5_85:                               # %for.end261
	.loc	1 289 10                        # ./needle.cu:289:10
	movq	-264(%rbp), %rdi
	.loc	1 289 3 is_stmt 0               # ./needle.cu:289:3
	callq	fclose@PLT
	.loc	1 291 12 is_stmt 1              # ./needle.cu:291:12
	movq	-72(%rbp), %rdi
	.loc	1 291 3 is_stmt 0               # ./needle.cu:291:3
	callq	cudaFree@PLT
	.loc	1 292 12 is_stmt 1              # ./needle.cu:292:12
	movq	-64(%rbp), %rdi
	.loc	1 292 3 is_stmt 0               # ./needle.cu:292:3
	callq	cudaFree@PLT
	.loc	1 294 8 is_stmt 1               # ./needle.cu:294:8
	movq	-56(%rbp), %rdi
	.loc	1 294 3 is_stmt 0               # ./needle.cu:294:3
	callq	free@PLT
	.loc	1 295 8 is_stmt 1               # ./needle.cu:295:8
	movq	-40(%rbp), %rdi
	.loc	1 295 3 is_stmt 0               # ./needle.cu:295:3
	callq	free@PLT
	.loc	1 296 8 is_stmt 1               # ./needle.cu:296:8
	movq	-48(%rbp), %rdi
	.loc	1 296 3 is_stmt 0               # ./needle.cu:296:3
	callq	free@PLT
	.loc	1 301 1 epilogue_begin is_stmt 1 # ./needle.cu:301:1
	addq	$304, %rsp                      # imm = 0x130
	popq	%rbp
	.cfi_def_cfa %rsp, 8
	retq
.Ltmp120:
.Lfunc_end5:
	.size	_Z7runTestiPPc, .Lfunc_end5-_Z7runTestiPPc
	.cfi_endproc
                                        # -- End function
	.globl	_Z5usageiPPc                    # -- Begin function _Z5usageiPPc
	.p2align	4, 0x90
	.type	_Z5usageiPPc,@function
_Z5usageiPPc:                           # @_Z5usageiPPc
.Lfunc_begin6:
	.loc	1 112 0                         # ./needle.cu:112:0
	.cfi_startproc
# %bb.0:                                # %entry
	pushq	%rbp
	.cfi_def_cfa_offset 16
	.cfi_offset %rbp, -16
	movq	%rsp, %rbp
	.cfi_def_cfa_register %rbp
	subq	$16, %rsp
	movl	%edi, -4(%rbp)
	movq	%rsi, -16(%rbp)
.Ltmp121:
	.loc	1 113 11 prologue_end           # ./needle.cu:113:11
	movq	stderr@GOTPCREL(%rip), %rax
	movq	(%rax), %rdi
	.loc	1 113 65 is_stmt 0              # ./needle.cu:113:65
	movq	-16(%rbp), %rax
	movq	(%rax), %rdx
	.loc	1 113 3                         # ./needle.cu:113:3
	leaq	.L.str.1(%rip), %rsi
	movb	$0, %al
	callq	fprintf@PLT
	.loc	1 114 11 is_stmt 1              # ./needle.cu:114:11
	movq	stderr@GOTPCREL(%rip), %rax
	movq	(%rax), %rdi
	.loc	1 114 3 is_stmt 0               # ./needle.cu:114:3
	leaq	.L.str.2(%rip), %rsi
	movb	$0, %al
	callq	fprintf@PLT
	.loc	1 115 11 is_stmt 1              # ./needle.cu:115:11
	movq	stderr@GOTPCREL(%rip), %rax
	movq	(%rax), %rdi
	.loc	1 115 3 is_stmt 0               # ./needle.cu:115:3
	leaq	.L.str.3(%rip), %rsi
	movb	$0, %al
	callq	fprintf@PLT
	.loc	1 116 3 is_stmt 1               # ./needle.cu:116:3
	movl	$1, %edi
	callq	exit@PLT
.Ltmp122:
.Lfunc_end6:
	.size	_Z5usageiPPc, .Lfunc_end6-_Z5usageiPPc
	.cfi_endproc
                                        # -- End function
	.section	.text._ZN4dim3C2Ejjj,"axG",@progbits,_ZN4dim3C2Ejjj,comdat
	.weak	_ZN4dim3C2Ejjj                  # -- Begin function _ZN4dim3C2Ejjj
	.p2align	4, 0x90
	.type	_ZN4dim3C2Ejjj,@function
_ZN4dim3C2Ejjj:                         # @_ZN4dim3C2Ejjj
.Lfunc_begin7:
	.loc	4 423 0                         # cuda-12.1/include/vector_types.h:423:0
	.cfi_startproc
# %bb.0:                                # %entry
	pushq	%rbp
	.cfi_def_cfa_offset 16
	.cfi_offset %rbp, -16
	movq	%rsp, %rbp
	.cfi_def_cfa_register %rbp
	movq	%rdi, -8(%rbp)
	movl	%esi, -12(%rbp)
	movl	%edx, -16(%rbp)
	movl	%ecx, -20(%rbp)
	movq	-8(%rbp), %rax
.Ltmp123:
	.loc	4 423 133 prologue_end          # cuda-12.1/include/vector_types.h:423:133
	movl	-12(%rbp), %ecx
	.loc	4 423 131 is_stmt 0             # cuda-12.1/include/vector_types.h:423:131
	movl	%ecx, (%rax)
	.loc	4 423 140                       # cuda-12.1/include/vector_types.h:423:140
	movl	-16(%rbp), %ecx
	.loc	4 423 138                       # cuda-12.1/include/vector_types.h:423:138
	movl	%ecx, 4(%rax)
	.loc	4 423 147                       # cuda-12.1/include/vector_types.h:423:147
	movl	-20(%rbp), %ecx
	.loc	4 423 145                       # cuda-12.1/include/vector_types.h:423:145
	movl	%ecx, 8(%rax)
	.loc	4 423 152 epilogue_begin        # cuda-12.1/include/vector_types.h:423:152
	popq	%rbp
	.cfi_def_cfa %rsp, 8
	retq
.Ltmp124:
.Lfunc_end7:
	.size	_ZN4dim3C2Ejjj, .Lfunc_end7-_ZN4dim3C2Ejjj
	.cfi_endproc
                                        # -- End function
	.text
	.p2align	4, 0x90                         # -- Begin function __cuda_register_globals
	.type	__cuda_register_globals,@function
__cuda_register_globals:                # @__cuda_register_globals
.Lfunc_begin8:
	.cfi_startproc
# %bb.0:                                # %entry
	subq	$40, %rsp
	.cfi_def_cfa_offset 48
	movq	%rdi, 32(%rsp)                  # 8-byte Spill
	leaq	_Z35__device_stub__needle_cuda_shared_1PiS_iiii(%rip), %rsi
	leaq	.L__unnamed_1(%rip), %rcx
	movl	$4294967295, %r8d               # imm = 0xFFFFFFFF
	xorl	%eax, %eax
	movl	%eax, %r9d
	movq	%rcx, %rdx
	movq	$0, (%rsp)
	movq	$0, 8(%rsp)
	movq	$0, 16(%rsp)
	movq	$0, 24(%rsp)
	callq	__cudaRegisterFunction@PLT
	movq	32(%rsp), %rdi                  # 8-byte Reload
	leaq	_Z35__device_stub__needle_cuda_shared_2PiS_iiii(%rip), %rsi
	leaq	.L__unnamed_2(%rip), %rcx
	movl	$4294967295, %r8d               # imm = 0xFFFFFFFF
	xorl	%eax, %eax
	movl	%eax, %r9d
	movq	%rcx, %rdx
	movq	$0, (%rsp)
	movq	$0, 8(%rsp)
	movq	$0, 16(%rsp)
	movq	$0, 24(%rsp)
	callq	__cudaRegisterFunction@PLT
	addq	$40, %rsp
	.cfi_def_cfa_offset 8
	retq
.Lfunc_end8:
	.size	__cuda_register_globals, .Lfunc_end8-__cuda_register_globals
	.cfi_endproc
                                        # -- End function
	.p2align	4, 0x90                         # -- Begin function __cuda_module_ctor
	.type	__cuda_module_ctor,@function
__cuda_module_ctor:                     # @__cuda_module_ctor
.Lfunc_begin9:
	.cfi_startproc
# %bb.0:                                # %entry
	pushq	%rax
	.cfi_def_cfa_offset 16
	leaq	__cuda_fatbin_wrapper(%rip), %rdi
	callq	__cudaRegisterFatBinary@PLT
	movq	%rax, %rdi
	movq	%rdi, (%rsp)                    # 8-byte Spill
	movq	%rdi, __cuda_gpubin_handle(%rip)
	callq	__cuda_register_globals
	movq	(%rsp), %rdi                    # 8-byte Reload
	callq	__cudaRegisterFatBinaryEnd@PLT
	leaq	__cuda_module_dtor(%rip), %rdi
	callq	atexit@PLT
	popq	%rax
	.cfi_def_cfa_offset 8
	retq
.Lfunc_end9:
	.size	__cuda_module_ctor, .Lfunc_end9-__cuda_module_ctor
	.cfi_endproc
                                        # -- End function
	.p2align	4, 0x90                         # -- Begin function __cuda_module_dtor
	.type	__cuda_module_dtor,@function
__cuda_module_dtor:                     # @__cuda_module_dtor
.Lfunc_begin10:
	.cfi_startproc
# %bb.0:                                # %entry
	pushq	%rax
	.cfi_def_cfa_offset 16
	movq	__cuda_gpubin_handle(%rip), %rdi
	callq	__cudaUnregisterFatBinary@PLT
	popq	%rax
	.cfi_def_cfa_offset 8
	retq
.Lfunc_end10:
	.size	__cuda_module_dtor, .Lfunc_end10-__cuda_module_dtor
	.cfi_endproc
                                        # -- End function
	.type	blosum62,@object                # @blosum62
	.data
	.globl	blosum62
	.p2align	4, 0x0
blosum62:
	.long	4                               # 0x4
	.long	4294967295                      # 0xffffffff
	.long	4294967294                      # 0xfffffffe
	.long	4294967294                      # 0xfffffffe
	.long	0                               # 0x0
	.long	4294967295                      # 0xffffffff
	.long	4294967295                      # 0xffffffff
	.long	0                               # 0x0
	.long	4294967294                      # 0xfffffffe
	.long	4294967295                      # 0xffffffff
	.long	4294967295                      # 0xffffffff
	.long	4294967295                      # 0xffffffff
	.long	4294967295                      # 0xffffffff
	.long	4294967294                      # 0xfffffffe
	.long	4294967295                      # 0xffffffff
	.long	1                               # 0x1
	.long	0                               # 0x0
	.long	4294967293                      # 0xfffffffd
	.long	4294967294                      # 0xfffffffe
	.long	0                               # 0x0
	.long	4294967294                      # 0xfffffffe
	.long	4294967295                      # 0xffffffff
	.long	0                               # 0x0
	.long	4294967292                      # 0xfffffffc
	.long	4294967295                      # 0xffffffff
	.long	5                               # 0x5
	.long	0                               # 0x0
	.long	4294967294                      # 0xfffffffe
	.long	4294967293                      # 0xfffffffd
	.long	1                               # 0x1
	.long	0                               # 0x0
	.long	4294967294                      # 0xfffffffe
	.long	0                               # 0x0
	.long	4294967293                      # 0xfffffffd
	.long	4294967294                      # 0xfffffffe
	.long	2                               # 0x2
	.long	4294967295                      # 0xffffffff
	.long	4294967293                      # 0xfffffffd
	.long	4294967294                      # 0xfffffffe
	.long	4294967295                      # 0xffffffff
	.long	4294967295                      # 0xffffffff
	.long	4294967293                      # 0xfffffffd
	.long	4294967294                      # 0xfffffffe
	.long	4294967293                      # 0xfffffffd
	.long	4294967295                      # 0xffffffff
	.long	0                               # 0x0
	.long	4294967295                      # 0xffffffff
	.long	4294967292                      # 0xfffffffc
	.long	4294967294                      # 0xfffffffe
	.long	0                               # 0x0
	.long	6                               # 0x6
	.long	1                               # 0x1
	.long	4294967293                      # 0xfffffffd
	.long	0                               # 0x0
	.long	0                               # 0x0
	.long	0                               # 0x0
	.long	1                               # 0x1
	.long	4294967293                      # 0xfffffffd
	.long	4294967293                      # 0xfffffffd
	.long	0                               # 0x0
	.long	4294967294                      # 0xfffffffe
	.long	4294967293                      # 0xfffffffd
	.long	4294967294                      # 0xfffffffe
	.long	1                               # 0x1
	.long	0                               # 0x0
	.long	4294967292                      # 0xfffffffc
	.long	4294967294                      # 0xfffffffe
	.long	4294967293                      # 0xfffffffd
	.long	3                               # 0x3
	.long	0                               # 0x0
	.long	4294967295                      # 0xffffffff
	.long	4294967292                      # 0xfffffffc
	.long	4294967294                      # 0xfffffffe
	.long	4294967294                      # 0xfffffffe
	.long	1                               # 0x1
	.long	6                               # 0x6
	.long	4294967293                      # 0xfffffffd
	.long	0                               # 0x0
	.long	2                               # 0x2
	.long	4294967295                      # 0xffffffff
	.long	4294967295                      # 0xffffffff
	.long	4294967293                      # 0xfffffffd
	.long	4294967292                      # 0xfffffffc
	.long	4294967295                      # 0xffffffff
	.long	4294967293                      # 0xfffffffd
	.long	4294967293                      # 0xfffffffd
	.long	4294967295                      # 0xffffffff
	.long	0                               # 0x0
	.long	4294967295                      # 0xffffffff
	.long	4294967292                      # 0xfffffffc
	.long	4294967293                      # 0xfffffffd
	.long	4294967293                      # 0xfffffffd
	.long	4                               # 0x4
	.long	1                               # 0x1
	.long	4294967295                      # 0xffffffff
	.long	4294967292                      # 0xfffffffc
	.long	0                               # 0x0
	.long	4294967293                      # 0xfffffffd
	.long	4294967293                      # 0xfffffffd
	.long	4294967293                      # 0xfffffffd
	.long	9                               # 0x9
	.long	4294967293                      # 0xfffffffd
	.long	4294967292                      # 0xfffffffc
	.long	4294967293                      # 0xfffffffd
	.long	4294967293                      # 0xfffffffd
	.long	4294967295                      # 0xffffffff
	.long	4294967295                      # 0xffffffff
	.long	4294967293                      # 0xfffffffd
	.long	4294967295                      # 0xffffffff
	.long	4294967294                      # 0xfffffffe
	.long	4294967293                      # 0xfffffffd
	.long	4294967295                      # 0xffffffff
	.long	4294967295                      # 0xffffffff
	.long	4294967294                      # 0xfffffffe
	.long	4294967294                      # 0xfffffffe
	.long	4294967295                      # 0xffffffff
	.long	4294967293                      # 0xfffffffd
	.long	4294967293                      # 0xfffffffd
	.long	4294967294                      # 0xfffffffe
	.long	4294967292                      # 0xfffffffc
	.long	4294967295                      # 0xffffffff
	.long	1                               # 0x1
	.long	0                               # 0x0
	.long	0                               # 0x0
	.long	4294967293                      # 0xfffffffd
	.long	5                               # 0x5
	.long	2                               # 0x2
	.long	4294967294                      # 0xfffffffe
	.long	0                               # 0x0
	.long	4294967293                      # 0xfffffffd
	.long	4294967294                      # 0xfffffffe
	.long	1                               # 0x1
	.long	0                               # 0x0
	.long	4294967293                      # 0xfffffffd
	.long	4294967295                      # 0xffffffff
	.long	0                               # 0x0
	.long	4294967295                      # 0xffffffff
	.long	4294967294                      # 0xfffffffe
	.long	4294967295                      # 0xffffffff
	.long	4294967294                      # 0xfffffffe
	.long	0                               # 0x0
	.long	3                               # 0x3
	.long	4294967295                      # 0xffffffff
	.long	4294967292                      # 0xfffffffc
	.long	4294967295                      # 0xffffffff
	.long	0                               # 0x0
	.long	0                               # 0x0
	.long	2                               # 0x2
	.long	4294967292                      # 0xfffffffc
	.long	2                               # 0x2
	.long	5                               # 0x5
	.long	4294967294                      # 0xfffffffe
	.long	0                               # 0x0
	.long	4294967293                      # 0xfffffffd
	.long	4294967293                      # 0xfffffffd
	.long	1                               # 0x1
	.long	4294967294                      # 0xfffffffe
	.long	4294967293                      # 0xfffffffd
	.long	4294967295                      # 0xffffffff
	.long	0                               # 0x0
	.long	4294967295                      # 0xffffffff
	.long	4294967293                      # 0xfffffffd
	.long	4294967294                      # 0xfffffffe
	.long	4294967294                      # 0xfffffffe
	.long	1                               # 0x1
	.long	4                               # 0x4
	.long	4294967295                      # 0xffffffff
	.long	4294967292                      # 0xfffffffc
	.long	0                               # 0x0
	.long	4294967294                      # 0xfffffffe
	.long	0                               # 0x0
	.long	4294967295                      # 0xffffffff
	.long	4294967293                      # 0xfffffffd
	.long	4294967294                      # 0xfffffffe
	.long	4294967294                      # 0xfffffffe
	.long	6                               # 0x6
	.long	4294967294                      # 0xfffffffe
	.long	4294967292                      # 0xfffffffc
	.long	4294967292                      # 0xfffffffc
	.long	4294967294                      # 0xfffffffe
	.long	4294967293                      # 0xfffffffd
	.long	4294967293                      # 0xfffffffd
	.long	4294967294                      # 0xfffffffe
	.long	0                               # 0x0
	.long	4294967294                      # 0xfffffffe
	.long	4294967294                      # 0xfffffffe
	.long	4294967293                      # 0xfffffffd
	.long	4294967293                      # 0xfffffffd
	.long	4294967295                      # 0xffffffff
	.long	4294967294                      # 0xfffffffe
	.long	4294967295                      # 0xffffffff
	.long	4294967292                      # 0xfffffffc
	.long	4294967294                      # 0xfffffffe
	.long	0                               # 0x0
	.long	1                               # 0x1
	.long	4294967295                      # 0xffffffff
	.long	4294967293                      # 0xfffffffd
	.long	0                               # 0x0
	.long	0                               # 0x0
	.long	4294967294                      # 0xfffffffe
	.long	8                               # 0x8
	.long	4294967293                      # 0xfffffffd
	.long	4294967293                      # 0xfffffffd
	.long	4294967295                      # 0xffffffff
	.long	4294967294                      # 0xfffffffe
	.long	4294967295                      # 0xffffffff
	.long	4294967294                      # 0xfffffffe
	.long	4294967295                      # 0xffffffff
	.long	4294967294                      # 0xfffffffe
	.long	4294967294                      # 0xfffffffe
	.long	2                               # 0x2
	.long	4294967293                      # 0xfffffffd
	.long	0                               # 0x0
	.long	0                               # 0x0
	.long	4294967295                      # 0xffffffff
	.long	4294967292                      # 0xfffffffc
	.long	4294967295                      # 0xffffffff
	.long	4294967293                      # 0xfffffffd
	.long	4294967293                      # 0xfffffffd
	.long	4294967293                      # 0xfffffffd
	.long	4294967295                      # 0xffffffff
	.long	4294967293                      # 0xfffffffd
	.long	4294967293                      # 0xfffffffd
	.long	4294967292                      # 0xfffffffc
	.long	4294967293                      # 0xfffffffd
	.long	4                               # 0x4
	.long	2                               # 0x2
	.long	4294967293                      # 0xfffffffd
	.long	1                               # 0x1
	.long	0                               # 0x0
	.long	4294967293                      # 0xfffffffd
	.long	4294967294                      # 0xfffffffe
	.long	4294967295                      # 0xffffffff
	.long	4294967293                      # 0xfffffffd
	.long	4294967295                      # 0xffffffff
	.long	3                               # 0x3
	.long	4294967293                      # 0xfffffffd
	.long	4294967293                      # 0xfffffffd
	.long	4294967295                      # 0xffffffff
	.long	4294967292                      # 0xfffffffc
	.long	4294967295                      # 0xffffffff
	.long	4294967294                      # 0xfffffffe
	.long	4294967293                      # 0xfffffffd
	.long	4294967292                      # 0xfffffffc
	.long	4294967295                      # 0xffffffff
	.long	4294967294                      # 0xfffffffe
	.long	4294967293                      # 0xfffffffd
	.long	4294967292                      # 0xfffffffc
	.long	4294967293                      # 0xfffffffd
	.long	2                               # 0x2
	.long	4                               # 0x4
	.long	4294967294                      # 0xfffffffe
	.long	2                               # 0x2
	.long	0                               # 0x0
	.long	4294967293                      # 0xfffffffd
	.long	4294967294                      # 0xfffffffe
	.long	4294967295                      # 0xffffffff
	.long	4294967294                      # 0xfffffffe
	.long	4294967295                      # 0xffffffff
	.long	1                               # 0x1
	.long	4294967292                      # 0xfffffffc
	.long	4294967293                      # 0xfffffffd
	.long	4294967295                      # 0xffffffff
	.long	4294967292                      # 0xfffffffc
	.long	4294967295                      # 0xffffffff
	.long	2                               # 0x2
	.long	0                               # 0x0
	.long	4294967295                      # 0xffffffff
	.long	4294967293                      # 0xfffffffd
	.long	1                               # 0x1
	.long	1                               # 0x1
	.long	4294967294                      # 0xfffffffe
	.long	4294967295                      # 0xffffffff
	.long	4294967293                      # 0xfffffffd
	.long	4294967294                      # 0xfffffffe
	.long	5                               # 0x5
	.long	4294967295                      # 0xffffffff
	.long	4294967293                      # 0xfffffffd
	.long	4294967295                      # 0xffffffff
	.long	0                               # 0x0
	.long	4294967295                      # 0xffffffff
	.long	4294967293                      # 0xfffffffd
	.long	4294967294                      # 0xfffffffe
	.long	4294967294                      # 0xfffffffe
	.long	0                               # 0x0
	.long	1                               # 0x1
	.long	4294967295                      # 0xffffffff
	.long	4294967292                      # 0xfffffffc
	.long	4294967295                      # 0xffffffff
	.long	4294967295                      # 0xffffffff
	.long	4294967294                      # 0xfffffffe
	.long	4294967293                      # 0xfffffffd
	.long	4294967295                      # 0xffffffff
	.long	0                               # 0x0
	.long	4294967294                      # 0xfffffffe
	.long	4294967293                      # 0xfffffffd
	.long	4294967294                      # 0xfffffffe
	.long	1                               # 0x1
	.long	2                               # 0x2
	.long	4294967295                      # 0xffffffff
	.long	5                               # 0x5
	.long	0                               # 0x0
	.long	4294967294                      # 0xfffffffe
	.long	4294967295                      # 0xffffffff
	.long	4294967295                      # 0xffffffff
	.long	4294967295                      # 0xffffffff
	.long	4294967295                      # 0xffffffff
	.long	1                               # 0x1
	.long	4294967293                      # 0xfffffffd
	.long	4294967295                      # 0xffffffff
	.long	4294967295                      # 0xffffffff
	.long	4294967292                      # 0xfffffffc
	.long	4294967294                      # 0xfffffffe
	.long	4294967293                      # 0xfffffffd
	.long	4294967293                      # 0xfffffffd
	.long	4294967293                      # 0xfffffffd
	.long	4294967294                      # 0xfffffffe
	.long	4294967293                      # 0xfffffffd
	.long	4294967293                      # 0xfffffffd
	.long	4294967293                      # 0xfffffffd
	.long	4294967295                      # 0xffffffff
	.long	0                               # 0x0
	.long	0                               # 0x0
	.long	4294967293                      # 0xfffffffd
	.long	0                               # 0x0
	.long	6                               # 0x6
	.long	4294967292                      # 0xfffffffc
	.long	4294967294                      # 0xfffffffe
	.long	4294967294                      # 0xfffffffe
	.long	1                               # 0x1
	.long	3                               # 0x3
	.long	4294967295                      # 0xffffffff
	.long	4294967293                      # 0xfffffffd
	.long	4294967293                      # 0xfffffffd
	.long	4294967295                      # 0xffffffff
	.long	4294967292                      # 0xfffffffc
	.long	4294967295                      # 0xffffffff
	.long	4294967294                      # 0xfffffffe
	.long	4294967294                      # 0xfffffffe
	.long	4294967295                      # 0xffffffff
	.long	4294967293                      # 0xfffffffd
	.long	4294967295                      # 0xffffffff
	.long	4294967295                      # 0xffffffff
	.long	4294967294                      # 0xfffffffe
	.long	4294967294                      # 0xfffffffe
	.long	4294967293                      # 0xfffffffd
	.long	4294967293                      # 0xfffffffd
	.long	4294967295                      # 0xffffffff
	.long	4294967294                      # 0xfffffffe
	.long	4294967292                      # 0xfffffffc
	.long	7                               # 0x7
	.long	4294967295                      # 0xffffffff
	.long	4294967295                      # 0xffffffff
	.long	4294967292                      # 0xfffffffc
	.long	4294967293                      # 0xfffffffd
	.long	4294967294                      # 0xfffffffe
	.long	4294967294                      # 0xfffffffe
	.long	4294967295                      # 0xffffffff
	.long	4294967294                      # 0xfffffffe
	.long	4294967292                      # 0xfffffffc
	.long	1                               # 0x1
	.long	4294967295                      # 0xffffffff
	.long	1                               # 0x1
	.long	0                               # 0x0
	.long	4294967295                      # 0xffffffff
	.long	0                               # 0x0
	.long	0                               # 0x0
	.long	0                               # 0x0
	.long	4294967295                      # 0xffffffff
	.long	4294967294                      # 0xfffffffe
	.long	4294967294                      # 0xfffffffe
	.long	0                               # 0x0
	.long	4294967295                      # 0xffffffff
	.long	4294967294                      # 0xfffffffe
	.long	4294967295                      # 0xffffffff
	.long	4                               # 0x4
	.long	1                               # 0x1
	.long	4294967293                      # 0xfffffffd
	.long	4294967294                      # 0xfffffffe
	.long	4294967294                      # 0xfffffffe
	.long	0                               # 0x0
	.long	0                               # 0x0
	.long	0                               # 0x0
	.long	4294967292                      # 0xfffffffc
	.long	0                               # 0x0
	.long	4294967295                      # 0xffffffff
	.long	0                               # 0x0
	.long	4294967295                      # 0xffffffff
	.long	4294967295                      # 0xffffffff
	.long	4294967295                      # 0xffffffff
	.long	4294967295                      # 0xffffffff
	.long	4294967294                      # 0xfffffffe
	.long	4294967294                      # 0xfffffffe
	.long	4294967295                      # 0xffffffff
	.long	4294967295                      # 0xffffffff
	.long	4294967295                      # 0xffffffff
	.long	4294967295                      # 0xffffffff
	.long	4294967294                      # 0xfffffffe
	.long	4294967295                      # 0xffffffff
	.long	1                               # 0x1
	.long	5                               # 0x5
	.long	4294967294                      # 0xfffffffe
	.long	4294967294                      # 0xfffffffe
	.long	0                               # 0x0
	.long	4294967295                      # 0xffffffff
	.long	4294967295                      # 0xffffffff
	.long	0                               # 0x0
	.long	4294967292                      # 0xfffffffc
	.long	4294967293                      # 0xfffffffd
	.long	4294967293                      # 0xfffffffd
	.long	4294967292                      # 0xfffffffc
	.long	4294967292                      # 0xfffffffc
	.long	4294967294                      # 0xfffffffe
	.long	4294967294                      # 0xfffffffe
	.long	4294967293                      # 0xfffffffd
	.long	4294967294                      # 0xfffffffe
	.long	4294967294                      # 0xfffffffe
	.long	4294967293                      # 0xfffffffd
	.long	4294967294                      # 0xfffffffe
	.long	4294967293                      # 0xfffffffd
	.long	4294967295                      # 0xffffffff
	.long	1                               # 0x1
	.long	4294967292                      # 0xfffffffc
	.long	4294967293                      # 0xfffffffd
	.long	4294967294                      # 0xfffffffe
	.long	11                              # 0xb
	.long	2                               # 0x2
	.long	4294967293                      # 0xfffffffd
	.long	4294967292                      # 0xfffffffc
	.long	4294967293                      # 0xfffffffd
	.long	4294967294                      # 0xfffffffe
	.long	4294967292                      # 0xfffffffc
	.long	4294967294                      # 0xfffffffe
	.long	4294967294                      # 0xfffffffe
	.long	4294967294                      # 0xfffffffe
	.long	4294967293                      # 0xfffffffd
	.long	4294967294                      # 0xfffffffe
	.long	4294967295                      # 0xffffffff
	.long	4294967294                      # 0xfffffffe
	.long	4294967293                      # 0xfffffffd
	.long	2                               # 0x2
	.long	4294967295                      # 0xffffffff
	.long	4294967295                      # 0xffffffff
	.long	4294967294                      # 0xfffffffe
	.long	4294967295                      # 0xffffffff
	.long	3                               # 0x3
	.long	4294967293                      # 0xfffffffd
	.long	4294967294                      # 0xfffffffe
	.long	4294967294                      # 0xfffffffe
	.long	2                               # 0x2
	.long	7                               # 0x7
	.long	4294967295                      # 0xffffffff
	.long	4294967293                      # 0xfffffffd
	.long	4294967294                      # 0xfffffffe
	.long	4294967295                      # 0xffffffff
	.long	4294967292                      # 0xfffffffc
	.long	0                               # 0x0
	.long	4294967293                      # 0xfffffffd
	.long	4294967293                      # 0xfffffffd
	.long	4294967293                      # 0xfffffffd
	.long	4294967295                      # 0xffffffff
	.long	4294967294                      # 0xfffffffe
	.long	4294967294                      # 0xfffffffe
	.long	4294967293                      # 0xfffffffd
	.long	4294967293                      # 0xfffffffd
	.long	3                               # 0x3
	.long	1                               # 0x1
	.long	4294967294                      # 0xfffffffe
	.long	1                               # 0x1
	.long	4294967295                      # 0xffffffff
	.long	4294967294                      # 0xfffffffe
	.long	4294967294                      # 0xfffffffe
	.long	0                               # 0x0
	.long	4294967293                      # 0xfffffffd
	.long	4294967295                      # 0xffffffff
	.long	4                               # 0x4
	.long	4294967293                      # 0xfffffffd
	.long	4294967294                      # 0xfffffffe
	.long	4294967295                      # 0xffffffff
	.long	4294967292                      # 0xfffffffc
	.long	4294967294                      # 0xfffffffe
	.long	4294967295                      # 0xffffffff
	.long	3                               # 0x3
	.long	4                               # 0x4
	.long	4294967293                      # 0xfffffffd
	.long	0                               # 0x0
	.long	1                               # 0x1
	.long	4294967295                      # 0xffffffff
	.long	0                               # 0x0
	.long	4294967293                      # 0xfffffffd
	.long	4294967292                      # 0xfffffffc
	.long	0                               # 0x0
	.long	4294967293                      # 0xfffffffd
	.long	4294967293                      # 0xfffffffd
	.long	4294967294                      # 0xfffffffe
	.long	0                               # 0x0
	.long	4294967295                      # 0xffffffff
	.long	4294967292                      # 0xfffffffc
	.long	4294967293                      # 0xfffffffd
	.long	4294967293                      # 0xfffffffd
	.long	4                               # 0x4
	.long	1                               # 0x1
	.long	4294967295                      # 0xffffffff
	.long	4294967292                      # 0xfffffffc
	.long	4294967295                      # 0xffffffff
	.long	0                               # 0x0
	.long	0                               # 0x0
	.long	1                               # 0x1
	.long	4294967293                      # 0xfffffffd
	.long	3                               # 0x3
	.long	4                               # 0x4
	.long	4294967294                      # 0xfffffffe
	.long	0                               # 0x0
	.long	4294967293                      # 0xfffffffd
	.long	4294967293                      # 0xfffffffd
	.long	1                               # 0x1
	.long	4294967295                      # 0xffffffff
	.long	4294967293                      # 0xfffffffd
	.long	4294967295                      # 0xffffffff
	.long	0                               # 0x0
	.long	4294967295                      # 0xffffffff
	.long	4294967293                      # 0xfffffffd
	.long	4294967294                      # 0xfffffffe
	.long	4294967294                      # 0xfffffffe
	.long	1                               # 0x1
	.long	4                               # 0x4
	.long	4294967295                      # 0xffffffff
	.long	4294967292                      # 0xfffffffc
	.long	0                               # 0x0
	.long	4294967295                      # 0xffffffff
	.long	4294967295                      # 0xffffffff
	.long	4294967295                      # 0xffffffff
	.long	4294967294                      # 0xfffffffe
	.long	4294967295                      # 0xffffffff
	.long	4294967295                      # 0xffffffff
	.long	4294967295                      # 0xffffffff
	.long	4294967295                      # 0xffffffff
	.long	4294967295                      # 0xffffffff
	.long	4294967295                      # 0xffffffff
	.long	4294967295                      # 0xffffffff
	.long	4294967295                      # 0xffffffff
	.long	4294967295                      # 0xffffffff
	.long	4294967294                      # 0xfffffffe
	.long	0                               # 0x0
	.long	0                               # 0x0
	.long	4294967294                      # 0xfffffffe
	.long	4294967295                      # 0xffffffff
	.long	4294967295                      # 0xffffffff
	.long	4294967295                      # 0xffffffff
	.long	4294967295                      # 0xffffffff
	.long	4294967295                      # 0xffffffff
	.long	4294967292                      # 0xfffffffc
	.long	4294967292                      # 0xfffffffc
	.long	4294967292                      # 0xfffffffc
	.long	4294967292                      # 0xfffffffc
	.long	4294967292                      # 0xfffffffc
	.long	4294967292                      # 0xfffffffc
	.long	4294967292                      # 0xfffffffc
	.long	4294967292                      # 0xfffffffc
	.long	4294967292                      # 0xfffffffc
	.long	4294967292                      # 0xfffffffc
	.long	4294967292                      # 0xfffffffc
	.long	4294967292                      # 0xfffffffc
	.long	4294967292                      # 0xfffffffc
	.long	4294967292                      # 0xfffffffc
	.long	4294967292                      # 0xfffffffc
	.long	4294967292                      # 0xfffffffc
	.long	4294967292                      # 0xfffffffc
	.long	4294967292                      # 0xfffffffc
	.long	4294967292                      # 0xfffffffc
	.long	4294967292                      # 0xfffffffc
	.long	4294967292                      # 0xfffffffc
	.long	4294967292                      # 0xfffffffc
	.long	4294967292                      # 0xfffffffc
	.long	4294967292                      # 0xfffffffc
	.long	1                               # 0x1
	.size	blosum62, 2304

	.type	.L.str,@object                  # @.str
	.section	.rodata.str1.1,"aMS",@progbits,1
.L.str:
	.asciz	"WG size of kernel = %d \n"
	.size	.L.str, 25

	.type	.L.str.1,@object                # @.str.1
.L.str.1:
	.asciz	"Usage: %s <max_rows/max_cols> <penalty> \n"
	.size	.L.str.1, 42

	.type	.L.str.2,@object                # @.str.2
.L.str.2:
	.asciz	"\t<dimension>  - x and y dimensions\n"
	.size	.L.str.2, 36

	.type	.L.str.3,@object                # @.str.3
.L.str.3:
	.asciz	"\t<penalty> - penalty(positive integer)\n"
	.size	.L.str.3, 40

	.type	.L.str.4,@object                # @.str.4
.L.str.4:
	.asciz	"The dimension values must be a multiple of 16\n"
	.size	.L.str.4, 47

	.type	.L.str.5,@object                # @.str.5
.L.str.5:
	.asciz	"error: can not allocate memory"
	.size	.L.str.5, 31

	.type	.L.str.6,@object                # @.str.6
.L.str.6:
	.asciz	"Start Needleman-Wunsch\n"
	.size	.L.str.6, 24

	.type	.L.str.7,@object                # @.str.7
.L.str.7:
	.asciz	"Processing top-left matrix\n"
	.size	.L.str.7, 28

	.type	.L.str.8,@object                # @.str.8
.L.str.8:
	.asciz	"Processing bottom-right matrix\n"
	.size	.L.str.8, 32

	.type	.L.str.9,@object                # @.str.9
.L.str.9:
	.asciz	"result_vortex.txt"
	.size	.L.str.9, 18

	.type	.L.str.10,@object               # @.str.10
.L.str.10:
	.asciz	"w"
	.size	.L.str.10, 2

	.type	.L.str.11,@object               # @.str.11
.L.str.11:
	.asciz	"print traceback value GPU:\n"
	.size	.L.str.11, 28

	.type	.L.str.12,@object               # @.str.12
.L.str.12:
	.asciz	"%d "
	.size	.L.str.12, 4

	.type	.L__unnamed_1,@object           # @0
.L__unnamed_1:
	.asciz	"_Z20needle_cuda_shared_1PiS_iiii"
	.size	.L__unnamed_1, 33

	.type	.L__unnamed_2,@object           # @1
.L__unnamed_2:
	.asciz	"_Z20needle_cuda_shared_2PiS_iiii"
	.size	.L__unnamed_2, 33

	.type	.L__unnamed_3,@object           # @2
	.section	.nv_fatbin,"a",@progbits
	.p2align	3, 0x0
.L__unnamed_3:
