
kernel.elf:	file format elf64-littleriscv

Disassembly of section .init:

0000000080000000 <_start>:
80000000: f3 22 10 fc  	csrr	t0, nw
80000004: 17 03 00 00  	auipc	t1, 0x0
80000008: 13 03 03 44  	addi	t1, t1, 0x440
8000000c: 0b 90 62 00  	vx_wspawn	t0, t1
80000010: 93 02 f0 ff  	li	t0, -0x1
80000014: 0b 80 02 00  	vx_tmc	t0
80000018: ef 00 80 3e  	jal	0x80000400 <init_regs>
8000001c: 93 02 10 00  	li	t0, 0x1
80000020: 0b 80 02 00  	vx_tmc	t0
80000024: f3 22 10 fc  	csrr	t0, nw
80000028: 17 03 00 00  	auipc	t1, 0x0
8000002c: 13 03 03 43  	addi	t1, t1, 0x430
80000030: 0b 90 62 00  	vx_wspawn	t0, t1
80000034: 93 02 f0 ff  	li	t0, -0x1
80000038: 0b 80 02 00  	vx_tmc	t0
8000003c: ef 00 00 43  	jal	0x8000046c <__init_tls>
80000040: 93 02 10 00  	li	t0, 0x1
80000044: 0b 80 02 00  	vx_tmc	t0
80000048: 17 45 00 00  	auipc	a0, 0x4
8000004c: 13 05 05 23  	addi	a0, a0, 0x230
80000050: 17 46 00 00  	auipc	a2, 0x4
80000054: 13 06 06 27  	addi	a2, a2, 0x270
80000058: 33 06 a6 40  	sub	a2, a2, a0
8000005c: 93 05 00 00  	li	a1, 0x0
80000060: ef 20 90 49  	jal	0x80002cf8 <memset>
80000064: ef 00 c0 44  	jal	0x800004b0 <__libc_init_array>
80000068: ef 00 00 08  	jal	0x800000e8 <main>
8000006c: 6f 00 40 00  	j	0x80000070 <exit>

Disassembly of section .text:

0000000080000070 <exit>:
80000070: 13 01 01 ff  	addi	sp, sp, -0x10
80000074: 23 34 11 00  	sd	ra, 0x8(sp)
80000078: 23 30 81 00  	sd	s0, 0x0(sp)
8000007c: 13 04 05 00  	mv	s0, a0
80000080: ef 00 40 4c  	jal	0x80000544 <__funcs_on_exit>
80000084: ef 20 40 6c  	jal	0x80002748 <libc_exit_fini>
80000088: ef 20 c0 6b  	jal	0x80002744 <dummy>
8000008c: 13 05 04 00  	mv	a0, s0
80000090: ef 00 c0 35  	jal	0x800003ec <_Exit>

0000000080000094 <vx_barrier>:
80000094: 0b 40 b5 00  	vx_bar	a0, a1
80000098: 67 80 00 00  	ret

000000008000009c <_Z56cuda_spmv_jds_naive_kernelPfPKfPKiS3_S1_iS3_S3_i_wrapperPv>:
8000009c: 97 45 00 00  	auipc	a1, 0x4
800000a0: 83 b5 c5 11  	ld	a1, 0x11c(a1)
800000a4: b3 85 45 00  	add	a1, a1, tp
800000a8: 03 a6 05 00  	lw	a2, 0x0(a1)
800000ac: 23 20 c2 00  	sw	a2, 0x0(tp)
800000b0: 03 a6 45 00  	lw	a2, 0x4(a1)
800000b4: 23 22 c2 00  	sw	a2, 0x4(tp)
800000b8: 83 a5 85 00  	lw	a1, 0x8(a1)
800000bc: 17 46 00 00  	auipc	a2, 0x4
800000c0: 03 36 46 0f  	ld	a2, 0xf4(a2)
800000c4: 23 24 b2 00  	sw	a1, 0x8(tp)
800000c8: 33 06 46 00  	add	a2, a2, tp
800000cc: 83 25 06 00  	lw	a1, 0x0(a2)
800000d0: 23 26 b2 00  	sw	a1, 0xc(tp)
800000d4: 83 25 46 00  	lw	a1, 0x4(a2)
800000d8: 23 28 b2 00  	sw	a1, 0x10(tp)
800000dc: 83 25 86 00  	lw	a1, 0x8(a2)
800000e0: 23 2a b2 00  	sw	a1, 0x14(tp)
800000e4: 6f 00 40 2c  	j	0x800003a8 <spmv_jds_naive_kernelPfPKfPKiS3_S1_iS3_S3_i_wrapper>

00000000800000e8 <main>:
800000e8: 13 01 01 fc  	addi	sp, sp, -0x40
800000ec: 23 3c 11 02  	sd	ra, 0x38(sp)
800000f0: 23 38 81 02  	sd	s0, 0x30(sp)
800000f4: 23 34 91 02  	sd	s1, 0x28(sp)
800000f8: 23 30 21 03  	sd	s2, 0x20(sp)
800000fc: 23 3c 31 01  	sd	s3, 0x18(sp)
80000100: 23 38 41 01  	sd	s4, 0x10(sp)
80000104: 23 34 51 01  	sd	s5, 0x8(sp)
80000108: 73 24 00 34  	csrr	s0, mscratch
8000010c: 03 2a 44 04  	lw	s4, 0x44(s0)
80000110: 93 04 84 04  	addi	s1, s0, 0x48
80000114: 13 1a 3a 00  	slli	s4, s4, 0x3
80000118: 03 25 04 00  	lw	a0, 0x0(s0)
8000011c: b3 89 44 01  	add	s3, s1, s4
80000120: 97 45 00 00  	auipc	a1, 0x4
80000124: 03 26 44 00  	lw	a2, 0x4(s0)
80000128: 23 ac a5 14  	sw	a0, 0x158(a1)
8000012c: 03 25 84 00  	lw	a0, 0x8(s0)
80000130: 97 45 00 00  	auipc	a1, 0x4
80000134: 23 a6 c5 14  	sw	a2, 0x14c(a1)
80000138: 97 45 00 00  	auipc	a1, 0x4
8000013c: 23 a4 a5 14  	sw	a0, 0x148(a1)
80000140: 03 25 84 01  	lw	a0, 0x18(s0)
80000144: 13 09 84 01  	addi	s2, s0, 0x18
80000148: 97 45 00 00  	auipc	a1, 0x4
8000014c: 03 26 04 02  	lw	a2, 0x20(s0)
80000150: 23 ae a5 12  	sw	a0, 0x13c(a1)
80000154: 97 45 00 00  	auipc	a1, 0x4
80000158: 83 26 c4 03  	lw	a3, 0x3c(s0)
8000015c: 23 ac c5 12  	sw	a2, 0x138(a1)
80000160: 03 26 c4 01  	lw	a2, 0x1c(s0)
80000164: 97 45 00 00  	auipc	a1, 0x4
80000168: 23 a8 d5 12  	sw	a3, 0x130(a1)
8000016c: 97 46 00 00  	auipc	a3, 0x4
80000170: 83 b5 09 00  	ld	a1, 0x0(s3)
80000174: 23 ae c6 10  	sw	a2, 0x11c(a3)
80000178: 33 05 a6 02  	mul	a0, a2, a0
8000017c: 17 46 00 00  	auipc	a2, 0x4
80000180: 23 2a a6 10  	sw	a0, 0x114(a2)
80000184: 63 82 05 04  	beqz	a1, 0x800001c8 <main+0xe0>
80000188: 17 35 00 00  	auipc	a0, 0x3
8000018c: 13 05 05 d3  	addi	a0, a0, -0x2d0
80000190: ef 00 c0 45  	jal	0x800005ec <vx_printf>
80000194: 03 b5 09 00  	ld	a0, 0x0(s3)
80000198: 63 08 05 02  	beqz	a0, 0x800001c8 <main+0xe0>
8000019c: 93 0a 00 00  	li	s5, 0x0
800001a0: 33 0a 8a 00  	add	s4, s4, s0
800001a4: 13 0a 0a 06  	addi	s4, s4, 0x60
800001a8: 03 35 0a ff  	ld	a0, -0x10(s4)
800001ac: 83 35 8a ff  	ld	a1, -0x8(s4)
800001b0: 03 36 0a 00  	ld	a2, 0x0(s4)
800001b4: ef 20 80 5f  	jal	0x800027ac <memcpy>
800001b8: 03 b5 09 00  	ld	a0, 0x0(s3)
800001bc: 93 8a 1a 00  	addi	s5, s5, 0x1
800001c0: 13 0a 8a 01  	addi	s4, s4, 0x18
800001c4: e3 e2 aa fe  	bltu	s5, a0, 0x800001a8 <main+0xc0>
800001c8: 03 25 04 04  	lw	a0, 0x40(s0)
800001cc: 13 15 35 00  	slli	a0, a0, 0x3
800001d0: 97 45 00 00  	auipc	a1, 0x4
800001d4: 93 85 05 0a  	addi	a1, a1, 0xa0
800001d8: 33 85 a5 00  	add	a0, a1, a0
800001dc: 83 36 05 00  	ld	a3, 0x0(a0)
800001e0: 13 05 30 00  	li	a0, 0x3
800001e4: 93 05 04 00  	mv	a1, s0
800001e8: 13 06 09 00  	mv	a2, s2
800001ec: 13 87 04 00  	mv	a4, s1
800001f0: 83 30 81 03  	ld	ra, 0x38(sp)
800001f4: 03 34 01 03  	ld	s0, 0x30(sp)
800001f8: 83 34 81 02  	ld	s1, 0x28(sp)
800001fc: 03 39 01 02  	ld	s2, 0x20(sp)
80000200: 83 39 81 01  	ld	s3, 0x18(sp)
80000204: 03 3a 01 01  	ld	s4, 0x10(sp)
80000208: 83 3a 81 00  	ld	s5, 0x8(sp)
8000020c: 13 01 01 04  	addi	sp, sp, 0x40
80000210: 6f 00 40 78  	j	0x80000994 <vx_spawn_threads>

0000000080000214 <_Z21spmv_jds_naive_kernelPfPKfPKiS3_S1_iS3_S3_i>:
80000214: 13 01 01 fa  	addi	sp, sp, -0x60
80000218: 23 3c 11 04  	sd	ra, 0x58(sp)
8000021c: 23 38 81 04  	sd	s0, 0x50(sp)
80000220: 23 34 91 04  	sd	s1, 0x48(sp)
80000224: 23 30 21 05  	sd	s2, 0x40(sp)
80000228: 23 3c 31 03  	sd	s3, 0x38(sp)
8000022c: 23 38 41 03  	sd	s4, 0x30(sp)
80000230: 23 34 51 03  	sd	s5, 0x28(sp)
80000234: 23 30 61 03  	sd	s6, 0x20(sp)
80000238: 23 3c 71 01  	sd	s7, 0x18(sp)
8000023c: 23 38 81 01  	sd	s8, 0x10(sp)
80000240: 23 34 91 01  	sd	s9, 0x8(sp)
80000244: 13 04 01 06  	addi	s0, sp, 0x60
80000248: 93 8b 08 00  	mv	s7, a7
8000024c: 93 09 08 00  	mv	s3, a6
80000250: 13 0a 07 00  	mv	s4, a4
80000254: 13 89 06 00  	mv	s2, a3
80000258: 93 0a 06 00  	mv	s5, a2
8000025c: 13 8b 05 00  	mv	s6, a1
80000260: 93 04 05 00  	mv	s1, a0
80000264: 9b 8c 07 00  	sext.w	s9, a5
80000268: 03 3c 04 00  	ld	s8, 0x0(s0)
8000026c: 97 45 00 00  	auipc	a1, 0x4
80000270: 93 85 c5 02  	addi	a1, a1, 0x2c
80000274: 83 a5 05 00  	lw	a1, 0x0(a1)
80000278: 03 25 82 01  	lw	a0, 0x18(tp)
8000027c: ef f0 9f e1  	jal	0x80000094 <vx_barrier>
80000280: 03 25 02 00  	lw	a0, 0x0(tp)
80000284: 97 45 00 00  	auipc	a1, 0x4
80000288: 93 85 05 00  	mv	a1, a1
8000028c: 83 a5 05 00  	lw	a1, 0x0(a1)
80000290: 3b 85 a5 02  	mulw	a0, a1, a0
80000294: 83 25 c2 00  	lw	a1, 0xc(tp)
80000298: bb 05 b5 00  	addw	a1, a0, a1
8000029c: 33 a6 95 01  	slt	a2, a1, s9
800002a0: 0b 25 16 00  	vx_split_n	a0, a2
800002a4: 63 0c 06 0a  	beqz	a2, 0x8000035c <_Z21spmv_jds_naive_kernelPfPKfPKiS3_S1_iS3_S3_i+0x148>
800002a8: 6f 00 40 00  	j	0x800002ac <_Z21spmv_jds_naive_kernelPfPKfPKiS3_S1_iS3_S3_i+0x98>
800002ac: 3b c6 85 03  	divw	a2, a1, s8
800002b0: 13 16 26 00  	slli	a2, a2, 0x2
800002b4: 33 86 cb 00  	add	a2, s7, a2
800002b8: 83 26 06 00  	lw	a3, 0x0(a2)
800002bc: 33 27 d0 00  	sgtz	a4, a3
800002c0: 0b 26 17 00  	vx_split_n	a2, a4
800002c4: d3 07 00 f0  	fmv.w.x	fa5, zero
800002c8: 63 06 07 06  	beqz	a4, 0x80000334 <_Z21spmv_jds_naive_kernelPfPKfPKiS3_S1_iS3_S3_i+0x120>
800002cc: 6f 00 40 00  	j	0x800002d0 <_Z21spmv_jds_naive_kernelPfPKfPKiS3_S1_iS3_S3_i+0xbc>
800002d0: 9b 86 06 00  	sext.w	a3, a3
800002d4: d3 07 00 f0  	fmv.w.x	fa5, zero
800002d8: 73 27 40 cc  	csrr	a4, tmask
800002dc: 93 07 00 00  	li	a5, 0x0
800002e0: 6f 00 40 00  	j	0x800002e4 <_Z21spmv_jds_naive_kernelPfPKfPKiS3_S1_iS3_S3_i+0xd0>
800002e4: 13 98 27 00  	slli	a6, a5, 0x2
800002e8: 33 88 09 01  	add	a6, s3, a6
800002ec: 03 28 08 00  	lw	a6, 0x0(a6)
800002f0: 3b 08 b8 00  	addw	a6, a6, a1
800002f4: 13 18 28 00  	slli	a6, a6, 0x2
800002f8: b3 08 0b 01  	add	a7, s6, a6
800002fc: 07 a7 08 00  	flw	fa4, 0x0(a7)
80000300: 33 88 0a 01  	add	a6, s5, a6
80000304: 03 28 08 00  	lw	a6, 0x0(a6)
80000308: 13 18 28 00  	slli	a6, a6, 0x2
8000030c: 33 08 0a 01  	add	a6, s4, a6
80000310: 87 26 08 00  	flw	fa3, 0x0(a6)
80000314: c3 77 d7 78  	fmadd.s	fa5, fa4, fa3, fa5
80000318: 93 87 17 00  	addi	a5, a5, 0x1
8000031c: 33 c8 d7 00  	xor	a6, a5, a3
80000320: 13 38 18 00  	seqz	a6, a6
80000324: 8b 50 e8 00  	vx_pred_n	a6, a4
80000328: e3 0e 08 fa  	beqz	a6, 0x800002e4 <_Z21spmv_jds_naive_kernelPfPKfPKiS3_S1_iS3_S3_i+0xd0>
8000032c: 6f 00 40 00  	j	0x80000330 <_Z21spmv_jds_naive_kernelPfPKfPKiS3_S1_iS3_S3_i+0x11c>
80000330: 6f 00 40 00  	j	0x80000334 <_Z21spmv_jds_naive_kernelPfPKfPKiS3_S1_iS3_S3_i+0x120>
80000334: 0b 30 06 00  	vx_join	a2
80000338: 6f 00 40 00  	j	0x8000033c <_Z21spmv_jds_naive_kernelPfPKfPKiS3_S1_iS3_S3_i+0x128>
8000033c: 9b 85 05 00  	sext.w	a1, a1
80000340: 93 95 25 00  	slli	a1, a1, 0x2
80000344: b3 05 b9 00  	add	a1, s2, a1
80000348: 83 a5 05 00  	lw	a1, 0x0(a1)
8000034c: 93 95 25 00  	slli	a1, a1, 0x2
80000350: b3 85 b4 00  	add	a1, s1, a1
80000354: 27 a0 f5 00  	fsw	fa5, 0x0(a1)
80000358: 6f 00 40 00  	j	0x8000035c <_Z21spmv_jds_naive_kernelPfPKfPKiS3_S1_iS3_S3_i+0x148>
8000035c: 0b 30 05 00  	vx_join	a0
80000360: 6f 00 40 00  	j	0x80000364 <_Z21spmv_jds_naive_kernelPfPKfPKiS3_S1_iS3_S3_i+0x150>
80000364: 97 45 00 00  	auipc	a1, 0x4
80000368: 93 85 45 f3  	addi	a1, a1, -0xcc
8000036c: 83 a5 05 00  	lw	a1, 0x0(a1)
80000370: 03 25 82 01  	lw	a0, 0x18(tp)
80000374: 83 30 81 05  	ld	ra, 0x58(sp)
80000378: 03 34 01 05  	ld	s0, 0x50(sp)
8000037c: 83 34 81 04  	ld	s1, 0x48(sp)
80000380: 03 39 01 04  	ld	s2, 0x40(sp)
80000384: 83 39 81 03  	ld	s3, 0x38(sp)
80000388: 03 3a 01 03  	ld	s4, 0x30(sp)
8000038c: 83 3a 81 02  	ld	s5, 0x28(sp)
80000390: 03 3b 01 02  	ld	s6, 0x20(sp)
80000394: 83 3b 81 01  	ld	s7, 0x18(sp)
80000398: 03 3c 01 01  	ld	s8, 0x10(sp)
8000039c: 83 3c 81 00  	ld	s9, 0x8(sp)
800003a0: 13 01 01 06  	addi	sp, sp, 0x60
800003a4: 6f f0 1f cf  	j	0x80000094 <vx_barrier>

00000000800003a8 <spmv_jds_naive_kernelPfPKfPKiS3_S1_iS3_S3_i_wrapper>:
800003a8: 13 01 01 ff  	addi	sp, sp, -0x10
800003ac: 23 34 11 00  	sd	ra, 0x8(sp)
800003b0: 83 32 05 00  	ld	t0, 0x0(a0)
800003b4: 83 35 85 00  	ld	a1, 0x8(a0)
800003b8: 03 36 05 01  	ld	a2, 0x10(a0)
800003bc: 83 36 85 01  	ld	a3, 0x18(a0)
800003c0: 03 37 05 02  	ld	a4, 0x20(a0)
800003c4: 03 38 05 03  	ld	a6, 0x30(a0)
800003c8: 83 38 85 03  	ld	a7, 0x38(a0)
800003cc: 83 27 85 02  	lw	a5, 0x28(a0)
800003d0: 03 25 05 04  	lw	a0, 0x40(a0)
800003d4: 23 30 a1 00  	sd	a0, 0x0(sp)
800003d8: 13 85 02 00  	mv	a0, t0
800003dc: ef f0 9f e3  	jal	0x80000214 <_Z21spmv_jds_naive_kernelPfPKfPKiS3_S1_iS3_S3_i>
800003e0: 83 30 81 00  	ld	ra, 0x8(sp)
800003e4: 13 01 01 01  	addi	sp, sp, 0x10
800003e8: 67 80 00 00  	ret

00000000800003ec <_Exit>:
800003ec: ef 00 90 2a  	jal	0x80000e94 <vx_perf_dump>
800003f0: 93 02 80 08  	li	t0, 0x88
800003f4: 23 a0 a2 00  	sw	a0, 0x0(t0)
800003f8: 0f 00 f0 0f  	fence
800003fc: 0b 00 00 00  	vx_tmc	zero

0000000080000400 <init_regs>:
80000400: 97 41 00 00  	auipc	gp, 0x4
80000404: 93 81 81 59  	addi	gp, gp, 0x598
80000408: 93 02 10 00  	li	t0, 0x1
8000040c: 93 92 02 02  	slli	t0, t0, 0x20
80000410: 37 01 01 00  	lui	sp, 0x10
80000414: 1b 01 f1 ff  	addiw	sp, sp, -0x1
80000418: 13 11 01 01  	slli	sp, sp, 0x10
8000041c: 33 61 51 00  	or	sp, sp, t0
80000420: f3 22 40 f1  	csrr	t0, mhartid
80000424: 13 93 d2 00  	slli	t1, t0, 0xd
80000428: 33 01 61 40  	sub	sp, sp, t1
8000042c: 13 03 00 04  	li	t1, 0x40
80000430: b3 82 62 02  	mul	t0, t0, t1
80000434: 17 42 00 00  	auipc	tp, 0x4
80000438: 13 02 c2 e8  	addi	tp, tp, -0x174
8000043c: 33 02 52 00  	add	tp, tp, t0
80000440: 67 80 00 00  	ret

0000000080000444 <init_regs_all>:
80000444: 93 02 f0 ff  	li	t0, -0x1
80000448: 0b 80 02 00  	vx_tmc	t0
8000044c: ef f0 5f fb  	jal	0x80000400 <init_regs>
80000450: 0b 00 00 00  	vx_tmc	zero
80000454: 67 80 00 00  	ret

0000000080000458 <init_tls_all>:
80000458: 93 02 f0 ff  	li	t0, -0x1
8000045c: 0b 80 02 00  	vx_tmc	t0
80000460: ef 00 c0 00  	jal	0x8000046c <__init_tls>
80000464: 0b 00 00 00  	vx_tmc	zero
80000468: 67 80 00 00  	ret

000000008000046c <__init_tls>:
8000046c: 13 01 01 ff  	addi	sp, sp, -0x10
80000470: 13 06 00 00  	li	a2, 0x0
80000474: 97 45 00 00  	auipc	a1, 0x4
80000478: 93 85 45 d2  	addi	a1, a1, -0x2dc
8000047c: 13 05 02 00  	mv	a0, tp
80000480: 23 30 81 00  	sd	s0, 0x0(sp)
80000484: 23 34 11 00  	sd	ra, 0x8(sp)
80000488: 13 04 02 00  	mv	s0, tp
8000048c: ef 20 00 32  	jal	0x800027ac <memcpy>
80000490: 13 05 00 00  	li	a0, 0x0
80000494: 33 05 a4 00  	add	a0, s0, a0
80000498: 03 34 01 00  	ld	s0, 0x0(sp)
8000049c: 83 30 81 00  	ld	ra, 0x8(sp)
800004a0: 13 06 00 04  	li	a2, 0x40
800004a4: 93 05 00 00  	li	a1, 0x0
800004a8: 13 01 01 01  	addi	sp, sp, 0x10
800004ac: 6f 20 d0 04  	j	0x80002cf8 <memset>

00000000800004b0 <__libc_init_array>:
800004b0: 13 01 01 fe  	addi	sp, sp, -0x20
800004b4: 23 38 81 00  	sd	s0, 0x10(sp)
800004b8: 23 30 21 01  	sd	s2, 0x0(sp)
800004bc: 97 47 00 00  	auipc	a5, 0x4
800004c0: 93 87 c7 cd  	addi	a5, a5, -0x324
800004c4: 17 44 00 00  	auipc	s0, 0x4
800004c8: 13 04 44 cd  	addi	s0, s0, -0x32c
800004cc: 23 3c 11 00  	sd	ra, 0x18(sp)
800004d0: 23 34 91 00  	sd	s1, 0x8(sp)
800004d4: 33 89 87 40  	sub	s2, a5, s0
800004d8: 63 80 87 02  	beq	a5, s0, 0x800004f8 <__libc_init_array+0x48>
800004dc: 13 59 39 40  	srai	s2, s2, 0x3
800004e0: 93 04 00 00  	li	s1, 0x0
800004e4: 83 37 04 00  	ld	a5, 0x0(s0)
800004e8: 93 84 14 00  	addi	s1, s1, 0x1
800004ec: 13 04 84 00  	addi	s0, s0, 0x8
800004f0: e7 80 07 00  	jalr	a5
800004f4: e3 e8 24 ff  	bltu	s1, s2, 0x800004e4 <__libc_init_array+0x34>
800004f8: 97 47 00 00  	auipc	a5, 0x4
800004fc: 93 87 07 ca  	addi	a5, a5, -0x360
80000500: 17 44 00 00  	auipc	s0, 0x4
80000504: 13 04 84 c9  	addi	s0, s0, -0x368
80000508: 33 89 87 40  	sub	s2, a5, s0
8000050c: 13 59 39 40  	srai	s2, s2, 0x3
80000510: 63 8e 87 00  	beq	a5, s0, 0x8000052c <__libc_init_array+0x7c>
80000514: 93 04 00 00  	li	s1, 0x0
80000518: 83 37 04 00  	ld	a5, 0x0(s0)
8000051c: 93 84 14 00  	addi	s1, s1, 0x1
80000520: 13 04 84 00  	addi	s0, s0, 0x8
80000524: e7 80 07 00  	jalr	a5
80000528: e3 e8 24 ff  	bltu	s1, s2, 0x80000518 <__libc_init_array+0x68>
8000052c: 83 30 81 01  	ld	ra, 0x18(sp)
80000530: 03 34 01 01  	ld	s0, 0x10(sp)
80000534: 83 34 81 00  	ld	s1, 0x8(sp)
80000538: 03 39 01 00  	ld	s2, 0x0(sp)
8000053c: 13 01 01 02  	addi	sp, sp, 0x20
80000540: 67 80 00 00  	ret

0000000080000544 <__funcs_on_exit>:
80000544: 13 01 01 fe  	addi	sp, sp, -0x20
80000548: 23 38 81 00  	sd	s0, 0x10(sp)
8000054c: 97 47 00 00  	auipc	a5, 0x4
80000550: 93 87 c7 c4  	addi	a5, a5, -0x3b4
80000554: 17 44 00 00  	auipc	s0, 0x4
80000558: 13 04 44 c4  	addi	s0, s0, -0x3bc
8000055c: 33 04 f4 40  	sub	s0, s0, a5
80000560: 23 34 91 00  	sd	s1, 0x8(sp)
80000564: 23 3c 11 00  	sd	ra, 0x18(sp)
80000568: 93 54 34 40  	srai	s1, s0, 0x3
8000056c: 63 80 04 02  	beqz	s1, 0x8000058c <__funcs_on_exit+0x48>
80000570: 13 04 84 ff  	addi	s0, s0, -0x8
80000574: 33 04 f4 00  	add	s0, s0, a5
80000578: 83 37 04 00  	ld	a5, 0x0(s0)
8000057c: 93 84 f4 ff  	addi	s1, s1, -0x1
80000580: 13 04 84 ff  	addi	s0, s0, -0x8
80000584: e7 80 07 00  	jalr	a5
80000588: e3 98 04 fe  	bnez	s1, 0x80000578 <__funcs_on_exit+0x34>
8000058c: 83 30 81 01  	ld	ra, 0x18(sp)
80000590: 03 34 01 01  	ld	s0, 0x10(sp)
80000594: 83 34 81 00  	ld	s1, 0x8(sp)
80000598: 13 01 01 02  	addi	sp, sp, 0x20
8000059c: 67 80 00 00  	ret

00000000800005a0 <vx_putchar>:
800005a0: f3 22 40 f1  	csrr	t0, mhartid
800005a4: 93 f2 f2 03  	andi	t0, t0, 0x3f
800005a8: 13 03 00 04  	li	t1, 0x40
800005ac: b3 82 62 00  	add	t0, t0, t1
800005b0: 23 80 a2 00  	sb	a0, 0x0(t0)
800005b4: 67 80 00 00  	ret

00000000800005b8 <__vprintf_cb>:
800005b8: 83 37 85 00  	ld	a5, 0x8(a0)
800005bc: 13 01 01 ff  	addi	sp, sp, -0x10
800005c0: 23 30 81 00  	sd	s0, 0x0(sp)
800005c4: 83 b5 07 00  	ld	a1, 0x0(a5)
800005c8: 13 04 05 00  	mv	s0, a0
800005cc: 03 35 05 00  	ld	a0, 0x0(a0)
800005d0: 23 34 11 00  	sd	ra, 0x8(sp)
800005d4: ef 20 00 14  	jal	0x80002714 <tiny_vprintf>
800005d8: 83 30 81 00  	ld	ra, 0x8(sp)
800005dc: 23 28 a4 00  	sw	a0, 0x10(s0)
800005e0: 03 34 01 00  	ld	s0, 0x0(sp)
800005e4: 13 01 01 01  	addi	sp, sp, 0x10
800005e8: 67 80 00 00  	ret

00000000800005ec <vx_printf>:
800005ec: 13 01 01 f8  	addi	sp, sp, -0x80
800005f0: 23 34 f1 06  	sd	a5, 0x68(sp)
800005f4: 93 07 81 04  	addi	a5, sp, 0x48
800005f8: 13 03 05 00  	mv	t1, a0
800005fc: 23 34 b1 04  	sd	a1, 0x48(sp)
80000600: 23 34 f1 00  	sd	a5, 0x8(sp)
80000604: 23 38 f1 00  	sd	a5, 0x10(sp)
80000608: 17 05 00 00  	auipc	a0, 0x0
8000060c: 13 05 05 fb  	addi	a0, a0, -0x50
80000610: 93 07 01 01  	addi	a5, sp, 0x10
80000614: 93 05 81 01  	addi	a1, sp, 0x18
80000618: 23 3c 11 02  	sd	ra, 0x38(sp)
8000061c: 23 38 c1 04  	sd	a2, 0x50(sp)
80000620: 23 3c d1 04  	sd	a3, 0x58(sp)
80000624: 23 30 e1 06  	sd	a4, 0x60(sp)
80000628: 23 38 01 07  	sd	a6, 0x70(sp)
8000062c: 23 3c 11 07  	sd	a7, 0x78(sp)
80000630: 23 3c 61 00  	sd	t1, 0x18(sp)
80000634: 23 30 f1 02  	sd	a5, 0x20(sp)
80000638: ef 00 00 7e  	jal	0x80000e18 <vx_serial>
8000063c: 83 30 81 03  	ld	ra, 0x38(sp)
80000640: 03 25 81 02  	lw	a0, 0x28(sp)
80000644: 13 01 01 08  	addi	sp, sp, 0x80
80000648: 67 80 00 00  	ret

000000008000064c <process_threads>:
8000064c: 13 01 01 fa  	addi	sp, sp, -0x60
80000650: 23 3c 11 04  	sd	ra, 0x58(sp)
80000654: 23 38 81 04  	sd	s0, 0x50(sp)
80000658: 23 34 91 04  	sd	s1, 0x48(sp)
8000065c: 23 30 21 05  	sd	s2, 0x40(sp)
80000660: 23 3c 31 03  	sd	s3, 0x38(sp)
80000664: 23 38 41 03  	sd	s4, 0x30(sp)
80000668: 23 34 51 03  	sd	s5, 0x28(sp)
8000066c: 23 30 61 03  	sd	s6, 0x20(sp)
80000670: 23 3c 71 01  	sd	s7, 0x18(sp)
80000674: 23 38 81 01  	sd	s8, 0x10(sp)
80000678: 23 34 91 01  	sd	s9, 0x8(sp)
8000067c: 23 30 a1 01  	sd	s10, 0x0(sp)
80000680: f3 26 00 34  	csrr	a3, mscratch
80000684: f3 25 00 fc  	csrr	a1, nt
80000688: 9b 8a 05 00  	sext.w	s5, a1
8000068c: f3 27 10 cc  	csrr	a5, wid
80000690: 1b 87 07 00  	sext.w	a4, a5
80000694: 73 26 00 cc  	csrr	a2, tid
80000698: 03 a8 86 01  	lw	a6, 0x18(a3)
8000069c: 03 a5 c6 01  	lw	a0, 0x1c(a3)
800006a0: 93 88 07 00  	mv	a7, a5
800006a4: bb 87 07 03  	mulw	a5, a5, a6
800006a8: 63 74 e5 00  	bgeu	a0, a4, 0x800006b0 <process_threads+0x64>
800006ac: 93 08 05 00  	mv	a7, a0
800006b0: b3 34 a7 00  	sltu	s1, a4, a0
800006b4: bb 87 17 01  	addw	a5, a5, a7
800006b8: bb 84 04 01  	addw	s1, s1, a6
800006bc: 03 a7 06 01  	lw	a4, 0x10(a3)
800006c0: 17 45 00 00  	auipc	a0, 0x4
800006c4: 13 05 05 bf  	addi	a0, a0, -0x410
800006c8: 03 2d 05 00  	lw	s10, 0x0(a0)
800006cc: 3b 07 e6 00  	addw	a4, a2, a4
800006d0: bb 87 b7 02  	mulw	a5, a5, a1
800006d4: 03 2a 45 00  	lw	s4, 0x4(a0)
800006d8: 03 bb 06 00  	ld	s6, 0x0(a3)
800006dc: 83 bb 86 00  	ld	s7, 0x8(a3)
800006e0: bb 84 b4 02  	mulw	s1, s1, a1
800006e4: 3b 84 e7 00  	addw	s0, a5, a4
800006e8: bb 84 84 00  	addw	s1, s1, s0
800006ec: 63 74 94 04  	bgeu	s0, s1, 0x80000734 <process_threads+0xe8>
800006f0: bb 0c 4d 03  	mulw	s9, s10, s4
800006f4: 93 09 f0 ff  	li	s3, -0x1
800006f8: 93 d9 09 02  	srli	s3, s3, 0x20
800006fc: 13 0c 02 03  	addi	s8, tp, 0x30
80000700: 13 85 0b 00  	mv	a0, s7
80000704: 3b 57 a4 03  	divuw	a4, s0, s10
80000708: bb 77 a4 03  	remuw	a5, s0, s10
8000070c: 3b 77 47 03  	remuw	a4, a4, s4
80000710: b3 f7 f9 00  	and	a5, s3, a5
80000714: bb 56 94 03  	divuw	a3, s0, s9
80000718: 13 17 07 02  	slli	a4, a4, 0x20
8000071c: b3 e7 e7 00  	or	a5, a5, a4
80000720: 3b 84 8a 00  	addw	s0, s5, s0
80000724: 23 38 f2 02  	sd	a5, 0x30(tp)
80000728: 23 24 dc 00  	sw	a3, 0x8(s8)
8000072c: e7 00 0b 00  	jalr	s6
80000730: e3 68 94 fc  	bltu	s0, s1, 0x80000700 <process_threads+0xb4>
80000734: 83 30 81 05  	ld	ra, 0x58(sp)
80000738: 03 34 01 05  	ld	s0, 0x50(sp)
8000073c: 83 34 81 04  	ld	s1, 0x48(sp)
80000740: 03 39 01 04  	ld	s2, 0x40(sp)
80000744: 83 39 81 03  	ld	s3, 0x38(sp)
80000748: 03 3a 01 03  	ld	s4, 0x30(sp)
8000074c: 83 3a 81 02  	ld	s5, 0x28(sp)
80000750: 03 3b 01 02  	ld	s6, 0x20(sp)
80000754: 83 3b 81 01  	ld	s7, 0x18(sp)
80000758: 03 3c 01 01  	ld	s8, 0x10(sp)
8000075c: 83 3c 81 00  	ld	s9, 0x8(sp)
80000760: 03 3d 01 00  	ld	s10, 0x0(sp)
80000764: 13 01 01 06  	addi	sp, sp, 0x60
80000768: 67 80 00 00  	ret

000000008000076c <process_remaining_threads>:
8000076c: f3 25 00 34  	csrr	a1, mscratch
80000770: 73 27 00 cc  	csrr	a4, tid
80000774: 97 46 00 00  	auipc	a3, 0x4
80000778: 93 86 c6 b3  	addi	a3, a3, -0x4c4
8000077c: 03 a6 45 01  	lw	a2, 0x14(a1)
80000780: 83 a7 06 00  	lw	a5, 0x0(a3)
80000784: 03 a8 46 00  	lw	a6, 0x4(a3)
80000788: 3b 07 c7 00  	addw	a4, a4, a2
8000078c: bb 56 f7 02  	divuw	a3, a4, a5
80000790: 83 b8 05 00  	ld	a7, 0x0(a1)
80000794: 03 b5 85 00  	ld	a0, 0x8(a1)
80000798: 93 05 02 03  	addi	a1, tp, 0x30
8000079c: 3b 83 07 03  	mulw	t1, a5, a6
800007a0: bb 77 f7 02  	remuw	a5, a4, a5
800007a4: bb f6 06 03  	remuw	a3, a3, a6
800007a8: 93 97 07 02  	slli	a5, a5, 0x20
800007ac: 93 d7 07 02  	srli	a5, a5, 0x20
800007b0: 3b 57 67 02  	divuw	a4, a4, t1
800007b4: 93 96 06 02  	slli	a3, a3, 0x20
800007b8: b3 e7 d7 00  	or	a5, a5, a3
800007bc: 23 38 f2 02  	sd	a5, 0x30(tp)
800007c0: 23 a4 e5 00  	sw	a4, 0x8(a1)
800007c4: 67 80 08 00  	jr	a7

00000000800007c8 <process_threads_stub>:
800007c8: 13 01 01 ff  	addi	sp, sp, -0x10
800007cc: 23 34 11 00  	sd	ra, 0x8(sp)
800007d0: 93 07 f0 ff  	li	a5, -0x1
800007d4: 0b 80 07 00  	vx_tmc	a5
800007d8: ef f0 5f e7  	jal	0x8000064c <process_threads>
800007dc: 0b 00 00 00  	vx_tmc	zero
800007e0: 83 30 81 00  	ld	ra, 0x8(sp)
800007e4: 13 01 01 01  	addi	sp, sp, 0x10
800007e8: 67 80 00 00  	ret

00000000800007ec <process_thread_groups>:
800007ec: 13 01 01 fa  	addi	sp, sp, -0x60
800007f0: 23 3c 11 04  	sd	ra, 0x58(sp)
800007f4: 23 38 81 04  	sd	s0, 0x50(sp)
800007f8: 23 34 91 04  	sd	s1, 0x48(sp)
800007fc: 23 30 21 05  	sd	s2, 0x40(sp)
80000800: 23 3c 31 03  	sd	s3, 0x38(sp)
80000804: 23 38 41 03  	sd	s4, 0x30(sp)
80000808: 23 34 51 03  	sd	s5, 0x28(sp)
8000080c: 23 30 61 03  	sd	s6, 0x20(sp)
80000810: 23 3c 71 01  	sd	s7, 0x18(sp)
80000814: 23 38 81 01  	sd	s8, 0x10(sp)
80000818: 23 34 91 01  	sd	s9, 0x8(sp)
8000081c: 23 30 a1 01  	sd	s10, 0x0(sp)
80000820: f3 26 00 34  	csrr	a3, mscratch
80000824: 73 2f 00 fc  	csrr	t5, nt
80000828: 73 26 10 cc  	csrr	a2, wid
8000082c: 1b 05 06 00  	sext.w	a0, a2
80000830: f3 2e 00 cc  	csrr	t4, tid
80000834: 03 a3 c6 01  	lw	t1, 0x1c(a3)
80000838: 97 45 00 00  	auipc	a1, 0x4
8000083c: 93 85 85 a6  	addi	a1, a1, -0x598
80000840: 83 a4 86 01  	lw	s1, 0x18(a3)
80000844: bb 77 66 02  	remuw	a5, a2, t1
80000848: 03 a7 05 00  	lw	a4, 0x0(a1)
8000084c: 03 ae 45 00  	lw	t3, 0x4(a1)
80000850: 83 a5 46 01  	lw	a1, 0x14(a3)
80000854: b3 34 95 00  	sltu	s1, a0, s1
80000858: 83 bb 06 00  	ld	s7, 0x0(a3)
8000085c: 03 aa 06 02  	lw	s4, 0x20(a3)
80000860: 03 bc 86 00  	ld	s8, 0x8(a3)
80000864: bb 84 b4 00  	addw	s1, s1, a1
80000868: 83 a5 06 01  	lw	a1, 0x10(a3)
8000086c: 13 09 f0 ff  	li	s2, -0x1
80000870: 17 48 00 00  	auipc	a6, 0x4
80000874: 13 08 08 a4  	addi	a6, a6, -0x5c0
80000878: 13 59 09 02  	srli	s2, s2, 0x20
8000087c: 03 2d 08 00  	lw	s10, 0x0(a6)
80000880: 83 2a 48 00  	lw	s5, 0x4(a6)
80000884: 13 08 02 02  	addi	a6, tp, 0x20
80000888: bb 87 e7 03  	mulw	a5, a5, t5
8000088c: bb 87 d7 01  	addw	a5, a5, t4
80000890: bb d6 e7 02  	divuw	a3, a5, a4
80000894: bb 0e c7 03  	mulw	t4, a4, t3
80000898: bb f6 c6 03  	remuw	a3, a3, t3
8000089c: 3b f7 e7 02  	remuw	a4, a5, a4
800008a0: 93 96 06 02  	slli	a3, a3, 0x20
800008a4: 3b 56 66 02  	divuw	a2, a2, t1
800008a8: 33 77 e9 00  	and	a4, s2, a4
800008ac: 33 67 d7 00  	or	a4, a4, a3
800008b0: 23 30 e2 02  	sd	a4, 0x20(tp)
800008b4: bb d7 d7 03  	divuw	a5, a5, t4
800008b8: 3b 04 b6 00  	addw	s0, a2, a1
800008bc: 23 2c c2 00  	sw	a2, 0x18(tp)
800008c0: bb 04 9a 02  	mulw	s1, s4, s1
800008c4: 23 24 f8 00  	sw	a5, 0x8(a6)
800008c8: bb 84 84 00  	addw	s1, s1, s0
800008cc: 3b 0b 5d 03  	mulw	s6, s10, s5
800008d0: 63 7e 94 02  	bgeu	s0, s1, 0x8000090c <process_thread_groups+0x120>
800008d4: 93 0c 02 03  	addi	s9, tp, 0x30
800008d8: 13 05 0c 00  	mv	a0, s8
800008dc: 3b 57 a4 03  	divuw	a4, s0, s10
800008e0: bb 77 a4 03  	remuw	a5, s0, s10
800008e4: 3b 77 57 03  	remuw	a4, a4, s5
800008e8: b3 77 f9 00  	and	a5, s2, a5
800008ec: bb 56 64 03  	divuw	a3, s0, s6
800008f0: 13 17 07 02  	slli	a4, a4, 0x20
800008f4: b3 e7 e7 00  	or	a5, a5, a4
800008f8: 3b 04 8a 00  	addw	s0, s4, s0
800008fc: 23 38 f2 02  	sd	a5, 0x30(tp)
80000900: 23 a4 dc 00  	sw	a3, 0x8(s9)
80000904: e7 80 0b 00  	jalr	s7
80000908: e3 68 94 fc  	bltu	s0, s1, 0x800008d8 <process_thread_groups+0xec>
8000090c: 83 30 81 05  	ld	ra, 0x58(sp)
80000910: 03 34 01 05  	ld	s0, 0x50(sp)
80000914: 83 34 81 04  	ld	s1, 0x48(sp)
80000918: 03 39 01 04  	ld	s2, 0x40(sp)
8000091c: 83 39 81 03  	ld	s3, 0x38(sp)
80000920: 03 3a 01 03  	ld	s4, 0x30(sp)
80000924: 83 3a 81 02  	ld	s5, 0x28(sp)
80000928: 03 3b 01 02  	ld	s6, 0x20(sp)
8000092c: 83 3b 81 01  	ld	s7, 0x18(sp)
80000930: 03 3c 01 01  	ld	s8, 0x10(sp)
80000934: 83 3c 81 00  	ld	s9, 0x8(sp)
80000938: 03 3d 01 00  	ld	s10, 0x0(sp)
8000093c: 13 01 01 06  	addi	sp, sp, 0x60
80000940: 67 80 00 00  	ret

0000000080000944 <process_thread_groups_stub>:
80000944: 13 01 01 ff  	addi	sp, sp, -0x10
80000948: 23 34 11 00  	sd	ra, 0x8(sp)
8000094c: 73 27 00 34  	csrr	a4, mscratch
80000950: 83 27 c7 01  	lw	a5, 0x1c(a4)
80000954: 03 26 47 02  	lw	a2, 0x24(a4)
80000958: 73 27 10 cc  	csrr	a4, wid
8000095c: 3b 77 f7 02  	remuw	a4, a4, a5
80000960: 9b 87 f7 ff  	addiw	a5, a5, -0x1
80000964: 9b 06 06 00  	sext.w	a3, a2
80000968: 63 84 e7 00  	beq	a5, a4, 0x80000970 <process_thread_groups_stub+0x2c>
8000096c: 93 06 f0 ff  	li	a3, -0x1
80000970: 0b 80 06 00  	vx_tmc	a3
80000974: ef f0 9f e7  	jal	0x800007ec <process_thread_groups>
80000978: f3 27 10 cc  	csrr	a5, wid
8000097c: 9b 87 07 00  	sext.w	a5, a5
80000980: 93 b7 17 00  	seqz	a5, a5
80000984: 0b 80 07 00  	vx_tmc	a5
80000988: 83 30 81 00  	ld	ra, 0x8(sp)
8000098c: 13 01 01 01  	addi	sp, sp, 0x10
80000990: 67 80 00 00  	ret

0000000080000994 <vx_spawn_threads>:
80000994: 13 01 01 fc  	addi	sp, sp, -0x40
80000998: 23 3c 11 02  	sd	ra, 0x38(sp)
8000099c: 23 38 81 02  	sd	s0, 0x30(sp)
800009a0: 63 80 05 2a  	beqz	a1, 0x80000c40 <vx_spawn_threads+0x2ac>
800009a4: 63 0c 06 16  	beqz	a2, 0x80000b1c <vx_spawn_threads+0x188>
800009a8: 63 14 05 2e  	bnez	a0, 0x80000c90 <vx_spawn_threads+0x2fc>
800009ac: 93 07 10 00  	li	a5, 0x1
800009b0: 17 43 00 00  	auipc	t1, 0x4
800009b4: 13 03 03 90  	addi	t1, t1, -0x700
800009b8: 97 48 00 00  	auipc	a7, 0x4
800009bc: 93 88 88 8e  	addi	a7, a7, -0x718
800009c0: 23 20 f3 00  	sw	a5, 0x0(t1)
800009c4: 23 a0 f8 00  	sw	a5, 0x0(a7)
800009c8: 13 08 10 00  	li	a6, 0x1
800009cc: 13 06 10 00  	li	a2, 0x1
800009d0: 23 22 c3 00  	sw	a2, 0x4(t1)
800009d4: 23 a2 c8 00  	sw	a2, 0x4(a7)
800009d8: 93 05 10 00  	li	a1, 0x1
800009dc: 13 05 10 00  	li	a0, 0x1
800009e0: 23 24 b3 00  	sw	a1, 0x8(t1)
800009e4: 23 a4 a8 00  	sw	a0, 0x8(a7)
800009e8: f3 2f 20 fc  	csrr	t6, nw
800009ec: f3 25 10 fc  	csrr	a1, nw
800009f0: 9b 8e 05 00  	sext.w	t4, a1
800009f4: 73 25 00 fc  	csrr	a0, nt
800009f8: 73 2e 20 cc  	csrr	t3, cid
800009fc: 3b 86 a5 02  	mulw	a2, a1, a0
80000a00: 9b 08 0e 00  	sext.w	a7, t3
80000a04: 13 03 06 00  	mv	t1, a2
80000a08: 63 68 f6 3e  	bltu	a2, a5, 0x80000df8 <vx_spawn_threads+0x464>
80000a0c: 13 06 10 00  	li	a2, 0x1
80000a10: 63 7c f6 14  	bgeu	a2, a5, 0x80000b68 <vx_spawn_threads+0x1d4>
80000a14: 3b f6 a7 02  	remuw	a2, a5, a0
80000a18: 13 03 f0 ff  	li	t1, -0x1
80000a1c: 3b d5 a7 02  	divuw	a0, a5, a0
80000a20: 63 0a 06 00  	beqz	a2, 0x80000a34 <vx_spawn_threads+0xa0>
80000a24: 13 03 10 00  	li	t1, 0x1
80000a28: 3b 13 c3 00  	sllw	t1, t1, a2
80000a2c: 1b 03 f3 ff  	addiw	t1, t1, -0x1
80000a30: 1b 05 15 00  	addiw	a0, a0, 0x1
80000a34: 1b 8f f5 ff  	addiw	t5, a1, -0x1
80000a38: 1b 86 0f 00  	sext.w	a2, t6
80000a3c: bb 07 05 03  	mulw	a5, a0, a6
80000a40: bb 87 e7 01  	addw	a5, a5, t5
80000a44: 3b df b7 02  	divuw	t5, a5, a1
80000a48: 93 07 0f 00  	mv	a5, t5
80000a4c: 63 74 e6 01  	bgeu	a2, t5, 0x80000a54 <vx_spawn_threads+0xc0>
80000a50: 93 87 0f 00  	mv	a5, t6
80000a54: 1b 86 07 00  	sext.w	a2, a5
80000a58: 63 f8 c8 0a  	bgeu	a7, a2, 0x80000b08 <vx_spawn_threads+0x174>
80000a5c: bb 72 f8 02  	remuw	t0, a6, a5
80000a60: 3b 56 f8 02  	divuw	a2, a6, a5
80000a64: 13 8f 02 00  	mv	t5, t0
80000a68: 63 f4 58 00  	bgeu	a7, t0, 0x80000a70 <vx_spawn_threads+0xdc>
80000a6c: 1b 06 16 00  	addiw	a2, a2, 0x1
80000a70: 13 13 03 02  	slli	t1, t1, 0x20
80000a74: bb d5 a5 02  	divuw	a1, a1, a0
80000a78: bb 0f c5 02  	mulw	t6, a0, a2
80000a7c: 13 98 05 02  	slli	a6, a1, 0x20
80000a80: 13 58 08 02  	srli	a6, a6, 0x20
80000a84: 33 68 68 00  	or	a6, a6, t1
80000a88: 93 87 0f 00  	mv	a5, t6
80000a8c: 63 e0 fe 27  	bltu	t4, t6, 0x80000cec <vx_spawn_threads+0x358>
80000a90: 93 05 00 00  	li	a1, 0x0
80000a94: 13 03 10 00  	li	t1, 0x1
80000a98: 23 34 d1 00  	sd	a3, 0x8(sp)
80000a9c: 23 38 e1 00  	sd	a4, 0x10(sp)
80000aa0: bb 07 c6 03  	mulw	a5, a2, t3
80000aa4: 63 f4 58 00  	bgeu	a7, t0, 0x80000aac <vx_spawn_threads+0x118>
80000aa8: 13 0f 0e 00  	mv	t5, t3
80000aac: 13 07 f0 ff  	li	a4, -0x1
80000ab0: 13 57 07 02  	srli	a4, a4, 0x20
80000ab4: bb 87 e7 01  	addw	a5, a5, t5
80000ab8: 93 16 03 02  	slli	a3, t1, 0x20
80000abc: b3 77 f7 00  	and	a5, a4, a5
80000ac0: 13 16 05 02  	slli	a2, a0, 0x20
80000ac4: 33 f7 e5 00  	and	a4, a1, a4
80000ac8: b3 e7 d7 00  	or	a5, a5, a3
80000acc: 33 67 c7 00  	or	a4, a4, a2
80000ad0: 23 3c f1 00  	sd	a5, 0x18(sp)
80000ad4: 23 30 e1 02  	sd	a4, 0x20(sp)
80000ad8: 23 34 01 03  	sd	a6, 0x28(sp)
80000adc: 93 07 81 00  	addi	a5, sp, 0x8
80000ae0: 73 90 07 34  	csrw	mscratch, a5
80000ae4: 97 37 00 00  	auipc	a5, 0x3
80000ae8: 23 aa a7 7a  	sw	a0, 0x7b4(a5)
80000aec: 97 07 00 00  	auipc	a5, 0x0
80000af0: 93 87 87 e5  	addi	a5, a5, -0x1a8
80000af4: 0b 90 ff 00  	vx_wspawn	t6, a5
80000af8: ef f0 df e4  	jal	0x80000944 <process_thread_groups_stub>
80000afc: 93 07 10 00  	li	a5, 0x1
80000b00: 13 07 00 00  	li	a4, 0x0
80000b04: 0b 90 e7 00  	vx_wspawn	a5, a4
80000b08: 13 05 00 00  	li	a0, 0x0
80000b0c: 83 30 81 03  	ld	ra, 0x38(sp)
80000b10: 03 34 01 03  	ld	s0, 0x30(sp)
80000b14: 13 01 01 04  	addi	sp, sp, 0x40
80000b18: 67 80 00 00  	ret
80000b1c: 63 00 05 22  	beqz	a0, 0x80000d3c <vx_spawn_threads+0x3a8>
80000b20: 03 a8 05 00  	lw	a6, 0x0(a1)
80000b24: 17 33 00 00  	auipc	t1, 0x3
80000b28: 13 03 c3 78  	addi	t1, t1, 0x78c
80000b2c: 97 38 00 00  	auipc	a7, 0x3
80000b30: 93 88 48 77  	addi	a7, a7, 0x774
80000b34: 93 07 10 00  	li	a5, 0x1
80000b38: 23 20 03 01  	sw	a6, 0x0(t1)
80000b3c: 23 a0 f8 00  	sw	a5, 0x0(a7)
80000b40: 63 0e f5 20  	beq	a0, a5, 0x80000d5c <vx_spawn_threads+0x3c8>
80000b44: 03 a6 45 00  	lw	a2, 0x4(a1)
80000b48: 13 0e 20 00  	li	t3, 0x2
80000b4c: 23 a2 f8 00  	sw	a5, 0x4(a7)
80000b50: 23 22 c3 00  	sw	a2, 0x4(t1)
80000b54: 3b 08 c8 02  	mulw	a6, a6, a2
80000b58: 63 06 c5 29  	beq	a0, t3, 0x80000de4 <vx_spawn_threads+0x450>
80000b5c: 83 a5 85 00  	lw	a1, 0x8(a1)
80000b60: 3b 08 b8 02  	mulw	a6, a6, a1
80000b64: 6f 00 80 20  	j	0x80000d6c <vx_spawn_threads+0x3d8>
80000b68: 9b 07 f8 ff  	addiw	a5, a6, -0x1
80000b6c: bb 87 67 00  	addw	a5, a5, t1
80000b70: bb d7 67 02  	divuw	a5, a5, t1
80000b74: 13 0f 02 02  	addi	t5, tp, 0x20
80000b78: 23 2c 02 00  	sw	zero, 0x18(tp)
80000b7c: 23 30 02 02  	sd	zero, 0x20(tp)
80000b80: 97 32 00 00  	auipc	t0, 0x3
80000b84: 23 ac 02 70  	sw	zero, 0x718(t0)
80000b88: 23 24 0f 00  	sw	zero, 0x8(t5)
80000b8c: 1b 86 0f 00  	sext.w	a2, t6
80000b90: 1b 83 07 00  	sext.w	t1, a5
80000b94: 63 74 66 00  	bgeu	a2, t1, 0x80000b9c <vx_spawn_threads+0x208>
80000b98: 93 87 0f 00  	mv	a5, t6
80000b9c: 1b 86 07 00  	sext.w	a2, a5
80000ba0: e3 f4 c8 f6  	bgeu	a7, a2, 0x80000b08 <vx_spawn_threads+0x174>
80000ba4: bb 7f f8 02  	remuw	t6, a6, a5
80000ba8: bb 57 f8 02  	divuw	a5, a6, a5
80000bac: 13 83 0f 00  	mv	t1, t6
80000bb0: 63 f4 f8 01  	bgeu	a7, t6, 0x80000bb8 <vx_spawn_threads+0x224>
80000bb4: 9b 87 17 00  	addiw	a5, a5, 0x1
80000bb8: 13 08 10 00  	li	a6, 0x1
80000bbc: 3b df a7 02  	divuw	t5, a5, a0
80000bc0: 3b f4 a7 02  	remuw	s0, a5, a0
80000bc4: 13 06 0f 00  	mv	a2, t5
80000bc8: 3b 05 e5 03  	mulw	a0, a0, t5
80000bcc: 63 f0 ee 03  	bgeu	t4, t5, 0x80000bec <vx_spawn_threads+0x258>
80000bd0: 13 8f 0e 00  	mv	t5, t4
80000bd4: 3b 58 b6 02  	divuw	a6, a2, a1
80000bd8: 3b 76 b6 02  	remuw	a2, a2, a1
80000bdc: 13 18 08 02  	slli	a6, a6, 0x20
80000be0: 13 58 08 02  	srli	a6, a6, 0x20
80000be4: 13 16 06 02  	slli	a2, a2, 0x20
80000be8: 33 68 c8 00  	or	a6, a6, a2
80000bec: bb 87 c7 03  	mulw	a5, a5, t3
80000bf0: 63 e6 f8 11  	bltu	a7, t6, 0x80000cfc <vx_spawn_threads+0x368>
80000bf4: bb 87 67 00  	addw	a5, a5, t1
80000bf8: 3b 05 f5 00  	addw	a0, a0, a5
80000bfc: 23 2c f1 00  	sw	a5, 0x18(sp)
80000c00: 23 34 d1 00  	sd	a3, 0x8(sp)
80000c04: 23 38 e1 00  	sd	a4, 0x10(sp)
80000c08: 23 2e a1 00  	sw	a0, 0x1c(sp)
80000c0c: 23 30 01 03  	sd	a6, 0x20(sp)
80000c10: 93 07 81 00  	addi	a5, sp, 0x8
80000c14: 73 90 07 34  	csrw	mscratch, a5
80000c18: 63 10 0f 16  	bnez	t5, 0x80000d78 <vx_spawn_threads+0x3e4>
80000c1c: e3 00 04 ee  	beqz	s0, 0x80000afc <vx_spawn_threads+0x168>
80000c20: 93 07 10 00  	li	a5, 0x1
80000c24: bb 97 87 00  	sllw	a5, a5, s0
80000c28: 9b 87 f7 ff  	addiw	a5, a5, -0x1
80000c2c: 0b 80 07 00  	vx_tmc	a5
80000c30: ef f0 df b3  	jal	0x8000076c <process_remaining_threads>
80000c34: 13 05 10 00  	li	a0, 0x1
80000c38: 0b 00 05 00  	vx_tmc	a0
80000c3c: 6f f0 1f ec  	j	0x80000afc <vx_spawn_threads+0x168>
80000c40: 63 00 06 16  	beqz	a2, 0x80000da0 <vx_spawn_threads+0x40c>
80000c44: 63 00 05 0c  	beqz	a0, 0x80000d04 <vx_spawn_threads+0x370>
80000c48: 83 27 06 00  	lw	a5, 0x0(a2)
80000c4c: 17 33 00 00  	auipc	t1, 0x3
80000c50: 13 03 43 66  	addi	t1, t1, 0x664
80000c54: 93 05 10 00  	li	a1, 0x1
80000c58: 97 38 00 00  	auipc	a7, 0x3
80000c5c: 93 88 88 64  	addi	a7, a7, 0x648
80000c60: 23 20 b3 00  	sw	a1, 0x0(t1)
80000c64: 23 a0 f8 00  	sw	a5, 0x0(a7)
80000c68: 63 02 b5 18  	beq	a0, a1, 0x80000dec <vx_spawn_threads+0x458>
80000c6c: 03 28 46 00  	lw	a6, 0x4(a2)
80000c70: 13 0e 20 00  	li	t3, 0x2
80000c74: 23 22 b3 00  	sw	a1, 0x4(t1)
80000c78: 23 a2 08 01  	sw	a6, 0x4(a7)
80000c7c: bb 87 07 03  	mulw	a5, a5, a6
80000c80: 63 08 c5 19  	beq	a0, t3, 0x80000e10 <vx_spawn_threads+0x47c>
80000c84: 03 25 86 00  	lw	a0, 0x8(a2)
80000c88: bb 87 a7 02  	mulw	a5, a5, a0
80000c8c: 6f 00 40 0a  	j	0x80000d30 <vx_spawn_threads+0x39c>
80000c90: 03 a8 05 00  	lw	a6, 0x0(a1)
80000c94: 83 27 06 00  	lw	a5, 0x0(a2)
80000c98: 17 33 00 00  	auipc	t1, 0x3
80000c9c: 13 03 83 61  	addi	t1, t1, 0x618
80000ca0: 97 38 00 00  	auipc	a7, 0x3
80000ca4: 93 88 08 60  	addi	a7, a7, 0x600
80000ca8: 23 20 03 01  	sw	a6, 0x0(t1)
80000cac: 23 a0 f8 00  	sw	a5, 0x0(a7)
80000cb0: 13 0e 10 00  	li	t3, 0x1
80000cb4: e3 0c c5 d1  	beq	a0, t3, 0x800009cc <vx_spawn_threads+0x38>
80000cb8: 83 ae 45 00  	lw	t4, 0x4(a1)
80000cbc: 03 2e 46 00  	lw	t3, 0x4(a2)
80000cc0: 93 0f 20 00  	li	t6, 0x2
80000cc4: 23 22 d3 01  	sw	t4, 0x4(t1)
80000cc8: 23 a2 c8 01  	sw	t3, 0x4(a7)
80000ccc: 3b 08 d8 03  	mulw	a6, a6, t4
80000cd0: bb 87 c7 03  	mulw	a5, a5, t3
80000cd4: 63 02 f5 11  	beq	a0, t6, 0x80000dd8 <vx_spawn_threads+0x444>
80000cd8: 83 a5 85 00  	lw	a1, 0x8(a1)
80000cdc: 03 25 86 00  	lw	a0, 0x8(a2)
80000ce0: 3b 08 b8 02  	mulw	a6, a6, a1
80000ce4: bb 87 a7 02  	mulw	a5, a5, a0
80000ce8: 6f f0 9f cf  	j	0x800009e0 <vx_spawn_threads+0x4c>
80000cec: bb 0f b5 02  	mulw	t6, a0, a1
80000cf0: 3b d3 f7 03  	divuw	t1, a5, t6
80000cf4: bb f5 f7 03  	remuw	a1, a5, t6
80000cf8: 6f f0 1f da  	j	0x80000a98 <vx_spawn_threads+0x104>
80000cfc: 13 03 0e 00  	mv	t1, t3
80000d00: 6f f0 5f ef  	j	0x80000bf4 <vx_spawn_threads+0x260>
80000d04: 93 07 10 00  	li	a5, 0x1
80000d08: 93 97 07 02  	slli	a5, a5, 0x20
80000d0c: 93 87 17 00  	addi	a5, a5, 0x1
80000d10: 17 33 00 00  	auipc	t1, 0x3
80000d14: 13 03 03 5a  	addi	t1, t1, 0x5a0
80000d18: 97 38 00 00  	auipc	a7, 0x3
80000d1c: 93 88 88 58  	addi	a7, a7, 0x588
80000d20: 23 30 f3 00  	sd	a5, 0x0(t1)
80000d24: 23 b0 f8 00  	sd	a5, 0x0(a7)
80000d28: 13 05 10 00  	li	a0, 0x1
80000d2c: 93 07 10 00  	li	a5, 0x1
80000d30: 93 05 10 00  	li	a1, 0x1
80000d34: 13 08 10 00  	li	a6, 0x1
80000d38: 6f f0 9f ca  	j	0x800009e0 <vx_spawn_threads+0x4c>
80000d3c: 93 07 10 00  	li	a5, 0x1
80000d40: 17 33 00 00  	auipc	t1, 0x3
80000d44: 13 03 03 57  	addi	t1, t1, 0x570
80000d48: 97 38 00 00  	auipc	a7, 0x3
80000d4c: 93 88 88 55  	addi	a7, a7, 0x558
80000d50: 23 20 f3 00  	sw	a5, 0x0(t1)
80000d54: 23 a0 f8 00  	sw	a5, 0x0(a7)
80000d58: 13 08 10 00  	li	a6, 0x1
80000d5c: 93 07 10 00  	li	a5, 0x1
80000d60: 23 22 f3 00  	sw	a5, 0x4(t1)
80000d64: 23 a2 f8 00  	sw	a5, 0x4(a7)
80000d68: 93 05 10 00  	li	a1, 0x1
80000d6c: 13 05 10 00  	li	a0, 0x1
80000d70: 93 07 10 00  	li	a5, 0x1
80000d74: 6f f0 df c6  	j	0x800009e0 <vx_spawn_threads+0x4c>
80000d78: 97 07 00 00  	auipc	a5, 0x0
80000d7c: 93 87 07 a5  	addi	a5, a5, -0x5b0
80000d80: 0b 10 ff 00  	vx_wspawn	t5, a5
80000d84: 93 07 f0 ff  	li	a5, -0x1
80000d88: 0b 80 07 00  	vx_tmc	a5
80000d8c: ef f0 1f 8c  	jal	0x8000064c <process_threads>
80000d90: 13 05 10 00  	li	a0, 0x1
80000d94: 0b 00 05 00  	vx_tmc	a0
80000d98: e3 02 04 d6  	beqz	s0, 0x80000afc <vx_spawn_threads+0x168>
80000d9c: 6f f0 5f e8  	j	0x80000c20 <vx_spawn_threads+0x28c>
80000da0: 93 07 10 00  	li	a5, 0x1
80000da4: 93 97 07 02  	slli	a5, a5, 0x20
80000da8: 93 87 17 00  	addi	a5, a5, 0x1
80000dac: 17 33 00 00  	auipc	t1, 0x3
80000db0: 13 03 43 50  	addi	t1, t1, 0x504
80000db4: 97 38 00 00  	auipc	a7, 0x3
80000db8: 93 88 c8 4e  	addi	a7, a7, 0x4ec
80000dbc: 23 30 f3 00  	sd	a5, 0x0(t1)
80000dc0: 23 b0 f8 00  	sd	a5, 0x0(a7)
80000dc4: 93 05 10 00  	li	a1, 0x1
80000dc8: 13 05 10 00  	li	a0, 0x1
80000dcc: 93 07 10 00  	li	a5, 0x1
80000dd0: 13 08 10 00  	li	a6, 0x1
80000dd4: 6f f0 df c0  	j	0x800009e0 <vx_spawn_threads+0x4c>
80000dd8: 93 05 10 00  	li	a1, 0x1
80000ddc: 13 05 10 00  	li	a0, 0x1
80000de0: 6f f0 1f c0  	j	0x800009e0 <vx_spawn_threads+0x4c>
80000de4: 93 05 10 00  	li	a1, 0x1
80000de8: 6f f0 5f f8  	j	0x80000d6c <vx_spawn_threads+0x3d8>
80000dec: 23 22 a3 00  	sw	a0, 0x4(t1)
80000df0: 23 a2 a8 00  	sw	a0, 0x4(a7)
80000df4: 6f f0 df f3  	j	0x80000d30 <vx_spawn_threads+0x39c>
80000df8: 93 85 07 00  	mv	a1, a5
80000dfc: 17 25 00 00  	auipc	a0, 0x2
80000e00: 13 05 c5 0f  	addi	a0, a0, 0xfc
80000e04: ef f0 8f fe  	jal	0x800005ec <vx_printf>
80000e08: 13 05 f0 ff  	li	a0, -0x1
80000e0c: 6f f0 1f d0  	j	0x80000b0c <vx_spawn_threads+0x178>
80000e10: 13 05 10 00  	li	a0, 0x1
80000e14: 6f f0 df f1  	j	0x80000d30 <vx_spawn_threads+0x39c>

0000000080000e18 <vx_serial>:
80000e18: 13 01 81 fc  	addi	sp, sp, -0x38
80000e1c: 23 38 11 02  	sd	ra, 0x30(sp)
80000e20: 23 34 51 03  	sd	s5, 0x28(sp)
80000e24: 23 30 41 03  	sd	s4, 0x20(sp)
80000e28: 23 3c 31 01  	sd	s3, 0x18(sp)
80000e2c: 23 38 21 01  	sd	s2, 0x10(sp)
80000e30: 23 34 91 00  	sd	s1, 0x8(sp)
80000e34: 23 30 81 00  	sd	s0, 0x0(sp)
80000e38: 13 0a 05 00  	mv	s4, a0
80000e3c: 93 89 05 00  	mv	s3, a1
80000e40: 73 29 00 fc  	csrr	s2, nt
80000e44: f3 24 00 cc  	csrr	s1, tid
80000e48: 13 04 00 00  	li	s0, 0x0

0000000080000e4c <label_loop>:
80000e4c: b3 02 94 40  	sub	t0, s0, s1
80000e50: 13 b3 12 00  	seqz	t1, t0
80000e54: 8b 2a 03 00  	vx_split	s5, t1
80000e58: 63 96 02 00  	bnez	t0, 0x80000e64 <label_join>
80000e5c: 13 85 09 00  	mv	a0, s3
80000e60: e7 00 0a 00  	jalr	s4

0000000080000e64 <label_join>:
80000e64: 0b b0 0a 00  	vx_join	s5
80000e68: 13 04 14 00  	addi	s0, s0, 0x1
80000e6c: e3 40 24 ff  	blt	s0, s2, 0x80000e4c <label_loop>
80000e70: 83 30 01 03  	ld	ra, 0x30(sp)
80000e74: 83 3a 81 02  	ld	s5, 0x28(sp)
80000e78: 03 3a 01 02  	ld	s4, 0x20(sp)
80000e7c: 83 39 81 01  	ld	s3, 0x18(sp)
80000e80: 03 39 01 01  	ld	s2, 0x10(sp)
80000e84: 83 34 81 00  	ld	s1, 0x8(sp)
80000e88: 03 34 01 00  	ld	s0, 0x0(sp)
80000e8c: 13 01 81 03  	addi	sp, sp, 0x38
80000e90: 67 80 00 00  	ret

0000000080000e94 <vx_perf_dump>:
80000e94: 73 27 20 cc  	csrr	a4, cid
80000e98: 1b 07 07 00  	sext.w	a4, a4
80000e9c: 13 17 87 00  	slli	a4, a4, 0x8
80000ea0: 93 07 07 08  	addi	a5, a4, 0x80
80000ea4: f3 26 00 b0  	csrr	a3, mcycle
80000ea8: 23 30 d7 08  	sd	a3, 0x80(a4)
80000eac: 73 27 20 b0  	csrr	a4, minstret
80000eb0: 23 b8 e7 00  	sd	a4, 0x10(a5)
80000eb4: 73 27 30 b0  	csrr	a4, mhpmcounter3
80000eb8: 23 bc e7 00  	sd	a4, 0x18(a5)
80000ebc: 73 27 40 b0  	csrr	a4, mhpmcounter4
80000ec0: 23 b0 e7 02  	sd	a4, 0x20(a5)
80000ec4: 73 27 50 b0  	csrr	a4, mhpmcounter5
80000ec8: 23 b4 e7 02  	sd	a4, 0x28(a5)
80000ecc: 73 27 60 b0  	csrr	a4, mhpmcounter6
80000ed0: 23 b8 e7 02  	sd	a4, 0x30(a5)
80000ed4: 73 27 70 b0  	csrr	a4, mhpmcounter7
80000ed8: 23 bc e7 02  	sd	a4, 0x38(a5)
80000edc: 73 27 80 b0  	csrr	a4, mhpmcounter8
80000ee0: 23 b0 e7 04  	sd	a4, 0x40(a5)
80000ee4: 73 27 90 b0  	csrr	a4, mhpmcounter9
80000ee8: 23 b4 e7 04  	sd	a4, 0x48(a5)
80000eec: 73 27 a0 b0  	csrr	a4, mhpmcounter10
80000ef0: 23 b8 e7 04  	sd	a4, 0x50(a5)
80000ef4: 73 27 b0 b0  	csrr	a4, mhpmcounter11
80000ef8: 23 bc e7 04  	sd	a4, 0x58(a5)
80000efc: 73 27 c0 b0  	csrr	a4, mhpmcounter12
80000f00: 23 b0 e7 06  	sd	a4, 0x60(a5)
80000f04: 73 27 d0 b0  	csrr	a4, mhpmcounter13
80000f08: 23 b4 e7 06  	sd	a4, 0x68(a5)
80000f0c: 73 27 e0 b0  	csrr	a4, mhpmcounter14
80000f10: 23 b8 e7 06  	sd	a4, 0x70(a5)
80000f14: 73 27 f0 b0  	csrr	a4, mhpmcounter15
80000f18: 23 bc e7 06  	sd	a4, 0x78(a5)
80000f1c: 73 27 00 b1  	csrr	a4, mhpmcounter16
80000f20: 23 b0 e7 08  	sd	a4, 0x80(a5)
80000f24: 73 27 10 b1  	csrr	a4, mhpmcounter17
80000f28: 23 b4 e7 08  	sd	a4, 0x88(a5)
80000f2c: 73 27 20 b1  	csrr	a4, mhpmcounter18
80000f30: 23 b8 e7 08  	sd	a4, 0x90(a5)
80000f34: 73 27 30 b1  	csrr	a4, mhpmcounter19
80000f38: 23 bc e7 08  	sd	a4, 0x98(a5)
80000f3c: 73 27 40 b1  	csrr	a4, mhpmcounter20
80000f40: 23 b0 e7 0a  	sd	a4, 0xa0(a5)
80000f44: 73 27 50 b1  	csrr	a4, mhpmcounter21
80000f48: 23 b4 e7 0a  	sd	a4, 0xa8(a5)
80000f4c: 73 27 60 b1  	csrr	a4, mhpmcounter22
80000f50: 23 b8 e7 0a  	sd	a4, 0xb0(a5)
80000f54: 73 27 70 b1  	csrr	a4, mhpmcounter23
80000f58: 23 bc e7 0a  	sd	a4, 0xb8(a5)
80000f5c: 73 27 80 b1  	csrr	a4, mhpmcounter24
80000f60: 23 b0 e7 0c  	sd	a4, 0xc0(a5)
80000f64: 73 27 90 b1  	csrr	a4, mhpmcounter25
80000f68: 23 b4 e7 0c  	sd	a4, 0xc8(a5)
80000f6c: 73 27 a0 b1  	csrr	a4, mhpmcounter26
80000f70: 23 b8 e7 0c  	sd	a4, 0xd0(a5)
80000f74: 73 27 b0 b1  	csrr	a4, mhpmcounter27
80000f78: 23 bc e7 0c  	sd	a4, 0xd8(a5)
80000f7c: 73 27 c0 b1  	csrr	a4, mhpmcounter28
80000f80: 23 b0 e7 0e  	sd	a4, 0xe0(a5)
80000f84: 73 27 d0 b1  	csrr	a4, mhpmcounter29
80000f88: 23 b4 e7 0e  	sd	a4, 0xe8(a5)
80000f8c: 73 27 e0 b1  	csrr	a4, mhpmcounter30
80000f90: 23 b8 e7 0e  	sd	a4, 0xf0(a5)
80000f94: 73 27 f0 b1  	csrr	a4, mhpmcounter31
80000f98: 23 bc e7 0e  	sd	a4, 0xf8(a5)
80000f9c: 67 80 00 00  	ret

0000000080000fa0 <_out_null>:
80000fa0: 67 80 00 00  	ret

0000000080000fa4 <_out_rev>:
80000fa4: 13 01 01 fa  	addi	sp, sp, -0x60
80000fa8: 23 34 91 04  	sd	s1, 0x48(sp)
80000fac: 23 30 21 05  	sd	s2, 0x40(sp)
80000fb0: 23 3c 31 03  	sd	s3, 0x38(sp)
80000fb4: 23 38 41 03  	sd	s4, 0x30(sp)
80000fb8: 23 34 51 03  	sd	s5, 0x28(sp)
80000fbc: 23 30 61 03  	sd	s6, 0x20(sp)
80000fc0: 93 0a 06 00  	mv	s5, a2
80000fc4: 23 38 81 01  	sd	s8, 0x10(sp)
80000fc8: 23 34 91 01  	sd	s9, 0x8(sp)
80000fcc: 23 30 a1 01  	sd	s10, 0x0(sp)
80000fd0: 23 3c 11 04  	sd	ra, 0x58(sp)
80000fd4: 23 38 81 04  	sd	s0, 0x50(sp)
80000fd8: 23 3c 71 01  	sd	s7, 0x18(sp)
80000fdc: 13 f6 38 00  	andi	a2, a7, 0x3
80000fe0: 93 8c 08 00  	mv	s9, a7
80000fe4: 13 09 05 00  	mv	s2, a0
80000fe8: 93 89 05 00  	mv	s3, a1
80000fec: 13 8a 06 00  	mv	s4, a3
80000ff0: 13 0b 07 00  	mv	s6, a4
80000ff4: 13 8d 07 00  	mv	s10, a5
80000ff8: 13 0c 08 00  	mv	s8, a6
80000ffc: 93 84 0a 00  	mv	s1, s5
80001000: 63 1c 06 02  	bnez	a2, 0x80001038 <_out_rev+0x94>
80001004: 93 17 08 02  	slli	a5, a6, 0x20
80001008: 93 d7 07 02  	srli	a5, a5, 0x20
8000100c: b3 84 a7 41  	sub	s1, a5, s10
80001010: b3 84 54 01  	add	s1, s1, s5
80001014: 13 84 0a 00  	mv	s0, s5
80001018: 63 70 fd 0c  	bgeu	s10, a5, 0x800010d8 <_out_rev+0x134>
8000101c: 13 06 04 00  	mv	a2, s0
80001020: 93 06 0a 00  	mv	a3, s4
80001024: 13 04 14 00  	addi	s0, s0, 0x1
80001028: 93 85 09 00  	mv	a1, s3
8000102c: 13 05 00 02  	li	a0, 0x20
80001030: e7 00 09 00  	jalr	s2
80001034: e3 14 94 fe  	bne	s0, s1, 0x8000101c <_out_rev+0x78>
80001038: 33 04 ab 01  	add	s0, s6, s10
8000103c: b3 0b 94 00  	add	s7, s0, s1
80001040: 63 02 0d 02  	beqz	s10, 0x80001064 <_out_rev+0xc0>
80001044: 03 45 f4 ff  	lbu	a0, -0x1(s0)
80001048: 33 86 8b 40  	sub	a2, s7, s0
8000104c: 93 06 0a 00  	mv	a3, s4
80001050: 13 04 f4 ff  	addi	s0, s0, -0x1
80001054: 93 85 09 00  	mv	a1, s3
80001058: e7 00 09 00  	jalr	s2
8000105c: e3 14 8b fe  	bne	s6, s0, 0x80001044 <_out_rev+0xa0>
80001060: b3 84 a4 01  	add	s1, s1, s10
80001064: 93 fc 2c 00  	andi	s9, s9, 0x2
80001068: 63 8a 0c 02  	beqz	s9, 0x8000109c <_out_rev+0xf8>
8000106c: 13 1c 0c 02  	slli	s8, s8, 0x20
80001070: b3 8a 54 41  	sub	s5, s1, s5
80001074: 13 5c 0c 02  	srli	s8, s8, 0x20
80001078: 63 f2 8a 03  	bgeu	s5, s8, 0x8000109c <_out_rev+0xf8>
8000107c: 13 86 04 00  	mv	a2, s1
80001080: 93 8a 1a 00  	addi	s5, s5, 0x1
80001084: 93 06 0a 00  	mv	a3, s4
80001088: 93 85 09 00  	mv	a1, s3
8000108c: 13 05 00 02  	li	a0, 0x20
80001090: 93 84 14 00  	addi	s1, s1, 0x1
80001094: e7 00 09 00  	jalr	s2
80001098: e3 e2 8a ff  	bltu	s5, s8, 0x8000107c <_out_rev+0xd8>
8000109c: 83 30 81 05  	ld	ra, 0x58(sp)
800010a0: 03 34 01 05  	ld	s0, 0x50(sp)
800010a4: 03 39 01 04  	ld	s2, 0x40(sp)
800010a8: 83 39 81 03  	ld	s3, 0x38(sp)
800010ac: 03 3a 01 03  	ld	s4, 0x30(sp)
800010b0: 83 3a 81 02  	ld	s5, 0x28(sp)
800010b4: 03 3b 01 02  	ld	s6, 0x20(sp)
800010b8: 83 3b 81 01  	ld	s7, 0x18(sp)
800010bc: 03 3c 01 01  	ld	s8, 0x10(sp)
800010c0: 83 3c 81 00  	ld	s9, 0x8(sp)
800010c4: 03 3d 01 00  	ld	s10, 0x0(sp)
800010c8: 13 85 04 00  	mv	a0, s1
800010cc: 83 34 81 04  	ld	s1, 0x48(sp)
800010d0: 13 01 01 06  	addi	sp, sp, 0x60
800010d4: 67 80 00 00  	ret
800010d8: 93 84 0a 00  	mv	s1, s5
800010dc: 6f f0 df f5  	j	0x80001038 <_out_rev+0x94>

00000000800010e0 <_ntoa_long_long>:
800010e0: 13 01 01 fb  	addi	sp, sp, -0x50
800010e4: 23 30 81 04  	sd	s0, 0x40(sp)
800010e8: 03 24 81 05  	lw	s0, 0x58(sp)
800010ec: 23 3c 91 02  	sd	s1, 0x38(sp)
800010f0: 23 38 21 03  	sd	s2, 0x30(sp)
800010f4: 23 34 31 03  	sd	s3, 0x28(sp)
800010f8: 23 34 11 04  	sd	ra, 0x48(sp)
800010fc: 93 0e 08 00  	mv	t4, a6
80001100: 13 0e 07 00  	mv	t3, a4
80001104: 03 28 01 05  	lw	a6, 0x50(sp)
80001108: 93 84 07 00  	mv	s1, a5
8000110c: 93 79 04 40  	andi	s3, s0, 0x400
80001110: 13 79 04 01  	andi	s2, s0, 0x10
80001114: 63 1a 07 00  	bnez	a4, 0x80001128 <_ntoa_long_long+0x48>
80001118: 13 09 04 00  	mv	s2, s0
8000111c: 13 74 f4 fe  	andi	s0, s0, -0x11
80001120: 63 9e 09 0a  	bnez	s3, 0x800011dc <_ntoa_long_long+0xfc>
80001124: 13 09 00 00  	li	s2, 0x0
80001128: 93 77 04 02  	andi	a5, s0, 0x20
8000112c: 93 02 10 06  	li	t0, 0x61
80001130: 63 9c 07 12  	bnez	a5, 0x80001268 <_ntoa_long_long+0x188>
80001134: 93 07 00 00  	li	a5, 0x0
80001138: 13 07 01 00  	mv	a4, sp
8000113c: 93 03 90 00  	li	t2, 0x9
80001140: 9b 82 62 ff  	addiw	t0, t0, -0xa
80001144: 93 00 00 02  	li	ra, 0x20
80001148: 6f 00 c0 00  	j	0x80001154 <_ntoa_long_long+0x74>
8000114c: 63 8c 17 02  	beq	a5, ra, 0x80001184 <_ntoa_long_long+0xa4>
80001150: 13 0e 03 00  	mv	t3, t1
80001154: 33 7f de 03  	remu	t5, t3, t4
80001158: 13 73 ff 0f  	andi	t1, t5, 0xff
8000115c: 9b 0f 03 03  	addiw	t6, t1, 0x30
80001160: 3b 83 62 00  	addw	t1, t0, t1
80001164: 13 73 f3 0f  	andi	t1, t1, 0xff
80001168: 63 e4 e3 01  	bltu	t2, t5, 0x80001170 <_ntoa_long_long+0x90>
8000116c: 13 f3 ff 0f  	andi	t1, t6, 0xff
80001170: 93 87 17 00  	addi	a5, a5, 0x1
80001174: 33 0f f7 00  	add	t5, a4, a5
80001178: a3 0f 6f fe  	sb	t1, -0x1(t5)
8000117c: 33 53 de 03  	divu	t1, t3, t4
80001180: e3 76 de fd  	bgeu	t3, t4, 0x8000114c <_ntoa_long_long+0x6c>
80001184: 13 73 24 00  	andi	t1, s0, 0x2
80001188: 9b 83 0e 00  	sext.w	t2, t4
8000118c: 63 02 03 06  	beqz	t1, 0x800011f0 <_ntoa_long_long+0x110>
80001190: 63 00 09 12  	beqz	s2, 0x800012b0 <_ntoa_long_long+0x1d0>
80001194: 63 9e 09 16  	bnez	s3, 0x80001310 <_ntoa_long_long+0x230>
80001198: 63 9c 07 0c  	bnez	a5, 0x80001270 <_ntoa_long_long+0x190>
8000119c: 93 07 00 01  	li	a5, 0x10
800011a0: 63 80 fe 2c  	beq	t4, a5, 0x80001460 <_ntoa_long_long+0x380>
800011a4: 93 07 20 00  	li	a5, 0x2
800011a8: 63 86 f3 2c  	beq	t2, a5, 0x80001474 <_ntoa_long_long+0x394>
800011ac: 93 07 00 03  	li	a5, 0x30
800011b0: 23 00 f1 00  	sb	a5, 0x0(sp)
800011b4: 13 0e 10 00  	li	t3, 0x1
800011b8: 63 9e 04 18  	bnez	s1, 0x80001354 <_ntoa_long_long+0x274>
800011bc: 93 77 44 00  	andi	a5, s0, 0x4
800011c0: 63 86 07 22  	beqz	a5, 0x800013ec <_ntoa_long_long+0x30c>
800011c4: 93 07 0e 02  	addi	a5, t3, 0x20
800011c8: b3 88 27 00  	add	a7, a5, sp
800011cc: 13 03 b0 02  	li	t1, 0x2b
800011d0: 93 07 1e 00  	addi	a5, t3, 0x1
800011d4: 23 80 68 fe  	sb	t1, -0x20(a7)
800011d8: 6f 00 40 0e  	j	0x800012bc <_ntoa_long_long+0x1dc>
800011dc: 13 79 29 00  	andi	s2, s2, 0x2
800011e0: 63 16 09 18  	bnez	s2, 0x8000136c <_ntoa_long_long+0x28c>
800011e4: 9b 83 0e 00  	sext.w	t2, t4
800011e8: 93 07 00 00  	li	a5, 0x0
800011ec: 13 07 01 00  	mv	a4, sp
800011f0: 13 9e 08 02  	slli	t3, a7, 0x20
800011f4: 13 5e 0e 02  	srli	t3, t3, 0x20
800011f8: 63 14 08 0e  	bnez	a6, 0x800012e0 <_ntoa_long_long+0x200>
800011fc: e3 fa c7 f9  	bgeu	a5, t3, 0x80001190 <_ntoa_long_long+0xb0>
80001200: 13 03 00 02  	li	t1, 0x20
80001204: 93 72 14 00  	andi	t0, s0, 0x1
80001208: 63 8e 67 26  	beq	a5, t1, 0x80001484 <_ntoa_long_long+0x3a4>
8000120c: 13 0f 00 03  	li	t5, 0x30
80001210: 93 0f 00 02  	li	t6, 0x20
80001214: 6f 00 80 00  	j	0x8000121c <_ntoa_long_long+0x13c>
80001218: 63 8e f7 11  	beq	a5, t6, 0x80001334 <_ntoa_long_long+0x254>
8000121c: 93 87 17 00  	addi	a5, a5, 0x1
80001220: 33 03 f7 00  	add	t1, a4, a5
80001224: a3 0f e3 ff  	sb	t5, -0x1(t1)
80001228: e3 e8 c7 ff  	bltu	a5, t3, 0x80001218 <_ntoa_long_long+0x138>
8000122c: e3 82 02 f6  	beqz	t0, 0x80001190 <_ntoa_long_long+0xb0>
80001230: 13 1f 08 02  	slli	t5, a6, 0x20
80001234: 13 5f 0f 02  	srli	t5, t5, 0x20
80001238: e3 fc e7 f5  	bgeu	a5, t5, 0x80001190 <_ntoa_long_long+0xb0>
8000123c: 13 03 00 02  	li	t1, 0x20
80001240: 93 0f 00 03  	li	t6, 0x30
80001244: 93 02 00 02  	li	t0, 0x20
80001248: 63 96 67 00  	bne	a5, t1, 0x80001254 <_ntoa_long_long+0x174>
8000124c: 6f 00 00 0f  	j	0x8000133c <_ntoa_long_long+0x25c>
80001250: 63 8a 57 18  	beq	a5, t0, 0x800013e4 <_ntoa_long_long+0x304>
80001254: 93 87 17 00  	addi	a5, a5, 0x1
80001258: 33 03 f7 00  	add	t1, a4, a5
8000125c: a3 0f f3 ff  	sb	t6, -0x1(t1)
80001260: e3 98 e7 ff  	bne	a5, t5, 0x80001250 <_ntoa_long_long+0x170>
80001264: 6f f0 df f2  	j	0x80001190 <_ntoa_long_long+0xb0>
80001268: 93 02 10 04  	li	t0, 0x41
8000126c: 6f f0 9f ec  	j	0x80001134 <_ntoa_long_long+0x54>
80001270: 13 9e 08 02  	slli	t3, a7, 0x20
80001274: 13 5e 0e 02  	srli	t3, t3, 0x20
80001278: 63 08 fe 00  	beq	t3, a5, 0x80001288 <_ntoa_long_long+0x1a8>
8000127c: 93 18 08 02  	slli	a7, a6, 0x20
80001280: 93 d8 08 02  	srli	a7, a7, 0x20
80001284: 63 96 f8 08  	bne	a7, a5, 0x80001310 <_ntoa_long_long+0x230>
80001288: 93 88 f7 ff  	addi	a7, a5, -0x1
8000128c: 63 82 08 1a  	beqz	a7, 0x80001430 <_ntoa_long_long+0x350>
80001290: 13 03 00 01  	li	t1, 0x10
80001294: 63 8e 6e 1e  	beq	t4, t1, 0x80001490 <_ntoa_long_long+0x3b0>
80001298: 13 03 20 00  	li	t1, 0x2
8000129c: 63 86 63 12  	beq	t2, t1, 0x800013c8 <_ntoa_long_long+0x2e8>
800012a0: 93 88 08 02  	addi	a7, a7, 0x20
800012a4: b3 88 28 00  	add	a7, a7, sp
800012a8: 13 03 00 03  	li	t1, 0x30
800012ac: 23 80 68 fe  	sb	t1, -0x20(a7)
800012b0: 93 08 00 02  	li	a7, 0x20
800012b4: 13 8e 07 00  	mv	t3, a5
800012b8: e3 90 17 f1  	bne	a5, a7, 0x800011b8 <_ntoa_long_long+0xd8>
800012bc: 93 08 04 00  	mv	a7, s0
800012c0: ef f0 5f ce  	jal	0x80000fa4 <_out_rev>
800012c4: 83 30 81 04  	ld	ra, 0x48(sp)
800012c8: 03 34 01 04  	ld	s0, 0x40(sp)
800012cc: 83 34 81 03  	ld	s1, 0x38(sp)
800012d0: 03 39 01 03  	ld	s2, 0x30(sp)
800012d4: 83 39 81 02  	ld	s3, 0x28(sp)
800012d8: 13 01 01 05  	addi	sp, sp, 0x50
800012dc: 67 80 00 00  	ret
800012e0: 93 72 14 00  	andi	t0, s0, 0x1
800012e4: 13 03 04 00  	mv	t1, s0
800012e8: 63 88 02 08  	beqz	t0, 0x80001378 <_ntoa_long_long+0x298>
800012ec: 63 98 04 0e  	bnez	s1, 0x800013dc <_ntoa_long_long+0x2fc>
800012f0: 13 73 c3 00  	andi	t1, t1, 0xc
800012f4: 63 14 03 0e  	bnez	t1, 0x800013dc <_ntoa_long_long+0x2fc>
800012f8: e3 fc c7 f3  	bgeu	a5, t3, 0x80001230 <_ntoa_long_long+0x150>
800012fc: 13 03 00 02  	li	t1, 0x20
80001300: e3 96 67 f0  	bne	a5, t1, 0x8000120c <_ntoa_long_long+0x12c>
80001304: 63 ec 07 03  	bltu	a5, a6, 0x8000133c <_ntoa_long_long+0x25c>
80001308: e3 0a 09 fa  	beqz	s2, 0x800012bc <_ntoa_long_long+0x1dc>
8000130c: e3 86 09 e8  	beqz	s3, 0x80001198 <_ntoa_long_long+0xb8>
80001310: 93 08 00 01  	li	a7, 0x10
80001314: 63 8e 1e 07  	beq	t4, a7, 0x80001390 <_ntoa_long_long+0x2b0>
80001318: 93 08 20 00  	li	a7, 0x2
8000131c: 63 8e 13 09  	beq	t2, a7, 0x800013b8 <_ntoa_long_long+0x2d8>
80001320: 93 08 00 02  	li	a7, 0x20
80001324: e3 8c 17 f9  	beq	a5, a7, 0x800012bc <_ntoa_long_long+0x1dc>
80001328: 93 88 07 00  	mv	a7, a5
8000132c: 93 87 17 00  	addi	a5, a5, 0x1
80001330: 6f f0 1f f7  	j	0x800012a0 <_ntoa_long_long+0x1c0>
80001334: 63 82 02 1a  	beqz	t0, 0x800014d8 <_ntoa_long_long+0x3f8>
80001338: 63 f6 07 0b  	bgeu	a5, a6, 0x800013e4 <_ntoa_long_long+0x304>
8000133c: 93 07 00 02  	li	a5, 0x20
80001340: e3 0e 09 f6  	beqz	s2, 0x800012bc <_ntoa_long_long+0x1dc>
80001344: 63 90 09 18  	bnez	s3, 0x800014c4 <_ntoa_long_long+0x3e4>
80001348: e3 1a fe f2  	bne	t3, a5, 0x8000127c <_ntoa_long_long+0x19c>
8000134c: 93 08 f0 01  	li	a7, 0x1f
80001350: 6f f0 1f f4  	j	0x80001290 <_ntoa_long_long+0x1b0>
80001354: 93 07 0e 02  	addi	a5, t3, 0x20
80001358: b3 88 27 00  	add	a7, a5, sp
8000135c: 13 03 d0 02  	li	t1, 0x2d
80001360: 93 07 1e 00  	addi	a5, t3, 0x1
80001364: 23 80 68 fe  	sb	t1, -0x20(a7)
80001368: 6f f0 5f f5  	j	0x800012bc <_ntoa_long_long+0x1dc>
8000136c: 13 07 01 00  	mv	a4, sp
80001370: e3 86 04 e4  	beqz	s1, 0x800011bc <_ntoa_long_long+0xdc>
80001374: 6f f0 1f fe  	j	0x80001354 <_ntoa_long_long+0x274>
80001378: e3 fc c7 e1  	bgeu	a5, t3, 0x80001190 <_ntoa_long_long+0xb0>
8000137c: 13 03 00 02  	li	t1, 0x20
80001380: e3 96 67 e8  	bne	a5, t1, 0x8000120c <_ntoa_long_long+0x12c>
80001384: e3 0c 09 f2  	beqz	s2, 0x800012bc <_ntoa_long_long+0x1dc>
80001388: e3 94 09 f8  	bnez	s3, 0x80001310 <_ntoa_long_long+0x230>
8000138c: 6f f0 df ee  	j	0x80001278 <_ntoa_long_long+0x198>
80001390: 93 78 04 02  	andi	a7, s0, 0x20
80001394: 63 8e 08 06  	beqz	a7, 0x80001410 <_ntoa_long_long+0x330>
80001398: 93 08 00 02  	li	a7, 0x20
8000139c: e3 80 17 f3  	beq	a5, a7, 0x800012bc <_ntoa_long_long+0x1dc>
800013a0: 93 88 07 02  	addi	a7, a5, 0x20
800013a4: b3 88 28 00  	add	a7, a7, sp
800013a8: 13 03 80 05  	li	t1, 0x58
800013ac: 23 80 68 fe  	sb	t1, -0x20(a7)
800013b0: 93 87 17 00  	addi	a5, a5, 0x1
800013b4: 6f f0 df f6  	j	0x80001320 <_ntoa_long_long+0x240>
800013b8: 93 08 00 02  	li	a7, 0x20
800013bc: e3 80 17 f1  	beq	a5, a7, 0x800012bc <_ntoa_long_long+0x1dc>
800013c0: 93 88 07 00  	mv	a7, a5
800013c4: 93 87 17 00  	addi	a5, a5, 0x1
800013c8: 93 88 08 02  	addi	a7, a7, 0x20
800013cc: b3 88 28 00  	add	a7, a7, sp
800013d0: 13 03 20 06  	li	t1, 0x62
800013d4: 23 80 68 fe  	sb	t1, -0x20(a7)
800013d8: 6f f0 9f f4  	j	0x80001320 <_ntoa_long_long+0x240>
800013dc: 1b 08 f8 ff  	addiw	a6, a6, -0x1
800013e0: 6f f0 9f f1  	j	0x800012f8 <_ntoa_long_long+0x218>
800013e4: 93 07 00 02  	li	a5, 0x20
800013e8: 6f f0 df f9  	j	0x80001384 <_ntoa_long_long+0x2a4>
800013ec: 93 78 84 00  	andi	a7, s0, 0x8
800013f0: 93 07 0e 00  	mv	a5, t3
800013f4: e3 84 08 ec  	beqz	a7, 0x800012bc <_ntoa_long_long+0x1dc>
800013f8: 93 08 0e 02  	addi	a7, t3, 0x20
800013fc: 33 8e 28 00  	add	t3, a7, sp
80001400: 93 08 00 02  	li	a7, 0x20
80001404: 93 87 17 00  	addi	a5, a5, 0x1
80001408: 23 00 1e ff  	sb	a7, -0x20(t3)
8000140c: 6f f0 1f eb  	j	0x800012bc <_ntoa_long_long+0x1dc>
80001410: 93 08 00 02  	li	a7, 0x20
80001414: e3 84 17 eb  	beq	a5, a7, 0x800012bc <_ntoa_long_long+0x1dc>
80001418: 93 88 07 02  	addi	a7, a5, 0x20
8000141c: b3 88 28 00  	add	a7, a7, sp
80001420: 13 03 80 07  	li	t1, 0x78
80001424: 23 80 68 fe  	sb	t1, -0x20(a7)
80001428: 93 87 17 00  	addi	a5, a5, 0x1
8000142c: 6f f0 5f ef  	j	0x80001320 <_ntoa_long_long+0x240>
80001430: 93 07 00 01  	li	a5, 0x10
80001434: e3 98 fe d6  	bne	t4, a5, 0x800011a4 <_ntoa_long_long+0xc4>
80001438: 93 78 04 02  	andi	a7, s0, 0x20
8000143c: 93 07 80 07  	li	a5, 0x78
80001440: 63 84 08 00  	beqz	a7, 0x80001448 <_ntoa_long_long+0x368>
80001444: 93 07 80 05  	li	a5, 0x58
80001448: 23 00 f1 00  	sb	a5, 0x0(sp)
8000144c: 93 07 00 03  	li	a5, 0x30
80001450: a3 00 f1 00  	sb	a5, 0x1(sp)
80001454: 13 0e 20 00  	li	t3, 0x2
80001458: e3 82 04 d6  	beqz	s1, 0x800011bc <_ntoa_long_long+0xdc>
8000145c: 6f f0 9f ef  	j	0x80001354 <_ntoa_long_long+0x274>
80001460: 93 77 04 02  	andi	a5, s0, 0x20
80001464: 63 8c 07 00  	beqz	a5, 0x8000147c <_ntoa_long_long+0x39c>
80001468: 93 07 80 05  	li	a5, 0x58
8000146c: 23 00 f1 00  	sb	a5, 0x0(sp)
80001470: 6f f0 df fd  	j	0x8000144c <_ntoa_long_long+0x36c>
80001474: 93 07 20 06  	li	a5, 0x62
80001478: 6f f0 1f fd  	j	0x80001448 <_ntoa_long_long+0x368>
8000147c: 93 07 80 07  	li	a5, 0x78
80001480: 6f f0 9f fc  	j	0x80001448 <_ntoa_long_long+0x368>
80001484: e3 80 02 f0  	beqz	t0, 0x80001384 <_ntoa_long_long+0x2a4>
80001488: e3 12 09 e8  	bnez	s2, 0x8000130c <_ntoa_long_long+0x22c>
8000148c: 6f f0 1f e3  	j	0x800012bc <_ntoa_long_long+0x1dc>
80001490: 93 87 e7 ff  	addi	a5, a5, -0x2
80001494: 93 87 07 02  	addi	a5, a5, 0x20
80001498: 13 73 04 02  	andi	t1, s0, 0x20
8000149c: b3 87 27 00  	add	a5, a5, sp
800014a0: 63 1a 03 00  	bnez	t1, 0x800014b4 <_ntoa_long_long+0x3d4>
800014a4: 13 03 80 07  	li	t1, 0x78
800014a8: 23 80 67 fe  	sb	t1, -0x20(a5)
800014ac: 93 87 08 00  	mv	a5, a7
800014b0: 6f f0 9f e7  	j	0x80001328 <_ntoa_long_long+0x248>
800014b4: 13 03 80 05  	li	t1, 0x58
800014b8: 23 80 67 fe  	sb	t1, -0x20(a5)
800014bc: 93 87 08 00  	mv	a5, a7
800014c0: 6f f0 9f e6  	j	0x80001328 <_ntoa_long_long+0x248>
800014c4: 93 08 00 01  	li	a7, 0x10
800014c8: e3 84 1e ed  	beq	t4, a7, 0x80001390 <_ntoa_long_long+0x2b0>
800014cc: 93 08 20 00  	li	a7, 0x2
800014d0: e3 98 13 e5  	bne	t2, a7, 0x80001320 <_ntoa_long_long+0x240>
800014d4: 6f f0 9f de  	j	0x800012bc <_ntoa_long_long+0x1dc>
800014d8: e3 02 09 de  	beqz	s2, 0x800012bc <_ntoa_long_long+0x1dc>
800014dc: e3 94 09 fe  	bnez	s3, 0x800014c4 <_ntoa_long_long+0x3e4>
800014e0: e3 9e f8 d8  	bne	a7, a5, 0x8000127c <_ntoa_long_long+0x19c>
800014e4: 93 08 f0 01  	li	a7, 0x1f
800014e8: 6f f0 9f da  	j	0x80001290 <_ntoa_long_long+0x1b0>

00000000800014ec <_out_char>:
800014ec: 63 14 05 00  	bnez	a0, 0x800014f4 <_out_char+0x8>
800014f0: 67 80 00 00  	ret
800014f4: 6f f0 cf 8a  	j	0x800005a0 <vx_putchar>

00000000800014f8 <_ftoa>:
800014f8: 53 23 a5 a2  	feq.d	t1, fa0, fa0
800014fc: 93 08 08 00  	mv	a7, a6
80001500: 63 00 03 20  	beqz	t1, 0x80001700 <_ftoa+0x208>
80001504: 17 38 00 00  	auipc	a6, 0x3
80001508: 87 37 c8 cd  	fld	fa5, -0x324(a6)
8000150c: 53 18 f5 a2  	flt.d	a6, fa0, fa5
80001510: 63 12 08 26  	bnez	a6, 0x80001774 <_ftoa+0x27c>
80001514: 13 01 01 fc  	addi	sp, sp, -0x40
80001518: 23 34 91 02  	sd	s1, 0x28(sp)
8000151c: 93 84 06 00  	mv	s1, a3
80001520: 97 36 00 00  	auipc	a3, 0x3
80001524: 87 b7 86 cc  	fld	fa5, -0x338(a3)
80001528: d3 96 a7 a2  	flt.d	a3, fa5, fa0
8000152c: 23 38 81 02  	sd	s0, 0x30(sp)
80001530: 23 3c 11 02  	sd	ra, 0x38(sp)
80001534: 23 30 21 03  	sd	s2, 0x20(sp)
80001538: 93 02 05 00  	mv	t0, a0
8000153c: 93 83 05 00  	mv	t2, a1
80001540: 13 04 06 00  	mv	s0, a2
80001544: 63 9c 06 16  	bnez	a3, 0x800016bc <_ftoa+0x1c4>
80001548: 97 36 00 00  	auipc	a3, 0x3
8000154c: 87 b7 86 c8  	fld	fa5, -0x378(a3)
80001550: d3 96 a7 a2  	flt.d	a3, fa5, fa0
80001554: 63 9a 06 1e  	bnez	a3, 0x80001748 <_ftoa+0x250>
80001558: 97 36 00 00  	auipc	a3, 0x3
8000155c: 07 b7 86 c9  	fld	fa4, -0x368(a3)
80001560: d3 16 e5 a2  	flt.d	a3, fa0, fa4
80001564: 63 92 06 1e  	bnez	a3, 0x80001748 <_ftoa+0x250>
80001568: 53 07 00 f2  	fmv.d.x	fa4, zero
8000156c: 93 05 00 00  	li	a1, 0x0
80001570: d3 16 e5 a2  	flt.d	a3, fa0, fa4
80001574: 63 94 06 1c  	bnez	a3, 0x8000173c <_ftoa+0x244>
80001578: 93 f6 08 40  	andi	a3, a7, 0x400
8000157c: 63 8c 06 18  	beqz	a3, 0x80001714 <_ftoa+0x21c>
80001580: 93 06 90 00  	li	a3, 0x9
80001584: 63 fa e6 38  	bgeu	a3, a4, 0x80001918 <_ftoa+0x420>
80001588: 1b 03 77 ff  	addiw	t1, a4, -0x9
8000158c: 13 13 03 02  	slli	t1, t1, 0x20
80001590: 13 53 03 02  	srli	t1, t1, 0x20
80001594: 13 0e 00 00  	li	t3, 0x0
80001598: 13 0f 01 00  	mv	t5, sp
8000159c: 13 06 00 03  	li	a2, 0x30
800015a0: 93 06 00 02  	li	a3, 0x20
800015a4: 13 0e 1e 00  	addi	t3, t3, 0x1
800015a8: b3 0e cf 01  	add	t4, t5, t3
800015ac: a3 8f ce fe  	sb	a2, -0x1(t4)
800015b0: bb 0f c7 41  	subw	t6, a4, t3
800015b4: 63 08 de 2c  	beq	t3, a3, 0x80001884 <_ftoa+0x38c>
800015b8: e3 16 6e fe  	bne	t3, t1, 0x800015a4 <_ftoa+0xac>
800015bc: 53 87 f7 22  	fmv.d	fa4, fa5
800015c0: d3 16 05 c2  	fcvt.w.d	a3, fa0, rtz
800015c4: 17 37 00 00  	auipc	a4, 0x3
800015c8: 87 36 47 c3  	fld	fa3, -0x3cc(a4)
800015cc: d3 87 06 d2  	fcvt.d.w	fa5, a3
800015d0: 1b 8e 06 00  	sext.w	t3, a3
800015d4: d3 77 f5 0a  	fsub.d	fa5, fa0, fa5
800015d8: d3 f7 e7 12  	fmul.d	fa5, fa5, fa4
800015dc: 53 97 37 c2  	fcvt.lu.d	a4, fa5, rtz
800015e0: 53 76 37 d2  	fcvt.d.lu	fa2, a4
800015e4: d3 f7 c7 0a  	fsub.d	fa5, fa5, fa2
800015e8: 53 96 f6 a2  	flt.d	a2, fa3, fa5
800015ec: 63 0e 06 22  	beqz	a2, 0x80001828 <_ftoa+0x330>
800015f0: 13 07 17 00  	addi	a4, a4, 0x1
800015f4: d3 77 37 d2  	fcvt.d.lu	fa5, a4
800015f8: 53 06 f7 a2  	fle.d	a2, fa4, fa5
800015fc: 63 06 06 00  	beqz	a2, 0x80001608 <_ftoa+0x110>
80001600: 1b 8e 16 00  	addiw	t3, a3, 0x1
80001604: 13 07 00 00  	li	a4, 0x0
80001608: 63 9a 0f 1c  	bnez	t6, 0x800017dc <_ftoa+0x2e4>
8000160c: d3 07 0e d2  	fcvt.d.w	fa5, t3
80001610: 53 75 f5 0a  	fsub.d	fa0, fa0, fa5
80001614: 53 17 d5 a2  	flt.d	a4, fa0, fa3
80001618: 63 06 07 00  	beqz	a4, 0x80001624 <_ftoa+0x12c>
8000161c: 53 97 a6 a2  	flt.d	a4, fa3, fa0
80001620: 63 08 07 00  	beqz	a4, 0x80001630 <_ftoa+0x138>
80001624: 13 77 1e 00  	andi	a4, t3, 0x1
80001628: 63 04 07 00  	beqz	a4, 0x80001630 <_ftoa+0x138>
8000162c: 1b 0e 1e 00  	addiw	t3, t3, 0x1
80001630: 13 06 00 02  	li	a2, 0x20
80001634: 13 07 a0 00  	li	a4, 0xa
80001638: 63 08 c3 14  	beq	t1, a2, 0x80001788 <_ftoa+0x290>
8000163c: bb 6e ee 02  	remw	t4, t3, a4
80001640: 13 03 13 00  	addi	t1, t1, 0x1
80001644: b3 06 6f 00  	add	a3, t5, t1
80001648: 3b 4e ee 02  	divw	t3, t3, a4
8000164c: 9b 8e 0e 03  	addiw	t4, t4, 0x30
80001650: a3 8f d6 ff  	sb	t4, -0x1(a3)
80001654: e3 12 0e fe  	bnez	t3, 0x80001638 <_ftoa+0x140>
80001658: 13 f7 38 00  	andi	a4, a7, 0x3
8000165c: 93 06 10 00  	li	a3, 0x1
80001660: 63 00 d7 2e  	beq	a4, a3, 0x80001940 <_ftoa+0x448>
80001664: 13 07 00 02  	li	a4, 0x20
80001668: 63 0e e3 00  	beq	t1, a4, 0x80001684 <_ftoa+0x18c>
8000166c: 63 86 05 22  	beqz	a1, 0x80001898 <_ftoa+0x3a0>
80001670: 13 07 03 02  	addi	a4, t1, 0x20
80001674: 33 07 27 00  	add	a4, a4, sp
80001678: 93 06 d0 02  	li	a3, 0x2d
8000167c: 23 00 d7 fe  	sb	a3, -0x20(a4)
80001680: 13 03 13 00  	addi	t1, t1, 0x1
80001684: 13 88 07 00  	mv	a6, a5
80001688: 93 86 04 00  	mv	a3, s1
8000168c: 13 06 04 00  	mv	a2, s0
80001690: 93 07 03 00  	mv	a5, t1
80001694: 13 07 0f 00  	mv	a4, t5
80001698: 93 85 03 00  	mv	a1, t2
8000169c: 13 85 02 00  	mv	a0, t0
800016a0: ef f0 5f 90  	jal	0x80000fa4 <_out_rev>
800016a4: 83 30 81 03  	ld	ra, 0x38(sp)
800016a8: 03 34 01 03  	ld	s0, 0x30(sp)
800016ac: 83 34 81 02  	ld	s1, 0x28(sp)
800016b0: 03 39 01 02  	ld	s2, 0x20(sp)
800016b4: 13 01 01 04  	addi	sp, sp, 0x40
800016b8: 67 80 00 00  	ret
800016bc: 13 f7 48 00  	andi	a4, a7, 0x4
800016c0: 63 16 07 06  	bnez	a4, 0x8000172c <_ftoa+0x234>
800016c4: 17 27 00 00  	auipc	a4, 0x2
800016c8: 13 07 c7 86  	addi	a4, a4, -0x794
800016cc: 93 06 30 00  	li	a3, 0x3
800016d0: 13 06 04 00  	mv	a2, s0
800016d4: 03 34 01 03  	ld	s0, 0x30(sp)
800016d8: 83 30 81 03  	ld	ra, 0x38(sp)
800016dc: 03 39 01 02  	ld	s2, 0x20(sp)
800016e0: 13 88 07 00  	mv	a6, a5
800016e4: 93 87 06 00  	mv	a5, a3
800016e8: 93 86 04 00  	mv	a3, s1
800016ec: 83 34 81 02  	ld	s1, 0x28(sp)
800016f0: 93 85 03 00  	mv	a1, t2
800016f4: 13 85 02 00  	mv	a0, t0
800016f8: 13 01 01 04  	addi	sp, sp, 0x40
800016fc: 6f f0 9f 8a  	j	0x80000fa4 <_out_rev>
80001700: 13 88 07 00  	mv	a6, a5
80001704: 17 27 00 00  	auipc	a4, 0x2
80001708: 13 07 47 83  	addi	a4, a4, -0x7cc
8000170c: 93 07 30 00  	li	a5, 0x3
80001710: 6f f0 5f 89  	j	0x80000fa4 <_out_rev>
80001714: 17 37 00 00  	auipc	a4, 0x3
80001718: 07 37 47 ac  	fld	fa4, -0x53c(a4)
8000171c: 93 0f 60 00  	li	t6, 0x6
80001720: 13 03 00 00  	li	t1, 0x0
80001724: 13 0f 01 00  	mv	t5, sp
80001728: 6f f0 9f e9  	j	0x800015c0 <_ftoa+0xc8>
8000172c: 17 17 00 00  	auipc	a4, 0x1
80001730: 13 07 c7 7f  	addi	a4, a4, 0x7fc
80001734: 93 06 40 00  	li	a3, 0x4
80001738: 6f f0 9f f9  	j	0x800016d0 <_ftoa+0x1d8>
8000173c: 53 75 a7 0a  	fsub.d	fa0, fa4, fa0
80001740: 93 05 10 00  	li	a1, 0x1
80001744: 6f f0 5f e3  	j	0x80001578 <_ftoa+0x80>
80001748: 13 06 04 00  	mv	a2, s0
8000174c: 03 34 01 03  	ld	s0, 0x30(sp)
80001750: 83 30 81 03  	ld	ra, 0x38(sp)
80001754: 03 39 01 02  	ld	s2, 0x20(sp)
80001758: 93 86 04 00  	mv	a3, s1
8000175c: 83 34 81 02  	ld	s1, 0x28(sp)
80001760: 13 88 08 00  	mv	a6, a7
80001764: 93 85 03 00  	mv	a1, t2
80001768: 13 85 02 00  	mv	a0, t0
8000176c: 13 01 01 04  	addi	sp, sp, 0x40
80001770: 6f 00 80 1d  	j	0x80001948 <_etoa>
80001774: 13 88 07 00  	mv	a6, a5
80001778: 17 17 00 00  	auipc	a4, 0x1
8000177c: 13 07 87 7c  	addi	a4, a4, 0x7c8
80001780: 93 07 40 00  	li	a5, 0x4
80001784: 6f f0 1f 82  	j	0x80000fa4 <_out_rev>
80001788: 13 f7 38 00  	andi	a4, a7, 0x3
8000178c: 93 06 10 00  	li	a3, 0x1
80001790: e3 1a d7 ee  	bne	a4, a3, 0x80001684 <_ftoa+0x18c>
80001794: e3 88 07 ee  	beqz	a5, 0x80001684 <_ftoa+0x18c>
80001798: 63 96 05 16  	bnez	a1, 0x80001904 <_ftoa+0x40c>
8000179c: 13 f7 c8 00  	andi	a4, a7, 0xc
800017a0: 63 12 07 16  	bnez	a4, 0x80001904 <_ftoa+0x40c>
800017a4: 13 96 07 02  	slli	a2, a5, 0x20
800017a8: 13 56 06 02  	srli	a2, a2, 0x20
800017ac: 63 72 c3 0e  	bgeu	t1, a2, 0x80001890 <_ftoa+0x398>
800017b0: 13 07 00 02  	li	a4, 0x20
800017b4: 93 06 00 03  	li	a3, 0x30
800017b8: 13 05 00 02  	li	a0, 0x20
800017bc: 63 0c e3 00  	beq	t1, a4, 0x800017d4 <_ftoa+0x2dc>
800017c0: 13 03 13 00  	addi	t1, t1, 0x1
800017c4: 33 07 6f 00  	add	a4, t5, t1
800017c8: a3 0f d7 fe  	sb	a3, -0x1(a4)
800017cc: e3 0c c3 e8  	beq	t1, a2, 0x80001664 <_ftoa+0x16c>
800017d0: e3 18 a3 fe  	bne	t1, a0, 0x800017c0 <_ftoa+0x2c8>
800017d4: 13 03 00 02  	li	t1, 0x20
800017d8: 6f f0 df ea  	j	0x80001684 <_ftoa+0x18c>
800017dc: 9b 80 0f fe  	addiw	ra, t6, -0x20
800017e0: bb 80 60 00  	addw	ra, ra, t1
800017e4: 13 06 a0 00  	li	a2, 0xa
800017e8: 13 09 90 00  	li	s2, 0x9
800017ec: 6f 00 80 02  	j	0x80001814 <_ftoa+0x31c>
800017f0: b3 76 c7 02  	remu	a3, a4, a2
800017f4: 1b 88 ff ff  	addiw	a6, t6, -0x1
800017f8: 9b 86 06 03  	addiw	a3, a3, 0x30
800017fc: a3 0f d5 fe  	sb	a3, -0x1(a0)
80001800: b3 56 c7 02  	divu	a3, a4, a2
80001804: 63 7c e9 02  	bgeu	s2, a4, 0x8000183c <_ftoa+0x344>
80001808: 93 0f 08 00  	mv	t6, a6
8000180c: 13 83 0e 00  	mv	t1, t4
80001810: 13 87 06 00  	mv	a4, a3
80001814: 93 0e 13 00  	addi	t4, t1, 0x1
80001818: 33 05 df 01  	add	a0, t5, t4
8000181c: e3 9a 1f fc  	bne	t6, ra, 0x800017f0 <_ftoa+0x2f8>
80001820: 13 03 00 02  	li	t1, 0x20
80001824: 6f f0 df e0  	j	0x80001630 <_ftoa+0x138>
80001828: d3 96 d7 a2  	flt.d	a3, fa5, fa3
8000182c: e3 9e 06 dc  	bnez	a3, 0x80001608 <_ftoa+0x110>
80001830: 63 12 07 0c  	bnez	a4, 0x800018f4 <_ftoa+0x3fc>
80001834: 13 07 17 00  	addi	a4, a4, 0x1
80001838: 6f f0 1f dd  	j	0x80001608 <_ftoa+0x110>
8000183c: 13 07 00 02  	li	a4, 0x20
80001840: e3 80 ee fe  	beq	t4, a4, 0x80001820 <_ftoa+0x328>
80001844: 9b 8f ef ff  	addiw	t6, t6, -0x2
80001848: 63 0c 08 06  	beqz	a6, 0x800018c0 <_ftoa+0x3c8>
8000184c: 93 9f 0f 02  	slli	t6, t6, 0x20
80001850: 13 03 23 00  	addi	t1, t1, 0x2
80001854: 93 df 0f 02  	srli	t6, t6, 0x20
80001858: 33 03 f3 01  	add	t1, t1, t6
8000185c: 13 06 00 03  	li	a2, 0x30
80001860: 93 06 00 02  	li	a3, 0x20
80001864: 6f 00 80 00  	j	0x8000186c <_ftoa+0x374>
80001868: 63 8e 6e 04  	beq	t4, t1, 0x800018c4 <_ftoa+0x3cc>
8000186c: 93 8e 1e 00  	addi	t4, t4, 0x1
80001870: 33 07 df 01  	add	a4, t5, t4
80001874: a3 0f c7 fe  	sb	a2, -0x1(a4)
80001878: e3 98 de fe  	bne	t4, a3, 0x80001868 <_ftoa+0x370>
8000187c: 13 03 00 02  	li	t1, 0x20
80001880: 6f f0 1f db  	j	0x80001630 <_ftoa+0x138>
80001884: 53 87 f7 22  	fmv.d	fa4, fa5
80001888: 13 03 00 02  	li	t1, 0x20
8000188c: 6f f0 5f d3  	j	0x800015c0 <_ftoa+0xc8>
80001890: 13 07 00 02  	li	a4, 0x20
80001894: e3 08 e3 de  	beq	t1, a4, 0x80001684 <_ftoa+0x18c>
80001898: 13 f7 48 00  	andi	a4, a7, 0x4
8000189c: 63 10 07 04  	bnez	a4, 0x800018dc <_ftoa+0x3e4>
800018a0: 13 f7 88 00  	andi	a4, a7, 0x8
800018a4: e3 00 07 de  	beqz	a4, 0x80001684 <_ftoa+0x18c>
800018a8: 13 07 03 02  	addi	a4, t1, 0x20
800018ac: 33 07 27 00  	add	a4, a4, sp
800018b0: 93 06 00 02  	li	a3, 0x20
800018b4: 23 00 d7 fe  	sb	a3, -0x20(a4)
800018b8: 13 03 13 00  	addi	t1, t1, 0x1
800018bc: 6f f0 9f dc  	j	0x80001684 <_ftoa+0x18c>
800018c0: 13 83 0e 00  	mv	t1, t4
800018c4: 13 07 03 02  	addi	a4, t1, 0x20
800018c8: 33 07 27 00  	add	a4, a4, sp
800018cc: 93 06 e0 02  	li	a3, 0x2e
800018d0: 13 03 13 00  	addi	t1, t1, 0x1
800018d4: 23 00 d7 fe  	sb	a3, -0x20(a4)
800018d8: 6f f0 9f d5  	j	0x80001630 <_ftoa+0x138>
800018dc: 13 07 03 02  	addi	a4, t1, 0x20
800018e0: 33 07 27 00  	add	a4, a4, sp
800018e4: 93 06 b0 02  	li	a3, 0x2b
800018e8: 23 00 d7 fe  	sb	a3, -0x20(a4)
800018ec: 13 03 13 00  	addi	t1, t1, 0x1
800018f0: 6f f0 5f d9  	j	0x80001684 <_ftoa+0x18c>
800018f4: 93 76 17 00  	andi	a3, a4, 0x1
800018f8: e3 88 06 d0  	beqz	a3, 0x80001608 <_ftoa+0x110>
800018fc: 13 07 17 00  	addi	a4, a4, 0x1
80001900: 6f f0 9f d0  	j	0x80001608 <_ftoa+0x110>
80001904: 9b 87 f7 ff  	addiw	a5, a5, -0x1
80001908: 13 96 07 02  	slli	a2, a5, 0x20
8000190c: 13 56 06 02  	srli	a2, a2, 0x20
80001910: e3 60 c3 ea  	bltu	t1, a2, 0x800017b0 <_ftoa+0x2b8>
80001914: 6f f0 1f d5  	j	0x80001664 <_ftoa+0x16c>
80001918: 93 16 07 02  	slli	a3, a4, 0x20
8000191c: 13 d6 d6 01  	srli	a2, a3, 0x1d
80001920: 97 16 00 00  	auipc	a3, 0x1
80001924: 93 86 86 7c  	addi	a3, a3, 0x7c8
80001928: b3 86 c6 00  	add	a3, a3, a2
8000192c: 07 b7 06 00  	fld	fa4, 0x0(a3)
80001930: 93 0f 07 00  	mv	t6, a4
80001934: 13 03 00 00  	li	t1, 0x0
80001938: 13 0f 01 00  	mv	t5, sp
8000193c: 6f f0 5f c8  	j	0x800015c0 <_ftoa+0xc8>
80001940: e3 82 07 d2  	beqz	a5, 0x80001664 <_ftoa+0x16c>
80001944: 6f f0 5f e5  	j	0x80001798 <_ftoa+0x2a0>

0000000080001948 <_etoa>:
80001948: d3 28 a5 a2  	feq.d	a7, fa0, fa0
8000194c: 13 01 01 f9  	addi	sp, sp, -0x70
80001950: 23 30 81 06  	sd	s0, 0x60(sp)
80001954: 23 38 21 05  	sd	s2, 0x50(sp)
80001958: 23 34 31 05  	sd	s3, 0x48(sp)
8000195c: 23 30 41 05  	sd	s4, 0x40(sp)
80001960: 23 3c 51 03  	sd	s5, 0x38(sp)
80001964: 23 38 61 03  	sd	s6, 0x30(sp)
80001968: 23 34 11 06  	sd	ra, 0x68(sp)
8000196c: 23 3c 91 04  	sd	s1, 0x58(sp)
80001970: 23 34 71 03  	sd	s7, 0x28(sp)
80001974: 23 30 81 03  	sd	s8, 0x20(sp)
80001978: 23 3c 91 01  	sd	s9, 0x18(sp)
8000197c: 13 0a 05 00  	mv	s4, a0
80001980: 93 8a 05 00  	mv	s5, a1
80001984: 13 09 06 00  	mv	s2, a2
80001988: 13 8b 06 00  	mv	s6, a3
8000198c: 93 89 07 00  	mv	s3, a5
80001990: 13 04 08 00  	mv	s0, a6
80001994: 63 84 08 2e  	beqz	a7, 0x80001c7c <_etoa+0x334>
80001998: 97 37 00 00  	auipc	a5, 0x3
8000199c: 87 b7 07 85  	fld	fa5, -0x7b0(a5)
800019a0: d3 97 a7 a2  	flt.d	a5, fa5, fa0
800019a4: 63 9c 07 2c  	bnez	a5, 0x80001c7c <_etoa+0x334>
800019a8: 97 37 00 00  	auipc	a5, 0x3
800019ac: 87 b7 87 83  	fld	fa5, -0x7c8(a5)
800019b0: d3 17 f5 a2  	flt.d	a5, fa0, fa5
800019b4: 63 94 07 2c  	bnez	a5, 0x80001c7c <_etoa+0x334>
800019b8: d3 07 00 f2  	fmv.d.x	fa5, zero
800019bc: d3 06 05 e2  	fmv.x.d	a3, fa0
800019c0: d3 17 f5 a2  	flt.d	a5, fa0, fa5
800019c4: 63 86 07 00  	beqz	a5, 0x800019d0 <_etoa+0x88>
800019c8: d3 17 a5 22  	fneg.d	fa5, fa0
800019cc: d3 86 07 e2  	fmv.x.d	a3, fa5
800019d0: 93 75 04 40  	andi	a1, s0, 0x400
800019d4: 63 94 05 00  	bnez	a1, 0x800019dc <_etoa+0x94>
800019d8: 13 07 60 00  	li	a4, 0x6
800019dc: 93 d7 46 03  	srli	a5, a3, 0x34
800019e0: 93 f7 f7 7f  	andi	a5, a5, 0x7ff
800019e4: 17 36 00 00  	auipc	a2, 0x3
800019e8: 87 36 c6 81  	fld	fa3, -0x7e4(a2)
800019ec: 17 36 00 00  	auipc	a2, 0x3
800019f0: 07 37 c6 81  	fld	fa4, -0x7e4(a2)
800019f4: 9b 87 17 c0  	addiw	a5, a5, -0x3ff
800019f8: 53 86 07 d2  	fcvt.d.w	fa2, a5
800019fc: 13 06 f0 3f  	li	a2, 0x3ff
80001a00: 93 97 c6 00  	slli	a5, a3, 0xc
80001a04: 13 16 46 03  	slli	a2, a2, 0x34
80001a08: 93 d7 c7 00  	srli	a5, a5, 0xc
80001a0c: b3 e7 c7 00  	or	a5, a5, a2
80001a10: 43 76 d6 72  	fmadd.d	fa2, fa2, fa3, fa4
80001a14: 53 87 07 f2  	fmv.d.x	fa4, a5
80001a18: 17 26 00 00  	auipc	a2, 0x2
80001a1c: 87 37 86 7f  	fld	fa5, 0x7f8(a2)
80001a20: 97 27 00 00  	auipc	a5, 0x2
80001a24: 87 b5 87 7f  	fld	fa1, 0x7f8(a5)
80001a28: d3 77 f7 0a  	fsub.d	fa5, fa4, fa5
80001a2c: 97 27 00 00  	auipc	a5, 0x2
80001a30: 87 b6 47 7f  	fld	fa3, 0x7f4(a5)
80001a34: 97 27 00 00  	auipc	a5, 0x2
80001a38: 07 b2 47 7c  	fld	ft4, 0x7c4(a5)
80001a3c: 97 27 00 00  	auipc	a5, 0x2
80001a40: 87 b1 c7 7e  	fld	ft3, 0x7ec(a5)
80001a44: 97 27 00 00  	auipc	a5, 0x2
80001a48: 07 b1 c7 7e  	fld	ft2, 0x7ec(a5)
80001a4c: 97 27 00 00  	auipc	a5, 0x2
80001a50: 07 b7 c7 7e  	fld	fa4, 0x7ec(a5)
80001a54: 97 27 00 00  	auipc	a5, 0x2
80001a58: 87 b0 47 7f  	fld	ft1, 0x7f4(a5)
80001a5c: c3 f7 b7 62  	fmadd.d	fa5, fa5, fa1, fa2
80001a60: 97 27 00 00  	auipc	a5, 0x2
80001a64: 07 b0 87 7f  	fld	ft0, 0x7f8(a5)
80001a68: 97 27 00 00  	auipc	a5, 0x2
80001a6c: 87 b5 87 7d  	fld	fa1, 0x7d8(a5)
80001a70: 97 27 00 00  	auipc	a5, 0x2
80001a74: 07 b6 07 7e  	fld	fa2, 0x7e0(a5)
80001a78: 53 96 07 c2  	fcvt.w.d	a2, fa5, rtz
80001a7c: d3 07 06 d2  	fcvt.d.w	fa5, a2
80001a80: 1b 0c 06 00  	sext.w	s8, a2
80001a84: c3 f6 d7 22  	fmadd.d	fa3, fa5, fa3, ft4
80001a88: d3 97 06 c2  	fcvt.w.d	a5, fa3, rtz
80001a8c: d3 86 07 d2  	fcvt.d.w	fa3, a5
80001a90: 9b 87 f7 3f  	addiw	a5, a5, 0x3ff
80001a94: 93 97 47 03  	slli	a5, a5, 0x34
80001a98: d3 f6 36 12  	fmul.d	fa3, fa3, ft3
80001a9c: c7 f7 27 6a  	fmsub.d	fa5, fa5, ft2, fa3
80001aa0: d3 f6 f7 12  	fmul.d	fa3, fa5, fa5
80001aa4: 53 76 f6 0a  	fsub.d	fa2, fa2, fa5
80001aa8: d3 f7 f7 02  	fadd.d	fa5, fa5, fa5
80001aac: 53 f7 e6 1a  	fdiv.d	fa4, fa3, fa4
80001ab0: 53 77 b7 02  	fadd.d	fa4, fa4, fa1
80001ab4: 53 f7 e6 1a  	fdiv.d	fa4, fa3, fa4
80001ab8: 53 77 17 02  	fadd.d	fa4, fa4, ft1
80001abc: d3 f6 e6 1a  	fdiv.d	fa3, fa3, fa4
80001ac0: 53 87 07 f2  	fmv.d.x	fa4, a5
80001ac4: d3 f6 c6 02  	fadd.d	fa3, fa3, fa2
80001ac8: d3 f7 d7 1a  	fdiv.d	fa5, fa5, fa3
80001acc: d3 f7 07 02  	fadd.d	fa5, fa5, ft0
80001ad0: d3 f7 e7 12  	fmul.d	fa5, fa5, fa4
80001ad4: 53 87 06 f2  	fmv.d.x	fa4, a3
80001ad8: d3 17 f7 a2  	flt.d	a5, fa4, fa5
80001adc: 63 86 07 00  	beqz	a5, 0x80001ae8 <_etoa+0x1a0>
80001ae0: d3 f7 b7 1a  	fdiv.d	fa5, fa5, fa1
80001ae4: 1b 0c f6 ff  	addiw	s8, a2, -0x1
80001ae8: 9b 0c 3c 06  	addiw	s9, s8, 0x63
80001aec: 93 57 b4 00  	srli	a5, s0, 0xb
80001af0: 13 06 60 0c  	li	a2, 0xc6
80001af4: b3 3c 96 01  	sltu	s9, a2, s9
80001af8: 93 f7 17 00  	andi	a5, a5, 0x1
80001afc: 93 8c 4c 00  	addi	s9, s9, 0x4
80001b00: 63 84 07 04  	beqz	a5, 0x80001b48 <_etoa+0x200>
80001b04: d3 86 06 f2  	fmv.d.x	fa3, a3
80001b08: 97 27 00 00  	auipc	a5, 0x2
80001b0c: 07 b7 87 75  	fld	fa4, 0x758(a5)
80001b10: d3 07 d7 a2  	fle.d	a5, fa4, fa3
80001b14: 63 82 07 1c  	beqz	a5, 0x80001cd8 <_etoa+0x390>
80001b18: 97 27 00 00  	auipc	a5, 0x2
80001b1c: 07 b7 07 6c  	fld	fa4, 0x6c0(a5)
80001b20: d3 97 e6 a2  	flt.d	a5, fa3, fa4
80001b24: 63 8a 07 1a  	beqz	a5, 0x80001cd8 <_etoa+0x390>
80001b28: 9b 07 07 00  	sext.w	a5, a4
80001b2c: 13 07 00 00  	li	a4, 0x0
80001b30: 63 56 fc 00  	bge	s8, a5, 0x80001b3c <_etoa+0x1f4>
80001b34: bb 87 87 41  	subw	a5, a5, s8
80001b38: 1b 87 f7 ff  	addiw	a4, a5, -0x1
80001b3c: 13 64 04 40  	ori	s0, s0, 0x400
80001b40: 93 0c 00 00  	li	s9, 0x0
80001b44: 13 0c 00 00  	li	s8, 0x0
80001b48: 93 07 00 00  	li	a5, 0x0
80001b4c: 63 f4 3c 01  	bgeu	s9, s3, 0x80001b54 <_etoa+0x20c>
80001b50: bb 87 99 41  	subw	a5, s3, s9
80001b54: 93 7b 24 00  	andi	s7, s0, 0x2
80001b58: 63 88 0b 00  	beqz	s7, 0x80001b68 <_etoa+0x220>
80001b5c: 13 b6 1c 00  	seqz	a2, s9
80001b60: 33 06 c0 40  	neg	a2, a2
80001b64: b3 f7 c7 00  	and	a5, a5, a2
80001b68: 63 10 0c 16  	bnez	s8, 0x80001cc8 <_etoa+0x380>
80001b6c: d3 07 00 f2  	fmv.d.x	fa5, zero
80001b70: 53 16 f5 a2  	flt.d	a2, fa0, fa5
80001b74: 63 08 06 00  	beqz	a2, 0x80001b84 <_etoa+0x23c>
80001b78: d3 87 06 f2  	fmv.d.x	fa5, a3
80001b7c: d3 97 f7 22  	fneg.d	fa5, fa5
80001b80: d3 86 07 e2  	fmv.x.d	a3, fa5
80001b84: 53 85 06 f2  	fmv.d.x	fa0, a3
80001b88: 37 f8 ff ff  	lui	a6, 0xfffff
80001b8c: 13 08 f8 7f  	addi	a6, a6, 0x7ff
80001b90: 33 78 04 01  	and	a6, s0, a6
80001b94: 93 06 0b 00  	mv	a3, s6
80001b98: 13 06 09 00  	mv	a2, s2
80001b9c: 93 85 0a 00  	mv	a1, s5
80001ba0: 13 05 0a 00  	mv	a0, s4
80001ba4: ef f0 5f 95  	jal	0x800014f8 <_ftoa>
80001ba8: 93 04 05 00  	mv	s1, a0
80001bac: 63 8c 0c 08  	beqz	s9, 0x80001c44 <_etoa+0x2fc>
80001bb0: 13 74 04 02  	andi	s0, s0, 0x20
80001bb4: 13 05 50 06  	li	a0, 0x65
80001bb8: 63 04 04 00  	beqz	s0, 0x80001bc0 <_etoa+0x278>
80001bbc: 13 05 50 04  	li	a0, 0x45
80001bc0: 13 86 04 00  	mv	a2, s1
80001bc4: 93 06 0b 00  	mv	a3, s6
80001bc8: 93 85 0a 00  	mv	a1, s5
80001bcc: e7 00 0a 00  	jalr	s4
80001bd0: 1b 57 fc 41  	sraiw	a4, s8, 0x1f
80001bd4: b3 46 ec 00  	xor	a3, s8, a4
80001bd8: 9b 87 fc ff  	addiw	a5, s9, -0x1
80001bdc: 93 05 50 00  	li	a1, 0x5
80001be0: 13 86 14 00  	addi	a2, s1, 0x1
80001be4: 23 34 b1 00  	sd	a1, 0x8(sp)
80001be8: 23 30 f1 00  	sd	a5, 0x0(sp)
80001bec: 3b 87 e6 40  	subw	a4, a3, a4
80001bf0: 93 08 00 00  	li	a7, 0x0
80001bf4: 13 08 a0 00  	li	a6, 0xa
80001bf8: 9b 57 fc 01  	srliw	a5, s8, 0x1f
80001bfc: 93 06 0b 00  	mv	a3, s6
80001c00: 93 85 0a 00  	mv	a1, s5
80001c04: 13 05 0a 00  	mv	a0, s4
80001c08: ef f0 8f cd  	jal	0x800010e0 <_ntoa_long_long>
80001c0c: 93 04 05 00  	mv	s1, a0
80001c10: 63 8a 0b 02  	beqz	s7, 0x80001c44 <_etoa+0x2fc>
80001c14: 93 99 09 02  	slli	s3, s3, 0x20
80001c18: 33 09 25 41  	sub	s2, a0, s2
80001c1c: 93 d9 09 02  	srli	s3, s3, 0x20
80001c20: 63 72 39 03  	bgeu	s2, s3, 0x80001c44 <_etoa+0x2fc>
80001c24: 13 86 04 00  	mv	a2, s1
80001c28: 13 09 19 00  	addi	s2, s2, 0x1
80001c2c: 93 06 0b 00  	mv	a3, s6
80001c30: 93 85 0a 00  	mv	a1, s5
80001c34: 13 05 00 02  	li	a0, 0x20
80001c38: 93 84 14 00  	addi	s1, s1, 0x1
80001c3c: e7 00 0a 00  	jalr	s4
80001c40: e3 62 39 ff  	bltu	s2, s3, 0x80001c24 <_etoa+0x2dc>
80001c44: 83 30 81 06  	ld	ra, 0x68(sp)
80001c48: 03 34 01 06  	ld	s0, 0x60(sp)
80001c4c: 03 39 01 05  	ld	s2, 0x50(sp)
80001c50: 83 39 81 04  	ld	s3, 0x48(sp)
80001c54: 03 3a 01 04  	ld	s4, 0x40(sp)
80001c58: 83 3a 81 03  	ld	s5, 0x38(sp)
80001c5c: 03 3b 01 03  	ld	s6, 0x30(sp)
80001c60: 83 3b 81 02  	ld	s7, 0x28(sp)
80001c64: 03 3c 01 02  	ld	s8, 0x20(sp)
80001c68: 83 3c 81 01  	ld	s9, 0x18(sp)
80001c6c: 13 85 04 00  	mv	a0, s1
80001c70: 83 34 81 05  	ld	s1, 0x58(sp)
80001c74: 13 01 01 07  	addi	sp, sp, 0x70
80001c78: 67 80 00 00  	ret
80001c7c: 13 08 04 00  	mv	a6, s0
80001c80: 03 34 01 06  	ld	s0, 0x60(sp)
80001c84: 83 30 81 06  	ld	ra, 0x68(sp)
80001c88: 83 34 81 05  	ld	s1, 0x58(sp)
80001c8c: 83 3b 81 02  	ld	s7, 0x28(sp)
80001c90: 03 3c 01 02  	ld	s8, 0x20(sp)
80001c94: 83 3c 81 01  	ld	s9, 0x18(sp)
80001c98: 93 87 09 00  	mv	a5, s3
80001c9c: 93 06 0b 00  	mv	a3, s6
80001ca0: 83 39 81 04  	ld	s3, 0x48(sp)
80001ca4: 03 3b 01 03  	ld	s6, 0x30(sp)
80001ca8: 13 06 09 00  	mv	a2, s2
80001cac: 93 85 0a 00  	mv	a1, s5
80001cb0: 03 39 01 05  	ld	s2, 0x50(sp)
80001cb4: 83 3a 81 03  	ld	s5, 0x38(sp)
80001cb8: 13 05 0a 00  	mv	a0, s4
80001cbc: 03 3a 01 04  	ld	s4, 0x40(sp)
80001cc0: 13 01 01 07  	addi	sp, sp, 0x70
80001cc4: 6f f0 5f 83  	j	0x800014f8 <_ftoa>
80001cc8: 53 87 06 f2  	fmv.d.x	fa4, a3
80001ccc: d3 77 f7 1a  	fdiv.d	fa5, fa4, fa5
80001cd0: d3 86 07 e2  	fmv.x.d	a3, fa5
80001cd4: 6f f0 9f e9  	j	0x80001b6c <_etoa+0x224>
80001cd8: e3 08 07 e6  	beqz	a4, 0x80001b48 <_etoa+0x200>
80001cdc: e3 86 05 e6  	beqz	a1, 0x80001b48 <_etoa+0x200>
80001ce0: 1b 07 f7 ff  	addiw	a4, a4, -0x1
80001ce4: 6f f0 5f e6  	j	0x80001b48 <_etoa+0x200>

0000000080001ce8 <_vsnprintf>:
80001ce8: 13 01 01 f6  	addi	sp, sp, -0xa0
80001cec: 23 34 91 08  	sd	s1, 0x88(sp)
80001cf0: 23 30 21 09  	sd	s2, 0x80(sp)
80001cf4: 23 3c 31 07  	sd	s3, 0x78(sp)
80001cf8: 23 34 51 07  	sd	s5, 0x68(sp)
80001cfc: 23 38 81 05  	sd	s8, 0x50(sp)
80001d00: 23 3c 11 08  	sd	ra, 0x98(sp)
80001d04: 23 38 81 08  	sd	s0, 0x90(sp)
80001d08: 23 38 41 07  	sd	s4, 0x70(sp)
80001d0c: 23 30 61 07  	sd	s6, 0x60(sp)
80001d10: 23 3c 71 05  	sd	s7, 0x58(sp)
80001d14: 23 34 91 05  	sd	s9, 0x48(sp)
80001d18: 23 30 a1 05  	sd	s10, 0x40(sp)
80001d1c: 23 3c b1 03  	sd	s11, 0x38(sp)
80001d20: 13 89 05 00  	mv	s2, a1
80001d24: 93 04 06 00  	mv	s1, a2
80001d28: 93 8a 06 00  	mv	s5, a3
80001d2c: 13 0c 07 00  	mv	s8, a4
80001d30: 97 f9 ff ff  	auipc	s3, 0xfffff
80001d34: 93 89 09 27  	addi	s3, s3, 0x270
80001d38: 63 84 05 00  	beqz	a1, 0x80001d40 <_vsnprintf+0x58>
80001d3c: 93 09 05 00  	mv	s3, a0
80001d40: 03 c5 0a 00  	lbu	a0, 0x0(s5)
80001d44: 93 0b 00 00  	li	s7, 0x0
80001d48: 63 0e 05 6a  	beqz	a0, 0x80002404 <_vsnprintf+0x71c>
80001d4c: b7 97 00 00  	lui	a5, 0x9
80001d50: 93 87 17 04  	addi	a5, a5, 0x41
80001d54: 13 0a 50 02  	li	s4, 0x25
80001d58: 17 1b 00 00  	auipc	s6, 0x1
80001d5c: 13 0b 0b 1f  	addi	s6, s6, 0x1f0
80001d60: 23 3c f1 00  	sd	a5, 0x18(sp)
80001d64: 6f 00 00 02  	j	0x80001d84 <_vsnprintf+0x9c>
80001d68: 13 86 0b 00  	mv	a2, s7
80001d6c: 93 86 04 00  	mv	a3, s1
80001d70: 93 05 09 00  	mv	a1, s2
80001d74: 93 8b 1b 00  	addi	s7, s7, 0x1
80001d78: e7 80 09 00  	jalr	s3
80001d7c: 03 c5 0a 00  	lbu	a0, 0x0(s5)
80001d80: 63 06 05 1a  	beqz	a0, 0x80001f2c <_vsnprintf+0x244>
80001d84: 93 8a 1a 00  	addi	s5, s5, 0x1
80001d88: e3 10 45 ff  	bne	a0, s4, 0x80001d68 <_vsnprintf+0x80>
80001d8c: 13 04 00 00  	li	s0, 0x0
80001d90: 13 07 00 01  	li	a4, 0x10
80001d94: 03 c5 0a 00  	lbu	a0, 0x0(s5)
80001d98: 93 86 1a 00  	addi	a3, s5, 0x1
80001d9c: 9b 07 05 fe  	addiw	a5, a0, -0x20
80001da0: 93 f7 f7 0f  	andi	a5, a5, 0xff
80001da4: 63 6c f7 00  	bltu	a4, a5, 0x80001dbc <_vsnprintf+0xd4>
80001da8: 93 97 27 00  	slli	a5, a5, 0x2
80001dac: b3 87 67 01  	add	a5, a5, s6
80001db0: 83 a7 07 00  	lw	a5, 0x0(a5)
80001db4: b3 87 67 01  	add	a5, a5, s6
80001db8: 67 80 07 00  	jr	a5
80001dbc: 9b 07 05 fd  	addiw	a5, a0, -0x30
80001dc0: 93 f7 f7 0f  	andi	a5, a5, 0xff
80001dc4: 13 07 90 00  	li	a4, 0x9
80001dc8: 63 72 f7 1c  	bgeu	a4, a5, 0x80001f8c <_vsnprintf+0x2a4>
80001dcc: 13 07 a0 02  	li	a4, 0x2a
80001dd0: 93 0d 00 00  	li	s11, 0x0
80001dd4: 63 06 e5 22  	beq	a0, a4, 0x80002000 <_vsnprintf+0x318>
80001dd8: 13 07 e0 02  	li	a4, 0x2e
80001ddc: 93 0c 00 00  	li	s9, 0x0
80001de0: 63 06 e5 1e  	beq	a0, a4, 0x80001fcc <_vsnprintf+0x2e4>
80001de4: 1b 06 85 f9  	addiw	a2, a0, -0x68
80001de8: 13 76 f6 0f  	andi	a2, a2, 0xff
80001dec: 13 07 20 01  	li	a4, 0x12
80001df0: 63 60 c7 08  	bltu	a4, a2, 0x80001e70 <_vsnprintf+0x188>
80001df4: 97 17 00 00  	auipc	a5, 0x1
80001df8: 93 87 87 19  	addi	a5, a5, 0x198
80001dfc: 13 16 26 00  	slli	a2, a2, 0x2
80001e00: 33 06 f6 00  	add	a2, a2, a5
80001e04: 03 27 06 00  	lw	a4, 0x0(a2)
80001e08: 33 07 f7 00  	add	a4, a4, a5
80001e0c: 67 00 07 00  	jr	a4
80001e10: 13 64 14 00  	ori	s0, s0, 0x1
80001e14: 1b 04 04 00  	sext.w	s0, s0
80001e18: 93 8a 06 00  	mv	s5, a3
80001e1c: 6f f0 9f f7  	j	0x80001d94 <_vsnprintf+0xac>
80001e20: 13 64 24 00  	ori	s0, s0, 0x2
80001e24: 1b 04 04 00  	sext.w	s0, s0
80001e28: 93 8a 06 00  	mv	s5, a3
80001e2c: 6f f0 9f f6  	j	0x80001d94 <_vsnprintf+0xac>
80001e30: 13 64 44 00  	ori	s0, s0, 0x4
80001e34: 1b 04 04 00  	sext.w	s0, s0
80001e38: 93 8a 06 00  	mv	s5, a3
80001e3c: 6f f0 9f f5  	j	0x80001d94 <_vsnprintf+0xac>
80001e40: 13 64 04 01  	ori	s0, s0, 0x10
80001e44: 1b 04 04 00  	sext.w	s0, s0
80001e48: 93 8a 06 00  	mv	s5, a3
80001e4c: 6f f0 9f f4  	j	0x80001d94 <_vsnprintf+0xac>
80001e50: 13 64 84 00  	ori	s0, s0, 0x8
80001e54: 1b 04 04 00  	sext.w	s0, s0
80001e58: 93 8a 06 00  	mv	s5, a3
80001e5c: 6f f0 9f f3  	j	0x80001d94 <_vsnprintf+0xac>
80001e60: 03 c5 1a 00  	lbu	a0, 0x1(s5)
80001e64: 13 64 04 10  	ori	s0, s0, 0x100
80001e68: 1b 04 04 00  	sext.w	s0, s0
80001e6c: 93 86 16 00  	addi	a3, a3, 0x1
80001e70: 13 07 70 06  	li	a4, 0x67
80001e74: 93 8a 06 00  	mv	s5, a3
80001e78: 63 6c a7 02  	bltu	a4, a0, 0x80001eb0 <_vsnprintf+0x1c8>
80001e7c: 13 07 40 02  	li	a4, 0x24
80001e80: e3 74 a7 ee  	bgeu	a4, a0, 0x80001d68 <_vsnprintf+0x80>
80001e84: 1b 07 b5 fd  	addiw	a4, a0, -0x25
80001e88: 13 77 f7 0f  	andi	a4, a4, 0xff
80001e8c: 93 06 20 04  	li	a3, 0x42
80001e90: e3 ec e6 ec  	bltu	a3, a4, 0x80001d68 <_vsnprintf+0x80>
80001e94: 97 17 00 00  	auipc	a5, 0x1
80001e98: 93 87 47 14  	addi	a5, a5, 0x144
80001e9c: 13 17 27 00  	slli	a4, a4, 0x2
80001ea0: 33 07 f7 00  	add	a4, a4, a5
80001ea4: 03 27 07 00  	lw	a4, 0x0(a4)
80001ea8: 33 07 f7 00  	add	a4, a4, a5
80001eac: 67 00 07 00  	jr	a4
80001eb0: 1b 07 75 f9  	addiw	a4, a0, -0x69
80001eb4: 13 77 f7 0f  	andi	a4, a4, 0xff
80001eb8: 93 06 f0 00  	li	a3, 0xf
80001ebc: e3 e6 e6 ea  	bltu	a3, a4, 0x80001d68 <_vsnprintf+0x80>
80001ec0: 83 37 81 01  	ld	a5, 0x18(sp)
80001ec4: 93 06 10 00  	li	a3, 0x1
80001ec8: b3 96 e6 00  	sll	a3, a3, a4
80001ecc: b3 f6 f6 00  	and	a3, a3, a5
80001ed0: 63 92 06 4e  	bnez	a3, 0x800023b4 <_vsnprintf+0x6cc>
80001ed4: 93 06 a0 00  	li	a3, 0xa
80001ed8: 63 00 d7 2a  	beq	a4, a3, 0x80002178 <_vsnprintf+0x490>
80001edc: 93 07 70 00  	li	a5, 0x7
80001ee0: e3 14 f7 e8  	bne	a4, a5, 0x80001d68 <_vsnprintf+0x80>
80001ee4: 93 67 14 02  	ori	a5, s0, 0x21
80001ee8: 03 37 0c 00  	ld	a4, 0x0(s8)
80001eec: 9b 87 07 00  	sext.w	a5, a5
80001ef0: 23 34 f1 00  	sd	a5, 0x8(sp)
80001ef4: 93 07 00 01  	li	a5, 0x10
80001ef8: 13 86 0b 00  	mv	a2, s7
80001efc: 23 30 f1 00  	sd	a5, 0x0(sp)
80001f00: 93 88 0c 00  	mv	a7, s9
80001f04: 13 08 00 01  	li	a6, 0x10
80001f08: 93 07 00 00  	li	a5, 0x0
80001f0c: 93 86 04 00  	mv	a3, s1
80001f10: 93 05 09 00  	mv	a1, s2
80001f14: 13 85 09 00  	mv	a0, s3
80001f18: ef f0 8f 9c  	jal	0x800010e0 <_ntoa_long_long>
80001f1c: 93 0b 05 00  	mv	s7, a0
80001f20: 03 c5 0a 00  	lbu	a0, 0x0(s5)
80001f24: 13 0c 8c 00  	addi	s8, s8, 0x8
80001f28: e3 1e 05 e4  	bnez	a0, 0x80001d84 <_vsnprintf+0x9c>
80001f2c: 1b 84 0b 00  	sext.w	s0, s7
80001f30: 63 e4 9b 00  	bltu	s7, s1, 0x80001f38 <_vsnprintf+0x250>
80001f34: 93 8b f4 ff  	addi	s7, s1, -0x1
80001f38: 93 86 04 00  	mv	a3, s1
80001f3c: 13 86 0b 00  	mv	a2, s7
80001f40: 93 05 09 00  	mv	a1, s2
80001f44: 13 05 00 00  	li	a0, 0x0
80001f48: e7 80 09 00  	jalr	s3
80001f4c: 83 30 81 09  	ld	ra, 0x98(sp)
80001f50: 13 05 04 00  	mv	a0, s0
80001f54: 03 34 01 09  	ld	s0, 0x90(sp)
80001f58: 83 34 81 08  	ld	s1, 0x88(sp)
80001f5c: 03 39 01 08  	ld	s2, 0x80(sp)
80001f60: 83 39 81 07  	ld	s3, 0x78(sp)
80001f64: 03 3a 01 07  	ld	s4, 0x70(sp)
80001f68: 83 3a 81 06  	ld	s5, 0x68(sp)
80001f6c: 03 3b 01 06  	ld	s6, 0x60(sp)
80001f70: 83 3b 81 05  	ld	s7, 0x58(sp)
80001f74: 03 3c 01 05  	ld	s8, 0x50(sp)
80001f78: 83 3c 81 04  	ld	s9, 0x48(sp)
80001f7c: 03 3d 01 04  	ld	s10, 0x40(sp)
80001f80: 83 3d 81 03  	ld	s11, 0x38(sp)
80001f84: 13 01 01 0a  	addi	sp, sp, 0xa0
80001f88: 67 80 00 00  	ret
80001f8c: 93 0d 00 00  	li	s11, 0x0
80001f90: 13 06 90 00  	li	a2, 0x9
80001f94: 1b 97 2d 00  	slliw	a4, s11, 0x2
80001f98: 3b 07 b7 01  	addw	a4, a4, s11
80001f9c: 1b 17 17 00  	slliw	a4, a4, 0x1
80001fa0: 3b 07 a7 00  	addw	a4, a4, a0
80001fa4: 03 c5 06 00  	lbu	a0, 0x0(a3)
80001fa8: 9b 0d 07 fd  	addiw	s11, a4, -0x30
80001fac: 93 8a 06 00  	mv	s5, a3
80001fb0: 1b 07 05 fd  	addiw	a4, a0, -0x30
80001fb4: 13 77 f7 0f  	andi	a4, a4, 0xff
80001fb8: 93 86 16 00  	addi	a3, a3, 0x1
80001fbc: e3 7c e6 fc  	bgeu	a2, a4, 0x80001f94 <_vsnprintf+0x2ac>
80001fc0: 13 07 e0 02  	li	a4, 0x2e
80001fc4: 93 0c 00 00  	li	s9, 0x0
80001fc8: e3 1e e5 e0  	bne	a0, a4, 0x80001de4 <_vsnprintf+0xfc>
80001fcc: 03 c5 1a 00  	lbu	a0, 0x1(s5)
80001fd0: 13 64 04 40  	ori	s0, s0, 0x400
80001fd4: 93 05 90 00  	li	a1, 0x9
80001fd8: 1b 07 05 fd  	addiw	a4, a0, -0x30
80001fdc: 13 77 f7 0f  	andi	a4, a4, 0xff
80001fe0: 13 86 06 00  	mv	a2, a3
80001fe4: 1b 04 04 00  	sext.w	s0, s0
80001fe8: 63 f0 e5 24  	bgeu	a1, a4, 0x80002228 <_vsnprintf+0x540>
80001fec: 13 07 a0 02  	li	a4, 0x2a
80001ff0: 63 08 e5 26  	beq	a0, a4, 0x80002260 <_vsnprintf+0x578>
80001ff4: 93 8a 06 00  	mv	s5, a3
80001ff8: 93 86 16 00  	addi	a3, a3, 0x1
80001ffc: 6f f0 9f de  	j	0x80001de4 <_vsnprintf+0xfc>
80002000: 03 27 0c 00  	lw	a4, 0x0(s8)
80002004: 13 0c 8c 00  	addi	s8, s8, 0x8
80002008: 9b 0d 07 00  	sext.w	s11, a4
8000200c: 63 4a 07 00  	bltz	a4, 0x80002020 <_vsnprintf+0x338>
80002010: 03 c5 1a 00  	lbu	a0, 0x1(s5)
80002014: 93 8a 06 00  	mv	s5, a3
80002018: 93 86 16 00  	addi	a3, a3, 0x1
8000201c: 6f f0 df db  	j	0x80001dd8 <_vsnprintf+0xf0>
80002020: 13 64 24 00  	ori	s0, s0, 0x2
80002024: 03 c5 1a 00  	lbu	a0, 0x1(s5)
80002028: 1b 04 04 00  	sext.w	s0, s0
8000202c: 93 8a 06 00  	mv	s5, a3
80002030: bb 0d e0 40  	negw	s11, a4
80002034: 93 86 16 00  	addi	a3, a3, 0x1
80002038: 6f f0 1f da  	j	0x80001dd8 <_vsnprintf+0xf0>
8000203c: 13 07 70 06  	li	a4, 0x67
80002040: 63 0e e5 30  	beq	a0, a4, 0x8000235c <_vsnprintf+0x674>
80002044: 13 07 70 04  	li	a4, 0x47
80002048: 63 06 e5 38  	beq	a0, a4, 0x800023d4 <_vsnprintf+0x6ec>
8000204c: 13 07 50 04  	li	a4, 0x45
80002050: 63 0a e5 38  	beq	a0, a4, 0x800023e4 <_vsnprintf+0x6fc>
80002054: 07 35 0c 00  	fld	fa0, 0x0(s8)
80002058: 13 86 0b 00  	mv	a2, s7
8000205c: 13 08 04 00  	mv	a6, s0
80002060: 93 87 0d 00  	mv	a5, s11
80002064: 13 87 0c 00  	mv	a4, s9
80002068: 93 86 04 00  	mv	a3, s1
8000206c: 93 05 09 00  	mv	a1, s2
80002070: 13 85 09 00  	mv	a0, s3
80002074: ef f0 5f 8d  	jal	0x80001948 <_etoa>
80002078: 13 0c 8c 00  	addi	s8, s8, 0x8
8000207c: 93 0b 05 00  	mv	s7, a0
80002080: 6f f0 df cf  	j	0x80001d7c <_vsnprintf+0x94>
80002084: 03 c5 1a 00  	lbu	a0, 0x1(s5)
80002088: 13 07 c0 06  	li	a4, 0x6c
8000208c: e3 1c e5 dc  	bne	a0, a4, 0x80001e64 <_vsnprintf+0x17c>
80002090: 13 64 04 30  	ori	s0, s0, 0x300
80002094: 03 c5 2a 00  	lbu	a0, 0x2(s5)
80002098: 1b 04 04 00  	sext.w	s0, s0
8000209c: 93 86 3a 00  	addi	a3, s5, 0x3
800020a0: 6f f0 1f dd  	j	0x80001e70 <_vsnprintf+0x188>
800020a4: 03 c5 1a 00  	lbu	a0, 0x1(s5)
800020a8: 13 07 80 06  	li	a4, 0x68
800020ac: 63 02 e5 34  	beq	a0, a4, 0x800023f0 <_vsnprintf+0x708>
800020b0: 13 64 04 08  	ori	s0, s0, 0x80
800020b4: 1b 04 04 00  	sext.w	s0, s0
800020b8: 93 86 16 00  	addi	a3, a3, 0x1
800020bc: 6f f0 5f db  	j	0x80001e70 <_vsnprintf+0x188>
800020c0: 13 07 60 04  	li	a4, 0x46
800020c4: 63 06 e5 28  	beq	a0, a4, 0x80002350 <_vsnprintf+0x668>
800020c8: 07 35 0c 00  	fld	fa0, 0x0(s8)
800020cc: 13 86 0b 00  	mv	a2, s7
800020d0: 13 08 04 00  	mv	a6, s0
800020d4: 93 87 0d 00  	mv	a5, s11
800020d8: 13 87 0c 00  	mv	a4, s9
800020dc: 93 86 04 00  	mv	a3, s1
800020e0: 93 05 09 00  	mv	a1, s2
800020e4: 13 85 09 00  	mv	a0, s3
800020e8: ef f0 0f c1  	jal	0x800014f8 <_ftoa>
800020ec: 13 0c 8c 00  	addi	s8, s8, 0x8
800020f0: 93 0b 05 00  	mv	s7, a0
800020f4: 6f f0 9f c8  	j	0x80001d7c <_vsnprintf+0x94>
800020f8: 13 78 24 00  	andi	a6, s0, 0x2
800020fc: 13 0d 8c 00  	addi	s10, s8, 0x8
80002100: 93 8c 1b 00  	addi	s9, s7, 0x1
80002104: 63 0c 08 30  	beqz	a6, 0x8000241c <_vsnprintf+0x734>
80002108: 03 45 0c 00  	lbu	a0, 0x0(s8)
8000210c: 93 86 04 00  	mv	a3, s1
80002110: 13 86 0b 00  	mv	a2, s7
80002114: 93 05 09 00  	mv	a1, s2
80002118: e7 80 09 00  	jalr	s3
8000211c: 13 07 10 00  	li	a4, 0x1
80002120: 63 76 b7 3d  	bgeu	a4, s11, 0x800024ec <_vsnprintf+0x804>
80002124: 9b 87 ed ff  	addiw	a5, s11, -0x2
80002128: 93 97 07 02  	slli	a5, a5, 0x20
8000212c: 93 8e 2b 00  	addi	t4, s7, 0x2
80002130: 93 d7 07 02  	srli	a5, a5, 0x20
80002134: b3 8b fe 00  	add	s7, t4, a5
80002138: 13 86 0c 00  	mv	a2, s9
8000213c: 93 86 04 00  	mv	a3, s1
80002140: 93 8c 1c 00  	addi	s9, s9, 0x1
80002144: 93 05 09 00  	mv	a1, s2
80002148: 13 05 00 02  	li	a0, 0x20
8000214c: e7 80 09 00  	jalr	s3
80002150: e3 94 7c ff  	bne	s9, s7, 0x80002138 <_vsnprintf+0x450>
80002154: 13 0c 0d 00  	mv	s8, s10
80002158: 6f f0 5f c2  	j	0x80001d7c <_vsnprintf+0x94>
8000215c: 13 86 0b 00  	mv	a2, s7
80002160: 93 86 04 00  	mv	a3, s1
80002164: 93 05 09 00  	mv	a1, s2
80002168: 13 05 50 02  	li	a0, 0x25
8000216c: 93 8b 1b 00  	addi	s7, s7, 0x1
80002170: e7 80 09 00  	jalr	s3
80002174: 6f f0 9f c0  	j	0x80001d7c <_vsnprintf+0x94>
80002178: 83 37 0c 00  	ld	a5, 0x0(s8)
8000217c: 93 06 f0 ff  	li	a3, -0x1
80002180: 23 38 f1 00  	sd	a5, 0x10(sp)
80002184: 93 07 8c 00  	addi	a5, s8, 0x8
80002188: 23 34 f1 02  	sd	a5, 0x28(sp)
8000218c: 63 9c 0c 0e  	bnez	s9, 0x80002284 <_vsnprintf+0x59c>
80002190: 03 3d 01 01  	ld	s10, 0x10(sp)
80002194: 03 45 0d 00  	lbu	a0, 0x0(s10)
80002198: 63 0e 05 4e  	beqz	a0, 0x80002694 <_vsnprintf+0x9ac>
8000219c: b3 06 dd 00  	add	a3, s10, a3
800021a0: 6f 00 80 00  	j	0x800021a8 <_vsnprintf+0x4c0>
800021a4: 63 08 dd 00  	beq	s10, a3, 0x800021b4 <_vsnprintf+0x4cc>
800021a8: 03 47 1d 00  	lbu	a4, 0x1(s10)
800021ac: 13 0d 1d 00  	addi	s10, s10, 0x1
800021b0: e3 1a 07 fe  	bnez	a4, 0x800021a4 <_vsnprintf+0x4bc>
800021b4: 83 37 01 01  	ld	a5, 0x10(sp)
800021b8: 3b 0d fd 40  	subw	s10, s10, a5
800021bc: 93 77 04 40  	andi	a5, s0, 0x400
800021c0: 23 30 f1 02  	sd	a5, 0x20(sp)
800021c4: 63 8a 07 00  	beqz	a5, 0x800021d8 <_vsnprintf+0x4f0>
800021c8: 13 87 0c 00  	mv	a4, s9
800021cc: 63 74 9d 01  	bgeu	s10, s9, 0x800021d4 <_vsnprintf+0x4ec>
800021d0: 13 07 0d 00  	mv	a4, s10
800021d4: 1b 0d 07 00  	sext.w	s10, a4
800021d8: 13 74 24 00  	andi	s0, s0, 0x2
800021dc: 63 0e 04 28  	beqz	s0, 0x80002478 <_vsnprintf+0x790>
800021e0: 63 08 05 18  	beqz	a0, 0x80002370 <_vsnprintf+0x688>
800021e4: 83 37 01 02  	ld	a5, 0x20(sp)
800021e8: 63 94 07 0a  	bnez	a5, 0x80002290 <_vsnprintf+0x5a8>
800021ec: 13 8c 0b 00  	mv	s8, s7
800021f0: 13 06 0c 00  	mv	a2, s8
800021f4: 93 86 04 00  	mv	a3, s1
800021f8: 93 05 09 00  	mv	a1, s2
800021fc: e7 80 09 00  	jalr	s3
80002200: 83 37 01 01  	ld	a5, 0x10(sp)
80002204: 13 0c 1c 00  	addi	s8, s8, 0x1
80002208: b3 06 7c 41  	sub	a3, s8, s7
8000220c: b3 86 d7 00  	add	a3, a5, a3
80002210: 03 c5 06 00  	lbu	a0, 0x0(a3)
80002214: e3 1e 05 fc  	bnez	a0, 0x800021f0 <_vsnprintf+0x508>
80002218: 93 0b 0c 00  	mv	s7, s8
8000221c: 63 1a 04 14  	bnez	s0, 0x80002370 <_vsnprintf+0x688>
80002220: 03 3c 81 02  	ld	s8, 0x28(sp)
80002224: 6f f0 9f b5  	j	0x80001d7c <_vsnprintf+0x94>
80002228: 93 06 90 00  	li	a3, 0x9
8000222c: 1b 97 2c 00  	slliw	a4, s9, 0x2
80002230: 3b 07 97 01  	addw	a4, a4, s9
80002234: 13 06 16 00  	addi	a2, a2, 0x1
80002238: 1b 17 17 00  	slliw	a4, a4, 0x1
8000223c: 3b 07 a7 00  	addw	a4, a4, a0
80002240: 03 45 06 00  	lbu	a0, 0x0(a2)
80002244: 9b 0c 07 fd  	addiw	s9, a4, -0x30
80002248: 1b 07 05 fd  	addiw	a4, a0, -0x30
8000224c: 13 77 f7 0f  	andi	a4, a4, 0xff
80002250: e3 fe e6 fc  	bgeu	a3, a4, 0x8000222c <_vsnprintf+0x544>
80002254: 93 0a 06 00  	mv	s5, a2
80002258: 93 06 16 00  	addi	a3, a2, 0x1
8000225c: 6f f0 9f b8  	j	0x80001de4 <_vsnprintf+0xfc>
80002260: 03 27 0c 00  	lw	a4, 0x0(s8)
80002264: 03 c5 2a 00  	lbu	a0, 0x2(s5)
80002268: 93 8a 2a 00  	addi	s5, s5, 0x2
8000226c: 93 48 f7 ff  	not	a7, a4
80002270: 93 d8 f8 43  	srai	a7, a7, 0x3f
80002274: b3 fc e8 00  	and	s9, a7, a4
80002278: 13 0c 8c 00  	addi	s8, s8, 0x8
8000227c: 93 86 1a 00  	addi	a3, s5, 0x1
80002280: 6f f0 5f b6  	j	0x80001de4 <_vsnprintf+0xfc>
80002284: 93 96 0c 02  	slli	a3, s9, 0x20
80002288: 93 d6 06 02  	srli	a3, a3, 0x20
8000228c: 6f f0 5f f0  	j	0x80002190 <_vsnprintf+0x4a8>
80002290: 93 98 0c 02  	slli	a7, s9, 0x20
80002294: 93 d8 08 02  	srli	a7, a7, 0x20
80002298: b3 8c 78 01  	add	s9, a7, s7
8000229c: 13 86 0b 00  	mv	a2, s7
800022a0: 63 88 cc 16  	beq	s9, a2, 0x80002410 <_vsnprintf+0x728>
800022a4: 93 86 04 00  	mv	a3, s1
800022a8: 93 05 09 00  	mv	a1, s2
800022ac: 13 0c 16 00  	addi	s8, a2, 0x1
800022b0: e7 80 09 00  	jalr	s3
800022b4: 83 37 01 01  	ld	a5, 0x10(sp)
800022b8: b3 06 7c 41  	sub	a3, s8, s7
800022bc: b3 86 d7 00  	add	a3, a5, a3
800022c0: 03 c5 06 00  	lbu	a0, 0x0(a3)
800022c4: e3 0a 05 f4  	beqz	a0, 0x80002218 <_vsnprintf+0x530>
800022c8: 13 06 0c 00  	mv	a2, s8
800022cc: 6f f0 5f fd  	j	0x800022a0 <_vsnprintf+0x5b8>
800022d0: 13 07 20 06  	li	a4, 0x62
800022d4: 63 04 e5 26  	beq	a0, a4, 0x8000253c <_vsnprintf+0x854>
800022d8: 13 07 80 05  	li	a4, 0x58
800022dc: 63 0c e5 2a  	beq	a0, a4, 0x80002594 <_vsnprintf+0x8ac>
800022e0: 13 77 04 40  	andi	a4, s0, 0x400
800022e4: 63 14 07 1e  	bnez	a4, 0x800024cc <_vsnprintf+0x7e4>
800022e8: 93 76 f4 fe  	andi	a3, s0, -0x11
800022ec: 9b 86 06 00  	sext.w	a3, a3
800022f0: 13 f7 06 20  	andi	a4, a3, 0x200
800022f4: 13 04 8c 00  	addi	s0, s8, 0x8
800022f8: 13 86 06 00  	mv	a2, a3
800022fc: 63 1e 07 1e  	bnez	a4, 0x800024f8 <_vsnprintf+0x810>
80002300: 13 f7 06 10  	andi	a4, a3, 0x100
80002304: 63 18 07 2e  	bnez	a4, 0x800025f4 <_vsnprintf+0x90c>
80002308: 13 77 06 04  	andi	a4, a2, 0x40
8000230c: 83 27 0c 00  	lw	a5, 0x0(s8)
80002310: 63 08 07 30  	beqz	a4, 0x80002620 <_vsnprintf+0x938>
80002314: 93 f7 f7 0f  	andi	a5, a5, 0xff
80002318: 13 87 07 00  	mv	a4, a5
8000231c: 13 86 0b 00  	mv	a2, s7
80002320: 23 34 d1 00  	sd	a3, 0x8(sp)
80002324: 23 30 b1 01  	sd	s11, 0x0(sp)
80002328: 93 88 0c 00  	mv	a7, s9
8000232c: 13 08 a0 00  	li	a6, 0xa
80002330: 9b d7 f7 01  	srliw	a5, a5, 0x1f
80002334: 93 86 04 00  	mv	a3, s1
80002338: 93 05 09 00  	mv	a1, s2
8000233c: 13 85 09 00  	mv	a0, s3
80002340: ef e0 1f da  	jal	0x800010e0 <_ntoa_long_long>
80002344: 93 0b 05 00  	mv	s7, a0
80002348: 13 0c 04 00  	mv	s8, s0
8000234c: 6f f0 1f a3  	j	0x80001d7c <_vsnprintf+0x94>
80002350: 13 64 04 02  	ori	s0, s0, 0x20
80002354: 1b 04 04 00  	sext.w	s0, s0
80002358: 6f f0 1f d7  	j	0x800020c8 <_vsnprintf+0x3e0>
8000235c: 37 17 00 00  	lui	a4, 0x1
80002360: 13 07 07 80  	addi	a4, a4, -0x800
80002364: 33 67 e4 00  	or	a4, s0, a4
80002368: 1b 04 07 00  	sext.w	s0, a4
8000236c: 6f f0 9f ce  	j	0x80002054 <_vsnprintf+0x36c>
80002370: 13 84 0b 00  	mv	s0, s7
80002374: e3 76 bd eb  	bgeu	s10, s11, 0x80002220 <_vsnprintf+0x538>
80002378: 9b 87 fd ff  	addiw	a5, s11, -0x1
8000237c: bb 87 a7 41  	subw	a5, a5, s10
80002380: 93 97 07 02  	slli	a5, a5, 0x20
80002384: 93 d7 07 02  	srli	a5, a5, 0x20
80002388: 93 8e 1b 00  	addi	t4, s7, 0x1
8000238c: b3 8b d7 01  	add	s7, a5, t4
80002390: 13 06 04 00  	mv	a2, s0
80002394: 93 86 04 00  	mv	a3, s1
80002398: 13 04 14 00  	addi	s0, s0, 0x1
8000239c: 93 05 09 00  	mv	a1, s2
800023a0: 13 05 00 02  	li	a0, 0x20
800023a4: e7 80 09 00  	jalr	s3
800023a8: e3 14 74 ff  	bne	s0, s7, 0x80002390 <_vsnprintf+0x6a8>
800023ac: 03 3c 81 02  	ld	s8, 0x28(sp)
800023b0: 6f f0 df 9c  	j	0x80001d7c <_vsnprintf+0x94>
800023b4: 13 07 80 07  	li	a4, 0x78
800023b8: 63 1a e5 20  	bne	a0, a4, 0x800025cc <_vsnprintf+0x8e4>
800023bc: 13 77 04 40  	andi	a4, s0, 0x400
800023c0: 63 0c 07 2e  	beqz	a4, 0x800026b8 <_vsnprintf+0x9d0>
800023c4: 93 76 24 ff  	andi	a3, s0, -0xe
800023c8: 9b 86 06 00  	sext.w	a3, a3
800023cc: 13 08 00 01  	li	a6, 0x10
800023d0: 6f 00 00 18  	j	0x80002550 <_vsnprintf+0x868>
800023d4: 37 17 00 00  	lui	a4, 0x1
800023d8: 13 07 07 80  	addi	a4, a4, -0x800
800023dc: 33 67 e4 00  	or	a4, s0, a4
800023e0: 1b 04 07 00  	sext.w	s0, a4
800023e4: 13 64 04 02  	ori	s0, s0, 0x20
800023e8: 1b 04 04 00  	sext.w	s0, s0
800023ec: 6f f0 9f c6  	j	0x80002054 <_vsnprintf+0x36c>
800023f0: 13 64 04 0c  	ori	s0, s0, 0xc0
800023f4: 03 c5 2a 00  	lbu	a0, 0x2(s5)
800023f8: 1b 04 04 00  	sext.w	s0, s0
800023fc: 93 86 3a 00  	addi	a3, s5, 0x3
80002400: 6f f0 1f a7  	j	0x80001e70 <_vsnprintf+0x188>
80002404: 13 04 00 00  	li	s0, 0x0
80002408: e3 e8 9b b2  	bltu	s7, s1, 0x80001f38 <_vsnprintf+0x250>
8000240c: 6f f0 9f b2  	j	0x80001f34 <_vsnprintf+0x24c>
80002410: 93 8b 0c 00  	mv	s7, s9
80002414: e3 06 04 e0  	beqz	s0, 0x80002220 <_vsnprintf+0x538>
80002418: 6f f0 9f f5  	j	0x80002370 <_vsnprintf+0x688>
8000241c: 13 07 10 00  	li	a4, 0x1
80002420: 63 7c b7 0b  	bgeu	a4, s11, 0x800024d8 <_vsnprintf+0x7f0>
80002424: 9b 87 ed ff  	addiw	a5, s11, -0x2
80002428: 13 94 07 02  	slli	s0, a5, 0x20
8000242c: 13 54 04 02  	srli	s0, s0, 0x20
80002430: b3 0c 94 01  	add	s9, s0, s9
80002434: 93 8d 0b 00  	mv	s11, s7
80002438: 13 86 0d 00  	mv	a2, s11
8000243c: 93 86 04 00  	mv	a3, s1
80002440: 93 8d 1d 00  	addi	s11, s11, 0x1
80002444: 93 05 09 00  	mv	a1, s2
80002448: 13 05 00 02  	li	a0, 0x20
8000244c: e7 80 09 00  	jalr	s3
80002450: e3 94 9d ff  	bne	s11, s9, 0x80002438 <_vsnprintf+0x750>
80002454: 03 45 0c 00  	lbu	a0, 0x0(s8)
80002458: 93 8e 2b 00  	addi	t4, s7, 0x2
8000245c: 93 86 04 00  	mv	a3, s1
80002460: 13 86 0d 00  	mv	a2, s11
80002464: 93 05 09 00  	mv	a1, s2
80002468: b3 8b 8e 00  	add	s7, t4, s0
8000246c: 13 0c 0d 00  	mv	s8, s10
80002470: e7 80 09 00  	jalr	s3
80002474: 6f f0 9f 90  	j	0x80001d7c <_vsnprintf+0x94>
80002478: 63 76 bd 23  	bgeu	s10, s11, 0x800026a4 <_vsnprintf+0x9bc>
8000247c: 1b 87 fd ff  	addiw	a4, s11, -0x1
80002480: 3b 0d a7 41  	subw	s10, a4, s10
80002484: 13 1d 0d 02  	slli	s10, s10, 0x20
80002488: 13 5d 0d 02  	srli	s10, s10, 0x20
8000248c: 13 8c 1b 00  	addi	s8, s7, 0x1
80002490: 33 0d 8d 01  	add	s10, s10, s8
80002494: 6f 00 80 00  	j	0x8000249c <_vsnprintf+0x7b4>
80002498: 13 0c 1c 00  	addi	s8, s8, 0x1
8000249c: 13 86 0b 00  	mv	a2, s7
800024a0: 93 86 04 00  	mv	a3, s1
800024a4: 93 05 09 00  	mv	a1, s2
800024a8: 13 05 00 02  	li	a0, 0x20
800024ac: 93 0b 0c 00  	mv	s7, s8
800024b0: e7 80 09 00  	jalr	s3
800024b4: e3 12 ac ff  	bne	s8, s10, 0x80002498 <_vsnprintf+0x7b0>
800024b8: 83 37 01 01  	ld	a5, 0x10(sp)
800024bc: 1b 8d 1d 00  	addiw	s10, s11, 0x1
800024c0: 03 c5 07 00  	lbu	a0, 0x0(a5)
800024c4: e3 10 05 d2  	bnez	a0, 0x800021e4 <_vsnprintf+0x4fc>
800024c8: 6f f0 9f d5  	j	0x80002220 <_vsnprintf+0x538>
800024cc: 93 76 e4 fe  	andi	a3, s0, -0x12
800024d0: 9b 86 06 00  	sext.w	a3, a3
800024d4: 6f f0 df e1  	j	0x800022f0 <_vsnprintf+0x608>
800024d8: 03 45 0c 00  	lbu	a0, 0x0(s8)
800024dc: 93 86 04 00  	mv	a3, s1
800024e0: 13 86 0b 00  	mv	a2, s7
800024e4: 93 05 09 00  	mv	a1, s2
800024e8: e7 80 09 00  	jalr	s3
800024ec: 93 8b 0c 00  	mv	s7, s9
800024f0: 13 0c 0d 00  	mv	s8, s10
800024f4: 6f f0 9f 88  	j	0x80001d7c <_vsnprintf+0x94>
800024f8: 83 37 0c 00  	ld	a5, 0x0(s8)
800024fc: 23 34 d1 00  	sd	a3, 0x8(sp)
80002500: 13 86 0b 00  	mv	a2, s7
80002504: 13 d7 f7 43  	srai	a4, a5, 0x3f
80002508: b3 46 f7 00  	xor	a3, a4, a5
8000250c: 23 30 b1 01  	sd	s11, 0x0(sp)
80002510: 93 88 0c 00  	mv	a7, s9
80002514: 13 08 a0 00  	li	a6, 0xa
80002518: 93 d7 f7 03  	srli	a5, a5, 0x3f
8000251c: 33 87 e6 40  	sub	a4, a3, a4
80002520: 93 86 04 00  	mv	a3, s1
80002524: 93 05 09 00  	mv	a1, s2
80002528: 13 85 09 00  	mv	a0, s3
8000252c: ef e0 5f bb  	jal	0x800010e0 <_ntoa_long_long>
80002530: 93 0b 05 00  	mv	s7, a0
80002534: 13 0c 04 00  	mv	s8, s0
80002538: 6f f0 5f 84  	j	0x80001d7c <_vsnprintf+0x94>
8000253c: 13 77 04 40  	andi	a4, s0, 0x400
80002540: 63 0a 07 12  	beqz	a4, 0x80002674 <_vsnprintf+0x98c>
80002544: 93 76 24 ff  	andi	a3, s0, -0xe
80002548: 9b 86 06 00  	sext.w	a3, a3
8000254c: 13 08 20 00  	li	a6, 0x2
80002550: 13 f7 06 20  	andi	a4, a3, 0x200
80002554: 13 04 8c 00  	addi	s0, s8, 0x8
80002558: 13 86 06 00  	mv	a2, a3
8000255c: 63 1a 07 04  	bnez	a4, 0x800025b0 <_vsnprintf+0x8c8>
80002560: 13 f7 06 10  	andi	a4, a3, 0x100
80002564: 63 1a 07 0e  	bnez	a4, 0x80002658 <_vsnprintf+0x970>
80002568: 13 77 06 04  	andi	a4, a2, 0x40
8000256c: 63 0e 07 0c  	beqz	a4, 0x80002648 <_vsnprintf+0x960>
80002570: 03 47 0c 00  	lbu	a4, 0x0(s8)
80002574: 13 17 07 02  	slli	a4, a4, 0x20
80002578: 13 86 0b 00  	mv	a2, s7
8000257c: 23 34 d1 00  	sd	a3, 0x8(sp)
80002580: 23 30 b1 01  	sd	s11, 0x0(sp)
80002584: 93 88 0c 00  	mv	a7, s9
80002588: 93 07 00 00  	li	a5, 0x0
8000258c: 13 57 07 02  	srli	a4, a4, 0x20
80002590: 6f f0 5f da  	j	0x80002334 <_vsnprintf+0x64c>
80002594: 13 77 04 40  	andi	a4, s0, 0x400
80002598: 63 0c 07 10  	beqz	a4, 0x800026b0 <_vsnprintf+0x9c8>
8000259c: 93 76 24 ff  	andi	a3, s0, -0xe
800025a0: 9b 86 06 00  	sext.w	a3, a3
800025a4: 93 e6 06 02  	ori	a3, a3, 0x20
800025a8: 13 08 00 01  	li	a6, 0x10
800025ac: 6f f0 5f fa  	j	0x80002550 <_vsnprintf+0x868>
800025b0: 03 37 0c 00  	ld	a4, 0x0(s8)
800025b4: 13 86 0b 00  	mv	a2, s7
800025b8: 23 34 d1 00  	sd	a3, 0x8(sp)
800025bc: 23 30 b1 01  	sd	s11, 0x0(sp)
800025c0: 93 88 0c 00  	mv	a7, s9
800025c4: 93 07 00 00  	li	a5, 0x0
800025c8: 6f f0 9f f5  	j	0x80002520 <_vsnprintf+0x838>
800025cc: 13 07 f0 06  	li	a4, 0x6f
800025d0: 63 1c e5 0e  	bne	a0, a4, 0x800026c8 <_vsnprintf+0x9e0>
800025d4: 93 76 34 ff  	andi	a3, s0, -0xd
800025d8: 13 77 04 40  	andi	a4, s0, 0x400
800025dc: 13 08 80 00  	li	a6, 0x8
800025e0: 9b 86 06 00  	sext.w	a3, a3
800025e4: e3 06 07 f6  	beqz	a4, 0x80002550 <_vsnprintf+0x868>
800025e8: 93 76 24 ff  	andi	a3, s0, -0xe
800025ec: 9b 86 06 00  	sext.w	a3, a3
800025f0: 6f f0 1f f6  	j	0x80002550 <_vsnprintf+0x868>
800025f4: 83 37 0c 00  	ld	a5, 0x0(s8)
800025f8: 23 34 d1 00  	sd	a3, 0x8(sp)
800025fc: 13 86 0b 00  	mv	a2, s7
80002600: 13 d7 f7 43  	srai	a4, a5, 0x3f
80002604: b3 46 f7 00  	xor	a3, a4, a5
80002608: 23 30 b1 01  	sd	s11, 0x0(sp)
8000260c: 93 88 0c 00  	mv	a7, s9
80002610: 13 08 a0 00  	li	a6, 0xa
80002614: 93 d7 f7 03  	srli	a5, a5, 0x3f
80002618: 33 87 e6 40  	sub	a4, a3, a4
8000261c: 6f f0 9f d1  	j	0x80002334 <_vsnprintf+0x64c>
80002620: 13 76 06 08  	andi	a2, a2, 0x80
80002624: 63 00 06 06  	beqz	a2, 0x80002684 <_vsnprintf+0x99c>
80002628: 9b 97 07 01  	slliw	a5, a5, 0x10
8000262c: 9b d7 07 41  	sraiw	a5, a5, 0x10
80002630: 1b d6 f7 40  	sraiw	a2, a5, 0xf
80002634: 33 c7 c7 00  	xor	a4, a5, a2
80002638: 3b 07 c7 40  	subw	a4, a4, a2
8000263c: 13 17 07 03  	slli	a4, a4, 0x30
80002640: 13 57 07 03  	srli	a4, a4, 0x30
80002644: 6f f0 9f cd  	j	0x8000231c <_vsnprintf+0x634>
80002648: 13 76 06 08  	andi	a2, a2, 0x80
8000264c: 63 08 06 04  	beqz	a2, 0x8000269c <_vsnprintf+0x9b4>
80002650: 03 57 0c 00  	lhu	a4, 0x0(s8)
80002654: 6f f0 1f f2  	j	0x80002574 <_vsnprintf+0x88c>
80002658: 03 37 0c 00  	ld	a4, 0x0(s8)
8000265c: 13 86 0b 00  	mv	a2, s7
80002660: 23 34 d1 00  	sd	a3, 0x8(sp)
80002664: 23 30 b1 01  	sd	s11, 0x0(sp)
80002668: 93 88 0c 00  	mv	a7, s9
8000266c: 93 07 00 00  	li	a5, 0x0
80002670: 6f f0 5f cc  	j	0x80002334 <_vsnprintf+0x64c>
80002674: 93 76 34 ff  	andi	a3, s0, -0xd
80002678: 9b 86 06 00  	sext.w	a3, a3
8000267c: 13 08 20 00  	li	a6, 0x2
80002680: 6f f0 1f ed  	j	0x80002550 <_vsnprintf+0x868>
80002684: 1b d6 f7 41  	sraiw	a2, a5, 0x1f
80002688: 33 c7 c7 00  	xor	a4, a5, a2
8000268c: 3b 07 c7 40  	subw	a4, a4, a2
80002690: 6f f0 df c8  	j	0x8000231c <_vsnprintf+0x634>
80002694: 13 0d 00 00  	li	s10, 0x0
80002698: 6f f0 5f b2  	j	0x800021bc <_vsnprintf+0x4d4>
8000269c: 03 27 0c 00  	lw	a4, 0x0(s8)
800026a0: 6f f0 5f ed  	j	0x80002574 <_vsnprintf+0x88c>
800026a4: 1b 0d 1d 00  	addiw	s10, s10, 0x1
800026a8: e3 1e 05 b2  	bnez	a0, 0x800021e4 <_vsnprintf+0x4fc>
800026ac: 6f f0 5f b7  	j	0x80002220 <_vsnprintf+0x538>
800026b0: 13 64 04 02  	ori	s0, s0, 0x20
800026b4: 1b 04 04 00  	sext.w	s0, s0
800026b8: 93 76 34 ff  	andi	a3, s0, -0xd
800026bc: 9b 86 06 00  	sext.w	a3, a3
800026c0: 13 08 00 01  	li	a6, 0x10
800026c4: 6f f0 df e8  	j	0x80002550 <_vsnprintf+0x868>
800026c8: 93 76 f4 fe  	andi	a3, s0, -0x11
800026cc: 13 06 90 06  	li	a2, 0x69
800026d0: 13 07 04 00  	mv	a4, s0
800026d4: 9b 86 06 00  	sext.w	a3, a3
800026d8: 63 1c c5 00  	bne	a0, a2, 0x800026f0 <_vsnprintf+0xa08>
800026dc: 13 78 04 40  	andi	a6, s0, 0x400
800026e0: e3 08 08 c0  	beqz	a6, 0x800022f0 <_vsnprintf+0x608>
800026e4: 13 77 e7 fe  	andi	a4, a4, -0x12
800026e8: 9b 06 07 00  	sext.w	a3, a4
800026ec: 6f f0 5f c0  	j	0x800022f0 <_vsnprintf+0x608>
800026f0: 13 78 04 40  	andi	a6, s0, 0x400
800026f4: 63 08 08 00  	beqz	a6, 0x80002704 <_vsnprintf+0xa1c>
800026f8: 13 84 06 00  	mv	s0, a3
800026fc: 13 08 a0 00  	li	a6, 0xa
80002700: 6f f0 9f ee  	j	0x800025e8 <_vsnprintf+0x900>
80002704: 13 77 37 fe  	andi	a4, a4, -0x1d
80002708: 9b 06 07 00  	sext.w	a3, a4
8000270c: 13 08 a0 00  	li	a6, 0xa
80002710: 6f f0 1f e4  	j	0x80002550 <_vsnprintf+0x868>

0000000080002714 <tiny_vprintf>:
80002714: 13 01 01 fe  	addi	sp, sp, -0x20
80002718: 93 06 05 00  	mv	a3, a0
8000271c: 13 87 05 00  	mv	a4, a1
80002720: 13 06 f0 ff  	li	a2, -0x1
80002724: 93 05 81 00  	addi	a1, sp, 0x8
80002728: 17 f5 ff ff  	auipc	a0, 0xfffff
8000272c: 13 05 45 dc  	addi	a0, a0, -0x23c
80002730: 23 3c 11 00  	sd	ra, 0x18(sp)
80002734: ef f0 4f db  	jal	0x80001ce8 <_vsnprintf>
80002738: 83 30 81 01  	ld	ra, 0x18(sp)
8000273c: 13 01 01 02  	addi	sp, sp, 0x20
80002740: 67 80 00 00  	ret

0000000080002744 <dummy>:
80002744: 67 80 00 00  	ret

0000000080002748 <libc_exit_fini>:
80002748: 13 01 01 fe  	addi	sp, sp, -0x20
8000274c: 23 3c 11 00  	sd	ra, 0x18(sp)
80002750: 23 38 81 00  	sd	s0, 0x10(sp)
80002754: 23 34 91 00  	sd	s1, 0x8(sp)
80002758: 23 30 21 01  	sd	s2, 0x0(sp)
8000275c: 17 25 00 00  	auipc	a0, 0x2
80002760: 03 34 45 a6  	ld	s0, -0x59c(a0)
80002764: 17 25 00 00  	auipc	a0, 0x2
80002768: 83 34 45 a6  	ld	s1, -0x59c(a0)
8000276c: 1b 05 04 00  	sext.w	a0, s0
80002770: 9b 84 04 00  	sext.w	s1, s1
80002774: 63 f0 a4 02  	bgeu	s1, a0, 0x80002794 <libc_exit_fini+0x4c>
80002778: 13 15 04 02  	slli	a0, s0, 0x20
8000277c: 13 55 05 02  	srli	a0, a0, 0x20
80002780: 83 35 85 ff  	ld	a1, -0x8(a0)
80002784: 1b 09 85 ff  	addiw	s2, a0, -0x8
80002788: e7 80 05 00  	jalr	a1
8000278c: 13 04 84 ff  	addi	s0, s0, -0x8
80002790: e3 e4 24 ff  	bltu	s1, s2, 0x80002778 <libc_exit_fini+0x30>
80002794: 83 30 81 01  	ld	ra, 0x18(sp)
80002798: 03 34 01 01  	ld	s0, 0x10(sp)
8000279c: 83 34 81 00  	ld	s1, 0x8(sp)
800027a0: 03 39 01 00  	ld	s2, 0x0(sp)
800027a4: 13 01 01 02  	addi	sp, sp, 0x20
800027a8: 6f f0 df f9  	j	0x80002744 <dummy>

00000000800027ac <memcpy>:
800027ac: 13 01 01 fe  	addi	sp, sp, -0x20
800027b0: 23 3c 81 00  	sd	s0, 0x18(sp)
800027b4: 23 38 91 00  	sd	s1, 0x10(sp)
800027b8: 23 34 21 01  	sd	s2, 0x8(sp)
800027bc: 23 30 31 01  	sd	s3, 0x0(sp)
800027c0: 93 f6 35 00  	andi	a3, a1, 0x3
800027c4: b3 36 d0 00  	snez	a3, a3
800027c8: 33 37 c0 00  	snez	a4, a2
800027cc: b3 f7 e6 00  	and	a5, a3, a4
800027d0: 0b a7 17 00  	vx_split_n	a4, a5
800027d4: 93 06 05 00  	mv	a3, a0
800027d8: 63 8c 07 04  	beqz	a5, 0x80002830 <memcpy+0x84>
800027dc: 93 87 15 00  	addi	a5, a1, 0x1
800027e0: 73 28 40 cc  	csrr	a6, tmask
800027e4: 93 82 05 00  	mv	t0, a1
800027e8: 13 03 05 00  	mv	t1, a0
800027ec: 93 08 06 00  	mv	a7, a2
800027f0: 03 c6 02 00  	lbu	a2, 0x0(t0)
800027f4: 93 85 12 00  	addi	a1, t0, 0x1
800027f8: 93 06 13 00  	addi	a3, t1, 0x1
800027fc: 23 00 c3 00  	sb	a2, 0x0(t1)
80002800: 1b 86 f8 ff  	addiw	a2, a7, -0x1
80002804: 93 f2 37 00  	andi	t0, a5, 0x3
80002808: 93 b2 12 00  	seqz	t0, t0
8000280c: 93 88 f8 ff  	addi	a7, a7, -0x1
80002810: 93 b8 18 00  	seqz	a7, a7
80002814: b3 e3 12 01  	or	t2, t0, a7
80002818: 93 87 17 00  	addi	a5, a5, 0x1
8000281c: 8b d0 03 01  	vx_pred_n	t2, a6
80002820: 93 82 05 00  	mv	t0, a1
80002824: 13 83 06 00  	mv	t1, a3
80002828: 93 08 06 00  	mv	a7, a2
8000282c: e3 82 03 fc  	beqz	t2, 0x800027f0 <memcpy+0x44>
80002830: 0b 30 07 00  	vx_join	a4
80002834: 13 08 00 00  	li	a6, 0x0
80002838: 93 fe 36 00  	andi	t4, a3, 0x3
8000283c: 33 33 d0 01  	snez	t1, t4
80002840: 0b 27 13 00  	vx_split_n	a4, t1
80002844: 93 02 10 00  	li	t0, 0x1
80002848: 63 08 03 38  	beqz	t1, 0x80002bd8 <memcpy+0x42c>
8000284c: 93 37 06 02  	sltiu	a5, a2, 0x20
80002850: 13 c3 17 00  	xori	t1, a5, 0x1
80002854: 8b 22 13 00  	vx_split_n	t0, t1
80002858: 93 88 05 00  	mv	a7, a1
8000285c: 93 87 06 00  	mv	a5, a3
80002860: 13 08 06 00  	mv	a6, a2
80002864: 63 0a 03 1e  	beqz	t1, 0x80002a58 <memcpy+0x2ac>
80002868: 03 a3 05 00  	lw	t1, 0x0(a1)
8000286c: 93 a7 3e 00  	slti	a5, t4, 0x3
80002870: 13 ce 17 00  	xori	t3, a5, 0x1
80002874: 8b 23 1e 00  	vx_split_n	t2, t3
80002878: 13 0f 10 00  	li	t5, 0x1
8000287c: 63 06 0e 08  	beqz	t3, 0x80002908 <memcpy+0x15c>
80002880: 93 87 16 00  	addi	a5, a3, 0x1
80002884: 23 80 66 00  	sb	t1, 0x0(a3)
80002888: 13 08 f6 ff  	addi	a6, a2, -0x1
8000288c: 93 88 05 01  	addi	a7, a1, 0x10
80002890: 73 2e 40 cc  	csrr	t3, tmask
80002894: 13 0f 03 00  	mv	t5, t1
80002898: 83 af 48 ff  	lw	t6, -0xc(a7)
8000289c: 1b 5f 8f 00  	srliw	t5, t5, 0x8
800028a0: 13 94 8f 01  	slli	s0, t6, 0x18
800028a4: 83 a4 88 ff  	lw	s1, -0x8(a7)
800028a8: 33 6f e4 01  	or	t5, s0, t5
800028ac: 23 a0 e7 01  	sw	t5, 0x0(a5)
800028b0: 1b df 8f 00  	srliw	t5, t6, 0x8
800028b4: 93 9f 84 01  	slli	t6, s1, 0x18
800028b8: 03 a4 c8 ff  	lw	s0, -0x4(a7)
800028bc: 33 ef ef 01  	or	t5, t6, t5
800028c0: 23 a2 e7 01  	sw	t5, 0x4(a5)
800028c4: 9b df 84 00  	srliw	t6, s1, 0x8
800028c8: 93 14 84 01  	slli	s1, s0, 0x18
800028cc: 03 af 08 00  	lw	t5, 0x0(a7)
800028d0: b3 ef f4 01  	or	t6, s1, t6
800028d4: 23 a4 f7 01  	sw	t6, 0x8(a5)
800028d8: 9b 5f 84 00  	srliw	t6, s0, 0x8
800028dc: 13 14 8f 01  	slli	s0, t5, 0x18
800028e0: b3 6f f4 01  	or	t6, s0, t6
800028e4: 23 a6 f7 01  	sw	t6, 0xc(a5)
800028e8: 93 87 07 01  	addi	a5, a5, 0x10
800028ec: 1b 08 08 ff  	addiw	a6, a6, -0x10
800028f0: 93 88 08 01  	addi	a7, a7, 0x10
800028f4: 93 3f 38 01  	sltiu	t6, a6, 0x13
800028f8: 8b d0 cf 01  	vx_pred_n	t6, t3
800028fc: e3 8e 0f f8  	beqz	t6, 0x80002898 <memcpy+0xec>
80002900: 13 0f 00 00  	li	t5, 0x0
80002904: 93 88 18 ff  	addi	a7, a7, -0xf
80002908: 13 8e 05 01  	addi	t3, a1, 0x10
8000290c: 0b b0 03 00  	vx_join	t2
80002910: 8b 23 1f 00  	vx_split_n	t2, t5
80002914: 63 00 0f 14  	beqz	t5, 0x80002a54 <memcpy+0x2a8>
80002918: 93 8e ee ff  	addi	t4, t4, -0x2
8000291c: 33 34 d0 01  	snez	s0, t4
80002920: 0b 2f 14 00  	vx_split_n	t5, s0
80002924: 93 0f 10 00  	li	t6, 0x1
80002928: 93 5e 83 00  	srli	t4, t1, 0x8
8000292c: 63 0c 04 08  	beqz	s0, 0x800029c4 <memcpy+0x218>
80002930: 23 80 66 00  	sb	t1, 0x0(a3)
80002934: a3 80 d6 01  	sb	t4, 0x1(a3)
80002938: 13 58 03 01  	srli	a6, t1, 0x10
8000293c: 93 87 36 00  	addi	a5, a3, 0x3
80002940: 23 81 06 01  	sb	a6, 0x2(a3)
80002944: 13 08 d6 ff  	addi	a6, a2, -0x3
80002948: 93 88 05 01  	addi	a7, a1, 0x10
8000294c: f3 2f 40 cc  	csrr	t6, tmask
80002950: 13 04 03 00  	mv	s0, t1
80002954: 83 a4 48 ff  	lw	s1, -0xc(a7)
80002958: 1b 54 84 01  	srliw	s0, s0, 0x18
8000295c: 13 99 84 00  	slli	s2, s1, 0x8
80002960: 83 a9 88 ff  	lw	s3, -0x8(a7)
80002964: 33 64 89 00  	or	s0, s2, s0
80002968: 23 a0 87 00  	sw	s0, 0x0(a5)
8000296c: 1b d4 84 01  	srliw	s0, s1, 0x18
80002970: 93 94 89 00  	slli	s1, s3, 0x8
80002974: 03 a9 c8 ff  	lw	s2, -0x4(a7)
80002978: 33 e4 84 00  	or	s0, s1, s0
8000297c: 23 a2 87 00  	sw	s0, 0x4(a5)
80002980: 9b d4 89 01  	srliw	s1, s3, 0x18
80002984: 93 19 89 00  	slli	s3, s2, 0x8
80002988: 03 a4 08 00  	lw	s0, 0x0(a7)
8000298c: b3 e4 99 00  	or	s1, s3, s1
80002990: 23 a4 97 00  	sw	s1, 0x8(a5)
80002994: 9b 54 89 01  	srliw	s1, s2, 0x18
80002998: 13 19 84 00  	slli	s2, s0, 0x8
8000299c: b3 64 99 00  	or	s1, s2, s1
800029a0: 23 a6 97 00  	sw	s1, 0xc(a5)
800029a4: 93 87 07 01  	addi	a5, a5, 0x10
800029a8: 1b 08 08 ff  	addiw	a6, a6, -0x10
800029ac: 93 88 08 01  	addi	a7, a7, 0x10
800029b0: 93 34 18 01  	sltiu	s1, a6, 0x11
800029b4: 8b d0 f4 01  	vx_pred_n	s1, t6
800029b8: e3 8e 04 f8  	beqz	s1, 0x80002954 <memcpy+0x1a8>
800029bc: 93 0f 00 00  	li	t6, 0x0
800029c0: 93 88 38 ff  	addi	a7, a7, -0xd
800029c4: 0b 30 0f 00  	vx_join	t5
800029c8: 0b af 1f 00  	vx_split_n	t5, t6
800029cc: 63 82 0f 08  	beqz	t6, 0x80002a50 <memcpy+0x2a4>
800029d0: 23 80 66 00  	sb	t1, 0x0(a3)
800029d4: 93 87 26 00  	addi	a5, a3, 0x2
800029d8: a3 80 d6 01  	sb	t4, 0x1(a3)
800029dc: 13 08 e6 ff  	addi	a6, a2, -0x2
800029e0: f3 28 40 cc  	csrr	a7, tmask
800029e4: 83 2e 4e ff  	lw	t4, -0xc(t3)
800029e8: 1b 53 03 01  	srliw	t1, t1, 0x10
800029ec: 93 9f 0e 01  	slli	t6, t4, 0x10
800029f0: 03 24 8e ff  	lw	s0, -0x8(t3)
800029f4: 33 e3 6f 00  	or	t1, t6, t1
800029f8: 23 a0 67 00  	sw	t1, 0x0(a5)
800029fc: 1b d3 0e 01  	srliw	t1, t4, 0x10
80002a00: 93 1e 04 01  	slli	t4, s0, 0x10
80002a04: 83 2f ce ff  	lw	t6, -0x4(t3)
80002a08: 33 e3 6e 00  	or	t1, t4, t1
80002a0c: 23 a2 67 00  	sw	t1, 0x4(a5)
80002a10: 9b 5e 04 01  	srliw	t4, s0, 0x10
80002a14: 13 94 0f 01  	slli	s0, t6, 0x10
80002a18: 03 23 0e 00  	lw	t1, 0x0(t3)
80002a1c: b3 6e d4 01  	or	t4, s0, t4
80002a20: 23 a4 d7 01  	sw	t4, 0x8(a5)
80002a24: 9b de 0f 01  	srliw	t4, t6, 0x10
80002a28: 93 1f 03 01  	slli	t6, t1, 0x10
80002a2c: b3 ee df 01  	or	t4, t6, t4
80002a30: 23 a6 d7 01  	sw	t4, 0xc(a5)
80002a34: 93 87 07 01  	addi	a5, a5, 0x10
80002a38: 1b 08 08 ff  	addiw	a6, a6, -0x10
80002a3c: 13 0e 0e 01  	addi	t3, t3, 0x10
80002a40: 93 3e 28 01  	sltiu	t4, a6, 0x12
80002a44: 8b d0 1e 01  	vx_pred_n	t4, a7
80002a48: e3 8e 0e f8  	beqz	t4, 0x800029e4 <memcpy+0x238>
80002a4c: 93 08 2e ff  	addi	a7, t3, -0xe
80002a50: 0b 30 0f 00  	vx_join	t5
80002a54: 0b b0 03 00  	vx_join	t2
80002a58: 0b b0 02 00  	vx_join	t0
80002a5c: 9b 02 08 00  	sext.w	t0, a6
80002a60: 93 b2 02 01  	sltiu	t0, t0, 0x10
80002a64: 13 c3 12 00  	xori	t1, t0, 0x1
80002a68: 8b 22 13 00  	vx_split_n	t0, t1
80002a6c: 63 08 03 08  	beqz	t1, 0x80002afc <memcpy+0x350>
80002a70: 03 c3 08 00  	lbu	t1, 0x0(a7)
80002a74: 83 c3 18 00  	lbu	t2, 0x1(a7)
80002a78: 03 ce 28 00  	lbu	t3, 0x2(a7)
80002a7c: 23 80 67 00  	sb	t1, 0x0(a5)
80002a80: a3 80 77 00  	sb	t2, 0x1(a5)
80002a84: 03 c3 38 00  	lbu	t1, 0x3(a7)
80002a88: 23 81 c7 01  	sb	t3, 0x2(a5)
80002a8c: 83 c3 48 00  	lbu	t2, 0x4(a7)
80002a90: 03 ce 58 00  	lbu	t3, 0x5(a7)
80002a94: a3 81 67 00  	sb	t1, 0x3(a5)
80002a98: 03 c3 68 00  	lbu	t1, 0x6(a7)
80002a9c: 23 82 77 00  	sb	t2, 0x4(a5)
80002aa0: a3 82 c7 01  	sb	t3, 0x5(a5)
80002aa4: 83 c3 78 00  	lbu	t2, 0x7(a7)
80002aa8: 23 83 67 00  	sb	t1, 0x6(a5)
80002aac: 03 c3 88 00  	lbu	t1, 0x8(a7)
80002ab0: 03 ce 98 00  	lbu	t3, 0x9(a7)
80002ab4: a3 83 77 00  	sb	t2, 0x7(a5)
80002ab8: 83 c3 a8 00  	lbu	t2, 0xa(a7)
80002abc: 23 84 67 00  	sb	t1, 0x8(a5)
80002ac0: a3 84 c7 01  	sb	t3, 0x9(a5)
80002ac4: 03 c3 b8 00  	lbu	t1, 0xb(a7)
80002ac8: 23 85 77 00  	sb	t2, 0xa(a5)
80002acc: 83 c3 c8 00  	lbu	t2, 0xc(a7)
80002ad0: 03 ce d8 00  	lbu	t3, 0xd(a7)
80002ad4: a3 85 67 00  	sb	t1, 0xb(a5)
80002ad8: 03 c3 e8 00  	lbu	t1, 0xe(a7)
80002adc: 23 86 77 00  	sb	t2, 0xc(a5)
80002ae0: a3 86 c7 01  	sb	t3, 0xd(a5)
80002ae4: 83 c3 f8 00  	lbu	t2, 0xf(a7)
80002ae8: 23 87 67 00  	sb	t1, 0xe(a5)
80002aec: 93 88 08 01  	addi	a7, a7, 0x10
80002af0: 13 83 07 01  	addi	t1, a5, 0x10
80002af4: a3 87 77 00  	sb	t2, 0xf(a5)
80002af8: 93 07 03 00  	mv	a5, t1
80002afc: 0b b0 02 00  	vx_join	t0
80002b00: 93 12 c8 03  	slli	t0, a6, 0x3c
80002b04: 13 d3 f2 03  	srli	t1, t0, 0x3f
80002b08: 8b 22 13 00  	vx_split_n	t0, t1
80002b0c: 63 08 03 04  	beqz	t1, 0x80002b5c <memcpy+0x3b0>
80002b10: 03 c3 08 00  	lbu	t1, 0x0(a7)
80002b14: 83 c3 18 00  	lbu	t2, 0x1(a7)
80002b18: 03 ce 28 00  	lbu	t3, 0x2(a7)
80002b1c: 23 80 67 00  	sb	t1, 0x0(a5)
80002b20: a3 80 77 00  	sb	t2, 0x1(a5)
80002b24: 03 c3 38 00  	lbu	t1, 0x3(a7)
80002b28: 23 81 c7 01  	sb	t3, 0x2(a5)
80002b2c: 83 c3 48 00  	lbu	t2, 0x4(a7)
80002b30: 03 ce 58 00  	lbu	t3, 0x5(a7)
80002b34: a3 81 67 00  	sb	t1, 0x3(a5)
80002b38: 03 c3 68 00  	lbu	t1, 0x6(a7)
80002b3c: 23 82 77 00  	sb	t2, 0x4(a5)
80002b40: a3 82 c7 01  	sb	t3, 0x5(a5)
80002b44: 83 c3 78 00  	lbu	t2, 0x7(a7)
80002b48: 23 83 67 00  	sb	t1, 0x6(a5)
80002b4c: 93 88 88 00  	addi	a7, a7, 0x8
80002b50: 13 83 87 00  	addi	t1, a5, 0x8
80002b54: a3 83 77 00  	sb	t2, 0x7(a5)
80002b58: 93 07 03 00  	mv	a5, t1
80002b5c: 0b b0 02 00  	vx_join	t0
80002b60: 93 12 d8 03  	slli	t0, a6, 0x3d
80002b64: 13 d3 f2 03  	srli	t1, t0, 0x3f
80002b68: 8b 22 13 00  	vx_split_n	t0, t1
80002b6c: 63 08 03 02  	beqz	t1, 0x80002b9c <memcpy+0x3f0>
80002b70: 03 c3 08 00  	lbu	t1, 0x0(a7)
80002b74: 83 c3 18 00  	lbu	t2, 0x1(a7)
80002b78: 03 ce 28 00  	lbu	t3, 0x2(a7)
80002b7c: 23 80 67 00  	sb	t1, 0x0(a5)
80002b80: a3 80 77 00  	sb	t2, 0x1(a5)
80002b84: 03 c3 38 00  	lbu	t1, 0x3(a7)
80002b88: 23 81 c7 01  	sb	t3, 0x2(a5)
80002b8c: 93 88 48 00  	addi	a7, a7, 0x4
80002b90: 93 83 47 00  	addi	t2, a5, 0x4
80002b94: a3 81 67 00  	sb	t1, 0x3(a5)
80002b98: 93 87 03 00  	mv	a5, t2
80002b9c: 0b b0 02 00  	vx_join	t0
80002ba0: 93 12 e8 03  	slli	t0, a6, 0x3e
80002ba4: 13 d3 f2 03  	srli	t1, t0, 0x3f
80002ba8: 8b 22 13 00  	vx_split_n	t0, t1
80002bac: 63 00 03 02  	beqz	t1, 0x80002bcc <memcpy+0x420>
80002bb0: 03 c3 08 00  	lbu	t1, 0x0(a7)
80002bb4: 83 c3 18 00  	lbu	t2, 0x1(a7)
80002bb8: 23 80 67 00  	sb	t1, 0x0(a5)
80002bbc: 13 83 27 00  	addi	t1, a5, 0x2
80002bc0: 93 88 28 00  	addi	a7, a7, 0x2
80002bc4: a3 80 77 00  	sb	t2, 0x1(a5)
80002bc8: 93 07 03 00  	mv	a5, t1
80002bcc: 0b b0 02 00  	vx_join	t0
80002bd0: 93 02 00 00  	li	t0, 0x0
80002bd4: 13 78 18 00  	andi	a6, a6, 0x1
80002bd8: 0b 30 07 00  	vx_join	a4
80002bdc: 0b a7 12 00  	vx_split_n	a4, t0
80002be0: 63 84 02 0e  	beqz	t0, 0x80002cc8 <memcpy+0x51c>
80002be4: 93 37 06 01  	sltiu	a5, a2, 0x10
80002be8: 13 c8 17 00  	xori	a6, a5, 0x1
80002bec: 8b 27 18 00  	vx_split_n	a5, a6
80002bf0: 63 00 08 04  	beqz	a6, 0x80002c30 <memcpy+0x484>
80002bf4: 73 28 40 cc  	csrr	a6, tmask
80002bf8: 83 a8 05 00  	lw	a7, 0x0(a1)
80002bfc: 83 a2 45 00  	lw	t0, 0x4(a1)
80002c00: 03 a3 85 00  	lw	t1, 0x8(a1)
80002c04: 83 a3 c5 00  	lw	t2, 0xc(a1)
80002c08: 23 a0 16 01  	sw	a7, 0x0(a3)
80002c0c: 23 a2 56 00  	sw	t0, 0x4(a3)
80002c10: 23 a4 66 00  	sw	t1, 0x8(a3)
80002c14: 23 a6 76 00  	sw	t2, 0xc(a3)
80002c18: 93 85 05 01  	addi	a1, a1, 0x10
80002c1c: 93 86 06 01  	addi	a3, a3, 0x10
80002c20: 1b 06 06 ff  	addiw	a2, a2, -0x10
80002c24: 93 38 06 01  	sltiu	a7, a2, 0x10
80002c28: 8b d0 08 01  	vx_pred_n	a7, a6
80002c2c: e3 86 08 fc  	beqz	a7, 0x80002bf8 <memcpy+0x44c>
80002c30: 0b b0 07 00  	vx_join	a5
80002c34: 93 37 86 00  	sltiu	a5, a2, 0x8
80002c38: 13 c8 17 00  	xori	a6, a5, 0x1
80002c3c: 8b 27 18 00  	vx_split_n	a5, a6
80002c40: 63 00 08 02  	beqz	a6, 0x80002c60 <memcpy+0x4b4>
80002c44: 03 a8 05 00  	lw	a6, 0x0(a1)
80002c48: 83 a8 45 00  	lw	a7, 0x4(a1)
80002c4c: 93 85 85 00  	addi	a1, a1, 0x8
80002c50: 23 a0 06 01  	sw	a6, 0x0(a3)
80002c54: 13 88 86 00  	addi	a6, a3, 0x8
80002c58: 23 a2 16 01  	sw	a7, 0x4(a3)
80002c5c: 93 06 08 00  	mv	a3, a6
80002c60: 0b b0 07 00  	vx_join	a5
80002c64: 93 17 d6 03  	slli	a5, a2, 0x3d
80002c68: 13 d8 f7 03  	srli	a6, a5, 0x3f
80002c6c: 8b 27 18 00  	vx_split_n	a5, a6
80002c70: 63 0c 08 00  	beqz	a6, 0x80002c88 <memcpy+0x4dc>
80002c74: 03 a8 05 00  	lw	a6, 0x0(a1)
80002c78: 93 85 45 00  	addi	a1, a1, 0x4
80002c7c: 93 88 46 00  	addi	a7, a3, 0x4
80002c80: 23 a0 06 01  	sw	a6, 0x0(a3)
80002c84: 93 86 08 00  	mv	a3, a7
80002c88: 0b b0 07 00  	vx_join	a5
80002c8c: 93 17 e6 03  	slli	a5, a2, 0x3e
80002c90: 13 d8 f7 03  	srli	a6, a5, 0x3f
80002c94: 8b 27 18 00  	vx_split_n	a5, a6
80002c98: 63 00 08 02  	beqz	a6, 0x80002cb8 <memcpy+0x50c>
80002c9c: 03 c8 05 00  	lbu	a6, 0x0(a1)
80002ca0: 83 c8 15 00  	lbu	a7, 0x1(a1)
80002ca4: 23 80 06 01  	sb	a6, 0x0(a3)
80002ca8: 13 88 26 00  	addi	a6, a3, 0x2
80002cac: 93 85 25 00  	addi	a1, a1, 0x2
80002cb0: a3 80 16 01  	sb	a7, 0x1(a3)
80002cb4: 93 06 08 00  	mv	a3, a6
80002cb8: 0b b0 07 00  	vx_join	a5
80002cbc: 13 78 16 00  	andi	a6, a2, 0x1
80002cc0: 93 88 05 00  	mv	a7, a1
80002cc4: 93 87 06 00  	mv	a5, a3
80002cc8: 0b 30 07 00  	vx_join	a4
80002ccc: 8b 25 18 00  	vx_split_n	a1, a6
80002cd0: 63 06 08 00  	beqz	a6, 0x80002cdc <memcpy+0x530>
80002cd4: 03 c6 08 00  	lbu	a2, 0x0(a7)
80002cd8: 23 80 c7 00  	sb	a2, 0x0(a5)
80002cdc: 0b b0 05 00  	vx_join	a1
80002ce0: 03 34 81 01  	ld	s0, 0x18(sp)
80002ce4: 83 34 01 01  	ld	s1, 0x10(sp)
80002ce8: 03 39 81 00  	ld	s2, 0x8(sp)
80002cec: 83 39 01 00  	ld	s3, 0x0(sp)
80002cf0: 13 01 01 02  	addi	sp, sp, 0x20
80002cf4: 67 80 00 00  	ret

0000000080002cf8 <memset>:
80002cf8: 33 37 c0 00  	snez	a4, a2
80002cfc: 8b 26 17 00  	vx_split_n	a3, a4
80002d00: 63 06 07 1a  	beqz	a4, 0x80002eac <memset+0x1b4>
80002d04: 23 00 b5 00  	sb	a1, 0x0(a0)
80002d08: 13 07 f6 ff  	addi	a4, a2, -0x1
80002d0c: 13 17 07 02  	slli	a4, a4, 0x20
80002d10: 13 57 07 02  	srli	a4, a4, 0x20
80002d14: 33 07 e5 00  	add	a4, a0, a4
80002d18: 23 00 b7 00  	sb	a1, 0x0(a4)
80002d1c: 13 37 36 00  	sltiu	a4, a2, 0x3
80002d20: 93 47 17 00  	xori	a5, a4, 0x1
80002d24: 0b a7 17 00  	vx_split_n	a4, a5
80002d28: 63 80 07 18  	beqz	a5, 0x80002ea8 <memset+0x1b0>
80002d2c: a3 00 b5 00  	sb	a1, 0x1(a0)
80002d30: 23 01 b5 00  	sb	a1, 0x2(a0)
80002d34: 93 07 e6 ff  	addi	a5, a2, -0x2
80002d38: 93 97 07 02  	slli	a5, a5, 0x20
80002d3c: 93 d7 07 02  	srli	a5, a5, 0x20
80002d40: b3 07 f5 00  	add	a5, a0, a5
80002d44: 23 80 b7 00  	sb	a1, 0x0(a5)
80002d48: 93 07 d6 ff  	addi	a5, a2, -0x3
80002d4c: 93 97 07 02  	slli	a5, a5, 0x20
80002d50: 93 d7 07 02  	srli	a5, a5, 0x20
80002d54: b3 07 f5 00  	add	a5, a0, a5
80002d58: 23 80 b7 00  	sb	a1, 0x0(a5)
80002d5c: 93 37 76 00  	sltiu	a5, a2, 0x7
80002d60: 13 c8 17 00  	xori	a6, a5, 0x1
80002d64: 8b 27 18 00  	vx_split_n	a5, a6
80002d68: 63 0e 08 12  	beqz	a6, 0x80002ea4 <memset+0x1ac>
80002d6c: a3 01 b5 00  	sb	a1, 0x3(a0)
80002d70: 13 08 c6 ff  	addi	a6, a2, -0x4
80002d74: 13 18 08 02  	slli	a6, a6, 0x20
80002d78: 13 58 08 02  	srli	a6, a6, 0x20
80002d7c: 33 08 05 01  	add	a6, a0, a6
80002d80: 23 00 b8 00  	sb	a1, 0x0(a6)
80002d84: 13 38 96 00  	sltiu	a6, a2, 0x9
80002d88: 93 48 18 00  	xori	a7, a6, 0x1
80002d8c: 0b a8 18 00  	vx_split_n	a6, a7
80002d90: 63 88 08 10  	beqz	a7, 0x80002ea0 <memset+0x1a8>
80002d94: bb 08 a0 40  	negw	a7, a0
80002d98: 93 f8 38 00  	andi	a7, a7, 0x3
80002d9c: b3 02 15 01  	add	t0, a0, a7
80002da0: 3b 06 16 41  	subw	a2, a2, a7
80002da4: 13 73 c6 ff  	andi	t1, a2, -0x4
80002da8: 93 95 85 03  	slli	a1, a1, 0x38
80002dac: b7 13 10 10  	lui	t2, 0x10101
80002db0: 93 93 43 00  	slli	t2, t2, 0x4
80002db4: 93 83 03 10  	addi	t2, t2, 0x100
80002db8: b3 b3 75 02  	mulhu	t2, a1, t2
80002dbc: 23 a0 72 00  	sw	t2, 0x0(t0)
80002dc0: 9b 55 26 00  	srliw	a1, a2, 0x2
80002dc4: 93 95 25 00  	slli	a1, a1, 0x2
80002dc8: 33 8e b2 00  	add	t3, t0, a1
80002dcc: 23 2e 7e fe  	sw	t2, -0x4(t3)
80002dd0: 93 35 93 00  	sltiu	a1, t1, 0x9
80002dd4: 13 c6 15 00  	xori	a2, a1, 0x1
80002dd8: 8b 25 16 00  	vx_split_n	a1, a2
80002ddc: 63 00 06 0c  	beqz	a2, 0x80002e9c <memset+0x1a4>
80002de0: 23 a2 72 00  	sw	t2, 0x4(t0)
80002de4: 23 a4 72 00  	sw	t2, 0x8(t0)
80002de8: 23 2a 7e fe  	sw	t2, -0xc(t3)
80002dec: 23 2c 7e fe  	sw	t2, -0x8(t3)
80002df0: 13 36 93 01  	sltiu	a2, t1, 0x19
80002df4: 93 4e 16 00  	xori	t4, a2, 0x1
80002df8: 0b a6 1e 00  	vx_split_n	a2, t4
80002dfc: 63 8e 0e 08  	beqz	t4, 0x80002e98 <memset+0x1a0>
80002e00: 23 a6 72 00  	sw	t2, 0xc(t0)
80002e04: 23 a8 72 00  	sw	t2, 0x10(t0)
80002e08: 23 aa 72 00  	sw	t2, 0x14(t0)
80002e0c: 23 ac 72 00  	sw	t2, 0x18(t0)
80002e10: 23 22 7e fe  	sw	t2, -0x1c(t3)
80002e14: 23 24 7e fe  	sw	t2, -0x18(t3)
80002e18: 23 26 7e fe  	sw	t2, -0x14(t3)
80002e1c: 23 28 7e fe  	sw	t2, -0x10(t3)
80002e20: 93 fe 42 00  	andi	t4, t0, 0x4
80002e24: 13 8f 8e 01  	addi	t5, t4, 0x18
80002e28: 3b 0e e3 41  	subw	t3, t1, t5
80002e2c: 13 3e 0e 02  	sltiu	t3, t3, 0x20
80002e30: 93 4f 1e 00  	xori	t6, t3, 0x1
80002e34: 0b ae 1f 00  	vx_split_n	t3, t6
80002e38: 63 8e 0f 04  	beqz	t6, 0x80002e94 <memset+0x19c>
80002e3c: 93 93 03 02  	slli	t2, t2, 0x20
80002e40: 93 df 03 02  	srli	t6, t2, 0x20
80002e44: b3 e3 f3 01  	or	t2, t2, t6
80002e48: b3 82 e2 01  	add	t0, t0, t5
80002e4c: 3b 03 d3 41  	subw	t1, t1, t4
80002e50: 13 03 83 fc  	addi	t1, t1, -0x38
80002e54: 1b 53 53 00  	srliw	t1, t1, 0x5
80002e58: 13 13 53 00  	slli	t1, t1, 0x5
80002e5c: b3 e8 1e 01  	or	a7, t4, a7
80002e60: b3 68 13 01  	or	a7, t1, a7
80002e64: b3 88 a8 00  	add	a7, a7, a0
80002e68: 93 88 88 03  	addi	a7, a7, 0x38
80002e6c: 73 23 40 cc  	csrr	t1, tmask
80002e70: 23 b0 72 00  	sd	t2, 0x0(t0)
80002e74: 23 b4 72 00  	sd	t2, 0x8(t0)
80002e78: 23 b8 72 00  	sd	t2, 0x10(t0)
80002e7c: 23 bc 72 00  	sd	t2, 0x18(t0)
80002e80: 93 82 02 02  	addi	t0, t0, 0x20
80002e84: b3 ce 12 01  	xor	t4, t0, a7
80002e88: 93 be 1e 00  	seqz	t4, t4
80002e8c: 8b d0 6e 00  	vx_pred_n	t4, t1
80002e90: e3 80 0e fe  	beqz	t4, 0x80002e70 <memset+0x178>
80002e94: 0b 30 0e 00  	vx_join	t3
80002e98: 0b 30 06 00  	vx_join	a2
80002e9c: 0b b0 05 00  	vx_join	a1
80002ea0: 0b 30 08 00  	vx_join	a6
80002ea4: 0b b0 07 00  	vx_join	a5
80002ea8: 0b 30 07 00  	vx_join	a4
80002eac: 0b b0 06 00  	vx_join	a3
80002eb0: 67 80 00 00  	ret

Disassembly of section .rodata:

0000000080002eb8 <.rodata>:
80002eb8: 43 48 45 43  	fmadd.d	fa6, fa0, fs4, fs0, rmm
80002ebc: 4b 3a 20 63  	fnmsub.d	fs4, ft0, fs2, fa2, rup
80002ec0: 75 64        	<unknown>
80002ec2: 61 6d        	<unknown>
80002ec4: 65 6d        	<unknown>
80002ec6: 63 70 79 74  	bgeu	s2, t2, 0x80003606 <STARTUP_ADDR+0x3606>
80002eca: 6f 73 79 6d  	jal	t1, 0x8009ada0 <_end+0x96ae0>
80002ece: 62 6f        	<unknown>
80002ed0: 6c 2c        	<unknown>
80002ed2: 20 6e        	<unknown>
80002ed4: 75 6d        	<unknown>
80002ed6: 62 65        	<unknown>
80002ed8: 72 20        	<unknown>
80002eda: 6f 66 20 63  	jal	a2, 0x8000950c <_end+0x524c>
80002ede: 75 64        	<unknown>
80002ee0: 61 6d        	<unknown>
80002ee2: 65 6d        	<unknown>
80002ee4: 63 70 79 74  	bgeu	s2, t2, 0x80003624 <STARTUP_ADDR+0x3624>
80002ee8: 6f 73 79 6d  	jal	t1, 0x8009adbe <_end+0x96afe>
80002eec: 62 6f        	<unknown>
80002eee: 6c 3d        	<unknown>
80002ef0: 25 64        	<unknown>
80002ef2: 20 0a        	<unknown>
80002ef4: 00 00        	<unknown>
80002ef6: 00 00        	<unknown>
80002ef8: 65 72        	<unknown>
80002efa: 72 6f        	<unknown>
80002efc: 72 3a        	<unknown>
80002efe: 20 67        	<unknown>
80002f00: 72 6f        	<unknown>
80002f02: 75 70        	<unknown>
80002f04: 5f 73 69 7a  	<unknown>
80002f08: 65 20        	<unknown>
80002f0a: 3e 20        	<unknown>
80002f0c: 74 68        	<unknown>
80002f0e: 72 65        	<unknown>
80002f10: 61 64        	<unknown>
80002f12: 73 5f 70 65  	csrrwi	t5, 0x657, 0x0
80002f16: 72 5f        	<unknown>
80002f18: 63 6f 72 65  	bltu	tp, s7, 0x80003576 <STARTUP_ADDR+0x3576>
80002f1c: 20 28        	<unknown>
80002f1e: 25 64        	<unknown>
80002f20: 2c 25        	<unknown>
80002f22: 64 29        	<unknown>
80002f24: 0a 00        	<unknown>
80002f26: 00 00        	<unknown>
80002f28: 66 6e        	<unknown>
80002f2a: 69 2b        	<unknown>
80002f2c: 00 00        	<unknown>
80002f2e: 00 00        	<unknown>
80002f30: 66 6e        	<unknown>
80002f32: 69 00        	<unknown>
80002f34: 00 00        	<unknown>
80002f36: 00 00        	<unknown>
80002f38: 6e 61        	<unknown>
80002f3a: 6e 00        	<unknown>
80002f3c: 00 00        	<unknown>
80002f3e: 00 00        	<unknown>
80002f40: 66 6e        	<unknown>
80002f42: 69 2d        	<unknown>
80002f44: 00 00        	<unknown>
80002f46: 00 00        	<unknown>
80002f48: 08 ef        	<unknown>
80002f4a: ff ff 74 ee  	<unknown>
80002f4e: ff ff 74 ee  	<unknown>
80002f52: ff ff f8 ee  	<unknown>
80002f56: ff ff 74 ee  	<unknown>
80002f5a: ff ff 74 ee  	<unknown>
80002f5e: ff ff 74 ee  	<unknown>
80002f62: ff ff 74 ee  	<unknown>
80002f66: ff ff 74 ee  	<unknown>
80002f6a: ff ff 74 ee  	<unknown>
80002f6e: ff ff 74 ee  	<unknown>
80002f72: ff ff e8 ee  	<unknown>
80002f76: ff ff 74 ee  	<unknown>
80002f7a: ff ff d8 ee  	<unknown>
80002f7e: ff ff 74 ee  	<unknown>
80002f82: ff ff 74 ee  	<unknown>
80002f86: ff ff c8 ee  	<unknown>
80002f8a: ff ff 18 f1  	<unknown>
80002f8e: ff ff e4 ee  	<unknown>
80002f92: ff ff d4 ee  	<unknown>
80002f96: ff ff e4 ee  	<unknown>
80002f9a: ff ff f8 f0  	<unknown>
80002f9e: ff ff e4 ee  	<unknown>
80002fa2: ff ff e4 ee  	<unknown>
80002fa6: ff ff e4 ee  	<unknown>
80002faa: ff ff e4 ee  	<unknown>
80002fae: ff ff e4 ee  	<unknown>
80002fb2: ff ff e4 ee  	<unknown>
80002fb6: ff ff e4 ee  	<unknown>
80002fba: ff ff d4 ee  	<unknown>
80002fbe: ff ff e4 ee  	<unknown>
80002fc2: ff ff e4 ee  	<unknown>
80002fc6: ff ff e4 ee  	<unknown>
80002fca: ff ff e4 ee  	<unknown>
80002fce: ff ff e4 ee  	<unknown>
80002fd2: ff ff d4 ee  	<unknown>
80002fd6: ff ff 84 f1  	<unknown>
80002fda: ff ff 90 ed  	<unknown>
80002fde: ff ff 90 ed  	<unknown>
80002fe2: ff ff 90 ed  	<unknown>
80002fe6: ff ff 90 ed  	<unknown>
80002fea: ff ff 90 ed  	<unknown>
80002fee: ff ff 90 ed  	<unknown>
80002ff2: ff ff 90 ed  	<unknown>
80002ff6: ff ff 90 ed  	<unknown>
80002ffa: ff ff 90 ed  	<unknown>
80002ffe: ff ff 90 ed  	<unknown>
80003002: ff ff 90 ed  	<unknown>
80003006: ff ff 90 ed  	<unknown>
8000300a: ff ff 90 ed  	<unknown>
8000300e: ff ff 90 ed  	<unknown>
80003012: ff ff 90 ed  	<unknown>
80003016: ff ff 90 ed  	<unknown>
8000301a: ff ff 90 ed  	<unknown>
8000301e: ff ff 90 ed  	<unknown>
80003022: ff ff 90 ed  	<unknown>
80003026: ff ff 90 ed  	<unknown>
8000302a: ff ff 90 ed  	<unknown>
8000302e: ff ff 90 ed  	<unknown>
80003032: ff ff 90 ed  	<unknown>
80003036: ff ff 90 ed  	<unknown>
8000303a: ff ff 90 ed  	<unknown>
8000303e: ff ff 90 ed  	<unknown>
80003042: ff ff 90 ed  	<unknown>
80003046: ff ff 90 ed  	<unknown>
8000304a: ff ff 90 ed  	<unknown>
8000304e: ff ff 90 ed  	<unknown>
80003052: ff ff 90 ed  	<unknown>
80003056: ff ff 64 f0  	<unknown>
8000305a: ff ff e8 f0  	<unknown>
8000305e: ff ff 64 f0  	<unknown>
80003062: ff ff 90 ed  	<unknown>
80003066: ff ff 90 ed  	<unknown>
8000306a: ff ff 90 ed  	<unknown>
8000306e: ff ff 90 ed  	<unknown>
80003072: ff ff 90 ed  	<unknown>
80003076: ff ff 90 ed  	<unknown>
8000307a: ff ff 90 ed  	<unknown>
8000307e: ff ff 90 ed  	<unknown>
80003082: ff ff 90 ed  	<unknown>
80003086: ff ff 90 ed  	<unknown>
8000308a: ff ff 90 ed  	<unknown>
8000308e: ff ff 90 ed  	<unknown>
80003092: ff ff 90 ed  	<unknown>
80003096: ff ff 90 ed  	<unknown>
8000309a: ff ff 90 ed  	<unknown>
8000309e: ff ff 90 ed  	<unknown>
800030a2: ff ff f8 f2  	<unknown>
800030a6: ff ff 90 ed  	<unknown>
800030aa: ff ff 90 ed  	<unknown>
800030ae: ff ff 90 ed  	<unknown>
800030b2: ff ff 90 ed  	<unknown>
800030b6: ff ff 90 ed  	<unknown>
800030ba: ff ff 90 ed  	<unknown>
800030be: ff ff 90 ed  	<unknown>
800030c2: ff ff 90 ed  	<unknown>
800030c6: ff ff 90 ed  	<unknown>
800030ca: ff ff f8 f2  	<unknown>
800030ce: ff ff 20 f1  	<unknown>
800030d2: ff ff f8 f2  	<unknown>
800030d6: ff ff 64 f0  	<unknown>
800030da: ff ff e8 f0  	<unknown>
800030de: ff ff 64 f0  	<unknown>
800030e2: ff ff 00 00  	<unknown>
800030e6: 00 00        	<unknown>

00000000800030e8 <pow10.0>:
800030e8: 00 00        	<unknown>
800030ea: 00 00        	<unknown>
800030ec: 00 00        	<unknown>
800030ee: f0 3f        	<unknown>
800030f0: 00 00        	<unknown>
800030f2: 00 00        	<unknown>
800030f4: 00 00        	<unknown>
800030f6: 24 40        	<unknown>
800030f8: 00 00        	<unknown>
800030fa: 00 00        	<unknown>
800030fc: 00 00        	<unknown>
800030fe: 59 40        	<unknown>
80003100: 00 00        	<unknown>
80003102: 00 00        	<unknown>
80003104: 00 40        	<unknown>
80003106: 8f 40 00 00  	<unknown>
8000310a: 00 00        	<unknown>
8000310c: 00 88        	<unknown>
8000310e: c3 40 00 00  	fmadd.s	ft1, ft0, ft0, ft0, rmm
80003112: 00 00        	<unknown>
80003114: 00 6a        	<unknown>
80003116: f8 40        	<unknown>
80003118: 00 00        	<unknown>
8000311a: 00 00        	<unknown>
8000311c: 80 84        	<unknown>
8000311e: 2e 41        	<unknown>
80003120: 00 00        	<unknown>
80003122: 00 00        	<unknown>
80003124: d0 12        	<unknown>
80003126: 63 41 00 00  	bltz	zero, 0x80003128 <pow10.0+0x40>
8000312a: 00 00        	<unknown>
8000312c: 84 d7        	<unknown>
8000312e: 97 41 00 00  	auipc	gp, 0x4
80003132: 00 00        	<unknown>
80003134: 65 cd        	<unknown>
80003136: cd 41        	<unknown>

Disassembly of section .eh_frame:

0000000080003138 <.eh_frame>:
80003138: 10 00        	<unknown>
8000313a: 00 00        	<unknown>
8000313c: 00 00        	<unknown>
8000313e: 00 00        	<unknown>
80003140: 01 7a        	<unknown>
80003142: 52 00        	<unknown>
80003144: 01 78        	<unknown>
80003146: 01 01        	<unknown>
80003148: 1b 0c 02 00  	sext.w	s8, tp
8000314c: 10 00        	<unknown>
8000314e: 00 00        	<unknown>
80003150: 18 00        	<unknown>
80003152: 00 00        	<unknown>
80003154: 40 cf        	<unknown>
80003156: ff ff 08 00  	<unknown>
8000315a: 00 00        	<unknown>
8000315c: 00 00        	<unknown>
8000315e: 00 00        	<unknown>
80003160: 10 00        	<unknown>
80003162: 00 00        	<unknown>
80003164: 2c 00        	<unknown>
80003166: 00 00        	<unknown>
80003168: 34 cf        	<unknown>
8000316a: ff ff 4c 00  	<unknown>
8000316e: 00 00        	<unknown>
80003170: 00 00        	<unknown>
80003172: 00 00        	<unknown>
80003174: 20 00        	<unknown>
80003176: 00 00        	<unknown>
80003178: 40 00        	<unknown>
8000317a: 00 00        	<unknown>
8000317c: 6c cf        	<unknown>
8000317e: ff ff 2c 01  	<unknown>
80003182: 00 00        	<unknown>
80003184: 00 44        	<unknown>
80003186: 0e 40        	<unknown>
80003188: 5c 81        	<unknown>
8000318a: 01 88        	<unknown>
8000318c: 02 89        	<unknown>
8000318e: 03 92 04 93  	lh	tp, -0x6d0(s1)
80003192: 05 94        	<unknown>
80003194: 06 95        	<unknown>
80003196: 07           	<unknown>
80003197: 00           	<unknown>

Disassembly of section .tbss:

0000000080004198 <__tbss_start>:
...

Disassembly of section .got:

0000000080004198 <.got>:
80004198: ff ff ff ff  	<unknown>
8000419c: ff ff ff ff  	<unknown>
		...

00000000800041a8 <_GLOBAL_OFFSET_TABLE_>:
		...
800041b0: 20 00        	<unknown>
800041b2: 00 00        	<unknown>
800041b4: 00 00        	<unknown>
800041b6: 00 00        	<unknown>
800041b8: 30 00        	<unknown>
800041ba: 00 00        	<unknown>
800041bc: 00 00        	<unknown>
800041be: 00 00        	<unknown>
800041c0: 98 41        	<unknown>
800041c2: 00 80        	<unknown>
800041c4: 00 00        	<unknown>
800041c6: 00 00        	<unknown>
800041c8: 98 41        	<unknown>
800041ca: 00 80        	<unknown>
800041cc: 00 00        	<unknown>
800041ce: 00 00        	<unknown>

Disassembly of section .sdata:

00000000800041d0 <__SDATA_BEGIN__>:
800041d0: 00 00        	<unknown>
800041d2: 00 00        	<unknown>
800041d4: 65 cd        	<unknown>
800041d6: cd 41        	<unknown>
800041d8: 00 00        	<unknown>
800041da: 00 00        	<unknown>
800041dc: 80 84        	<unknown>
800041de: 2e 41        	<unknown>
800041e0: ff ff ff ff  	<unknown>
800041e4: ff ff ef ff  	<unknown>
800041e8: ff ff ff ff  	<unknown>
800041ec: ff ff ef 7f  	<unknown>
800041f0: 00 00        	<unknown>
800041f2: 00 00        	<unknown>
800041f4: 65 cd        	<unknown>
800041f6: cd c1        	<unknown>
800041f8: 00 00        	<unknown>
800041fa: 00 00        	<unknown>
800041fc: 00 00        	<unknown>
800041fe: e0 3f        	<unknown>
80004200: fb 79 9f 50  	<unknown>
80004204: 13 44 d3 3f  	xori	s0, t1, 0x3fd
80004208: b3 c8 60 8b  	<unknown>
8000420c: 28 8a        	<unknown>
8000420e: c6 3f        	<unknown>
80004210: 00 00        	<unknown>
80004212: 00 00        	<unknown>
80004214: 00 00        	<unknown>
80004216: f8 3f        	<unknown>
80004218: 61 43        	<unknown>
8000421a: 6f 63 a7 87  	jal	t1, 0x7ff7a294 <__tbss_size+0x7ff7a254>
8000421e: d2 3f        	<unknown>
80004220: 71 a3        	<unknown>
80004222: 79 09        	<unknown>
80004224: 4f 93 0a 40  	fnmadd.s	ft6, fs5, ft0, fs0, rtz
80004228: ef 39 fa fe  	jal	s3, 0x7ffa8216 <__tbss_size+0x7ffa81d6>
8000422c: 42 2e        	<unknown>
8000422e: e6 3f        	<unknown>
80004230: 16 55        	<unknown>
80004232: b5 bb        	<unknown>
80004234: b1 6b        	<unknown>
80004236: 02 40        	<unknown>
80004238: 00 00        	<unknown>
8000423a: 00 00        	<unknown>
8000423c: 00 00        	<unknown>
8000423e: 2c 40        	<unknown>
80004240: 00 00        	<unknown>
80004242: 00 00        	<unknown>
80004244: 00 00        	<unknown>
80004246: 24 40        	<unknown>
80004248: 00 00        	<unknown>
8000424a: 00 00        	<unknown>
8000424c: 00 00        	<unknown>
8000424e: 18 40        	<unknown>
80004250: 00 00        	<unknown>
80004252: 00 00        	<unknown>
80004254: 00 00        	<unknown>
80004256: 00 40        	<unknown>
80004258: 00 00        	<unknown>
8000425a: 00 00        	<unknown>
8000425c: 00 00        	<unknown>
8000425e: f0 3f        	<unknown>
80004260: 2d 43        	<unknown>
80004262: 1c eb        	<unknown>
80004264: e2 36        	<unknown>
80004266: 1a 3f        	<unknown>

0000000080004268 <vx_barrier_dummy>:
80004268: 94 00        	<unknown>
8000426a: 00 80        	<unknown>
8000426c: 00 00        	<unknown>
8000426e: 00 00        	<unknown>

0000000080004270 <callbacks>:
80004270: 9c 00        	<unknown>
80004272: 00 80        	<unknown>
80004274: 00 00        	<unknown>
80004276: 00 00        	<unknown>

Disassembly of section .sbss:

0000000080004278 <grid_size_x>:
...

000000008000427c <grid_size_y>:
...

0000000080004280 <grid_size_z>:
...

0000000080004284 <block_size_x>:
...

0000000080004288 <block_size_y>:
...

000000008000428c <block_size_z>:
...

0000000080004290 <block_size>:
...

0000000080004294 <dyn_shared_mem_size>:
...

0000000080004298 <__warps_per_group>:
...

Disassembly of section .bss:

00000000800042a0 <blockDim>:
...

00000000800042b0 <gridDim>:
...

Disassembly of section .comment:

0000000000000000 <.comment>:
       0: 63 6c 61 6e  	bltu	sp, t1, 0x6f8 <.comment+0x6f8>
       4: 67 20 76 65  	<unknown>
       8: 72 73        	<unknown>
       a: 69 6f        	<unknown>
       c: 6e 20        	<unknown>
       e: 31 38        	<unknown>
      10: 2e 31        	<unknown>
      12: 2e 37        	<unknown>
      14: 20 28        	<unknown>
      16: 68 74        	<unknown>
      18: 74 70        	<unknown>
      1a: 73 3a 2f 2f  	csrrc	s4, 0x2f2, t5
      1e: 67 69 74 68  	<unknown>
      22: 75 62        	<unknown>
      24: 2e 63        	<unknown>
      26: 6f 6d 2f 76  	jal	s10, 0xf6788 <.comment+0xf6788>
      2a: 6f 72 74 65  	jal	tp, 0x47e80 <.comment+0x47e80>
      2e: 78 67        	<unknown>
      30: 70 67        	<unknown>
      32: 70 75        	<unknown>
      34: 2f 6c 6c 76  	<unknown>
      38: 6d 2e        	<unknown>
      3a: 67 69 74 20  	<unknown>
      3e: 61 35        	<unknown>
      40: 65 62        	<unknown>
      42: 66 37        	<unknown>
      44: 66 32        	<unknown>
      46: 63 31 66 32  	<unknown>
      4a: 34 36        	<unknown>
      4c: 61 35        	<unknown>
      4e: 65 33        	<unknown>
      50: 61 30        	<unknown>
      52: 38 31        	<unknown>
      54: 61 34        	<unknown>
      56: 66 64        	<unknown>
      58: 31 35        	<unknown>
      5a: 37 36 32 34  	lui	a2, 0x34323
      5e: 37 65 35 37  	lui	a0, 0x37356
      62: 34 62        	<unknown>
      64: 33 30 29 00  	sltu	zero, s2, sp
      68: 63 6c 61 6e  	bltu	sp, t1, 0x760 <.comment+0x760>
      6c: 67 20 76 65  	<unknown>
      70: 72 73        	<unknown>
      72: 69 6f        	<unknown>
      74: 6e 20        	<unknown>
      76: 33 2e 38 2e  	<unknown>
      7a: 30 20        	<unknown>
      7c: 28 74        	<unknown>
      7e: 61 67        	<unknown>
      80: 73 2f 52 45  	csrrs	t5, 0x455, tp
      84: 4c 45        	<unknown>
      86: 41 53        	<unknown>
      88: 45 5f        	<unknown>
      8a: 33 38 30 2f  	<unknown>
      8e: 66 69        	<unknown>
      90: 6e 61        	<unknown>
      92: 6c 29        	<unknown>
      94: 00 63        	<unknown>
      96: 6c 61        	<unknown>
      98: 6e 67        	<unknown>
      9a: 20 76        	<unknown>
      9c: 65 72        	<unknown>
      9e: 73 69 6f 6e  	csrrsi	s2, 0x6e6, 0x1e
      a2: 20 31        	<unknown>
      a4: 38 2e        	<unknown>
      a6: 31 2e        	<unknown>
      a8: 37 20 28 68  	lui	zero, 0x68282
      ac: 74 74        	<unknown>
      ae: 70 73        	<unknown>
      b0: 3a 2f        	<unknown>
      b2: 2f 67 69 74  	<unknown>
      b6: 68 75        	<unknown>
      b8: 62 2e        	<unknown>
      ba: 63 6f 6d 2f  	bltu	s10, s6, 0x3b8 <.comment+0x3b8>
      be: 76 6f        	<unknown>
      c0: 72 74        	<unknown>
      c2: 65 78        	<unknown>
      c4: 67 70 67 70  	<unknown>
      c8: 75 2f        	<unknown>
      ca: 6c 6c        	<unknown>
      cc: 76 6d        	<unknown>
      ce: 2e 67        	<unknown>
      d0: 69 74        	<unknown>
      d2: 20 35        	<unknown>
      d4: 32 31        	<unknown>
      d6: 32 62        	<unknown>
      d8: 31 30        	<unknown>
      da: 31 36        	<unknown>
      dc: 30 65        	<unknown>
      de: 36 33        	<unknown>
      e0: 63 39 61 39  	<unknown>
      e4: 38 38        	<unknown>
      e6: 33 63 33 66  	<unknown>
      ea: 62 38        	<unknown>
      ec: 62 30        	<unknown>
      ee: 38 64        	<unknown>
      f0: 30 31        	<unknown>
      f2: 35 62        	<unknown>
      f4: 36 36        	<unknown>
      f6: 37 64 64 61  	lui	s0, 0x61646
      fa: 62 29        	<unknown>
      fc: 00 47        	<unknown>
      fe: 43 43 3a 20  	fmadd.s	ft6, fs4, ft3, ft4, rmm
     102: 28 67        	<unknown>
     104: 32 65        	<unknown>
     106: 65 35        	<unknown>
     108: 65 34        	<unknown>
     10a: 33 30 30 31  	<unknown>
     10e: 38 2d        	<unknown>
     110: 64 69        	<unknown>
     112: 72 74        	<unknown>
     114: 79 29        	<unknown>
     116: 20 31        	<unknown>
     118: 32 2e        	<unknown>
     11a: 32 2e        	<unknown>
     11c: 30 00        	<unknown>
     11e: 63 6c 61 6e  	bltu	sp, t1, 0x816 <.comment+0x816>
     122: 67 20 76 65  	<unknown>
     126: 72 73        	<unknown>
     128: 69 6f        	<unknown>
     12a: 6e 20        	<unknown>
     12c: 31 38        	<unknown>
     12e: 2e 31        	<unknown>
     130: 2e 36        	<unknown>
     132: 20 28        	<unknown>
     134: 68 74        	<unknown>
     136: 74 70        	<unknown>
     138: 73 3a 2f 2f  	csrrc	s4, 0x2f2, t5
     13c: 67 69 74 68  	<unknown>
     140: 75 62        	<unknown>
     142: 2e 63        	<unknown>
     144: 6f 6d 2f 6c  	jal	s10, 0xf6806 <.comment+0xf6806>
     148: 6c 76        	<unknown>
     14a: 6d 2f        	<unknown>
     14c: 6c 6c        	<unknown>
     14e: 76 6d        	<unknown>
     150: 2d 70        	<unknown>
     152: 72 6f        	<unknown>
     154: 6a 65        	<unknown>
     156: 63 74 2e 67  	bgeu	t3, s2, 0x7be <.comment+0x7be>
     15a: 69 74        	<unknown>
     15c: 20 31        	<unknown>
     15e: 64 36        	<unknown>
     160: 31 62        	<unknown>
     162: 34 30        	<unknown>
     164: 34 34        	<unknown>
     166: 64 64        	<unknown>
     168: 64 64        	<unknown>
     16a: 61 36        	<unknown>
     16c: 35 65        	<unknown>
     16e: 39 38        	<unknown>
     170: 65 37        	<unknown>
     172: 39 32        	<unknown>
     174: 38 66        	<unknown>
     176: 64 33        	<unknown>
     178: 39 35        	<unknown>
     17a: 65 36        	<unknown>
     17c: 61 39        	<unknown>
     17e: 35 31        	<unknown>
     180: 63 35 61 38  	<unknown>
     184: 66 29        	<unknown>
     186: 00           	<unknown>

Disassembly of section .riscv.attributes:

0000000000000000 <.riscv.attributes>:
       0: 41 4f        	<unknown>
       2: 00 00        	<unknown>
       4: 00 72        	<unknown>
       6: 69 73        	<unknown>
       8: 63 76 00 01  	bgeu	zero, a6, 0x14 <.comment+0x14>
       c: 45 00        	<unknown>
       e: 00 00        	<unknown>
      10: 04 10        	<unknown>
      12: 05 72        	<unknown>
      14: 76 36        	<unknown>
      16: 34 69        	<unknown>
      18: 32 70        	<unknown>
      1a: 31 5f        	<unknown>
      1c: 6d 32        	<unknown>
      1e: 70 30        	<unknown>
      20: 5f 61 32 70  	<unknown>
      24: 31 5f        	<unknown>
      26: 66 32        	<unknown>
      28: 70 32        	<unknown>
      2a: 5f 64 32 70  	<unknown>
      2e: 32 5f        	<unknown>
      30: 7a 69        	<unknown>
      32: 63 6f 6e 64  	bltu	t3, t1, 0x690 <.comment+0x690>
      36: 31 70        	<unknown>
      38: 30 5f        	<unknown>
      3a: 7a 69        	<unknown>
      3c: 63 73 72 32  	bgeu	tp, t2, 0x362 <.comment+0x362>
      40: 70 30        	<unknown>
      42: 5f 7a 6d 6d  	<unknown>
      46: 75 6c        	<unknown>
      48: 31 70        	<unknown>
      4a: 30 00        	<unknown>
      4c: 08 01        	<unknown>
      4e: 0a 0b        	<unknown>

Disassembly of section .debug_info:

0000000000000000 <.debug_info>:
       0: 26 44        	<unknown>
       2: 00 00        	<unknown>
       4: 02 00        	<unknown>
       6: 00 00        	<unknown>
       8: 00 00        	<unknown>
       a: 08 01        	<unknown>
       c: 00 00        	<unknown>
       e: 00 00        	<unknown>
      10: 1a 00        	<unknown>
      12: 68 00        	<unknown>
      14: 00 00        	<unknown>
      16: 00 00        	<unknown>
      18: 00 00        	<unknown>
      1a: 70 00        	<unknown>
      1c: 00 00        	<unknown>
      1e: 02 90        	<unknown>
      20: 0c 00        	<unknown>
      22: 00 02        	<unknown>
      24: 95 00        	<unknown>
      26: 00 00        	<unknown>
      28: 02 9c        	<unknown>
      2a: 00 00        	<unknown>
      2c: 00 03        	<unknown>
      2e: 03 01 00 00  	lb	sp, 0x0(zero)
      32: 08 01        	<unknown>
      34: 58 04        	<unknown>
      36: a3 00 00 00  	sb	zero, 0x1(zero)
      3a: 23 04 a9 00  	sb	a0, 0x8(s2)
      3e: 00 00        	<unknown>
      40: 25 04        	<unknown>
      42: af 00 00 00  	<unknown>
      46: 32 04        	<unknown>
      48: b5 00        	<unknown>
      4a: 00 00        	<unknown>
      4c: 34 04        	<unknown>
      4e: bb 00 00 00  	addw	ra, zero, zero
      52: 35 04        	<unknown>
      54: c1 00        	<unknown>
      56: 00 00        	<unknown>
      58: 3c 04        	<unknown>
      5a: c7 00 00 00  	fmsub.s	ft1, ft0, ft0, ft0, rne
      5e: 3d 04        	<unknown>
      60: cd 00        	<unknown>
      62: 00 00        	<unknown>
      64: 3e 04        	<unknown>
      66: d3 00 00 00  	fadd.s	ft1, ft0, ft0, rne
      6a: 46 04        	<unknown>
      6c: d9 00        	<unknown>
      6e: 00 00        	<unknown>
      70: 48 04        	<unknown>
      72: df 00 00 00  	<unknown>
      76: 4b 04 e5 00  	fnmsub.s	fs0, fa0, fa4, ft0, rne
      7a: 00 00        	<unknown>
      7c: 50 04        	<unknown>
      7e: eb 00 00 00  	<unknown>
      82: 56 04        	<unknown>
      84: f1 00        	<unknown>
      86: 00 00        	<unknown>
      88: 57 04 f7 00  	<unknown>
      8c: 00 00        	<unknown>
      8e: 59 04        	<unknown>
      90: fd 00        	<unknown>
      92: 00 00        	<unknown>
      94: 5a 00        	<unknown>
      96: 05 05        	<unknown>
      98: 35 01        	<unknown>
      9a: 00 00        	<unknown>
      9c: 08 01        	<unknown>
      9e: 51 06        	<unknown>
      a0: 0f 01 00 00  	<unknown>
      a4: c3 00 00 00  	fmadd.s	ft1, ft0, ft0, ft0, rne
      a8: 01 52        	<unknown>
      aa: 02 23        	<unknown>
      ac: 00 07        	<unknown>
      ae: 35 01        	<unknown>
      b0: 00 00        	<unknown>
      b2: 01 54        	<unknown>
      b4: 01 01        	<unknown>
      b6: 08 22        	<unknown>
      b8: 01 00        	<unknown>
      ba: 00 01        	<unknown>
      bc: 09 c3        	<unknown>
      be: 00 00        	<unknown>
      c0: 00 00        	<unknown>
      c2: 00 0a        	<unknown>
      c4: 1b 01 00 00  	sext.w	sp, zero
      c8: 2a 01        	<unknown>
      ca: 00 00        	<unknown>
      cc: 01 32        	<unknown>
      ce: 0b 1e 10 00  	<unknown>
      d2: 00 52        	<unknown>
      d4: 10 00        	<unknown>
      d6: 00 01        	<unknown>
      d8: 8e 96        	<unknown>
      da: 00 00        	<unknown>
      dc: 00 01        	<unknown>
      de: 01 09        	<unknown>
      e0: 2d 00        	<unknown>
      e2: 00 00        	<unknown>
      e4: 00 0b        	<unknown>
      e6: 5d 10        	<unknown>
      e8: 00 00        	<unknown>
      ea: 8e 10        	<unknown>
      ec: 00 00        	<unknown>
      ee: 01 93        	<unknown>
      f0: 96 00        	<unknown>
      f2: 00 00        	<unknown>
      f4: 01 01        	<unknown>
      f6: 09 2d        	<unknown>
      f8: 00 00        	<unknown>
      fa: 00 00        	<unknown>
      fc: 00 0c        	<unknown>
      fe: 01 ab        	<unknown>
     100: 96 00        	<unknown>
     102: 00 00        	<unknown>
     104: 0c 01        	<unknown>
     106: ac 2d        	<unknown>
     108: 00 00        	<unknown>
     10a: 00 0c        	<unknown>
     10c: 01 ca        	<unknown>
     10e: ce 00        	<unknown>
     110: 00 00        	<unknown>
     112: 0c 01        	<unknown>
     114: cb e5 00 00  	<unknown>
     118: 00 00        	<unknown>
     11a: 00 0d        	<unknown>
     11c: 17 01 00 00  	auipc	sp, 0x0
     120: 07 08 0e 96  	<unknown>
     124: 00 00        	<unknown>
     126: 00 0f        	<unknown>
     128: 05 7c        	<unknown>
     12a: 02 00        	<unknown>
     12c: 00 0c        	<unknown>
     12e: 02 a2        	<unknown>
     130: 01 10        	<unknown>
     132: bc 01        	<unknown>
     134: 00 00        	<unknown>
     136: ae 01        	<unknown>
     138: 00 00        	<unknown>
     13a: 02 a4        	<unknown>
     13c: 01 02        	<unknown>
     13e: 23 00 10 02  	sb	ra, 0x20(zero)
     142: 02 00        	<unknown>
     144: 00 ae        	<unknown>
     146: 01 00        	<unknown>
     148: 00 02        	<unknown>
     14a: a4 01        	<unknown>
     14c: 02 23        	<unknown>
     14e: 04 10        	<unknown>
     150: 48 02        	<unknown>
     152: 00 00        	<unknown>
     154: ae 01        	<unknown>
     156: 00 00        	<unknown>
     158: 02 a4        	<unknown>
     15a: 01 02        	<unknown>
     15c: 23 08 11 7c  	sb	ra, 0x7d0(sp)
     160: 02 00        	<unknown>
     162: 00 02        	<unknown>
     164: a7 01 01 01  	<unknown>
     168: 08 b5        	<unknown>
     16a: 01 00        	<unknown>
     16c: 00 01        	<unknown>
     16e: 09 ae        	<unknown>
     170: 01 00        	<unknown>
     172: 00 09        	<unknown>
     174: ae 01        	<unknown>
     176: 00 00        	<unknown>
     178: 09 ae        	<unknown>
     17a: 01 00        	<unknown>
     17c: 00 00        	<unknown>
     17e: 11 7c        	<unknown>
     180: 02 00        	<unknown>
     182: 00 02        	<unknown>
     184: a8 01        	<unknown>
     186: 01 01        	<unknown>
     188: 08 b5        	<unknown>
     18a: 01 00        	<unknown>
     18c: 00 01        	<unknown>
     18e: 09 ba        	<unknown>
     190: 01 00        	<unknown>
     192: 00 00        	<unknown>
     194: 12 55        	<unknown>
     196: 01 00        	<unknown>
     198: 00 69        	<unknown>
     19a: 01 00        	<unknown>
     19c: 00 02        	<unknown>
     19e: a9 01        	<unknown>
     1a0: ba 01        	<unknown>
     1a2: 00 00        	<unknown>
     1a4: 01 01        	<unknown>
     1a6: 08 fa        	<unknown>
     1a8: 01 00        	<unknown>
     1aa: 00 01        	<unknown>
     1ac: 00 00        	<unknown>
     1ae: 0d 48        	<unknown>
     1b0: 01 00        	<unknown>
     1b2: 00 07        	<unknown>
     1b4: 04 0e        	<unknown>
     1b6: 27 01 00 00  	<unknown>
     1ba: 13 c6 01 00  	xori	a2, gp, 0x0
     1be: 00 72        	<unknown>
     1c0: 01 00        	<unknown>
     1c2: 00 02        	<unknown>
     1c4: 80 01        	<unknown>
     1c6: 05 05        	<unknown>
     1c8: 72 01        	<unknown>
     1ca: 00 00        	<unknown>
     1cc: 0c 02        	<unknown>
     1ce: c0 06        	<unknown>
     1d0: bc 01        	<unknown>
     1d2: 00 00        	<unknown>
     1d4: ae 01        	<unknown>
     1d6: 00 00        	<unknown>
     1d8: 02 c2        	<unknown>
     1da: 02 23        	<unknown>
     1dc: 00 06        	<unknown>
     1de: 02 02        	<unknown>
     1e0: 00 00        	<unknown>
     1e2: ae 01        	<unknown>
     1e4: 00 00        	<unknown>
     1e6: 02 c2        	<unknown>
     1e8: 02 23        	<unknown>
     1ea: 04 06        	<unknown>
     1ec: 48 02        	<unknown>
     1ee: 00 00        	<unknown>
     1f0: ae 01        	<unknown>
     1f2: 00 00        	<unknown>
     1f4: 02 c2        	<unknown>
     1f6: 02 23        	<unknown>
     1f8: 08 00        	<unknown>
     1fa: 0e ff        	<unknown>
     1fc: 01 00        	<unknown>
     1fe: 00 14        	<unknown>
     200: 27 01 00 00  	<unknown>
     204: 05 04        	<unknown>
     206: ab 02 00 00  	vx_tex	t0, zero, zero, zero
     20a: 01 03        	<unknown>
     20c: 41 15        	<unknown>
     20e: 78 01        	<unknown>
     210: 00 00        	<unknown>
     212: ac 01        	<unknown>
     214: 00 00        	<unknown>
     216: 03 42 ae 01  	lbu	tp, 0x1a(t3)
     21a: 00 00        	<unknown>
     21c: 01 01        	<unknown>
     21e: 15 be        	<unknown>
     220: 01 00        	<unknown>
     222: 00 f2        	<unknown>
     224: 01 00        	<unknown>
     226: 00 03        	<unknown>
     228: 43 ae 01 00  	fmadd.s	ft8, ft3, ft0, ft0, rdn
     22c: 00 01        	<unknown>
     22e: 01 15        	<unknown>
     230: 04 02        	<unknown>
     232: 00 00        	<unknown>
     234: 38 02        	<unknown>
     236: 00 00        	<unknown>
     238: 03 44 ae 01  	lbu	s0, 0x1a(t3)
     23c: 00 00        	<unknown>
     23e: 01 01        	<unknown>
     240: 0b 4a 02 00  	<unknown>
     244: 00 73        	<unknown>
     246: 02 00        	<unknown>
     248: 00 03        	<unknown>
     24a: 47 27 01 00  	fmsub.s	fa4, ft2, ft0, ft0, rdn
     24e: 00 01        	<unknown>
     250: 01 08        	<unknown>
     252: cb 02 00 00  	fnmsub.s	ft5, ft0, ft0, ft0, rne
     256: 01 00        	<unknown>
     258: 0b 81 02 00  	<unknown>
     25c: 00 69        	<unknown>
     25e: 01 00        	<unknown>
     260: 00 03        	<unknown>
     262: 48 c6        	<unknown>
     264: 01 00        	<unknown>
     266: 00 01        	<unknown>
     268: 01 08        	<unknown>
     26a: cb 02 00 00  	fnmsub.s	ft5, ft0, ft0, ft0, rne
     26e: 01 00        	<unknown>
     270: 16 ab        	<unknown>
     272: 02 00        	<unknown>
     274: 00 03        	<unknown>
     276: 4b 01 01 03  	fnmsub.d	ft2, ft2, fa6, ft0, rne
     27a: 08 d5        	<unknown>
     27c: 02 00        	<unknown>
     27e: 00 01        	<unknown>
     280: 00 16        	<unknown>
     282: ab 02 00 00  	vx_tex	t0, zero, zero, zero
     286: 03 4b 01 01  	lbu	s6, 0x10(sp)
     28a: 03 08 d5 02  	lb	a6, 0x2d(a0)
     28e: 00 00        	<unknown>
     290: 01 09        	<unknown>
     292: da 02        	<unknown>
     294: 00 00        	<unknown>
     296: 00 17        	<unknown>
     298: c5 02        	<unknown>
     29a: 00 00        	<unknown>
     29c: ec 02        	<unknown>
     29e: 00 00        	<unknown>
     2a0: 03 4b 01 01  	lbu	s6, 0x10(sp)
     2a4: 03 08 cb 02  	lb	a6, 0x2c(s6)
     2a8: 00 00        	<unknown>
     2aa: 01 09        	<unknown>
     2ac: da 02        	<unknown>
     2ae: 00 00        	<unknown>
     2b0: 00 18        	<unknown>
     2b2: f6 02        	<unknown>
     2b4: 00 00        	<unknown>
     2b6: 1a 03        	<unknown>
     2b8: 00 00        	<unknown>
     2ba: 03 4b df 02  	lbu	s6, 0x2d(t5)
     2be: 00 00        	<unknown>
     2c0: 01 01        	<unknown>
     2c2: 03 08 cb 02  	lb	a6, 0x2c(s6)
     2c6: 00 00        	<unknown>
     2c8: 01 00        	<unknown>
     2ca: 00 0e        	<unknown>
     2cc: d0 02        	<unknown>
     2ce: 00 00        	<unknown>
     2d0: 14 04        	<unknown>
     2d2: 02 00        	<unknown>
     2d4: 00 0e        	<unknown>
     2d6: 04 02        	<unknown>
     2d8: 00 00        	<unknown>
     2da: 19 d0        	<unknown>
     2dc: 02 00        	<unknown>
     2de: 00 0e        	<unknown>
     2e0: 04 02        	<unknown>
     2e2: 00 00        	<unknown>
     2e4: 05 04        	<unknown>
     2e6: 13 04 00 00  	li	s0, 0x0
     2ea: 01 03        	<unknown>
     2ec: 4e 15        	<unknown>
     2ee: 24 03        	<unknown>
     2f0: 00 00        	<unknown>
     2f2: ac 01        	<unknown>
     2f4: 00 00        	<unknown>
     2f6: 03 4f ae 01  	lbu	t5, 0x1a(t3)
     2fa: 00 00        	<unknown>
     2fc: 01 01        	<unknown>
     2fe: 15 58        	<unknown>
     300: 03 00 00 f2  	lb	zero, -0xe0(zero)
     304: 01 00        	<unknown>
     306: 00 03        	<unknown>
     308: 50 ae        	<unknown>
     30a: 01 00        	<unknown>
     30c: 00 01        	<unknown>
     30e: 01 15        	<unknown>
     310: 8c 03        	<unknown>
     312: 00 00        	<unknown>
     314: 38 02        	<unknown>
     316: 00 00        	<unknown>
     318: 03 51 ae 01  	lhu	sp, 0x1a(t3)
     31c: 00 00        	<unknown>
     31e: 01 01        	<unknown>
     320: 0b c0 03 00  	vx_bar	t2, zero
     324: 00 73        	<unknown>
     326: 02 00        	<unknown>
     328: 00 03        	<unknown>
     32a: 54 27        	<unknown>
     32c: 01 00        	<unknown>
     32e: 00 01        	<unknown>
     330: 01 08        	<unknown>
     332: ab 03 00 00  	vx_tex	t2, zero, zero, zero
     336: 01 00        	<unknown>
     338: 0b e9 03 00  	<unknown>
     33c: 00 69        	<unknown>
     33e: 01 00        	<unknown>
     340: 00 03        	<unknown>
     342: 55 c6        	<unknown>
     344: 01 00        	<unknown>
     346: 00 01        	<unknown>
     348: 01 08        	<unknown>
     34a: ab 03 00 00  	vx_tex	t2, zero, zero, zero
     34e: 01 00        	<unknown>
     350: 16 13        	<unknown>
     352: 04 00        	<unknown>
     354: 00 03        	<unknown>
     356: 58 01        	<unknown>
     358: 01 03        	<unknown>
     35a: 08 b5        	<unknown>
     35c: 03 00 00 01  	lb	zero, 0x10(zero)
     360: 00 16        	<unknown>
     362: 13 04 00 00  	li	s0, 0x0
     366: 03 58 01 01  	lhu	a6, 0x10(sp)
     36a: 03 08 b5 03  	lb	a6, 0x3b(a0)
     36e: 00 00        	<unknown>
     370: 01 09        	<unknown>
     372: ba 03        	<unknown>
     374: 00 00        	<unknown>
     376: 00 17        	<unknown>
     378: 2d 04        	<unknown>
     37a: 00 00        	<unknown>
     37c: ec 02        	<unknown>
     37e: 00 00        	<unknown>
     380: 03 58 01 01  	lhu	a6, 0x10(sp)
     384: 03 08 ab 03  	lb	a6, 0x3a(s6)
     388: 00 00        	<unknown>
     38a: 01 09        	<unknown>
     38c: ba 03        	<unknown>
     38e: 00 00        	<unknown>
     390: 00 18        	<unknown>
     392: 54 04        	<unknown>
     394: 00 00        	<unknown>
     396: 1a 03        	<unknown>
     398: 00 00        	<unknown>
     39a: 03 58 bf 03  	lhu	a6, 0x3b(t5)
     39e: 00 00        	<unknown>
     3a0: 01 01        	<unknown>
     3a2: 03 08 ab 03  	lb	a6, 0x3a(s6)
     3a6: 00 00        	<unknown>
     3a8: 01 00        	<unknown>
     3aa: 00 0e        	<unknown>
     3ac: b0 03        	<unknown>
     3ae: 00 00        	<unknown>
     3b0: 14 e4        	<unknown>
     3b2: 02 00        	<unknown>
     3b4: 00 0e        	<unknown>
     3b6: e4 02        	<unknown>
     3b8: 00 00        	<unknown>
     3ba: 19 b0        	<unknown>
     3bc: 03 00 00 0e  	lb	zero, 0xe0(zero)
     3c0: e4 02        	<unknown>
     3c2: 00 00        	<unknown>
     3c4: 05 04        	<unknown>
     3c6: 6c 05        	<unknown>
     3c8: 00 00        	<unknown>
     3ca: 01 03        	<unknown>
     3cc: 34 15        	<unknown>
     3ce: 78 04        	<unknown>
     3d0: 00 00        	<unknown>
     3d2: ac 01        	<unknown>
     3d4: 00 00        	<unknown>
     3d6: 03 35 ae 01  	ld	a0, 0x1a(t3)
     3da: 00 00        	<unknown>
     3dc: 01 01        	<unknown>
     3de: 15 ad        	<unknown>
     3e0: 04 00        	<unknown>
     3e2: 00 f2        	<unknown>
     3e4: 01 00        	<unknown>
     3e6: 00 03        	<unknown>
     3e8: 36 ae        	<unknown>
     3ea: 01 00        	<unknown>
     3ec: 00 01        	<unknown>
     3ee: 01 15        	<unknown>
     3f0: e2 04        	<unknown>
     3f2: 00 00        	<unknown>
     3f4: 38 02        	<unknown>
     3f6: 00 00        	<unknown>
     3f8: 03 37 ae 01  	ld	a4, 0x1a(t3)
     3fc: 00 00        	<unknown>
     3fe: 01 01        	<unknown>
     400: 0b 17 05 00  	<unknown>
     404: 00 73        	<unknown>
     406: 02 00        	<unknown>
     408: 00 03        	<unknown>
     40a: 3a 27        	<unknown>
     40c: 01 00        	<unknown>
     40e: 00 01        	<unknown>
     410: 01 08        	<unknown>
     412: 8b 04 00 00  	<unknown>
     416: 01 00        	<unknown>
     418: 0b 41 05 00  	<unknown>
     41c: 00 69        	<unknown>
     41e: 01 00        	<unknown>
     420: 00 03        	<unknown>
     422: 3b c6 01 00  	<unknown>
     426: 00 01        	<unknown>
     428: 01 08        	<unknown>
     42a: 8b 04 00 00  	<unknown>
     42e: 01 00        	<unknown>
     430: 16 6c        	<unknown>
     432: 05 00        	<unknown>
     434: 00 03        	<unknown>
     436: 3e 01        	<unknown>
     438: 01 03        	<unknown>
     43a: 08 95        	<unknown>
     43c: 04 00        	<unknown>
     43e: 00 01        	<unknown>
     440: 00 16        	<unknown>
     442: 6c 05        	<unknown>
     444: 00 00        	<unknown>
     446: 03 3e 01 01  	ld	t3, 0x10(sp)
     44a: 03 08 95 04  	lb	a6, 0x49(a0)
     44e: 00 00        	<unknown>
     450: 01 09        	<unknown>
     452: 9a 04        	<unknown>
     454: 00 00        	<unknown>
     456: 00 17        	<unknown>
     458: 87 05 00 00  	<unknown>
     45c: ec 02        	<unknown>
     45e: 00 00        	<unknown>
     460: 03 3e 01 01  	ld	t3, 0x10(sp)
     464: 03 08 8b 04  	lb	a6, 0x48(s6)
     468: 00 00        	<unknown>
     46a: 01 09        	<unknown>
     46c: 9a 04        	<unknown>
     46e: 00 00        	<unknown>
     470: 00 18        	<unknown>
     472: af 05 00 00  	<unknown>
     476: 1a 03        	<unknown>
     478: 00 00        	<unknown>
     47a: 03 3e 9f 04  	ld	t3, 0x49(t5)
     47e: 00 00        	<unknown>
     480: 01 01        	<unknown>
     482: 03 08 8b 04  	lb	a6, 0x48(s6)
     486: 00 00        	<unknown>
     488: 01 00        	<unknown>
     48a: 00 0e        	<unknown>
     48c: 90 04        	<unknown>
     48e: 00 00        	<unknown>
     490: 14 c4        	<unknown>
     492: 03 00 00 0e  	lb	zero, 0xe0(zero)
     496: c4 03        	<unknown>
     498: 00 00        	<unknown>
     49a: 19 90        	<unknown>
     49c: 04 00        	<unknown>
     49e: 00 0e        	<unknown>
     4a0: c4 03        	<unknown>
     4a2: 00 00        	<unknown>
     4a4: 02 d4        	<unknown>
     4a6: 05 00        	<unknown>
     4a8: 00 0c        	<unknown>
     4aa: 04 c8        	<unknown>
     4ac: ea 13        	<unknown>
     4ae: 00 00        	<unknown>
     4b0: 0c 04        	<unknown>
     4b2: c9 07        	<unknown>
     4b4: 14 00        	<unknown>
     4b6: 00 0c        	<unknown>
     4b8: 04 ca        	<unknown>
     4ba: 24 14        	<unknown>
     4bc: 00 00        	<unknown>
     4be: 0c 04        	<unknown>
     4c0: cb 3a 14 00  	fnmsub.s	fs5, fs0, ft1, ft0, rup
     4c4: 00 0c        	<unknown>
     4c6: 04 cc        	<unknown>
     4c8: 50 14        	<unknown>
     4ca: 00 00        	<unknown>
     4cc: 0c 04        	<unknown>
     4ce: cd 66        	<unknown>
     4d0: 14 00        	<unknown>
     4d2: 00 0c        	<unknown>
     4d4: 04 ce        	<unknown>
     4d6: 7c 14        	<unknown>
     4d8: 00 00        	<unknown>
     4da: 0c 04        	<unknown>
     4dc: cf 97 14 00  	fnmadd.s	fa5, fs1, ft1, ft0, rtz
     4e0: 00 0c        	<unknown>
     4e2: 04 d0        	<unknown>
     4e4: ad 14        	<unknown>
     4e6: 00 00        	<unknown>
     4e8: 0c 04        	<unknown>
     4ea: d1 c3        	<unknown>
     4ec: 14 00        	<unknown>
     4ee: 00 0c        	<unknown>
     4f0: 04 d2        	<unknown>
     4f2: d9 14        	<unknown>
     4f4: 00 00        	<unknown>
     4f6: 0c 04        	<unknown>
     4f8: d3 f4 14 00  	fadd.s	fs1, fs1, ft1
     4fc: 00 0c        	<unknown>
     4fe: 04 d4        	<unknown>
     500: 0a 15        	<unknown>
     502: 00 00        	<unknown>
     504: 0c 04        	<unknown>
     506: d5 20        	<unknown>
     508: 15 00        	<unknown>
     50a: 00 0c        	<unknown>
     50c: 04 d6        	<unknown>
     50e: 36 15        	<unknown>
     510: 00 00        	<unknown>
     512: 0c 04        	<unknown>
     514: d7 4c 15 00  	<unknown>
     518: 00 0c        	<unknown>
     51a: 04 d8        	<unknown>
     51c: 62 15        	<unknown>
     51e: 00 00        	<unknown>
     520: 0c 04        	<unknown>
     522: d9 78        	<unknown>
     524: 15 00        	<unknown>
     526: 00 0c        	<unknown>
     528: 04 da        	<unknown>
     52a: 8e 15        	<unknown>
     52c: 00 00        	<unknown>
     52e: 0c 04        	<unknown>
     530: db a4 15 00  	<unknown>
     534: 00 0c        	<unknown>
     536: 04 dc        	<unknown>
     538: bf 15 00 00  	<unknown>
     53c: 0c 04        	<unknown>
     53e: dd d5        	<unknown>
     540: 15 00        	<unknown>
     542: 00 0c        	<unknown>
     544: 04 de        	<unknown>
     546: f5 15        	<unknown>
     548: 00 00        	<unknown>
     54a: 0c 04        	<unknown>
     54c: df 10 16 00  	<unknown>
     550: 00 0c        	<unknown>
     552: 04 e0        	<unknown>
     554: 2b 16 00 00  	<unknown>
     558: 0c 04        	<unknown>
     55a: e1 46        	<unknown>
     55c: 16 00        	<unknown>
     55e: 00 0c        	<unknown>
     560: 04 e2        	<unknown>
     562: 5c 16        	<unknown>
     564: 00 00        	<unknown>
     566: 0c 04        	<unknown>
     568: e3 7c 16 00  	bgeu	a2, ra, 0xd80 <.debug_info+0xd80>
     56c: 00 0c        	<unknown>
     56e: 04 e4        	<unknown>
     570: 97 16 00 00  	auipc	a3, 0x1
     574: 0c 04        	<unknown>
     576: e5 ad        	<unknown>
     578: 16 00        	<unknown>
     57a: 00 0c        	<unknown>
     57c: 04 e6        	<unknown>
     57e: ca 16        	<unknown>
     580: 00 00        	<unknown>
     582: 0c 04        	<unknown>
     584: e7 e5 16 00  	<unknown>
     588: 00 0c        	<unknown>
     58a: 04 e8        	<unknown>
     58c: 00 17        	<unknown>
     58e: 00 00        	<unknown>
     590: 0c 04        	<unknown>
     592: e9 16        	<unknown>
     594: 17 00 00 0c  	auipc	zero, 0xc000
     598: 04 ea        	<unknown>
     59a: 31 17        	<unknown>
     59c: 00 00        	<unknown>
     59e: 0c 04        	<unknown>
     5a0: eb 4c 17 00  	<unknown>
     5a4: 00 0c        	<unknown>
     5a6: 04 ec        	<unknown>
     5a8: 67 17 00 00  	<unknown>
     5ac: 0c 04        	<unknown>
     5ae: ed 7d        	<unknown>
     5b0: 17 00 00 0c  	auipc	zero, 0xc000
     5b4: 04 ee        	<unknown>
     5b6: 93 17 00 00  	slli	a5, zero, 0x0
     5ba: 0c 04        	<unknown>
     5bc: ef ae 17 00  	jal	t4, 0x7adbc <.debug_info+0x7adbc>
     5c0: 00 0c        	<unknown>
     5c2: 04 f0        	<unknown>
     5c4: cb 17 00 00  	fnmsub.s	fa5, ft0, ft0, ft0, rtz
     5c8: 0c 04        	<unknown>
     5ca: f1 e6        	<unknown>
     5cc: 17 00 00 0c  	auipc	zero, 0xc000
     5d0: 04 f2        	<unknown>
     5d2: fc 17        	<unknown>
     5d4: 00 00        	<unknown>
     5d6: 0c 04        	<unknown>
     5d8: f3 19 18 00  	fsflags	s3, a6
     5dc: 00 0c        	<unknown>
     5de: 04 f4        	<unknown>
     5e0: 2f 18 00 00  	<unknown>
     5e4: 0c 04        	<unknown>
     5e6: f5 45        	<unknown>
     5e8: 18 00        	<unknown>
     5ea: 00 0c        	<unknown>
     5ec: 04 f6        	<unknown>
     5ee: 5b 18 00 00  	<unknown>
     5f2: 0c 04        	<unknown>
     5f4: f7 71 18 00  	<unknown>
     5f8: 00 0c        	<unknown>
     5fa: 04 f8        	<unknown>
     5fc: 87 18 00 00  	<unknown>
     600: 0c 04        	<unknown>
     602: f9 9d        	<unknown>
     604: 18 00        	<unknown>
     606: 00 0c        	<unknown>
     608: 04 fa        	<unknown>
     60a: b3 18 00 00  	sll	a7, zero, zero
     60e: 0c 04        	<unknown>
     610: fb c9 18 00  	<unknown>
     614: 00 0c        	<unknown>
     616: 04 fc        	<unknown>
     618: df 18 00 00  	<unknown>
     61c: 0c 04        	<unknown>
     61e: fd ff        	<unknown>
     620: 18 00        	<unknown>
     622: 00 0c        	<unknown>
     624: 04 fe        	<unknown>
     626: 2d 19        	<unknown>
     628: 00 00        	<unknown>
     62a: 0c 04        	<unknown>
     62c: ff 43 19 00  	<unknown>
     630: 00 1a        	<unknown>
     632: 04 00        	<unknown>
     634: 01 59        	<unknown>
     636: 19 00        	<unknown>
     638: 00 1a        	<unknown>
     63a: 04 01        	<unknown>
     63c: 01 74        	<unknown>
     63e: 19 00        	<unknown>
     640: 00 1a        	<unknown>
     642: 04 02        	<unknown>
     644: 01 8f        	<unknown>
     646: 19 00        	<unknown>
     648: 00 1a        	<unknown>
     64a: 04 03        	<unknown>
     64c: 01 aa        	<unknown>
     64e: 19 00        	<unknown>
     650: 00 1a        	<unknown>
     652: 04 04        	<unknown>
     654: 01 ca        	<unknown>
     656: 19 00        	<unknown>
     658: 00 1a        	<unknown>
     65a: 04 05        	<unknown>
     65c: 01 e0        	<unknown>
     65e: 19 00        	<unknown>
     660: 00 1a        	<unknown>
     662: 04 06        	<unknown>
     664: 01 f6        	<unknown>
     666: 19 00        	<unknown>
     668: 00 1a        	<unknown>
     66a: 04 07        	<unknown>
     66c: 01 11        	<unknown>
     66e: 1a 00        	<unknown>
     670: 00 1a        	<unknown>
     672: 04 08        	<unknown>
     674: 01 2c        	<unknown>
     676: 1a 00        	<unknown>
     678: 00 1a        	<unknown>
     67a: 04 09        	<unknown>
     67c: 01 42        	<unknown>
     67e: 1a 00        	<unknown>
     680: 00 1a        	<unknown>
     682: 04 0a        	<unknown>
     684: 01 58        	<unknown>
     686: 1a 00        	<unknown>
     688: 00 1a        	<unknown>
     68a: 04 0b        	<unknown>
     68c: 01 6e        	<unknown>
     68e: 1a 00        	<unknown>
     690: 00 1a        	<unknown>
     692: 04 0c        	<unknown>
     694: 01 84        	<unknown>
     696: 1a 00        	<unknown>
     698: 00 1a        	<unknown>
     69a: 04 0d        	<unknown>
     69c: 01 9a        	<unknown>
     69e: 1a 00        	<unknown>
     6a0: 00 1a        	<unknown>
     6a2: 04 0e        	<unknown>
     6a4: 01 b0        	<unknown>
     6a6: 1a 00        	<unknown>
     6a8: 00 1a        	<unknown>
     6aa: 04 0f        	<unknown>
     6ac: 01 c6        	<unknown>
     6ae: 1a 00        	<unknown>
     6b0: 00 0c        	<unknown>
     6b2: 06 34        	<unknown>
     6b4: dc 1a        	<unknown>
     6b6: 00 00        	<unknown>
     6b8: 0c 08        	<unknown>
     6ba: 55 f0        	<unknown>
     6bc: 1a 00        	<unknown>
     6be: 00 0c        	<unknown>
     6c0: 08 68        	<unknown>
     6c2: 03 1b 00 00  	lh	s6, 0x0(zero)
     6c6: 0c 08        	<unknown>
     6c8: 7b 16 1b 00  	<unknown>
     6cc: 00 0c        	<unknown>
     6ce: 08 8e        	<unknown>
     6d0: 29 1b        	<unknown>
     6d2: 00 00        	<unknown>
     6d4: 0c 08        	<unknown>
     6d6: 9a 41        	<unknown>
     6d8: 1b 00 00 0c  	addiw	zero, zero, 0xc0
     6dc: 08 ad        	<unknown>
     6de: 54 1b        	<unknown>
     6e0: 00 00        	<unknown>
     6e2: 0c 08        	<unknown>
     6e4: c0 67        	<unknown>
     6e6: 1b 00 00 0c  	addiw	zero, zero, 0xc0
     6ea: 08 d3        	<unknown>
     6ec: 7a 1b        	<unknown>
     6ee: 00 00        	<unknown>
     6f0: 0c 08        	<unknown>
     6f2: e6 8d        	<unknown>
     6f4: 1b 00 00 0c  	addiw	zero, zero, 0xc0
     6f8: 08 f9        	<unknown>
     6fa: a0 1b        	<unknown>
     6fc: 00 00        	<unknown>
     6fe: 1a 08        	<unknown>
     700: 0c 01        	<unknown>
     702: b3 1b 00 00  	sll	s7, zero, zero
     706: 1a 08        	<unknown>
     708: 18 01        	<unknown>
     70a: cb 1b 00 00  	fnmsub.s	fs7, ft0, ft0, ft0, rtz
     70e: 1a 08        	<unknown>
     710: 2b 01 e3 1b  	<unknown>
     714: 00 00        	<unknown>
     716: 1a 08        	<unknown>
     718: 3e 01        	<unknown>
     71a: fb 1b 00 00  	<unknown>
     71e: 1a 08        	<unknown>
     720: 51 01        	<unknown>
     722: 0e 1c        	<unknown>
     724: 00 00        	<unknown>
     726: 1a 08        	<unknown>
     728: 64 01        	<unknown>
     72a: 21 1c        	<unknown>
     72c: 00 00        	<unknown>
     72e: 1a 08        	<unknown>
     730: 70 01        	<unknown>
     732: 3e 1c        	<unknown>
     734: 00 00        	<unknown>
     736: 1a 08        	<unknown>
     738: 8c 01        	<unknown>
     73a: 56 1c        	<unknown>
     73c: 00 00        	<unknown>
     73e: 1a 08        	<unknown>
     740: 9f 01 69 1c  	<unknown>
     744: 00 00        	<unknown>
     746: 1a 08        	<unknown>
     748: b2 01        	<unknown>
     74a: 7c 1c        	<unknown>
     74c: 00 00        	<unknown>
     74e: 1a 08        	<unknown>
     750: c5 01        	<unknown>
     752: 8f 1c 00 00  	<unknown>
     756: 1a 08        	<unknown>
     758: d8 01        	<unknown>
     75a: a2 1c        	<unknown>
     75c: 00 00        	<unknown>
     75e: 1a 08        	<unknown>
     760: 59 07        	<unknown>
     762: b5 1c        	<unknown>
     764: 00 00        	<unknown>
     766: 1a 08        	<unknown>
     768: 5a 07        	<unknown>
     76a: c0 1c        	<unknown>
     76c: 00 00        	<unknown>
     76e: 1a 08        	<unknown>
     770: 5d 07        	<unknown>
     772: cb 1c 00 00  	fnmsub.s	fs9, ft0, ft0, ft0, rtz
     776: 1a 08        	<unknown>
     778: 5e 07        	<unknown>
     77a: de 1c        	<unknown>
     77c: 00 00        	<unknown>
     77e: 1a 08        	<unknown>
     780: 5f 07 f1 1c  	<unknown>
     784: 00 00        	<unknown>
     786: 1a 08        	<unknown>
     788: 61 07        	<unknown>
     78a: 0b 1d 00 00  	<unknown>
     78e: 1a 08        	<unknown>
     790: 62 07        	<unknown>
     792: 1e 1d        	<unknown>
     794: 00 00        	<unknown>
     796: 1a 08        	<unknown>
     798: 63 07 31 1d  	beq	sp, s3, 0x966 <.debug_info+0x966>
     79c: 00 00        	<unknown>
     79e: 1a 08        	<unknown>
     7a0: 65 07        	<unknown>
     7a2: 44 1d        	<unknown>
     7a4: 00 00        	<unknown>
     7a6: 1a 08        	<unknown>
     7a8: 66 07        	<unknown>
     7aa: 57 1d 00 00  	<unknown>
     7ae: 1a 08        	<unknown>
     7b0: 67 07 6a 1d  	jalr	a4, 0x1d6(s4)
     7b4: 00 00        	<unknown>
     7b6: 1a 08        	<unknown>
     7b8: 69 07        	<unknown>
     7ba: 7d 1d        	<unknown>
     7bc: 00 00        	<unknown>
     7be: 1a 08        	<unknown>
     7c0: 6a 07        	<unknown>
     7c2: 90 1d        	<unknown>
     7c4: 00 00        	<unknown>
     7c6: 1a 08        	<unknown>
     7c8: 6b 07 a3 1d  	<unknown>
     7cc: 00 00        	<unknown>
     7ce: 1a 08        	<unknown>
     7d0: 6d 07        	<unknown>
     7d2: b6 1d        	<unknown>
     7d4: 00 00        	<unknown>
     7d6: 1a 08        	<unknown>
     7d8: 6e 07        	<unknown>
     7da: ce 1d        	<unknown>
     7dc: 00 00        	<unknown>
     7de: 1a 08        	<unknown>
     7e0: 6f 07 e6 1d  	jal	a4, 0x609be <.debug_info+0x609be>
     7e4: 00 00        	<unknown>
     7e6: 1a 08        	<unknown>
     7e8: 71 07        	<unknown>
     7ea: fe 1d        	<unknown>
     7ec: 00 00        	<unknown>
     7ee: 1a 08        	<unknown>
     7f0: 72 07        	<unknown>
     7f2: 11 1e        	<unknown>
     7f4: 00 00        	<unknown>
     7f6: 1a 08        	<unknown>
     7f8: 73 07 24 1e  	<unknown>
     7fc: 00 00        	<unknown>
     7fe: 1a 08        	<unknown>
     800: 75 07        	<unknown>
     802: 37 1e 00 00  	lui	t3, 0x1
     806: 1a 08        	<unknown>
     808: 76 07        	<unknown>
     80a: 4a 1e        	<unknown>
     80c: 00 00        	<unknown>
     80e: 1a 08        	<unknown>
     810: 77 07 5d 1e  	<unknown>
     814: 00 00        	<unknown>
     816: 1a 08        	<unknown>
     818: 79 07        	<unknown>
     81a: 70 1e        	<unknown>
     81c: 00 00        	<unknown>
     81e: 1a 08        	<unknown>
     820: 7a 07        	<unknown>
     822: 83 1e 00 00  	lh	t4, 0x0(zero)
     826: 1a 08        	<unknown>
     828: 7b 07 96 1e  	<unknown>
     82c: 00 00        	<unknown>
     82e: 1a 08        	<unknown>
     830: 7d 07        	<unknown>
     832: a9 1e        	<unknown>
     834: 00 00        	<unknown>
     836: 1a 08        	<unknown>
     838: 7e 07        	<unknown>
     83a: bc 1e        	<unknown>
     83c: 00 00        	<unknown>
     83e: 1a 08        	<unknown>
     840: 7f 07 cf 1e  	<unknown>
     844: 00 00        	<unknown>
     846: 1a 08        	<unknown>
     848: 81 07        	<unknown>
     84a: e2 1e        	<unknown>
     84c: 00 00        	<unknown>
     84e: 1a 08        	<unknown>
     850: 82 07        	<unknown>
     852: fb 1e 00 00  	<unknown>
     856: 1a 08        	<unknown>
     858: 83 07 14 1f  	lb	a5, 0x1f1(s0)
     85c: 00 00        	<unknown>
     85e: 1a 08        	<unknown>
     860: 85 07        	<unknown>
     862: 2d 1f        	<unknown>
     864: 00 00        	<unknown>
     866: 1a 08        	<unknown>
     868: 86 07        	<unknown>
     86a: 4b 1f 00 00  	fnmsub.s	ft10, ft0, ft0, ft0, rtz
     86e: 1a 08        	<unknown>
     870: 87 07 69 1f  	<unknown>
     874: 00 00        	<unknown>
     876: 1a 08        	<unknown>
     878: 89 07        	<unknown>
     87a: 87 1f 00 00  	<unknown>
     87e: 1a 08        	<unknown>
     880: 8a 07        	<unknown>
     882: a0 1f        	<unknown>
     884: 00 00        	<unknown>
     886: 1a 08        	<unknown>
     888: 8b 07 b9 1f  	<unknown>
     88c: 00 00        	<unknown>
     88e: 1a 08        	<unknown>
     890: 8d 07        	<unknown>
     892: d2 1f        	<unknown>
     894: 00 00        	<unknown>
     896: 1a 08        	<unknown>
     898: 8e 07        	<unknown>
     89a: eb 1f 00 00  	<unknown>
     89e: 1a 08        	<unknown>
     8a0: 8f 07 04 20  	<unknown>
     8a4: 00 00        	<unknown>
     8a6: 1a 08        	<unknown>
     8a8: 91 07        	<unknown>
     8aa: 1d 20        	<unknown>
     8ac: 00 00        	<unknown>
     8ae: 1a 08        	<unknown>
     8b0: 92 07        	<unknown>
     8b2: 35 20        	<unknown>
     8b4: 00 00        	<unknown>
     8b6: 1a 08        	<unknown>
     8b8: 93 07 4d 20  	addi	a5, s10, 0x204
     8bc: 00 00        	<unknown>
     8be: 1a 08        	<unknown>
     8c0: 95 07        	<unknown>
     8c2: 65 20        	<unknown>
     8c4: 00 00        	<unknown>
     8c6: 1a 08        	<unknown>
     8c8: 96 07        	<unknown>
     8ca: 79 20        	<unknown>
     8cc: 00 00        	<unknown>
     8ce: 1a 08        	<unknown>
     8d0: 97 07 8d 20  	auipc	a5, 0x208d0
     8d4: 00 00        	<unknown>
     8d6: 1a 08        	<unknown>
     8d8: 99 07        	<unknown>
     8da: a1 20        	<unknown>
     8dc: 00 00        	<unknown>
     8de: 1a 08        	<unknown>
     8e0: 9a 07        	<unknown>
     8e2: b4 20        	<unknown>
     8e4: 00 00        	<unknown>
     8e6: 1a 08        	<unknown>
     8e8: 9b 07 c7 20  	addiw	a5, a4, 0x20c
     8ec: 00 00        	<unknown>
     8ee: 1a 08        	<unknown>
     8f0: 9e 07        	<unknown>
     8f2: da 20        	<unknown>
     8f4: 00 00        	<unknown>
     8f6: 1a 08        	<unknown>
     8f8: 9f 07 ee 20  	<unknown>
     8fc: 00 00        	<unknown>
     8fe: 1a 08        	<unknown>
     900: a0 07        	<unknown>
     902: 02 21        	<unknown>
     904: 00 00        	<unknown>
     906: 1a 08        	<unknown>
     908: a2 07        	<unknown>
     90a: 16 21        	<unknown>
     90c: 00 00        	<unknown>
     90e: 1a 08        	<unknown>
     910: a3 07 2a 21  	sb	s2, 0x20f(s4)
     914: 00 00        	<unknown>
     916: 1a 08        	<unknown>
     918: a4 07        	<unknown>
     91a: 3e 21        	<unknown>
     91c: 00 00        	<unknown>
     91e: 1a 08        	<unknown>
     920: a7 07 52 21  	<unknown>
     924: 00 00        	<unknown>
     926: 1a 08        	<unknown>
     928: a8 07        	<unknown>
     92a: 65 21        	<unknown>
     92c: 00 00        	<unknown>
     92e: 1a 08        	<unknown>
     930: a9 07        	<unknown>
     932: 78 21        	<unknown>
     934: 00 00        	<unknown>
     936: 1a 08        	<unknown>
     938: ab 07 8b 21  	vx_tex	a5, s6, s8, tp
     93c: 00 00        	<unknown>
     93e: 1a 08        	<unknown>
     940: ac 07        	<unknown>
     942: 9e 21        	<unknown>
     944: 00 00        	<unknown>
     946: 1a 08        	<unknown>
     948: ad 07        	<unknown>
     94a: b1 21        	<unknown>
     94c: 00 00        	<unknown>
     94e: 1a 08        	<unknown>
     950: af 07 c4 21  	<unknown>
     954: 00 00        	<unknown>
     956: 1a 08        	<unknown>
     958: b0 07        	<unknown>
     95a: d7 21 00 00  	<unknown>
     95e: 1a 08        	<unknown>
     960: b1 07        	<unknown>
     962: ea 21        	<unknown>
     964: 00 00        	<unknown>
     966: 1a 08        	<unknown>
     968: b3 07 fd 21  	<unknown>
     96c: 00 00        	<unknown>
     96e: 1a 08        	<unknown>
     970: b4 07        	<unknown>
     972: 11 22        	<unknown>
     974: 00 00        	<unknown>
     976: 1a 08        	<unknown>
     978: b5 07        	<unknown>
     97a: 25 22        	<unknown>
     97c: 00 00        	<unknown>
     97e: 1a 08        	<unknown>
     980: b7 07 39 22  	lui	a5, 0x22390
     984: 00 00        	<unknown>
     986: 1a 08        	<unknown>
     988: b8 07        	<unknown>
     98a: 4d 22        	<unknown>
     98c: 00 00        	<unknown>
     98e: 1a 08        	<unknown>
     990: b9 07        	<unknown>
     992: 61 22        	<unknown>
     994: 00 00        	<unknown>
     996: 1a 08        	<unknown>
     998: bb 07 75 22  	<unknown>
     99c: 00 00        	<unknown>
     99e: 1a 08        	<unknown>
     9a0: bc 07        	<unknown>
     9a2: 88 22        	<unknown>
     9a4: 00 00        	<unknown>
     9a6: 1a 08        	<unknown>
     9a8: bd 07        	<unknown>
     9aa: 9b 22 00 00  	<unknown>
     9ae: 1a 08        	<unknown>
     9b0: bf 07 ae 22  	<unknown>
     9b4: 00 00        	<unknown>
     9b6: 1a 08        	<unknown>
     9b8: c0 07        	<unknown>
     9ba: c2 22        	<unknown>
     9bc: 00 00        	<unknown>
     9be: 1a 08        	<unknown>
     9c0: c1 07        	<unknown>
     9c2: d6 22        	<unknown>
     9c4: 00 00        	<unknown>
     9c6: 1a 08        	<unknown>
     9c8: c3 07 ea 22  	fmadd.d	fa5, fs4, fa4, ft4, rne
     9cc: 00 00        	<unknown>
     9ce: 1a 08        	<unknown>
     9d0: c4 07        	<unknown>
     9d2: 03 23 00 00  	lw	t1, 0x0(zero)
     9d6: 1a 08        	<unknown>
     9d8: c5 07        	<unknown>
     9da: 1c 23        	<unknown>
     9dc: 00 00        	<unknown>
     9de: 1a 08        	<unknown>
     9e0: c7 07 35 23  	fmsub.d	fa5, fa0, fs3, ft4, rne
     9e4: 00 00        	<unknown>
     9e6: 1a 08        	<unknown>
     9e8: c8 07        	<unknown>
     9ea: 4e 23        	<unknown>
     9ec: 00 00        	<unknown>
     9ee: 1a 08        	<unknown>
     9f0: c9 07        	<unknown>
     9f2: 67 23 00 00  	<unknown>
     9f6: 1a 08        	<unknown>
     9f8: cb 07 80 23  	fnmsub.d	fa5, ft0, fs8, ft4, rne
     9fc: 00 00        	<unknown>
     9fe: 1a 08        	<unknown>
     a00: cc 07        	<unknown>
     a02: 99 23        	<unknown>
     a04: 00 00        	<unknown>
     a06: 1a 08        	<unknown>
     a08: cd 07        	<unknown>
     a0a: b2 23        	<unknown>
     a0c: 00 00        	<unknown>
     a0e: 1a 08        	<unknown>
     a10: cf 07 cb 23  	fnmadd.d	fa5, fs6, ft8, ft4, rne
     a14: 00 00        	<unknown>
     a16: 1a 08        	<unknown>
     a18: d0 07        	<unknown>
     a1a: e9 23        	<unknown>
     a1c: 00 00        	<unknown>
     a1e: 1a 08        	<unknown>
     a20: d1 07        	<unknown>
     a22: 07 24 00 00  	flw	fs0, 0x0(zero)
     a26: 1a 08        	<unknown>
     a28: d3 07 25 24  	<unknown>
     a2c: 00 00        	<unknown>
     a2e: 1a 08        	<unknown>
     a30: d4 07        	<unknown>
     a32: 39 24        	<unknown>
     a34: 00 00        	<unknown>
     a36: 1a 08        	<unknown>
     a38: d5 07        	<unknown>
     a3a: 4d 24        	<unknown>
     a3c: 00 00        	<unknown>
     a3e: 1a 08        	<unknown>
     a40: d7 07 61 24  	<unknown>
     a44: 00 00        	<unknown>
     a46: 1a 08        	<unknown>
     a48: d8 07        	<unknown>
     a4a: 75 24        	<unknown>
     a4c: 00 00        	<unknown>
     a4e: 1a 08        	<unknown>
     a50: d9 07        	<unknown>
     a52: 89 24        	<unknown>
     a54: 00 00        	<unknown>
     a56: 1a 08        	<unknown>
     a58: db 07 9d 24  	<unknown>
     a5c: 00 00        	<unknown>
     a5e: 1a 08        	<unknown>
     a60: dc 07        	<unknown>
     a62: b6 24        	<unknown>
     a64: 00 00        	<unknown>
     a66: 1a 08        	<unknown>
     a68: dd 07        	<unknown>
     a6a: cf 24 00 00  	fnmadd.s	fs1, ft0, ft0, ft0, rdn
     a6e: 1a 08        	<unknown>
     a70: df 07 e8 24  	<unknown>
     a74: 00 00        	<unknown>
     a76: 1a 08        	<unknown>
     a78: e0 07        	<unknown>
     a7a: 01 25        	<unknown>
     a7c: 00 00        	<unknown>
     a7e: 1a 08        	<unknown>
     a80: e1 07        	<unknown>
     a82: 1a 25        	<unknown>
     a84: 00 00        	<unknown>
     a86: 1a 08        	<unknown>
     a88: e3 07 33 25  	beq	t1, s3, 0x14d6 <.debug_info+0x14d6>
     a8c: 00 00        	<unknown>
     a8e: 1a 08        	<unknown>
     a90: e4 07        	<unknown>
     a92: 46 25        	<unknown>
     a94: 00 00        	<unknown>
     a96: 1a 08        	<unknown>
     a98: e5 07        	<unknown>
     a9a: 59 25        	<unknown>
     a9c: 00 00        	<unknown>
     a9e: 1a 08        	<unknown>
     aa0: e7 07 6c 25  	jalr	a5, 0x256(s8)
     aa4: 00 00        	<unknown>
     aa6: 1a 08        	<unknown>
     aa8: e8 07        	<unknown>
     aaa: 80 25        	<unknown>
     aac: 00 00        	<unknown>
     aae: 1a 08        	<unknown>
     ab0: e9 07        	<unknown>
     ab2: 94 25        	<unknown>
     ab4: 00 00        	<unknown>
     ab6: 0c 0a        	<unknown>
     ab8: 83 a8 25 00  	lw	a7, 0x2(a1)
     abc: 00 0c        	<unknown>
     abe: 0a 84        	<unknown>
     ac0: b5 25        	<unknown>
     ac2: 00 00        	<unknown>
     ac4: 0c 0a        	<unknown>
     ac6: 86 e2        	<unknown>
     ac8: 25 00        	<unknown>
     aca: 00 0c        	<unknown>
     acc: 0a 8a        	<unknown>
     ace: ed 25        	<unknown>
     ad0: 00 00        	<unknown>
     ad2: 0c 0a        	<unknown>
     ad4: 8d 07        	<unknown>
     ad6: 26 00        	<unknown>
     ad8: 00 0c        	<unknown>
     ada: 0a 90        	<unknown>
     adc: 1b 26 00 00  	<unknown>
     ae0: 0c 0a        	<unknown>
     ae2: 91 2e        	<unknown>
     ae4: 26 00        	<unknown>
     ae6: 00 0c        	<unknown>
     ae8: 0a 92        	<unknown>
     aea: 41 26        	<unknown>
     aec: 00 00        	<unknown>
     aee: 0c 0a        	<unknown>
     af0: 93 54 26 00  	srli	s1, a2, 0x2
     af4: 00 0c        	<unknown>
     af6: 0a 94        	<unknown>
     af8: b6 26        	<unknown>
     afa: 00 00        	<unknown>
     afc: 0c 0a        	<unknown>
     afe: 95 cf        	<unknown>
     b00: 26 00        	<unknown>
     b02: 00 0c        	<unknown>
     b04: 0a 96        	<unknown>
     b06: e8 26        	<unknown>
     b08: 00 00        	<unknown>
     b0a: 0c 0a        	<unknown>
     b0c: 97 f9 26 00  	auipc	s3, 0x26f
     b10: 00 0c        	<unknown>
     b12: 0a 98        	<unknown>
     b14: 09 27        	<unknown>
     b16: 00 00        	<unknown>
     b18: 0c 0a        	<unknown>
     b1a: 99 22        	<unknown>
     b1c: 27 00 00 0c  	<unknown>
     b20: 0a 9a        	<unknown>
     b22: 36 27        	<unknown>
     b24: 00 00        	<unknown>
     b26: 0c 0a        	<unknown>
     b28: 9b 4f 27 00  	<unknown>
     b2c: 00 0c        	<unknown>
     b2e: 0a 9d        	<unknown>
     b30: 63 27 00 00  	<unknown>
     b34: 0c 0a        	<unknown>
     b36: 9e 7c        	<unknown>
     b38: 27 00 00 0c  	<unknown>
     b3c: 0a 9f        	<unknown>
     b3e: a6 27        	<unknown>
     b40: 00 00        	<unknown>
     b42: 0c 0a        	<unknown>
     b44: a1 c4        	<unknown>
     b46: 27 00 00 0c  	<unknown>
     b4a: 0a a4        	<unknown>
     b4c: e3 27 00 00  	<unknown>
     b50: 0c 0a        	<unknown>
     b52: a7 f4 27 00  	<unknown>
     b56: 00 0c        	<unknown>
     b58: 0a a8        	<unknown>
     b5a: 02 28        	<unknown>
     b5c: 00 00        	<unknown>
     b5e: 0c 0a        	<unknown>
     b60: a9 1b        	<unknown>
     b62: 28 00        	<unknown>
     b64: 00 0c        	<unknown>
     b66: 0a aa        	<unknown>
     b68: 2b 28 00 00  	<unknown>
     b6c: 0c 0a        	<unknown>
     b6e: ab 48 28 00  	<unknown>
     b72: 00 0c        	<unknown>
     b74: 0a ac        	<unknown>
     b76: 65 28        	<unknown>
     b78: 00 00        	<unknown>
     b7a: 0c 0a        	<unknown>
     b7c: ad 82        	<unknown>
     b7e: 28 00        	<unknown>
     b80: 00 0c        	<unknown>
     b82: 0a af        	<unknown>
     b84: 96 28        	<unknown>
     b86: 00 00        	<unknown>
     b88: 0c 0a        	<unknown>
     b8a: b0 be        	<unknown>
     b8c: 28 00        	<unknown>
     b8e: 00 0c        	<unknown>
     b90: 0a f4        	<unknown>
     b92: 72 29        	<unknown>
     b94: 00 00        	<unknown>
     b96: 0c 0a        	<unknown>
     b98: f6 9f        	<unknown>
     b9a: 29 00        	<unknown>
     b9c: 00 0c        	<unknown>
     b9e: 0a f8        	<unknown>
     ba0: b0 29        	<unknown>
     ba2: 00 00        	<unknown>
     ba4: 0c 0a        	<unknown>
     ba6: f9 1b        	<unknown>
     ba8: 29 00        	<unknown>
     baa: 00 0c        	<unknown>
     bac: 0a fa        	<unknown>
     bae: c4 29        	<unknown>
     bb0: 00 00        	<unknown>
     bb2: 0c 0a        	<unknown>
     bb4: fc dd        	<unknown>
     bb6: 29 00        	<unknown>
     bb8: 00 0c        	<unknown>
     bba: 0a fd        	<unknown>
     bbc: 2a 2a        	<unknown>
     bbe: 00 00        	<unknown>
     bc0: 0c 0a        	<unknown>
     bc2: fe f0        	<unknown>
     bc4: 29 00        	<unknown>
     bc6: 00 0c        	<unknown>
     bc8: 0a ff        	<unknown>
     bca: 0d 2a        	<unknown>
     bcc: 00 00        	<unknown>
     bce: 1a 0a        	<unknown>
     bd0: 00 01        	<unknown>
     bd2: 42 2a        	<unknown>
     bd4: 00 00        	<unknown>
     bd6: 0b 52 0d 00  	<unknown>
     bda: 00 ee        	<unknown>
     bdc: 06 00        	<unknown>
     bde: 00 06        	<unknown>
     be0: 4f 04 1d 00  	fnmadd.s	fs0, fs10, ft1, ft0, rne
     be4: 00 01        	<unknown>
     be6: 01 09        	<unknown>
     be8: 04 1d        	<unknown>
     bea: 00 00        	<unknown>
     bec: 00 1a        	<unknown>
     bee: 0e bb        	<unknown>
     bf0: 01 41        	<unknown>
     bf2: 2b 00 00 1a  	<unknown>
     bf6: 0e bc        	<unknown>
     bf8: 01 57        	<unknown>
     bfa: 2b 00 00 1a  	<unknown>
     bfe: 0e bd        	<unknown>
     c00: 01 6d        	<unknown>
     c02: 2b 00 00 1a  	<unknown>
     c06: 0e be        	<unknown>
     c08: 01 83        	<unknown>
     c0a: 2b 00 00 1a  	<unknown>
     c0e: 0e bf        	<unknown>
     c10: 01 99        	<unknown>
     c12: 2b 00 00 1a  	<unknown>
     c16: 0e c0        	<unknown>
     c18: 01 b4        	<unknown>
     c1a: 2b 00 00 1a  	<unknown>
     c1e: 0e c1        	<unknown>
     c20: 01 ca        	<unknown>
     c22: 2b 00 00 1a  	<unknown>
     c26: 0e c2        	<unknown>
     c28: 01 e0        	<unknown>
     c2a: 2b 00 00 1a  	<unknown>
     c2e: 0e c3        	<unknown>
     c30: 01 f6        	<unknown>
     c32: 2b 00 00 1a  	<unknown>
     c36: 0e c4        	<unknown>
     c38: 01 0c        	<unknown>
     c3a: 2c 00        	<unknown>
     c3c: 00 1a        	<unknown>
     c3e: 0e c5        	<unknown>
     c40: 01 27        	<unknown>
     c42: 2c 00        	<unknown>
     c44: 00 1a        	<unknown>
     c46: 0e c6        	<unknown>
     c48: 01 3d        	<unknown>
     c4a: 2c 00        	<unknown>
     c4c: 00 1a        	<unknown>
     c4e: 0e c7        	<unknown>
     c50: 01 53        	<unknown>
     c52: 2c 00        	<unknown>
     c54: 00 1a        	<unknown>
     c56: 0e c8        	<unknown>
     c58: 01 69        	<unknown>
     c5a: 2c 00        	<unknown>
     c5c: 00 1a        	<unknown>
     c5e: 0e c9        	<unknown>
     c60: 01 7f        	<unknown>
     c62: 2c 00        	<unknown>
     c64: 00 1a        	<unknown>
     c66: 0e ca        	<unknown>
     c68: 01 95        	<unknown>
     c6a: 2c 00        	<unknown>
     c6c: 00 1a        	<unknown>
     c6e: 0e cb        	<unknown>
     c70: 01 ab        	<unknown>
     c72: 2c 00        	<unknown>
     c74: 00 1a        	<unknown>
     c76: 0e cc        	<unknown>
     c78: 01 c1        	<unknown>
     c7a: 2c 00        	<unknown>
     c7c: 00 1a        	<unknown>
     c7e: 0e cd        	<unknown>
     c80: 01 d7        	<unknown>
     c82: 2c 00        	<unknown>
     c84: 00 1a        	<unknown>
     c86: 0e ce        	<unknown>
     c88: 01 f2        	<unknown>
     c8a: 2c 00        	<unknown>
     c8c: 00 1a        	<unknown>
     c8e: 0e cf        	<unknown>
     c90: 01 08        	<unknown>
     c92: 2d 00        	<unknown>
     c94: 00 1a        	<unknown>
     c96: 0e d0        	<unknown>
     c98: 01 28        	<unknown>
     c9a: 2d 00        	<unknown>
     c9c: 00 1a        	<unknown>
     c9e: 0e d1        	<unknown>
     ca0: 01 43        	<unknown>
     ca2: 2d 00        	<unknown>
     ca4: 00 1a        	<unknown>
     ca6: 0e d2        	<unknown>
     ca8: 01 5e        	<unknown>
     caa: 2d 00        	<unknown>
     cac: 00 1a        	<unknown>
     cae: 0e d3        	<unknown>
     cb0: 01 79        	<unknown>
     cb2: 2d 00        	<unknown>
     cb4: 00 1a        	<unknown>
     cb6: 0e d4        	<unknown>
     cb8: 01 94        	<unknown>
     cba: 2d 00        	<unknown>
     cbc: 00 1a        	<unknown>
     cbe: 0e d5        	<unknown>
     cc0: 01 af        	<unknown>
     cc2: 2d 00        	<unknown>
     cc4: 00 1a        	<unknown>
     cc6: 0e d6        	<unknown>
     cc8: 01 c5        	<unknown>
     cca: 2d 00        	<unknown>
     ccc: 00 1a        	<unknown>
     cce: 0e d7        	<unknown>
     cd0: 01 e0        	<unknown>
     cd2: 2d 00        	<unknown>
     cd4: 00 1a        	<unknown>
     cd6: 0e d8        	<unknown>
     cd8: 01 f6        	<unknown>
     cda: 2d 00        	<unknown>
     cdc: 00 1a        	<unknown>
     cde: 0e d9        	<unknown>
     ce0: 01 0c        	<unknown>
     ce2: 2e 00        	<unknown>
     ce4: 00 1a        	<unknown>
     ce6: 0e da        	<unknown>
     ce8: 01 22        	<unknown>
     cea: 2e 00        	<unknown>
     cec: 00 1a        	<unknown>
     cee: 0e db        	<unknown>
     cf0: 01 38        	<unknown>
     cf2: 2e 00        	<unknown>
     cf4: 00 1a        	<unknown>
     cf6: 0e dc        	<unknown>
     cf8: 01 4e        	<unknown>
     cfa: 2e 00        	<unknown>
     cfc: 00 1a        	<unknown>
     cfe: 0e dd        	<unknown>
     d00: 01 64        	<unknown>
     d02: 2e 00        	<unknown>
     d04: 00 1a        	<unknown>
     d06: 0e de        	<unknown>
     d08: 01 7a        	<unknown>
     d0a: 2e 00        	<unknown>
     d0c: 00 1a        	<unknown>
     d0e: 0e df        	<unknown>
     d10: 01 90        	<unknown>
     d12: 2e 00        	<unknown>
     d14: 00 1a        	<unknown>
     d16: 0e e0        	<unknown>
     d18: 01 a6        	<unknown>
     d1a: 2e 00        	<unknown>
     d1c: 00 1a        	<unknown>
     d1e: 0e e1        	<unknown>
     d20: 01 bc        	<unknown>
     d22: 2e 00        	<unknown>
     d24: 00 1a        	<unknown>
     d26: 0e e2        	<unknown>
     d28: 01 d7        	<unknown>
     d2a: 2e 00        	<unknown>
     d2c: 00 1a        	<unknown>
     d2e: 0e e3        	<unknown>
     d30: 01 ed        	<unknown>
     d32: 2e 00        	<unknown>
     d34: 00 1a        	<unknown>
     d36: 0e e4        	<unknown>
     d38: 01 08        	<unknown>
     d3a: 2f 00 00 1a  	<unknown>
     d3e: 0e e5        	<unknown>
     d40: 01 23        	<unknown>
     d42: 2f 00 00 1a  	<unknown>
     d46: 0e e6        	<unknown>
     d48: 01 3e        	<unknown>
     d4a: 2f 00 00 1a  	<unknown>
     d4e: 0e e7        	<unknown>
     d50: 01 5e        	<unknown>
     d52: 2f 00 00 1a  	<unknown>
     d56: 0e e8        	<unknown>
     d58: 01 75        	<unknown>
     d5a: 2f 00 00 1a  	<unknown>
     d5e: 0e e9        	<unknown>
     d60: 01 8b        	<unknown>
     d62: 2f 00 00 1a  	<unknown>
     d66: 0e ea        	<unknown>
     d68: 01 a7        	<unknown>
     d6a: 2f 00 00 1a  	<unknown>
     d6e: 0e eb        	<unknown>
     d70: 01 c3        	<unknown>
     d72: 2f 00 00 1a  	<unknown>
     d76: 0e ec        	<unknown>
     d78: 01 da        	<unknown>
     d7a: 2f 00 00 1a  	<unknown>
     d7e: 0e ed        	<unknown>
     d80: 01 f1        	<unknown>
     d82: 2f 00 00 1a  	<unknown>
     d86: 0e ee        	<unknown>
     d88: 01 08        	<unknown>
     d8a: 30 00        	<unknown>
     d8c: 00 1a        	<unknown>
     d8e: 0e ef        	<unknown>
     d90: 01 1f        	<unknown>
     d92: 30 00        	<unknown>
     d94: 00 1a        	<unknown>
     d96: 0e f0        	<unknown>
     d98: 01 36        	<unknown>
     d9a: 30 00        	<unknown>
     d9c: 00 1a        	<unknown>
     d9e: 0e f1        	<unknown>
     da0: 01 4d        	<unknown>
     da2: 30 00        	<unknown>
     da4: 00 0c        	<unknown>
     da6: 10 62        	<unknown>
     da8: 64 30        	<unknown>
     daa: 00 00        	<unknown>
     dac: 0c 10        	<unknown>
     dae: 63 75 30 00  	bgeu	zero, gp, 0xdb8 <.debug_info+0xdb8>
     db2: 00 0c        	<unknown>
     db4: 10 65        	<unknown>
     db6: 91 30        	<unknown>
     db8: 00 00        	<unknown>
     dba: 0c 10        	<unknown>
     dbc: 66 a6        	<unknown>
     dbe: 30 00        	<unknown>
     dc0: 00 0c        	<unknown>
     dc2: 10 67        	<unknown>
     dc4: b9 30        	<unknown>
     dc6: 00 00        	<unknown>
     dc8: 0c 10        	<unknown>
     dca: 68 cd        	<unknown>
     dcc: 30 00        	<unknown>
     dce: 00 0c        	<unknown>
     dd0: 10 69        	<unknown>
     dd2: e1 30        	<unknown>
     dd4: 00 00        	<unknown>
     dd6: 0c 10        	<unknown>
     dd8: 6a f4        	<unknown>
     dda: 30 00        	<unknown>
     ddc: 00 0c        	<unknown>
     dde: 10 6b        	<unknown>
     de0: 08 31        	<unknown>
     de2: 00 00        	<unknown>
     de4: 0c 10        	<unknown>
     de6: 6c 26        	<unknown>
     de8: 31 00        	<unknown>
     dea: 00 0c        	<unknown>
     dec: 10 6d        	<unknown>
     dee: 44 31        	<unknown>
     df0: 00 00        	<unknown>
     df2: 0c 10        	<unknown>
     df4: 6e 5c        	<unknown>
     df6: 31 00        	<unknown>
     df8: 00 0c        	<unknown>
     dfa: 10 6f        	<unknown>
     dfc: 76 31        	<unknown>
     dfe: 00 00        	<unknown>
     e00: 0c 10        	<unknown>
     e02: 70 8f        	<unknown>
     e04: 31 00        	<unknown>
     e06: 00 0c        	<unknown>
     e08: 10 71        	<unknown>
     e0a: a8 31        	<unknown>
     e0c: 00 00        	<unknown>
     e0e: 0c 10        	<unknown>
     e10: 72 cb        	<unknown>
     e12: 31 00        	<unknown>
     e14: 00 0c        	<unknown>
     e16: 10 73        	<unknown>
     e18: e8 31        	<unknown>
     e1a: 00 00        	<unknown>
     e1c: 0c 10        	<unknown>
     e1e: 74 06        	<unknown>
     e20: 32 00        	<unknown>
     e22: 00 0c        	<unknown>
     e24: 10 75        	<unknown>
     e26: 24 32        	<unknown>
     e28: 00 00        	<unknown>
     e2a: 0c 10        	<unknown>
     e2c: 76 47        	<unknown>
     e2e: 32 00        	<unknown>
     e30: 00 0c        	<unknown>
     e32: 10 77        	<unknown>
     e34: 5b 32 00 00  	<unknown>
     e38: 0c 10        	<unknown>
     e3a: 78 7e        	<unknown>
     e3c: 32 00        	<unknown>
     e3e: 00 0c        	<unknown>
     e40: 10 79        	<unknown>
     e42: 92 32        	<unknown>
     e44: 00 00        	<unknown>
     e46: 0c 10        	<unknown>
     e48: 7c a0        	<unknown>
     e4a: 32 00        	<unknown>
     e4c: 00 0c        	<unknown>
     e4e: 10 7e        	<unknown>
     e50: b4 32        	<unknown>
     e52: 00 00        	<unknown>
     e54: 0c 10        	<unknown>
     e56: 7f c4 32 00  	<unknown>
     e5a: 00 0c        	<unknown>
     e5c: 10 80        	<unknown>
     e5e: d9 32        	<unknown>
     e60: 00 00        	<unknown>
     e62: 0c 10        	<unknown>
     e64: 81 f2        	<unknown>
     e66: 32 00        	<unknown>
     e68: 00 0c        	<unknown>
     e6a: 10 82        	<unknown>
     e6c: 06 33        	<unknown>
     e6e: 00 00        	<unknown>
     e70: 0c 10        	<unknown>
     e72: 83 1a 33 00  	lh	s5, 0x3(t1)
     e76: 00 0c        	<unknown>
     e78: 10 84        	<unknown>
     e7a: 2d 33        	<unknown>
     e7c: 00 00        	<unknown>
     e7e: 0c 10        	<unknown>
     e80: 85 45        	<unknown>
     e82: 33 00 00 0c  	<unknown>
     e86: 10 86        	<unknown>
     e88: 55 33        	<unknown>
     e8a: 00 00        	<unknown>
     e8c: 0c 10        	<unknown>
     e8e: 87 6e 33 00  	<unknown>
     e92: 00 0c        	<unknown>
     e94: 10 88        	<unknown>
     e96: 83 33 00 00  	ld	t2, 0x0(zero)
     e9a: 0c 10        	<unknown>
     e9c: 89 a6        	<unknown>
     e9e: 33 00 00 0c  	<unknown>
     ea2: 10 8a        	<unknown>
     ea4: c0 33        	<unknown>
     ea6: 00 00        	<unknown>
     ea8: 0c 10        	<unknown>
     eaa: 8b de 33 00  	<unknown>
     eae: 00 0c        	<unknown>
     eb0: 10 8d        	<unknown>
     eb2: eb 33 00 00  	<unknown>
     eb6: 0c 10        	<unknown>
     eb8: 8f fe 33 00  	<unknown>
     ebc: 00 0c        	<unknown>
     ebe: 10 90        	<unknown>
     ec0: 17 34 00 00  	auipc	s0, 0x3
     ec4: 0c 10        	<unknown>
     ec6: 91 49        	<unknown>
     ec8: 34 00        	<unknown>
     eca: 00 0c        	<unknown>
     ecc: 10 92        	<unknown>
     ece: 62 34        	<unknown>
     ed0: 00 00        	<unknown>
     ed2: 0c 10        	<unknown>
     ed4: b9 80        	<unknown>
     ed6: 34 00        	<unknown>
     ed8: 00 0c        	<unknown>
     eda: 10 ba        	<unknown>
     edc: 9f 34 00 00  	<unknown>
     ee0: 0c 10        	<unknown>
     ee2: bb c1 34 00  	<unknown>
     ee6: 00 0c        	<unknown>
     ee8: 10 bc        	<unknown>
     eea: de 34        	<unknown>
     eec: 00 00        	<unknown>
     eee: 0c 10        	<unknown>
     ef0: bd 01        	<unknown>
     ef2: 35 00        	<unknown>
     ef4: 00 0c        	<unknown>
     ef6: 16 33        	<unknown>
     ef8: 23 35 00 00  	sd	zero, 0xa(zero)
     efc: 0c 16        	<unknown>
     efe: 34 40        	<unknown>
     f00: 35 00        	<unknown>
     f02: 00 0c        	<unknown>
     f04: 16 35        	<unknown>
     f06: 5d 35        	<unknown>
     f08: 00 00        	<unknown>
     f0a: 0c 16        	<unknown>
     f0c: 36 73        	<unknown>
     f0e: 35 00        	<unknown>
     f10: 00 0c        	<unknown>
     f12: 16 38        	<unknown>
     f14: 89 35        	<unknown>
     f16: 00 00        	<unknown>
     f18: 0c 16        	<unknown>
     f1a: 39 94        	<unknown>
     f1c: 35 00        	<unknown>
     f1e: 00 0c        	<unknown>
     f20: 16 3a        	<unknown>
     f22: 9f 35 00 00  	<unknown>
     f26: 0c 16        	<unknown>
     f28: 3b aa 35 00  	<unknown>
     f2c: 00 0c        	<unknown>
     f2e: 16 3d        	<unknown>
     f30: b5 35        	<unknown>
     f32: 00 00        	<unknown>
     f34: 0c 16        	<unknown>
     f36: 3e cb        	<unknown>
     f38: 35 00        	<unknown>
     f3a: 00 0c        	<unknown>
     f3c: 16 3f        	<unknown>
     f3e: e1 35        	<unknown>
     f40: 00 00        	<unknown>
     f42: 0c 16        	<unknown>
     f44: 40 f7        	<unknown>
     f46: 35 00        	<unknown>
     f48: 00 0c        	<unknown>
     f4a: 16 42        	<unknown>
     f4c: 0d 36        	<unknown>
     f4e: 00 00        	<unknown>
     f50: 0c 16        	<unknown>
     f52: 43 23 36 00  	fmadd.s	ft6, fa2, ft3, ft0, rdn
     f56: 00 0c        	<unknown>
     f58: 16 45        	<unknown>
     f5a: 2e 36        	<unknown>
     f5c: 00 00        	<unknown>
     f5e: 0c 16        	<unknown>
     f60: 46 4b        	<unknown>
     f62: 36 00        	<unknown>
     f64: 00 0c        	<unknown>
     f66: 16 47        	<unknown>
     f68: 68 36        	<unknown>
     f6a: 00 00        	<unknown>
     f6c: 0c 16        	<unknown>
     f6e: 48 7e        	<unknown>
     f70: 36 00        	<unknown>
     f72: 00 0c        	<unknown>
     f74: 16 4a        	<unknown>
     f76: 94 36        	<unknown>
     f78: 00 00        	<unknown>
     f7a: 0c 16        	<unknown>
     f7c: 4b 9f 36 00  	fnmsub.s	ft10, fa3, ft3, ft0, rtz
     f80: 00 0c        	<unknown>
     f82: 16 4c        	<unknown>
     f84: aa 36        	<unknown>
     f86: 00 00        	<unknown>
     f88: 0c 16        	<unknown>
     f8a: 4d b5        	<unknown>
     f8c: 36 00        	<unknown>
     f8e: 00 0c        	<unknown>
     f90: 16 4f        	<unknown>
     f92: c0 36        	<unknown>
     f94: 00 00        	<unknown>
     f96: 0c 16        	<unknown>
     f98: 50 d6        	<unknown>
     f9a: 36 00        	<unknown>
     f9c: 00 0c        	<unknown>
     f9e: 16 51        	<unknown>
     fa0: ec 36        	<unknown>
     fa2: 00 00        	<unknown>
     fa4: 0c 16        	<unknown>
     fa6: 52 02        	<unknown>
     fa8: 37 00 00 0c  	lui	zero, 0xc000
     fac: 16 54        	<unknown>
     fae: 18 37        	<unknown>
     fb0: 00 00        	<unknown>
     fb2: 0c 16        	<unknown>
     fb4: 55 2e        	<unknown>
     fb6: 37 00 00 0c  	lui	zero, 0xc000
     fba: 1a 4d        	<unknown>
     fbc: 39 37        	<unknown>
     fbe: 00 00        	<unknown>
     fc0: 0c 1a        	<unknown>
     fc2: 4e 56        	<unknown>
     fc4: 37 00 00 0c  	lui	zero, 0xc000
     fc8: 1a 4f        	<unknown>
     fca: 73 37 00 00  	csrrc	a4, 0x0, zero
     fce: 0c 1a        	<unknown>
     fd0: 50 94        	<unknown>
     fd2: 37 00 00 0c  	lui	zero, 0xc000
     fd6: 1a 51        	<unknown>
     fd8: b1 37        	<unknown>
     fda: 00 00        	<unknown>
     fdc: 0c 1a        	<unknown>
     fde: 52 d2        	<unknown>
     fe0: 37 00 00 0c  	lui	zero, 0xc000
     fe4: 1a 53        	<unknown>
     fe6: ea 37        	<unknown>
     fe8: 00 00        	<unknown>
     fea: 0c 1a        	<unknown>
     fec: 54 02        	<unknown>
     fee: 38 00        	<unknown>
     ff0: 00 0c        	<unknown>
     ff2: 1a 55        	<unknown>
     ff4: 1a 38        	<unknown>
     ff6: 00 00        	<unknown>
     ff8: 0c 1a        	<unknown>
     ffa: 56 32        	<unknown>
     ffc: 38 00        	<unknown>
     ffe: 00 0c        	<unknown>
    1000: 1a 57        	<unknown>
    1002: 4b 38 00 00  	fnmsub.s	fa6, ft0, ft0, ft0, rup
    1006: 0c 1a        	<unknown>
    1008: 58 5f        	<unknown>
    100a: 38 00        	<unknown>
    100c: 00 0c        	<unknown>
    100e: 1a 59        	<unknown>
    1010: 73 38 00 00  	csrrc	a6, 0x0, zero
    1014: 0c 1a        	<unknown>
    1016: 5a 90        	<unknown>
    1018: 38 00        	<unknown>
    101a: 00 0c        	<unknown>
    101c: 1a 5b        	<unknown>
    101e: ad 38        	<unknown>
    1020: 00 00        	<unknown>
    1022: 0c 1a        	<unknown>
    1024: 5c ca        	<unknown>
    1026: 38 00        	<unknown>
    1028: 00 0c        	<unknown>
    102a: 1a 5d        	<unknown>
    102c: e3 38 00 00  	<unknown>
    1030: 0c 1a        	<unknown>
    1032: 5e fc        	<unknown>
    1034: 38 00        	<unknown>
    1036: 00 0c        	<unknown>
    1038: 1a 5f        	<unknown>
    103a: 19 39        	<unknown>
    103c: 00 00        	<unknown>
    103e: 0c 1a        	<unknown>
    1040: 60 31        	<unknown>
    1042: 39 00        	<unknown>
    1044: 00 0c        	<unknown>
    1046: 1a 61        	<unknown>
    1048: 4a 39        	<unknown>
    104a: 00 00        	<unknown>
    104c: 0c 1a        	<unknown>
    104e: 62 62        	<unknown>
    1050: 39 00        	<unknown>
    1052: 00 0c        	<unknown>
    1054: 1e 40        	<unknown>
    1056: 7b 39 00 00  	<unknown>
    105a: 0c 1e        	<unknown>
    105c: 8d e8        	<unknown>
    105e: 39 00        	<unknown>
    1060: 00 0c        	<unknown>
    1062: 1e 8f        	<unknown>
    1064: f3 39 00 00  	csrrc	s3, 0x0, zero
    1068: 0c 1e        	<unknown>
    106a: 90 07        	<unknown>
    106c: 3a 00        	<unknown>
    106e: 00 0c        	<unknown>
    1070: 1e 91        	<unknown>
    1072: 2b 3a 00 00  	<unknown>
    1076: 0c 1e        	<unknown>
    1078: 92 49        	<unknown>
    107a: 3a 00        	<unknown>
    107c: 00 0c        	<unknown>
    107e: 1e 93        	<unknown>
    1080: 62 3a        	<unknown>
    1082: 00 00        	<unknown>
    1084: 0c 1e        	<unknown>
    1086: 94 7b        	<unknown>
    1088: 3a 00        	<unknown>
    108a: 00 0c        	<unknown>
    108c: 1e 95        	<unknown>
    108e: 94 3a        	<unknown>
    1090: 00 00        	<unknown>
    1092: 0c 1e        	<unknown>
    1094: 96 ae        	<unknown>
    1096: 3a 00        	<unknown>
    1098: 00 0c        	<unknown>
    109a: 1e 97        	<unknown>
    109c: cc 3a        	<unknown>
    109e: 00 00        	<unknown>
    10a0: 0c 1e        	<unknown>
    10a2: 98 e0        	<unknown>
    10a4: 3a 00        	<unknown>
    10a6: 00 0c        	<unknown>
    10a8: 1e 99        	<unknown>
    10aa: ee 3a        	<unknown>
    10ac: 00 00        	<unknown>
    10ae: 0c 1e        	<unknown>
    10b0: 9a 11        	<unknown>
    10b2: 3b 00 00 0c  	<unknown>
    10b6: 1e 9b        	<unknown>
    10b8: 34 3b        	<unknown>
    10ba: 00 00        	<unknown>
    10bc: 0c 1e        	<unknown>
    10be: 9c 52        	<unknown>
    10c0: 3b 00 00 0c  	<unknown>
    10c4: 1e 9d        	<unknown>
    10c6: 7a 3b        	<unknown>
    10c8: 00 00        	<unknown>
    10ca: 0c 1e        	<unknown>
    10cc: 9e 93        	<unknown>
    10ce: 3b 00 00 0c  	<unknown>
    10d2: 1e a0        	<unknown>
    10d4: a7 3b 00 00  	fsd	ft0, 0x17(zero)
    10d8: 0c 1e        	<unknown>
    10da: a2 c6        	<unknown>
    10dc: 3b 00 00 0c  	<unknown>
    10e0: 1e a3        	<unknown>
    10e2: e4 3b        	<unknown>
    10e4: 00 00        	<unknown>
    10e6: 0c 1e        	<unknown>
    10e8: a4 fd        	<unknown>
    10ea: 3b 00 00 0c  	<unknown>
    10ee: 1e a6        	<unknown>
    10f0: 1b 3c 00 00  	<unknown>
    10f4: 0c 1e        	<unknown>
    10f6: a9 3d        	<unknown>
    10f8: 3c 00        	<unknown>
    10fa: 00 0c        	<unknown>
    10fc: 1e ac        	<unknown>
    10fe: 60 3c        	<unknown>
    1100: 00 00        	<unknown>
    1102: 0c 1e        	<unknown>
    1104: ae 82        	<unknown>
    1106: 3c 00        	<unknown>
    1108: 00 0c        	<unknown>
    110a: 1e b0        	<unknown>
    110c: 9b 3c 00 00  	<unknown>
    1110: 0c 1e        	<unknown>
    1112: b2 b8        	<unknown>
    1114: 3c 00        	<unknown>
    1116: 00 0c        	<unknown>
    1118: 1e b3        	<unknown>
    111a: d6 3c        	<unknown>
    111c: 00 00        	<unknown>
    111e: 0c 1e        	<unknown>
    1120: b4 ee        	<unknown>
    1122: 3c 00        	<unknown>
    1124: 00 0c        	<unknown>
    1126: 1e b5        	<unknown>
    1128: 06 3d        	<unknown>
    112a: 00 00        	<unknown>
    112c: 0c 1e        	<unknown>
    112e: b6 1e        	<unknown>
    1130: 3d 00        	<unknown>
    1132: 00 0c        	<unknown>
    1134: 1e b7        	<unknown>
    1136: 36 3d        	<unknown>
    1138: 00 00        	<unknown>
    113a: 0c 1e        	<unknown>
    113c: b8 4e        	<unknown>
    113e: 3d 00        	<unknown>
    1140: 00 0c        	<unknown>
    1142: 1e b9        	<unknown>
    1144: 81 3d        	<unknown>
    1146: 00 00        	<unknown>
    1148: 0c 1e        	<unknown>
    114a: ba 94        	<unknown>
    114c: 3d 00        	<unknown>
    114e: 00 0c        	<unknown>
    1150: 1e bb        	<unknown>
    1152: b1 3d        	<unknown>
    1154: 00 00        	<unknown>
    1156: 0c 1e        	<unknown>
    1158: bc ce        	<unknown>
    115a: 3d 00        	<unknown>
    115c: 00 0c        	<unknown>
    115e: 1e bd        	<unknown>
    1160: eb 3d 00 00  	<unknown>
    1164: 0c 1e        	<unknown>
    1166: be 13        	<unknown>
    1168: 3e 00        	<unknown>
    116a: 00 0c        	<unknown>
    116c: 1e bf        	<unknown>
    116e: 2b 3e 00 00  	<unknown>
    1172: 0c 1e        	<unknown>
    1174: c1 49        	<unknown>
    1176: 3e 00        	<unknown>
    1178: 00 0c        	<unknown>
    117a: 1e c3        	<unknown>
    117c: 62 3e        	<unknown>
    117e: 00 00        	<unknown>
    1180: 0c 1e        	<unknown>
    1182: c4 7f        	<unknown>
    1184: 3e 00        	<unknown>
    1186: 00 0c        	<unknown>
    1188: 1e c5        	<unknown>
    118a: 9d 3e        	<unknown>
    118c: 00 00        	<unknown>
    118e: 0c 1e        	<unknown>
    1190: c6 bb        	<unknown>
    1192: 3e 00        	<unknown>
    1194: 00 0c        	<unknown>
    1196: 1e c7        	<unknown>
    1198: d8 3e        	<unknown>
    119a: 00 00        	<unknown>
    119c: 0c 1e        	<unknown>
    119e: c8 ec        	<unknown>
    11a0: 3e 00        	<unknown>
    11a2: 00 0c        	<unknown>
    11a4: 1e c9        	<unknown>
    11a6: 0a 3f        	<unknown>
    11a8: 00 00        	<unknown>
    11aa: 0c 1e        	<unknown>
    11ac: ca 28        	<unknown>
    11ae: 3f 00 00 0c  	<unknown>
    11b2: 1e cb        	<unknown>
    11b4: 46 3f        	<unknown>
    11b6: 00 00        	<unknown>
    11b8: 0c 1e        	<unknown>
    11ba: cc 64        	<unknown>
    11bc: 3f 00 00 0c  	<unknown>
    11c0: 1e cd        	<unknown>
    11c2: 79 3f        	<unknown>
    11c4: 00 00        	<unknown>
    11c6: 0c 1e        	<unknown>
    11c8: ce 92        	<unknown>
    11ca: 3f 00 00 0c  	<unknown>
    11ce: 1e cf        	<unknown>
    11d0: aa 3f        	<unknown>
    11d2: 00 00        	<unknown>
    11d4: 0c 1e        	<unknown>
    11d6: d0 c2        	<unknown>
    11d8: 3f 00 00 0c  	<unknown>
    11dc: 1e d1        	<unknown>
    11de: da 3f        	<unknown>
    11e0: 00 00        	<unknown>
    11e2: 0c 1e        	<unknown>
    11e4: d2 f2        	<unknown>
    11e6: 3f 00 00 1a  	<unknown>
    11ea: 1e 0b        	<unknown>
    11ec: 01 0f        	<unknown>
    11ee: 40 00        	<unknown>
    11f0: 00 1a        	<unknown>
    11f2: 1e 0c        	<unknown>
    11f4: 01 28        	<unknown>
    11f6: 40 00        	<unknown>
    11f8: 00 1a        	<unknown>
    11fa: 1e 0d        	<unknown>
    11fc: 01 46        	<unknown>
    11fe: 40 00        	<unknown>
    1200: 00 1a        	<unknown>
    1202: 1e 1b        	<unknown>
    1204: 01 49        	<unknown>
    1206: 3e 00        	<unknown>
    1208: 00 1a        	<unknown>
    120a: 1e 1e        	<unknown>
    120c: 01 1b        	<unknown>
    120e: 3c 00        	<unknown>
    1210: 00 1a        	<unknown>
    1212: 1e 21        	<unknown>
    1214: 01 60        	<unknown>
    1216: 3c 00        	<unknown>
    1218: 00 1a        	<unknown>
    121a: 1e 24        	<unknown>
    121c: 01 9b        	<unknown>
    121e: 3c 00        	<unknown>
    1220: 00 1a        	<unknown>
    1222: 1e 28        	<unknown>
    1224: 01 0f        	<unknown>
    1226: 40 00        	<unknown>
    1228: 00 1a        	<unknown>
    122a: 1e 29        	<unknown>
    122c: 01 28        	<unknown>
    122e: 40 00        	<unknown>
    1230: 00 1a        	<unknown>
    1232: 1e 2a        	<unknown>
    1234: 01 46        	<unknown>
    1236: 40 00        	<unknown>
    1238: 00 0c        	<unknown>
    123a: 22 35        	<unknown>
    123c: 64 40        	<unknown>
    123e: 00 00        	<unknown>
    1240: 0c 22        	<unknown>
    1242: 36 6a        	<unknown>
    1244: 40 00        	<unknown>
    1246: 00 0c        	<unknown>
    1248: 22 37        	<unknown>
    124a: 82 40        	<unknown>
    124c: 00 00        	<unknown>
    124e: 0c 25        	<unknown>
    1250: 40 94        	<unknown>
    1252: 40 00        	<unknown>
    1254: 00 0c        	<unknown>
    1256: 25 41        	<unknown>
    1258: a7 40 00 00  	<unknown>
    125c: 0c 25        	<unknown>
    125e: 42 ba        	<unknown>
    1260: 40 00        	<unknown>
    1262: 00 0c        	<unknown>
    1264: 25 43        	<unknown>
    1266: cd 40        	<unknown>
    1268: 00 00        	<unknown>
    126a: 0c 25        	<unknown>
    126c: 44 e0        	<unknown>
    126e: 40 00        	<unknown>
    1270: 00 0c        	<unknown>
    1272: 25 45        	<unknown>
    1274: f3 40 00 00  	<unknown>
    1278: 0c 25        	<unknown>
    127a: 46 06        	<unknown>
    127c: 41 00        	<unknown>
    127e: 00 0c        	<unknown>
    1280: 25 47        	<unknown>
    1282: 19 41        	<unknown>
    1284: 00 00        	<unknown>
    1286: 0c 25        	<unknown>
    1288: 48 2c        	<unknown>
    128a: 41 00        	<unknown>
    128c: 00 0c        	<unknown>
    128e: 25 49        	<unknown>
    1290: 3f 41 00 00  	<unknown>
    1294: 0c 25        	<unknown>
    1296: 4a 52        	<unknown>
    1298: 41 00        	<unknown>
    129a: 00 0c        	<unknown>
    129c: 25 4b        	<unknown>
    129e: 65 41        	<unknown>
    12a0: 00 00        	<unknown>
    12a2: 0c 25        	<unknown>
    12a4: 4c 78        	<unknown>
    12a6: 41 00        	<unknown>
    12a8: 00 0c        	<unknown>
    12aa: 25 57        	<unknown>
    12ac: 8b 41 00 00  	<unknown>
    12b0: 1b c5 16 00  	<unknown>
    12b4: 00 02        	<unknown>
    12b6: cd 16        	<unknown>
    12b8: 00 00        	<unknown>
    12ba: 1c cf        	<unknown>
    12bc: 16 00        	<unknown>
    12be: 00 01        	<unknown>
    12c0: 0c 27        	<unknown>
    12c2: 55 e7        	<unknown>
    12c4: 12 00        	<unknown>
    12c6: 00 1d        	<unknown>
    12c8: 2b 17 00 00  	<unknown>
    12cc: 5f 17 00 00  	<unknown>
    12d0: 27 e6 01 01  	<unknown>
    12d4: 09 ab        	<unknown>
    12d6: 41 00        	<unknown>
    12d8: 00 09        	<unknown>
    12da: ab 41 00 00  	<unknown>
    12de: 00 00        	<unknown>
    12e0: 0c 27        	<unknown>
    12e2: 42 ba        	<unknown>
    12e4: 12 00        	<unknown>
    12e6: 00 1e        	<unknown>
    12e8: dd 16        	<unknown>
    12ea: 00 00        	<unknown>
    12ec: 19 17        	<unknown>
    12ee: 00 00        	<unknown>
    12f0: 27 51 01 01  	<unknown>
    12f4: 01 09        	<unknown>
    12f6: ba 12        	<unknown>
    12f8: 00 00        	<unknown>
    12fa: 00 0c        	<unknown>
    12fc: 27 f3 c7 12  	<unknown>
    1300: 00 00        	<unknown>
    1302: 0c 29        	<unknown>
    1304: 52 b0        	<unknown>
    1306: 41 00        	<unknown>
    1308: 00 0c        	<unknown>
    130a: 29 53        	<unknown>
    130c: c5 41        	<unknown>
    130e: 00 00        	<unknown>
    1310: 0c 29        	<unknown>
    1312: 54 e8        	<unknown>
    1314: 39 00        	<unknown>
    1316: 00 0c        	<unknown>
    1318: 29 56        	<unknown>
    131a: d0 41        	<unknown>
    131c: 00 00        	<unknown>
    131e: 0c 29        	<unknown>
    1320: 57 e3 41 00  	<unknown>
    1324: 00 0c        	<unknown>
    1326: 29 59        	<unknown>
    1328: f6 41        	<unknown>
    132a: 00 00        	<unknown>
    132c: 0c 29        	<unknown>
    132e: 5b 09 42 00  	<unknown>
    1332: 00 0c        	<unknown>
    1334: 29 5c        	<unknown>
    1336: 1c 42        	<unknown>
    1338: 00 00        	<unknown>
    133a: 0c 29        	<unknown>
    133c: 5d 34        	<unknown>
    133e: 42 00        	<unknown>
    1340: 00 0c        	<unknown>
    1342: 29 5e        	<unknown>
    1344: 47 42 00 00  	fmsub.s	ft4, ft0, ft0, ft0, rmm
    1348: 0c 29        	<unknown>
    134a: 5f 5a 42 00  	<unknown>
    134e: 00 0c        	<unknown>
    1350: 29 60        	<unknown>
    1352: 6d 42        	<unknown>
    1354: 00 00        	<unknown>
    1356: 0c 29        	<unknown>
    1358: 61 80        	<unknown>
    135a: 42 00        	<unknown>
    135c: 00 0c        	<unknown>
    135e: 29 62        	<unknown>
    1360: 93 42 00 00  	xori	t0, zero, 0x0
    1364: 0c 29        	<unknown>
    1366: 63 a6 42 00  	<unknown>
    136a: 00 0c        	<unknown>
    136c: 29 64        	<unknown>
    136e: b9 42        	<unknown>
    1370: 00 00        	<unknown>
    1372: 0c 29        	<unknown>
    1374: 65 cc        	<unknown>
    1376: 42 00        	<unknown>
    1378: 00 0c        	<unknown>
    137a: 29 66        	<unknown>
    137c: e4 42        	<unknown>
    137e: 00 00        	<unknown>
    1380: 0c 29        	<unknown>
    1382: 67 f7 42 00  	<unknown>
    1386: 00 0c        	<unknown>
    1388: 29 68        	<unknown>
    138a: 0a 43        	<unknown>
    138c: 00 00        	<unknown>
    138e: 0c 29        	<unknown>
    1390: 69 1d        	<unknown>
    1392: 43 00 00 0c  	<unknown>
    1396: 2c 3c        	<unknown>
    1398: 30 43        	<unknown>
    139a: 00 00        	<unknown>
    139c: 0c 2c        	<unknown>
    139e: 3d 46        	<unknown>
    13a0: 43 00 00 0c  	<unknown>
    13a4: 2c 3e        	<unknown>
    13a6: 7b 3d 00 00  	<unknown>
    13aa: 0c 2c        	<unknown>
    13ac: 40 5c        	<unknown>
    13ae: 43 00 00 0c  	<unknown>
    13b2: 2c 41        	<unknown>
    13b4: 69 43        	<unknown>
    13b6: 00 00        	<unknown>
    13b8: 0c 2c        	<unknown>
    13ba: 42 81        	<unknown>
    13bc: 43 00 00 0c  	<unknown>
    13c0: 2c 43        	<unknown>
    13c2: 99 43        	<unknown>
    13c4: 00 00        	<unknown>
    13c6: 0c 2c        	<unknown>
    13c8: 44 b1        	<unknown>
    13ca: 43 00 00 0c  	<unknown>
    13ce: 2c 45        	<unknown>
    13d0: c4 43        	<unknown>
    13d2: 00 00        	<unknown>
    13d4: 0c 2c        	<unknown>
    13d6: 46 e1        	<unknown>
    13d8: 43 00 00 0c  	<unknown>
    13dc: 2c 47        	<unknown>
    13de: f4 43        	<unknown>
    13e0: 00 00        	<unknown>
    13e2: 0c 2c        	<unknown>
    13e4: 48 07        	<unknown>
    13e6: 44 00        	<unknown>
    13e8: 00 00        	<unknown>
    13ea: 1f d8 05 00  	<unknown>
    13ee: 00 ee        	<unknown>
    13f0: 06 00        	<unknown>
    13f2: 00 04        	<unknown>
    13f4: 1e 00        	<unknown>
    13f6: 14 00        	<unknown>
    13f8: 00 01        	<unknown>
    13fa: 09 00        	<unknown>
    13fc: 14 00        	<unknown>
    13fe: 00 00        	<unknown>
    1400: 0d 51        	<unknown>
    1402: 01 00        	<unknown>
    1404: 00 05        	<unknown>
    1406: 04 1f        	<unknown>
    1408: e1 05        	<unknown>
    140a: 00 00        	<unknown>
    140c: eb 05 00 00  	<unknown>
    1410: 04 20        	<unknown>
    1412: 1d 14        	<unknown>
    1414: 00 00        	<unknown>
    1416: 01 09        	<unknown>
    1418: 1d 14        	<unknown>
    141a: 00 00        	<unknown>
    141c: 00 0d        	<unknown>
    141e: f0 05        	<unknown>
    1420: 00 00        	<unknown>
    1422: 04 04        	<unknown>
    1424: 1f f6 05 00  	<unknown>
    1428: 00 01        	<unknown>
    142a: 06 00        	<unknown>
    142c: 00 04        	<unknown>
    142e: 22 1d        	<unknown>
    1430: 14 00        	<unknown>
    1432: 00 01        	<unknown>
    1434: 09 1d        	<unknown>
    1436: 14 00        	<unknown>
    1438: 00 00        	<unknown>
    143a: 1f 07 06 00  	<unknown>
    143e: 00 11        	<unknown>
    1440: 06 00        	<unknown>
    1442: 00 04        	<unknown>
    1444: 24 1d        	<unknown>
    1446: 14 00        	<unknown>
    1448: 00 01        	<unknown>
    144a: 09 1d        	<unknown>
    144c: 14 00        	<unknown>
    144e: 00 00        	<unknown>
    1450: 1f 16 06 00  	<unknown>
    1454: 00 21        	<unknown>
    1456: 06 00        	<unknown>
    1458: 00 04        	<unknown>
    145a: 26 1d        	<unknown>
    145c: 14 00        	<unknown>
    145e: 00 01        	<unknown>
    1460: 09 1d        	<unknown>
    1462: 14 00        	<unknown>
    1464: 00 00        	<unknown>
    1466: 1f 27 06 00  	<unknown>
    146a: 00 31        	<unknown>
    146c: 06 00        	<unknown>
    146e: 00 04        	<unknown>
    1470: 2a 1d        	<unknown>
    1472: 14 00        	<unknown>
    1474: 00 01        	<unknown>
    1476: 09 1d        	<unknown>
    1478: 14 00        	<unknown>
    147a: 00 00        	<unknown>
    147c: 1f 36 06 00  	<unknown>
    1480: 00 42        	<unknown>
    1482: 06 00        	<unknown>
    1484: 00 04        	<unknown>
    1486: 28 1d        	<unknown>
    1488: 14 00        	<unknown>
    148a: 00 01        	<unknown>
    148c: 09 1d        	<unknown>
    148e: 14 00        	<unknown>
    1490: 00 09        	<unknown>
    1492: 1d 14        	<unknown>
    1494: 00 00        	<unknown>
    1496: 00 1f        	<unknown>
    1498: 48 06        	<unknown>
    149a: 00 00        	<unknown>
    149c: 53 06 00 00  	fadd.s	fa2, ft0, ft0, rne
    14a0: 04 2c        	<unknown>
    14a2: 1d 14        	<unknown>
    14a4: 00 00        	<unknown>
    14a6: 01 09        	<unknown>
    14a8: 1d 14        	<unknown>
    14aa: 00 00        	<unknown>
    14ac: 00 1f        	<unknown>
    14ae: 59 06        	<unknown>
    14b0: 00 00        	<unknown>
    14b2: 63 06 00 00  	beqz	zero, 0x14be <.debug_info+0x14be>
    14b6: 04 2e        	<unknown>
    14b8: 1d 14        	<unknown>
    14ba: 00 00        	<unknown>
    14bc: 01 09        	<unknown>
    14be: 1d 14        	<unknown>
    14c0: 00 00        	<unknown>
    14c2: 00 1f        	<unknown>
    14c4: 68 06        	<unknown>
    14c6: 00 00        	<unknown>
    14c8: 72 06        	<unknown>
    14ca: 00 00        	<unknown>
    14cc: 04 30        	<unknown>
    14ce: 1d 14        	<unknown>
    14d0: 00 00        	<unknown>
    14d2: 01 09        	<unknown>
    14d4: 1d 14        	<unknown>
    14d6: 00 00        	<unknown>
    14d8: 00 1f        	<unknown>
    14da: 77 06 00 00  	<unknown>
    14de: 86 06        	<unknown>
    14e0: 00 00        	<unknown>
    14e2: 04 32        	<unknown>
    14e4: 1d 14        	<unknown>
    14e6: 00 00        	<unknown>
    14e8: 01 09        	<unknown>
    14ea: 1d 14        	<unknown>
    14ec: 00 00        	<unknown>
    14ee: 09 1d        	<unknown>
    14f0: 14 00        	<unknown>
    14f2: 00 00        	<unknown>
    14f4: 1f 8f 06 00  	<unknown>
    14f8: 00 ec        	<unknown>
    14fa: 05 00        	<unknown>
    14fc: 00 04        	<unknown>
    14fe: 34 1d        	<unknown>
    1500: 14 00        	<unknown>
    1502: 00 01        	<unknown>
    1504: 09 1d        	<unknown>
    1506: 14 00        	<unknown>
    1508: 00 00        	<unknown>
    150a: 1f 98 06 00  	<unknown>
    150e: 00 02        	<unknown>
    1510: 06 00        	<unknown>
    1512: 00 04        	<unknown>
    1514: 36 1d        	<unknown>
    1516: 14 00        	<unknown>
    1518: 00 01        	<unknown>
    151a: 09 1d        	<unknown>
    151c: 14 00        	<unknown>
    151e: 00 00        	<unknown>
    1520: 1f a2 06 00  	<unknown>
    1524: 00 d2        	<unknown>
    1526: 0b 00 00 04  	<unknown>
    152a: 3a 1d        	<unknown>
    152c: 14 00        	<unknown>
    152e: 00 01        	<unknown>
    1530: 09 1d        	<unknown>
    1532: 14 00        	<unknown>
    1534: 00 00        	<unknown>
    1536: 1f ab 06 00  	<unknown>
    153a: 00 b5        	<unknown>
    153c: 06 00        	<unknown>
    153e: 00 04        	<unknown>
    1540: 38 1d        	<unknown>
    1542: 14 00        	<unknown>
    1544: 00 01        	<unknown>
    1546: 09 1d        	<unknown>
    1548: 14 00        	<unknown>
    154a: 00 00        	<unknown>
    154c: 1f ba 06 00  	<unknown>
    1550: 00 c5        	<unknown>
    1552: 08 00        	<unknown>
    1554: 00 04        	<unknown>
    1556: 3e 1d        	<unknown>
    1558: 14 00        	<unknown>
    155a: 00 01        	<unknown>
    155c: 09 1d        	<unknown>
    155e: 14 00        	<unknown>
    1560: 00 00        	<unknown>
    1562: 1f c3 06 00  	<unknown>
    1566: 00 cd        	<unknown>
    1568: 06 00        	<unknown>
    156a: 00 04        	<unknown>
    156c: 3c 1d        	<unknown>
    156e: 14 00        	<unknown>
    1570: 00 01        	<unknown>
    1572: 09 1d        	<unknown>
    1574: 14 00        	<unknown>
    1576: 00 00        	<unknown>
    1578: 1f d2 06 00  	<unknown>
    157c: 00 dd        	<unknown>
    157e: 06 00        	<unknown>
    1580: 00 04        	<unknown>
    1582: 40 1d        	<unknown>
    1584: 14 00        	<unknown>
    1586: 00 01        	<unknown>
    1588: 09 1d        	<unknown>
    158a: 14 00        	<unknown>
    158c: 00 00        	<unknown>
    158e: 1f e3 06 00  	<unknown>
    1592: 00 ed        	<unknown>
    1594: 06 00        	<unknown>
    1596: 00 04        	<unknown>
    1598: 42 1d        	<unknown>
    159a: 14 00        	<unknown>
    159c: 00 01        	<unknown>
    159e: 09 1d        	<unknown>
    15a0: 14 00        	<unknown>
    15a2: 00 00        	<unknown>
    15a4: 1f f2 06 00  	<unknown>
    15a8: 00 fd        	<unknown>
    15aa: 06 00        	<unknown>
    15ac: 00 04        	<unknown>
    15ae: 44 1d        	<unknown>
    15b0: 14 00        	<unknown>
    15b2: 00 01        	<unknown>
    15b4: 09 1d        	<unknown>
    15b6: 14 00        	<unknown>
    15b8: 00 09        	<unknown>
    15ba: 1d 14        	<unknown>
    15bc: 00 00        	<unknown>
    15be: 00 1f        	<unknown>
    15c0: 02 07        	<unknown>
    15c2: 00 00        	<unknown>
    15c4: 0d 07        	<unknown>
    15c6: 00 00        	<unknown>
    15c8: 04 46        	<unknown>
    15ca: 1d 14        	<unknown>
    15cc: 00 00        	<unknown>
    15ce: 01 09        	<unknown>
    15d0: 1d 14        	<unknown>
    15d2: 00 00        	<unknown>
    15d4: 00 1f        	<unknown>
    15d6: 13 07 00 00  	li	a4, 0x0
    15da: 1e 07        	<unknown>
    15dc: 00 00        	<unknown>
    15de: 04 48        	<unknown>
    15e0: 1d 14        	<unknown>
    15e2: 00 00        	<unknown>
    15e4: 01 09        	<unknown>
    15e6: 1d 14        	<unknown>
    15e8: 00 00        	<unknown>
    15ea: 09 1d        	<unknown>
    15ec: 14 00        	<unknown>
    15ee: 00 09        	<unknown>
    15f0: 1d 14        	<unknown>
    15f2: 00 00        	<unknown>
    15f4: 00 1f        	<unknown>
    15f6: 22 07        	<unknown>
    15f8: 00 00        	<unknown>
    15fa: 2d 07        	<unknown>
    15fc: 00 00        	<unknown>
    15fe: 04 4a        	<unknown>
    1600: 1d 14        	<unknown>
    1602: 00 00        	<unknown>
    1604: 01 09        	<unknown>
    1606: 1d 14        	<unknown>
    1608: 00 00        	<unknown>
    160a: 09 1d        	<unknown>
    160c: 14 00        	<unknown>
    160e: 00 00        	<unknown>
    1610: 1f 32 07 00  	<unknown>
    1614: 00 3d        	<unknown>
    1616: 07 00 00 04  	<unknown>
    161a: 4c 1d        	<unknown>
    161c: 14 00        	<unknown>
    161e: 00 01        	<unknown>
    1620: 09 1d        	<unknown>
    1622: 14 00        	<unknown>
    1624: 00 09        	<unknown>
    1626: 1d 14        	<unknown>
    1628: 00 00        	<unknown>
    162a: 00 1f        	<unknown>
    162c: 42 07        	<unknown>
    162e: 00 00        	<unknown>
    1630: 4d 07        	<unknown>
    1632: 00 00        	<unknown>
    1634: 04 4e        	<unknown>
    1636: 1d 14        	<unknown>
    1638: 00 00        	<unknown>
    163a: 01 09        	<unknown>
    163c: 1d 14        	<unknown>
    163e: 00 00        	<unknown>
    1640: 09 1d        	<unknown>
    1642: 14 00        	<unknown>
    1644: 00 00        	<unknown>
    1646: 1f 52 07 00  	<unknown>
    164a: 00 63        	<unknown>
    164c: 07 00 00 04  	<unknown>
    1650: 50 00        	<unknown>
    1652: 14 00        	<unknown>
    1654: 00 01        	<unknown>
    1656: 09 1d        	<unknown>
    1658: 14 00        	<unknown>
    165a: 00 00        	<unknown>
    165c: 1f 6e 07 00  	<unknown>
    1660: 00 7b        	<unknown>
    1662: 07 00 00 04  	<unknown>
    1666: 52 1d        	<unknown>
    1668: 14 00        	<unknown>
    166a: 00 01        	<unknown>
    166c: 09 1d        	<unknown>
    166e: 14 00        	<unknown>
    1670: 00 09        	<unknown>
    1672: 77 16 00 00  	<unknown>
    1676: 00 0e        	<unknown>
    1678: 00 14        	<unknown>
    167a: 00 00        	<unknown>
    167c: 1f 81 07 00  	<unknown>
    1680: 00 8d        	<unknown>
    1682: 07 00 00 04  	<unknown>
    1686: 54 1d        	<unknown>
    1688: 14 00        	<unknown>
    168a: 00 01        	<unknown>
    168c: 09 1d        	<unknown>
    168e: 14 00        	<unknown>
    1690: 00 09        	<unknown>
    1692: 1d 14        	<unknown>
    1694: 00 00        	<unknown>
    1696: 00 1f        	<unknown>
    1698: 93 07 00 00  	li	a5, 0x0
    169c: 9e 07        	<unknown>
    169e: 00 00        	<unknown>
    16a0: 04 56        	<unknown>
    16a2: 00 14        	<unknown>
    16a4: 00 00        	<unknown>
    16a6: 01 09        	<unknown>
    16a8: 1d 14        	<unknown>
    16aa: 00 00        	<unknown>
    16ac: 00 1f        	<unknown>
    16ae: a4 07        	<unknown>
    16b0: 00 00        	<unknown>
    16b2: b2 07        	<unknown>
    16b4: 00 00        	<unknown>
    16b6: 04 5b        	<unknown>
    16b8: c3 16 00 00  	fmadd.s	fa3, ft0, ft0, ft0, rtz
    16bc: 01 09        	<unknown>
    16be: 1d 14        	<unknown>
    16c0: 00 00        	<unknown>
    16c2: 00 0d        	<unknown>
    16c4: bb 07 00 00  	addw	a5, zero, zero
    16c8: 02 01        	<unknown>
    16ca: 1f c0 07 00  	<unknown>
    16ce: 00 d0        	<unknown>
    16d0: 07 00 00 04  	<unknown>
    16d4: 5f c3 16 00  	<unknown>
    16d8: 00 01        	<unknown>
    16da: 09 1d        	<unknown>
    16dc: 14 00        	<unknown>
    16de: 00 09        	<unknown>
    16e0: 1d 14        	<unknown>
    16e2: 00 00        	<unknown>
    16e4: 00 1f        	<unknown>
    16e6: da 07        	<unknown>
    16e8: 00 00        	<unknown>
    16ea: f0 07        	<unknown>
    16ec: 00 00        	<unknown>
    16ee: 04 5e        	<unknown>
    16f0: c3 16 00 00  	fmadd.s	fa3, ft0, ft0, ft0, rtz
    16f4: 01 09        	<unknown>
    16f6: 1d 14        	<unknown>
    16f8: 00 00        	<unknown>
    16fa: 09 1d        	<unknown>
    16fc: 14 00        	<unknown>
    16fe: 00 00        	<unknown>
    1700: 1f ff 07 00  	<unknown>
    1704: 00 0a        	<unknown>
    1706: 08 00        	<unknown>
    1708: 00 04        	<unknown>
    170a: 64 c3        	<unknown>
    170c: 16 00        	<unknown>
    170e: 00 01        	<unknown>
    1710: 09 1d        	<unknown>
    1712: 14 00        	<unknown>
    1714: 00 00        	<unknown>
    1716: 1f 10 08 00  	<unknown>
    171a: 00 1d        	<unknown>
    171c: 08 00        	<unknown>
    171e: 00 04        	<unknown>
    1720: 68 c3        	<unknown>
    1722: 16 00        	<unknown>
    1724: 00 01        	<unknown>
    1726: 09 1d        	<unknown>
    1728: 14 00        	<unknown>
    172a: 00 09        	<unknown>
    172c: 1d 14        	<unknown>
    172e: 00 00        	<unknown>
    1730: 00 1f        	<unknown>
    1732: 24 08        	<unknown>
    1734: 00 00        	<unknown>
    1736: 37 08 00 00  	lui	a6, 0x0
    173a: 04 67        	<unknown>
    173c: c3 16 00 00  	fmadd.s	fa3, ft0, ft0, ft0, rtz
    1740: 01 09        	<unknown>
    1742: 1d 14        	<unknown>
    1744: 00 00        	<unknown>
    1746: 09 1d        	<unknown>
    1748: 14 00        	<unknown>
    174a: 00 00        	<unknown>
    174c: 1f 43 08 00  	<unknown>
    1750: 00 58        	<unknown>
    1752: 08 00        	<unknown>
    1754: 00 04        	<unknown>
    1756: 6a c3        	<unknown>
    1758: 16 00        	<unknown>
    175a: 00 01        	<unknown>
    175c: 09 1d        	<unknown>
    175e: 14 00        	<unknown>
    1760: 00 09        	<unknown>
    1762: 1d 14        	<unknown>
    1764: 00 00        	<unknown>
    1766: 00 1f        	<unknown>
    1768: 66 08        	<unknown>
    176a: 00 00        	<unknown>
    176c: 71 08        	<unknown>
    176e: 00 00        	<unknown>
    1770: 04 6f        	<unknown>
    1772: c3 16 00 00  	fmadd.s	fa3, ft0, ft0, ft0, rtz
    1776: 01 09        	<unknown>
    1778: 1d 14        	<unknown>
    177a: 00 00        	<unknown>
    177c: 00 1f        	<unknown>
    177e: 77 08 00 00  	<unknown>
    1782: 85 08        	<unknown>
    1784: 00 00        	<unknown>
    1786: 04 71        	<unknown>
    1788: c3 16 00 00  	fmadd.s	fa3, ft0, ft0, ft0, rtz
    178c: 01 09        	<unknown>
    178e: 1d 14        	<unknown>
    1790: 00 00        	<unknown>
    1792: 00 1f        	<unknown>
    1794: 8e 08        	<unknown>
    1796: 00 00        	<unknown>
    1798: a1 08        	<unknown>
    179a: 00 00        	<unknown>
    179c: 04 73        	<unknown>
    179e: c3 16 00 00  	fmadd.s	fa3, ft0, ft0, ft0, rtz
    17a2: 01 09        	<unknown>
    17a4: 1d 14        	<unknown>
    17a6: 00 00        	<unknown>
    17a8: 09 1d        	<unknown>
    17aa: 14 00        	<unknown>
    17ac: 00 00        	<unknown>
    17ae: 1f ad 08 00  	<unknown>
    17b2: 00 e8        	<unknown>
    17b4: 08 00        	<unknown>
    17b6: 00 04        	<unknown>
    17b8: 74 c4        	<unknown>
    17ba: 17 00 00 01  	auipc	zero, 0x1000
    17be: 09 c4        	<unknown>
    17c0: 17 00 00 00  	auipc	zero, 0x0
    17c4: 0d 66        	<unknown>
    17c6: 0c 00        	<unknown>
    17c8: 00 05        	<unknown>
    17ca: 08 1f        	<unknown>
    17cc: b7 08 00 00  	lui	a7, 0x0
    17d0: c3 08 00 00  	fmadd.s	fa7, ft0, ft0, ft0, rne
    17d4: 04 76        	<unknown>
    17d6: 1d 14        	<unknown>
    17d8: 00 00        	<unknown>
    17da: 01 09        	<unknown>
    17dc: 1d 14        	<unknown>
    17de: 00 00        	<unknown>
    17e0: 09 00        	<unknown>
    17e2: 14 00        	<unknown>
    17e4: 00 00        	<unknown>
    17e6: 1f c9 08 00  	<unknown>
    17ea: 00 d5        	<unknown>
    17ec: 08 00        	<unknown>
    17ee: 00 04        	<unknown>
    17f0: 78 1d        	<unknown>
    17f2: 14 00        	<unknown>
    17f4: 00 01        	<unknown>
    17f6: 09 1d        	<unknown>
    17f8: 14 00        	<unknown>
    17fa: 00 00        	<unknown>
    17fc: 1f dc 08 00  	<unknown>
    1800: 00 e7        	<unknown>
    1802: 08 00        	<unknown>
    1804: 00 04        	<unknown>
    1806: 79 12        	<unknown>
    1808: 18 00        	<unknown>
    180a: 00 01        	<unknown>
    180c: 09 12        	<unknown>
    180e: 18 00        	<unknown>
    1810: 00 00        	<unknown>
    1812: 0d 20        	<unknown>
    1814: 01 00        	<unknown>
    1816: 00 05        	<unknown>
    1818: 08 1f        	<unknown>
    181a: ed 08        	<unknown>
    181c: 00 00        	<unknown>
    181e: f9 08        	<unknown>
    1820: 00 00        	<unknown>
    1822: 04 7b        	<unknown>
    1824: 12 18        	<unknown>
    1826: 00 00        	<unknown>
    1828: 01 09        	<unknown>
    182a: 1d 14        	<unknown>
    182c: 00 00        	<unknown>
    182e: 00 1f        	<unknown>
    1830: 00 09        	<unknown>
    1832: 00 00        	<unknown>
    1834: 09 09        	<unknown>
    1836: 00 00        	<unknown>
    1838: 04 85        	<unknown>
    183a: 1d 14        	<unknown>
    183c: 00 00        	<unknown>
    183e: 01 09        	<unknown>
    1840: 1d 14        	<unknown>
    1842: 00 00        	<unknown>
    1844: 00 1f        	<unknown>
    1846: 0d 09        	<unknown>
    1848: 00 00        	<unknown>
    184a: 18 09        	<unknown>
    184c: 00 00        	<unknown>
    184e: 04 7d        	<unknown>
    1850: 1d 14        	<unknown>
    1852: 00 00        	<unknown>
    1854: 01 09        	<unknown>
    1856: 1d 14        	<unknown>
    1858: 00 00        	<unknown>
    185a: 00 1f        	<unknown>
    185c: 1e 09        	<unknown>
    185e: 00 00        	<unknown>
    1860: 29 09        	<unknown>
    1862: 00 00        	<unknown>
    1864: 04 7f        	<unknown>
    1866: 1d 14        	<unknown>
    1868: 00 00        	<unknown>
    186a: 01 09        	<unknown>
    186c: 1d 14        	<unknown>
    186e: 00 00        	<unknown>
    1870: 00 1f        	<unknown>
    1872: 2f 09 00 00  	<unknown>
    1876: 39 09        	<unknown>
    1878: 00 00        	<unknown>
    187a: 04 81        	<unknown>
    187c: 1d 14        	<unknown>
    187e: 00 00        	<unknown>
    1880: 01 09        	<unknown>
    1882: 1d 14        	<unknown>
    1884: 00 00        	<unknown>
    1886: 00 1f        	<unknown>
    1888: 3e 09        	<unknown>
    188a: 00 00        	<unknown>
    188c: 9f 07 00 00  	<unknown>
    1890: 04 83        	<unknown>
    1892: 1d 14        	<unknown>
    1894: 00 00        	<unknown>
    1896: 01 09        	<unknown>
    1898: 1d 14        	<unknown>
    189a: 00 00        	<unknown>
    189c: 00 1f        	<unknown>
    189e: 48 09        	<unknown>
    18a0: 00 00        	<unknown>
    18a2: fa 08        	<unknown>
    18a4: 00 00        	<unknown>
    18a6: 04 87        	<unknown>
    18a8: c4 17        	<unknown>
    18aa: 00 00        	<unknown>
    18ac: 01 09        	<unknown>
    18ae: 1d 14        	<unknown>
    18b0: 00 00        	<unknown>
    18b2: 00 1f        	<unknown>
    18b4: 53 09 00 00  	fadd.s	fs2, ft0, ft0, rne
    18b8: 6d 09        	<unknown>
    18ba: 00 00        	<unknown>
    18bc: 04 89        	<unknown>
    18be: c4 17        	<unknown>
    18c0: 00 00        	<unknown>
    18c2: 01 09        	<unknown>
    18c4: 1d 14        	<unknown>
    18c6: 00 00        	<unknown>
    18c8: 00 1f        	<unknown>
    18ca: 5f 09 00 00  	<unknown>
    18ce: 6c 09        	<unknown>
    18d0: 00 00        	<unknown>
    18d2: 04 8a        	<unknown>
    18d4: 12 18        	<unknown>
    18d6: 00 00        	<unknown>
    18d8: 01 09        	<unknown>
    18da: 1d 14        	<unknown>
    18dc: 00 00        	<unknown>
    18de: 00 1f        	<unknown>
    18e0: 74 09        	<unknown>
    18e2: 00 00        	<unknown>
    18e4: 7a 0e        	<unknown>
    18e6: 00 00        	<unknown>
    18e8: 04 8c        	<unknown>
    18ea: 1d 14        	<unknown>
    18ec: 00 00        	<unknown>
    18ee: 01 09        	<unknown>
    18f0: 1d 14        	<unknown>
    18f2: 00 00        	<unknown>
    18f4: 09 fa        	<unknown>
    18f6: 18 00        	<unknown>
    18f8: 00 00        	<unknown>
    18fa: 0e 1d        	<unknown>
    18fc: 14 00        	<unknown>
    18fe: 00 1f        	<unknown>
    1900: 80 09        	<unknown>
    1902: 00 00        	<unknown>
    1904: 73 08 00 00  	<unknown>
    1908: 04 8d        	<unknown>
    190a: 15 19        	<unknown>
    190c: 00 00        	<unknown>
    190e: 01 09        	<unknown>
    1910: 1c 19        	<unknown>
    1912: 00 00        	<unknown>
    1914: 00 0d        	<unknown>
    1916: d2 0a        	<unknown>
    1918: 00 00        	<unknown>
    191a: 04 08        	<unknown>
    191c: 0e 21        	<unknown>
    191e: 19 00        	<unknown>
    1920: 00 14        	<unknown>
    1922: 26 19        	<unknown>
    1924: 00 00        	<unknown>
    1926: 0d 96        	<unknown>
    1928: 12 00        	<unknown>
    192a: 00 06        	<unknown>
    192c: 01 1f        	<unknown>
    192e: 8b 09 00 00  	<unknown>
    1932: 6c 08        	<unknown>
    1934: 00 00        	<unknown>
    1936: 04 8e        	<unknown>
    1938: 1d 14        	<unknown>
    193a: 00 00        	<unknown>
    193c: 01 09        	<unknown>
    193e: 1c 19        	<unknown>
    1940: 00 00        	<unknown>
    1942: 00 1f        	<unknown>
    1944: 97 09 00 00  	auipc	s3, 0x0
    1948: a6 09        	<unknown>
    194a: 00 00        	<unknown>
    194c: 04 90        	<unknown>
    194e: 1d 14        	<unknown>
    1950: 00 00        	<unknown>
    1952: 01 09        	<unknown>
    1954: 1d 14        	<unknown>
    1956: 00 00        	<unknown>
    1958: 00 1f        	<unknown>
    195a: b0 09        	<unknown>
    195c: 00 00        	<unknown>
    195e: c0 09        	<unknown>
    1960: 00 00        	<unknown>
    1962: 04 92        	<unknown>
    1964: 1d 14        	<unknown>
    1966: 00 00        	<unknown>
    1968: 01 09        	<unknown>
    196a: 1d 14        	<unknown>
    196c: 00 00        	<unknown>
    196e: 09 1d        	<unknown>
    1970: 14 00        	<unknown>
    1972: 00 00        	<unknown>
    1974: 1f ca 09 00  	<unknown>
    1978: 00 d4        	<unknown>
    197a: 09 00        	<unknown>
    197c: 00 04        	<unknown>
    197e: 96 1d        	<unknown>
    1980: 14 00        	<unknown>
    1982: 00 01        	<unknown>
    1984: 09 1d        	<unknown>
    1986: 14 00        	<unknown>
    1988: 00 09        	<unknown>
    198a: 00 14        	<unknown>
    198c: 00 00        	<unknown>
    198e: 00 1f        	<unknown>
    1990: d8 09        	<unknown>
    1992: 00 00        	<unknown>
    1994: e8 09        	<unknown>
    1996: 00 00        	<unknown>
    1998: 04 98        	<unknown>
    199a: 1d 14        	<unknown>
    199c: 00 00        	<unknown>
    199e: 01 09        	<unknown>
    19a0: 1d 14        	<unknown>
    19a2: 00 00        	<unknown>
    19a4: 09 1d        	<unknown>
    19a6: 14 00        	<unknown>
    19a8: 00 00        	<unknown>
    19aa: 1f f2 09 00  	<unknown>
    19ae: 00 01        	<unknown>
    19b0: 0a 00        	<unknown>
    19b2: 00 04        	<unknown>
    19b4: 9a 1d        	<unknown>
    19b6: 14 00        	<unknown>
    19b8: 00 01        	<unknown>
    19ba: 09 1d        	<unknown>
    19bc: 14 00        	<unknown>
    19be: 00 09        	<unknown>
    19c0: 1d 14        	<unknown>
    19c2: 00 00        	<unknown>
    19c4: 09 77        	<unknown>
    19c6: 16 00        	<unknown>
    19c8: 00 00        	<unknown>
    19ca: 1f 08 0a 00  	<unknown>
    19ce: 00 fb        	<unknown>
    19d0: 08 00        	<unknown>
    19d2: 00 04        	<unknown>
    19d4: 9c 1d        	<unknown>
    19d6: 14 00        	<unknown>
    19d8: 00 01        	<unknown>
    19da: 09 1d        	<unknown>
    19dc: 14 00        	<unknown>
    19de: 00 00        	<unknown>
    19e0: 1f 12 0a 00  	<unknown>
    19e4: 00 6e        	<unknown>
    19e6: 09 00        	<unknown>
    19e8: 00 04        	<unknown>
    19ea: 9e 1d        	<unknown>
    19ec: 14 00        	<unknown>
    19ee: 00 01        	<unknown>
    19f0: 09 1d        	<unknown>
    19f2: 14 00        	<unknown>
    19f4: 00 00        	<unknown>
    19f6: 1f 1d 0a 00  	<unknown>
    19fa: 00 2b        	<unknown>
    19fc: 0a 00        	<unknown>
    19fe: 00 04        	<unknown>
    1a00: a0 1d        	<unknown>
    1a02: 14 00        	<unknown>
    1a04: 00 01        	<unknown>
    1a06: 09 1d        	<unknown>
    1a08: 14 00        	<unknown>
    1a0a: 00 09        	<unknown>
    1a0c: c4 17        	<unknown>
    1a0e: 00 00        	<unknown>
    1a10: 00 1f        	<unknown>
    1a12: 33 0a 00 00  	add	s4, zero, zero
    1a16: 40 0a        	<unknown>
    1a18: 00 00        	<unknown>
    1a1a: 04 a2        	<unknown>
    1a1c: 1d 14        	<unknown>
    1a1e: 00 00        	<unknown>
    1a20: 01 09        	<unknown>
    1a22: 1d 14        	<unknown>
    1a24: 00 00        	<unknown>
    1a26: 09 00        	<unknown>
    1a28: 14 00        	<unknown>
    1a2a: 00 00        	<unknown>
    1a2c: 1f 47 0a 00  	<unknown>
    1a30: 00 54        	<unknown>
    1a32: 0a 00        	<unknown>
    1a34: 00 04        	<unknown>
    1a36: a7 c3 16 00  	<unknown>
    1a3a: 00 01        	<unknown>
    1a3c: 09 1d        	<unknown>
    1a3e: 14 00        	<unknown>
    1a40: 00 00        	<unknown>
    1a42: 1f 5c 0a 00  	<unknown>
    1a46: 00 12        	<unknown>
    1a48: 06 00        	<unknown>
    1a4a: 00 04        	<unknown>
    1a4c: a9 1d        	<unknown>
    1a4e: 14 00        	<unknown>
    1a50: 00 01        	<unknown>
    1a52: 09 1d        	<unknown>
    1a54: 14 00        	<unknown>
    1a56: 00 00        	<unknown>
    1a58: 1f 65 0a 00  	<unknown>
    1a5c: 00 22        	<unknown>
    1a5e: 06 00        	<unknown>
    1a60: 00 04        	<unknown>
    1a62: ab 1d 14 00  	<unknown>
    1a66: 00 01        	<unknown>
    1a68: 09 1d        	<unknown>
    1a6a: 14 00        	<unknown>
    1a6c: 00 00        	<unknown>
    1a6e: 1f 6f 0a 00  	<unknown>
    1a72: 00 79        	<unknown>
    1a74: 0a 00        	<unknown>
    1a76: 00 04        	<unknown>
    1a78: ad 1d        	<unknown>
    1a7a: 14 00        	<unknown>
    1a7c: 00 01        	<unknown>
    1a7e: 09 1d        	<unknown>
    1a80: 14 00        	<unknown>
    1a82: 00 00        	<unknown>
    1a84: 1f 7e 0a 00  	<unknown>
    1a88: 00 32        	<unknown>
    1a8a: 06 00        	<unknown>
    1a8c: 00 04        	<unknown>
    1a8e: af 1d 14 00  	<unknown>
    1a92: 00 01        	<unknown>
    1a94: 09 1d        	<unknown>
    1a96: 14 00        	<unknown>
    1a98: 00 00        	<unknown>
    1a9a: 1f 87 0a 00  	<unknown>
    1a9e: 00 54        	<unknown>
    1aa0: 06 00        	<unknown>
    1aa2: 00 04        	<unknown>
    1aa4: b1 1d        	<unknown>
    1aa6: 14 00        	<unknown>
    1aa8: 00 01        	<unknown>
    1aaa: 09 1d        	<unknown>
    1aac: 14 00        	<unknown>
    1aae: 00 00        	<unknown>
    1ab0: 1f 91 0a 00  	<unknown>
    1ab4: 00 9d        	<unknown>
    1ab6: 0a 00        	<unknown>
    1ab8: 00 04        	<unknown>
    1aba: b3 1d 14 00  	sll	s11, s0, ra
    1abe: 00 01        	<unknown>
    1ac0: 09 1d        	<unknown>
    1ac2: 14 00        	<unknown>
    1ac4: 00 00        	<unknown>
    1ac6: 1f a4 0a 00  	<unknown>
    1aca: 00 af        	<unknown>
    1acc: 0a 00        	<unknown>
    1ace: 00 04        	<unknown>
    1ad0: b5 1d        	<unknown>
    1ad2: 14 00        	<unknown>
    1ad4: 00 01        	<unknown>
    1ad6: 09 1d        	<unknown>
    1ad8: 14 00        	<unknown>
    1ada: 00 00        	<unknown>
    1adc: 20 ee        	<unknown>
    1ade: 06 00        	<unknown>
    1ae0: 00 05        	<unknown>
    1ae2: 48 03        	<unknown>
    1ae4: 00 14        	<unknown>
    1ae6: 00 00        	<unknown>
    1ae8: 01 01        	<unknown>
    1aea: 09 00        	<unknown>
    1aec: 14 00        	<unknown>
    1aee: 00 00        	<unknown>
    1af0: 21 eb        	<unknown>
    1af2: 05 00        	<unknown>
    1af4: 00 07        	<unknown>
    1af6: 35 15        	<unknown>
    1af8: 19 00        	<unknown>
    1afa: 00 01        	<unknown>
    1afc: 01 09        	<unknown>
    1afe: 15 19        	<unknown>
    1b00: 00 00        	<unknown>
    1b02: 00 21        	<unknown>
    1b04: 11 06        	<unknown>
    1b06: 00 00        	<unknown>
    1b08: 07 37 15 19  	fld	fa4, 0x191(a0)
    1b0c: 00 00        	<unknown>
    1b0e: 01 01        	<unknown>
    1b10: 09 15        	<unknown>
    1b12: 19 00        	<unknown>
    1b14: 00 00        	<unknown>
    1b16: 21 31        	<unknown>
    1b18: 06 00        	<unknown>
    1b1a: 00 07        	<unknown>
    1b1c: 39 15        	<unknown>
    1b1e: 19 00        	<unknown>
    1b20: 00 01        	<unknown>
    1b22: 01 09        	<unknown>
    1b24: 15 19        	<unknown>
    1b26: 00 00        	<unknown>
    1b28: 00 21        	<unknown>
    1b2a: 42 06        	<unknown>
    1b2c: 00 00        	<unknown>
    1b2e: 07 3b 15 19  	fld	fs6, 0x191(a0)
    1b32: 00 00        	<unknown>
    1b34: 01 01        	<unknown>
    1b36: 09 15        	<unknown>
    1b38: 19 00        	<unknown>
    1b3a: 00 09        	<unknown>
    1b3c: 15 19        	<unknown>
    1b3e: 00 00        	<unknown>
    1b40: 00 21        	<unknown>
    1b42: 72 06        	<unknown>
    1b44: 00 00        	<unknown>
    1b46: 07 9f 15 19  	<unknown>
    1b4a: 00 00        	<unknown>
    1b4c: 01 01        	<unknown>
    1b4e: 09 15        	<unknown>
    1b50: 19 00        	<unknown>
    1b52: 00 00        	<unknown>
    1b54: 21 ec        	<unknown>
    1b56: 05 00        	<unknown>
    1b58: 00 07        	<unknown>
    1b5a: 3e 15        	<unknown>
    1b5c: 19 00        	<unknown>
    1b5e: 00 01        	<unknown>
    1b60: 01 09        	<unknown>
    1b62: 15 19        	<unknown>
    1b64: 00 00        	<unknown>
    1b66: 00 21        	<unknown>
    1b68: 02 06        	<unknown>
    1b6a: 00 00        	<unknown>
    1b6c: 07 47 15 19  	<unknown>
    1b70: 00 00        	<unknown>
    1b72: 01 01        	<unknown>
    1b74: 09 15        	<unknown>
    1b76: 19 00        	<unknown>
    1b78: 00 00        	<unknown>
    1b7a: 21 c5        	<unknown>
    1b7c: 08 00        	<unknown>
    1b7e: 00 07        	<unknown>
    1b80: 5f 15 19 00  	<unknown>
    1b84: 00 01        	<unknown>
    1b86: 01 09        	<unknown>
    1b88: 15 19        	<unknown>
    1b8a: 00 00        	<unknown>
    1b8c: 00 21        	<unknown>
    1b8e: ed 06        	<unknown>
    1b90: 00 00        	<unknown>
    1b92: 07 a2 15 19  	flw	ft4, 0x191(a1)
    1b96: 00 00        	<unknown>
    1b98: 01 01        	<unknown>
    1b9a: 09 15        	<unknown>
    1b9c: 19 00        	<unknown>
    1b9e: 00 00        	<unknown>
    1ba0: 21 0d        	<unknown>
    1ba2: 07 00 00 07  	<unknown>
    1ba6: a5 15        	<unknown>
    1ba8: 19 00        	<unknown>
    1baa: 00 01        	<unknown>
    1bac: 01 09        	<unknown>
    1bae: 15 19        	<unknown>
    1bb0: 00 00        	<unknown>
    1bb2: 00 21        	<unknown>
    1bb4: 4d 07        	<unknown>
    1bb6: 00 00        	<unknown>
    1bb8: 07 a8 15 19  	flw	fa6, 0x191(a1)
    1bbc: 00 00        	<unknown>
    1bbe: 01 01        	<unknown>
    1bc0: 09 15        	<unknown>
    1bc2: 19 00        	<unknown>
    1bc4: 00 09        	<unknown>
    1bc6: 15 19        	<unknown>
    1bc8: 00 00        	<unknown>
    1bca: 00 21        	<unknown>
    1bcc: 7b 07 00 00  	<unknown>
    1bd0: 07 62 15 19  	<unknown>
    1bd4: 00 00        	<unknown>
    1bd6: 01 01        	<unknown>
    1bd8: 09 15        	<unknown>
    1bda: 19 00        	<unknown>
    1bdc: 00 09        	<unknown>
    1bde: 77 16 00 00  	<unknown>
    1be2: 00 21        	<unknown>
    1be4: c3 08 00 00  	fmadd.s	fa7, ft0, ft0, ft0, rne
    1be8: 07 65 15 19  	<unknown>
    1bec: 00 00        	<unknown>
    1bee: 01 01        	<unknown>
    1bf0: 09 15        	<unknown>
    1bf2: 19 00        	<unknown>
    1bf4: 00 09        	<unknown>
    1bf6: 00 14        	<unknown>
    1bf8: 00 00        	<unknown>
    1bfa: 00 21        	<unknown>
    1bfc: 09 09        	<unknown>
    1bfe: 00 00        	<unknown>
    1c00: 07 68 15 19  	<unknown>
    1c04: 00 00        	<unknown>
    1c06: 01 01        	<unknown>
    1c08: 09 15        	<unknown>
    1c0a: 19 00        	<unknown>
    1c0c: 00 00        	<unknown>
    1c0e: 21 18        	<unknown>
    1c10: 09 00        	<unknown>
    1c12: 00 07        	<unknown>
    1c14: 6b 15 19 00  	<unknown>
    1c18: 00 01        	<unknown>
    1c1a: 01 09        	<unknown>
    1c1c: 15 19        	<unknown>
    1c1e: 00 00        	<unknown>
    1c20: 00 21        	<unknown>
    1c22: 7a 0e        	<unknown>
    1c24: 00 00        	<unknown>
    1c26: 07 6e 15 19  	<unknown>
    1c2a: 00 00        	<unknown>
    1c2c: 01 01        	<unknown>
    1c2e: 09 15        	<unknown>
    1c30: 19 00        	<unknown>
    1c32: 00 09        	<unknown>
    1c34: 39 1c        	<unknown>
    1c36: 00 00        	<unknown>
    1c38: 00 0e        	<unknown>
    1c3a: 15 19        	<unknown>
    1c3c: 00 00        	<unknown>
    1c3e: 21 d4        	<unknown>
    1c40: 09 00        	<unknown>
    1c42: 00 07        	<unknown>
    1c44: 8c 15        	<unknown>
    1c46: 19 00        	<unknown>
    1c48: 00 01        	<unknown>
    1c4a: 01 09        	<unknown>
    1c4c: 15 19        	<unknown>
    1c4e: 00 00        	<unknown>
    1c50: 09 15        	<unknown>
    1c52: 19 00        	<unknown>
    1c54: 00 00        	<unknown>
    1c56: 21 12        	<unknown>
    1c58: 06 00        	<unknown>
    1c5a: 00 07        	<unknown>
    1c5c: 40 15        	<unknown>
    1c5e: 19 00        	<unknown>
    1c60: 00 01        	<unknown>
    1c62: 01 09        	<unknown>
    1c64: 15 19        	<unknown>
    1c66: 00 00        	<unknown>
    1c68: 00 21        	<unknown>
    1c6a: 22 06        	<unknown>
    1c6c: 00 00        	<unknown>
    1c6e: 07 49 15 19  	<unknown>
    1c72: 00 00        	<unknown>
    1c74: 01 01        	<unknown>
    1c76: 09 15        	<unknown>
    1c78: 19 00        	<unknown>
    1c7a: 00 00        	<unknown>
    1c7c: 21 79        	<unknown>
    1c7e: 0a 00        	<unknown>
    1c80: 00 07        	<unknown>
    1c82: 8f 15 19 00  	<unknown>
    1c86: 00 01        	<unknown>
    1c88: 01 09        	<unknown>
    1c8a: 15 19        	<unknown>
    1c8c: 00 00        	<unknown>
    1c8e: 00 21        	<unknown>
    1c90: 32 06        	<unknown>
    1c92: 00 00        	<unknown>
    1c94: 07 42 15 19  	<unknown>
    1c98: 00 00        	<unknown>
    1c9a: 01 01        	<unknown>
    1c9c: 09 15        	<unknown>
    1c9e: 19 00        	<unknown>
    1ca0: 00 00        	<unknown>
    1ca2: 21 54        	<unknown>
    1ca4: 06 00        	<unknown>
    1ca6: 00 07        	<unknown>
    1ca8: 4b 15 19 00  	fnmsub.s	fa0, fs2, ft1, ft0, rtz
    1cac: 00 01        	<unknown>
    1cae: 01 09        	<unknown>
    1cb0: 15 19        	<unknown>
    1cb2: 00 00        	<unknown>
    1cb4: 00 0a        	<unknown>
    1cb6: 15 19        	<unknown>
    1cb8: 00 00        	<unknown>
    1cba: b5 0a        	<unknown>
    1cbc: 00 00        	<unknown>
    1cbe: 09 96        	<unknown>
    1cc0: 0a 1d        	<unknown>
    1cc2: 14 00        	<unknown>
    1cc4: 00 be        	<unknown>
    1cc6: 0a 00        	<unknown>
    1cc8: 00 09        	<unknown>
    1cca: 95 21        	<unknown>
    1ccc: 01 06        	<unknown>
    1cce: 00 00        	<unknown>
    1cd0: 07 55 15 19  	<unknown>
    1cd4: 00 00        	<unknown>
    1cd6: 01 01        	<unknown>
    1cd8: 09 15        	<unknown>
    1cda: 19 00        	<unknown>
    1cdc: 00 00        	<unknown>
    1cde: 21 fa        	<unknown>
    1ce0: 05 00        	<unknown>
    1ce2: 00 07        	<unknown>
    1ce4: 55 1d        	<unknown>
    1ce6: 14 00        	<unknown>
    1ce8: 00 01        	<unknown>
    1cea: 01 09        	<unknown>
    1cec: 1d 14        	<unknown>
    1cee: 00 00        	<unknown>
    1cf0: 00 21        	<unknown>
    1cf2: c6 0a        	<unknown>
    1cf4: 00 00        	<unknown>
    1cf6: 07 55 04 1d  	<unknown>
    1cfa: 00 00        	<unknown>
    1cfc: 01 01        	<unknown>
    1cfe: 09 04        	<unknown>
    1d00: 1d 00        	<unknown>
    1d02: 00 00        	<unknown>
    1d04: 0d cd        	<unknown>
    1d06: 0a 00        	<unknown>
    1d08: 00 04        	<unknown>
    1d0a: 08 21        	<unknown>
    1d0c: 21 06        	<unknown>
    1d0e: 00 00        	<unknown>
    1d10: 07 57 15 19  	<unknown>
    1d14: 00 00        	<unknown>
    1d16: 01 01        	<unknown>
    1d18: 09 15        	<unknown>
    1d1a: 19 00        	<unknown>
    1d1c: 00 00        	<unknown>
    1d1e: 21 1a        	<unknown>
    1d20: 06 00        	<unknown>
    1d22: 00 07        	<unknown>
    1d24: 57 1d 14 00  	<unknown>
    1d28: 00 01        	<unknown>
    1d2a: 01 09        	<unknown>
    1d2c: 1d 14        	<unknown>
    1d2e: 00 00        	<unknown>
    1d30: 00 21        	<unknown>
    1d32: d9 0a        	<unknown>
    1d34: 00 00        	<unknown>
    1d36: 07 57 04 1d  	<unknown>
    1d3a: 00 00        	<unknown>
    1d3c: 01 01        	<unknown>
    1d3e: 09 04        	<unknown>
    1d40: 1d 00        	<unknown>
    1d42: 00 00        	<unknown>
    1d44: 21 53        	<unknown>
    1d46: 06 00        	<unknown>
    1d48: 00 07        	<unknown>
    1d4a: 59 15        	<unknown>
    1d4c: 19 00        	<unknown>
    1d4e: 00 01        	<unknown>
    1d50: 01 09        	<unknown>
    1d52: 15 19        	<unknown>
    1d54: 00 00        	<unknown>
    1d56: 00 21        	<unknown>
    1d58: 4c 06        	<unknown>
    1d5a: 00 00        	<unknown>
    1d5c: 07 59 1d 14  	<unknown>
    1d60: 00 00        	<unknown>
    1d62: 01 01        	<unknown>
    1d64: 09 1d        	<unknown>
    1d66: 14 00        	<unknown>
    1d68: 00 00        	<unknown>
    1d6a: 21 e0        	<unknown>
    1d6c: 0a 00        	<unknown>
    1d6e: 00 07        	<unknown>
    1d70: 59 04        	<unknown>
    1d72: 1d 00        	<unknown>
    1d74: 00 01        	<unknown>
    1d76: 01 09        	<unknown>
    1d78: 04 1d        	<unknown>
    1d7a: 00 00        	<unknown>
    1d7c: 00 21        	<unknown>
    1d7e: 63 06 00 00  	beqz	zero, 0x1d8a <.debug_info+0x1d8a>
    1d82: 07 98 15 19  	<unknown>
    1d86: 00 00        	<unknown>
    1d88: 01 01        	<unknown>
    1d8a: 09 15        	<unknown>
    1d8c: 19 00        	<unknown>
    1d8e: 00 00        	<unknown>
    1d90: 21 5d        	<unknown>
    1d92: 06 00        	<unknown>
    1d94: 00 07        	<unknown>
    1d96: 98 1d        	<unknown>
    1d98: 14 00        	<unknown>
    1d9a: 00 01        	<unknown>
    1d9c: 01 09        	<unknown>
    1d9e: 1d 14        	<unknown>
    1da0: 00 00        	<unknown>
    1da2: 00 21        	<unknown>
    1da4: e7 0a 00 00  	jalr	s5, zero <.debug_info>
    1da8: 07 98 04 1d  	<unknown>
    1dac: 00 00        	<unknown>
    1dae: 01 01        	<unknown>
    1db0: 09 04        	<unknown>
    1db2: 1d 00        	<unknown>
    1db4: 00 00        	<unknown>
    1db6: 21 86        	<unknown>
    1db8: 06 00        	<unknown>
    1dba: 00 07        	<unknown>
    1dbc: c4 15        	<unknown>
    1dbe: 19 00        	<unknown>
    1dc0: 00 01        	<unknown>
    1dc2: 01 09        	<unknown>
    1dc4: 15 19        	<unknown>
    1dc6: 00 00        	<unknown>
    1dc8: 09 15        	<unknown>
    1dca: 19 00        	<unknown>
    1dcc: 00 00        	<unknown>
    1dce: 21 ed        	<unknown>
    1dd0: 0a 00        	<unknown>
    1dd2: 00 07        	<unknown>
    1dd4: c4 1d        	<unknown>
    1dd6: 14 00        	<unknown>
    1dd8: 00 01        	<unknown>
    1dda: 01 09        	<unknown>
    1ddc: 1d 14        	<unknown>
    1dde: 00 00        	<unknown>
    1de0: 09 1d        	<unknown>
    1de2: 14 00        	<unknown>
    1de4: 00 00        	<unknown>
    1de6: 21 f7        	<unknown>
    1de8: 0a 00        	<unknown>
    1dea: 00 07        	<unknown>
    1dec: c4 04        	<unknown>
    1dee: 1d 00        	<unknown>
    1df0: 00 01        	<unknown>
    1df2: 01 09        	<unknown>
    1df4: 04 1d        	<unknown>
    1df6: 00 00        	<unknown>
    1df8: 09 04        	<unknown>
    1dfa: 1d 00        	<unknown>
    1dfc: 00 00        	<unknown>
    1dfe: 21 d2        	<unknown>
    1e00: 0b 00 00 07  	<unknown>
    1e04: e4 15        	<unknown>
    1e06: 19 00        	<unknown>
    1e08: 00 01        	<unknown>
    1e0a: 01 09        	<unknown>
    1e0c: 15 19        	<unknown>
    1e0e: 00 00        	<unknown>
    1e10: 00 21        	<unknown>
    1e12: a6 06        	<unknown>
    1e14: 00 00        	<unknown>
    1e16: 07 e4 1d 14  	<unknown>
    1e1a: 00 00        	<unknown>
    1e1c: 01 01        	<unknown>
    1e1e: 09 1d        	<unknown>
    1e20: 14 00        	<unknown>
    1e22: 00 00        	<unknown>
    1e24: 21 01        	<unknown>
    1e26: 0b 00 00 07  	<unknown>
    1e2a: e4 04        	<unknown>
    1e2c: 1d 00        	<unknown>
    1e2e: 00 01        	<unknown>
    1e30: 01 09        	<unknown>
    1e32: 04 1d        	<unknown>
    1e34: 00 00        	<unknown>
    1e36: 00 21        	<unknown>
    1e38: b5 06        	<unknown>
    1e3a: 00 00        	<unknown>
    1e3c: 07 e5 15 19  	<unknown>
    1e40: 00 00        	<unknown>
    1e42: 01 01        	<unknown>
    1e44: 09 15        	<unknown>
    1e46: 19 00        	<unknown>
    1e48: 00 00        	<unknown>
    1e4a: 21 af        	<unknown>
    1e4c: 06 00        	<unknown>
    1e4e: 00 07        	<unknown>
    1e50: e5 1d        	<unknown>
    1e52: 14 00        	<unknown>
    1e54: 00 01        	<unknown>
    1e56: 01 09        	<unknown>
    1e58: 1d 14        	<unknown>
    1e5a: 00 00        	<unknown>
    1e5c: 00 21        	<unknown>
    1e5e: 06 0b        	<unknown>
    1e60: 00 00        	<unknown>
    1e62: 07 e5 04 1d  	<unknown>
    1e66: 00 00        	<unknown>
    1e68: 01 01        	<unknown>
    1e6a: 09 04        	<unknown>
    1e6c: 1d 00        	<unknown>
    1e6e: 00 00        	<unknown>
    1e70: 21 cd        	<unknown>
    1e72: 06 00        	<unknown>
    1e74: 00 07        	<unknown>
    1e76: 82 15        	<unknown>
    1e78: 19 00        	<unknown>
    1e7a: 00 01        	<unknown>
    1e7c: 01 09        	<unknown>
    1e7e: 15 19        	<unknown>
    1e80: 00 00        	<unknown>
    1e82: 00 21        	<unknown>
    1e84: c7 06 00 00  	fmsub.s	fa3, ft0, ft0, ft0, rne
    1e88: 07 82 1d 14  	<unknown>
    1e8c: 00 00        	<unknown>
    1e8e: 01 01        	<unknown>
    1e90: 09 1d        	<unknown>
    1e92: 14 00        	<unknown>
    1e94: 00 00        	<unknown>
    1e96: 21 0c        	<unknown>
    1e98: 0b 00 00 07  	<unknown>
    1e9c: 82 04        	<unknown>
    1e9e: 1d 00        	<unknown>
    1ea0: 00 01        	<unknown>
    1ea2: 01 09        	<unknown>
    1ea4: 04 1d        	<unknown>
    1ea6: 00 00        	<unknown>
    1ea8: 00 21        	<unknown>
    1eaa: dd 06        	<unknown>
    1eac: 00 00        	<unknown>
    1eae: 07 77 15 19  	<unknown>
    1eb2: 00 00        	<unknown>
    1eb4: 01 01        	<unknown>
    1eb6: 09 15        	<unknown>
    1eb8: 19 00        	<unknown>
    1eba: 00 00        	<unknown>
    1ebc: 21 d6        	<unknown>
    1ebe: 06 00        	<unknown>
    1ec0: 00 07        	<unknown>
    1ec2: 77 1d 14 00  	<unknown>
    1ec6: 00 01        	<unknown>
    1ec8: 01 09        	<unknown>
    1eca: 1d 14        	<unknown>
    1ecc: 00 00        	<unknown>
    1ece: 00 21        	<unknown>
    1ed0: 12 0b        	<unknown>
    1ed2: 00 00        	<unknown>
    1ed4: 07 77 04 1d  	<unknown>
    1ed8: 00 00        	<unknown>
    1eda: 01 01        	<unknown>
    1edc: 09 04        	<unknown>
    1ede: 1d 00        	<unknown>
    1ee0: 00 00        	<unknown>
    1ee2: 20 fd        	<unknown>
    1ee4: 06 00        	<unknown>
    1ee6: 00 07        	<unknown>
    1ee8: 46 01        	<unknown>
    1eea: 15 19        	<unknown>
    1eec: 00 00        	<unknown>
    1eee: 01 01        	<unknown>
    1ef0: 09 15        	<unknown>
    1ef2: 19 00        	<unknown>
    1ef4: 00 09        	<unknown>
    1ef6: 15 19        	<unknown>
    1ef8: 00 00        	<unknown>
    1efa: 00 20        	<unknown>
    1efc: 19 0b        	<unknown>
    1efe: 00 00        	<unknown>
    1f00: 07 46 01 1d  	<unknown>
    1f04: 14 00        	<unknown>
    1f06: 00 01        	<unknown>
    1f08: 01 09        	<unknown>
    1f0a: 1d 14        	<unknown>
    1f0c: 00 00        	<unknown>
    1f0e: 09 1d        	<unknown>
    1f10: 14 00        	<unknown>
    1f12: 00 00        	<unknown>
    1f14: 20 1f        	<unknown>
    1f16: 0b 00 00 07  	<unknown>
    1f1a: 46 01        	<unknown>
    1f1c: 04 1d        	<unknown>
    1f1e: 00 00        	<unknown>
    1f20: 01 01        	<unknown>
    1f22: 09 04        	<unknown>
    1f24: 1d 00        	<unknown>
    1f26: 00 09        	<unknown>
    1f28: 04 1d        	<unknown>
    1f2a: 00 00        	<unknown>
    1f2c: 00 20        	<unknown>
    1f2e: 1e 07        	<unknown>
    1f30: 00 00        	<unknown>
    1f32: 07 4f 01 15  	<unknown>
    1f36: 19 00        	<unknown>
    1f38: 00 01        	<unknown>
    1f3a: 01 09        	<unknown>
    1f3c: 15 19        	<unknown>
    1f3e: 00 00        	<unknown>
    1f40: 09 15        	<unknown>
    1f42: 19 00        	<unknown>
    1f44: 00 09        	<unknown>
    1f46: 15 19        	<unknown>
    1f48: 00 00        	<unknown>
    1f4a: 00 20        	<unknown>
    1f4c: 25 0b        	<unknown>
    1f4e: 00 00        	<unknown>
    1f50: 07 4f 01 1d  	<unknown>
    1f54: 14 00        	<unknown>
    1f56: 00 01        	<unknown>
    1f58: 01 09        	<unknown>
    1f5a: 1d 14        	<unknown>
    1f5c: 00 00        	<unknown>
    1f5e: 09 1d        	<unknown>
    1f60: 14 00        	<unknown>
    1f62: 00 09        	<unknown>
    1f64: 1d 14        	<unknown>
    1f66: 00 00        	<unknown>
    1f68: 00 20        	<unknown>
    1f6a: 2a 0b        	<unknown>
    1f6c: 00 00        	<unknown>
    1f6e: 07 4f 01 04  	<unknown>
    1f72: 1d 00        	<unknown>
    1f74: 00 01        	<unknown>
    1f76: 01 09        	<unknown>
    1f78: 04 1d        	<unknown>
    1f7a: 00 00        	<unknown>
    1f7c: 09 04        	<unknown>
    1f7e: 1d 00        	<unknown>
    1f80: 00 09        	<unknown>
    1f82: 04 1d        	<unknown>
    1f84: 00 00        	<unknown>
    1f86: 00 20        	<unknown>
    1f88: 2d 07        	<unknown>
    1f8a: 00 00        	<unknown>
    1f8c: 07 49 01 15  	<unknown>
    1f90: 19 00        	<unknown>
    1f92: 00 01        	<unknown>
    1f94: 01 09        	<unknown>
    1f96: 15 19        	<unknown>
    1f98: 00 00        	<unknown>
    1f9a: 09 15        	<unknown>
    1f9c: 19 00        	<unknown>
    1f9e: 00 00        	<unknown>
    1fa0: 20 2f        	<unknown>
    1fa2: 0b 00 00 07  	<unknown>
    1fa6: 49 01        	<unknown>
    1fa8: 1d 14        	<unknown>
    1faa: 00 00        	<unknown>
    1fac: 01 01        	<unknown>
    1fae: 09 1d        	<unknown>
    1fb0: 14 00        	<unknown>
    1fb2: 00 09        	<unknown>
    1fb4: 1d 14        	<unknown>
    1fb6: 00 00        	<unknown>
    1fb8: 00 20        	<unknown>
    1fba: 35 0b        	<unknown>
    1fbc: 00 00        	<unknown>
    1fbe: 07 49 01 04  	<unknown>
    1fc2: 1d 00        	<unknown>
    1fc4: 00 01        	<unknown>
    1fc6: 01 09        	<unknown>
    1fc8: 04 1d        	<unknown>
    1fca: 00 00        	<unknown>
    1fcc: 09 04        	<unknown>
    1fce: 1d 00        	<unknown>
    1fd0: 00 00        	<unknown>
    1fd2: 20 3d        	<unknown>
    1fd4: 07 00 00 07  	<unknown>
    1fd8: 4c 01        	<unknown>
    1fda: 15 19        	<unknown>
    1fdc: 00 00        	<unknown>
    1fde: 01 01        	<unknown>
    1fe0: 09 15        	<unknown>
    1fe2: 19 00        	<unknown>
    1fe4: 00 09        	<unknown>
    1fe6: 15 19        	<unknown>
    1fe8: 00 00        	<unknown>
    1fea: 00 20        	<unknown>
    1fec: 3b 0b 00 00  	addw	s6, zero, zero
    1ff0: 07 4c 01 1d  	<unknown>
    1ff4: 14 00        	<unknown>
    1ff6: 00 01        	<unknown>
    1ff8: 01 09        	<unknown>
    1ffa: 1d 14        	<unknown>
    1ffc: 00 00        	<unknown>
    1ffe: 09 1d        	<unknown>
    2000: 14 00        	<unknown>
    2002: 00 00        	<unknown>
    2004: 20 41        	<unknown>
    2006: 0b 00 00 07  	<unknown>
    200a: 4c 01        	<unknown>
    200c: 04 1d        	<unknown>
    200e: 00 00        	<unknown>
    2010: 01 01        	<unknown>
    2012: 09 04        	<unknown>
    2014: 1d 00        	<unknown>
    2016: 00 09        	<unknown>
    2018: 04 1d        	<unknown>
    201a: 00 00        	<unknown>
    201c: 00 21        	<unknown>
    201e: 8d 07        	<unknown>
    2020: 00 00        	<unknown>
    2022: 07 93 15 19  	<unknown>
    2026: 00 00        	<unknown>
    2028: 01 01        	<unknown>
    202a: 09 15        	<unknown>
    202c: 19 00        	<unknown>
    202e: 00 09        	<unknown>
    2030: 15 19        	<unknown>
    2032: 00 00        	<unknown>
    2034: 00 21        	<unknown>
    2036: 47 0b 00 00  	fmsub.s	fs6, ft0, ft0, ft0, rne
    203a: 07 93 1d 14  	<unknown>
    203e: 00 00        	<unknown>
    2040: 01 01        	<unknown>
    2042: 09 1d        	<unknown>
    2044: 14 00        	<unknown>
    2046: 00 09        	<unknown>
    2048: 1d 14        	<unknown>
    204a: 00 00        	<unknown>
    204c: 00 21        	<unknown>
    204e: 4e 0b        	<unknown>
    2050: 00 00        	<unknown>
    2052: 07 93 04 1d  	<unknown>
    2056: 00 00        	<unknown>
    2058: 01 01        	<unknown>
    205a: 09 04        	<unknown>
    205c: 1d 00        	<unknown>
    205e: 00 09        	<unknown>
    2060: 04 1d        	<unknown>
    2062: 00 00        	<unknown>
    2064: 00 20        	<unknown>
    2066: 9e 07        	<unknown>
    2068: 00 00        	<unknown>
    206a: 07 18 01 00  	<unknown>
    206e: 14 00        	<unknown>
    2070: 00 01        	<unknown>
    2072: 01 09        	<unknown>
    2074: 15 19        	<unknown>
    2076: 00 00        	<unknown>
    2078: 00 20        	<unknown>
    207a: 97 07 00 00  	auipc	a5, 0x0
    207e: 07 18 01 00  	<unknown>
    2082: 14 00        	<unknown>
    2084: 00 01        	<unknown>
    2086: 01 09        	<unknown>
    2088: 1d 14        	<unknown>
    208a: 00 00        	<unknown>
    208c: 00 20        	<unknown>
    208e: 55 0b        	<unknown>
    2090: 00 00        	<unknown>
    2092: 07 18 01 00  	<unknown>
    2096: 14 00        	<unknown>
    2098: 00 01        	<unknown>
    209a: 01 09        	<unknown>
    209c: 04 1d        	<unknown>
    209e: 00 00        	<unknown>
    20a0: 00 21        	<unknown>
    20a2: d5 08        	<unknown>
    20a4: 00 00        	<unknown>
    20a6: 07 e6 15 19  	<unknown>
    20aa: 00 00        	<unknown>
    20ac: 01 01        	<unknown>
    20ae: 09 15        	<unknown>
    20b0: 19 00        	<unknown>
    20b2: 00 00        	<unknown>
    20b4: 21 cd        	<unknown>
    20b6: 08 00        	<unknown>
    20b8: 00 07        	<unknown>
    20ba: e6 1d        	<unknown>
    20bc: 14 00        	<unknown>
    20be: 00 01        	<unknown>
    20c0: 01 09        	<unknown>
    20c2: 1d 14        	<unknown>
    20c4: 00 00        	<unknown>
    20c6: 00 21        	<unknown>
    20c8: 5c 0b        	<unknown>
    20ca: 00 00        	<unknown>
    20cc: 07 e6 04 1d  	<unknown>
    20d0: 00 00        	<unknown>
    20d2: 01 01        	<unknown>
    20d4: 09 04        	<unknown>
    20d6: 1d 00        	<unknown>
    20d8: 00 00        	<unknown>
    20da: 20 f9        	<unknown>
    20dc: 08 00        	<unknown>
    20de: 00 07        	<unknown>
    20e0: 3c 01        	<unknown>
    20e2: 12 18        	<unknown>
    20e4: 00 00        	<unknown>
    20e6: 01 01        	<unknown>
    20e8: 09 15        	<unknown>
    20ea: 19 00        	<unknown>
    20ec: 00 00        	<unknown>
    20ee: 20 f1        	<unknown>
    20f0: 08 00        	<unknown>
    20f2: 00 07        	<unknown>
    20f4: 3c 01        	<unknown>
    20f6: 12 18        	<unknown>
    20f8: 00 00        	<unknown>
    20fa: 01 01        	<unknown>
    20fc: 09 1d        	<unknown>
    20fe: 14 00        	<unknown>
    2100: 00 00        	<unknown>
    2102: 20 64        	<unknown>
    2104: 0b 00 00 07  	<unknown>
    2108: 3c 01        	<unknown>
    210a: 12 18        	<unknown>
    210c: 00 00        	<unknown>
    210e: 01 01        	<unknown>
    2110: 09 04        	<unknown>
    2112: 1d 00        	<unknown>
    2114: 00 00        	<unknown>
    2116: 20 6c        	<unknown>
    2118: 09 00        	<unknown>
    211a: 00 07        	<unknown>
    211c: 42 01        	<unknown>
    211e: 12 18        	<unknown>
    2120: 00 00        	<unknown>
    2122: 01 01        	<unknown>
    2124: 09 15        	<unknown>
    2126: 19 00        	<unknown>
    2128: 00 00        	<unknown>
    212a: 20 63        	<unknown>
    212c: 09 00        	<unknown>
    212e: 00 07        	<unknown>
    2130: 42 01        	<unknown>
    2132: 12 18        	<unknown>
    2134: 00 00        	<unknown>
    2136: 01 01        	<unknown>
    2138: 09 1d        	<unknown>
    213a: 14 00        	<unknown>
    213c: 00 00        	<unknown>
    213e: 20 6c        	<unknown>
    2140: 0b 00 00 07  	<unknown>
    2144: 42 01        	<unknown>
    2146: 12 18        	<unknown>
    2148: 00 00        	<unknown>
    214a: 01 01        	<unknown>
    214c: 09 04        	<unknown>
    214e: 1d 00        	<unknown>
    2150: 00 00        	<unknown>
    2152: 21 29        	<unknown>
    2154: 09 00        	<unknown>
    2156: 00 07        	<unknown>
    2158: 7a 15        	<unknown>
    215a: 19 00        	<unknown>
    215c: 00 01        	<unknown>
    215e: 01 09        	<unknown>
    2160: 15 19        	<unknown>
    2162: 00 00        	<unknown>
    2164: 00 21        	<unknown>
    2166: 22 09        	<unknown>
    2168: 00 00        	<unknown>
    216a: 07 7a 1d 14  	<unknown>
    216e: 00 00        	<unknown>
    2170: 01 01        	<unknown>
    2172: 09 1d        	<unknown>
    2174: 14 00        	<unknown>
    2176: 00 00        	<unknown>
    2178: 21 75        	<unknown>
    217a: 0b 00 00 07  	<unknown>
    217e: 7a 04        	<unknown>
    2180: 1d 00        	<unknown>
    2182: 00 01        	<unknown>
    2184: 01 09        	<unknown>
    2186: 04 1d        	<unknown>
    2188: 00 00        	<unknown>
    218a: 00 21        	<unknown>
    218c: 39 09        	<unknown>
    218e: 00 00        	<unknown>
    2190: 07 85 15 19  	<unknown>
    2194: 00 00        	<unknown>
    2196: 01 01        	<unknown>
    2198: 09 15        	<unknown>
    219a: 19 00        	<unknown>
    219c: 00 00        	<unknown>
    219e: 21 33        	<unknown>
    21a0: 09 00        	<unknown>
    21a2: 00 07        	<unknown>
    21a4: 85 1d        	<unknown>
    21a6: 14 00        	<unknown>
    21a8: 00 01        	<unknown>
    21aa: 01 09        	<unknown>
    21ac: 1d 14        	<unknown>
    21ae: 00 00        	<unknown>
    21b0: 00 21        	<unknown>
    21b2: 7c 0b        	<unknown>
    21b4: 00 00        	<unknown>
    21b6: 07 85 04 1d  	<unknown>
    21ba: 00 00        	<unknown>
    21bc: 01 01        	<unknown>
    21be: 09 04        	<unknown>
    21c0: 1d 00        	<unknown>
    21c2: 00 00        	<unknown>
    21c4: 21 9f        	<unknown>
    21c6: 07 00 00 07  	<unknown>
    21ca: 7d 15        	<unknown>
    21cc: 19 00        	<unknown>
    21ce: 00 01        	<unknown>
    21d0: 01 09        	<unknown>
    21d2: 15 19        	<unknown>
    21d4: 00 00        	<unknown>
    21d6: 00 21        	<unknown>
    21d8: 42 09        	<unknown>
    21da: 00 00        	<unknown>
    21dc: 07 7d 1d 14  	<unknown>
    21e0: 00 00        	<unknown>
    21e2: 01 01        	<unknown>
    21e4: 09 1d        	<unknown>
    21e6: 14 00        	<unknown>
    21e8: 00 00        	<unknown>
    21ea: 21 56        	<unknown>
    21ec: 0b 00 00 07  	<unknown>
    21f0: 7d 04        	<unknown>
    21f2: 1d 00        	<unknown>
    21f4: 00 01        	<unknown>
    21f6: 01 09        	<unknown>
    21f8: 04 1d        	<unknown>
    21fa: 00 00        	<unknown>
    21fc: 00 20        	<unknown>
    21fe: fa 08        	<unknown>
    2200: 00 00        	<unknown>
    2202: 07 3a 01 c4  	fld	fs4, -0x3c0(sp)
    2206: 17 00 00 01  	auipc	zero, 0x1000
    220a: 01 09        	<unknown>
    220c: 15 19        	<unknown>
    220e: 00 00        	<unknown>
    2210: 00 20        	<unknown>
    2212: 4c 09        	<unknown>
    2214: 00 00        	<unknown>
    2216: 07 3a 01 c4  	fld	fs4, -0x3c0(sp)
    221a: 17 00 00 01  	auipc	zero, 0x1000
    221e: 01 09        	<unknown>
    2220: 1d 14        	<unknown>
    2222: 00 00        	<unknown>
    2224: 00 20        	<unknown>
    2226: 65 0b        	<unknown>
    2228: 00 00        	<unknown>
    222a: 07 3a 01 c4  	fld	fs4, -0x3c0(sp)
    222e: 17 00 00 01  	auipc	zero, 0x1000
    2232: 01 09        	<unknown>
    2234: 04 1d        	<unknown>
    2236: 00 00        	<unknown>
    2238: 00 20        	<unknown>
    223a: 6d 09        	<unknown>
    223c: 00 00        	<unknown>
    223e: 07 40 01 c4  	<unknown>
    2242: 17 00 00 01  	auipc	zero, 0x1000
    2246: 01 09        	<unknown>
    2248: 15 19        	<unknown>
    224a: 00 00        	<unknown>
    224c: 00 20        	<unknown>
    224e: 57 09 00 00  	<unknown>
    2252: 07 40 01 c4  	<unknown>
    2256: 17 00 00 01  	auipc	zero, 0x1000
    225a: 01 09        	<unknown>
    225c: 1d 14        	<unknown>
    225e: 00 00        	<unknown>
    2260: 00 20        	<unknown>
    2262: 6d 0b        	<unknown>
    2264: 00 00        	<unknown>
    2266: 07 40 01 c4  	<unknown>
    226a: 17 00 00 01  	auipc	zero, 0x1000
    226e: 01 09        	<unknown>
    2270: 04 1d        	<unknown>
    2272: 00 00        	<unknown>
    2274: 00 21        	<unknown>
    2276: 73 08 00 00  	<unknown>
    227a: 07 c9 15 19  	<unknown>
    227e: 00 00        	<unknown>
    2280: 01 01        	<unknown>
    2282: 09 1c        	<unknown>
    2284: 19 00        	<unknown>
    2286: 00 00        	<unknown>
    2288: 21 6c        	<unknown>
    228a: 08 00        	<unknown>
    228c: 00 07        	<unknown>
    228e: c9 1d        	<unknown>
    2290: 14 00        	<unknown>
    2292: 00 01        	<unknown>
    2294: 01 09        	<unknown>
    2296: 1c 19        	<unknown>
    2298: 00 00        	<unknown>
    229a: 00 21        	<unknown>
    229c: 82 0b        	<unknown>
    229e: 00 00        	<unknown>
    22a0: 07 c9 04 1d  	<unknown>
    22a4: 00 00        	<unknown>
    22a6: 01 01        	<unknown>
    22a8: 09 1c        	<unknown>
    22aa: 19 00        	<unknown>
    22ac: 00 00        	<unknown>
    22ae: 20 a6        	<unknown>
    22b0: 09 00        	<unknown>
    22b2: 00 07        	<unknown>
    22b4: 26 01        	<unknown>
    22b6: 15 19        	<unknown>
    22b8: 00 00        	<unknown>
    22ba: 01 01        	<unknown>
    22bc: 09 15        	<unknown>
    22be: 19 00        	<unknown>
    22c0: 00 00        	<unknown>
    22c2: 20 9b        	<unknown>
    22c4: 09 00        	<unknown>
    22c6: 00 07        	<unknown>
    22c8: 26 01        	<unknown>
    22ca: 1d 14        	<unknown>
    22cc: 00 00        	<unknown>
    22ce: 01 01        	<unknown>
    22d0: 09 1d        	<unknown>
    22d2: 14 00        	<unknown>
    22d4: 00 00        	<unknown>
    22d6: 20 87        	<unknown>
    22d8: 0b 00 00 07  	<unknown>
    22dc: 26 01        	<unknown>
    22de: 04 1d        	<unknown>
    22e0: 00 00        	<unknown>
    22e2: 01 01        	<unknown>
    22e4: 09 04        	<unknown>
    22e6: 1d 00        	<unknown>
    22e8: 00 00        	<unknown>
    22ea: 20 c0        	<unknown>
    22ec: 09 00        	<unknown>
    22ee: 00 07        	<unknown>
    22f0: 03 01 15 19  	lb	sp, 0x191(a0)
    22f4: 00 00        	<unknown>
    22f6: 01 01        	<unknown>
    22f8: 09 15        	<unknown>
    22fa: 19 00        	<unknown>
    22fc: 00 09        	<unknown>
    22fe: 15 19        	<unknown>
    2300: 00 00        	<unknown>
    2302: 00 20        	<unknown>
    2304: 92 0b        	<unknown>
    2306: 00 00        	<unknown>
    2308: 07 03 01 1d  	<unknown>
    230c: 14 00        	<unknown>
    230e: 00 01        	<unknown>
    2310: 01 09        	<unknown>
    2312: 1d 14        	<unknown>
    2314: 00 00        	<unknown>
    2316: 09 1d        	<unknown>
    2318: 14 00        	<unknown>
    231a: 00 00        	<unknown>
    231c: 20 9d        	<unknown>
    231e: 0b 00 00 07  	<unknown>
    2322: 03 01 04 1d  	lb	sp, 0x1d0(s0)
    2326: 00 00        	<unknown>
    2328: 01 01        	<unknown>
    232a: 09 04        	<unknown>
    232c: 1d 00        	<unknown>
    232e: 00 09        	<unknown>
    2330: 04 1d        	<unknown>
    2332: 00 00        	<unknown>
    2334: 00 20        	<unknown>
    2336: a8 0b        	<unknown>
    2338: 00 00        	<unknown>
    233a: 07 05 01 15  	<unknown>
    233e: 19 00        	<unknown>
    2340: 00 01        	<unknown>
    2342: 01 09        	<unknown>
    2344: 15 19        	<unknown>
    2346: 00 00        	<unknown>
    2348: 09 04        	<unknown>
    234a: 1d 00        	<unknown>
    234c: 00 00        	<unknown>
    234e: 20 b3        	<unknown>
    2350: 0b 00 00 07  	<unknown>
    2354: 05 01        	<unknown>
    2356: 1d 14        	<unknown>
    2358: 00 00        	<unknown>
    235a: 01 01        	<unknown>
    235c: 09 1d        	<unknown>
    235e: 14 00        	<unknown>
    2360: 00 09        	<unknown>
    2362: 04 1d        	<unknown>
    2364: 00 00        	<unknown>
    2366: 00 20        	<unknown>
    2368: bf 0b 00 00  	<unknown>
    236c: 07 05 01 04  	<unknown>
    2370: 1d 00        	<unknown>
    2372: 00 01        	<unknown>
    2374: 01 09        	<unknown>
    2376: 04 1d        	<unknown>
    2378: 00 00        	<unknown>
    237a: 09 04        	<unknown>
    237c: 1d 00        	<unknown>
    237e: 00 00        	<unknown>
    2380: 20 e8        	<unknown>
    2382: 09 00        	<unknown>
    2384: 00 07        	<unknown>
    2386: 10 01        	<unknown>
    2388: 15 19        	<unknown>
    238a: 00 00        	<unknown>
    238c: 01 01        	<unknown>
    238e: 09 15        	<unknown>
    2390: 19 00        	<unknown>
    2392: 00 09        	<unknown>
    2394: 15 19        	<unknown>
    2396: 00 00        	<unknown>
    2398: 00 20        	<unknown>
    239a: cb 0b 00 00  	fnmsub.s	fs7, ft0, ft0, ft0, rne
    239e: 07 10 01 1d  	<unknown>
    23a2: 14 00        	<unknown>
    23a4: 00 01        	<unknown>
    23a6: 01 09        	<unknown>
    23a8: 1d 14        	<unknown>
    23aa: 00 00        	<unknown>
    23ac: 09 1d        	<unknown>
    23ae: 14 00        	<unknown>
    23b0: 00 00        	<unknown>
    23b2: 20 d6        	<unknown>
    23b4: 0b 00 00 07  	<unknown>
    23b8: 10 01        	<unknown>
    23ba: 04 1d        	<unknown>
    23bc: 00 00        	<unknown>
    23be: 01 01        	<unknown>
    23c0: 09 04        	<unknown>
    23c2: 1d 00        	<unknown>
    23c4: 00 09        	<unknown>
    23c6: 04 1d        	<unknown>
    23c8: 00 00        	<unknown>
    23ca: 00 20        	<unknown>
    23cc: 01 0a        	<unknown>
    23ce: 00 00        	<unknown>
    23d0: 07 33 01 15  	fld	ft6, 0x150(sp)
    23d4: 19 00        	<unknown>
    23d6: 00 01        	<unknown>
    23d8: 01 09        	<unknown>
    23da: 15 19        	<unknown>
    23dc: 00 00        	<unknown>
    23de: 09 15        	<unknown>
    23e0: 19 00        	<unknown>
    23e2: 00 09        	<unknown>
    23e4: 77 16 00 00  	<unknown>
    23e8: 00 20        	<unknown>
    23ea: e1 0b        	<unknown>
    23ec: 00 00        	<unknown>
    23ee: 07 33 01 1d  	fld	ft6, 0x1d0(sp)
    23f2: 14 00        	<unknown>
    23f4: 00 01        	<unknown>
    23f6: 01 09        	<unknown>
    23f8: 1d 14        	<unknown>
    23fa: 00 00        	<unknown>
    23fc: 09 1d        	<unknown>
    23fe: 14 00        	<unknown>
    2400: 00 09        	<unknown>
    2402: 77 16 00 00  	<unknown>
    2406: 00 20        	<unknown>
    2408: e9 0b        	<unknown>
    240a: 00 00        	<unknown>
    240c: 07 33 01 04  	fld	ft6, 0x40(sp)
    2410: 1d 00        	<unknown>
    2412: 00 01        	<unknown>
    2414: 01 09        	<unknown>
    2416: 04 1d        	<unknown>
    2418: 00 00        	<unknown>
    241a: 09 04        	<unknown>
    241c: 1d 00        	<unknown>
    241e: 00 09        	<unknown>
    2420: 77 16 00 00  	<unknown>
    2424: 00 20        	<unknown>
    2426: fb 08 00 00  	<unknown>
    242a: 07 00 01 15  	<unknown>
    242e: 19 00        	<unknown>
    2430: 00 01        	<unknown>
    2432: 01 09        	<unknown>
    2434: 15 19        	<unknown>
    2436: 00 00        	<unknown>
    2438: 00 20        	<unknown>
    243a: 0c 0a        	<unknown>
    243c: 00 00        	<unknown>
    243e: 07 00 01 1d  	<unknown>
    2442: 14 00        	<unknown>
    2444: 00 01        	<unknown>
    2446: 01 09        	<unknown>
    2448: 1d 14        	<unknown>
    244a: 00 00        	<unknown>
    244c: 00 20        	<unknown>
    244e: 66 0b        	<unknown>
    2450: 00 00        	<unknown>
    2452: 07 00 01 04  	<unknown>
    2456: 1d 00        	<unknown>
    2458: 00 01        	<unknown>
    245a: 01 09        	<unknown>
    245c: 04 1d        	<unknown>
    245e: 00 00        	<unknown>
    2460: 00 20        	<unknown>
    2462: 6e 09        	<unknown>
    2464: 00 00        	<unknown>
    2466: 07 2a 01 15  	flw	fs4, 0x150(sp)
    246a: 19 00        	<unknown>
    246c: 00 01        	<unknown>
    246e: 01 09        	<unknown>
    2470: 15 19        	<unknown>
    2472: 00 00        	<unknown>
    2474: 00 20        	<unknown>
    2476: 16 0a        	<unknown>
    2478: 00 00        	<unknown>
    247a: 07 2a 01 1d  	flw	fs4, 0x1d0(sp)
    247e: 14 00        	<unknown>
    2480: 00 01        	<unknown>
    2482: 01 09        	<unknown>
    2484: 1d 14        	<unknown>
    2486: 00 00        	<unknown>
    2488: 00 20        	<unknown>
    248a: 6e 0b        	<unknown>
    248c: 00 00        	<unknown>
    248e: 07 2a 01 04  	flw	fs4, 0x40(sp)
    2492: 1d 00        	<unknown>
    2494: 00 01        	<unknown>
    2496: 01 09        	<unknown>
    2498: 04 1d        	<unknown>
    249a: 00 00        	<unknown>
    249c: 00 20        	<unknown>
    249e: 2b 0a 00 00  	vx_tex	s4, zero, zero, zero
    24a2: 07 22 01 15  	flw	ft4, 0x150(sp)
    24a6: 19 00        	<unknown>
    24a8: 00 01        	<unknown>
    24aa: 01 09        	<unknown>
    24ac: 15 19        	<unknown>
    24ae: 00 00        	<unknown>
    24b0: 09 c4        	<unknown>
    24b2: 17 00 00 00  	auipc	zero, 0x0
    24b6: 20 f1        	<unknown>
    24b8: 0b 00 00 07  	<unknown>
    24bc: 22 01        	<unknown>
    24be: 1d 14        	<unknown>
    24c0: 00 00        	<unknown>
    24c2: 01 01        	<unknown>
    24c4: 09 1d        	<unknown>
    24c6: 14 00        	<unknown>
    24c8: 00 09        	<unknown>
    24ca: c4 17        	<unknown>
    24cc: 00 00        	<unknown>
    24ce: 00 20        	<unknown>
    24d0: fa 0b        	<unknown>
    24d2: 00 00        	<unknown>
    24d4: 07 22 01 04  	flw	ft4, 0x40(sp)
    24d8: 1d 00        	<unknown>
    24da: 00 01        	<unknown>
    24dc: 01 09        	<unknown>
    24de: 04 1d        	<unknown>
    24e0: 00 00        	<unknown>
    24e2: 09 c4        	<unknown>
    24e4: 17 00 00 00  	auipc	zero, 0x0
    24e8: 20 40        	<unknown>
    24ea: 0a 00        	<unknown>
    24ec: 00 07        	<unknown>
    24ee: 14 01        	<unknown>
    24f0: 15 19        	<unknown>
    24f2: 00 00        	<unknown>
    24f4: 01 01        	<unknown>
    24f6: 09 15        	<unknown>
    24f8: 19 00        	<unknown>
    24fa: 00 09        	<unknown>
    24fc: 00 14        	<unknown>
    24fe: 00 00        	<unknown>
    2500: 00 20        	<unknown>
    2502: 03 0c 00 00  	lb	s8, 0x0(zero)
    2506: 07 14 01 1d  	<unknown>
    250a: 14 00        	<unknown>
    250c: 00 01        	<unknown>
    250e: 01 09        	<unknown>
    2510: 1d 14        	<unknown>
    2512: 00 00        	<unknown>
    2514: 09 00        	<unknown>
    2516: 14 00        	<unknown>
    2518: 00 00        	<unknown>
    251a: 20 0b        	<unknown>
    251c: 0c 00        	<unknown>
    251e: 00 07        	<unknown>
    2520: 14 01        	<unknown>
    2522: 04 1d        	<unknown>
    2524: 00 00        	<unknown>
    2526: 01 01        	<unknown>
    2528: 09 04        	<unknown>
    252a: 1d 00        	<unknown>
    252c: 00 09        	<unknown>
    252e: 00 14        	<unknown>
    2530: 00 00        	<unknown>
    2532: 00 21        	<unknown>
    2534: 9d 0a        	<unknown>
    2536: 00 00        	<unknown>
    2538: 07 eb 15 19  	<unknown>
    253c: 00 00        	<unknown>
    253e: 01 01        	<unknown>
    2540: 09 15        	<unknown>
    2542: 19 00        	<unknown>
    2544: 00 00        	<unknown>
    2546: 21 95        	<unknown>
    2548: 0a 00        	<unknown>
    254a: 00 07        	<unknown>
    254c: eb 1d 14 00  	<unknown>
    2550: 00 01        	<unknown>
    2552: 01 09        	<unknown>
    2554: 1d 14        	<unknown>
    2556: 00 00        	<unknown>
    2558: 00 21        	<unknown>
    255a: 13 0c 00 00  	li	s8, 0x0
    255e: 07 eb 04 1d  	<unknown>
    2562: 00 00        	<unknown>
    2564: 01 01        	<unknown>
    2566: 09 04        	<unknown>
    2568: 1d 00        	<unknown>
    256a: 00 00        	<unknown>
    256c: 20 af        	<unknown>
    256e: 0a 00        	<unknown>
    2570: 00 07        	<unknown>
    2572: 2e 01        	<unknown>
    2574: 15 19        	<unknown>
    2576: 00 00        	<unknown>
    2578: 01 01        	<unknown>
    257a: 09 15        	<unknown>
    257c: 19 00        	<unknown>
    257e: 00 00        	<unknown>
    2580: 20 a8        	<unknown>
    2582: 0a 00        	<unknown>
    2584: 00 07        	<unknown>
    2586: 2e 01        	<unknown>
    2588: 1d 14        	<unknown>
    258a: 00 00        	<unknown>
    258c: 01 01        	<unknown>
    258e: 09 1d        	<unknown>
    2590: 14 00        	<unknown>
    2592: 00 00        	<unknown>
    2594: 20 1b        	<unknown>
    2596: 0c 00        	<unknown>
    2598: 00 07        	<unknown>
    259a: 2e 01        	<unknown>
    259c: 04 1d        	<unknown>
    259e: 00 00        	<unknown>
    25a0: 01 01        	<unknown>
    25a2: 09 04        	<unknown>
    25a4: 1d 00        	<unknown>
    25a6: 00 00        	<unknown>
    25a8: 0a b3        	<unknown>
    25aa: 25 00        	<unknown>
    25ac: 00 05        	<unknown>
    25ae: 0d 00        	<unknown>
    25b0: 00 05        	<unknown>
    25b2: 3e 22        	<unknown>
    25b4: 01 0a        	<unknown>
    25b6: c0 25        	<unknown>
    25b8: 00 00        	<unknown>
    25ba: 04 0d        	<unknown>
    25bc: 00 00        	<unknown>
    25be: 05 46        	<unknown>
    25c0: 23 05 10 05  	sb	a7, 0x4a(zero)
    25c4: 42 06        	<unknown>
    25c6: 22 0c        	<unknown>
    25c8: 00 00        	<unknown>
    25ca: c4 17        	<unknown>
    25cc: 00 00        	<unknown>
    25ce: 05 44        	<unknown>
    25d0: 02 23        	<unknown>
    25d2: 00 06        	<unknown>
    25d4: 27 0c 00 00  	<unknown>
    25d8: c4 17        	<unknown>
    25da: 00 00        	<unknown>
    25dc: 05 45        	<unknown>
    25de: 02 23        	<unknown>
    25e0: 08 00        	<unknown>
    25e2: 24 2b        	<unknown>
    25e4: 0c 00        	<unknown>
    25e6: 00 05        	<unknown>
    25e8: 4f 02 01 01  	fnmadd.s	ft4, ft2, fa6, ft0, rne
    25ec: 01 20        	<unknown>
    25ee: 31 0c        	<unknown>
    25f0: 00 00        	<unknown>
    25f2: 05 53        	<unknown>
    25f4: 02 00        	<unknown>
    25f6: 14 00        	<unknown>
    25f8: 00 01        	<unknown>
    25fa: 01 09        	<unknown>
    25fc: 01 26        	<unknown>
    25fe: 00 00        	<unknown>
    2600: 00 0e        	<unknown>
    2602: 06 26        	<unknown>
    2604: 00 00        	<unknown>
    2606: 25 20        	<unknown>
    2608: 38 0c        	<unknown>
    260a: 00 00        	<unknown>
    260c: 05 58        	<unknown>
    260e: 02 00        	<unknown>
    2610: 14 00        	<unknown>
    2612: 00 01        	<unknown>
    2614: 01 09        	<unknown>
    2616: 01 26        	<unknown>
    2618: 00 00        	<unknown>
    261a: 00 21        	<unknown>
    261c: 46 0c        	<unknown>
    261e: 00 00        	<unknown>
    2620: 05 65        	<unknown>
    2622: 15 19        	<unknown>
    2624: 00 00        	<unknown>
    2626: 01 01        	<unknown>
    2628: 09 1c        	<unknown>
    262a: 19 00        	<unknown>
    262c: 00 00        	<unknown>
    262e: 21 4b        	<unknown>
    2630: 0c 00        	<unknown>
    2632: 00 05        	<unknown>
    2634: 68 00        	<unknown>
    2636: 14 00        	<unknown>
    2638: 00 01        	<unknown>
    263a: 01 09        	<unknown>
    263c: 1c 19        	<unknown>
    263e: 00 00        	<unknown>
    2640: 00 21        	<unknown>
    2642: 50 0c        	<unknown>
    2644: 00 00        	<unknown>
    2646: 05 6b        	<unknown>
    2648: c4 17        	<unknown>
    264a: 00 00        	<unknown>
    264c: 01 01        	<unknown>
    264e: 09 1c        	<unknown>
    2650: 19 00        	<unknown>
    2652: 00 00        	<unknown>
    2654: 20 55        	<unknown>
    2656: 0c 00        	<unknown>
    2658: 00 05        	<unknown>
    265a: 34 03        	<unknown>
    265c: 7c 26        	<unknown>
    265e: 00 00        	<unknown>
    2660: 01 01        	<unknown>
    2662: 09 7d        	<unknown>
    2664: 26 00        	<unknown>
    2666: 00 09        	<unknown>
    2668: 7d 26        	<unknown>
    266a: 00 00        	<unknown>
    266c: 09 83        	<unknown>
    266e: 26 00        	<unknown>
    2670: 00 09        	<unknown>
    2672: 83 26 00 00  	lw	a3, 0x0(zero)
    2676: 09 95        	<unknown>
    2678: 26 00        	<unknown>
    267a: 00 00        	<unknown>
    267c: 26 0e        	<unknown>
    267e: 82 26        	<unknown>
    2680: 00 00        	<unknown>
    2682: 27 0a 8e 26  	<unknown>
    2686: 00 00        	<unknown>
    2688: 6b 0c 00 00  	<unknown>
    268c: 0b 12 0d 5d  	<unknown>
    2690: 0c 00        	<unknown>
    2692: 00 07        	<unknown>
    2694: 08 13        	<unknown>
    2696: a1 26        	<unknown>
    2698: 00 00        	<unknown>
    269a: 72 0c        	<unknown>
    269c: 00 00        	<unknown>
    269e: 05 28        	<unknown>
    26a0: 03 0e a6 26  	lb	t3, 0x26a(a2)
    26a4: 00 00        	<unknown>
    26a6: 28 00        	<unknown>
    26a8: 14 00        	<unknown>
    26aa: 00 09        	<unknown>
    26ac: 7d 26        	<unknown>
    26ae: 00 00        	<unknown>
    26b0: 09 7d        	<unknown>
    26b2: 26 00        	<unknown>
    26b4: 00 00        	<unknown>
    26b6: 20 80        	<unknown>
    26b8: 0c 00        	<unknown>
    26ba: 00 05        	<unknown>
    26bc: 1e 02        	<unknown>
    26be: 7c 26        	<unknown>
    26c0: 00 00        	<unknown>
    26c2: 01 01        	<unknown>
    26c4: 09 83        	<unknown>
    26c6: 26 00        	<unknown>
    26c8: 00 09        	<unknown>
    26ca: 83 26 00 00  	lw	a3, 0x0(zero)
    26ce: 00 20        	<unknown>
    26d0: 13 0d 00 00  	li	s10, 0x0
    26d4: 05 54        	<unknown>
    26d6: 03 a8 25 00  	lw	a6, 0x2(a1)
    26da: 00 01        	<unknown>
    26dc: 01 09        	<unknown>
    26de: 00 14        	<unknown>
    26e0: 00 00        	<unknown>
    26e2: 09 00        	<unknown>
    26e4: 14 00        	<unknown>
    26e6: 00 00        	<unknown>
    26e8: 29 41        	<unknown>
    26ea: 0c 00        	<unknown>
    26ec: 00 05        	<unknown>
    26ee: 69 02        	<unknown>
    26f0: 01 01        	<unknown>
    26f2: 01 09        	<unknown>
    26f4: 00 14        	<unknown>
    26f6: 00 00        	<unknown>
    26f8: 00 11        	<unknown>
    26fa: 87 0c 00 00  	<unknown>
    26fe: 05 35        	<unknown>
    2700: 02 01        	<unknown>
    2702: 01 09        	<unknown>
    2704: 7c 26        	<unknown>
    2706: 00 00        	<unknown>
    2708: 00 20        	<unknown>
    270a: 8c 0c        	<unknown>
    270c: 00 00        	<unknown>
    270e: 05 7a        	<unknown>
    2710: 02 1d        	<unknown>
    2712: 27 00 00 01  	<unknown>
    2716: 01 09        	<unknown>
    2718: 1c 19        	<unknown>
    271a: 00 00        	<unknown>
    271c: 00 0e        	<unknown>
    271e: 26 19        	<unknown>
    2720: 00 00        	<unknown>
    2722: 20 e8        	<unknown>
    2724: 08 00        	<unknown>
    2726: 00 05        	<unknown>
    2728: 49 03        	<unknown>
    272a: c4 17        	<unknown>
    272c: 00 00        	<unknown>
    272e: 01 01        	<unknown>
    2730: 09 c4        	<unknown>
    2732: 17 00 00 00  	auipc	zero, 0x0
    2736: 20 12        	<unknown>
    2738: 0d 00        	<unknown>
    273a: 00 05        	<unknown>
    273c: 56 03        	<unknown>
    273e: b5 25        	<unknown>
    2740: 00 00        	<unknown>
    2742: 01 01        	<unknown>
    2744: 09 c4        	<unknown>
    2746: 17 00 00 09  	auipc	zero, 0x9000
    274a: c4 17        	<unknown>
    274c: 00 00        	<unknown>
    274e: 00 20        	<unknown>
    2750: 93 0c 00 00  	li	s9, 0x0
    2754: 05 1b        	<unknown>
    2756: 02 7c        	<unknown>
    2758: 26 00        	<unknown>
    275a: 00 01        	<unknown>
    275c: 01 09        	<unknown>
    275e: 83 26 00 00  	lw	a3, 0x0(zero)
    2762: 00 20        	<unknown>
    2764: 9a 0c        	<unknown>
    2766: 00 00        	<unknown>
    2768: 05 9a        	<unknown>
    276a: 03 00 14 00  	lb	zero, 0x1(s0)
    276e: 00 01        	<unknown>
    2770: 01 09        	<unknown>
    2772: 1c 19        	<unknown>
    2774: 00 00        	<unknown>
    2776: 09 83        	<unknown>
    2778: 26 00        	<unknown>
    277a: 00 00        	<unknown>
    277c: 20 a0        	<unknown>
    277e: 0c 00        	<unknown>
    2780: 00 05        	<unknown>
    2782: a5 03        	<unknown>
    2784: 83 26 00 00  	lw	a3, 0x0(zero)
    2788: 01 01        	<unknown>
    278a: 09 9a        	<unknown>
    278c: 27 00 00 09  	<unknown>
    2790: 1c 19        	<unknown>
    2792: 00 00        	<unknown>
    2794: 09 83        	<unknown>
    2796: 26 00        	<unknown>
    2798: 00 00        	<unknown>
    279a: 0e 9f        	<unknown>
    279c: 27 00 00 0d  	<unknown>
    27a0: a9 0c        	<unknown>
    27a2: 00 00        	<unknown>
    27a4: 05 04        	<unknown>
    27a6: 20 b1        	<unknown>
    27a8: 0c 00        	<unknown>
    27aa: 00 05        	<unknown>
    27ac: 9d 03        	<unknown>
    27ae: 00 14        	<unknown>
    27b0: 00 00        	<unknown>
    27b2: 01 01        	<unknown>
    27b4: 09 9a        	<unknown>
    27b6: 27 00 00 09  	<unknown>
    27ba: 1c 19        	<unknown>
    27bc: 00 00        	<unknown>
    27be: 09 83        	<unknown>
    27c0: 26 00        	<unknown>
    27c2: 00 00        	<unknown>
    27c4: 11 b8        	<unknown>
    27c6: 0c 00        	<unknown>
    27c8: 00 05        	<unknown>
    27ca: 3e 03        	<unknown>
    27cc: 01 01        	<unknown>
    27ce: 09 7c        	<unknown>
    27d0: 26 00        	<unknown>
    27d2: 00 09        	<unknown>
    27d4: 83 26 00 00  	lw	a3, 0x0(zero)
    27d8: 09 83        	<unknown>
    27da: 26 00        	<unknown>
    27dc: 00 09        	<unknown>
    27de: 95 26        	<unknown>
    27e0: 00 00        	<unknown>
    27e2: 00 29        	<unknown>
    27e4: 3b 0c 00 00  	addw	s8, zero, zero
    27e8: 05 6f        	<unknown>
    27ea: 02 01        	<unknown>
    27ec: 01 01        	<unknown>
    27ee: 09 00        	<unknown>
    27f0: 14 00        	<unknown>
    27f2: 00 00        	<unknown>
    27f4: 2a c7        	<unknown>
    27f6: 0c 00        	<unknown>
    27f8: 00 05        	<unknown>
    27fa: c5 01        	<unknown>
    27fc: 00 14        	<unknown>
    27fe: 00 00        	<unknown>
    2800: 01 01        	<unknown>
    2802: 20 be        	<unknown>
    2804: 0c 00        	<unknown>
    2806: 00 05        	<unknown>
    2808: 26 02        	<unknown>
    280a: 7c 26        	<unknown>
    280c: 00 00        	<unknown>
    280e: 01 01        	<unknown>
    2810: 09 7c        	<unknown>
    2812: 26 00        	<unknown>
    2814: 00 09        	<unknown>
    2816: 83 26 00 00  	lw	a3, 0x0(zero)
    281a: 00 11        	<unknown>
    281c: c6 0c        	<unknown>
    281e: 00 00        	<unknown>
    2820: 05 c7        	<unknown>
    2822: 01 01        	<unknown>
    2824: 01 09        	<unknown>
    2826: ae 01        	<unknown>
    2828: 00 00        	<unknown>
    282a: 00 21        	<unknown>
    282c: cc 0c        	<unknown>
    282e: 00 00        	<unknown>
    2830: 05 75        	<unknown>
    2832: 15 19        	<unknown>
    2834: 00 00        	<unknown>
    2836: 01 01        	<unknown>
    2838: 09 1c        	<unknown>
    283a: 19 00        	<unknown>
    283c: 00 09        	<unknown>
    283e: 43 28 00 00  	fmadd.s	fa6, ft0, ft0, ft0, rdn
    2842: 00 0e        	<unknown>
    2844: 1d 27        	<unknown>
    2846: 00 00        	<unknown>
    2848: 21 d3        	<unknown>
    284a: 0c 00        	<unknown>
    284c: 00 05        	<unknown>
    284e: b0 c4        	<unknown>
    2850: 17 00 00 01  	auipc	zero, 0x1000
    2854: 01 09        	<unknown>
    2856: 1c 19        	<unknown>
    2858: 00 00        	<unknown>
    285a: 09 43        	<unknown>
    285c: 28 00        	<unknown>
    285e: 00 09        	<unknown>
    2860: 00 14        	<unknown>
    2862: 00 00        	<unknown>
    2864: 00 21        	<unknown>
    2866: da 0c        	<unknown>
    2868: 00 00        	<unknown>
    286a: 05 b4        	<unknown>
    286c: 8e 26        	<unknown>
    286e: 00 00        	<unknown>
    2870: 01 01        	<unknown>
    2872: 09 1c        	<unknown>
    2874: 19 00        	<unknown>
    2876: 00 09        	<unknown>
    2878: 43 28 00 00  	fmadd.s	fa6, ft0, ft0, ft0, rdn
    287c: 09 00        	<unknown>
    287e: 14 00        	<unknown>
    2880: 00 00        	<unknown>
    2882: 20 e2        	<unknown>
    2884: 0c 00        	<unknown>
    2886: 00 05        	<unknown>
    2888: 10 03        	<unknown>
    288a: 00 14        	<unknown>
    288c: 00 00        	<unknown>
    288e: 01 01        	<unknown>
    2890: 09 1c        	<unknown>
    2892: 19 00        	<unknown>
    2894: 00 00        	<unknown>
    2896: 20 e9        	<unknown>
    2898: 0c 00        	<unknown>
    289a: 00 05        	<unknown>
    289c: a8 03        	<unknown>
    289e: 83 26 00 00  	lw	a3, 0x0(zero)
    28a2: 01 01        	<unknown>
    28a4: 09 1d        	<unknown>
    28a6: 27 00 00 09  	<unknown>
    28aa: b4 28        	<unknown>
    28ac: 00 00        	<unknown>
    28ae: 09 83        	<unknown>
    28b0: 26 00        	<unknown>
    28b2: 00 00        	<unknown>
    28b4: 0e b9        	<unknown>
    28b6: 28 00        	<unknown>
    28b8: 00 14        	<unknown>
    28ba: 9f 27 00 00  	<unknown>
    28be: 20 f2        	<unknown>
    28c0: 0c 00        	<unknown>
    28c2: 00 05        	<unknown>
    28c4: a1 03        	<unknown>
    28c6: 00 14        	<unknown>
    28c8: 00 00        	<unknown>
    28ca: 01 01        	<unknown>
    28cc: 09 1d        	<unknown>
    28ce: 27 00 00 09  	<unknown>
    28d2: 9f 27 00 00  	<unknown>
    28d6: 00 02        	<unknown>
    28d8: f9 0c        	<unknown>
    28da: 00 00        	<unknown>
    28dc: 0c 0a        	<unknown>
    28de: cc 72        	<unknown>
    28e0: 29 00        	<unknown>
    28e2: 00 0c        	<unknown>
    28e4: 0a d2        	<unknown>
    28e6: 9f 29 00 00  	<unknown>
    28ea: 0c 0a        	<unknown>
    28ec: d6 b0        	<unknown>
    28ee: 29 00        	<unknown>
    28f0: 00 0c        	<unknown>
    28f2: 0a dc        	<unknown>
    28f4: c4 29        	<unknown>
    28f6: 00 00        	<unknown>
    28f8: 0c 0a        	<unknown>
    28fa: e7 dd 29 00  	<unknown>
    28fe: 00 0c        	<unknown>
    2900: 0a e8        	<unknown>
    2902: f0 29        	<unknown>
    2904: 00 00        	<unknown>
    2906: 0c 0a        	<unknown>
    2908: e9 0d        	<unknown>
    290a: 2a 00        	<unknown>
    290c: 00 0c        	<unknown>
    290e: 0a eb        	<unknown>
    2910: 2a 2a        	<unknown>
    2912: 00 00        	<unknown>
    2914: 0c 0a        	<unknown>
    2916: ec 42        	<unknown>
    2918: 2a 00        	<unknown>
    291a: 00 0b        	<unknown>
    291c: 3d 0d        	<unknown>
    291e: 00 00        	<unknown>
    2920: 13 0d 00 00  	li	s10, 0x0
    2924: 0a d9        	<unknown>
    2926: 72 29        	<unknown>
    2928: 00 00        	<unknown>
    292a: 01 01        	<unknown>
    292c: 09 12        	<unknown>
    292e: 18 00        	<unknown>
    2930: 00 09        	<unknown>
    2932: 12 18        	<unknown>
    2934: 00 00        	<unknown>
    2936: 00 0c        	<unknown>
    2938: 10 af        	<unknown>
    293a: 80 34        	<unknown>
    293c: 00 00        	<unknown>
    293e: 0c 10        	<unknown>
    2940: b0 9f        	<unknown>
    2942: 34 00        	<unknown>
    2944: 00 0c        	<unknown>
    2946: 10 b1        	<unknown>
    2948: c1 34        	<unknown>
    294a: 00 00        	<unknown>
    294c: 0c 10        	<unknown>
    294e: b2 de        	<unknown>
    2950: 34 00        	<unknown>
    2952: 00 0c        	<unknown>
    2954: 10 b3        	<unknown>
    2956: 01 35        	<unknown>
    2958: 00 00        	<unknown>
    295a: 0c 1e        	<unknown>
    295c: fb 0f 40 00  	<unknown>
    2960: 00 1a        	<unknown>
    2962: 1e 04        	<unknown>
    2964: 01 28        	<unknown>
    2966: 40 00        	<unknown>
    2968: 00 1a        	<unknown>
    296a: 1e 05        	<unknown>
    296c: 01 46        	<unknown>
    296e: 40 00        	<unknown>
    2970: 00 00        	<unknown>
    2972: 0a 7d        	<unknown>
    2974: 29 00        	<unknown>
    2976: 00 03        	<unknown>
    2978: 0d 00        	<unknown>
    297a: 00 05        	<unknown>
    297c: 50 23        	<unknown>
    297e: 05 10        	<unknown>
    2980: 05 4c        	<unknown>
    2982: 06 22        	<unknown>
    2984: 0c 00        	<unknown>
    2986: 00 12        	<unknown>
    2988: 18 00        	<unknown>
    298a: 00 05        	<unknown>
    298c: 4e 02        	<unknown>
    298e: 23 00 06 27  	sb	a6, 0x260(a2)
    2992: 0c 00        	<unknown>
    2994: 00 12        	<unknown>
    2996: 18 00        	<unknown>
    2998: 00 05        	<unknown>
    299a: 4f 02 23 08  	fnmadd.s	ft4, ft6, ft2, ft1, rne
    299e: 00 29        	<unknown>
    29a0: 0b 0d 00 00  	<unknown>
    29a4: 05 75        	<unknown>
    29a6: 02 01        	<unknown>
    29a8: 01 01        	<unknown>
    29aa: 09 00        	<unknown>
    29ac: 14 00        	<unknown>
    29ae: 00 00        	<unknown>
    29b0: 20 e7        	<unknown>
    29b2: 08 00        	<unknown>
    29b4: 00 05        	<unknown>
    29b6: 4c 03        	<unknown>
    29b8: 12 18        	<unknown>
    29ba: 00 00        	<unknown>
    29bc: 01 01        	<unknown>
    29be: 09 12        	<unknown>
    29c0: 18 00        	<unknown>
    29c2: 00 00        	<unknown>
    29c4: 20 11        	<unknown>
    29c6: 0d 00        	<unknown>
    29c8: 00 05        	<unknown>
    29ca: 5a 03        	<unknown>
    29cc: 72 29        	<unknown>
    29ce: 00 00        	<unknown>
    29d0: 01 01        	<unknown>
    29d2: 09 12        	<unknown>
    29d4: 18 00        	<unknown>
    29d6: 00 09        	<unknown>
    29d8: 12 18        	<unknown>
    29da: 00 00        	<unknown>
    29dc: 00 21        	<unknown>
    29de: 17 0d 00 00  	auipc	s10, 0x0
    29e2: 05 70        	<unknown>
    29e4: 12 18        	<unknown>
    29e6: 00 00        	<unknown>
    29e8: 01 01        	<unknown>
    29ea: 09 1c        	<unknown>
    29ec: 19 00        	<unknown>
    29ee: 00 00        	<unknown>
    29f0: 21 1d        	<unknown>
    29f2: 0d 00        	<unknown>
    29f4: 00 05        	<unknown>
    29f6: c8 12        	<unknown>
    29f8: 18 00        	<unknown>
    29fa: 00 01        	<unknown>
    29fc: 01 09        	<unknown>
    29fe: 1c 19        	<unknown>
    2a00: 00 00        	<unknown>
    2a02: 09 43        	<unknown>
    2a04: 28 00        	<unknown>
    2a06: 00 09        	<unknown>
    2a08: 00 14        	<unknown>
    2a0a: 00 00        	<unknown>
    2a0c: 00 21        	<unknown>
    2a0e: 25 0d        	<unknown>
    2a10: 00 00        	<unknown>
    2a12: 05 cd        	<unknown>
    2a14: 1b 01 00 00  	sext.w	sp, zero
    2a18: 01 01        	<unknown>
    2a1a: 09 1c        	<unknown>
    2a1c: 19 00        	<unknown>
    2a1e: 00 09        	<unknown>
    2a20: 43 28 00 00  	fmadd.s	fa6, ft0, ft0, ft0, rdn
    2a24: 09 00        	<unknown>
    2a26: 14 00        	<unknown>
    2a28: 00 00        	<unknown>
    2a2a: 21 2e        	<unknown>
    2a2c: 0d 00        	<unknown>
    2a2e: 00 05        	<unknown>
    2a30: 7b 1d 14 00  	<unknown>
    2a34: 00 01        	<unknown>
    2a36: 01 09        	<unknown>
    2a38: 1c 19        	<unknown>
    2a3a: 00 00        	<unknown>
    2a3c: 09 43        	<unknown>
    2a3e: 28 00        	<unknown>
    2a40: 00 00        	<unknown>
    2a42: 21 35        	<unknown>
    2a44: 0d 00        	<unknown>
    2a46: 00 05        	<unknown>
    2a48: 7e 04        	<unknown>
    2a4a: 1d 00        	<unknown>
    2a4c: 00 01        	<unknown>
    2a4e: 01 09        	<unknown>
    2a50: 1c 19        	<unknown>
    2a52: 00 00        	<unknown>
    2a54: 09 43        	<unknown>
    2a56: 28 00        	<unknown>
    2a58: 00 00        	<unknown>
    2a5a: 0c 0c        	<unknown>
    2a5c: 26 e2        	<unknown>
    2a5e: 25 00        	<unknown>
    2a60: 00 0c        	<unknown>
    2a62: 0c 27        	<unknown>
    2a64: ed 25        	<unknown>
    2a66: 00 00        	<unknown>
    2a68: 0c 0c        	<unknown>
    2a6a: 28 e8        	<unknown>
    2a6c: 26 00        	<unknown>
    2a6e: 00 0c        	<unknown>
    2a70: 0c 2b        	<unknown>
    2a72: 07 26 00 00  	flw	fa2, 0x0(zero)
    2a76: 0c 0c        	<unknown>
    2a78: 2e e3        	<unknown>
    2a7a: 27 00 00 0c  	<unknown>
    2a7e: 0c 31        	<unknown>
    2a80: 9f 29 00 00  	<unknown>
    2a84: 0c 0c        	<unknown>
    2a86: 36 a8        	<unknown>
    2a88: 25 00        	<unknown>
    2a8a: 00 0c        	<unknown>
    2a8c: 0c 37        	<unknown>
    2a8e: b5 25        	<unknown>
    2a90: 00 00        	<unknown>
    2a92: 0c 0c        	<unknown>
    2a94: 39 d6        	<unknown>
    2a96: 0b 00 00 0c  	<unknown>
    2a9a: 0c 3a        	<unknown>
    2a9c: 1b 26 00 00  	<unknown>
    2aa0: 0c 0c        	<unknown>
    2aa2: 3b 2e 26 00  	<unknown>
    2aa6: 00 0c        	<unknown>
    2aa8: 0c 3c        	<unknown>
    2aaa: 41 26        	<unknown>
    2aac: 00 00        	<unknown>
    2aae: 0c 0c        	<unknown>
    2ab0: 3d 54        	<unknown>
    2ab2: 26 00        	<unknown>
    2ab4: 00 0c        	<unknown>
    2ab6: 0c 3e        	<unknown>
    2ab8: b6 26        	<unknown>
    2aba: 00 00        	<unknown>
    2abc: 0c 0c        	<unknown>
    2abe: 3f 1b 29 00  	<unknown>
    2ac2: 00 0c        	<unknown>
    2ac4: 0c 40        	<unknown>
    2ac6: f9 26        	<unknown>
    2ac8: 00 00        	<unknown>
    2aca: 0c 0c        	<unknown>
    2acc: 41 09        	<unknown>
    2ace: 27 00 00 0c  	<unknown>
    2ad2: 0c 42        	<unknown>
    2ad4: 22 27        	<unknown>
    2ad6: 00 00        	<unknown>
    2ad8: 0c 0c        	<unknown>
    2ada: 43 36 27 00  	fmadd.s	fa2, fa4, ft2, ft0, rup
    2ade: 00 0c        	<unknown>
    2ae0: 0c 44        	<unknown>
    2ae2: 4f 27 00 00  	fnmadd.s	fa4, ft0, ft0, ft0, rdn
    2ae6: 0c 0c        	<unknown>
    2ae8: 46 63        	<unknown>
    2aea: 27 00 00 0c  	<unknown>
    2aee: 0c 47        	<unknown>
    2af0: 7c 27        	<unknown>
    2af2: 00 00        	<unknown>
    2af4: 0c 0c        	<unknown>
    2af6: 48 a6        	<unknown>
    2af8: 27 00 00 0c  	<unknown>
    2afc: 0c 4a        	<unknown>
    2afe: c4 27        	<unknown>
    2b00: 00 00        	<unknown>
    2b02: 0c 0c        	<unknown>
    2b04: 4b f4 27 00  	fnmsub.s	fs0, fa5, ft2, ft0
    2b08: 00 0c        	<unknown>
    2b0a: 0c 4c        	<unknown>
    2b0c: 02 28        	<unknown>
    2b0e: 00 00        	<unknown>
    2b10: 0c 0c        	<unknown>
    2b12: 4d 1b        	<unknown>
    2b14: 28 00        	<unknown>
    2b16: 00 0c        	<unknown>
    2b18: 0c 4e        	<unknown>
    2b1a: 2b 28 00 00  	<unknown>
    2b1e: 0c 0c        	<unknown>
    2b20: 4f 48 28 00  	fnmadd.s	fa6, fa6, ft2, ft0, rmm
    2b24: 00 0c        	<unknown>
    2b26: 0c 50        	<unknown>
    2b28: 65 28        	<unknown>
    2b2a: 00 00        	<unknown>
    2b2c: 0c 0c        	<unknown>
    2b2e: 51 82        	<unknown>
    2b30: 28 00        	<unknown>
    2b32: 00 0c        	<unknown>
    2b34: 0c 53        	<unknown>
    2b36: 96 28        	<unknown>
    2b38: 00 00        	<unknown>
    2b3a: 0c 0c        	<unknown>
    2b3c: 54 be        	<unknown>
    2b3e: 28 00        	<unknown>
    2b40: 00 1f        	<unknown>
    2b42: 5c 0d        	<unknown>
    2b44: 00 00        	<unknown>
    2b46: e5 05        	<unknown>
    2b48: 00 00        	<unknown>
    2b4a: 0d 3b        	<unknown>
    2b4c: 1d 14        	<unknown>
    2b4e: 00 00        	<unknown>
    2b50: 01 09        	<unknown>
    2b52: 1d 14        	<unknown>
    2b54: 00 00        	<unknown>
    2b56: 00 1f        	<unknown>
    2b58: 67 0d 00 00  	jalr	s10, zero <.debug_info>
    2b5c: fa 05        	<unknown>
    2b5e: 00 00        	<unknown>
    2b60: 0d 3d        	<unknown>
    2b62: 1d 14        	<unknown>
    2b64: 00 00        	<unknown>
    2b66: 01 09        	<unknown>
    2b68: 1d 14        	<unknown>
    2b6a: 00 00        	<unknown>
    2b6c: 00 1f        	<unknown>
    2b6e: 73 0d 00 00  	<unknown>
    2b72: 0b 06 00 00  	<unknown>
    2b76: 0d 3f        	<unknown>
    2b78: 1d 14        	<unknown>
    2b7a: 00 00        	<unknown>
    2b7c: 01 09        	<unknown>
    2b7e: 1d 14        	<unknown>
    2b80: 00 00        	<unknown>
    2b82: 00 1f        	<unknown>
    2b84: 7e 0d        	<unknown>
    2b86: 00 00        	<unknown>
    2b88: 1a 06        	<unknown>
    2b8a: 00 00        	<unknown>
    2b8c: 0d 41        	<unknown>
    2b8e: 1d 14        	<unknown>
    2b90: 00 00        	<unknown>
    2b92: 01 09        	<unknown>
    2b94: 1d 14        	<unknown>
    2b96: 00 00        	<unknown>
    2b98: 00 1f        	<unknown>
    2b9a: 8a 0d        	<unknown>
    2b9c: 00 00        	<unknown>
    2b9e: 97 0d 00 00  	auipc	s11, 0x0
    2ba2: 0d 44        	<unknown>
    2ba4: 1d 14        	<unknown>
    2ba6: 00 00        	<unknown>
    2ba8: 01 09        	<unknown>
    2baa: 1d 14        	<unknown>
    2bac: 00 00        	<unknown>
    2bae: 09 1d        	<unknown>
    2bb0: 14 00        	<unknown>
    2bb2: 00 00        	<unknown>
    2bb4: 1f 9e 0d 00  	<unknown>
    2bb8: 00 2b        	<unknown>
    2bba: 06 00        	<unknown>
    2bbc: 00 0d        	<unknown>
    2bbe: 45 1d        	<unknown>
    2bc0: 14 00        	<unknown>
    2bc2: 00 01        	<unknown>
    2bc4: 09 1d        	<unknown>
    2bc6: 14 00        	<unknown>
    2bc8: 00 00        	<unknown>
    2bca: 1f a9 0d 00  	<unknown>
    2bce: 00 4c        	<unknown>
    2bd0: 06 00        	<unknown>
    2bd2: 00 0d        	<unknown>
    2bd4: 47 1d 14 00  	fmsub.s	fs10, fs0, ft1, ft0, rtz
    2bd8: 00 01        	<unknown>
    2bda: 09 1d        	<unknown>
    2bdc: 14 00        	<unknown>
    2bde: 00 00        	<unknown>
    2be0: 1f b5 0d 00  	<unknown>
    2be4: 00 5d        	<unknown>
    2be6: 06 00        	<unknown>
    2be8: 00 0d        	<unknown>
    2bea: 49 1d        	<unknown>
    2bec: 14 00        	<unknown>
    2bee: 00 01        	<unknown>
    2bf0: 09 1d        	<unknown>
    2bf2: 14 00        	<unknown>
    2bf4: 00 00        	<unknown>
    2bf6: 1f c0 0d 00  	<unknown>
    2bfa: 00 6c        	<unknown>
    2bfc: 06 00        	<unknown>
    2bfe: 00 0d        	<unknown>
    2c00: 4b 1d 14 00  	fnmsub.s	fs10, fs0, ft1, ft0, rtz
    2c04: 00 01        	<unknown>
    2c06: 09 1d        	<unknown>
    2c08: 14 00        	<unknown>
    2c0a: 00 00        	<unknown>
    2c0c: 1f cb 0d 00  	<unknown>
    2c10: 00 ed        	<unknown>
    2c12: 0a 00        	<unknown>
    2c14: 00 0d        	<unknown>
    2c16: 4f 1d 14 00  	fnmadd.s	fs10, fs0, ft1, ft0, rtz
    2c1a: 00 01        	<unknown>
    2c1c: 09 1d        	<unknown>
    2c1e: 14 00        	<unknown>
    2c20: 00 09        	<unknown>
    2c22: 1d 14        	<unknown>
    2c24: 00 00        	<unknown>
    2c26: 00 1f        	<unknown>
    2c28: db 0d 00 00  	<unknown>
    2c2c: 93 06 00 00  	li	a3, 0x0
    2c30: 0d 53        	<unknown>
    2c32: 1d 14        	<unknown>
    2c34: 00 00        	<unknown>
    2c36: 01 09        	<unknown>
    2c38: 1d 14        	<unknown>
    2c3a: 00 00        	<unknown>
    2c3c: 00 1f        	<unknown>
    2c3e: e5 0d        	<unknown>
    2c40: 00 00        	<unknown>
    2c42: 9c 06        	<unknown>
    2c44: 00 00        	<unknown>
    2c46: 0d 57        	<unknown>
    2c48: 1d 14        	<unknown>
    2c4a: 00 00        	<unknown>
    2c4c: 01 09        	<unknown>
    2c4e: 1d 14        	<unknown>
    2c50: 00 00        	<unknown>
    2c52: 00 1f        	<unknown>
    2c54: f0 0d        	<unknown>
    2c56: 00 00        	<unknown>
    2c58: af 06 00 00  	<unknown>
    2c5c: 0d 60        	<unknown>
    2c5e: 1d 14        	<unknown>
    2c60: 00 00        	<unknown>
    2c62: 01 09        	<unknown>
    2c64: 1d 14        	<unknown>
    2c66: 00 00        	<unknown>
    2c68: 00 1f        	<unknown>
    2c6a: fb 0d 00 00  	<unknown>
    2c6e: a6 06        	<unknown>
    2c70: 00 00        	<unknown>
    2c72: 0d 65        	<unknown>
    2c74: 1d 14        	<unknown>
    2c76: 00 00        	<unknown>
    2c78: 01 09        	<unknown>
    2c7a: 1d 14        	<unknown>
    2c7c: 00 00        	<unknown>
    2c7e: 00 1f        	<unknown>
    2c80: 05 0e        	<unknown>
    2c82: 00 00        	<unknown>
    2c84: c7 06 00 00  	fmsub.s	fa3, ft0, ft0, ft0, rne
    2c88: 0d 6c        	<unknown>
    2c8a: 1d 14        	<unknown>
    2c8c: 00 00        	<unknown>
    2c8e: 01 09        	<unknown>
    2c90: 1d 14        	<unknown>
    2c92: 00 00        	<unknown>
    2c94: 00 1f        	<unknown>
    2c96: 10 0e        	<unknown>
    2c98: 00 00        	<unknown>
    2c9a: be 06        	<unknown>
    2c9c: 00 00        	<unknown>
    2c9e: 0d 6d        	<unknown>
    2ca0: 1d 14        	<unknown>
    2ca2: 00 00        	<unknown>
    2ca4: 01 09        	<unknown>
    2ca6: 1d 14        	<unknown>
    2ca8: 00 00        	<unknown>
    2caa: 00 1f        	<unknown>
    2cac: 1a 0e        	<unknown>
    2cae: 00 00        	<unknown>
    2cb0: d6 06        	<unknown>
    2cb2: 00 00        	<unknown>
    2cb4: 0d 6f        	<unknown>
    2cb6: 1d 14        	<unknown>
    2cb8: 00 00        	<unknown>
    2cba: 01 09        	<unknown>
    2cbc: 1d 14        	<unknown>
    2cbe: 00 00        	<unknown>
    2cc0: 00 1f        	<unknown>
    2cc2: 26 0e        	<unknown>
    2cc4: 00 00        	<unknown>
    2cc6: e7 06 00 00  	jalr	a3, zero <.debug_info>
    2cca: 0d 70        	<unknown>
    2ccc: 1d 14        	<unknown>
    2cce: 00 00        	<unknown>
    2cd0: 01 09        	<unknown>
    2cd2: 1d 14        	<unknown>
    2cd4: 00 00        	<unknown>
    2cd6: 00 1f        	<unknown>
    2cd8: 31 0e        	<unknown>
    2cda: 00 00        	<unknown>
    2cdc: 19 0b        	<unknown>
    2cde: 00 00        	<unknown>
    2ce0: 0d 72        	<unknown>
    2ce2: 1d 14        	<unknown>
    2ce4: 00 00        	<unknown>
    2ce6: 01 09        	<unknown>
    2ce8: 1d 14        	<unknown>
    2cea: 00 00        	<unknown>
    2cec: 09 1d        	<unknown>
    2cee: 14 00        	<unknown>
    2cf0: 00 00        	<unknown>
    2cf2: 1f 3d 0e 00  	<unknown>
    2cf6: 00 06        	<unknown>
    2cf8: 07 00 00 0d  	<unknown>
    2cfc: 7c 1d        	<unknown>
    2cfe: 14 00        	<unknown>
    2d00: 00 01        	<unknown>
    2d02: 09 1d        	<unknown>
    2d04: 14 00        	<unknown>
    2d06: 00 00        	<unknown>
    2d08: 1f 49 0e 00  	<unknown>
    2d0c: 00 25        	<unknown>
    2d0e: 0b 00 00 0d  	<unknown>
    2d12: 80 1d        	<unknown>
    2d14: 14 00        	<unknown>
    2d16: 00 01        	<unknown>
    2d18: 09 1d        	<unknown>
    2d1a: 14 00        	<unknown>
    2d1c: 00 09        	<unknown>
    2d1e: 1d 14        	<unknown>
    2d20: 00 00        	<unknown>
    2d22: 09 1d        	<unknown>
    2d24: 14 00        	<unknown>
    2d26: 00 00        	<unknown>
    2d28: 1f 55 0e 00  	<unknown>
    2d2c: 00 2f        	<unknown>
    2d2e: 0b 00 00 0d  	<unknown>
    2d32: 84 1d        	<unknown>
    2d34: 14 00        	<unknown>
    2d36: 00 01        	<unknown>
    2d38: 09 1d        	<unknown>
    2d3a: 14 00        	<unknown>
    2d3c: 00 09        	<unknown>
    2d3e: 1d 14        	<unknown>
    2d40: 00 00        	<unknown>
    2d42: 00 1f        	<unknown>
    2d44: 61 0e        	<unknown>
    2d46: 00 00        	<unknown>
    2d48: 3b 0b 00 00  	addw	s6, zero, zero
    2d4c: 0d 86        	<unknown>
    2d4e: 1d 14        	<unknown>
    2d50: 00 00        	<unknown>
    2d52: 01 09        	<unknown>
    2d54: 1d 14        	<unknown>
    2d56: 00 00        	<unknown>
    2d58: 09 1d        	<unknown>
    2d5a: 14 00        	<unknown>
    2d5c: 00 00        	<unknown>
    2d5e: 1f 6d 0e 00  	<unknown>
    2d62: 00 79        	<unknown>
    2d64: 0e 00        	<unknown>
    2d66: 00 0d        	<unknown>
    2d68: 88 1d        	<unknown>
    2d6a: 14 00        	<unknown>
    2d6c: 00 01        	<unknown>
    2d6e: 09 1d        	<unknown>
    2d70: 14 00        	<unknown>
    2d72: 00 09        	<unknown>
    2d74: 1d 14        	<unknown>
    2d76: 00 00        	<unknown>
    2d78: 00 1f        	<unknown>
    2d7a: 7f 0e 00 00  	<unknown>
    2d7e: 8d 0e        	<unknown>
    2d80: 00 00        	<unknown>
    2d82: 0d 8a        	<unknown>
    2d84: 1d 14        	<unknown>
    2d86: 00 00        	<unknown>
    2d88: 01 09        	<unknown>
    2d8a: 1d 14        	<unknown>
    2d8c: 00 00        	<unknown>
    2d8e: 09 77        	<unknown>
    2d90: 16 00        	<unknown>
    2d92: 00 00        	<unknown>
    2d94: 1f 94 0e 00  	<unknown>
    2d98: 00 47        	<unknown>
    2d9a: 0b 00 00 0d  	<unknown>
    2d9e: 8c 1d        	<unknown>
    2da0: 14 00        	<unknown>
    2da2: 00 01        	<unknown>
    2da4: 09 1d        	<unknown>
    2da6: 14 00        	<unknown>
    2da8: 00 09        	<unknown>
    2daa: 1d 14        	<unknown>
    2dac: 00 00        	<unknown>
    2dae: 00 1f        	<unknown>
    2db0: a1 0e        	<unknown>
    2db2: 00 00        	<unknown>
    2db4: 97 07 00 00  	auipc	a5, 0x0
    2db8: 0d 8e        	<unknown>
    2dba: 00 14        	<unknown>
    2dbc: 00 00        	<unknown>
    2dbe: 01 09        	<unknown>
    2dc0: 1d 14        	<unknown>
    2dc2: 00 00        	<unknown>
    2dc4: 00 1f        	<unknown>
    2dc6: ad 0e        	<unknown>
    2dc8: 00 00        	<unknown>
    2dca: ba 0e        	<unknown>
    2dcc: 00 00        	<unknown>
    2dce: 0d 9b        	<unknown>
    2dd0: 1d 14        	<unknown>
    2dd2: 00 00        	<unknown>
    2dd4: 01 09        	<unknown>
    2dd6: 1d 14        	<unknown>
    2dd8: 00 00        	<unknown>
    2dda: 09 00        	<unknown>
    2ddc: 14 00        	<unknown>
    2dde: 00 00        	<unknown>
    2de0: 1f c1 0e 00  	<unknown>
    2de4: 00 cd        	<unknown>
    2de6: 08 00        	<unknown>
    2de8: 00 0d        	<unknown>
    2dea: 9d 1d        	<unknown>
    2dec: 14 00        	<unknown>
    2dee: 00 01        	<unknown>
    2df0: 09 1d        	<unknown>
    2df2: 14 00        	<unknown>
    2df4: 00 00        	<unknown>
    2df6: 1f ce 0e 00  	<unknown>
    2dfa: 00 f1        	<unknown>
    2dfc: 08 00        	<unknown>
    2dfe: 00 0d        	<unknown>
    2e00: a6 12        	<unknown>
    2e02: 18 00        	<unknown>
    2e04: 00 01        	<unknown>
    2e06: 09 1d        	<unknown>
    2e08: 14 00        	<unknown>
    2e0a: 00 00        	<unknown>
    2e0c: 1f db 0e 00  	<unknown>
    2e10: 00 63        	<unknown>
    2e12: 09 00        	<unknown>
    2e14: 00 0d        	<unknown>
    2e16: a8 12        	<unknown>
    2e18: 18 00        	<unknown>
    2e1a: 00 01        	<unknown>
    2e1c: 09 1d        	<unknown>
    2e1e: 14 00        	<unknown>
    2e20: 00 00        	<unknown>
    2e22: 1f e9 0e 00  	<unknown>
    2e26: 00 11        	<unknown>
    2e28: 09 00        	<unknown>
    2e2a: 00 0d        	<unknown>
    2e2c: ad 1d        	<unknown>
    2e2e: 14 00        	<unknown>
    2e30: 00 01        	<unknown>
    2e32: 09 1d        	<unknown>
    2e34: 14 00        	<unknown>
    2e36: 00 00        	<unknown>
    2e38: 1f f5 0e 00  	<unknown>
    2e3c: 00 22        	<unknown>
    2e3e: 09 00        	<unknown>
    2e40: 00 0d        	<unknown>
    2e42: af 1d 14 00  	<unknown>
    2e46: 00 01        	<unknown>
    2e48: 09 1d        	<unknown>
    2e4a: 14 00        	<unknown>
    2e4c: 00 00        	<unknown>
    2e4e: 1f 01 0f 00  	<unknown>
    2e52: 00 33        	<unknown>
    2e54: 09 00        	<unknown>
    2e56: 00 0d        	<unknown>
    2e58: b1 1d        	<unknown>
    2e5a: 14 00        	<unknown>
    2e5c: 00 01        	<unknown>
    2e5e: 09 1d        	<unknown>
    2e60: 14 00        	<unknown>
    2e62: 00 00        	<unknown>
    2e64: 1f 0c 0f 00  	<unknown>
    2e68: 00 42        	<unknown>
    2e6a: 09 00        	<unknown>
    2e6c: 00 0d        	<unknown>
    2e6e: b5 1d        	<unknown>
    2e70: 14 00        	<unknown>
    2e72: 00 01        	<unknown>
    2e74: 09 1d        	<unknown>
    2e76: 14 00        	<unknown>
    2e78: 00 00        	<unknown>
    2e7a: 1f 17 0f 00  	<unknown>
    2e7e: 00 04        	<unknown>
    2e80: 09 00        	<unknown>
    2e82: 00 0d        	<unknown>
    2e84: b6 1d        	<unknown>
    2e86: 14 00        	<unknown>
    2e88: 00 01        	<unknown>
    2e8a: 09 1d        	<unknown>
    2e8c: 14 00        	<unknown>
    2e8e: 00 00        	<unknown>
    2e90: 1f 21 0f 00  	<unknown>
    2e94: 00 4c        	<unknown>
    2e96: 09 00        	<unknown>
    2e98: 00 0d        	<unknown>
    2e9a: bb c4 17 00  	<unknown>
    2e9e: 00 01        	<unknown>
    2ea0: 09 1d        	<unknown>
    2ea2: 14 00        	<unknown>
    2ea4: 00 00        	<unknown>
    2ea6: 1f 2d 0f 00  	<unknown>
    2eaa: 00 57        	<unknown>
    2eac: 09 00        	<unknown>
    2eae: 00 0d        	<unknown>
    2eb0: bd c4        	<unknown>
    2eb2: 17 00 00 01  	auipc	zero, 0x1000
    2eb6: 09 1d        	<unknown>
    2eb8: 14 00        	<unknown>
    2eba: 00 00        	<unknown>
    2ebc: 1f 3a 0f 00  	<unknown>
    2ec0: 00 47        	<unknown>
    2ec2: 07 00 00 0d  	<unknown>
    2ec6: c7 1d 14 00  	fmsub.s	fs11, fs0, ft1, ft0, rtz
    2eca: 00 01        	<unknown>
    2ecc: 09 1d        	<unknown>
    2ece: 14 00        	<unknown>
    2ed0: 00 09        	<unknown>
    2ed2: fa 18        	<unknown>
    2ed4: 00 00        	<unknown>
    2ed6: 00 1f        	<unknown>
    2ed8: 47 0f 00 00  	fmsub.s	ft10, ft0, ft0, ft0, rne
    2edc: 9b 09 00 00  	sext.w	s3, zero
    2ee0: 0d c9        	<unknown>
    2ee2: 1d 14        	<unknown>
    2ee4: 00 00        	<unknown>
    2ee6: 01 09        	<unknown>
    2ee8: 1d 14        	<unknown>
    2eea: 00 00        	<unknown>
    2eec: 00 1f        	<unknown>
    2eee: 58 0f        	<unknown>
    2ef0: 00 00        	<unknown>
    2ef2: 92 0b        	<unknown>
    2ef4: 00 00        	<unknown>
    2ef6: 0d cd        	<unknown>
    2ef8: 1d 14        	<unknown>
    2efa: 00 00        	<unknown>
    2efc: 01 09        	<unknown>
    2efe: 1d 14        	<unknown>
    2f00: 00 00        	<unknown>
    2f02: 09 1d        	<unknown>
    2f04: 14 00        	<unknown>
    2f06: 00 00        	<unknown>
    2f08: 1f 6a 0f 00  	<unknown>
    2f0c: 00 75        	<unknown>
    2f0e: 0f 00 00 0d  	fence	iow, 0
    2f12: e7 1d 14 00  	<unknown>
    2f16: 00 01        	<unknown>
    2f18: 09 1d        	<unknown>
    2f1a: 14 00        	<unknown>
    2f1c: 00 09        	<unknown>
    2f1e: 1d 14        	<unknown>
    2f20: 00 00        	<unknown>
    2f22: 00 1f        	<unknown>
    2f24: 7a 0f        	<unknown>
    2f26: 00 00        	<unknown>
    2f28: cb 0b 00 00  	fnmsub.s	fs7, ft0, ft0, ft0, rne
    2f2c: 0d ef        	<unknown>
    2f2e: 1d 14        	<unknown>
    2f30: 00 00        	<unknown>
    2f32: 01 09        	<unknown>
    2f34: 1d 14        	<unknown>
    2f36: 00 00        	<unknown>
    2f38: 09 1d        	<unknown>
    2f3a: 14 00        	<unknown>
    2f3c: 00 00        	<unknown>
    2f3e: 1f 8c 0f 00  	<unknown>
    2f42: 00 e1        	<unknown>
    2f44: 0b 00 00 0d  	<unknown>
    2f48: f5 1d        	<unknown>
    2f4a: 14 00        	<unknown>
    2f4c: 00 01        	<unknown>
    2f4e: 09 1d        	<unknown>
    2f50: 14 00        	<unknown>
    2f52: 00 09        	<unknown>
    2f54: 1d 14        	<unknown>
    2f56: 00 00        	<unknown>
    2f58: 09 77        	<unknown>
    2f5a: 16 00        	<unknown>
    2f5c: 00 00        	<unknown>
    2f5e: 2b 9c 0f 00  	<unknown>
    2f62: 00 0c        	<unknown>
    2f64: 0a 00        	<unknown>
    2f66: 00 0d        	<unknown>
    2f68: 00 01        	<unknown>
    2f6a: 1d 14        	<unknown>
    2f6c: 00 00        	<unknown>
    2f6e: 01 09        	<unknown>
    2f70: 1d 14        	<unknown>
    2f72: 00 00        	<unknown>
    2f74: 00 1f        	<unknown>
    2f76: a7 0f 00 00  	<unknown>
    2f7a: 16 0a        	<unknown>
    2f7c: 00 00        	<unknown>
    2f7e: 0d aa        	<unknown>
    2f80: 1d 14        	<unknown>
    2f82: 00 00        	<unknown>
    2f84: 01 09        	<unknown>
    2f86: 1d 14        	<unknown>
    2f88: 00 00        	<unknown>
    2f8a: 00 2b        	<unknown>
    2f8c: b3 0f 00 00  	add	t6, zero, zero
    2f90: f1 0b        	<unknown>
    2f92: 00 00        	<unknown>
    2f94: 0d 1e        	<unknown>
    2f96: 01 1d        	<unknown>
    2f98: 14 00        	<unknown>
    2f9a: 00 01        	<unknown>
    2f9c: 09 1d        	<unknown>
    2f9e: 14 00        	<unknown>
    2fa0: 00 09        	<unknown>
    2fa2: c4 17        	<unknown>
    2fa4: 00 00        	<unknown>
    2fa6: 00 2b        	<unknown>
    2fa8: c2 0f        	<unknown>
    2faa: 00 00        	<unknown>
    2fac: 03 0c 00 00  	lb	s8, 0x0(zero)
    2fb0: 0d 16        	<unknown>
    2fb2: 01 1d        	<unknown>
    2fb4: 14 00        	<unknown>
    2fb6: 00 01        	<unknown>
    2fb8: 09 1d        	<unknown>
    2fba: 14 00        	<unknown>
    2fbc: 00 09        	<unknown>
    2fbe: 00 14        	<unknown>
    2fc0: 00 00        	<unknown>
    2fc2: 00 2b        	<unknown>
    2fc4: d0 0f        	<unknown>
    2fc6: 00 00        	<unknown>
    2fc8: 60 0a        	<unknown>
    2fca: 00 00        	<unknown>
    2fcc: 0d 32        	<unknown>
    2fce: 01 1d        	<unknown>
    2fd0: 14 00        	<unknown>
    2fd2: 00 01        	<unknown>
    2fd4: 09 1d        	<unknown>
    2fd6: 14 00        	<unknown>
    2fd8: 00 00        	<unknown>
    2fda: 2b da 0f 00  	<unknown>
    2fde: 00 69        	<unknown>
    2fe0: 0a 00        	<unknown>
    2fe2: 00 0d        	<unknown>
    2fe4: 36 01        	<unknown>
    2fe6: 1d 14        	<unknown>
    2fe8: 00 00        	<unknown>
    2fea: 01 09        	<unknown>
    2fec: 1d 14        	<unknown>
    2fee: 00 00        	<unknown>
    2ff0: 00 2b        	<unknown>
    2ff2: e5 0f        	<unknown>
    2ff4: 00 00        	<unknown>
    2ff6: 73 0a 00 00  	<unknown>
    2ffa: 0d 3a        	<unknown>
    2ffc: 01 1d        	<unknown>
    2ffe: 14 00        	<unknown>
    3000: 00 01        	<unknown>
    3002: 09 1d        	<unknown>
    3004: 14 00        	<unknown>
    3006: 00 00        	<unknown>
    3008: 2b f0 0f 00  	<unknown>
    300c: 00 82        	<unknown>
    300e: 0a 00        	<unknown>
    3010: 00 0d        	<unknown>
    3012: 3c 01        	<unknown>
    3014: 1d 14        	<unknown>
    3016: 00 00        	<unknown>
    3018: 01 09        	<unknown>
    301a: 1d 14        	<unknown>
    301c: 00 00        	<unknown>
    301e: 00 2b        	<unknown>
    3020: fa 0f        	<unknown>
    3022: 00 00        	<unknown>
    3024: 8b 0a 00 00  	<unknown>
    3028: 0d 3e        	<unknown>
    302a: 01 1d        	<unknown>
    302c: 14 00        	<unknown>
    302e: 00 01        	<unknown>
    3030: 09 1d        	<unknown>
    3032: 14 00        	<unknown>
    3034: 00 00        	<unknown>
    3036: 2b 05 10 00  	vx_tex	a0, zero, ra, zero
    303a: 00 95        	<unknown>
    303c: 0a 00        	<unknown>
    303e: 00 0d        	<unknown>
    3040: 40 01        	<unknown>
    3042: 1d 14        	<unknown>
    3044: 00 00        	<unknown>
    3046: 01 09        	<unknown>
    3048: 1d 14        	<unknown>
    304a: 00 00        	<unknown>
    304c: 00 2b        	<unknown>
    304e: 12 10        	<unknown>
    3050: 00 00        	<unknown>
    3052: a8 0a        	<unknown>
    3054: 00 00        	<unknown>
    3056: 0d 42        	<unknown>
    3058: 01 1d        	<unknown>
    305a: 14 00        	<unknown>
    305c: 00 01        	<unknown>
    305e: 09 1d        	<unknown>
    3060: 14 00        	<unknown>
    3062: 00 00        	<unknown>
    3064: 0a 6f        	<unknown>
    3066: 30 00        	<unknown>
    3068: 00 9b        	<unknown>
    306a: 10 00        	<unknown>
    306c: 00 0f        	<unknown>
    306e: 07 2c 97 10  	flw	fs8, 0x109(a4)
    3072: 00 00        	<unknown>
    3074: 01 0a        	<unknown>
    3076: 80 30        	<unknown>
    3078: 00 00        	<unknown>
    307a: a3 10 00 00  	sh	zero, 0x1(zero)
    307e: 12 54        	<unknown>
    3080: 0a 8b        	<unknown>
    3082: 30 00        	<unknown>
    3084: 00 aa        	<unknown>
    3086: 10 00        	<unknown>
    3088: 00 11        	<unknown>
    308a: 0e 2c        	<unknown>
    308c: a0 10        	<unknown>
    308e: 00 00        	<unknown>
    3090: 01 11        	<unknown>
    3092: b3 10 00 00  	sll	ra, zero, zero
    3096: 12 f5        	<unknown>
    3098: 02 01        	<unknown>
    309a: 01 09        	<unknown>
    309c: a1 30        	<unknown>
    309e: 00 00        	<unknown>
    30a0: 00 0e        	<unknown>
    30a2: 64 30        	<unknown>
    30a4: 00 00        	<unknown>
    30a6: 21 bc        	<unknown>
    30a8: 10 00        	<unknown>
    30aa: 00 12        	<unknown>
    30ac: d5 00        	<unknown>
    30ae: 14 00        	<unknown>
    30b0: 00 01        	<unknown>
    30b2: 01 09        	<unknown>
    30b4: a1 30        	<unknown>
    30b6: 00 00        	<unknown>
    30b8: 00 20        	<unknown>
    30ba: c3 10 00 00  	fmadd.s	ft1, ft0, ft0, ft0, rtz
    30be: 12 f7        	<unknown>
    30c0: 02 00        	<unknown>
    30c2: 14 00        	<unknown>
    30c4: 00 01        	<unknown>
    30c6: 01 09        	<unknown>
    30c8: a1 30        	<unknown>
    30ca: 00 00        	<unknown>
    30cc: 00 20        	<unknown>
    30ce: c8 10        	<unknown>
    30d0: 00 00        	<unknown>
    30d2: 12 f9        	<unknown>
    30d4: 02 00        	<unknown>
    30d6: 14 00        	<unknown>
    30d8: 00 01        	<unknown>
    30da: 01 09        	<unknown>
    30dc: a1 30        	<unknown>
    30de: 00 00        	<unknown>
    30e0: 00 21        	<unknown>
    30e2: cf 10 00 00  	fnmadd.s	ft1, ft0, ft0, ft0, rtz
    30e6: 12 da        	<unknown>
    30e8: 00 14        	<unknown>
    30ea: 00 00        	<unknown>
    30ec: 01 01        	<unknown>
    30ee: 09 a1        	<unknown>
    30f0: 30 00        	<unknown>
    30f2: 00 00        	<unknown>
    30f4: 20 d6        	<unknown>
    30f6: 10 00        	<unknown>
    30f8: 00 12        	<unknown>
    30fa: e5 01        	<unknown>
    30fc: 00 14        	<unknown>
    30fe: 00 00        	<unknown>
    3100: 01 01        	<unknown>
    3102: 09 a1        	<unknown>
    3104: 30 00        	<unknown>
    3106: 00 00        	<unknown>
    3108: 20 dc        	<unknown>
    310a: 10 00        	<unknown>
    310c: 00 12        	<unknown>
    310e: db 02 00 14  	<unknown>
    3112: 00 00        	<unknown>
    3114: 01 01        	<unknown>
    3116: 09 a1        	<unknown>
    3118: 30 00        	<unknown>
    311a: 00 09        	<unknown>
    311c: 21 31        	<unknown>
    311e: 00 00        	<unknown>
    3120: 00 0e        	<unknown>
    3122: 75 30        	<unknown>
    3124: 00 00        	<unknown>
    3126: 20 e4        	<unknown>
    3128: 10 00        	<unknown>
    312a: 00 12        	<unknown>
    312c: 34 02        	<unknown>
    312e: 1d 27        	<unknown>
    3130: 00 00        	<unknown>
    3132: 01 01        	<unknown>
    3134: 09 1d        	<unknown>
    3136: 27 00 00 09  	<unknown>
    313a: 00 14        	<unknown>
    313c: 00 00        	<unknown>
    313e: 09 a1        	<unknown>
    3140: 30 00        	<unknown>
    3142: 00 00        	<unknown>
    3144: 21 ea        	<unknown>
    3146: 10 00        	<unknown>
    3148: 00 12        	<unknown>
    314a: f6 a1        	<unknown>
    314c: 30 00        	<unknown>
    314e: 00 01        	<unknown>
    3150: 01 09        	<unknown>
    3152: 1c 19        	<unknown>
    3154: 00 00        	<unknown>
    3156: 09 1c        	<unknown>
    3158: 19 00        	<unknown>
    315a: 00 00        	<unknown>
    315c: 20 a6        	<unknown>
    315e: 11 00        	<unknown>
    3160: 00 12        	<unknown>
    3162: 46 01        	<unknown>
    3164: 00 14        	<unknown>
    3166: 00 00        	<unknown>
    3168: 01 01        	<unknown>
    316a: 09 a1        	<unknown>
    316c: 30 00        	<unknown>
    316e: 00 09        	<unknown>
    3170: 1c 19        	<unknown>
    3172: 00 00        	<unknown>
    3174: 2d 00        	<unknown>
    3176: 20 f0        	<unknown>
    3178: 10 00        	<unknown>
    317a: 00 12        	<unknown>
    317c: 09 02        	<unknown>
    317e: 00 14        	<unknown>
    3180: 00 00        	<unknown>
    3182: 01 01        	<unknown>
    3184: 09 00        	<unknown>
    3186: 14 00        	<unknown>
    3188: 00 09        	<unknown>
    318a: a1 30        	<unknown>
    318c: 00 00        	<unknown>
    318e: 00 20        	<unknown>
    3190: f6 10        	<unknown>
    3192: 00 00        	<unknown>
    3194: 12 72        	<unknown>
    3196: 02 00        	<unknown>
    3198: 14 00        	<unknown>
    319a: 00 01        	<unknown>
    319c: 01 09        	<unknown>
    319e: 1c 19        	<unknown>
    31a0: 00 00        	<unknown>
    31a2: 09 a1        	<unknown>
    31a4: 30 00        	<unknown>
    31a6: 00 00        	<unknown>
    31a8: 20 fc        	<unknown>
    31aa: 10 00        	<unknown>
    31ac: 00 12        	<unknown>
    31ae: 86 02        	<unknown>
    31b0: 83 26 00 00  	lw	a3, 0x0(zero)
    31b4: 01 01        	<unknown>
    31b6: 09 7c        	<unknown>
    31b8: 26 00        	<unknown>
    31ba: 00 09        	<unknown>
    31bc: 83 26 00 00  	lw	a3, 0x0(zero)
    31c0: 09 83        	<unknown>
    31c2: 26 00        	<unknown>
    31c4: 00 09        	<unknown>
    31c6: a1 30        	<unknown>
    31c8: 00 00        	<unknown>
    31ca: 00 21        	<unknown>
    31cc: 02 11        	<unknown>
    31ce: 00 00        	<unknown>
    31d0: 12 fc        	<unknown>
    31d2: a1 30        	<unknown>
    31d4: 00 00        	<unknown>
    31d6: 01 01        	<unknown>
    31d8: 09 1c        	<unknown>
    31da: 19 00        	<unknown>
    31dc: 00 09        	<unknown>
    31de: 1c 19        	<unknown>
    31e0: 00 00        	<unknown>
    31e2: 09 a1        	<unknown>
    31e4: 30 00        	<unknown>
    31e6: 00 00        	<unknown>
    31e8: 12 0a        	<unknown>
    31ea: 11 00        	<unknown>
    31ec: 00 13        	<unknown>
    31ee: 11 00        	<unknown>
    31f0: 00 12        	<unknown>
    31f2: 97 01 00 14  	auipc	gp, 0x14000
    31f6: 00 00        	<unknown>
    31f8: 01 01        	<unknown>
    31fa: 09 a1        	<unknown>
    31fc: 30 00        	<unknown>
    31fe: 00 09        	<unknown>
    3200: 1c 19        	<unknown>
    3202: 00 00        	<unknown>
    3204: 2d 00        	<unknown>
    3206: 20 1a        	<unknown>
    3208: 11 00        	<unknown>
    320a: 00 12        	<unknown>
    320c: ac 02        	<unknown>
    320e: 00 14        	<unknown>
    3210: 00 00        	<unknown>
    3212: 01 01        	<unknown>
    3214: 09 a1        	<unknown>
    3216: 30 00        	<unknown>
    3218: 00 09        	<unknown>
    321a: c4 17        	<unknown>
    321c: 00 00        	<unknown>
    321e: 09 00        	<unknown>
    3220: 14 00        	<unknown>
    3222: 00 00        	<unknown>
    3224: 20 20        	<unknown>
    3226: 11 00        	<unknown>
    3228: 00 12        	<unknown>
    322a: e0 02        	<unknown>
    322c: 00 14        	<unknown>
    322e: 00 00        	<unknown>
    3230: 01 01        	<unknown>
    3232: 09 a1        	<unknown>
    3234: 30 00        	<unknown>
    3236: 00 09        	<unknown>
    3238: 3d 32        	<unknown>
    323a: 00 00        	<unknown>
    323c: 00 0e        	<unknown>
    323e: 42 32        	<unknown>
    3240: 00 00        	<unknown>
    3242: 14 75        	<unknown>
    3244: 30 00        	<unknown>
    3246: 00 20        	<unknown>
    3248: 28 11        	<unknown>
    324a: 00 00        	<unknown>
    324c: 12 b1        	<unknown>
    324e: 02 c4        	<unknown>
    3250: 17 00 00 01  	auipc	zero, 0x1000
    3254: 01 09        	<unknown>
    3256: a1 30        	<unknown>
    3258: 00 00        	<unknown>
    325a: 00 20        	<unknown>
    325c: 2e 11        	<unknown>
    325e: 00 00        	<unknown>
    3260: 12 8c        	<unknown>
    3262: 02 83        	<unknown>
    3264: 26 00        	<unknown>
    3266: 00 01        	<unknown>
    3268: 01 09        	<unknown>
    326a: 7d 26        	<unknown>
    326c: 00 00        	<unknown>
    326e: 09 83        	<unknown>
    3270: 26 00        	<unknown>
    3272: 00 09        	<unknown>
    3274: 83 26 00 00  	lw	a3, 0x0(zero)
    3278: 09 a1        	<unknown>
    327a: 30 00        	<unknown>
    327c: 00 00        	<unknown>
    327e: 20 d7        	<unknown>
    3280: 10 00        	<unknown>
    3282: 00 12        	<unknown>
    3284: e6 01        	<unknown>
    3286: 00 14        	<unknown>
    3288: 00 00        	<unknown>
    328a: 01 01        	<unknown>
    328c: 09 a1        	<unknown>
    328e: 30 00        	<unknown>
    3290: 00 00        	<unknown>
    3292: 2a 35        	<unknown>
    3294: 11 00        	<unknown>
    3296: 00 12        	<unknown>
    3298: ec 01        	<unknown>
    329a: 00 14        	<unknown>
    329c: 00 00        	<unknown>
    329e: 01 01        	<unknown>
    32a0: 20 e5        	<unknown>
    32a2: 10 00        	<unknown>
    32a4: 00 12        	<unknown>
    32a6: 41 02        	<unknown>
    32a8: 1d 27        	<unknown>
    32aa: 00 00        	<unknown>
    32ac: 01 01        	<unknown>
    32ae: 09 1d        	<unknown>
    32b0: 27 00 00 00  	<unknown>
    32b4: 11 3d        	<unknown>
    32b6: 11 00        	<unknown>
    32b8: 00 12        	<unknown>
    32ba: 07 03 01 01  	<unknown>
    32be: 09 1c        	<unknown>
    32c0: 19 00        	<unknown>
    32c2: 00 00        	<unknown>
    32c4: 20 a7        	<unknown>
    32c6: 11 00        	<unknown>
    32c8: 00 12        	<unknown>
    32ca: 4c 01        	<unknown>
    32cc: 00 14        	<unknown>
    32ce: 00 00        	<unknown>
    32d0: 01 01        	<unknown>
    32d2: 09 1c        	<unknown>
    32d4: 19 00        	<unknown>
    32d6: 00 2d        	<unknown>
    32d8: 00 20        	<unknown>
    32da: f1 10        	<unknown>
    32dc: 00 00        	<unknown>
    32de: 12 0a        	<unknown>
    32e0: 02 00        	<unknown>
    32e2: 14 00        	<unknown>
    32e4: 00 01        	<unknown>
    32e6: 01 09        	<unknown>
    32e8: 00 14        	<unknown>
    32ea: 00 00        	<unknown>
    32ec: 09 a1        	<unknown>
    32ee: 30 00        	<unknown>
    32f0: 00 00        	<unknown>
    32f2: 20 44        	<unknown>
    32f4: 11 00        	<unknown>
    32f6: 00 12        	<unknown>
    32f8: 10 02        	<unknown>
    32fa: 00 14        	<unknown>
    32fc: 00 00        	<unknown>
    32fe: 01 01        	<unknown>
    3300: 09 00        	<unknown>
    3302: 14 00        	<unknown>
    3304: 00 00        	<unknown>
    3306: 20 f7        	<unknown>
    3308: 10 00        	<unknown>
    330a: 00 12        	<unknown>
    330c: 78 02        	<unknown>
    330e: 00 14        	<unknown>
    3310: 00 00        	<unknown>
    3312: 01 01        	<unknown>
    3314: 09 1c        	<unknown>
    3316: 19 00        	<unknown>
    3318: 00 00        	<unknown>
    331a: 21 4c        	<unknown>
    331c: 11 00        	<unknown>
    331e: 00 12        	<unknown>
    3320: 92 00        	<unknown>
    3322: 14 00        	<unknown>
    3324: 00 01        	<unknown>
    3326: 01 09        	<unknown>
    3328: 1c 19        	<unknown>
    332a: 00 00        	<unknown>
    332c: 00 21        	<unknown>
    332e: 53 11 00 00  	fadd.s	ft2, ft0, ft0, rtz
    3332: 12 94        	<unknown>
    3334: 00 14        	<unknown>
    3336: 00 00        	<unknown>
    3338: 01 01        	<unknown>
    333a: 09 1c        	<unknown>
    333c: 19 00        	<unknown>
    333e: 00 09        	<unknown>
    3340: 1c 19        	<unknown>
    3342: 00 00        	<unknown>
    3344: 00 11        	<unknown>
    3346: 5a 11        	<unknown>
    3348: 00 00        	<unknown>
    334a: 12 b6        	<unknown>
    334c: 02 01        	<unknown>
    334e: 01 09        	<unknown>
    3350: a1 30        	<unknown>
    3352: 00 00        	<unknown>
    3354: 00 12        	<unknown>
    3356: 61 11        	<unknown>
    3358: 00 00        	<unknown>
    335a: 6a 11        	<unknown>
    335c: 00 00        	<unknown>
    335e: 12 9a        	<unknown>
    3360: 01 00        	<unknown>
    3362: 14 00        	<unknown>
    3364: 00 01        	<unknown>
    3366: 01 09        	<unknown>
    3368: 1c 19        	<unknown>
    336a: 00 00        	<unknown>
    336c: 2d 00        	<unknown>
    336e: 11 70        	<unknown>
    3370: 11 00        	<unknown>
    3372: 00 12        	<unknown>
    3374: 30 01        	<unknown>
    3376: 01 01        	<unknown>
    3378: 09 a1        	<unknown>
    337a: 30 00        	<unknown>
    337c: 00 09        	<unknown>
    337e: 1d 27        	<unknown>
    3380: 00 00        	<unknown>
    3382: 00 20        	<unknown>
    3384: 77 11 00 00  	<unknown>
    3388: 12 34        	<unknown>
    338a: 01 00        	<unknown>
    338c: 14 00        	<unknown>
    338e: 00 01        	<unknown>
    3390: 01 09        	<unknown>
    3392: a1 30        	<unknown>
    3394: 00 00        	<unknown>
    3396: 09 1d        	<unknown>
    3398: 27 00 00 09  	<unknown>
    339c: 00 14        	<unknown>
    339e: 00 00        	<unknown>
    33a0: 09 83        	<unknown>
    33a2: 26 00        	<unknown>
    33a4: 00 00        	<unknown>
    33a6: 20 d8        	<unknown>
    33a8: 11 00        	<unknown>
    33aa: 00 12        	<unknown>
    33ac: 4e 01        	<unknown>
    33ae: 00 14        	<unknown>
    33b0: 00 00        	<unknown>
    33b2: 01 01        	<unknown>
    33b4: 09 1d        	<unknown>
    33b6: 27 00 00 09  	<unknown>
    33ba: 1c 19        	<unknown>
    33bc: 00 00        	<unknown>
    33be: 2d 00        	<unknown>
    33c0: 12 7f        	<unknown>
    33c2: 11 00        	<unknown>
    33c4: 00 88        	<unknown>
    33c6: 11 00        	<unknown>
    33c8: 00 12        	<unknown>
    33ca: 9c 01        	<unknown>
    33cc: 00 14        	<unknown>
    33ce: 00 00        	<unknown>
    33d0: 01 01        	<unknown>
    33d2: 09 1c        	<unknown>
    33d4: 19 00        	<unknown>
    33d6: 00 09        	<unknown>
    33d8: 1c 19        	<unknown>
    33da: 00 00        	<unknown>
    33dc: 2d 00        	<unknown>
    33de: 2e 8f        	<unknown>
    33e0: 11 00        	<unknown>
    33e2: 00 12        	<unknown>
    33e4: ad a1        	<unknown>
    33e6: 30 00        	<unknown>
    33e8: 00 01        	<unknown>
    33ea: 01 21        	<unknown>
    33ec: 97 11 00 00  	auipc	gp, 0x1
    33f0: 12 bb        	<unknown>
    33f2: 1d 27        	<unknown>
    33f4: 00 00        	<unknown>
    33f6: 01 01        	<unknown>
    33f8: 09 1d        	<unknown>
    33fa: 27 00 00 00  	<unknown>
    33fe: 20 9e        	<unknown>
    3400: 11 00        	<unknown>
    3402: 00 12        	<unknown>
    3404: 7f 02 00 14  	<unknown>
    3408: 00 00        	<unknown>
    340a: 01 01        	<unknown>
    340c: 09 00        	<unknown>
    340e: 14 00        	<unknown>
    3410: 00 09        	<unknown>
    3412: a1 30        	<unknown>
    3414: 00 00        	<unknown>
    3416: 00 20        	<unknown>
    3418: a5 11        	<unknown>
    341a: 00 00        	<unknown>
    341c: 12 55        	<unknown>
    341e: 01 00        	<unknown>
    3420: 14 00        	<unknown>
    3422: 00 01        	<unknown>
    3424: 01 09        	<unknown>
    3426: a1 30        	<unknown>
    3428: 00 00        	<unknown>
    342a: 09 1c        	<unknown>
    342c: 19 00        	<unknown>
    342e: 00 09        	<unknown>
    3430: 35 34        	<unknown>
    3432: 00 00        	<unknown>
    3434: 00 0a        	<unknown>
    3436: 40 34        	<unknown>
    3438: 00 00        	<unknown>
    343a: c0 11        	<unknown>
    343c: 00 00        	<unknown>
    343e: 13 0c 2f 1d  	addi	s8, t5, 0x1d2
    3442: 27 00 00 ae  	<unknown>
    3446: 11 00        	<unknown>
    3448: 00 20        	<unknown>
    344a: cf 11 00 00  	fnmadd.s	ft3, ft0, ft0, ft0, rtz
    344e: 12 5b        	<unknown>
    3450: 01 00        	<unknown>
    3452: 14 00        	<unknown>
    3454: 00 01        	<unknown>
    3456: 01 09        	<unknown>
    3458: 1c 19        	<unknown>
    345a: 00 00        	<unknown>
    345c: 09 35        	<unknown>
    345e: 34 00        	<unknown>
    3460: 00 00        	<unknown>
    3462: 20 d7        	<unknown>
    3464: 11 00        	<unknown>
    3466: 00 12        	<unknown>
    3468: 5d 01        	<unknown>
    346a: 00 14        	<unknown>
    346c: 00 00        	<unknown>
    346e: 01 01        	<unknown>
    3470: 09 1d        	<unknown>
    3472: 27 00 00 09  	<unknown>
    3476: 1c 19        	<unknown>
    3478: 00 00        	<unknown>
    347a: 09 35        	<unknown>
    347c: 34 00        	<unknown>
    347e: 00 00        	<unknown>
    3480: 20 02        	<unknown>
    3482: 12 00        	<unknown>
    3484: 00 12        	<unknown>
    3486: 62 01        	<unknown>
    3488: 00 14        	<unknown>
    348a: 00 00        	<unknown>
    348c: 01 01        	<unknown>
    348e: 09 1d        	<unknown>
    3490: 27 00 00 09  	<unknown>
    3494: 83 26 00 00  	lw	a3, 0x0(zero)
    3498: 09 1c        	<unknown>
    349a: 19 00        	<unknown>
    349c: 00 2d        	<unknown>
    349e: 00 12        	<unknown>
    34a0: e0 11        	<unknown>
    34a2: 00 00        	<unknown>
    34a4: e9 11        	<unknown>
    34a6: 00 00        	<unknown>
    34a8: 12 c3        	<unknown>
    34aa: 01 00        	<unknown>
    34ac: 14 00        	<unknown>
    34ae: 00 01        	<unknown>
    34b0: 01 09        	<unknown>
    34b2: a1 30        	<unknown>
    34b4: 00 00        	<unknown>
    34b6: 09 1c        	<unknown>
    34b8: 19 00        	<unknown>
    34ba: 00 09        	<unknown>
    34bc: 35 34        	<unknown>
    34be: 00 00        	<unknown>
    34c0: 00 12        	<unknown>
    34c2: f1 11        	<unknown>
    34c4: 00 00        	<unknown>
    34c6: fa 11        	<unknown>
    34c8: 00 00        	<unknown>
    34ca: 12 c8        	<unknown>
    34cc: 01 00        	<unknown>
    34ce: 14 00        	<unknown>
    34d0: 00 01        	<unknown>
    34d2: 01 09        	<unknown>
    34d4: 1c 19        	<unknown>
    34d6: 00 00        	<unknown>
    34d8: 09 35        	<unknown>
    34da: 34 00        	<unknown>
    34dc: 00 00        	<unknown>
    34de: 20 01        	<unknown>
    34e0: 12 00        	<unknown>
    34e2: 00 12        	<unknown>
    34e4: 66 01        	<unknown>
    34e6: 00 14        	<unknown>
    34e8: 00 00        	<unknown>
    34ea: 01 01        	<unknown>
    34ec: 09 1d        	<unknown>
    34ee: 27 00 00 09  	<unknown>
    34f2: 83 26 00 00  	lw	a3, 0x0(zero)
    34f6: 09 1c        	<unknown>
    34f8: 19 00        	<unknown>
    34fa: 00 09        	<unknown>
    34fc: 35 34        	<unknown>
    34fe: 00 00        	<unknown>
    3500: 00 12        	<unknown>
    3502: 0b 12 00 00  	<unknown>
    3506: 14 12        	<unknown>
    3508: 00 00        	<unknown>
    350a: 12 cb        	<unknown>
    350c: 01 00        	<unknown>
    350e: 14 00        	<unknown>
    3510: 00 01        	<unknown>
    3512: 01 09        	<unknown>
    3514: 1c 19        	<unknown>
    3516: 00 00        	<unknown>
    3518: 09 1c        	<unknown>
    351a: 19 00        	<unknown>
    351c: 00 09        	<unknown>
    351e: 35 34        	<unknown>
    3520: 00 00        	<unknown>
    3522: 00 0a        	<unknown>
    3524: 2e 35        	<unknown>
    3526: 00 00        	<unknown>
    3528: 1e 12        	<unknown>
    352a: 00 00        	<unknown>
    352c: 15 18        	<unknown>
    352e: 0a 39        	<unknown>
    3530: 35 00        	<unknown>
    3532: 00 1c        	<unknown>
    3534: 12 00        	<unknown>
    3536: 00 14        	<unknown>
    3538: 25 0d        	<unknown>
    353a: 8f 12 00 00  	<unknown>
    353e: 06 01        	<unknown>
    3540: 0a 4b        	<unknown>
    3542: 35 00        	<unknown>
    3544: 00 27        	<unknown>
    3546: 12 00        	<unknown>
    3548: 00 15        	<unknown>
    354a: 19 0a        	<unknown>
    354c: 56 35        	<unknown>
    354e: 00 00        	<unknown>
    3550: 25 12        	<unknown>
    3552: 00 00        	<unknown>
    3554: 14 27        	<unknown>
    3556: 0d ae        	<unknown>
    3558: 12 00        	<unknown>
    355a: 00 05        	<unknown>
    355c: 02 0a        	<unknown>
    355e: 68 35        	<unknown>
    3560: 00 00        	<unknown>
    3562: 31 12        	<unknown>
    3564: 00 00        	<unknown>
    3566: 15 1a        	<unknown>
    3568: 0a 00        	<unknown>
    356a: 14 00        	<unknown>
    356c: 00 2f        	<unknown>
    356e: 12 00        	<unknown>
    3570: 00 14        	<unknown>
    3572: 29 0a        	<unknown>
    3574: 7e 35        	<unknown>
    3576: 00 00        	<unknown>
    3578: 3b 12 00 00  	sllw	tp, zero, zero
    357c: 15 1b        	<unknown>
    357e: 0a c4        	<unknown>
    3580: 17 00 00 39  	auipc	zero, 0x39000
    3584: 12 00        	<unknown>
    3586: 00 14        	<unknown>
    3588: 2c 0a        	<unknown>
    358a: 39 35        	<unknown>
    358c: 00 00        	<unknown>
    358e: d6 12        	<unknown>
    3590: 00 00        	<unknown>
    3592: 17 3a 0a c4  	auipc	s4, 0xc40a3
    3596: 17 00 00 e3  	auipc	zero, 0xe3000
    359a: 12 00        	<unknown>
    359c: 00 17        	<unknown>
    359e: 3c 0a        	<unknown>
    35a0: c4 17        	<unknown>
    35a2: 00 00        	<unknown>
    35a4: f1 12        	<unknown>
    35a6: 00 00        	<unknown>
    35a8: 17 3d 0a c4  	auipc	s10, 0xc40a3
    35ac: 17 00 00 ff  	auipc	zero, 0xff000
    35b0: 12 00        	<unknown>
    35b2: 00 17        	<unknown>
    35b4: 3e 0a        	<unknown>
    35b6: c0 35        	<unknown>
    35b8: 00 00        	<unknown>
    35ba: 45 12        	<unknown>
    35bc: 00 00        	<unknown>
    35be: 17 2b 0a 2e  	auipc	s6, 0x2e0a2
    35c2: 35 00        	<unknown>
    35c4: 00 43        	<unknown>
    35c6: 12 00        	<unknown>
    35c8: 00 14        	<unknown>
    35ca: 34 0a        	<unknown>
    35cc: d6 35        	<unknown>
    35ce: 00 00        	<unknown>
    35d0: 54 12        	<unknown>
    35d2: 00 00        	<unknown>
    35d4: 17 2c 0a 4b  	auipc	s8, 0x4b0a2
    35d8: 35 00        	<unknown>
    35da: 00 52        	<unknown>
    35dc: 12 00        	<unknown>
    35de: 00 14        	<unknown>
    35e0: 36 0a        	<unknown>
    35e2: ec 35        	<unknown>
    35e4: 00 00        	<unknown>
    35e6: 64 12        	<unknown>
    35e8: 00 00        	<unknown>
    35ea: 17 2d 0a 68  	auipc	s10, 0x680a2
    35ee: 35 00        	<unknown>
    35f0: 00 62        	<unknown>
    35f2: 12 00        	<unknown>
    35f4: 00 14        	<unknown>
    35f6: 38 0a        	<unknown>
    35f8: 02 36        	<unknown>
    35fa: 00 00        	<unknown>
    35fc: 74 12        	<unknown>
    35fe: 00 00        	<unknown>
    3600: 17 2e 0a 7e  	auipc	t3, 0x7e0a2
    3604: 35 00        	<unknown>
    3606: 00 72        	<unknown>
    3608: 12 00        	<unknown>
    360a: 00 14        	<unknown>
    360c: 3a 0a        	<unknown>
    360e: 18 36        	<unknown>
    3610: 00 00        	<unknown>
    3612: 84 12        	<unknown>
    3614: 00 00        	<unknown>
    3616: 17 65 0a c4  	auipc	a0, 0xc40a6
    361a: 17 00 00 82  	auipc	zero, 0x82000
    361e: 12 00        	<unknown>
    3620: 00 14        	<unknown>
    3622: 48 0a        	<unknown>
    3624: c4 17        	<unknown>
    3626: 00 00        	<unknown>
    3628: 5c 13        	<unknown>
    362a: 00 00        	<unknown>
    362c: 17 57 0a 39  	auipc	a4, 0x390a5
    3630: 36 00        	<unknown>
    3632: 00 9d        	<unknown>
    3634: 12 00        	<unknown>
    3636: 00 18        	<unknown>
    3638: 18 0a        	<unknown>
    363a: 44 36        	<unknown>
    363c: 00 00        	<unknown>
    363e: 9b 12 00 00  	slliw	t0, zero, 0x0
    3642: 14 26        	<unknown>
    3644: 0d 8d        	<unknown>
    3646: 12 00        	<unknown>
    3648: 00 08        	<unknown>
    364a: 01 0a        	<unknown>
    364c: 56 36        	<unknown>
    364e: 00 00        	<unknown>
    3650: b6 12        	<unknown>
    3652: 00 00        	<unknown>
    3654: 18 19        	<unknown>
    3656: 0a 61        	<unknown>
    3658: 36 00        	<unknown>
    365a: 00 b4        	<unknown>
    365c: 12 00        	<unknown>
    365e: 00 14        	<unknown>
    3660: 28 0d        	<unknown>
    3662: a5 12        	<unknown>
    3664: 00 00        	<unknown>
    3666: 07 02 0a 73  	<unknown>
    366a: 36 00        	<unknown>
    366c: 00 c1        	<unknown>
    366e: 12 00        	<unknown>
    3670: 00 18        	<unknown>
    3672: 1a 0a        	<unknown>
    3674: ae 01        	<unknown>
    3676: 00 00        	<unknown>
    3678: bf 12 00 00  	<unknown>
    367c: 14 2a        	<unknown>
    367e: 0a 89        	<unknown>
    3680: 36 00        	<unknown>
    3682: 00 cc        	<unknown>
    3684: 12 00        	<unknown>
    3686: 00 18        	<unknown>
    3688: 1b 0a 8e 26  	addiw	s4, t3, 0x268
    368c: 00 00        	<unknown>
    368e: ca 12        	<unknown>
    3690: 00 00        	<unknown>
    3692: 14 2d        	<unknown>
    3694: 0a 44        	<unknown>
    3696: 36 00        	<unknown>
    3698: 00 d5        	<unknown>
    369a: 12 00        	<unknown>
    369c: 00 17        	<unknown>
    369e: 47 0a 8e 26  	<unknown>
    36a2: 00 00        	<unknown>
    36a4: e2 12        	<unknown>
    36a6: 00 00        	<unknown>
    36a8: 17 49 0a 8e  	auipc	s2, 0x8e0a4
    36ac: 26 00        	<unknown>
    36ae: 00 f0        	<unknown>
    36b0: 12 00        	<unknown>
    36b2: 00 17        	<unknown>
    36b4: 4a 0a        	<unknown>
    36b6: 8e 26        	<unknown>
    36b8: 00 00        	<unknown>
    36ba: fe 12        	<unknown>
    36bc: 00 00        	<unknown>
    36be: 17 4b 0a cb  	auipc	s6, 0xcb0a4
    36c2: 36 00        	<unknown>
    36c4: 00 0e        	<unknown>
    36c6: 13 00 00 17  	li	zero, 0x170
    36ca: 31 0a        	<unknown>
    36cc: 39 36        	<unknown>
    36ce: 00 00        	<unknown>
    36d0: 0c 13        	<unknown>
    36d2: 00 00        	<unknown>
    36d4: 14 35        	<unknown>
    36d6: 0a e1        	<unknown>
    36d8: 36 00        	<unknown>
    36da: 00 1e        	<unknown>
    36dc: 13 00 00 17  	li	zero, 0x170
    36e0: 32 0a        	<unknown>
    36e2: 56 36        	<unknown>
    36e4: 00 00        	<unknown>
    36e6: 1c 13        	<unknown>
    36e8: 00 00        	<unknown>
    36ea: 14 37        	<unknown>
    36ec: 0a f7        	<unknown>
    36ee: 36 00        	<unknown>
    36f0: 00 2f        	<unknown>
    36f2: 13 00 00 17  	li	zero, 0x170
    36f6: 33 0a 73 36  	<unknown>
    36fa: 00 00        	<unknown>
    36fc: 2d 13        	<unknown>
    36fe: 00 00        	<unknown>
    3700: 14 39        	<unknown>
    3702: 0a 0d        	<unknown>
    3704: 37 00 00 40  	lui	zero, 0x40000
    3708: 13 00 00 17  	li	zero, 0x170
    370c: 34 0a        	<unknown>
    370e: 89 36        	<unknown>
    3710: 00 00        	<unknown>
    3712: 3e 13        	<unknown>
    3714: 00 00        	<unknown>
    3716: 14 3b        	<unknown>
    3718: 0a 23        	<unknown>
    371a: 37 00 00 51  	lui	zero, 0x51000
    371e: 13 00 00 17  	li	zero, 0x170
    3722: 66 0a        	<unknown>
    3724: 8e 26        	<unknown>
    3726: 00 00        	<unknown>
    3728: 4f 13 00 00  	fnmadd.s	ft6, ft0, ft0, ft0, rtz
    372c: 14 49        	<unknown>
    372e: 0a 8e        	<unknown>
    3730: 26 00        	<unknown>
    3732: 00 5b        	<unknown>
    3734: 13 00 00 17  	li	zero, 0x170
    3738: 5a 21        	<unknown>
    373a: 0d 16        	<unknown>
    373c: 00 00        	<unknown>
    373e: 19 49        	<unknown>
    3740: 7d 26        	<unknown>
    3742: 00 00        	<unknown>
    3744: 01 01        	<unknown>
    3746: 09 7d        	<unknown>
    3748: 26 00        	<unknown>
    374a: 00 09        	<unknown>
    374c: 00 14        	<unknown>
    374e: 00 00        	<unknown>
    3750: 09 83        	<unknown>
    3752: 26 00        	<unknown>
    3754: 00 00        	<unknown>
    3756: 21 be        	<unknown>
    3758: 15 00        	<unknown>
    375a: 00 19        	<unknown>
    375c: 40 00        	<unknown>
    375e: 14 00        	<unknown>
    3760: 00 01        	<unknown>
    3762: 01 09        	<unknown>
    3764: 7d 26        	<unknown>
    3766: 00 00        	<unknown>
    3768: 09 7d        	<unknown>
    376a: 26 00        	<unknown>
    376c: 00 09        	<unknown>
    376e: 83 26 00 00  	lw	a3, 0x0(zero)
    3772: 00 2b        	<unknown>
    3774: 65 13        	<unknown>
    3776: 00 00        	<unknown>
    3778: c6 15        	<unknown>
    377a: 00 00        	<unknown>
    377c: 1b 0d 06 7c  	addiw	s10, a2, 0x7c0
    3780: 26 00        	<unknown>
    3782: 00 01        	<unknown>
    3784: 09 7c        	<unknown>
    3786: 26 00        	<unknown>
    3788: 00 09        	<unknown>
    378a: 7d 26        	<unknown>
    378c: 00 00        	<unknown>
    378e: 09 83        	<unknown>
    3790: 26 00        	<unknown>
    3792: 00 00        	<unknown>
    3794: 21 ce        	<unknown>
    3796: 15 00        	<unknown>
    3798: 00 19        	<unknown>
    379a: 2f 7c 26 00  	<unknown>
    379e: 00 01        	<unknown>
    37a0: 01 09        	<unknown>
    37a2: 7c 26        	<unknown>
    37a4: 00 00        	<unknown>
    37a6: 09 7d        	<unknown>
    37a8: 26 00        	<unknown>
    37aa: 00 09        	<unknown>
    37ac: 83 26 00 00  	lw	a3, 0x0(zero)
    37b0: 00 2b        	<unknown>
    37b2: 76 13        	<unknown>
    37b4: 00 00        	<unknown>
    37b6: d7 15 00 00  	<unknown>
    37ba: 1b 10 06 7c  	<unknown>
    37be: 26 00        	<unknown>
    37c0: 00 01        	<unknown>
    37c2: 09 7c        	<unknown>
    37c4: 26 00        	<unknown>
    37c6: 00 09        	<unknown>
    37c8: 00 14        	<unknown>
    37ca: 00 00        	<unknown>
    37cc: 09 83        	<unknown>
    37ce: 26 00        	<unknown>
    37d0: 00 00        	<unknown>
    37d2: 21 85        	<unknown>
    37d4: 13 00 00 19  	li	zero, 0x190
    37d8: 82 1d        	<unknown>
    37da: 27 00 00 01  	<unknown>
    37de: 01 09        	<unknown>
    37e0: 1d 27        	<unknown>
    37e2: 00 00        	<unknown>
    37e4: 09 1c        	<unknown>
    37e6: 19 00        	<unknown>
    37e8: 00 00        	<unknown>
    37ea: 21 8c        	<unknown>
    37ec: 13 00 00 19  	li	zero, 0x190
    37f0: 89 00        	<unknown>
    37f2: 14 00        	<unknown>
    37f4: 00 01        	<unknown>
    37f6: 01 09        	<unknown>
    37f8: 1c 19        	<unknown>
    37fa: 00 00        	<unknown>
    37fc: 09 1c        	<unknown>
    37fe: 19 00        	<unknown>
    3800: 00 00        	<unknown>
    3802: 21 93        	<unknown>
    3804: 13 00 00 19  	li	zero, 0x190
    3808: 90 00        	<unknown>
    380a: 14 00        	<unknown>
    380c: 00 01        	<unknown>
    380e: 01 09        	<unknown>
    3810: 1c 19        	<unknown>
    3812: 00 00        	<unknown>
    3814: 09 1c        	<unknown>
    3816: 19 00        	<unknown>
    3818: 00 00        	<unknown>
    381a: 21 9b        	<unknown>
    381c: 13 00 00 19  	li	zero, 0x190
    3820: 7a 1d        	<unknown>
    3822: 27 00 00 01  	<unknown>
    3826: 01 09        	<unknown>
    3828: 1d 27        	<unknown>
    382a: 00 00        	<unknown>
    382c: 09 1c        	<unknown>
    382e: 19 00        	<unknown>
    3830: 00 00        	<unknown>
    3832: 20 a2        	<unknown>
    3834: 13 00 00 19  	li	zero, 0x190
    3838: 11 01        	<unknown>
    383a: 83 26 00 00  	lw	a3, 0x0(zero)
    383e: 01 01        	<unknown>
    3840: 09 1c        	<unknown>
    3842: 19 00        	<unknown>
    3844: 00 09        	<unknown>
    3846: 1c 19        	<unknown>
    3848: 00 00        	<unknown>
    384a: 00 20        	<unknown>
    384c: aa 13        	<unknown>
    384e: 00 00        	<unknown>
    3850: 19 8d        	<unknown>
    3852: 01 1d        	<unknown>
    3854: 27 00 00 01  	<unknown>
    3858: 01 09        	<unknown>
    385a: 00 14        	<unknown>
    385c: 00 00        	<unknown>
    385e: 00 20        	<unknown>
    3860: b3 13 00 00  	sll	t2, zero, zero
    3864: 19 81        	<unknown>
    3866: 01 83        	<unknown>
    3868: 26 00        	<unknown>
    386a: 00 01        	<unknown>
    386c: 01 09        	<unknown>
    386e: 1c 19        	<unknown>
    3870: 00 00        	<unknown>
    3872: 00 21        	<unknown>
    3874: ba 13        	<unknown>
    3876: 00 00        	<unknown>
    3878: 19 85        	<unknown>
    387a: 1d 27        	<unknown>
    387c: 00 00        	<unknown>
    387e: 01 01        	<unknown>
    3880: 09 1d        	<unknown>
    3882: 27 00 00 09  	<unknown>
    3886: 1c 19        	<unknown>
    3888: 00 00        	<unknown>
    388a: 09 83        	<unknown>
    388c: 26 00        	<unknown>
    388e: 00 00        	<unknown>
    3890: 21 c2        	<unknown>
    3892: 13 00 00 19  	li	zero, 0x190
    3896: 8c 00        	<unknown>
    3898: 14 00        	<unknown>
    389a: 00 01        	<unknown>
    389c: 01 09        	<unknown>
    389e: 1c 19        	<unknown>
    38a0: 00 00        	<unknown>
    38a2: 09 1c        	<unknown>
    38a4: 19 00        	<unknown>
    38a6: 00 09        	<unknown>
    38a8: 83 26 00 00  	lw	a3, 0x0(zero)
    38ac: 00 21        	<unknown>
    38ae: ca 13        	<unknown>
    38b0: 00 00        	<unknown>
    38b2: 19 7d        	<unknown>
    38b4: 1d 27        	<unknown>
    38b6: 00 00        	<unknown>
    38b8: 01 01        	<unknown>
    38ba: 09 1d        	<unknown>
    38bc: 27 00 00 09  	<unknown>
    38c0: 1c 19        	<unknown>
    38c2: 00 00        	<unknown>
    38c4: 09 83        	<unknown>
    38c6: 26 00        	<unknown>
    38c8: 00 00        	<unknown>
    38ca: 20 d2        	<unknown>
    38cc: 13 00 00 19  	li	zero, 0x190
    38d0: 15 01        	<unknown>
    38d2: 83 26 00 00  	lw	a3, 0x0(zero)
    38d6: 01 01        	<unknown>
    38d8: 09 1c        	<unknown>
    38da: 19 00        	<unknown>
    38dc: 00 09        	<unknown>
    38de: 1c 19        	<unknown>
    38e0: 00 00        	<unknown>
    38e2: 00 20        	<unknown>
    38e4: d9 13        	<unknown>
    38e6: 00 00        	<unknown>
    38e8: 19 50        	<unknown>
    38ea: 01 1d        	<unknown>
    38ec: 27 00 00 01  	<unknown>
    38f0: 01 09        	<unknown>
    38f2: 1d 27        	<unknown>
    38f4: 00 00        	<unknown>
    38f6: 09 1c        	<unknown>
    38f8: 19 00        	<unknown>
    38fa: 00 00        	<unknown>
    38fc: 21 e0        	<unknown>
    38fe: 13 00 00 19  	li	zero, 0x190
    3902: 93 83 26 00  	addi	t2, a3, 0x2
    3906: 00 01        	<unknown>
    3908: 01 09        	<unknown>
    390a: 1d 27        	<unknown>
    390c: 00 00        	<unknown>
    390e: 09 1c        	<unknown>
    3910: 19 00        	<unknown>
    3912: 00 09        	<unknown>
    3914: 83 26 00 00  	lw	a3, 0x0(zero)
    3918: 00 21        	<unknown>
    391a: e8 13        	<unknown>
    391c: 00 00        	<unknown>
    391e: 19 d0        	<unknown>
    3920: 1c 19        	<unknown>
    3922: 00 00        	<unknown>
    3924: 01 01        	<unknown>
    3926: 09 1c        	<unknown>
    3928: 19 00        	<unknown>
    392a: 00 09        	<unknown>
    392c: 00 14        	<unknown>
    392e: 00 00        	<unknown>
    3930: 00 20        	<unknown>
    3932: ef 13 00 00  	jal	t2, 0x4932 <.debug_info+0x4932>
    3936: 19 1d        	<unknown>
    3938: 01 1c        	<unknown>
    393a: 19 00        	<unknown>
    393c: 00 01        	<unknown>
    393e: 01 09        	<unknown>
    3940: 1c 19        	<unknown>
    3942: 00 00        	<unknown>
    3944: 09 1c        	<unknown>
    3946: 19 00        	<unknown>
    3948: 00 00        	<unknown>
    394a: 21 f7        	<unknown>
    394c: 13 00 00 19  	li	zero, 0x190
    3950: eb 1c 19 00  	<unknown>
    3954: 00 01        	<unknown>
    3956: 01 09        	<unknown>
    3958: 1c 19        	<unknown>
    395a: 00 00        	<unknown>
    395c: 09 00        	<unknown>
    395e: 14 00        	<unknown>
    3960: 00 00        	<unknown>
    3962: 20 ff        	<unknown>
    3964: 13 00 00 19  	li	zero, 0x190
    3968: 38 01        	<unknown>
    396a: 1c 19        	<unknown>
    396c: 00 00        	<unknown>
    396e: 01 01        	<unknown>
    3970: 09 1c        	<unknown>
    3972: 19 00        	<unknown>
    3974: 00 09        	<unknown>
    3976: 1c 19        	<unknown>
    3978: 00 00        	<unknown>
    397a: 00 0a        	<unknown>
    397c: 86 39        	<unknown>
    397e: 00 00        	<unknown>
    3980: 39 14        	<unknown>
    3982: 00 00        	<unknown>
    3984: 1d 06        	<unknown>
    3986: 0a 91        	<unknown>
    3988: 39 00        	<unknown>
    398a: 00 37        	<unknown>
    398c: 14 00        	<unknown>
    398e: 00 1c        	<unknown>
    3990: 15 23        	<unknown>
    3992: 05 08        	<unknown>
    3994: 1c 0d        	<unknown>
    3996: 06 06        	<unknown>
    3998: 14 00        	<unknown>
    399a: 00 00        	<unknown>
    399c: 14 00        	<unknown>
    399e: 00 1c        	<unknown>
    39a0: 0f 02 23 00  	<unknown>
    39a4: 06 0e        	<unknown>
    39a6: 14 00        	<unknown>
    39a8: 00 b2        	<unknown>
    39aa: 39 00        	<unknown>
    39ac: 00 1c        	<unknown>
    39ae: 14 02        	<unknown>
    39b0: 23 04 30 05  	sb	s3, 0x48(zero)
    39b4: 04 1c        	<unknown>
    39b6: 10 06        	<unknown>
    39b8: 16 14        	<unknown>
    39ba: 00 00        	<unknown>
    39bc: ae 01        	<unknown>
    39be: 00 00        	<unknown>
    39c0: 1c 12        	<unknown>
    39c2: 02 23        	<unknown>
    39c4: 00 06        	<unknown>
    39c6: 1c 14        	<unknown>
    39c8: 00 00        	<unknown>
    39ca: d5 39        	<unknown>
    39cc: 00 00        	<unknown>
    39ce: 1c 13        	<unknown>
    39d0: 02 23        	<unknown>
    39d2: 00 00        	<unknown>
    39d4: 00 31        	<unknown>
    39d6: 26 19        	<unknown>
    39d8: 00 00        	<unknown>
    39da: 32 e1        	<unknown>
    39dc: 39 00        	<unknown>
    39de: 00 04        	<unknown>
    39e0: 00 33        	<unknown>
    39e2: 23 14 00 00  	sh	zero, 0x8(zero)
    39e6: 08 07        	<unknown>
    39e8: 0a ae        	<unknown>
    39ea: 01 00        	<unknown>
    39ec: 00 43        	<unknown>
    39ee: 14 00        	<unknown>
    39f0: 00 1f        	<unknown>
    39f2: 14 20        	<unknown>
    39f4: b2 0c        	<unknown>
    39f6: 00 00        	<unknown>
    39f8: 20 1c        	<unknown>
    39fa: 01 e8        	<unknown>
    39fc: 39 00        	<unknown>
    39fe: 00 01        	<unknown>
    3a00: 01 09        	<unknown>
    3a02: 00 14        	<unknown>
    3a04: 00 00        	<unknown>
    3a06: 00 20        	<unknown>
    3a08: 4a 14        	<unknown>
    3a0a: 00 00        	<unknown>
    3a0c: 20 d6        	<unknown>
    3a0e: 02 e8        	<unknown>
    3a10: 39 00        	<unknown>
    3a12: 00 01        	<unknown>
    3a14: 01 09        	<unknown>
    3a16: 1b 3a 00 00  	<unknown>
    3a1a: 00 0e        	<unknown>
    3a1c: 20 3a        	<unknown>
    3a1e: 00 00        	<unknown>
    3a20: 0a 6f        	<unknown>
    3a22: 30 00        	<unknown>
    3a24: 00 51        	<unknown>
    3a26: 14 00        	<unknown>
    3a28: 00 21        	<unknown>
    3a2a: 05 20        	<unknown>
    3a2c: 58 14        	<unknown>
    3a2e: 00 00        	<unknown>
    3a30: 20 f3        	<unknown>
    3a32: 02 9a        	<unknown>
    3a34: 27 00 00 01  	<unknown>
    3a38: 01 09        	<unknown>
    3a3a: 9a 27        	<unknown>
    3a3c: 00 00        	<unknown>
    3a3e: 09 00        	<unknown>
    3a40: 14 00        	<unknown>
    3a42: 00 09        	<unknown>
    3a44: 1b 3a 00 00  	<unknown>
    3a48: 00 20        	<unknown>
    3a4a: 5f 14 00 00  	<unknown>
    3a4e: 20 e4        	<unknown>
    3a50: 02 e8        	<unknown>
    3a52: 39 00        	<unknown>
    3a54: 00 01        	<unknown>
    3a56: 01 09        	<unknown>
    3a58: 9f 27 00 00  	<unknown>
    3a5c: 09 1b        	<unknown>
    3a5e: 3a 00        	<unknown>
    3a60: 00 00        	<unknown>
    3a62: 20 66        	<unknown>
    3a64: 14 00        	<unknown>
    3a66: 00 20        	<unknown>
    3a68: fa 02        	<unknown>
    3a6a: 00 14        	<unknown>
    3a6c: 00 00        	<unknown>
    3a6e: 01 01        	<unknown>
    3a70: 09 b4        	<unknown>
    3a72: 28 00        	<unknown>
    3a74: 00 09        	<unknown>
    3a76: 1b 3a 00 00  	<unknown>
    3a7a: 00 20        	<unknown>
    3a7c: 6d 14        	<unknown>
    3a7e: 00 00        	<unknown>
    3a80: 20 3d        	<unknown>
    3a82: 02 00        	<unknown>
    3a84: 14 00        	<unknown>
    3a86: 00 01        	<unknown>
    3a88: 01 09        	<unknown>
    3a8a: 1b 3a 00 00  	<unknown>
    3a8e: 09 00        	<unknown>
    3a90: 14 00        	<unknown>
    3a92: 00 00        	<unknown>
    3a94: 20 d1        	<unknown>
    3a96: 14 00        	<unknown>
    3a98: 00 20        	<unknown>
    3a9a: 44 02        	<unknown>
    3a9c: 00 14        	<unknown>
    3a9e: 00 00        	<unknown>
    3aa0: 01 01        	<unknown>
    3aa2: 09 1b        	<unknown>
    3aa4: 3a 00        	<unknown>
    3aa6: 00 09        	<unknown>
    3aa8: b4 28        	<unknown>
    3aaa: 00 00        	<unknown>
    3aac: 2d 00        	<unknown>
    3aae: 12 73        	<unknown>
    3ab0: 14 00        	<unknown>
    3ab2: 00 7c        	<unknown>
    3ab4: 14 00        	<unknown>
    3ab6: 00 20        	<unknown>
    3ab8: 80 02        	<unknown>
    3aba: 00 14        	<unknown>
    3abc: 00 00        	<unknown>
    3abe: 01 01        	<unknown>
    3ac0: 09 1b        	<unknown>
    3ac2: 3a 00        	<unknown>
    3ac4: 00 09        	<unknown>
    3ac6: b4 28        	<unknown>
    3ac8: 00 00        	<unknown>
    3aca: 2d 00        	<unknown>
    3acc: 20 4b        	<unknown>
    3ace: 14 00        	<unknown>
    3ad0: 00 20        	<unknown>
    3ad2: d7 02 e8 39  	<unknown>
    3ad6: 00 00        	<unknown>
    3ad8: 01 01        	<unknown>
    3ada: 09 1b        	<unknown>
    3adc: 3a 00        	<unknown>
    3ade: 00 00        	<unknown>
    3ae0: 2a 84        	<unknown>
    3ae2: 14 00        	<unknown>
    3ae4: 00 20        	<unknown>
    3ae6: dd 02        	<unknown>
    3ae8: e8 39        	<unknown>
    3aea: 00 00        	<unknown>
    3aec: 01 01        	<unknown>
    3aee: 20 8d        	<unknown>
    3af0: 14 00        	<unknown>
    3af2: 00 20        	<unknown>
    3af4: 33 01 83 26  	<unknown>
    3af8: 00 00        	<unknown>
    3afa: 01 01        	<unknown>
    3afc: 09 1c        	<unknown>
    3afe: 19 00        	<unknown>
    3b00: 00 09        	<unknown>
    3b02: 83 26 00 00  	lw	a3, 0x0(zero)
    3b06: 09 0c        	<unknown>
    3b08: 3b 00 00 00  	addw	zero, zero, zero
    3b0c: 0e 7b        	<unknown>
    3b0e: 39 00        	<unknown>
    3b10: 00 20        	<unknown>
    3b12: 94 14        	<unknown>
    3b14: 00 00        	<unknown>
    3b16: 20 28        	<unknown>
    3b18: 01 83        	<unknown>
    3b1a: 26 00        	<unknown>
    3b1c: 00 01        	<unknown>
    3b1e: 01 09        	<unknown>
    3b20: 9a 27        	<unknown>
    3b22: 00 00        	<unknown>
    3b24: 09 1c        	<unknown>
    3b26: 19 00        	<unknown>
    3b28: 00 09        	<unknown>
    3b2a: 83 26 00 00  	lw	a3, 0x0(zero)
    3b2e: 09 0c        	<unknown>
    3b30: 3b 00 00 00  	addw	zero, zero, zero
    3b34: 20 9c        	<unknown>
    3b36: 14 00        	<unknown>
    3b38: 00 20        	<unknown>
    3b3a: 24 01        	<unknown>
    3b3c: 00 14        	<unknown>
    3b3e: 00 00        	<unknown>
    3b40: 01 01        	<unknown>
    3b42: 09 48        	<unknown>
    3b44: 3b 00 00 00  	addw	zero, zero, zero
    3b48: 0e 4d        	<unknown>
    3b4a: 3b 00 00 14  	<unknown>
    3b4e: 7b 39 00 00  	<unknown>
    3b52: 20 a4        	<unknown>
    3b54: 14 00        	<unknown>
    3b56: 00 20        	<unknown>
    3b58: 51 01        	<unknown>
    3b5a: 83 26 00 00  	lw	a3, 0x0(zero)
    3b5e: 01 01        	<unknown>
    3b60: 09 9a        	<unknown>
    3b62: 27 00 00 09  	<unknown>
    3b66: 75 3b        	<unknown>
    3b68: 00 00        	<unknown>
    3b6a: 09 83        	<unknown>
    3b6c: 26 00        	<unknown>
    3b6e: 00 09        	<unknown>
    3b70: 0c 3b        	<unknown>
    3b72: 00 00        	<unknown>
    3b74: 00 0e        	<unknown>
    3b76: 1c 19        	<unknown>
    3b78: 00 00        	<unknown>
    3b7a: 20 60        	<unknown>
    3b7c: 14 00        	<unknown>
    3b7e: 00 20        	<unknown>
    3b80: e5 02        	<unknown>
    3b82: e8 39        	<unknown>
    3b84: 00 00        	<unknown>
    3b86: 01 01        	<unknown>
    3b88: 09 9f        	<unknown>
    3b8a: 27 00 00 09  	<unknown>
    3b8e: 1b 3a 00 00  	<unknown>
    3b92: 00 20        	<unknown>
    3b94: ae 14        	<unknown>
    3b96: 00 00        	<unknown>
    3b98: 20 eb        	<unknown>
    3b9a: 02 e8        	<unknown>
    3b9c: 39 00        	<unknown>
    3b9e: 00 01        	<unknown>
    3ba0: 01 09        	<unknown>
    3ba2: 9f 27 00 00  	<unknown>
    3ba6: 00 20        	<unknown>
    3ba8: ed 14        	<unknown>
    3baa: 00 00        	<unknown>
    3bac: 20 4e        	<unknown>
    3bae: 02 00        	<unknown>
    3bb0: 14 00        	<unknown>
    3bb2: 00 01        	<unknown>
    3bb4: 01 09        	<unknown>
    3bb6: 9a 27        	<unknown>
    3bb8: 00 00        	<unknown>
    3bba: 09 83        	<unknown>
    3bbc: 26 00        	<unknown>
    3bbe: 00 09        	<unknown>
    3bc0: b4 28        	<unknown>
    3bc2: 00 00        	<unknown>
    3bc4: 2d 00        	<unknown>
    3bc6: 12 b7        	<unknown>
    3bc8: 14 00        	<unknown>
    3bca: 00 c0        	<unknown>
    3bcc: 14 00        	<unknown>
    3bce: 00 20        	<unknown>
    3bd0: 87 02 00 14  	<unknown>
    3bd4: 00 00        	<unknown>
    3bd6: 01 01        	<unknown>
    3bd8: 09 b4        	<unknown>
    3bda: 28 00        	<unknown>
    3bdc: 00 09        	<unknown>
    3bde: b4 28        	<unknown>
    3be0: 00 00        	<unknown>
    3be2: 2d 00        	<unknown>
    3be4: 20 c8        	<unknown>
    3be6: 14 00        	<unknown>
    3be8: 00 20        	<unknown>
    3bea: 02 03        	<unknown>
    3bec: e8 39        	<unknown>
    3bee: 00 00        	<unknown>
    3bf0: 01 01        	<unknown>
    3bf2: 09 e8        	<unknown>
    3bf4: 39 00        	<unknown>
    3bf6: 00 09        	<unknown>
    3bf8: 1b 3a 00 00  	<unknown>
    3bfc: 00 20        	<unknown>
    3bfe: d0 14        	<unknown>
    3c00: 00 00        	<unknown>
    3c02: 20 56        	<unknown>
    3c04: 02 00        	<unknown>
    3c06: 14 00        	<unknown>
    3c08: 00 01        	<unknown>
    3c0a: 01 09        	<unknown>
    3c0c: 1b 3a 00 00  	<unknown>
    3c10: 09 b4        	<unknown>
    3c12: 28 00        	<unknown>
    3c14: 00 09        	<unknown>
    3c16: 35 34        	<unknown>
    3c18: 00 00        	<unknown>
    3c1a: 00 12        	<unknown>
    3c1c: da 14        	<unknown>
    3c1e: 00 00        	<unknown>
    3c20: e3 14 00 00  	bnez	zero, 0x4428 <.debug_info+0x4428>
    3c24: 20 b5        	<unknown>
    3c26: 02 00        	<unknown>
    3c28: 14 00        	<unknown>
    3c2a: 00 01        	<unknown>
    3c2c: 01 09        	<unknown>
    3c2e: 1b 3a 00 00  	<unknown>
    3c32: 09 b4        	<unknown>
    3c34: 28 00        	<unknown>
    3c36: 00 09        	<unknown>
    3c38: 35 34        	<unknown>
    3c3a: 00 00        	<unknown>
    3c3c: 00 20        	<unknown>
    3c3e: ec 14        	<unknown>
    3c40: 00 00        	<unknown>
    3c42: 20 63        	<unknown>
    3c44: 02 00        	<unknown>
    3c46: 14 00        	<unknown>
    3c48: 00 01        	<unknown>
    3c4a: 01 09        	<unknown>
    3c4c: 9a 27        	<unknown>
    3c4e: 00 00        	<unknown>
    3c50: 09 83        	<unknown>
    3c52: 26 00        	<unknown>
    3c54: 00 09        	<unknown>
    3c56: b4 28        	<unknown>
    3c58: 00 00        	<unknown>
    3c5a: 09 35        	<unknown>
    3c5c: 34 00        	<unknown>
    3c5e: 00 00        	<unknown>
    3c60: 12 f6        	<unknown>
    3c62: 14 00        	<unknown>
    3c64: 00 ff        	<unknown>
    3c66: 14 00        	<unknown>
    3c68: 00 20        	<unknown>
    3c6a: bc 02        	<unknown>
    3c6c: 00 14        	<unknown>
    3c6e: 00 00        	<unknown>
    3c70: 01 01        	<unknown>
    3c72: 09 b4        	<unknown>
    3c74: 28 00        	<unknown>
    3c76: 00 09        	<unknown>
    3c78: b4 28        	<unknown>
    3c7a: 00 00        	<unknown>
    3c7c: 09 35        	<unknown>
    3c7e: 34 00        	<unknown>
    3c80: 00 00        	<unknown>
    3c82: 20 08        	<unknown>
    3c84: 15 00        	<unknown>
    3c86: 00 20        	<unknown>
    3c88: 5e 02        	<unknown>
    3c8a: 00 14        	<unknown>
    3c8c: 00 00        	<unknown>
    3c8e: 01 01        	<unknown>
    3c90: 09 b4        	<unknown>
    3c92: 28 00        	<unknown>
    3c94: 00 09        	<unknown>
    3c96: 35 34        	<unknown>
    3c98: 00 00        	<unknown>
    3c9a: 00 12        	<unknown>
    3c9c: 11 15        	<unknown>
    3c9e: 00 00        	<unknown>
    3ca0: 1a 15        	<unknown>
    3ca2: 00 00        	<unknown>
    3ca4: 20 b9        	<unknown>
    3ca6: 02 00        	<unknown>
    3ca8: 14 00        	<unknown>
    3caa: 00 01        	<unknown>
    3cac: 01 09        	<unknown>
    3cae: b4 28        	<unknown>
    3cb0: 00 00        	<unknown>
    3cb2: 09 35        	<unknown>
    3cb4: 34 00        	<unknown>
    3cb6: 00 00        	<unknown>
    3cb8: 20 22        	<unknown>
    3cba: 15 00        	<unknown>
    3cbc: 00 20        	<unknown>
    3cbe: 2d 01        	<unknown>
    3cc0: 83 26 00 00  	lw	a3, 0x0(zero)
    3cc4: 01 01        	<unknown>
    3cc6: 09 1d        	<unknown>
    3cc8: 27 00 00 09  	<unknown>
    3ccc: 9f 27 00 00  	<unknown>
    3cd0: 09 0c        	<unknown>
    3cd2: 3b 00 00 00  	addw	zero, zero, zero
    3cd6: 21 2a        	<unknown>
    3cd8: 15 00        	<unknown>
    3cda: 00 20        	<unknown>
    3cdc: 61 9a        	<unknown>
    3cde: 27 00 00 01  	<unknown>
    3ce2: 01 09        	<unknown>
    3ce4: 9a 27        	<unknown>
    3ce6: 00 00        	<unknown>
    3ce8: 09 b4        	<unknown>
    3cea: 28 00        	<unknown>
    3cec: 00 00        	<unknown>
    3cee: 21 31        	<unknown>
    3cf0: 15 00        	<unknown>
    3cf2: 00 20        	<unknown>
    3cf4: 6a 00        	<unknown>
    3cf6: 14 00        	<unknown>
    3cf8: 00 01        	<unknown>
    3cfa: 01 09        	<unknown>
    3cfc: b4 28        	<unknown>
    3cfe: 00 00        	<unknown>
    3d00: 09 b4        	<unknown>
    3d02: 28 00        	<unknown>
    3d04: 00 00        	<unknown>
    3d06: 21 38        	<unknown>
    3d08: 15 00        	<unknown>
    3d0a: 00 20        	<unknown>
    3d0c: 83 00 14 00  	lb	ra, 0x1(s0)
    3d10: 00 01        	<unknown>
    3d12: 01 09        	<unknown>
    3d14: b4 28        	<unknown>
    3d16: 00 00        	<unknown>
    3d18: 09 b4        	<unknown>
    3d1a: 28 00        	<unknown>
    3d1c: 00 00        	<unknown>
    3d1e: 21 40        	<unknown>
    3d20: 15 00        	<unknown>
    3d22: 00 20        	<unknown>
    3d24: 57 9a 27 00  	<unknown>
    3d28: 00 01        	<unknown>
    3d2a: 01 09        	<unknown>
    3d2c: 9a 27        	<unknown>
    3d2e: 00 00        	<unknown>
    3d30: 09 b4        	<unknown>
    3d32: 28 00        	<unknown>
    3d34: 00 00        	<unknown>
    3d36: 21 47        	<unknown>
    3d38: 15 00        	<unknown>
    3d3a: 00 20        	<unknown>
    3d3c: bb 83 26 00  	addw	t2, a3, sp
    3d40: 00 01        	<unknown>
    3d42: 01 09        	<unknown>
    3d44: b4 28        	<unknown>
    3d46: 00 00        	<unknown>
    3d48: 09 b4        	<unknown>
    3d4a: 28 00        	<unknown>
    3d4c: 00 00        	<unknown>
    3d4e: 20 4f        	<unknown>
    3d50: 15 00        	<unknown>
    3d52: 00 20        	<unknown>
    3d54: 42 03        	<unknown>
    3d56: 83 26 00 00  	lw	a3, 0x0(zero)
    3d5a: 01 01        	<unknown>
    3d5c: 09 9a        	<unknown>
    3d5e: 27 00 00 09  	<unknown>
    3d62: 83 26 00 00  	lw	a3, 0x0(zero)
    3d66: 09 b4        	<unknown>
    3d68: 28 00        	<unknown>
    3d6a: 00 09        	<unknown>
    3d6c: 71 3d        	<unknown>
    3d6e: 00 00        	<unknown>
    3d70: 00 0e        	<unknown>
    3d72: 76 3d        	<unknown>
    3d74: 00 00        	<unknown>
    3d76: 14 7b        	<unknown>
    3d78: 3d 00        	<unknown>
    3d7a: 00 2c        	<unknown>
    3d7c: 58 15        	<unknown>
    3d7e: 00 00        	<unknown>
    3d80: 01 21        	<unknown>
    3d82: 5b 15 00 00  	<unknown>
    3d86: 20 de        	<unknown>
    3d88: 83 26 00 00  	lw	a3, 0x0(zero)
    3d8c: 01 01        	<unknown>
    3d8e: 09 b4        	<unknown>
    3d90: 28 00        	<unknown>
    3d92: 00 00        	<unknown>
    3d94: 21 62        	<unknown>
    3d96: 15 00        	<unknown>
    3d98: 00 20        	<unknown>
    3d9a: 65 9a        	<unknown>
    3d9c: 27 00 00 01  	<unknown>
    3da0: 01 09        	<unknown>
    3da2: 9a 27        	<unknown>
    3da4: 00 00        	<unknown>
    3da6: 09 b4        	<unknown>
    3da8: 28 00        	<unknown>
    3daa: 00 09        	<unknown>
    3dac: 83 26 00 00  	lw	a3, 0x0(zero)
    3db0: 00 21        	<unknown>
    3db2: 6a 15        	<unknown>
    3db4: 00 00        	<unknown>
    3db6: 20 6d        	<unknown>
    3db8: 00 14        	<unknown>
    3dba: 00 00        	<unknown>
    3dbc: 01 01        	<unknown>
    3dbe: 09 b4        	<unknown>
    3dc0: 28 00        	<unknown>
    3dc2: 00 09        	<unknown>
    3dc4: b4 28        	<unknown>
    3dc6: 00 00        	<unknown>
    3dc8: 09 83        	<unknown>
    3dca: 26 00        	<unknown>
    3dcc: 00 00        	<unknown>
    3dce: 21 72        	<unknown>
    3dd0: 15 00        	<unknown>
    3dd2: 00 20        	<unknown>
    3dd4: 5c 9a        	<unknown>
    3dd6: 27 00 00 01  	<unknown>
    3dda: 01 09        	<unknown>
    3ddc: 9a 27        	<unknown>
    3dde: 00 00        	<unknown>
    3de0: 09 b4        	<unknown>
    3de2: 28 00        	<unknown>
    3de4: 00 09        	<unknown>
    3de6: 83 26 00 00  	lw	a3, 0x0(zero)
    3dea: 00 20        	<unknown>
    3dec: 7a 15        	<unknown>
    3dee: 00 00        	<unknown>
    3df0: 20 57        	<unknown>
    3df2: 01 83        	<unknown>
    3df4: 26 00        	<unknown>
    3df6: 00 01        	<unknown>
    3df8: 01 09        	<unknown>
    3dfa: 1d 27        	<unknown>
    3dfc: 00 00        	<unknown>
    3dfe: 09 0e        	<unknown>
    3e00: 3e 00        	<unknown>
    3e02: 00 09        	<unknown>
    3e04: 83 26 00 00  	lw	a3, 0x0(zero)
    3e08: 09 0c        	<unknown>
    3e0a: 3b 00 00 00  	addw	zero, zero, zero
    3e0e: 0e b4        	<unknown>
    3e10: 28 00        	<unknown>
    3e12: 00 21        	<unknown>
    3e14: 84 15        	<unknown>
    3e16: 00 00        	<unknown>
    3e18: 20 bf        	<unknown>
    3e1a: 83 26 00 00  	lw	a3, 0x0(zero)
    3e1e: 01 01        	<unknown>
    3e20: 09 b4        	<unknown>
    3e22: 28 00        	<unknown>
    3e24: 00 09        	<unknown>
    3e26: b4 28        	<unknown>
    3e28: 00 00        	<unknown>
    3e2a: 00 20        	<unknown>
    3e2c: 8b 15 00 00  	<unknown>
    3e30: 20 79        	<unknown>
    3e32: 01 15        	<unknown>
    3e34: 19 00        	<unknown>
    3e36: 00 01        	<unknown>
    3e38: 01 09        	<unknown>
    3e3a: b4 28        	<unknown>
    3e3c: 00 00        	<unknown>
    3e3e: 09 44        	<unknown>
    3e40: 3e 00        	<unknown>
    3e42: 00 00        	<unknown>
    3e44: 0e 9a        	<unknown>
    3e46: 27 00 00 20  	<unknown>
    3e4a: 92 15        	<unknown>
    3e4c: 00 00        	<unknown>
    3e4e: 20 7e        	<unknown>
    3e50: 01 1d        	<unknown>
    3e52: 14 00        	<unknown>
    3e54: 00 01        	<unknown>
    3e56: 01 09        	<unknown>
    3e58: b4 28        	<unknown>
    3e5a: 00 00        	<unknown>
    3e5c: 09 44        	<unknown>
    3e5e: 3e 00        	<unknown>
    3e60: 00 00        	<unknown>
    3e62: 21 99        	<unknown>
    3e64: 15 00        	<unknown>
    3e66: 00 20        	<unknown>
    3e68: d9 9a        	<unknown>
    3e6a: 27 00 00 01  	<unknown>
    3e6e: 01 09        	<unknown>
    3e70: 9a 27        	<unknown>
    3e72: 00 00        	<unknown>
    3e74: 09 b4        	<unknown>
    3e76: 28 00        	<unknown>
    3e78: 00 09        	<unknown>
    3e7a: 44 3e        	<unknown>
    3e7c: 00 00        	<unknown>
    3e7e: 00 20        	<unknown>
    3e80: a0 15        	<unknown>
    3e82: 00 00        	<unknown>
    3e84: 20 ac        	<unknown>
    3e86: 01 c4        	<unknown>
    3e88: 17 00 00 01  	auipc	zero, 0x1000
    3e8c: 01 09        	<unknown>
    3e8e: b4 28        	<unknown>
    3e90: 00 00        	<unknown>
    3e92: 09 44        	<unknown>
    3e94: 3e 00        	<unknown>
    3e96: 00 09        	<unknown>
    3e98: 00 14        	<unknown>
    3e9a: 00 00        	<unknown>
    3e9c: 00 20        	<unknown>
    3e9e: a7 15 00 00  	<unknown>
    3ea2: 20 b1        	<unknown>
    3ea4: 01 8e        	<unknown>
    3ea6: 26 00        	<unknown>
    3ea8: 00 01        	<unknown>
    3eaa: 01 09        	<unknown>
    3eac: b4 28        	<unknown>
    3eae: 00 00        	<unknown>
    3eb0: 09 44        	<unknown>
    3eb2: 3e 00        	<unknown>
    3eb4: 00 09        	<unknown>
    3eb6: 00 14        	<unknown>
    3eb8: 00 00        	<unknown>
    3eba: 00 21        	<unknown>
    3ebc: af 15 00 00  	<unknown>
    3ec0: 20 87        	<unknown>
    3ec2: 83 26 00 00  	lw	a3, 0x0(zero)
    3ec6: 01 01        	<unknown>
    3ec8: 09 9a        	<unknown>
    3eca: 27 00 00 09  	<unknown>
    3ece: b4 28        	<unknown>
    3ed0: 00 00        	<unknown>
    3ed2: 09 83        	<unknown>
    3ed4: 26 00        	<unknown>
    3ed6: 00 00        	<unknown>
    3ed8: 20 b7        	<unknown>
    3eda: 15 00        	<unknown>
    3edc: 00 20        	<unknown>
    3ede: 20 01        	<unknown>
    3ee0: 00 14        	<unknown>
    3ee2: 00 00        	<unknown>
    3ee4: 01 01        	<unknown>
    3ee6: 09 e8        	<unknown>
    3ee8: 39 00        	<unknown>
    3eea: 00 00        	<unknown>
    3eec: 20 bd        	<unknown>
    3eee: 15 00        	<unknown>
    3ef0: 00 20        	<unknown>
    3ef2: 02 01        	<unknown>
    3ef4: 00 14        	<unknown>
    3ef6: 00 00        	<unknown>
    3ef8: 01 01        	<unknown>
    3efa: 09 b4        	<unknown>
    3efc: 28 00        	<unknown>
    3efe: 00 09        	<unknown>
    3f00: b4 28        	<unknown>
    3f02: 00 00        	<unknown>
    3f04: 09 83        	<unknown>
    3f06: 26 00        	<unknown>
    3f08: 00 00        	<unknown>
    3f0a: 20 c5        	<unknown>
    3f0c: 15 00        	<unknown>
    3f0e: 00 20        	<unknown>
    3f10: 06 01        	<unknown>
    3f12: 9a 27        	<unknown>
    3f14: 00 00        	<unknown>
    3f16: 01 01        	<unknown>
    3f18: 09 9a        	<unknown>
    3f1a: 27 00 00 09  	<unknown>
    3f1e: b4 28        	<unknown>
    3f20: 00 00        	<unknown>
    3f22: 09 83        	<unknown>
    3f24: 26 00        	<unknown>
    3f26: 00 00        	<unknown>
    3f28: 20 cd        	<unknown>
    3f2a: 15 00        	<unknown>
    3f2c: 00 20        	<unknown>
    3f2e: 0b 01 9a 27  	<unknown>
    3f32: 00 00        	<unknown>
    3f34: 01 01        	<unknown>
    3f36: 09 9a        	<unknown>
    3f38: 27 00 00 09  	<unknown>
    3f3c: b4 28        	<unknown>
    3f3e: 00 00        	<unknown>
    3f40: 09 83        	<unknown>
    3f42: 26 00        	<unknown>
    3f44: 00 00        	<unknown>
    3f46: 20 d6        	<unknown>
    3f48: 15 00        	<unknown>
    3f4a: 00 20        	<unknown>
    3f4c: 0f 01 9a 27  	<unknown>
    3f50: 00 00        	<unknown>
    3f52: 01 01        	<unknown>
    3f54: 09 9a        	<unknown>
    3f56: 27 00 00 09  	<unknown>
    3f5a: 9f 27 00 00  	<unknown>
    3f5e: 09 83        	<unknown>
    3f60: 26 00        	<unknown>
    3f62: 00 00        	<unknown>
    3f64: 20 d2        	<unknown>
    3f66: 14 00        	<unknown>
    3f68: 00 20        	<unknown>
    3f6a: 4b 02 00 14  	<unknown>
    3f6e: 00 00        	<unknown>
    3f70: 01 01        	<unknown>
    3f72: 09 b4        	<unknown>
    3f74: 28 00        	<unknown>
    3f76: 00 2d        	<unknown>
    3f78: 00 12        	<unknown>
    3f7a: de 15        	<unknown>
    3f7c: 00 00        	<unknown>
    3f7e: e7 15 00 00  	<unknown>
    3f82: 20 84        	<unknown>
    3f84: 02 00        	<unknown>
    3f86: 14 00        	<unknown>
    3f88: 00 01        	<unknown>
    3f8a: 01 09        	<unknown>
    3f8c: b4 28        	<unknown>
    3f8e: 00 00        	<unknown>
    3f90: 2d 00        	<unknown>
    3f92: 21 ee        	<unknown>
    3f94: 15 00        	<unknown>
    3f96: 00 20        	<unknown>
    3f98: a4 9a        	<unknown>
    3f9a: 27 00 00 01  	<unknown>
    3f9e: 01 09        	<unknown>
    3fa0: b4 28        	<unknown>
    3fa2: 00 00        	<unknown>
    3fa4: 09 9f        	<unknown>
    3fa6: 27 00 00 00  	<unknown>
    3faa: 21 f5        	<unknown>
    3fac: 15 00        	<unknown>
    3fae: 00 20        	<unknown>
    3fb0: c9 9a        	<unknown>
    3fb2: 27 00 00 01  	<unknown>
    3fb6: 01 09        	<unknown>
    3fb8: b4 28        	<unknown>
    3fba: 00 00        	<unknown>
    3fbc: 09 b4        	<unknown>
    3fbe: 28 00        	<unknown>
    3fc0: 00 00        	<unknown>
    3fc2: 21 fd        	<unknown>
    3fc4: 15 00        	<unknown>
    3fc6: 00 20        	<unknown>
    3fc8: ae 9a        	<unknown>
    3fca: 27 00 00 01  	<unknown>
    3fce: 01 09        	<unknown>
    3fd0: b4 28        	<unknown>
    3fd2: 00 00        	<unknown>
    3fd4: 09 9f        	<unknown>
    3fd6: 27 00 00 00  	<unknown>
    3fda: 21 05        	<unknown>
    3fdc: 16 00        	<unknown>
    3fde: 00 20        	<unknown>
    3fe0: d4 9a        	<unknown>
    3fe2: 27 00 00 01  	<unknown>
    3fe6: 01 09        	<unknown>
    3fe8: b4 28        	<unknown>
    3fea: 00 00        	<unknown>
    3fec: 09 b4        	<unknown>
    3fee: 28 00        	<unknown>
    3ff0: 00 00        	<unknown>
    3ff2: 21 0c        	<unknown>
    3ff4: 16 00        	<unknown>
    3ff6: 00 20        	<unknown>
    3ff8: fd 9a        	<unknown>
    3ffa: 27 00 00 01  	<unknown>
    3ffe: 01 09        	<unknown>
    4000: b4 28        	<unknown>
    4002: 00 00        	<unknown>
    4004: 09 9f        	<unknown>
    4006: 27 00 00 09  	<unknown>
    400a: 83 26 00 00  	lw	a3, 0x0(zero)
    400e: 00 20        	<unknown>
    4010: 14 16        	<unknown>
    4012: 00 00        	<unknown>
    4014: 20 80        	<unknown>
    4016: 01 04        	<unknown>
    4018: 1d 00        	<unknown>
    401a: 00 01        	<unknown>
    401c: 01 09        	<unknown>
    401e: b4 28        	<unknown>
    4020: 00 00        	<unknown>
    4022: 09 44        	<unknown>
    4024: 3e 00        	<unknown>
    4026: 00 00        	<unknown>
    4028: 20 1c        	<unknown>
    402a: 16 00        	<unknown>
    402c: 00 20        	<unknown>
    402e: b9 01        	<unknown>
    4030: 12 18        	<unknown>
    4032: 00 00        	<unknown>
    4034: 01 01        	<unknown>
    4036: 09 b4        	<unknown>
    4038: 28 00        	<unknown>
    403a: 00 09        	<unknown>
    403c: 44 3e        	<unknown>
    403e: 00 00        	<unknown>
    4040: 09 00        	<unknown>
    4042: 14 00        	<unknown>
    4044: 00 00        	<unknown>
    4046: 20 24        	<unknown>
    4048: 16 00        	<unknown>
    404a: 00 20        	<unknown>
    404c: c0 01        	<unknown>
    404e: 1b 01 00 00  	sext.w	sp, zero
    4052: 01 01        	<unknown>
    4054: 09 b4        	<unknown>
    4056: 28 00        	<unknown>
    4058: 00 09        	<unknown>
    405a: 44 3e        	<unknown>
    405c: 00 00        	<unknown>
    405e: 09 00        	<unknown>
    4060: 14 00        	<unknown>
    4062: 00 00        	<unknown>
    4064: 2c 2d        	<unknown>
    4066: 16 00        	<unknown>
    4068: 00 01        	<unknown>
    406a: 21 33        	<unknown>
    406c: 16 00        	<unknown>
    406e: 00 23        	<unknown>
    4070: 7a 1d        	<unknown>
    4072: 27 00 00 01  	<unknown>
    4076: 01 09        	<unknown>
    4078: 00 14        	<unknown>
    407a: 00 00        	<unknown>
    407c: 09 1c        	<unknown>
    407e: 19 00        	<unknown>
    4080: 00 00        	<unknown>
    4082: 2e 3d        	<unknown>
    4084: 16 00        	<unknown>
    4086: 00 23        	<unknown>
    4088: 7d 8f        	<unknown>
    408a: 40 00        	<unknown>
    408c: 00 01        	<unknown>
    408e: 01 0e        	<unknown>
    4090: 64 40        	<unknown>
    4092: 00 00        	<unknown>
    4094: 21 48        	<unknown>
    4096: 16 00        	<unknown>
    4098: 00 24        	<unknown>
    409a: 6c 00        	<unknown>
    409c: 14 00        	<unknown>
    409e: 00 01        	<unknown>
    40a0: 01 09        	<unknown>
    40a2: 00 14        	<unknown>
    40a4: 00 00        	<unknown>
    40a6: 00 21        	<unknown>
    40a8: 50 16        	<unknown>
    40aa: 00 00        	<unknown>
    40ac: 24 6d        	<unknown>
    40ae: 00 14        	<unknown>
    40b0: 00 00        	<unknown>
    40b2: 01 01        	<unknown>
    40b4: 09 00        	<unknown>
    40b6: 14 00        	<unknown>
    40b8: 00 00        	<unknown>
    40ba: 21 58        	<unknown>
    40bc: 16 00        	<unknown>
    40be: 00 24        	<unknown>
    40c0: 6e 00        	<unknown>
    40c2: 14 00        	<unknown>
    40c4: 00 01        	<unknown>
    40c6: 01 09        	<unknown>
    40c8: 00 14        	<unknown>
    40ca: 00 00        	<unknown>
    40cc: 00 21        	<unknown>
    40ce: 60 16        	<unknown>
    40d0: 00 00        	<unknown>
    40d2: 24 6f        	<unknown>
    40d4: 00 14        	<unknown>
    40d6: 00 00        	<unknown>
    40d8: 01 01        	<unknown>
    40da: 09 00        	<unknown>
    40dc: 14 00        	<unknown>
    40de: 00 00        	<unknown>
    40e0: 21 68        	<unknown>
    40e2: 16 00        	<unknown>
    40e4: 00 24        	<unknown>
    40e6: 71 00        	<unknown>
    40e8: 14 00        	<unknown>
    40ea: 00 01        	<unknown>
    40ec: 01 09        	<unknown>
    40ee: 00 14        	<unknown>
    40f0: 00 00        	<unknown>
    40f2: 00 21        	<unknown>
    40f4: 70 16        	<unknown>
    40f6: 00 00        	<unknown>
    40f8: 24 70        	<unknown>
    40fa: 00 14        	<unknown>
    40fc: 00 00        	<unknown>
    40fe: 01 01        	<unknown>
    4100: 09 00        	<unknown>
    4102: 14 00        	<unknown>
    4104: 00 00        	<unknown>
    4106: 21 78        	<unknown>
    4108: 16 00        	<unknown>
    410a: 00 24        	<unknown>
    410c: 72 00        	<unknown>
    410e: 14 00        	<unknown>
    4110: 00 01        	<unknown>
    4112: 01 09        	<unknown>
    4114: 00 14        	<unknown>
    4116: 00 00        	<unknown>
    4118: 00 21        	<unknown>
    411a: 80 16        	<unknown>
    411c: 00 00        	<unknown>
    411e: 24 73        	<unknown>
    4120: 00 14        	<unknown>
    4122: 00 00        	<unknown>
    4124: 01 01        	<unknown>
    4126: 09 00        	<unknown>
    4128: 14 00        	<unknown>
    412a: 00 00        	<unknown>
    412c: 21 88        	<unknown>
    412e: 16 00        	<unknown>
    4130: 00 24        	<unknown>
    4132: 74 00        	<unknown>
    4134: 14 00        	<unknown>
    4136: 00 01        	<unknown>
    4138: 01 09        	<unknown>
    413a: 00 14        	<unknown>
    413c: 00 00        	<unknown>
    413e: 00 21        	<unknown>
    4140: 90 16        	<unknown>
    4142: 00 00        	<unknown>
    4144: 24 75        	<unknown>
    4146: 00 14        	<unknown>
    4148: 00 00        	<unknown>
    414a: 01 01        	<unknown>
    414c: 09 00        	<unknown>
    414e: 14 00        	<unknown>
    4150: 00 00        	<unknown>
    4152: 21 98        	<unknown>
    4154: 16 00        	<unknown>
    4156: 00 24        	<unknown>
    4158: 76 00        	<unknown>
    415a: 14 00        	<unknown>
    415c: 00 01        	<unknown>
    415e: 01 09        	<unknown>
    4160: 00 14        	<unknown>
    4162: 00 00        	<unknown>
    4164: 00 21        	<unknown>
    4166: a1 16        	<unknown>
    4168: 00 00        	<unknown>
    416a: 24 7a        	<unknown>
    416c: 00 14        	<unknown>
    416e: 00 00        	<unknown>
    4170: 01 01        	<unknown>
    4172: 09 00        	<unknown>
    4174: 14 00        	<unknown>
    4176: 00 00        	<unknown>
    4178: 21 a9        	<unknown>
    417a: 16 00        	<unknown>
    417c: 00 24        	<unknown>
    417e: 7d 00        	<unknown>
    4180: 14 00        	<unknown>
    4182: 00 01        	<unknown>
    4184: 01 09        	<unknown>
    4186: 00 14        	<unknown>
    4188: 00 00        	<unknown>
    418a: 00 21        	<unknown>
    418c: b1 16        	<unknown>
    418e: 00 00        	<unknown>
    4190: 24 82        	<unknown>
    4192: 00 14        	<unknown>
    4194: 00 00        	<unknown>
    4196: 01 01        	<unknown>
    4198: 09 00        	<unknown>
    419a: 14 00        	<unknown>
    419c: 00 00        	<unknown>
    419e: 02 b9        	<unknown>
    41a0: 16 00        	<unknown>
    41a2: 00 34        	<unknown>
    41a4: 26 3a        	<unknown>
    41a6: b0 12        	<unknown>
    41a8: 00 00        	<unknown>
    41aa: 00 19        	<unknown>
    41ac: ba 12        	<unknown>
    41ae: 00 00        	<unknown>
    41b0: 0a bb        	<unknown>
    41b2: 41 00        	<unknown>
    41b4: 00 64        	<unknown>
    41b6: 17 00 00 28  	auipc	zero, 0x28000
    41ba: 30 0e        	<unknown>
    41bc: c0 41        	<unknown>
    41be: 00 00        	<unknown>
    41c0: 14 68        	<unknown>
    41c2: 35 00        	<unknown>
    41c4: 00 0a        	<unknown>
    41c6: 8e 26        	<unknown>
    41c8: 00 00        	<unknown>
    41ca: 6e 17        	<unknown>
    41cc: 00 00        	<unknown>
    41ce: 2a 26        	<unknown>
    41d0: 21 77        	<unknown>
    41d2: 17 00 00 2a  	auipc	zero, 0x2a000
    41d6: 5f 00 14 00  	<unknown>
    41da: 00 01        	<unknown>
    41dc: 01 09        	<unknown>
    41de: e8 39        	<unknown>
    41e0: 00 00        	<unknown>
    41e2: 00 21        	<unknown>
    41e4: 80 17        	<unknown>
    41e6: 00 00        	<unknown>
    41e8: 2a 65        	<unknown>
    41ea: 00 14        	<unknown>
    41ec: 00 00        	<unknown>
    41ee: 01 01        	<unknown>
    41f0: 09 e8        	<unknown>
    41f2: 39 00        	<unknown>
    41f4: 00 00        	<unknown>
    41f6: 21 89        	<unknown>
    41f8: 17 00 00 2a  	auipc	zero, 0x2a000
    41fc: 92 00        	<unknown>
    41fe: 14 00        	<unknown>
    4200: 00 01        	<unknown>
    4202: 01 09        	<unknown>
    4204: e8 39        	<unknown>
    4206: 00 00        	<unknown>
    4208: 00 21        	<unknown>
    420a: 92 17        	<unknown>
    420c: 00 00        	<unknown>
    420e: 2a 68        	<unknown>
    4210: 00 14        	<unknown>
    4212: 00 00        	<unknown>
    4214: 01 01        	<unknown>
    4216: 09 e8        	<unknown>
    4218: 39 00        	<unknown>
    421a: 00 00        	<unknown>
    421c: 21 9b        	<unknown>
    421e: 17 00 00 2a  	auipc	zero, 0x2a000
    4222: 9f 00 14 00  	<unknown>
    4226: 00 01        	<unknown>
    4228: 01 09        	<unknown>
    422a: e8 39        	<unknown>
    422c: 00 00        	<unknown>
    422e: 09 c5        	<unknown>
    4230: 41 00        	<unknown>
    4232: 00 00        	<unknown>
    4234: 21 a4        	<unknown>
    4236: 17 00 00 2a  	auipc	zero, 0x2a000
    423a: 6c 00        	<unknown>
    423c: 14 00        	<unknown>
    423e: 00 01        	<unknown>
    4240: 01 09        	<unknown>
    4242: e8 39        	<unknown>
    4244: 00 00        	<unknown>
    4246: 00 21        	<unknown>
    4248: ad 17        	<unknown>
    424a: 00 00        	<unknown>
    424c: 2a 70        	<unknown>
    424e: 00 14        	<unknown>
    4250: 00 00        	<unknown>
    4252: 01 01        	<unknown>
    4254: 09 e8        	<unknown>
    4256: 39 00        	<unknown>
    4258: 00 00        	<unknown>
    425a: 21 b6        	<unknown>
    425c: 17 00 00 2a  	auipc	zero, 0x2a000
    4260: 75 00        	<unknown>
    4262: 14 00        	<unknown>
    4264: 00 01        	<unknown>
    4266: 01 09        	<unknown>
    4268: e8 39        	<unknown>
    426a: 00 00        	<unknown>
    426c: 00 21        	<unknown>
    426e: bf 17 00 00  	<unknown>
    4272: 2a 78        	<unknown>
    4274: 00 14        	<unknown>
    4276: 00 00        	<unknown>
    4278: 01 01        	<unknown>
    427a: 09 e8        	<unknown>
    427c: 39 00        	<unknown>
    427e: 00 00        	<unknown>
    4280: 21 c8        	<unknown>
    4282: 17 00 00 2a  	auipc	zero, 0x2a000
    4286: 7d 00        	<unknown>
    4288: 14 00        	<unknown>
    428a: 00 01        	<unknown>
    428c: 01 09        	<unknown>
    428e: e8 39        	<unknown>
    4290: 00 00        	<unknown>
    4292: 00 21        	<unknown>
    4294: d1 17        	<unknown>
    4296: 00 00        	<unknown>
    4298: 2a 82        	<unknown>
    429a: 00 14        	<unknown>
    429c: 00 00        	<unknown>
    429e: 01 01        	<unknown>
    42a0: 09 e8        	<unknown>
    42a2: 39 00        	<unknown>
    42a4: 00 00        	<unknown>
    42a6: 21 da        	<unknown>
    42a8: 17 00 00 2a  	auipc	zero, 0x2a000
    42ac: 87 00 14 00  	<unknown>
    42b0: 00 01        	<unknown>
    42b2: 01 09        	<unknown>
    42b4: e8 39        	<unknown>
    42b6: 00 00        	<unknown>
    42b8: 00 21        	<unknown>
    42ba: e3 17 00 00  	bnez	zero, 0x4ac8 <.debug_info+0x4ac8>
    42be: 2a 8c        	<unknown>
    42c0: 00 14        	<unknown>
    42c2: 00 00        	<unknown>
    42c4: 01 01        	<unknown>
    42c6: 09 e8        	<unknown>
    42c8: 39 00        	<unknown>
    42ca: 00 00        	<unknown>
    42cc: 21 ed        	<unknown>
    42ce: 17 00 00 28  	auipc	zero, 0x28000
    42d2: 37 e8 39 00  	lui	a6, 0x39e
    42d6: 00 01        	<unknown>
    42d8: 01 09        	<unknown>
    42da: e8 39        	<unknown>
    42dc: 00 00        	<unknown>
    42de: 09 b0        	<unknown>
    42e0: 41 00        	<unknown>
    42e2: 00 00        	<unknown>
    42e4: 21 f7        	<unknown>
    42e6: 17 00 00 2a  	auipc	zero, 0x2a000
    42ea: a6 e8        	<unknown>
    42ec: 39 00        	<unknown>
    42ee: 00 01        	<unknown>
    42f0: 01 09        	<unknown>
    42f2: e8 39        	<unknown>
    42f4: 00 00        	<unknown>
    42f6: 00 21        	<unknown>
    42f8: 00 18        	<unknown>
    42fa: 00 00        	<unknown>
    42fc: 2a a9        	<unknown>
    42fe: e8 39        	<unknown>
    4300: 00 00        	<unknown>
    4302: 01 01        	<unknown>
    4304: 09 e8        	<unknown>
    4306: 39 00        	<unknown>
    4308: 00 00        	<unknown>
    430a: 21 ef        	<unknown>
    430c: 17 00 00 28  	auipc	zero, 0x28000
    4310: 34 b0        	<unknown>
    4312: 41 00        	<unknown>
    4314: 00 01        	<unknown>
    4316: 01 09        	<unknown>
    4318: 1c 19        	<unknown>
    431a: 00 00        	<unknown>
    431c: 00 21        	<unknown>
    431e: 9d 17        	<unknown>
    4320: 00 00        	<unknown>
    4322: 2a 9b        	<unknown>
    4324: c5 41        	<unknown>
    4326: 00 00        	<unknown>
    4328: 01 01        	<unknown>
    432a: 09 1c        	<unknown>
    432c: 19 00        	<unknown>
    432e: 00 00        	<unknown>
    4330: 0a 3b        	<unknown>
    4332: 43 00 00 0b  	fmadd.d	ft0, ft0, fa6, ft1, rne
    4336: 18 00        	<unknown>
    4338: 00 2b        	<unknown>
    433a: 07 0a c4 17  	<unknown>
    433e: 00 00        	<unknown>
    4340: 09 18        	<unknown>
    4342: 00 00        	<unknown>
    4344: 14 9c        	<unknown>
    4346: 0a 51        	<unknown>
    4348: 43 00 00 15  	<unknown>
    434c: 18 00        	<unknown>
    434e: 00 2d        	<unknown>
    4350: 07 0a c4 17  	<unknown>
    4354: 00 00        	<unknown>
    4356: 13 18 00 00  	slli	a6, zero, 0x0
    435a: 14 a0        	<unknown>
    435c: 2e 1c        	<unknown>
    435e: 18 00        	<unknown>
    4360: 00 2e        	<unknown>
    4362: 48 30        	<unknown>
    4364: 43 00 00 01  	fmadd.s	ft0, ft0, fa6, ft0, rne
    4368: 01 21        	<unknown>
    436a: 22 18        	<unknown>
    436c: 00 00        	<unknown>
    436e: 2e 4e        	<unknown>
    4370: 15 19        	<unknown>
    4372: 00 00        	<unknown>
    4374: 01 01        	<unknown>
    4376: 09 46        	<unknown>
    4378: 43 00 00 09  	fmadd.s	ft0, ft0, fa6, ft1, rne
    437c: 46 43        	<unknown>
    437e: 00 00        	<unknown>
    4380: 00 21        	<unknown>
    4382: 2b 18 00 00  	<unknown>
    4386: 2e 52        	<unknown>
    4388: 46 43        	<unknown>
    438a: 00 00        	<unknown>
    438c: 01 01        	<unknown>
    438e: 09 94        	<unknown>
    4390: 43 00 00 00  	fmadd.s	ft0, ft0, ft0, ft0, rne
    4394: 0e 7b        	<unknown>
    4396: 3d 00        	<unknown>
    4398: 00 21        	<unknown>
    439a: 35 18        	<unknown>
    439c: 00 00        	<unknown>
    439e: 2e 4b        	<unknown>
    43a0: 46 43        	<unknown>
    43a2: 00 00        	<unknown>
    43a4: 01 01        	<unknown>
    43a6: 09 ac        	<unknown>
    43a8: 43 00 00 00  	fmadd.s	ft0, ft0, ft0, ft0, rne
    43ac: 0e 46        	<unknown>
    43ae: 43 00 00 21  	fmadd.s	ft0, ft0, fa6, ft4, rne
    43b2: 32 18        	<unknown>
    43b4: 00 00        	<unknown>
    43b6: 2e 8b        	<unknown>
    43b8: 1d 27        	<unknown>
    43ba: 00 00        	<unknown>
    43bc: 01 01        	<unknown>
    43be: 09 71        	<unknown>
    43c0: 3d 00        	<unknown>
    43c2: 00 00        	<unknown>
    43c4: 21 34        	<unknown>
    43c6: 18 00        	<unknown>
    43c8: 00 2e        	<unknown>
    43ca: 8e 1d        	<unknown>
    43cc: 27 00 00 01  	<unknown>
    43d0: 01 09        	<unknown>
    43d2: d7 43 00 00  	<unknown>
    43d6: 00 0e        	<unknown>
    43d8: dc 43        	<unknown>
    43da: 00 00        	<unknown>
    43dc: 14 46        	<unknown>
    43de: 43 00 00 21  	fmadd.s	ft0, ft0, fa6, ft4, rne
    43e2: 3a 18        	<unknown>
    43e4: 00 00        	<unknown>
    43e6: 2e 77        	<unknown>
    43e8: 94 43        	<unknown>
    43ea: 00 00        	<unknown>
    43ec: 01 01        	<unknown>
    43ee: 09 d7        	<unknown>
    43f0: 43 00 00 00  	fmadd.s	ft0, ft0, ft0, ft0, rne
    43f4: 21 41        	<unknown>
    43f6: 18 00        	<unknown>
    43f8: 00 2e        	<unknown>
    43fa: 7b 94 43 00  	<unknown>
    43fe: 00 01        	<unknown>
    4400: 01 09        	<unknown>
    4402: d7 43 00 00  	<unknown>
    4406: 00 21        	<unknown>
    4408: 4b 18 00 00  	fnmsub.s	fa6, ft0, ft0, ft0, rtz
    440c: 2e 58        	<unknown>
    440e: 83 26 00 00  	lw	a3, 0x0(zero)
    4412: 01 01        	<unknown>
    4414: 09 1d        	<unknown>
    4416: 27 00 00 09  	<unknown>
    441a: 83 26 00 00  	lw	a3, 0x0(zero)
    441e: 09 1c        	<unknown>
    4420: 19 00        	<unknown>
    4422: 00 09        	<unknown>
    4424: 71 3d        	<unknown>
    4426: 00 00        	<unknown>
    4428: 00 00        	<unknown>

Disassembly of section .debug_abbrev:

0000000000000000 <.debug_abbrev>:
       0: 01 11        	<unknown>
       2: 01 25        	<unknown>
       4: 0e 13        	<unknown>
       6: 05 03        	<unknown>
       8: 0e 10        	<unknown>
       a: 06 1b        	<unknown>
       c: 0e 00        	<unknown>
       e: 00 02        	<unknown>
      10: 39 01        	<unknown>
      12: 03 0e 00 00  	lb	t3, 0x0(zero)
      16: 03 04 01 03  	lb	s0, 0x30(sp)
      1a: 0e 0b        	<unknown>
      1c: 0b 3a 0b 3b  	<unknown>
      20: 0b 00 00 04  	<unknown>
      24: 28 00        	<unknown>
      26: 03 0e 1c 0f  	lb	t3, 0xf1(s8)
      2a: 00 00        	<unknown>
      2c: 05 13        	<unknown>
      2e: 01 36        	<unknown>
      30: 0b 03 0e 0b  	<unknown>
      34: 0b 3a 0b 3b  	<unknown>
      38: 0b 00 00 06  	<unknown>
      3c: 0d 00        	<unknown>
      3e: 03 0e 49 13  	lb	t3, 0x134(s2)
      42: 3a 0b        	<unknown>
      44: 3b 0b 38 0a  	<unknown>
      48: 00 00        	<unknown>
      4a: 07 2e 01 03  	flw	ft8, 0x30(sp)
      4e: 0e 3a        	<unknown>
      50: 0b 3b 0b 3c  	<unknown>
      54: 0c 3f        	<unknown>
      56: 0c 00        	<unknown>
      58: 00 08        	<unknown>
      5a: 05 00        	<unknown>
      5c: 49 13        	<unknown>
      5e: 34 0c        	<unknown>
      60: 00 00        	<unknown>
      62: 09 05        	<unknown>
      64: 00 49        	<unknown>
      66: 13 00 00 0a  	li	zero, 0xa0
      6a: 16 00        	<unknown>
      6c: 49 13        	<unknown>
      6e: 03 0e 3a 0b  	lb	t3, 0xb3(s4)
      72: 3b 0b 00 00  	addw	s6, zero, zero
      76: 0b 2e 01 87  	<unknown>
      7a: 40 0e        	<unknown>
      7c: 03 0e 3a 0b  	lb	t3, 0xb3(s4)
      80: 3b 0b 49 13  	<unknown>
      84: 3c 0c        	<unknown>
      86: 3f 0c 00 00  	<unknown>
      8a: 0c 08        	<unknown>
      8c: 00 3a        	<unknown>
      8e: 0b 3b 0b 18  	<unknown>
      92: 13 00 00 0d  	li	zero, 0xd0
      96: 24 00        	<unknown>
      98: 03 0e 3e 0b  	lb	t3, 0xb3(t3)
      9c: 0b 0b 00 00  	<unknown>
      a0: 0e 0f        	<unknown>
      a2: 00 49        	<unknown>
      a4: 13 00 00 0f  	li	zero, 0xf0
      a8: 13 01 36 0b  	addi	sp, a2, 0xb3
      ac: 03 0e 0b 0b  	lb	t3, 0xb0(s6)
      b0: 3a 0b        	<unknown>
      b2: 3b 05 00 00  	addw	a0, zero, zero
      b6: 10 0d        	<unknown>
      b8: 00 03        	<unknown>
      ba: 0e 49        	<unknown>
      bc: 13 3a 0b 3b  	sltiu	s4, s6, 0x3b0
      c0: 05 38        	<unknown>
      c2: 0a 00        	<unknown>
      c4: 00 11        	<unknown>
      c6: 2e 01        	<unknown>
      c8: 03 0e 3a 0b  	lb	t3, 0xb3(s4)
      cc: 3b 05 3c 0c  	<unknown>
      d0: 3f 0c 00 00  	<unknown>
      d4: 12 2e        	<unknown>
      d6: 01 87        	<unknown>
      d8: 40 0e        	<unknown>
      da: 03 0e 3a 0b  	lb	t3, 0xb3(s4)
      de: 3b 05 49 13  	<unknown>
      e2: 3c 0c        	<unknown>
      e4: 3f 0c 00 00  	<unknown>
      e8: 13 16 00 49  	<unknown>
      ec: 13 03 0e 3a  	addi	t1, t3, 0x3a0
      f0: 0b 3b 05 00  	<unknown>
      f4: 00 14        	<unknown>
      f6: 26 00        	<unknown>
      f8: 49 13        	<unknown>
      fa: 00 00        	<unknown>
      fc: 15 2e        	<unknown>
      fe: 00 87        	<unknown>
     100: 40 0e        	<unknown>
     102: 03 0e 3a 0b  	lb	t3, 0xb3(s4)
     106: 3b 0b 49 13  	<unknown>
     10a: 3c 0c        	<unknown>
     10c: 3f 0c 00 00  	<unknown>
     110: 16 2e        	<unknown>
     112: 01 03        	<unknown>
     114: 0e 3a        	<unknown>
     116: 0b 3b 0b 3c  	<unknown>
     11a: 0c 3f        	<unknown>
     11c: 0c 32        	<unknown>
     11e: 0b 00 00 17  	<unknown>
     122: 2e 01        	<unknown>
     124: 87 40 0e 03  	<unknown>
     128: 0e 3a        	<unknown>
     12a: 0b 3b 0b 3c  	<unknown>
     12e: 0c 3f        	<unknown>
     130: 0c 32        	<unknown>
     132: 0b 00 00 18  	<unknown>
     136: 2e 01        	<unknown>
     138: 87 40 0e 03  	<unknown>
     13c: 0e 3a        	<unknown>
     13e: 0b 3b 0b 49  	<unknown>
     142: 13 3c 0c 3f  	sltiu	s8, s8, 0x3f0
     146: 0c 32        	<unknown>
     148: 0b 00 00 19  	<unknown>
     14c: 10 00        	<unknown>
     14e: 49 13        	<unknown>
     150: 00 00        	<unknown>
     152: 1a 08        	<unknown>
     154: 00 3a        	<unknown>
     156: 0b 3b 05 18  	<unknown>
     15a: 13 00 00 1b  	li	zero, 0x1b0
     15e: 39 00        	<unknown>
     160: 03 0e 00 00  	lb	t3, 0x0(zero)
     164: 1c 02        	<unknown>
     166: 00 03        	<unknown>
     168: 0e 3c        	<unknown>
     16a: 0c 00        	<unknown>
     16c: 00 1d        	<unknown>
     16e: 2e 01        	<unknown>
     170: 87 40 0e 03  	<unknown>
     174: 0e 3a        	<unknown>
     176: 0b 3b 0b 3c  	<unknown>
     17a: 0c 3f        	<unknown>
     17c: 0c 00        	<unknown>
     17e: 00 1e        	<unknown>
     180: 2e 01        	<unknown>
     182: 87 40 0e 03  	<unknown>
     186: 0e 3a        	<unknown>
     188: 0b 3b 0b 3c  	<unknown>
     18c: 0c 3f        	<unknown>
     18e: 0c 87        	<unknown>
     190: 01 0c        	<unknown>
     192: 00 00        	<unknown>
     194: 1f 2e 01 87  	<unknown>
     198: 40 0e        	<unknown>
     19a: 03 0e 3a 0b  	lb	t3, 0xb3(s4)
     19e: 3b 0b 49 13  	<unknown>
     1a2: 3c 0c        	<unknown>
     1a4: 00 00        	<unknown>
     1a6: 20 2e        	<unknown>
     1a8: 01 03        	<unknown>
     1aa: 0e 3a        	<unknown>
     1ac: 0b 3b 05 49  	<unknown>
     1b0: 13 3c 0c 3f  	sltiu	s8, s8, 0x3f0
     1b4: 0c 00        	<unknown>
     1b6: 00 21        	<unknown>
     1b8: 2e 01        	<unknown>
     1ba: 03 0e 3a 0b  	lb	t3, 0xb3(s4)
     1be: 3b 0b 49 13  	<unknown>
     1c2: 3c 0c        	<unknown>
     1c4: 3f 0c 00 00  	<unknown>
     1c8: 22 13        	<unknown>
     1ca: 00 3c        	<unknown>
     1cc: 0c 00        	<unknown>
     1ce: 00 23        	<unknown>
     1d0: 13 01 36 0b  	addi	sp, a2, 0xb3
     1d4: 0b 0b 3a 0b  	<unknown>
     1d8: 3b 0b 00 00  	addw	s6, zero, zero
     1dc: 24 2e        	<unknown>
     1de: 00 03        	<unknown>
     1e0: 0e 3a        	<unknown>
     1e2: 0b 3b 05 3c  	<unknown>
     1e6: 0c 3f        	<unknown>
     1e8: 0c 87        	<unknown>
     1ea: 01 0c        	<unknown>
     1ec: 00 00        	<unknown>
     1ee: 25 15        	<unknown>
     1f0: 00 00        	<unknown>
     1f2: 00 26        	<unknown>
     1f4: 0f 00 00 00  	fence	0, 0
     1f8: 27 26 00 00  	fsw	ft0, 0xc(zero)
     1fc: 00 28        	<unknown>
     1fe: 15 01        	<unknown>
     200: 49 13        	<unknown>
     202: 00 00        	<unknown>
     204: 29 2e        	<unknown>
     206: 01 03        	<unknown>
     208: 0e 3a        	<unknown>
     20a: 0b 3b 05 3c  	<unknown>
     20e: 0c 3f        	<unknown>
     210: 0c 87        	<unknown>
     212: 01 0c        	<unknown>
     214: 00 00        	<unknown>
     216: 2a 2e        	<unknown>
     218: 00 03        	<unknown>
     21a: 0e 3a        	<unknown>
     21c: 0b 3b 05 49  	<unknown>
     220: 13 3c 0c 3f  	sltiu	s8, s8, 0x3f0
     224: 0c 00        	<unknown>
     226: 00 2b        	<unknown>
     228: 2e 01        	<unknown>
     22a: 87 40 0e 03  	<unknown>
     22e: 0e 3a        	<unknown>
     230: 0b 3b 05 49  	<unknown>
     234: 13 3c 0c 00  	sltiu	s8, s8, 0x0
     238: 00 2c        	<unknown>
     23a: 13 00 03 0e  	addi	zero, t1, 0xe0
     23e: 3c 0c        	<unknown>
     240: 00 00        	<unknown>
     242: 2d 18        	<unknown>
     244: 00 00        	<unknown>
     246: 00 2e        	<unknown>
     248: 2e 00        	<unknown>
     24a: 03 0e 3a 0b  	lb	t3, 0xb3(s4)
     24e: 3b 0b 49 13  	<unknown>
     252: 3c 0c        	<unknown>
     254: 3f 0c 00 00  	<unknown>
     258: 2f 16 00 49  	<unknown>
     25c: 13 03 0e 00  	mv	t1, t3
     260: 00 30        	<unknown>
     262: 17 01 36 0b  	auipc	sp, 0xb360
     266: 0b 0b 3a 0b  	<unknown>
     26a: 3b 0b 00 00  	addw	s6, zero, zero
     26e: 31 01        	<unknown>
     270: 01 49        	<unknown>
     272: 13 00 00 32  	li	zero, 0x320
     276: 21 00        	<unknown>
     278: 49 13        	<unknown>
     27a: 37 0b 00 00  	lui	s6, 0x0
     27e: 33 24 00 03  	mulhsu	s0, zero, a6
     282: 0e 0b        	<unknown>
     284: 0b 3e 0b 00  	<unknown>
     288: 00 34        	<unknown>
     28a: 3a 00        	<unknown>
     28c: 3a 0b        	<unknown>
     28e: 3b 0b 18 13  	<unknown>
     292: 00 00        	<unknown>
     294: 00           	<unknown>

Disassembly of section .debug_line:

0000000000000000 <.debug_line>:
       0: 84 05        	<unknown>
       2: 00 00        	<unknown>
       4: 02 00        	<unknown>
       6: 7e 05        	<unknown>
       8: 00 00        	<unknown>
       a: 01 01        	<unknown>
       c: fb 0e 0d 00  	<unknown>
      10: 01 01        	<unknown>
      12: 01 01        	<unknown>
      14: 00 00        	<unknown>
      16: 00 01        	<unknown>
      18: 00 00        	<unknown>
      1a: 01 2f        	<unknown>
      1c: 6e 65        	<unknown>
      1e: 74 68        	<unknown>
      20: 6f 6d 65 2f  	jal	s10, 0x56316 <.debug_info+0x56316>
      24: 63 61 68 6e  	bltu	a6, t1, 0x706 <.debug_info+0x706>
      28: 34 35        	<unknown>
      2a: 2f 43 75 50  	<unknown>
      2e: 42 6f        	<unknown>
      30: 50 00        	<unknown>
      32: 2f 6e 65 74  	<unknown>
      36: 68 6f        	<unknown>
      38: 6d 65        	<unknown>
      3a: 2f 63 61 68  	<unknown>
      3e: 6e 34        	<unknown>
      40: 35 00        	<unknown>
      42: 2f 75 73 72  	<unknown>
      46: 2f 69 6e 63  	<unknown>
      4a: 6c 75        	<unknown>
      4c: 64 65        	<unknown>
      4e: 00 2f        	<unknown>
      50: 75 73        	<unknown>
      52: 72 2f        	<unknown>
      54: 6c 69        	<unknown>
      56: 62 2f        	<unknown>
      58: 67 63 63 2f  	<unknown>
      5c: 78 38        	<unknown>
      5e: 36 5f        	<unknown>
      60: 36 34        	<unknown>
      62: 2d 6c        	<unknown>
      64: 69 6e        	<unknown>
      66: 75 78        	<unknown>
      68: 2d 67        	<unknown>
      6a: 6e 75        	<unknown>
      6c: 2f 31 33 2f  	<unknown>
      70: 2e 2e        	<unknown>
      72: 2f 2e 2e 2f  	<unknown>
      76: 2e 2e        	<unknown>
      78: 2f 2e 2e 2f  	<unknown>
      7c: 69 6e        	<unknown>
      7e: 63 6c 75 64  	bltu	a0, t2, 0x6d6 <.debug_info+0x6d6>
      82: 65 2f        	<unknown>
      84: 63 2b 2b 2f  	<unknown>
      88: 31 33        	<unknown>
      8a: 2f 62 69 74  	<unknown>
      8e: 73 00 2f 75  	<unknown>
      92: 73 72 2f 69  	csrrci	tp, 0x692, 0x1e
      96: 6e 63        	<unknown>
      98: 6c 75        	<unknown>
      9a: 64 65        	<unknown>
      9c: 2f 78 38 36  	<unknown>
      a0: 5f 36 34 2d  	<unknown>
      a4: 6c 69        	<unknown>
      a6: 6e 75        	<unknown>
      a8: 78 2d        	<unknown>
      aa: 67 6e 75 2f  	<unknown>
      ae: 62 69        	<unknown>
      b0: 74 73        	<unknown>
      b2: 00 2f        	<unknown>
      b4: 75 73        	<unknown>
      b6: 72 2f        	<unknown>
      b8: 6c 69        	<unknown>
      ba: 62 2f        	<unknown>
      bc: 67 63 63 2f  	<unknown>
      c0: 78 38        	<unknown>
      c2: 36 5f        	<unknown>
      c4: 36 34        	<unknown>
      c6: 2d 6c        	<unknown>
      c8: 69 6e        	<unknown>
      ca: 75 78        	<unknown>
      cc: 2d 67        	<unknown>
      ce: 6e 75        	<unknown>
      d0: 2f 31 33 2f  	<unknown>
      d4: 2e 2e        	<unknown>
      d6: 2f 2e 2e 2f  	<unknown>
      da: 2e 2e        	<unknown>
      dc: 2f 2e 2e 2f  	<unknown>
      e0: 69 6e        	<unknown>
      e2: 63 6c 75 64  	bltu	a0, t2, 0x73a <.debug_info+0x73a>
      e6: 65 2f        	<unknown>
      e8: 63 2b 2b 2f  	<unknown>
      ec: 31 33        	<unknown>
      ee: 00 2f        	<unknown>
      f0: 75 73        	<unknown>
      f2: 72 2f        	<unknown>
      f4: 69 6e        	<unknown>
      f6: 63 6c 75 64  	bltu	a0, t2, 0x74e <.debug_info+0x74e>
      fa: 65 2f        	<unknown>
      fc: 78 38        	<unknown>
      fe: 36 5f        	<unknown>
     100: 36 34        	<unknown>
     102: 2d 6c        	<unknown>
     104: 69 6e        	<unknown>
     106: 75 78        	<unknown>
     108: 2d 67        	<unknown>
     10a: 6e 75        	<unknown>
     10c: 2f 62 69 74  	<unknown>
     110: 73 2f 74 79  	csrrs	t5, 0x797, s0
     114: 70 65        	<unknown>
     116: 73 00 2f 75  	<unknown>
     11a: 73 72 2f 6c  	csrrci	tp, 0x6c2, 0x1e
     11e: 69 62        	<unknown>
     120: 2f 67 63 63  	<unknown>
     124: 2f 78 38 36  	<unknown>
     128: 5f 36 34 2d  	<unknown>
     12c: 6c 69        	<unknown>
     12e: 6e 75        	<unknown>
     130: 78 2d        	<unknown>
     132: 67 6e 75 2f  	<unknown>
     136: 31 33        	<unknown>
     138: 2f 2e 2e 2f  	<unknown>
     13c: 2e 2e        	<unknown>
     13e: 2f 2e 2e 2f  	<unknown>
     142: 2e 2e        	<unknown>
     144: 2f 69 6e 63  	<unknown>
     148: 6c 75        	<unknown>
     14a: 64 65        	<unknown>
     14c: 2f 63 2b 2b  	<unknown>
     150: 2f 31 33 2f  	<unknown>
     154: 64 65        	<unknown>
     156: 62 75        	<unknown>
     158: 67 00 00 63  	jr	0x630(zero) <.debug_info+0x630>
     15c: 75 64        	<unknown>
     15e: 61 2d        	<unknown>
     160: 31 32        	<unknown>
     162: 2e 31        	<unknown>
     164: 2f 69 6e 63  	<unknown>
     168: 6c 75        	<unknown>
     16a: 64 65        	<unknown>
     16c: 2f 6e 76 2f  	<unknown>
     170: 74 61        	<unknown>
     172: 72 67        	<unknown>
     174: 65 74        	<unknown>
     176: 00 01        	<unknown>
     178: 00 00        	<unknown>
     17a: 63 75 64 61  	bgeu	s0, s6, 0x784 <.debug_info+0x784>
     17e: 2d 31        	<unknown>
     180: 32 2e        	<unknown>
     182: 31 2f        	<unknown>
     184: 69 6e        	<unknown>
     186: 63 6c 75 64  	bltu	a0, t2, 0x7de <.debug_info+0x7de>
     18a: 65 2f        	<unknown>
     18c: 76 65        	<unknown>
     18e: 63 74 6f 72  	bgeu	t5, t1, 0x8b6 <.debug_info+0x8b6>
     192: 5f 74 79 70  	<unknown>
     196: 65 73        	<unknown>
     198: 2e 68        	<unknown>
     19a: 00 01        	<unknown>
     19c: 00 00        	<unknown>
     19e: 6c 6c        	<unknown>
     1a0: 76 6d        	<unknown>
     1a2: 2d 76        	<unknown>
     1a4: 6f 72 74 65  	jal	tp, 0x47ffa <.debug_info+0x47ffa>
     1a8: 78 2d        	<unknown>
     1aa: 77 69 74 68  	<unknown>
     1ae: 2d 63        	<unknown>
     1b0: 75 64        	<unknown>
     1b2: 61 2d        	<unknown>
     1b4: 62 75        	<unknown>
     1b6: 69 6c        	<unknown>
     1b8: 64 2f        	<unknown>
     1ba: 6c 69        	<unknown>
     1bc: 62 2f        	<unknown>
     1be: 63 6c 61 6e  	bltu	sp, t1, 0x8b6 <.debug_info+0x8b6>
     1c2: 67 2f 31 38  	<unknown>
     1c6: 2f 69 6e 63  	<unknown>
     1ca: 6c 75        	<unknown>
     1cc: 64 65        	<unknown>
     1ce: 2f 5f 5f 63  	<unknown>
     1d2: 6c 61        	<unknown>
     1d4: 6e 67        	<unknown>
     1d6: 5f 63 75 64  	<unknown>
     1da: 61 5f        	<unknown>
     1dc: 62 75        	<unknown>
     1de: 69 6c        	<unknown>
     1e0: 74 69        	<unknown>
     1e2: 6e 5f        	<unknown>
     1e4: 76 61        	<unknown>
     1e6: 72 73        	<unknown>
     1e8: 2e 68        	<unknown>
     1ea: 00 02        	<unknown>
     1ec: 00 00        	<unknown>
     1ee: 6c 6c        	<unknown>
     1f0: 76 6d        	<unknown>
     1f2: 2d 76        	<unknown>
     1f4: 6f 72 74 65  	jal	tp, 0x4804a <.debug_info+0x4804a>
     1f8: 78 2d        	<unknown>
     1fa: 77 69 74 68  	<unknown>
     1fe: 2d 63        	<unknown>
     200: 75 64        	<unknown>
     202: 61 2d        	<unknown>
     204: 62 75        	<unknown>
     206: 69 6c        	<unknown>
     208: 64 2f        	<unknown>
     20a: 6c 69        	<unknown>
     20c: 62 2f        	<unknown>
     20e: 63 6c 61 6e  	bltu	sp, t1, 0x906 <.debug_info+0x906>
     212: 67 2f 31 38  	<unknown>
     216: 2f 69 6e 63  	<unknown>
     21a: 6c 75        	<unknown>
     21c: 64 65        	<unknown>
     21e: 2f 5f 5f 63  	<unknown>
     222: 6c 61        	<unknown>
     224: 6e 67        	<unknown>
     226: 5f 63 75 64  	<unknown>
     22a: 61 5f        	<unknown>
     22c: 6d 61        	<unknown>
     22e: 74 68        	<unknown>
     230: 5f 66 6f 72  	<unknown>
     234: 77 61 72 64  	<unknown>
     238: 5f 64 65 63  	<unknown>
     23c: 6c 61        	<unknown>
     23e: 72 65        	<unknown>
     240: 73 2e 68 00  	csrrs	t3, 0x6, a6
     244: 02 00        	<unknown>
     246: 00 73        	<unknown>
     248: 74 64        	<unknown>
     24a: 6c 69        	<unknown>
     24c: 62 2e        	<unknown>
     24e: 68 00        	<unknown>
     250: 03 00 00 73  	lb	zero, 0x730(zero)
     254: 74 64        	<unknown>
     256: 5f 61 62 73  	<unknown>
     25a: 2e 68        	<unknown>
     25c: 00 04        	<unknown>
     25e: 00 00        	<unknown>
     260: 6d 61        	<unknown>
     262: 74 68        	<unknown>
     264: 63 61 6c 6c  	bltu	s8, t1, 0x926 <.debug_info+0x926>
     268: 73 2e 68 00  	csrrs	t3, 0x6, a6
     26c: 05 00        	<unknown>
     26e: 00 63        	<unknown>
     270: 6d 61        	<unknown>
     272: 74 68        	<unknown>
     274: 00 06        	<unknown>
     276: 00 00        	<unknown>
     278: 6d 61        	<unknown>
     27a: 74 68        	<unknown>
     27c: 2e 68        	<unknown>
     27e: 00 03        	<unknown>
     280: 00 00        	<unknown>
     282: 63 73 74 64  	bgeu	s0, t2, 0x8c8 <.debug_info+0x8c8>
     286: 6c 69        	<unknown>
     288: 62 00        	<unknown>
     28a: 06 00        	<unknown>
     28c: 00 6c        	<unknown>
     28e: 6c 76        	<unknown>
     290: 6d 2d        	<unknown>
     292: 76 6f        	<unknown>
     294: 72 74        	<unknown>
     296: 65 78        	<unknown>
     298: 2d 77        	<unknown>
     29a: 69 74        	<unknown>
     29c: 68 2d        	<unknown>
     29e: 63 75 64 61  	bgeu	s0, s6, 0x8a8 <.debug_info+0x8a8>
     2a2: 2d 62        	<unknown>
     2a4: 75 69        	<unknown>
     2a6: 6c 64        	<unknown>
     2a8: 2f 6c 69 62  	<unknown>
     2ac: 2f 63 6c 61  	<unknown>
     2b0: 6e 67        	<unknown>
     2b2: 2f 31 38 2f  	<unknown>
     2b6: 69 6e        	<unknown>
     2b8: 63 6c 75 64  	bltu	a0, t2, 0x910 <.debug_info+0x910>
     2bc: 65 2f        	<unknown>
     2be: 5f 5f 73 74  	<unknown>
     2c2: 64 64        	<unknown>
     2c4: 65 66        	<unknown>
     2c6: 5f 73 69 7a  	<unknown>
     2ca: 65 5f        	<unknown>
     2cc: 74 2e        	<unknown>
     2ce: 68 00        	<unknown>
     2d0: 02 00        	<unknown>
     2d2: 00 73        	<unknown>
     2d4: 74 64        	<unknown>
     2d6: 6c 69        	<unknown>
     2d8: 62 2e        	<unknown>
     2da: 68 00        	<unknown>
     2dc: 06 00        	<unknown>
     2de: 00 6c        	<unknown>
     2e0: 6c 76        	<unknown>
     2e2: 6d 2d        	<unknown>
     2e4: 76 6f        	<unknown>
     2e6: 72 74        	<unknown>
     2e8: 65 78        	<unknown>
     2ea: 2d 77        	<unknown>
     2ec: 69 74        	<unknown>
     2ee: 68 2d        	<unknown>
     2f0: 63 75 64 61  	bgeu	s0, s6, 0x8fa <.debug_info+0x8fa>
     2f4: 2d 62        	<unknown>
     2f6: 75 69        	<unknown>
     2f8: 6c 64        	<unknown>
     2fa: 2f 6c 69 62  	<unknown>
     2fe: 2f 63 6c 61  	<unknown>
     302: 6e 67        	<unknown>
     304: 2f 31 38 2f  	<unknown>
     308: 69 6e        	<unknown>
     30a: 63 6c 75 64  	bltu	a0, t2, 0x962 <.debug_info+0x962>
     30e: 65 2f        	<unknown>
     310: 5f 5f 63 6c  	<unknown>
     314: 61 6e        	<unknown>
     316: 67 5f 63 75  	<unknown>
     31a: 64 61        	<unknown>
     31c: 5f 6d 61 74  	<unknown>
     320: 68 2e        	<unknown>
     322: 68 00        	<unknown>
     324: 02 00        	<unknown>
     326: 00 6c        	<unknown>
     328: 6c 76        	<unknown>
     32a: 6d 2d        	<unknown>
     32c: 76 6f        	<unknown>
     32e: 72 74        	<unknown>
     330: 65 78        	<unknown>
     332: 2d 77        	<unknown>
     334: 69 74        	<unknown>
     336: 68 2d        	<unknown>
     338: 63 75 64 61  	bgeu	s0, s6, 0x942 <.debug_info+0x942>
     33c: 2d 62        	<unknown>
     33e: 75 69        	<unknown>
     340: 6c 64        	<unknown>
     342: 2f 6c 69 62  	<unknown>
     346: 2f 63 6c 61  	<unknown>
     34a: 6e 67        	<unknown>
     34c: 2f 31 38 2f  	<unknown>
     350: 69 6e        	<unknown>
     352: 63 6c 75 64  	bltu	a0, t2, 0x9aa <.debug_info+0x9aa>
     356: 65 2f        	<unknown>
     358: 5f 5f 63 6c  	<unknown>
     35c: 61 6e        	<unknown>
     35e: 67 5f 63 75  	<unknown>
     362: 64 61        	<unknown>
     364: 5f 63 6d 61  	<unknown>
     368: 74 68        	<unknown>
     36a: 2e 68        	<unknown>
     36c: 00 02        	<unknown>
     36e: 00 00        	<unknown>
     370: 46 49        	<unknown>
     372: 4c 45        	<unknown>
     374: 2e 68        	<unknown>
     376: 00 07        	<unknown>
     378: 00 00        	<unknown>
     37a: 63 73 74 64  	bgeu	s0, t2, 0x9c0 <.debug_info+0x9c0>
     37e: 69 6f        	<unknown>
     380: 00 06        	<unknown>
     382: 00 00        	<unknown>
     384: 5f 5f 66 70  	<unknown>
     388: 6f 73 5f 74  	jal	t1, 0xf82cc <.debug_info+0xf82cc>
     38c: 2e 68        	<unknown>
     38e: 00 07        	<unknown>
     390: 00 00        	<unknown>
     392: 73 74 64 69  	csrrci	s0, 0x696, 0x8
     396: 6f 2e 68 00  	jal	t3, 0x8239c <.debug_info+0x8239c>
     39a: 03 00 00 6c  	lb	zero, 0x6c0(zero)
     39e: 6c 76        	<unknown>
     3a0: 6d 2d        	<unknown>
     3a2: 76 6f        	<unknown>
     3a4: 72 74        	<unknown>
     3a6: 65 78        	<unknown>
     3a8: 2d 77        	<unknown>
     3aa: 69 74        	<unknown>
     3ac: 68 2d        	<unknown>
     3ae: 63 75 64 61  	bgeu	s0, s6, 0x9b8 <.debug_info+0x9b8>
     3b2: 2d 62        	<unknown>
     3b4: 75 69        	<unknown>
     3b6: 6c 64        	<unknown>
     3b8: 2f 6c 69 62  	<unknown>
     3bc: 2f 63 6c 61  	<unknown>
     3c0: 6e 67        	<unknown>
     3c2: 2f 31 38 2f  	<unknown>
     3c6: 69 6e        	<unknown>
     3c8: 63 6c 75 64  	bltu	a0, t2, 0xa20 <.debug_info+0xa20>
     3cc: 65 2f        	<unknown>
     3ce: 5f 5f 73 74  	<unknown>
     3d2: 64 61        	<unknown>
     3d4: 72 67        	<unknown>
     3d6: 5f 5f 5f 67  	<unknown>
     3da: 6e 75        	<unknown>
     3dc: 63 5f 76 61  	bge	a2, s7, 0x9fa <.debug_info+0x9fa>
     3e0: 5f 6c 69 73  	<unknown>
     3e4: 74 2e        	<unknown>
     3e6: 68 00        	<unknown>
     3e8: 02 00        	<unknown>
     3ea: 00 74        	<unknown>
     3ec: 79 70        	<unknown>
     3ee: 65 73        	<unknown>
     3f0: 2e 68        	<unknown>
     3f2: 00 05        	<unknown>
     3f4: 00 00        	<unknown>
     3f6: 73 74 64 69  	csrrci	s0, 0x696, 0x8
     3fa: 6e 74        	<unknown>
     3fc: 2d 69        	<unknown>
     3fe: 6e 74        	<unknown>
     400: 6e 2e        	<unknown>
     402: 68 00        	<unknown>
     404: 05 00        	<unknown>
     406: 00 63        	<unknown>
     408: 73 74 64 69  	csrrci	s0, 0x696, 0x8
     40c: 6e 74        	<unknown>
     40e: 00 06        	<unknown>
     410: 00 00        	<unknown>
     412: 73 74 64 69  	csrrci	s0, 0x696, 0x8
     416: 6e 74        	<unknown>
     418: 2e 68        	<unknown>
     41a: 00 03        	<unknown>
     41c: 00 00        	<unknown>
     41e: 73 74 64 69  	csrrci	s0, 0x696, 0x8
     422: 6e 74        	<unknown>
     424: 2d 75        	<unknown>
     426: 69 6e        	<unknown>
     428: 74 6e        	<unknown>
     42a: 2e 68        	<unknown>
     42c: 00 05        	<unknown>
     42e: 00 00        	<unknown>
     430: 73 74 72 69  	csrrci	s0, 0x697, 0x4
     434: 6e 67        	<unknown>
     436: 2e 68        	<unknown>
     438: 00 03        	<unknown>
     43a: 00 00        	<unknown>
     43c: 63 73 74 72  	bgeu	s0, t2, 0xb62 <.debug_info+0xb62>
     440: 69 6e        	<unknown>
     442: 67 00 06 00  	jr	a2
     446: 00 6c        	<unknown>
     448: 6c 76        	<unknown>
     44a: 6d 2d        	<unknown>
     44c: 76 6f        	<unknown>
     44e: 72 74        	<unknown>
     450: 65 78        	<unknown>
     452: 2d 77        	<unknown>
     454: 69 74        	<unknown>
     456: 68 2d        	<unknown>
     458: 63 75 64 61  	bgeu	s0, s6, 0xa62 <.debug_info+0xa62>
     45c: 2d 62        	<unknown>
     45e: 75 69        	<unknown>
     460: 6c 64        	<unknown>
     462: 2f 6c 69 62  	<unknown>
     466: 2f 63 6c 61  	<unknown>
     46a: 6e 67        	<unknown>
     46c: 2f 31 38 2f  	<unknown>
     470: 69 6e        	<unknown>
     472: 63 6c 75 64  	bltu	a0, t2, 0xaca <.debug_info+0xaca>
     476: 65 2f        	<unknown>
     478: 5f 5f 63 6c  	<unknown>
     47c: 61 6e        	<unknown>
     47e: 67 5f 63 75  	<unknown>
     482: 64 61        	<unknown>
     484: 5f 64 65 76  	<unknown>
     488: 69 63        	<unknown>
     48a: 65 5f        	<unknown>
     48c: 66 75        	<unknown>
     48e: 6e 63        	<unknown>
     490: 74 69        	<unknown>
     492: 6f 6e 73 2e  	jal	t3, 0x36f78 <.debug_info+0x36f78>
     496: 68 00        	<unknown>
     498: 02 00        	<unknown>
     49a: 00 5f        	<unknown>
     49c: 5f 6d 62 73  	<unknown>
     4a0: 74 61        	<unknown>
     4a2: 74 65        	<unknown>
     4a4: 5f 74 2e 68  	<unknown>
     4a8: 00 07        	<unknown>
     4aa: 00 00        	<unknown>
     4ac: 6d 62        	<unknown>
     4ae: 73 74 61 74  	csrrci	s0, 0x746, 0x2
     4b2: 65 5f        	<unknown>
     4b4: 74 2e        	<unknown>
     4b6: 68 00        	<unknown>
     4b8: 07 00 00 63  	<unknown>
     4bc: 77 63 68 61  	<unknown>
     4c0: 72 00        	<unknown>
     4c2: 06 00        	<unknown>
     4c4: 00 77        	<unknown>
     4c6: 69 6e        	<unknown>
     4c8: 74 5f        	<unknown>
     4ca: 74 2e        	<unknown>
     4cc: 68 00        	<unknown>
     4ce: 07 00 00 77  	<unknown>
     4d2: 63 68 61 72  	bltu	sp, t1, 0xc02 <.debug_info+0xc02>
     4d6: 2e 68        	<unknown>
     4d8: 00 03        	<unknown>
     4da: 00 00        	<unknown>
     4dc: 5f 5f 46 49  	<unknown>
     4e0: 4c 45        	<unknown>
     4e2: 2e 68        	<unknown>
     4e4: 00 07        	<unknown>
     4e6: 00 00        	<unknown>
     4e8: 63 6c 6f 63  	bltu	t5, s6, 0xb20 <.debug_info+0xb20>
     4ec: 61 6c        	<unknown>
     4ee: 65 00        	<unknown>
     4f0: 06 00        	<unknown>
     4f2: 00 6c        	<unknown>
     4f4: 6f 63 61 6c  	jal	t1, 0x16bba <.debug_info+0x16bba>
     4f8: 65 2e        	<unknown>
     4fa: 68 00        	<unknown>
     4fc: 03 00 00 63  	lb	zero, 0x630(zero)
     500: 74 79        	<unknown>
     502: 70 65        	<unknown>
     504: 2e 68        	<unknown>
     506: 00 03        	<unknown>
     508: 00 00        	<unknown>
     50a: 63 63 74 79  	bltu	s0, s7, 0xc90 <.debug_info+0xc90>
     50e: 70 65        	<unknown>
     510: 00 06        	<unknown>
     512: 00 00        	<unknown>
     514: 64 65        	<unknown>
     516: 62 75        	<unknown>
     518: 67 2e 68 00  	<unknown>
     51c: 08 00        	<unknown>
     51e: 00 65        	<unknown>
     520: 78 63        	<unknown>
     522: 65 70        	<unknown>
     524: 74 69        	<unknown>
     526: 6f 6e 5f 70  	jal	t3, 0xf742a <.debug_info+0xf742a>
     52a: 74 72        	<unknown>
     52c: 2e 68        	<unknown>
     52e: 00 04        	<unknown>
     530: 00 00        	<unknown>
     532: 77 63 74 79  	<unknown>
     536: 70 65        	<unknown>
     538: 2e 68        	<unknown>
     53a: 00 03        	<unknown>
     53c: 00 00        	<unknown>
     53e: 63 77 63 74  	bgeu	t1, t1, 0xc8c <.debug_info+0xc8c>
     542: 79 70        	<unknown>
     544: 65 00        	<unknown>
     546: 06 00        	<unknown>
     548: 00 77        	<unknown>
     54a: 63 74 79 70  	bgeu	s2, t2, 0xc52 <.debug_info+0xc52>
     54e: 65 2d        	<unknown>
     550: 77 63 68 61  	<unknown>
     554: 72 2e        	<unknown>
     556: 68 00        	<unknown>
     558: 05 00        	<unknown>
     55a: 00 63        	<unknown>
     55c: 6c 6f        	<unknown>
     55e: 63 6b 5f 74  	bltu	t5, t0, 0xcb4 <.debug_info+0xcb4>
     562: 2e 68        	<unknown>
     564: 00 07        	<unknown>
     566: 00 00        	<unknown>
     568: 63 74 69 6d  	bgeu	s2, s6, 0xc30 <.debug_info+0xc30>
     56c: 65 00        	<unknown>
     56e: 06 00        	<unknown>
     570: 00 74        	<unknown>
     572: 69 6d        	<unknown>
     574: 65 5f        	<unknown>
     576: 74 2e        	<unknown>
     578: 68 00        	<unknown>
     57a: 07 00 00 74  	<unknown>
     57e: 69 6d        	<unknown>
     580: 65 2e        	<unknown>
     582: 68 00        	<unknown>
     584: 03 00 00 00  	lb	zero, 0x0(zero)

Disassembly of section .debug_frame:

0000000000000000 <.debug_frame>:
       0: 0c 00        	<unknown>
       2: 00 00        	<unknown>
       4: ff ff ff ff  	<unknown>
       8: 01 00        	<unknown>
       a: 01 78        	<unknown>
       c: 01 0c        	<unknown>
       e: 02 00        	<unknown>
      10: 34 00        	<unknown>
      12: 00 00        	<unknown>
      14: 00 00        	<unknown>
      16: 00 00        	<unknown>
      18: 14 02        	<unknown>
      1a: 00 80        	<unknown>
      1c: 00 00        	<unknown>
      1e: 00 00        	<unknown>
      20: 94 01        	<unknown>
      22: 00 00        	<unknown>
      24: 00 00        	<unknown>
      26: 00 00        	<unknown>
      28: 44 0e        	<unknown>
      2a: 60 6c        	<unknown>
      2c: 81 01        	<unknown>
      2e: 88 02        	<unknown>
      30: 89 03        	<unknown>
      32: 92 04        	<unknown>
      34: 93 05 94 06  	addi	a1, s0, 0x69
      38: 95 07        	<unknown>
      3a: 96 08        	<unknown>
      3c: 97 09 98 0a  	auipc	s3, 0xa980
      40: 99 0b        	<unknown>
      42: 44 0c        	<unknown>
      44: 08 00        	<unknown>
      46: 00 00        	<unknown>
      48: 1c 00        	<unknown>
      4a: 00 00        	<unknown>
      4c: 00 00        	<unknown>
      4e: 00 00        	<unknown>
      50: a8 03        	<unknown>
      52: 00 80        	<unknown>
      54: 00 00        	<unknown>
      56: 00 00        	<unknown>
      58: 44 00        	<unknown>
      5a: 00 00        	<unknown>
      5c: 00 00        	<unknown>
      5e: 00 00        	<unknown>
      60: 44 0e        	<unknown>
      62: 10 44        	<unknown>
      64: 81 01        	<unknown>
      66: 00 00        	<unknown>

Disassembly of section .debug_str:

0000000000000000 <.debug_str>:
       0: 63 6c 61 6e  	bltu	sp, t1, 0x6f8 <.debug_info+0x6f8>
       4: 67 20 76 65  	<unknown>
       8: 72 73        	<unknown>
       a: 69 6f        	<unknown>
       c: 6e 20        	<unknown>
       e: 31 38        	<unknown>
      10: 2e 31        	<unknown>
      12: 2e 37        	<unknown>
      14: 20 28        	<unknown>
      16: 68 74        	<unknown>
      18: 74 70        	<unknown>
      1a: 73 3a 2f 2f  	csrrc	s4, 0x2f2, t5
      1e: 67 69 74 68  	<unknown>
      22: 75 62        	<unknown>
      24: 2e 63        	<unknown>
      26: 6f 6d 2f 76  	jal	s10, 0xf6788 <.debug_info+0xf6788>
      2a: 6f 72 74 65  	jal	tp, 0x47e80 <.debug_info+0x47e80>
      2e: 78 67        	<unknown>
      30: 70 67        	<unknown>
      32: 70 75        	<unknown>
      34: 2f 6c 6c 76  	<unknown>
      38: 6d 2e        	<unknown>
      3a: 67 69 74 20  	<unknown>
      3e: 61 35        	<unknown>
      40: 65 62        	<unknown>
      42: 66 37        	<unknown>
      44: 66 32        	<unknown>
      46: 63 31 66 32  	<unknown>
      4a: 34 36        	<unknown>
      4c: 61 35        	<unknown>
      4e: 65 33        	<unknown>
      50: 61 30        	<unknown>
      52: 38 31        	<unknown>
      54: 61 34        	<unknown>
      56: 66 64        	<unknown>
      58: 31 35        	<unknown>
      5a: 37 36 32 34  	lui	a2, 0x34323
      5e: 37 65 35 37  	lui	a0, 0x37356
      62: 34 62        	<unknown>
      64: 33 30 29 00  	sltu	zero, s2, sp
      68: 73 70 6d 76  	csrci	0x766, 0x1a
      6c: 2e 63        	<unknown>
      6e: 75 00        	<unknown>
      70: 2f 6e 65 74  	<unknown>
      74: 68 6f        	<unknown>
      76: 6d 65        	<unknown>
      78: 2f 63 61 68  	<unknown>
      7c: 6e 34        	<unknown>
      7e: 35 2f        	<unknown>
      80: 43 75 50 42  	fmadd.d	fa0, ft0, ft5, fs0
      84: 6f 50 2f 65  	j	0xf56d6 <.debug_info+0xf56d6>
      88: 78 61        	<unknown>
      8a: 6d 70        	<unknown>
      8c: 6c 65        	<unknown>
      8e: 73 2f 73 70  	csrrs	t5, 0x707, t1
      92: 6d 76        	<unknown>
      94: 00 74        	<unknown>
      96: 61 72        	<unknown>
      98: 67 65 74 00  	<unknown>
      9c: 64 65        	<unknown>
      9e: 74 61        	<unknown>
      a0: 69 6c        	<unknown>
      a2: 00 73        	<unknown>
      a4: 6d 5f        	<unknown>
      a6: 33 35 00 73  	<unknown>
      aa: 6d 5f        	<unknown>
      ac: 33 37 00 73  	<unknown>
      b0: 6d 5f        	<unknown>
      b2: 35 30        	<unknown>
      b4: 00 73        	<unknown>
      b6: 6d 5f        	<unknown>
      b8: 35 32        	<unknown>
      ba: 00 73        	<unknown>
      bc: 6d 5f        	<unknown>
      be: 35 33        	<unknown>
      c0: 00 73        	<unknown>
      c2: 6d 5f        	<unknown>
      c4: 36 30        	<unknown>
      c6: 00 73        	<unknown>
      c8: 6d 5f        	<unknown>
      ca: 36 31        	<unknown>
      cc: 00 73        	<unknown>
      ce: 6d 5f        	<unknown>
      d0: 36 32        	<unknown>
      d2: 00 73        	<unknown>
      d4: 6d 5f        	<unknown>
      d6: 37 30 00 73  	lui	zero, 0x73003
      da: 6d 5f        	<unknown>
      dc: 37 32 00 73  	lui	tp, 0x73003
      e0: 6d 5f        	<unknown>
      e2: 37 35 00 73  	lui	a0, 0x73003
      e6: 6d 5f        	<unknown>
      e8: 38 30        	<unknown>
      ea: 00 73        	<unknown>
      ec: 6d 5f        	<unknown>
      ee: 38 36        	<unknown>
      f0: 00 73        	<unknown>
      f2: 6d 5f        	<unknown>
      f4: 38 37        	<unknown>
      f6: 00 73        	<unknown>
      f8: 6d 5f        	<unknown>
      fa: 38 39        	<unknown>
      fc: 00 73        	<unknown>
      fe: 6d 5f        	<unknown>
     100: 39 30        	<unknown>
     102: 00 73        	<unknown>
     104: 6d 5f        	<unknown>
     106: 73 65 6c 65  	csrrsi	a0, 0x656, 0x18
     10a: 63 74 6f 72  	bgeu	t5, t1, 0x832 <.debug_info+0x832>
     10e: 00 74        	<unknown>
     110: 61 72        	<unknown>
     112: 67 65 74 73  	<unknown>
     116: 00 75        	<unknown>
     118: 6e 73        	<unknown>
     11a: 69 67        	<unknown>
     11c: 6e 65        	<unknown>
     11e: 64 20        	<unknown>
     120: 6c 6f        	<unknown>
     122: 6e 67        	<unknown>
     124: 20 6c        	<unknown>
     126: 6f 6e 67 00  	jal	t3, 0x7612c <.debug_info+0x7612c>
     12a: 62 61        	<unknown>
     12c: 73 65 5f 69  	csrrsi	a0, 0x695, 0x1e
     130: 6e 74        	<unknown>
     132: 5f 74 00 74  	<unknown>
     136: 61 72        	<unknown>
     138: 67 65 74 5f  	<unknown>
     13c: 64 65        	<unknown>
     13e: 73 63 72 69  	csrrsi	t1, 0x697, 0x4
     142: 70 74        	<unknown>
     144: 69 6f        	<unknown>
     146: 6e 00        	<unknown>
     148: 75 6e        	<unknown>
     14a: 73 69 67 6e  	csrrsi	s2, 0x6e6, 0xe
     14e: 65 64        	<unknown>
     150: 20 69        	<unknown>
     152: 6e 74        	<unknown>
     154: 00 5f        	<unknown>
     156: 5a 4e        	<unknown>
     158: 4b 34 64 69  	fnmsub.s	fs0, fs0, fs6, fa3, rup
     15c: 6d 33        	<unknown>
     15e: 63 76 35 75  	bgeu	a0, s3, 0x8aa <.debug_info+0x8aa>
     162: 69 6e        	<unknown>
     164: 74 33        	<unknown>
     166: 45 76        	<unknown>
     168: 00 6f        	<unknown>
     16a: 70 65        	<unknown>
     16c: 72 61        	<unknown>
     16e: 74 6f        	<unknown>
     170: 72 20        	<unknown>
     172: 75 69        	<unknown>
     174: 6e 74        	<unknown>
     176: 33 00 5f 5a  	<unknown>
     17a: 4e 32        	<unknown>
     17c: 35 5f        	<unknown>
     17e: 5f 63 75 64  	<unknown>
     182: 61 5f        	<unknown>
     184: 62 75        	<unknown>
     186: 69 6c        	<unknown>
     188: 74 69        	<unknown>
     18a: 6e 5f        	<unknown>
     18c: 62 6c        	<unknown>
     18e: 6f 63 6b 49  	jal	t1, 0xb6624 <.debug_info+0xb6624>
     192: 64 78        	<unknown>
     194: 5f 74 31 37  	<unknown>
     198: 5f 5f 66 65  	<unknown>
     19c: 74 63        	<unknown>
     19e: 68 5f        	<unknown>
     1a0: 62 75        	<unknown>
     1a2: 69 6c        	<unknown>
     1a4: 74 69        	<unknown>
     1a6: 6e 5f        	<unknown>
     1a8: 78 45        	<unknown>
     1aa: 76 00        	<unknown>
     1ac: 5f 5f 66 65  	<unknown>
     1b0: 74 63        	<unknown>
     1b2: 68 5f        	<unknown>
     1b4: 62 75        	<unknown>
     1b6: 69 6c        	<unknown>
     1b8: 74 69        	<unknown>
     1ba: 6e 5f        	<unknown>
     1bc: 78 00        	<unknown>
     1be: 5f 5a 4e 32  	<unknown>
     1c2: 35 5f        	<unknown>
     1c4: 5f 63 75 64  	<unknown>
     1c8: 61 5f        	<unknown>
     1ca: 62 75        	<unknown>
     1cc: 69 6c        	<unknown>
     1ce: 74 69        	<unknown>
     1d0: 6e 5f        	<unknown>
     1d2: 62 6c        	<unknown>
     1d4: 6f 63 6b 49  	jal	t1, 0xb666a <.debug_info+0xb666a>
     1d8: 64 78        	<unknown>
     1da: 5f 74 31 37  	<unknown>
     1de: 5f 5f 66 65  	<unknown>
     1e2: 74 63        	<unknown>
     1e4: 68 5f        	<unknown>
     1e6: 62 75        	<unknown>
     1e8: 69 6c        	<unknown>
     1ea: 74 69        	<unknown>
     1ec: 6e 5f        	<unknown>
     1ee: 79 45        	<unknown>
     1f0: 76 00        	<unknown>
     1f2: 5f 5f 66 65  	<unknown>
     1f6: 74 63        	<unknown>
     1f8: 68 5f        	<unknown>
     1fa: 62 75        	<unknown>
     1fc: 69 6c        	<unknown>
     1fe: 74 69        	<unknown>
     200: 6e 5f        	<unknown>
     202: 79 00        	<unknown>
     204: 5f 5a 4e 32  	<unknown>
     208: 35 5f        	<unknown>
     20a: 5f 63 75 64  	<unknown>
     20e: 61 5f        	<unknown>
     210: 62 75        	<unknown>
     212: 69 6c        	<unknown>
     214: 74 69        	<unknown>
     216: 6e 5f        	<unknown>
     218: 62 6c        	<unknown>
     21a: 6f 63 6b 49  	jal	t1, 0xb66b0 <.debug_info+0xb66b0>
     21e: 64 78        	<unknown>
     220: 5f 74 31 37  	<unknown>
     224: 5f 5f 66 65  	<unknown>
     228: 74 63        	<unknown>
     22a: 68 5f        	<unknown>
     22c: 62 75        	<unknown>
     22e: 69 6c        	<unknown>
     230: 74 69        	<unknown>
     232: 6e 5f        	<unknown>
     234: 7a 45        	<unknown>
     236: 76 00        	<unknown>
     238: 5f 5f 66 65  	<unknown>
     23c: 74 63        	<unknown>
     23e: 68 5f        	<unknown>
     240: 62 75        	<unknown>
     242: 69 6c        	<unknown>
     244: 74 69        	<unknown>
     246: 6e 5f        	<unknown>
     248: 7a 00        	<unknown>
     24a: 5f 5a 4e 4b  	<unknown>
     24e: 32 35        	<unknown>
     250: 5f 5f 63 75  	<unknown>
     254: 64 61        	<unknown>
     256: 5f 62 75 69  	<unknown>
     25a: 6c 74        	<unknown>
     25c: 69 6e        	<unknown>
     25e: 5f 62 6c 6f  	<unknown>
     262: 63 6b 49 64  	bltu	s2, tp, 0x8b8 <.debug_info+0x8b8>
     266: 78 5f        	<unknown>
     268: 74 63        	<unknown>
     26a: 76 34        	<unknown>
     26c: 64 69        	<unknown>
     26e: 6d 33        	<unknown>
     270: 45 76        	<unknown>
     272: 00 6f        	<unknown>
     274: 70 65        	<unknown>
     276: 72 61        	<unknown>
     278: 74 6f        	<unknown>
     27a: 72 20        	<unknown>
     27c: 64 69        	<unknown>
     27e: 6d 33        	<unknown>
     280: 00 5f        	<unknown>
     282: 5a 4e        	<unknown>
     284: 4b 32 35 5f  	<unknown>
     288: 5f 63 75 64  	<unknown>
     28c: 61 5f        	<unknown>
     28e: 62 75        	<unknown>
     290: 69 6c        	<unknown>
     292: 74 69        	<unknown>
     294: 6e 5f        	<unknown>
     296: 62 6c        	<unknown>
     298: 6f 63 6b 49  	jal	t1, 0xb672e <.debug_info+0xb672e>
     29c: 64 78        	<unknown>
     29e: 5f 74 63 76  	<unknown>
     2a2: 35 75        	<unknown>
     2a4: 69 6e        	<unknown>
     2a6: 74 33        	<unknown>
     2a8: 45 76        	<unknown>
     2aa: 00 5f        	<unknown>
     2ac: 5f 63 75 64  	<unknown>
     2b0: 61 5f        	<unknown>
     2b2: 62 75        	<unknown>
     2b4: 69 6c        	<unknown>
     2b6: 74 69        	<unknown>
     2b8: 6e 5f        	<unknown>
     2ba: 62 6c        	<unknown>
     2bc: 6f 63 6b 49  	jal	t1, 0xb6752 <.debug_info+0xb6752>
     2c0: 64 78        	<unknown>
     2c2: 5f 74 00 5f  	<unknown>
     2c6: 5a 4e        	<unknown>
     2c8: 4b 32 35 5f  	<unknown>
     2cc: 5f 63 75 64  	<unknown>
     2d0: 61 5f        	<unknown>
     2d2: 62 75        	<unknown>
     2d4: 69 6c        	<unknown>
     2d6: 74 69        	<unknown>
     2d8: 6e 5f        	<unknown>
     2da: 62 6c        	<unknown>
     2dc: 6f 63 6b 49  	jal	t1, 0xb6772 <.debug_info+0xb6772>
     2e0: 64 78        	<unknown>
     2e2: 5f 74 61 53  	<unknown>
     2e6: 45 52        	<unknown>
     2e8: 4b 53 5f 00  	<unknown>
     2ec: 6f 70 65 72  	j	0x57a12 <.debug_info+0x57a12>
     2f0: 61 74        	<unknown>
     2f2: 6f 72 3d 00  	jal	tp, 0xd7af4 <.debug_info+0xd7af4>
     2f6: 5f 5a 4e 4b  	<unknown>
     2fa: 32 35        	<unknown>
     2fc: 5f 5f 63 75  	<unknown>
     300: 64 61        	<unknown>
     302: 5f 62 75 69  	<unknown>
     306: 6c 74        	<unknown>
     308: 69 6e        	<unknown>
     30a: 5f 62 6c 6f  	<unknown>
     30e: 63 6b 49 64  	bltu	s2, tp, 0x964 <.debug_info+0x964>
     312: 78 5f        	<unknown>
     314: 74 61        	<unknown>
     316: 64 45        	<unknown>
     318: 76 00        	<unknown>
     31a: 6f 70 65 72  	j	0x57a40 <.debug_info+0x57a40>
     31e: 61 74        	<unknown>
     320: 6f 72 26 00  	jal	tp, 0x67322 <.debug_info+0x67322>
     324: 5f 5a 4e 32  	<unknown>
     328: 35 5f        	<unknown>
     32a: 5f 63 75 64  	<unknown>
     32e: 61 5f        	<unknown>
     330: 62 75        	<unknown>
     332: 69 6c        	<unknown>
     334: 74 69        	<unknown>
     336: 6e 5f        	<unknown>
     338: 62 6c        	<unknown>
     33a: 6f 63 6b 44  	jal	t1, 0xb6780 <.debug_info+0xb6780>
     33e: 69 6d        	<unknown>
     340: 5f 74 31 37  	<unknown>
     344: 5f 5f 66 65  	<unknown>
     348: 74 63        	<unknown>
     34a: 68 5f        	<unknown>
     34c: 62 75        	<unknown>
     34e: 69 6c        	<unknown>
     350: 74 69        	<unknown>
     352: 6e 5f        	<unknown>
     354: 78 45        	<unknown>
     356: 76 00        	<unknown>
     358: 5f 5a 4e 32  	<unknown>
     35c: 35 5f        	<unknown>
     35e: 5f 63 75 64  	<unknown>
     362: 61 5f        	<unknown>
     364: 62 75        	<unknown>
     366: 69 6c        	<unknown>
     368: 74 69        	<unknown>
     36a: 6e 5f        	<unknown>
     36c: 62 6c        	<unknown>
     36e: 6f 63 6b 44  	jal	t1, 0xb67b4 <.debug_info+0xb67b4>
     372: 69 6d        	<unknown>
     374: 5f 74 31 37  	<unknown>
     378: 5f 5f 66 65  	<unknown>
     37c: 74 63        	<unknown>
     37e: 68 5f        	<unknown>
     380: 62 75        	<unknown>
     382: 69 6c        	<unknown>
     384: 74 69        	<unknown>
     386: 6e 5f        	<unknown>
     388: 79 45        	<unknown>
     38a: 76 00        	<unknown>
     38c: 5f 5a 4e 32  	<unknown>
     390: 35 5f        	<unknown>
     392: 5f 63 75 64  	<unknown>
     396: 61 5f        	<unknown>
     398: 62 75        	<unknown>
     39a: 69 6c        	<unknown>
     39c: 74 69        	<unknown>
     39e: 6e 5f        	<unknown>
     3a0: 62 6c        	<unknown>
     3a2: 6f 63 6b 44  	jal	t1, 0xb67e8 <.debug_info+0xb67e8>
     3a6: 69 6d        	<unknown>
     3a8: 5f 74 31 37  	<unknown>
     3ac: 5f 5f 66 65  	<unknown>
     3b0: 74 63        	<unknown>
     3b2: 68 5f        	<unknown>
     3b4: 62 75        	<unknown>
     3b6: 69 6c        	<unknown>
     3b8: 74 69        	<unknown>
     3ba: 6e 5f        	<unknown>
     3bc: 7a 45        	<unknown>
     3be: 76 00        	<unknown>
     3c0: 5f 5a 4e 4b  	<unknown>
     3c4: 32 35        	<unknown>
     3c6: 5f 5f 63 75  	<unknown>
     3ca: 64 61        	<unknown>
     3cc: 5f 62 75 69  	<unknown>
     3d0: 6c 74        	<unknown>
     3d2: 69 6e        	<unknown>
     3d4: 5f 62 6c 6f  	<unknown>
     3d8: 63 6b 44 69  	bltu	s0, s4, 0xa6e <.debug_info+0xa6e>
     3dc: 6d 5f        	<unknown>
     3de: 74 63        	<unknown>
     3e0: 76 34        	<unknown>
     3e2: 64 69        	<unknown>
     3e4: 6d 33        	<unknown>
     3e6: 45 76        	<unknown>
     3e8: 00 5f        	<unknown>
     3ea: 5a 4e        	<unknown>
     3ec: 4b 32 35 5f  	<unknown>
     3f0: 5f 63 75 64  	<unknown>
     3f4: 61 5f        	<unknown>
     3f6: 62 75        	<unknown>
     3f8: 69 6c        	<unknown>
     3fa: 74 69        	<unknown>
     3fc: 6e 5f        	<unknown>
     3fe: 62 6c        	<unknown>
     400: 6f 63 6b 44  	jal	t1, 0xb6846 <.debug_info+0xb6846>
     404: 69 6d        	<unknown>
     406: 5f 74 63 76  	<unknown>
     40a: 35 75        	<unknown>
     40c: 69 6e        	<unknown>
     40e: 74 33        	<unknown>
     410: 45 76        	<unknown>
     412: 00 5f        	<unknown>
     414: 5f 63 75 64  	<unknown>
     418: 61 5f        	<unknown>
     41a: 62 75        	<unknown>
     41c: 69 6c        	<unknown>
     41e: 74 69        	<unknown>
     420: 6e 5f        	<unknown>
     422: 62 6c        	<unknown>
     424: 6f 63 6b 44  	jal	t1, 0xb686a <.debug_info+0xb686a>
     428: 69 6d        	<unknown>
     42a: 5f 74 00 5f  	<unknown>
     42e: 5a 4e        	<unknown>
     430: 4b 32 35 5f  	<unknown>
     434: 5f 63 75 64  	<unknown>
     438: 61 5f        	<unknown>
     43a: 62 75        	<unknown>
     43c: 69 6c        	<unknown>
     43e: 74 69        	<unknown>
     440: 6e 5f        	<unknown>
     442: 62 6c        	<unknown>
     444: 6f 63 6b 44  	jal	t1, 0xb688a <.debug_info+0xb688a>
     448: 69 6d        	<unknown>
     44a: 5f 74 61 53  	<unknown>
     44e: 45 52        	<unknown>
     450: 4b 53 5f 00  	<unknown>
     454: 5f 5a 4e 4b  	<unknown>
     458: 32 35        	<unknown>
     45a: 5f 5f 63 75  	<unknown>
     45e: 64 61        	<unknown>
     460: 5f 62 75 69  	<unknown>
     464: 6c 74        	<unknown>
     466: 69 6e        	<unknown>
     468: 5f 62 6c 6f  	<unknown>
     46c: 63 6b 44 69  	bltu	s0, s4, 0xb02 <.debug_info+0xb02>
     470: 6d 5f        	<unknown>
     472: 74 61        	<unknown>
     474: 64 45        	<unknown>
     476: 76 00        	<unknown>
     478: 5f 5a 4e 32  	<unknown>
     47c: 36 5f        	<unknown>
     47e: 5f 63 75 64  	<unknown>
     482: 61 5f        	<unknown>
     484: 62 75        	<unknown>
     486: 69 6c        	<unknown>
     488: 74 69        	<unknown>
     48a: 6e 5f        	<unknown>
     48c: 74 68        	<unknown>
     48e: 72 65        	<unknown>
     490: 61 64        	<unknown>
     492: 49 64        	<unknown>
     494: 78 5f        	<unknown>
     496: 74 31        	<unknown>
     498: 37 5f 5f 66  	lui	t5, 0x665f5
     49c: 65 74        	<unknown>
     49e: 63 68 5f 62  	bltu	t5, t0, 0xace <.debug_info+0xace>
     4a2: 75 69        	<unknown>
     4a4: 6c 74        	<unknown>
     4a6: 69 6e        	<unknown>
     4a8: 5f 78 45 76  	<unknown>
     4ac: 00 5f        	<unknown>
     4ae: 5a 4e        	<unknown>
     4b0: 32 36        	<unknown>
     4b2: 5f 5f 63 75  	<unknown>
     4b6: 64 61        	<unknown>
     4b8: 5f 62 75 69  	<unknown>
     4bc: 6c 74        	<unknown>
     4be: 69 6e        	<unknown>
     4c0: 5f 74 68 72  	<unknown>
     4c4: 65 61        	<unknown>
     4c6: 64 49        	<unknown>
     4c8: 64 78        	<unknown>
     4ca: 5f 74 31 37  	<unknown>
     4ce: 5f 5f 66 65  	<unknown>
     4d2: 74 63        	<unknown>
     4d4: 68 5f        	<unknown>
     4d6: 62 75        	<unknown>
     4d8: 69 6c        	<unknown>
     4da: 74 69        	<unknown>
     4dc: 6e 5f        	<unknown>
     4de: 79 45        	<unknown>
     4e0: 76 00        	<unknown>
     4e2: 5f 5a 4e 32  	<unknown>
     4e6: 36 5f        	<unknown>
     4e8: 5f 63 75 64  	<unknown>
     4ec: 61 5f        	<unknown>
     4ee: 62 75        	<unknown>
     4f0: 69 6c        	<unknown>
     4f2: 74 69        	<unknown>
     4f4: 6e 5f        	<unknown>
     4f6: 74 68        	<unknown>
     4f8: 72 65        	<unknown>
     4fa: 61 64        	<unknown>
     4fc: 49 64        	<unknown>
     4fe: 78 5f        	<unknown>
     500: 74 31        	<unknown>
     502: 37 5f 5f 66  	lui	t5, 0x665f5
     506: 65 74        	<unknown>
     508: 63 68 5f 62  	bltu	t5, t0, 0xb38 <.debug_info+0xb38>
     50c: 75 69        	<unknown>
     50e: 6c 74        	<unknown>
     510: 69 6e        	<unknown>
     512: 5f 7a 45 76  	<unknown>
     516: 00 5f        	<unknown>
     518: 5a 4e        	<unknown>
     51a: 4b 32 36 5f  	<unknown>
     51e: 5f 63 75 64  	<unknown>
     522: 61 5f        	<unknown>
     524: 62 75        	<unknown>
     526: 69 6c        	<unknown>
     528: 74 69        	<unknown>
     52a: 6e 5f        	<unknown>
     52c: 74 68        	<unknown>
     52e: 72 65        	<unknown>
     530: 61 64        	<unknown>
     532: 49 64        	<unknown>
     534: 78 5f        	<unknown>
     536: 74 63        	<unknown>
     538: 76 34        	<unknown>
     53a: 64 69        	<unknown>
     53c: 6d 33        	<unknown>
     53e: 45 76        	<unknown>
     540: 00 5f        	<unknown>
     542: 5a 4e        	<unknown>
     544: 4b 32 36 5f  	<unknown>
     548: 5f 63 75 64  	<unknown>
     54c: 61 5f        	<unknown>
     54e: 62 75        	<unknown>
     550: 69 6c        	<unknown>
     552: 74 69        	<unknown>
     554: 6e 5f        	<unknown>
     556: 74 68        	<unknown>
     558: 72 65        	<unknown>
     55a: 61 64        	<unknown>
     55c: 49 64        	<unknown>
     55e: 78 5f        	<unknown>
     560: 74 63        	<unknown>
     562: 76 35        	<unknown>
     564: 75 69        	<unknown>
     566: 6e 74        	<unknown>
     568: 33 45 76 00  	xor	a0, a2, t2
     56c: 5f 5f 63 75  	<unknown>
     570: 64 61        	<unknown>
     572: 5f 62 75 69  	<unknown>
     576: 6c 74        	<unknown>
     578: 69 6e        	<unknown>
     57a: 5f 74 68 72  	<unknown>
     57e: 65 61        	<unknown>
     580: 64 49        	<unknown>
     582: 64 78        	<unknown>
     584: 5f 74 00 5f  	<unknown>
     588: 5a 4e        	<unknown>
     58a: 4b 32 36 5f  	<unknown>
     58e: 5f 63 75 64  	<unknown>
     592: 61 5f        	<unknown>
     594: 62 75        	<unknown>
     596: 69 6c        	<unknown>
     598: 74 69        	<unknown>
     59a: 6e 5f        	<unknown>
     59c: 74 68        	<unknown>
     59e: 72 65        	<unknown>
     5a0: 61 64        	<unknown>
     5a2: 49 64        	<unknown>
     5a4: 78 5f        	<unknown>
     5a6: 74 61        	<unknown>
     5a8: 53 45 52 4b  	<unknown>
     5ac: 53 5f 00 5f  	<unknown>
     5b0: 5a 4e        	<unknown>
     5b2: 4b 32 36 5f  	<unknown>
     5b6: 5f 63 75 64  	<unknown>
     5ba: 61 5f        	<unknown>
     5bc: 62 75        	<unknown>
     5be: 69 6c        	<unknown>
     5c0: 74 69        	<unknown>
     5c2: 6e 5f        	<unknown>
     5c4: 74 68        	<unknown>
     5c6: 72 65        	<unknown>
     5c8: 61 64        	<unknown>
     5ca: 49 64        	<unknown>
     5cc: 78 5f        	<unknown>
     5ce: 74 61        	<unknown>
     5d0: 64 45        	<unknown>
     5d2: 76 00        	<unknown>
     5d4: 73 74 64 00  	csrrci	s0, 0x6, 0x8
     5d8: 5f 5a 4c 33  	<unknown>
     5dc: 61 62        	<unknown>
     5de: 73 69 00 5f  	csrrsi	s2, 0x5f0, 0x0
     5e2: 5a 4c        	<unknown>
     5e4: 34 61        	<unknown>
     5e6: 63 6f 73 66  	bltu	t1, t2, 0xc64 <.debug_info+0xc64>
     5ea: 00 61        	<unknown>
     5ec: 63 6f 73 00  	bltu	t1, t2, 0x60a <.debug_info+0x60a>
     5f0: 66 6c        	<unknown>
     5f2: 6f 61 74 00  	jal	sp, 0x46df8 <.debug_info+0x46df8>
     5f6: 5f 5a 4c 35  	<unknown>
     5fa: 61 63        	<unknown>
     5fc: 6f 73 68 66  	jal	t1, 0x87c62 <.debug_info+0x87c62>
     600: 00 61        	<unknown>
     602: 63 6f 73 68  	bltu	t1, t2, 0xca0 <.debug_info+0xca0>
     606: 00 5f        	<unknown>
     608: 5a 4c        	<unknown>
     60a: 34 61        	<unknown>
     60c: 73 69 6e 66  	csrrsi	s2, 0x666, 0x1c
     610: 00 61        	<unknown>
     612: 73 69 6e 00  	csrrsi	s2, 0x6, 0x1c
     616: 5f 5a 4c 35  	<unknown>
     61a: 61 73        	<unknown>
     61c: 69 6e        	<unknown>
     61e: 68 66        	<unknown>
     620: 00 61        	<unknown>
     622: 73 69 6e 68  	csrrsi	s2, 0x686, 0x1c
     626: 00 5f        	<unknown>
     628: 5a 4c        	<unknown>
     62a: 34 61        	<unknown>
     62c: 74 61        	<unknown>
     62e: 6e 66        	<unknown>
     630: 00 61        	<unknown>
     632: 74 61        	<unknown>
     634: 6e 00        	<unknown>
     636: 5f 5a 4c 35  	<unknown>
     63a: 61 74        	<unknown>
     63c: 61 6e        	<unknown>
     63e: 32 66        	<unknown>
     640: 66 00        	<unknown>
     642: 61 74        	<unknown>
     644: 61 6e        	<unknown>
     646: 32 00        	<unknown>
     648: 5f 5a 4c 35  	<unknown>
     64c: 61 74        	<unknown>
     64e: 61 6e        	<unknown>
     650: 68 66        	<unknown>
     652: 00 61        	<unknown>
     654: 74 61        	<unknown>
     656: 6e 68        	<unknown>
     658: 00 5f        	<unknown>
     65a: 5a 4c        	<unknown>
     65c: 34 63        	<unknown>
     65e: 62 72        	<unknown>
     660: 74 66        	<unknown>
     662: 00 63        	<unknown>
     664: 62 72        	<unknown>
     666: 74 00        	<unknown>
     668: 5f 5a 4c 34  	<unknown>
     66c: 63 65 69 6c  	bltu	s2, t1, 0xd36 <.debug_info+0xd36>
     670: 66 00        	<unknown>
     672: 63 65 69 6c  	bltu	s2, t1, 0xd3c <.debug_info+0xd3c>
     676: 00 5f        	<unknown>
     678: 5a 4c        	<unknown>
     67a: 38 63        	<unknown>
     67c: 6f 70 79 73  	j	0x985b2 <.debug_info+0x985b2>
     680: 69 67        	<unknown>
     682: 6e 66        	<unknown>
     684: 66 00        	<unknown>
     686: 63 6f 70 79  	bltu	zero, s7, 0xe24 <.debug_info+0xe24>
     68a: 73 69 67 6e  	csrrsi	s2, 0x6e6, 0xe
     68e: 00 5f        	<unknown>
     690: 5a 4c        	<unknown>
     692: 33 63 6f 73  	<unknown>
     696: 66 00        	<unknown>
     698: 5f 5a 4c 34  	<unknown>
     69c: 63 6f 73 68  	bltu	t1, t2, 0xd3a <.debug_info+0xd3a>
     6a0: 66 00        	<unknown>
     6a2: 5f 5a 4c 33  	<unknown>
     6a6: 65 72        	<unknown>
     6a8: 66 66        	<unknown>
     6aa: 00 5f        	<unknown>
     6ac: 5a 4c        	<unknown>
     6ae: 34 65        	<unknown>
     6b0: 72 66        	<unknown>
     6b2: 63 66 00 65  	bltu	zero, a6, 0xcfe <.debug_info+0xcfe>
     6b6: 72 66        	<unknown>
     6b8: 63 00 5f 5a  	beq	t5, t0, 0xc58 <.debug_info+0xc58>
     6bc: 4c 33        	<unknown>
     6be: 65 78        	<unknown>
     6c0: 70 66        	<unknown>
     6c2: 00 5f        	<unknown>
     6c4: 5a 4c        	<unknown>
     6c6: 34 65        	<unknown>
     6c8: 78 70        	<unknown>
     6ca: 32 66        	<unknown>
     6cc: 00 65        	<unknown>
     6ce: 78 70        	<unknown>
     6d0: 32 00        	<unknown>
     6d2: 5f 5a 4c 35  	<unknown>
     6d6: 65 78        	<unknown>
     6d8: 70 6d        	<unknown>
     6da: 31 66        	<unknown>
     6dc: 00 65        	<unknown>
     6de: 78 70        	<unknown>
     6e0: 6d 31        	<unknown>
     6e2: 00 5f        	<unknown>
     6e4: 5a 4c        	<unknown>
     6e6: 34 66        	<unknown>
     6e8: 61 62        	<unknown>
     6ea: 73 66 00 66  	csrrsi	a2, 0x660, 0x0
     6ee: 61 62        	<unknown>
     6f0: 73 00 5f 5a  	<unknown>
     6f4: 4c 34        	<unknown>
     6f6: 66 64        	<unknown>
     6f8: 69 6d        	<unknown>
     6fa: 66 66        	<unknown>
     6fc: 00 66        	<unknown>
     6fe: 64 69        	<unknown>
     700: 6d 00        	<unknown>
     702: 5f 5a 4c 35  	<unknown>
     706: 66 6c        	<unknown>
     708: 6f 6f 72 66  	jal	t5, 0x2756e <.debug_info+0x2756e>
     70c: 00 66        	<unknown>
     70e: 6c 6f        	<unknown>
     710: 6f 72 00 5f  	jal	tp, 0x7d00 <.debug_info+0x7d00>
     714: 5a 4c        	<unknown>
     716: 33 66 6d 61  	<unknown>
     71a: 66 66        	<unknown>
     71c: 66 00        	<unknown>
     71e: 66 6d        	<unknown>
     720: 61 00        	<unknown>
     722: 5f 5a 4c 34  	<unknown>
     726: 66 6d        	<unknown>
     728: 61 78        	<unknown>
     72a: 66 66        	<unknown>
     72c: 00 66        	<unknown>
     72e: 6d 61        	<unknown>
     730: 78 00        	<unknown>
     732: 5f 5a 4c 34  	<unknown>
     736: 66 6d        	<unknown>
     738: 69 6e        	<unknown>
     73a: 66 66        	<unknown>
     73c: 00 66        	<unknown>
     73e: 6d 69        	<unknown>
     740: 6e 00        	<unknown>
     742: 5f 5a 4c 34  	<unknown>
     746: 66 6d        	<unknown>
     748: 6f 64 66 66  	jal	s0, 0x66dae <.debug_info+0x66dae>
     74c: 00 66        	<unknown>
     74e: 6d 6f        	<unknown>
     750: 64 00        	<unknown>
     752: 5f 5a 4c 31  	<unknown>
     756: 30 66        	<unknown>
     758: 70 63        	<unknown>
     75a: 6c 61        	<unknown>
     75c: 73 73 69 66  	csrrci	t1, 0x666, 0x12
     760: 79 66        	<unknown>
     762: 00 66        	<unknown>
     764: 70 63        	<unknown>
     766: 6c 61        	<unknown>
     768: 73 73 69 66  	csrrci	t1, 0x666, 0x12
     76c: 79 00        	<unknown>
     76e: 5f 5a 4c 35  	<unknown>
     772: 66 72        	<unknown>
     774: 65 78        	<unknown>
     776: 70 66        	<unknown>
     778: 50 69        	<unknown>
     77a: 00 66        	<unknown>
     77c: 72 65        	<unknown>
     77e: 78 70        	<unknown>
     780: 00 5f        	<unknown>
     782: 5a 4c        	<unknown>
     784: 35 68        	<unknown>
     786: 79 70        	<unknown>
     788: 6f 74 66 66  	jal	s0, 0x67dee <.debug_info+0x67dee>
     78c: 00 68        	<unknown>
     78e: 79 70        	<unknown>
     790: 6f 74 00 5f  	jal	s0, 0x7d80 <.debug_info+0x7d80>
     794: 5a 4c        	<unknown>
     796: 35 69        	<unknown>
     798: 6c 6f        	<unknown>
     79a: 67 62 66 00  	<unknown>
     79e: 69 6c        	<unknown>
     7a0: 6f 67 62 00  	jal	a4, 0x267a6 <.debug_info+0x267a6>
     7a4: 5f 5a 4c 38  	<unknown>
     7a8: 69 73        	<unknown>
     7aa: 66 69        	<unknown>
     7ac: 6e 69        	<unknown>
     7ae: 74 65        	<unknown>
     7b0: 66 00        	<unknown>
     7b2: 69 73        	<unknown>
     7b4: 66 69        	<unknown>
     7b6: 6e 69        	<unknown>
     7b8: 74 65        	<unknown>
     7ba: 00 62        	<unknown>
     7bc: 6f 6f 6c 00  	jal	t5, 0xc67c2 <.debug_info+0xc67c2>
     7c0: 5f 5a 4c 39  	<unknown>
     7c4: 69 73        	<unknown>
     7c6: 67 72 65 61  	<unknown>
     7ca: 74 65        	<unknown>
     7cc: 72 66        	<unknown>
     7ce: 66 00        	<unknown>
     7d0: 69 73        	<unknown>
     7d2: 67 72 65 61  	<unknown>
     7d6: 74 65        	<unknown>
     7d8: 72 00        	<unknown>
     7da: 5f 5a 4c 31  	<unknown>
     7de: 34 69        	<unknown>
     7e0: 73 67 72 65  	csrrsi	a4, 0x657, 0x4
     7e4: 61 74        	<unknown>
     7e6: 65 72        	<unknown>
     7e8: 65 71        	<unknown>
     7ea: 75 61        	<unknown>
     7ec: 6c 66        	<unknown>
     7ee: 66 00        	<unknown>
     7f0: 69 73        	<unknown>
     7f2: 67 72 65 61  	<unknown>
     7f6: 74 65        	<unknown>
     7f8: 72 65        	<unknown>
     7fa: 71 75        	<unknown>
     7fc: 61 6c        	<unknown>
     7fe: 00 5f        	<unknown>
     800: 5a 4c        	<unknown>
     802: 35 69        	<unknown>
     804: 73 69 6e 66  	csrrsi	s2, 0x666, 0x1c
     808: 66 00        	<unknown>
     80a: 69 73        	<unknown>
     80c: 69 6e        	<unknown>
     80e: 66 00        	<unknown>
     810: 5f 5a 4c 36  	<unknown>
     814: 69 73        	<unknown>
     816: 6c 65        	<unknown>
     818: 73 73 66 66  	csrrci	t1, 0x666, 0xc
     81c: 00 69        	<unknown>
     81e: 73 6c 65 73  	csrrsi	s8, 0x736, 0xa
     822: 73 00 5f 5a  	<unknown>
     826: 4c 31        	<unknown>
     828: 31 69        	<unknown>
     82a: 73 6c 65 73  	csrrsi	s8, 0x736, 0xa
     82e: 73 65 71 75  	csrrsi	a0, 0x757, 0x2
     832: 61 6c        	<unknown>
     834: 66 66        	<unknown>
     836: 00 69        	<unknown>
     838: 73 6c 65 73  	csrrsi	s8, 0x736, 0xa
     83c: 73 65 71 75  	csrrsi	a0, 0x757, 0x2
     840: 61 6c        	<unknown>
     842: 00 5f        	<unknown>
     844: 5a 4c        	<unknown>
     846: 31 33        	<unknown>
     848: 69 73        	<unknown>
     84a: 6c 65        	<unknown>
     84c: 73 73 67 72  	csrrci	t1, 0x726, 0xe
     850: 65 61        	<unknown>
     852: 74 65        	<unknown>
     854: 72 66        	<unknown>
     856: 66 00        	<unknown>
     858: 69 73        	<unknown>
     85a: 6c 65        	<unknown>
     85c: 73 73 67 72  	csrrci	t1, 0x726, 0xe
     860: 65 61        	<unknown>
     862: 74 65        	<unknown>
     864: 72 00        	<unknown>
     866: 5f 5a 4c 35  	<unknown>
     86a: 69 73        	<unknown>
     86c: 6e 61        	<unknown>
     86e: 6e 66        	<unknown>
     870: 00 69        	<unknown>
     872: 73 6e 61 6e  	csrrsi	t3, 0x6e6, 0x2
     876: 00 5f        	<unknown>
     878: 5a 4c        	<unknown>
     87a: 38 69        	<unknown>
     87c: 73 6e 6f 72  	csrrsi	t3, 0x726, 0x1e
     880: 6d 61        	<unknown>
     882: 6c 66        	<unknown>
     884: 00 69        	<unknown>
     886: 73 6e 6f 72  	csrrsi	t3, 0x726, 0x1e
     88a: 6d 61        	<unknown>
     88c: 6c 00        	<unknown>
     88e: 5f 5a 4c 31  	<unknown>
     892: 31 69        	<unknown>
     894: 73 75 6e 6f  	csrrci	a0, 0x6f6, 0x1c
     898: 72 64        	<unknown>
     89a: 65 72        	<unknown>
     89c: 65 64        	<unknown>
     89e: 66 66        	<unknown>
     8a0: 00 69        	<unknown>
     8a2: 73 75 6e 6f  	csrrci	a0, 0x6f6, 0x1c
     8a6: 72 64        	<unknown>
     8a8: 65 72        	<unknown>
     8aa: 65 64        	<unknown>
     8ac: 00 5f        	<unknown>
     8ae: 5a 4c        	<unknown>
     8b0: 34 6c        	<unknown>
     8b2: 61 62        	<unknown>
     8b4: 73 6c 00 5f  	csrrsi	s8, 0x5f0, 0x0
     8b8: 5a 4c        	<unknown>
     8ba: 35 6c        	<unknown>
     8bc: 64 65        	<unknown>
     8be: 78 70        	<unknown>
     8c0: 66 69        	<unknown>
     8c2: 00 6c        	<unknown>
     8c4: 64 65        	<unknown>
     8c6: 78 70        	<unknown>
     8c8: 00 5f        	<unknown>
     8ca: 5a 4c        	<unknown>
     8cc: 36 6c        	<unknown>
     8ce: 67 61 6d 6d  	<unknown>
     8d2: 61 66        	<unknown>
     8d4: 00 6c        	<unknown>
     8d6: 67 61 6d 6d  	<unknown>
     8da: 61 00        	<unknown>
     8dc: 5f 5a 4c 35  	<unknown>
     8e0: 6c 6c        	<unknown>
     8e2: 61 62        	<unknown>
     8e4: 73 78 00 6c  	csrrci	a6, 0x6c0, 0x0
     8e8: 6c 61        	<unknown>
     8ea: 62 73        	<unknown>
     8ec: 00 5f        	<unknown>
     8ee: 5a 4c        	<unknown>
     8f0: 36 6c        	<unknown>
     8f2: 6c 72        	<unknown>
     8f4: 69 6e        	<unknown>
     8f6: 74 66        	<unknown>
     8f8: 00 6c        	<unknown>
     8fa: 6c 72        	<unknown>
     8fc: 69 6e        	<unknown>
     8fe: 74 00        	<unknown>
     900: 5f 5a 4c 33  	<unknown>
     904: 6c 6f        	<unknown>
     906: 67 66 00 6c  	<unknown>
     90a: 6f 67 00 5f  	jal	a4, 0x6efa <.debug_info+0x6efa>
     90e: 5a 4c        	<unknown>
     910: 35 6c        	<unknown>
     912: 6f 67 31 30  	jal	a4, 0x17414 <.debug_info+0x17414>
     916: 66 00        	<unknown>
     918: 6c 6f        	<unknown>
     91a: 67 31 30 00  	<unknown>
     91e: 5f 5a 4c 35  	<unknown>
     922: 6c 6f        	<unknown>
     924: 67 31 70 66  	<unknown>
     928: 00 6c        	<unknown>
     92a: 6f 67 31 70  	jal	a4, 0x1782c <.debug_info+0x1782c>
     92e: 00 5f        	<unknown>
     930: 5a 4c        	<unknown>
     932: 34 6c        	<unknown>
     934: 6f 67 32 66  	jal	a4, 0x27796 <.debug_info+0x27796>
     938: 00 6c        	<unknown>
     93a: 6f 67 32 00  	jal	a4, 0x2713c <.debug_info+0x2713c>
     93e: 5f 5a 4c 34  	<unknown>
     942: 6c 6f        	<unknown>
     944: 67 62 66 00  	<unknown>
     948: 5f 5a 4c 35  	<unknown>
     94c: 6c 72        	<unknown>
     94e: 69 6e        	<unknown>
     950: 74 66        	<unknown>
     952: 00 5f        	<unknown>
     954: 5a 4c        	<unknown>
     956: 36 6c        	<unknown>
     958: 72 6f        	<unknown>
     95a: 75 6e        	<unknown>
     95c: 64 66        	<unknown>
     95e: 00 5f        	<unknown>
     960: 5a 4c        	<unknown>
     962: 37 6c 6c 72  	lui	s8, 0x726c6
     966: 6f 75 6e 64  	jal	a0, 0xe7fac <.debug_info+0xe7fac>
     96a: 66 00        	<unknown>
     96c: 6c 6c        	<unknown>
     96e: 72 6f        	<unknown>
     970: 75 6e        	<unknown>
     972: 64 00        	<unknown>
     974: 5f 5a 4c 34  	<unknown>
     978: 6d 6f        	<unknown>
     97a: 64 66        	<unknown>
     97c: 66 50        	<unknown>
     97e: 66 00        	<unknown>
     980: 5f 5a 4c 33  	<unknown>
     984: 6e 61        	<unknown>
     986: 6e 50        	<unknown>
     988: 4b 63 00 5f  	<unknown>
     98c: 5a 4c        	<unknown>
     98e: 34 6e        	<unknown>
     990: 61 6e        	<unknown>
     992: 66 50        	<unknown>
     994: 4b 63 00 5f  	<unknown>
     998: 5a 4c        	<unknown>
     99a: 39 6e        	<unknown>
     99c: 65 61        	<unknown>
     99e: 72 62        	<unknown>
     9a0: 79 69        	<unknown>
     9a2: 6e 74        	<unknown>
     9a4: 66 00        	<unknown>
     9a6: 6e 65        	<unknown>
     9a8: 61 72        	<unknown>
     9aa: 62 79        	<unknown>
     9ac: 69 6e        	<unknown>
     9ae: 74 00        	<unknown>
     9b0: 5f 5a 4c 39  	<unknown>
     9b4: 6e 65        	<unknown>
     9b6: 78 74        	<unknown>
     9b8: 61 66        	<unknown>
     9ba: 74 65        	<unknown>
     9bc: 72 66        	<unknown>
     9be: 66 00        	<unknown>
     9c0: 6e 65        	<unknown>
     9c2: 78 74        	<unknown>
     9c4: 61 66        	<unknown>
     9c6: 74 65        	<unknown>
     9c8: 72 00        	<unknown>
     9ca: 5f 5a 4c 33  	<unknown>
     9ce: 70 6f        	<unknown>
     9d0: 77 66 69 00  	<unknown>
     9d4: 70 6f        	<unknown>
     9d6: 77 00 5f 5a  	<unknown>
     9da: 4c 39        	<unknown>
     9dc: 72 65        	<unknown>
     9de: 6d 61        	<unknown>
     9e0: 69 6e        	<unknown>
     9e2: 64 65        	<unknown>
     9e4: 72 66        	<unknown>
     9e6: 66 00        	<unknown>
     9e8: 72 65        	<unknown>
     9ea: 6d 61        	<unknown>
     9ec: 69 6e        	<unknown>
     9ee: 64 65        	<unknown>
     9f0: 72 00        	<unknown>
     9f2: 5f 5a 4c 36  	<unknown>
     9f6: 72 65        	<unknown>
     9f8: 6d 71        	<unknown>
     9fa: 75 6f        	<unknown>
     9fc: 66 66        	<unknown>
     9fe: 50 69        	<unknown>
     a00: 00 72        	<unknown>
     a02: 65 6d        	<unknown>
     a04: 71 75        	<unknown>
     a06: 6f 00 5f 5a  	j	0xf17aa <.debug_info+0xf17aa>
     a0a: 4c 34        	<unknown>
     a0c: 72 69        	<unknown>
     a0e: 6e 74        	<unknown>
     a10: 66 00        	<unknown>
     a12: 5f 5a 4c 35  	<unknown>
     a16: 72 6f        	<unknown>
     a18: 75 6e        	<unknown>
     a1a: 64 66        	<unknown>
     a1c: 00 5f        	<unknown>
     a1e: 5a 4c        	<unknown>
     a20: 37 73 63 61  	lui	t1, 0x61637
     a24: 6c 62        	<unknown>
     a26: 6c 6e        	<unknown>
     a28: 66 6c        	<unknown>
     a2a: 00 73        	<unknown>
     a2c: 63 61 6c 62  	bltu	s8, t1, 0x104e <.debug_info+0x104e>
     a30: 6c 6e        	<unknown>
     a32: 00 5f        	<unknown>
     a34: 5a 4c        	<unknown>
     a36: 36 73        	<unknown>
     a38: 63 61 6c 62  	bltu	s8, t1, 0x105a <.debug_info+0x105a>
     a3c: 6e 66        	<unknown>
     a3e: 69 00        	<unknown>
     a40: 73 63 61 6c  	csrrsi	t1, 0x6c6, 0x2
     a44: 62 6e        	<unknown>
     a46: 00 5f        	<unknown>
     a48: 5a 4c        	<unknown>
     a4a: 37 73 69 67  	lui	t1, 0x67697
     a4e: 6e 62        	<unknown>
     a50: 69 74        	<unknown>
     a52: 66 00        	<unknown>
     a54: 73 69 67 6e  	csrrsi	s2, 0x6e6, 0xe
     a58: 62 69        	<unknown>
     a5a: 74 00        	<unknown>
     a5c: 5f 5a 4c 33  	<unknown>
     a60: 73 69 6e 66  	csrrsi	s2, 0x666, 0x1c
     a64: 00 5f        	<unknown>
     a66: 5a 4c        	<unknown>
     a68: 34 73        	<unknown>
     a6a: 69 6e        	<unknown>
     a6c: 68 66        	<unknown>
     a6e: 00 5f        	<unknown>
     a70: 5a 4c        	<unknown>
     a72: 34 73        	<unknown>
     a74: 71 72        	<unknown>
     a76: 74 66        	<unknown>
     a78: 00 73        	<unknown>
     a7a: 71 72        	<unknown>
     a7c: 74 00        	<unknown>
     a7e: 5f 5a 4c 33  	<unknown>
     a82: 74 61        	<unknown>
     a84: 6e 66        	<unknown>
     a86: 00 5f        	<unknown>
     a88: 5a 4c        	<unknown>
     a8a: 34 74        	<unknown>
     a8c: 61 6e        	<unknown>
     a8e: 68 66        	<unknown>
     a90: 00 5f        	<unknown>
     a92: 5a 4c        	<unknown>
     a94: 36 74        	<unknown>
     a96: 67 61 6d 6d  	<unknown>
     a9a: 61 66        	<unknown>
     a9c: 00 74        	<unknown>
     a9e: 67 61 6d 6d  	<unknown>
     aa2: 61 00        	<unknown>
     aa4: 5f 5a 4c 35  	<unknown>
     aa8: 74 72        	<unknown>
     aaa: 75 6e        	<unknown>
     aac: 63 66 00 74  	bltu	zero, zero, 0x11f8 <.debug_info+0x11f8>
     ab0: 72 75        	<unknown>
     ab2: 6e 63        	<unknown>
     ab4: 00 64        	<unknown>
     ab6: 6f 75 62 6c  	jal	a0, 0x2817c <.debug_info+0x2817c>
     aba: 65 5f        	<unknown>
     abc: 74 00        	<unknown>
     abe: 66 6c        	<unknown>
     ac0: 6f 61 74 5f  	jal	sp, 0x478b6 <.debug_info+0x478b6>
     ac4: 74 00        	<unknown>
     ac6: 61 63        	<unknown>
     ac8: 6f 73 68 6c  	jal	t1, 0x8818e <.debug_info+0x8818e>
     acc: 00 6c        	<unknown>
     ace: 6f 6e 67 20  	jal	t3, 0x76cd4 <.debug_info+0x76cd4>
     ad2: 64 6f        	<unknown>
     ad4: 75 62        	<unknown>
     ad6: 6c 65        	<unknown>
     ad8: 00 61        	<unknown>
     ada: 73 69 6e 68  	csrrsi	s2, 0x686, 0x1c
     ade: 6c 00        	<unknown>
     ae0: 61 74        	<unknown>
     ae2: 61 6e        	<unknown>
     ae4: 68 6c        	<unknown>
     ae6: 00 63        	<unknown>
     ae8: 62 72        	<unknown>
     aea: 74 6c        	<unknown>
     aec: 00 63        	<unknown>
     aee: 6f 70 79 73  	j	0x98a24 <.debug_info+0x98a24>
     af2: 69 67        	<unknown>
     af4: 6e 66        	<unknown>
     af6: 00 63        	<unknown>
     af8: 6f 70 79 73  	j	0x98a2e <.debug_info+0x98a2e>
     afc: 69 67        	<unknown>
     afe: 6e 6c        	<unknown>
     b00: 00 65        	<unknown>
     b02: 72 66        	<unknown>
     b04: 6c 00        	<unknown>
     b06: 65 72        	<unknown>
     b08: 66 63        	<unknown>
     b0a: 6c 00        	<unknown>
     b0c: 65 78        	<unknown>
     b0e: 70 32        	<unknown>
     b10: 6c 00        	<unknown>
     b12: 65 78        	<unknown>
     b14: 70 6d        	<unknown>
     b16: 31 6c        	<unknown>
     b18: 00 66        	<unknown>
     b1a: 64 69        	<unknown>
     b1c: 6d 66        	<unknown>
     b1e: 00 66        	<unknown>
     b20: 64 69        	<unknown>
     b22: 6d 6c        	<unknown>
     b24: 00 66        	<unknown>
     b26: 6d 61        	<unknown>
     b28: 66 00        	<unknown>
     b2a: 66 6d        	<unknown>
     b2c: 61 6c        	<unknown>
     b2e: 00 66        	<unknown>
     b30: 6d 61        	<unknown>
     b32: 78 66        	<unknown>
     b34: 00 66        	<unknown>
     b36: 6d 61        	<unknown>
     b38: 78 6c        	<unknown>
     b3a: 00 66        	<unknown>
     b3c: 6d 69        	<unknown>
     b3e: 6e 66        	<unknown>
     b40: 00 66        	<unknown>
     b42: 6d 69        	<unknown>
     b44: 6e 6c        	<unknown>
     b46: 00 68        	<unknown>
     b48: 79 70        	<unknown>
     b4a: 6f 74 66 00  	jal	s0, 0x67b50 <.debug_info+0x67b50>
     b4e: 68 79        	<unknown>
     b50: 70 6f        	<unknown>
     b52: 74 6c        	<unknown>
     b54: 00 69        	<unknown>
     b56: 6c 6f        	<unknown>
     b58: 67 62 6c 00  	<unknown>
     b5c: 6c 67        	<unknown>
     b5e: 61 6d        	<unknown>
     b60: 6d 61        	<unknown>
     b62: 6c 00        	<unknown>
     b64: 6c 6c        	<unknown>
     b66: 72 69        	<unknown>
     b68: 6e 74        	<unknown>
     b6a: 6c 00        	<unknown>
     b6c: 6c 6c        	<unknown>
     b6e: 72 6f        	<unknown>
     b70: 75 6e        	<unknown>
     b72: 64 6c        	<unknown>
     b74: 00 6c        	<unknown>
     b76: 6f 67 31 70  	jal	a4, 0x17a78 <.debug_info+0x17a78>
     b7a: 6c 00        	<unknown>
     b7c: 6c 6f        	<unknown>
     b7e: 67 32 6c 00  	<unknown>
     b82: 6e 61        	<unknown>
     b84: 6e 6c        	<unknown>
     b86: 00 6e        	<unknown>
     b88: 65 61        	<unknown>
     b8a: 72 62        	<unknown>
     b8c: 79 69        	<unknown>
     b8e: 6e 74        	<unknown>
     b90: 6c 00        	<unknown>
     b92: 6e 65        	<unknown>
     b94: 78 74        	<unknown>
     b96: 61 66        	<unknown>
     b98: 74 65        	<unknown>
     b9a: 72 66        	<unknown>
     b9c: 00 6e        	<unknown>
     b9e: 65 78        	<unknown>
     ba0: 74 61        	<unknown>
     ba2: 66 74        	<unknown>
     ba4: 65 72        	<unknown>
     ba6: 6c 00        	<unknown>
     ba8: 6e 65        	<unknown>
     baa: 78 74        	<unknown>
     bac: 74 6f        	<unknown>
     bae: 77 61 72 64  	<unknown>
     bb2: 00 6e        	<unknown>
     bb4: 65 78        	<unknown>
     bb6: 74 74        	<unknown>
     bb8: 6f 77 61 72  	jal	a4, 0x182de <.debug_info+0x182de>
     bbc: 64 66        	<unknown>
     bbe: 00 6e        	<unknown>
     bc0: 65 78        	<unknown>
     bc2: 74 74        	<unknown>
     bc4: 6f 77 61 72  	jal	a4, 0x182ea <.debug_info+0x182ea>
     bc8: 64 6c        	<unknown>
     bca: 00 72        	<unknown>
     bcc: 65 6d        	<unknown>
     bce: 61 69        	<unknown>
     bd0: 6e 64        	<unknown>
     bd2: 65 72        	<unknown>
     bd4: 66 00        	<unknown>
     bd6: 72 65        	<unknown>
     bd8: 6d 61        	<unknown>
     bda: 69 6e        	<unknown>
     bdc: 64 65        	<unknown>
     bde: 72 6c        	<unknown>
     be0: 00 72        	<unknown>
     be2: 65 6d        	<unknown>
     be4: 71 75        	<unknown>
     be6: 6f 66 00 72  	jal	a2, 0x7306 <.debug_info+0x7306>
     bea: 65 6d        	<unknown>
     bec: 71 75        	<unknown>
     bee: 6f 6c 00 73  	jal	s8, 0x731e <.debug_info+0x731e>
     bf2: 63 61 6c 62  	bltu	s8, t1, 0x1214 <.debug_info+0x1214>
     bf6: 6c 6e        	<unknown>
     bf8: 66 00        	<unknown>
     bfa: 73 63 61 6c  	csrrsi	t1, 0x6c6, 0x2
     bfe: 62 6c        	<unknown>
     c00: 6e 6c        	<unknown>
     c02: 00 73        	<unknown>
     c04: 63 61 6c 62  	bltu	s8, t1, 0x1226 <.debug_info+0x1226>
     c08: 6e 66        	<unknown>
     c0a: 00 73        	<unknown>
     c0c: 63 61 6c 62  	bltu	s8, t1, 0x122e <.debug_info+0x122e>
     c10: 6e 6c        	<unknown>
     c12: 00 74        	<unknown>
     c14: 67 61 6d 6d  	<unknown>
     c18: 61 6c        	<unknown>
     c1a: 00 74        	<unknown>
     c1c: 72 75        	<unknown>
     c1e: 6e 63        	<unknown>
     c20: 6c 00        	<unknown>
     c22: 71 75        	<unknown>
     c24: 6f 74 00 72  	jal	s0, 0x8344 <.debug_info+0x8344>
     c28: 65 6d        	<unknown>
     c2a: 00 61        	<unknown>
     c2c: 62 6f        	<unknown>
     c2e: 72 74        	<unknown>
     c30: 00 61        	<unknown>
     c32: 74 65        	<unknown>
     c34: 78 69        	<unknown>
     c36: 74 00        	<unknown>
     c38: 61 74        	<unknown>
     c3a: 5f 71 75 69  	<unknown>
     c3e: 63 6b 5f 65  	bltu	t5, s5, 0x1294 <.debug_info+0x1294>
     c42: 78 69        	<unknown>
     c44: 74 00        	<unknown>
     c46: 61 74        	<unknown>
     c48: 6f 66 00 61  	jal	a2, 0x7258 <.debug_info+0x7258>
     c4c: 74 6f        	<unknown>
     c4e: 69 00        	<unknown>
     c50: 61 74        	<unknown>
     c52: 6f 6c 00 62  	jal	s8, 0x7272 <.debug_info+0x7272>
     c56: 73 65 61 72  	csrrsi	a0, 0x726, 0x2
     c5a: 63 68 00 75  	bltu	zero, a6, 0x13aa <.debug_info+0x13aa>
     c5e: 6e 73        	<unknown>
     c60: 69 67        	<unknown>
     c62: 6e 65        	<unknown>
     c64: 64 20        	<unknown>
     c66: 6c 6f        	<unknown>
     c68: 6e 67        	<unknown>
     c6a: 00 73        	<unknown>
     c6c: 69 7a        	<unknown>
     c6e: 65 5f        	<unknown>
     c70: 74 00        	<unknown>
     c72: 5f 5f 63 6f  	<unknown>
     c76: 6d 70        	<unknown>
     c78: 61 72        	<unknown>
     c7a: 5f 66 6e 5f  	<unknown>
     c7e: 74 00        	<unknown>
     c80: 63 61 6c 6c  	bltu	s8, t1, 0x1342 <.debug_info+0x1342>
     c84: 6f 63 00 66  	jal	t1, 0x72e4 <.debug_info+0x72e4>
     c88: 72 65        	<unknown>
     c8a: 65 00        	<unknown>
     c8c: 67 65 74 65  	<unknown>
     c90: 6e 76        	<unknown>
     c92: 00 6d        	<unknown>
     c94: 61 6c        	<unknown>
     c96: 6c 6f        	<unknown>
     c98: 63 00 6d 62  	beq	s10, t1, 0x12b8 <.debug_info+0x12b8>
     c9c: 6c 65        	<unknown>
     c9e: 6e 00        	<unknown>
     ca0: 6d 62        	<unknown>
     ca2: 73 74 6f 77  	csrrci	s0, 0x776, 0x1e
     ca6: 63 73 00 77  	bgeu	zero, a6, 0x140c <.debug_info+0x140c>
     caa: 63 68 61 72  	bltu	sp, t1, 0x13da <.debug_info+0x13da>
     cae: 5f 74 00 6d  	<unknown>
     cb2: 62 74        	<unknown>
     cb4: 6f 77 63 00  	jal	a4, 0x37cba <.debug_info+0x37cba>
     cb8: 71 73        	<unknown>
     cba: 6f 72 74 00  	jal	tp, 0x484c0 <.debug_info+0x484c0>
     cbe: 72 65        	<unknown>
     cc0: 61 6c        	<unknown>
     cc2: 6c 6f        	<unknown>
     cc4: 63 00 73 72  	beq	t1, t2, 0x13e4 <.debug_info+0x13e4>
     cc8: 61 6e        	<unknown>
     cca: 64 00        	<unknown>
     ccc: 73 74 72 74  	csrrci	s0, mseccfg, 0x4
     cd0: 6f 64 00 73  	jal	s0, 0x7400 <.debug_info+0x7400>
     cd4: 74 72        	<unknown>
     cd6: 74 6f        	<unknown>
     cd8: 6c 00        	<unknown>
     cda: 73 74 72 74  	csrrci	s0, mseccfg, 0x4
     cde: 6f 75 6c 00  	jal	a0, 0xc7ce4 <.debug_info+0xc7ce4>
     ce2: 73 79 73 74  	csrrci	s2, mseccfg, 0x6
     ce6: 65 6d        	<unknown>
     ce8: 00 77        	<unknown>
     cea: 63 73 74 6f  	bgeu	s0, s7, 0x13d0 <.debug_info+0x13d0>
     cee: 6d 62        	<unknown>
     cf0: 73 00 77 63  	<unknown>
     cf4: 74 6f        	<unknown>
     cf6: 6d 62        	<unknown>
     cf8: 00 5f        	<unknown>
     cfa: 5f 67 6e 75  	<unknown>
     cfe: 5f 63 78 78  	<unknown>
     d02: 00 6c        	<unknown>
     d04: 6c 64        	<unknown>
     d06: 69 76        	<unknown>
     d08: 5f 74 00 5f  	<unknown>
     d0c: 45 78        	<unknown>
     d0e: 69 74        	<unknown>
     d10: 00 6c        	<unknown>
     d12: 6c 64        	<unknown>
     d14: 69 76        	<unknown>
     d16: 00 61        	<unknown>
     d18: 74 6f        	<unknown>
     d1a: 6c 6c        	<unknown>
     d1c: 00 73        	<unknown>
     d1e: 74 72        	<unknown>
     d20: 74 6f        	<unknown>
     d22: 6c 6c        	<unknown>
     d24: 00 73        	<unknown>
     d26: 74 72        	<unknown>
     d28: 74 6f        	<unknown>
     d2a: 75 6c        	<unknown>
     d2c: 6c 00        	<unknown>
     d2e: 73 74 72 74  	csrrci	s0, mseccfg, 0x4
     d32: 6f 66 00 73  	jal	a2, 0x7462 <.debug_info+0x7462>
     d36: 74 72        	<unknown>
     d38: 74 6f        	<unknown>
     d3a: 6c 64        	<unknown>
     d3c: 00 5f        	<unknown>
     d3e: 5a 4e        	<unknown>
     d40: 39 5f        	<unknown>
     d42: 5f 67 6e 75  	<unknown>
     d46: 5f 63 78 78  	<unknown>
     d4a: 33 64 69 76  	<unknown>
     d4e: 45 78        	<unknown>
     d50: 78 00        	<unknown>
     d52: 5f 5a 53 74  	<unknown>
     d56: 33 61 62 73  	<unknown>
     d5a: 65 00        	<unknown>
     d5c: 5f 5a 4c 35  	<unknown>
     d60: 61 63        	<unknown>
     d62: 6f 73 66 66  	jal	t1, 0x683c8 <.debug_info+0x683c8>
     d66: 00 5f        	<unknown>
     d68: 5a 4c        	<unknown>
     d6a: 36 61        	<unknown>
     d6c: 63 6f 73 68  	bltu	t1, t2, 0x140a <.debug_info+0x140a>
     d70: 66 66        	<unknown>
     d72: 00 5f        	<unknown>
     d74: 5a 4c        	<unknown>
     d76: 35 61        	<unknown>
     d78: 73 69 6e 66  	csrrsi	s2, 0x666, 0x1c
     d7c: 66 00        	<unknown>
     d7e: 5f 5a 4c 36  	<unknown>
     d82: 61 73        	<unknown>
     d84: 69 6e        	<unknown>
     d86: 68 66        	<unknown>
     d88: 66 00        	<unknown>
     d8a: 5f 5a 4c 36  	<unknown>
     d8e: 61 74        	<unknown>
     d90: 61 6e        	<unknown>
     d92: 32 66        	<unknown>
     d94: 66 66        	<unknown>
     d96: 00 61        	<unknown>
     d98: 74 61        	<unknown>
     d9a: 6e 32        	<unknown>
     d9c: 66 00        	<unknown>
     d9e: 5f 5a 4c 35  	<unknown>
     da2: 61 74        	<unknown>
     da4: 61 6e        	<unknown>
     da6: 66 66        	<unknown>
     da8: 00 5f        	<unknown>
     daa: 5a 4c        	<unknown>
     dac: 36 61        	<unknown>
     dae: 74 61        	<unknown>
     db0: 6e 68        	<unknown>
     db2: 66 66        	<unknown>
     db4: 00 5f        	<unknown>
     db6: 5a 4c        	<unknown>
     db8: 35 63        	<unknown>
     dba: 62 72        	<unknown>
     dbc: 74 66        	<unknown>
     dbe: 66 00        	<unknown>
     dc0: 5f 5a 4c 35  	<unknown>
     dc4: 63 65 69 6c  	bltu	s2, t1, 0x148e <.debug_info+0x148e>
     dc8: 66 66        	<unknown>
     dca: 00 5f        	<unknown>
     dcc: 5a 4c        	<unknown>
     dce: 39 63        	<unknown>
     dd0: 6f 70 79 73  	j	0x98d06 <.debug_info+0x98d06>
     dd4: 69 67        	<unknown>
     dd6: 6e 66        	<unknown>
     dd8: 66 66        	<unknown>
     dda: 00 5f        	<unknown>
     ddc: 5a 4c        	<unknown>
     dde: 34 63        	<unknown>
     de0: 6f 73 66 66  	jal	t1, 0x68446 <.debug_info+0x68446>
     de4: 00 5f        	<unknown>
     de6: 5a 4c        	<unknown>
     de8: 35 63        	<unknown>
     dea: 6f 73 68 66  	jal	t1, 0x88450 <.debug_info+0x88450>
     dee: 66 00        	<unknown>
     df0: 5f 5a 4c 35  	<unknown>
     df4: 65 72        	<unknown>
     df6: 66 63        	<unknown>
     df8: 66 66        	<unknown>
     dfa: 00 5f        	<unknown>
     dfc: 5a 4c        	<unknown>
     dfe: 34 65        	<unknown>
     e00: 72 66        	<unknown>
     e02: 66 66        	<unknown>
     e04: 00 5f        	<unknown>
     e06: 5a 4c        	<unknown>
     e08: 35 65        	<unknown>
     e0a: 78 70        	<unknown>
     e0c: 32 66        	<unknown>
     e0e: 66 00        	<unknown>
     e10: 5f 5a 4c 34  	<unknown>
     e14: 65 78        	<unknown>
     e16: 70 66        	<unknown>
     e18: 66 00        	<unknown>
     e1a: 5f 5a 4c 36  	<unknown>
     e1e: 65 78        	<unknown>
     e20: 70 6d        	<unknown>
     e22: 31 66        	<unknown>
     e24: 66 00        	<unknown>
     e26: 5f 5a 4c 35  	<unknown>
     e2a: 66 61        	<unknown>
     e2c: 62 73        	<unknown>
     e2e: 66 66        	<unknown>
     e30: 00 5f        	<unknown>
     e32: 5a 4c        	<unknown>
     e34: 35 66        	<unknown>
     e36: 64 69        	<unknown>
     e38: 6d 66        	<unknown>
     e3a: 66 66        	<unknown>
     e3c: 00 5f        	<unknown>
     e3e: 5a 4c        	<unknown>
     e40: 36 66        	<unknown>
     e42: 6c 6f        	<unknown>
     e44: 6f 72 66 66  	jal	tp, 0x684aa <.debug_info+0x684aa>
     e48: 00 5f        	<unknown>
     e4a: 5a 4c        	<unknown>
     e4c: 34 66        	<unknown>
     e4e: 6d 61        	<unknown>
     e50: 66 66        	<unknown>
     e52: 66 66        	<unknown>
     e54: 00 5f        	<unknown>
     e56: 5a 4c        	<unknown>
     e58: 35 66        	<unknown>
     e5a: 6d 61        	<unknown>
     e5c: 78 66        	<unknown>
     e5e: 66 66        	<unknown>
     e60: 00 5f        	<unknown>
     e62: 5a 4c        	<unknown>
     e64: 35 66        	<unknown>
     e66: 6d 69        	<unknown>
     e68: 6e 66        	<unknown>
     e6a: 66 66        	<unknown>
     e6c: 00 5f        	<unknown>
     e6e: 5a 4c        	<unknown>
     e70: 35 66        	<unknown>
     e72: 6d 6f        	<unknown>
     e74: 64 66        	<unknown>
     e76: 66 66        	<unknown>
     e78: 00 66        	<unknown>
     e7a: 6d 6f        	<unknown>
     e7c: 64 66        	<unknown>
     e7e: 00 5f        	<unknown>
     e80: 5a 4c        	<unknown>
     e82: 36 66        	<unknown>
     e84: 72 65        	<unknown>
     e86: 78 70        	<unknown>
     e88: 66 66        	<unknown>
     e8a: 50 69        	<unknown>
     e8c: 00 66        	<unknown>
     e8e: 72 65        	<unknown>
     e90: 78 70        	<unknown>
     e92: 66 00        	<unknown>
     e94: 5f 5a 4c 36  	<unknown>
     e98: 68 79        	<unknown>
     e9a: 70 6f        	<unknown>
     e9c: 74 66        	<unknown>
     e9e: 66 66        	<unknown>
     ea0: 00 5f        	<unknown>
     ea2: 5a 4c        	<unknown>
     ea4: 36 69        	<unknown>
     ea6: 6c 6f        	<unknown>
     ea8: 67 62 66 66  	<unknown>
     eac: 00 5f        	<unknown>
     eae: 5a 4c        	<unknown>
     eb0: 36 6c        	<unknown>
     eb2: 64 65        	<unknown>
     eb4: 78 70        	<unknown>
     eb6: 66 66        	<unknown>
     eb8: 69 00        	<unknown>
     eba: 6c 64        	<unknown>
     ebc: 65 78        	<unknown>
     ebe: 70 66        	<unknown>
     ec0: 00 5f        	<unknown>
     ec2: 5a 4c        	<unknown>
     ec4: 37 6c 67 61  	lui	s8, 0x61676
     ec8: 6d 6d        	<unknown>
     eca: 61 66        	<unknown>
     ecc: 66 00        	<unknown>
     ece: 5f 5a 4c 37  	<unknown>
     ed2: 6c 6c        	<unknown>
     ed4: 72 69        	<unknown>
     ed6: 6e 74        	<unknown>
     ed8: 66 66        	<unknown>
     eda: 00 5f        	<unknown>
     edc: 5a 4c        	<unknown>
     ede: 38 6c        	<unknown>
     ee0: 6c 72        	<unknown>
     ee2: 6f 75 6e 64  	jal	a0, 0xe8528 <.debug_info+0xe8528>
     ee6: 66 66        	<unknown>
     ee8: 00 5f        	<unknown>
     eea: 5a 4c        	<unknown>
     eec: 36 6c        	<unknown>
     eee: 6f 67 31 30  	jal	a4, 0x179f0 <.debug_info+0x179f0>
     ef2: 66 66        	<unknown>
     ef4: 00 5f        	<unknown>
     ef6: 5a 4c        	<unknown>
     ef8: 36 6c        	<unknown>
     efa: 6f 67 31 70  	jal	a4, 0x17dfc <.debug_info+0x17dfc>
     efe: 66 66        	<unknown>
     f00: 00 5f        	<unknown>
     f02: 5a 4c        	<unknown>
     f04: 35 6c        	<unknown>
     f06: 6f 67 32 66  	jal	a4, 0x27d68 <.debug_info+0x27d68>
     f0a: 66 00        	<unknown>
     f0c: 5f 5a 4c 35  	<unknown>
     f10: 6c 6f        	<unknown>
     f12: 67 62 66 66  	<unknown>
     f16: 00 5f        	<unknown>
     f18: 5a 4c        	<unknown>
     f1a: 34 6c        	<unknown>
     f1c: 6f 67 66 66  	jal	a4, 0x67582 <.debug_info+0x67582>
     f20: 00 5f        	<unknown>
     f22: 5a 4c        	<unknown>
     f24: 36 6c        	<unknown>
     f26: 72 69        	<unknown>
     f28: 6e 74        	<unknown>
     f2a: 66 66        	<unknown>
     f2c: 00 5f        	<unknown>
     f2e: 5a 4c        	<unknown>
     f30: 37 6c 72 6f  	lui	s8, 0x6f726
     f34: 75 6e        	<unknown>
     f36: 64 66        	<unknown>
     f38: 66 00        	<unknown>
     f3a: 5f 5a 4c 35  	<unknown>
     f3e: 6d 6f        	<unknown>
     f40: 64 66        	<unknown>
     f42: 66 66        	<unknown>
     f44: 50 66        	<unknown>
     f46: 00 5f        	<unknown>
     f48: 5a 4c        	<unknown>
     f4a: 31 30        	<unknown>
     f4c: 6e 65        	<unknown>
     f4e: 61 72        	<unknown>
     f50: 62 79        	<unknown>
     f52: 69 6e        	<unknown>
     f54: 74 66        	<unknown>
     f56: 66 00        	<unknown>
     f58: 5f 5a 4c 31  	<unknown>
     f5c: 30 6e        	<unknown>
     f5e: 65 78        	<unknown>
     f60: 74 61        	<unknown>
     f62: 66 74        	<unknown>
     f64: 65 72        	<unknown>
     f66: 66 66        	<unknown>
     f68: 66 00        	<unknown>
     f6a: 5f 5a 4c 34  	<unknown>
     f6e: 70 6f        	<unknown>
     f70: 77 66 66 66  	<unknown>
     f74: 00 70        	<unknown>
     f76: 6f 77 66 00  	jal	a4, 0x67f7c <.debug_info+0x67f7c>
     f7a: 5f 5a 4c 31  	<unknown>
     f7e: 30 72        	<unknown>
     f80: 65 6d        	<unknown>
     f82: 61 69        	<unknown>
     f84: 6e 64        	<unknown>
     f86: 65 72        	<unknown>
     f88: 66 66        	<unknown>
     f8a: 66 00        	<unknown>
     f8c: 5f 5a 4c 37  	<unknown>
     f90: 72 65        	<unknown>
     f92: 6d 71        	<unknown>
     f94: 75 6f        	<unknown>
     f96: 66 66        	<unknown>
     f98: 66 50        	<unknown>
     f9a: 69 00        	<unknown>
     f9c: 5f 5a 4c 35  	<unknown>
     fa0: 72 69        	<unknown>
     fa2: 6e 74        	<unknown>
     fa4: 66 66        	<unknown>
     fa6: 00 5f        	<unknown>
     fa8: 5a 4c        	<unknown>
     faa: 36 72        	<unknown>
     fac: 6f 75 6e 64  	jal	a0, 0xe85f2 <.debug_info+0xe85f2>
     fb0: 66 66        	<unknown>
     fb2: 00 5f        	<unknown>
     fb4: 5a 4c        	<unknown>
     fb6: 38 73        	<unknown>
     fb8: 63 61 6c 62  	bltu	s8, t1, 0x15da <.debug_info+0x15da>
     fbc: 6c 6e        	<unknown>
     fbe: 66 66        	<unknown>
     fc0: 6c 00        	<unknown>
     fc2: 5f 5a 4c 37  	<unknown>
     fc6: 73 63 61 6c  	csrrsi	t1, 0x6c6, 0x2
     fca: 62 6e        	<unknown>
     fcc: 66 66        	<unknown>
     fce: 69 00        	<unknown>
     fd0: 5f 5a 4c 34  	<unknown>
     fd4: 73 69 6e 66  	csrrsi	s2, 0x666, 0x1c
     fd8: 66 00        	<unknown>
     fda: 5f 5a 4c 35  	<unknown>
     fde: 73 69 6e 68  	csrrsi	s2, 0x686, 0x1c
     fe2: 66 66        	<unknown>
     fe4: 00 5f        	<unknown>
     fe6: 5a 4c        	<unknown>
     fe8: 35 73        	<unknown>
     fea: 71 72        	<unknown>
     fec: 74 66        	<unknown>
     fee: 66 00        	<unknown>
     ff0: 5f 5a 4c 34  	<unknown>
     ff4: 74 61        	<unknown>
     ff6: 6e 66        	<unknown>
     ff8: 66 00        	<unknown>
     ffa: 5f 5a 4c 35  	<unknown>
     ffe: 74 61        	<unknown>
    1000: 6e 68        	<unknown>
    1002: 66 66        	<unknown>
    1004: 00 5f        	<unknown>
    1006: 5a 4c        	<unknown>
    1008: 37 74 67 61  	lui	s0, 0x61677
    100c: 6d 6d        	<unknown>
    100e: 61 66        	<unknown>
    1010: 66 00        	<unknown>
    1012: 5f 5a 4c 36  	<unknown>
    1016: 74 72        	<unknown>
    1018: 75 6e        	<unknown>
    101a: 63 66 66 00  	bltu	a2, t1, 0x1026 <.debug_info+0x1026>
    101e: 5f 5a 4e 32  	<unknown>
    1022: 6e 76        	<unknown>
    1024: 36 74        	<unknown>
    1026: 61 72        	<unknown>
    1028: 67 65 74 36  	<unknown>
    102c: 64 65        	<unknown>
    102e: 74 61        	<unknown>
    1030: 69 6c        	<unknown>
    1032: 31 30        	<unknown>
    1034: 69 73        	<unknown>
    1036: 5f 65 78 61  	<unknown>
    103a: 63 74 6c 79  	bgeu	s8, s6, 0x17c2 <.debug_info+0x17c2>
    103e: 45 4e        	<unknown>
    1040: 53 31 5f 31  	<unknown>
    1044: 31 73        	<unknown>
    1046: 6d 5f        	<unknown>
    1048: 73 65 6c 65  	csrrsi	a0, 0x656, 0x18
    104c: 63 74 6f 72  	bgeu	t5, t1, 0x1774 <.debug_info+0x1774>
    1050: 45 00        	<unknown>
    1052: 69 73        	<unknown>
    1054: 5f 65 78 61  	<unknown>
    1058: 63 74 6c 79  	bgeu	s8, s6, 0x17e0 <.debug_info+0x17e0>
    105c: 00 5f        	<unknown>
    105e: 5a 4e        	<unknown>
    1060: 32 6e        	<unknown>
    1062: 76 36        	<unknown>
    1064: 74 61        	<unknown>
    1066: 72 67        	<unknown>
    1068: 65 74        	<unknown>
    106a: 36 64        	<unknown>
    106c: 65 74        	<unknown>
    106e: 61 69        	<unknown>
    1070: 6c 38        	<unknown>
    1072: 70 72        	<unknown>
    1074: 6f 76 69 64  	jal	a2, 0x986ba <.debug_info+0x986ba>
    1078: 65 73        	<unknown>
    107a: 45 4e        	<unknown>
    107c: 53 31 5f 31  	<unknown>
    1080: 31 73        	<unknown>
    1082: 6d 5f        	<unknown>
    1084: 73 65 6c 65  	csrrsi	a0, 0x656, 0x18
    1088: 63 74 6f 72  	bgeu	t5, t1, 0x17b0 <.debug_info+0x17b0>
    108c: 45 00        	<unknown>
    108e: 70 72        	<unknown>
    1090: 6f 76 69 64  	jal	a2, 0x986d6 <.debug_info+0x986d6>
    1094: 65 73        	<unknown>
    1096: 00 5f        	<unknown>
    1098: 49 4f        	<unknown>
    109a: 5f 46 49 4c  	<unknown>
    109e: 45 00        	<unknown>
    10a0: 5f 47 5f 66  	<unknown>
    10a4: 70 6f        	<unknown>
    10a6: 73 5f 74 00  	csrrwi	t5, 0x7, 0x8
    10aa: 5f 5f 66 70  	<unknown>
    10ae: 6f 73 5f 74  	jal	t1, 0xf8ff2 <.debug_info+0xf8ff2>
    10b2: 00 63        	<unknown>
    10b4: 6c 65        	<unknown>
    10b6: 61 72        	<unknown>
    10b8: 65 72        	<unknown>
    10ba: 72 00        	<unknown>
    10bc: 66 63        	<unknown>
    10be: 6c 6f        	<unknown>
    10c0: 73 65 00 66  	csrrsi	a0, 0x660, 0x0
    10c4: 65 6f        	<unknown>
    10c6: 66 00        	<unknown>
    10c8: 66 65        	<unknown>
    10ca: 72 72        	<unknown>
    10cc: 6f 72 00 66  	jal	tp, 0x872c <.debug_info+0x872c>
    10d0: 66 6c        	<unknown>
    10d2: 75 73        	<unknown>
    10d4: 68 00        	<unknown>
    10d6: 66 67        	<unknown>
    10d8: 65 74        	<unknown>
    10da: 63 00 66 67  	beq	a2, s6, 0x173a <.debug_info+0x173a>
    10de: 65 74        	<unknown>
    10e0: 70 6f        	<unknown>
    10e2: 73 00 66 67  	<unknown>
    10e6: 65 74        	<unknown>
    10e8: 73 00 66 6f  	<unknown>
    10ec: 70 65        	<unknown>
    10ee: 6e 00        	<unknown>
    10f0: 66 70        	<unknown>
    10f2: 75 74        	<unknown>
    10f4: 63 00 66 70  	beq	a2, t1, 0x17f4 <.debug_info+0x17f4>
    10f8: 75 74        	<unknown>
    10fa: 73 00 66 72  	<unknown>
    10fe: 65 61        	<unknown>
    1100: 64 00        	<unknown>
    1102: 66 72        	<unknown>
    1104: 65 6f        	<unknown>
    1106: 70 65        	<unknown>
    1108: 6e 00        	<unknown>
    110a: 5f 5f 69 73  	<unknown>
    110e: 6f 63 39 39  	jal	t1, 0x97ca0 <.debug_info+0x97ca0>
    1112: 5f 66 73 63  	<unknown>
    1116: 61 6e        	<unknown>
    1118: 66 00        	<unknown>
    111a: 66 73        	<unknown>
    111c: 65 65        	<unknown>
    111e: 6b 00 66 73  	<unknown>
    1122: 65 74        	<unknown>
    1124: 70 6f        	<unknown>
    1126: 73 00 66 74  	<unknown>
    112a: 65 6c        	<unknown>
    112c: 6c 00        	<unknown>
    112e: 66 77        	<unknown>
    1130: 72 69        	<unknown>
    1132: 74 65        	<unknown>
    1134: 00 67        	<unknown>
    1136: 65 74        	<unknown>
    1138: 63 68 61 72  	bltu	sp, t1, 0x1868 <.debug_info+0x1868>
    113c: 00 70        	<unknown>
    113e: 65 72        	<unknown>
    1140: 72 6f        	<unknown>
    1142: 72 00        	<unknown>
    1144: 70 75        	<unknown>
    1146: 74 63        	<unknown>
    1148: 68 61        	<unknown>
    114a: 72 00        	<unknown>
    114c: 72 65        	<unknown>
    114e: 6d 6f        	<unknown>
    1150: 76 65        	<unknown>
    1152: 00 72        	<unknown>
    1154: 65 6e        	<unknown>
    1156: 61 6d        	<unknown>
    1158: 65 00        	<unknown>
    115a: 72 65        	<unknown>
    115c: 77 69 6e 64  	<unknown>
    1160: 00 5f        	<unknown>
    1162: 5f 69 73 6f  	<unknown>
    1166: 63 39 39 5f  	<unknown>
    116a: 73 63 61 6e  	csrrsi	t1, 0x6e6, 0x2
    116e: 66 00        	<unknown>
    1170: 73 65 74 62  	csrrsi	a0, 0x627, 0x8
    1174: 75 66        	<unknown>
    1176: 00 73        	<unknown>
    1178: 65 74        	<unknown>
    117a: 76 62        	<unknown>
    117c: 75 66        	<unknown>
    117e: 00 5f        	<unknown>
    1180: 5f 69 73 6f  	<unknown>
    1184: 63 39 39 5f  	<unknown>
    1188: 73 73 63 61  	csrrci	t1, 0x616, 0x6
    118c: 6e 66        	<unknown>
    118e: 00 74        	<unknown>
    1190: 6d 70        	<unknown>
    1192: 66 69        	<unknown>
    1194: 6c 65        	<unknown>
    1196: 00 74        	<unknown>
    1198: 6d 70        	<unknown>
    119a: 6e 61        	<unknown>
    119c: 6d 00        	<unknown>
    119e: 75 6e        	<unknown>
    11a0: 67 65 74 63  	<unknown>
    11a4: 00 76        	<unknown>
    11a6: 66 70        	<unknown>
    11a8: 72 69        	<unknown>
    11aa: 6e 74        	<unknown>
    11ac: 66 00        	<unknown>
    11ae: 5f 5f 62 75  	<unknown>
    11b2: 69 6c        	<unknown>
    11b4: 74 69        	<unknown>
    11b6: 6e 5f        	<unknown>
    11b8: 76 61        	<unknown>
    11ba: 5f 6c 69 73  	<unknown>
    11be: 74 00        	<unknown>
    11c0: 5f 5f 67 6e  	<unknown>
    11c4: 75 63        	<unknown>
    11c6: 5f 76 61 5f  	<unknown>
    11ca: 6c 69        	<unknown>
    11cc: 73 74 00 76  	csrrci	s0, 0x760, 0x0
    11d0: 70 72        	<unknown>
    11d2: 69 6e        	<unknown>
    11d4: 74 66        	<unknown>
    11d6: 00 76        	<unknown>
    11d8: 73 70 72 69  	csrci	0x697, 0x4
    11dc: 6e 74        	<unknown>
    11de: 66 00        	<unknown>
    11e0: 5f 5f 69 73  	<unknown>
    11e4: 6f 63 39 39  	jal	t1, 0x97d76 <.debug_info+0x97d76>
    11e8: 5f 76 66 73  	<unknown>
    11ec: 63 61 6e 66  	bltu	t3, t1, 0x184e <.debug_info+0x184e>
    11f0: 00 5f        	<unknown>
    11f2: 5f 69 73 6f  	<unknown>
    11f6: 63 39 39 5f  	<unknown>
    11fa: 76 73        	<unknown>
    11fc: 63 61 6e 66  	bltu	t3, t1, 0x185e <.debug_info+0x185e>
    1200: 00 76        	<unknown>
    1202: 73 6e 70 72  	csrrsi	t3, 0x727, 0x0
    1206: 69 6e        	<unknown>
    1208: 74 66        	<unknown>
    120a: 00 5f        	<unknown>
    120c: 5f 69 73 6f  	<unknown>
    1210: 63 39 39 5f  	<unknown>
    1214: 76 73        	<unknown>
    1216: 73 63 61 6e  	csrrsi	t1, 0x6e6, 0x2
    121a: 66 00        	<unknown>
    121c: 5f 5f 69 6e  	<unknown>
    1220: 74 38        	<unknown>
    1222: 5f 74 00 5f  	<unknown>
    1226: 5f 69 6e 74  	<unknown>
    122a: 31 36        	<unknown>
    122c: 5f 74 00 5f  	<unknown>
    1230: 5f 69 6e 74  	<unknown>
    1234: 33 32 5f 74  	<unknown>
    1238: 00 5f        	<unknown>
    123a: 5f 69 6e 74  	<unknown>
    123e: 36 34        	<unknown>
    1240: 5f 74 00 5f  	<unknown>
    1244: 5f 69 6e 74  	<unknown>
    1248: 5f 6c 65 61  	<unknown>
    124c: 73 74 38 5f  	csrrci	s0, 0x5f3, 0x10
    1250: 74 00        	<unknown>
    1252: 5f 5f 69 6e  	<unknown>
    1256: 74 5f        	<unknown>
    1258: 6c 65        	<unknown>
    125a: 61 73        	<unknown>
    125c: 74 31        	<unknown>
    125e: 36 5f        	<unknown>
    1260: 74 00        	<unknown>
    1262: 5f 5f 69 6e  	<unknown>
    1266: 74 5f        	<unknown>
    1268: 6c 65        	<unknown>
    126a: 61 73        	<unknown>
    126c: 74 33        	<unknown>
    126e: 32 5f        	<unknown>
    1270: 74 00        	<unknown>
    1272: 5f 5f 69 6e  	<unknown>
    1276: 74 5f        	<unknown>
    1278: 6c 65        	<unknown>
    127a: 61 73        	<unknown>
    127c: 74 36        	<unknown>
    127e: 34 5f        	<unknown>
    1280: 74 00        	<unknown>
    1282: 5f 5f 69 6e  	<unknown>
    1286: 74 6d        	<unknown>
    1288: 61 78        	<unknown>
    128a: 5f 74 00 75  	<unknown>
    128e: 6e 73        	<unknown>
    1290: 69 67        	<unknown>
    1292: 6e 65        	<unknown>
    1294: 64 20        	<unknown>
    1296: 63 68 61 72  	bltu	sp, t1, 0x19c6 <.debug_info+0x19c6>
    129a: 00 5f        	<unknown>
    129c: 5f 75 69 6e  	<unknown>
    12a0: 74 38        	<unknown>
    12a2: 5f 74 00 75  	<unknown>
    12a6: 6e 73        	<unknown>
    12a8: 69 67        	<unknown>
    12aa: 6e 65        	<unknown>
    12ac: 64 20        	<unknown>
    12ae: 73 68 6f 72  	csrrsi	a6, 0x726, 0x1e
    12b2: 74 00        	<unknown>
    12b4: 5f 5f 75 69  	<unknown>
    12b8: 6e 74        	<unknown>
    12ba: 31 36        	<unknown>
    12bc: 5f 74 00 5f  	<unknown>
    12c0: 5f 75 69 6e  	<unknown>
    12c4: 74 33        	<unknown>
    12c6: 32 5f        	<unknown>
    12c8: 74 00        	<unknown>
    12ca: 5f 5f 75 69  	<unknown>
    12ce: 6e 74        	<unknown>
    12d0: 36 34        	<unknown>
    12d2: 5f 74 00 75  	<unknown>
    12d6: 69 6e        	<unknown>
    12d8: 74 5f        	<unknown>
    12da: 66 61        	<unknown>
    12dc: 73 74 38 5f  	csrrci	s0, 0x5f3, 0x10
    12e0: 74 00        	<unknown>
    12e2: 75 69        	<unknown>
    12e4: 6e 74        	<unknown>
    12e6: 5f 66 61 73  	<unknown>
    12ea: 74 31        	<unknown>
    12ec: 36 5f        	<unknown>
    12ee: 74 00        	<unknown>
    12f0: 75 69        	<unknown>
    12f2: 6e 74        	<unknown>
    12f4: 5f 66 61 73  	<unknown>
    12f8: 74 33        	<unknown>
    12fa: 32 5f        	<unknown>
    12fc: 74 00        	<unknown>
    12fe: 75 69        	<unknown>
    1300: 6e 74        	<unknown>
    1302: 5f 66 61 73  	<unknown>
    1306: 74 36        	<unknown>
    1308: 34 5f        	<unknown>
    130a: 74 00        	<unknown>
    130c: 5f 5f 75 69  	<unknown>
    1310: 6e 74        	<unknown>
    1312: 5f 6c 65 61  	<unknown>
    1316: 73 74 38 5f  	csrrci	s0, 0x5f3, 0x10
    131a: 74 00        	<unknown>
    131c: 5f 5f 75 69  	<unknown>
    1320: 6e 74        	<unknown>
    1322: 5f 6c 65 61  	<unknown>
    1326: 73 74 31 36  	csrrci	s0, 0x363, 0x2
    132a: 5f 74 00 5f  	<unknown>
    132e: 5f 75 69 6e  	<unknown>
    1332: 74 5f        	<unknown>
    1334: 6c 65        	<unknown>
    1336: 61 73        	<unknown>
    1338: 74 33        	<unknown>
    133a: 32 5f        	<unknown>
    133c: 74 00        	<unknown>
    133e: 5f 5f 75 69  	<unknown>
    1342: 6e 74        	<unknown>
    1344: 5f 6c 65 61  	<unknown>
    1348: 73 74 36 34  	csrrci	s0, mtval, 0xc
    134c: 5f 74 00 5f  	<unknown>
    1350: 5f 75 69 6e  	<unknown>
    1354: 74 6d        	<unknown>
    1356: 61 78        	<unknown>
    1358: 5f 74 00 75  	<unknown>
    135c: 69 6e        	<unknown>
    135e: 74 70        	<unknown>
    1360: 74 72        	<unknown>
    1362: 5f 74 00 5f  	<unknown>
    1366: 5a 4c        	<unknown>
    1368: 36 6d        	<unknown>
    136a: 65 6d        	<unknown>
    136c: 63 70 79 50  	bgeu	s2, t2, 0x186c <.debug_info+0x186c>
    1370: 76 50        	<unknown>
    1372: 4b 76 6d 00  	fnmsub.s	fa2, fs10, ft6, ft0
    1376: 5f 5a 4c 36  	<unknown>
    137a: 6d 65        	<unknown>
    137c: 6d 73        	<unknown>
    137e: 65 74        	<unknown>
    1380: 50 76        	<unknown>
    1382: 69 6d        	<unknown>
    1384: 00 73        	<unknown>
    1386: 74 72        	<unknown>
    1388: 63 61 74 00  	bltu	s0, t2, 0x138a <.debug_info+0x138a>
    138c: 73 74 72 63  	csrrci	s0, 0x637, 0x4
    1390: 6d 70        	<unknown>
    1392: 00 73        	<unknown>
    1394: 74 72        	<unknown>
    1396: 63 6f 6c 6c  	bltu	s8, t1, 0x1a74 <.debug_info+0x1a74>
    139a: 00 73        	<unknown>
    139c: 74 72        	<unknown>
    139e: 63 70 79 00  	bgeu	s2, t2, 0x139e <.debug_info+0x139e>
    13a2: 73 74 72 63  	csrrci	s0, 0x637, 0x4
    13a6: 73 70 6e 00  	csrci	0x6, 0x1c
    13aa: 73 74 72 65  	csrrci	s0, 0x657, 0x4
    13ae: 72 72        	<unknown>
    13b0: 6f 72 00 73  	jal	tp, 0x8ae0 <.debug_info+0x8ae0>
    13b4: 74 72        	<unknown>
    13b6: 6c 65        	<unknown>
    13b8: 6e 00        	<unknown>
    13ba: 73 74 72 6e  	csrrci	s0, 0x6e7, 0x4
    13be: 63 61 74 00  	bltu	s0, t2, 0x13c0 <.debug_info+0x13c0>
    13c2: 73 74 72 6e  	csrrci	s0, 0x6e7, 0x4
    13c6: 63 6d 70 00  	bltu	zero, t2, 0x13e0 <.debug_info+0x13e0>
    13ca: 73 74 72 6e  	csrrci	s0, 0x6e7, 0x4
    13ce: 63 70 79 00  	bgeu	s2, t2, 0x13ce <.debug_info+0x13ce>
    13d2: 73 74 72 73  	csrrci	s0, 0x737, 0x4
    13d6: 70 6e        	<unknown>
    13d8: 00 73        	<unknown>
    13da: 74 72        	<unknown>
    13dc: 74 6f        	<unknown>
    13de: 6b 00 73 74  	<unknown>
    13e2: 72 78        	<unknown>
    13e4: 66 72        	<unknown>
    13e6: 6d 00        	<unknown>
    13e8: 73 74 72 63  	csrrci	s0, 0x637, 0x4
    13ec: 68 72        	<unknown>
    13ee: 00 73        	<unknown>
    13f0: 74 72        	<unknown>
    13f2: 70 62        	<unknown>
    13f4: 72 6b        	<unknown>
    13f6: 00 73        	<unknown>
    13f8: 74 72        	<unknown>
    13fa: 72 63        	<unknown>
    13fc: 68 72        	<unknown>
    13fe: 00 73        	<unknown>
    1400: 74 72        	<unknown>
    1402: 73 74 72 00  	csrrci	s0, 0x7, 0x4
    1406: 5f 5f 63 6f  	<unknown>
    140a: 75 6e        	<unknown>
    140c: 74 00        	<unknown>
    140e: 5f 5f 76 61  	<unknown>
    1412: 6c 75        	<unknown>
    1414: 65 00        	<unknown>
    1416: 5f 5f 77 63  	<unknown>
    141a: 68 00        	<unknown>
    141c: 5f 5f 77 63  	<unknown>
    1420: 68 62        	<unknown>
    1422: 00 5f        	<unknown>
    1424: 5f 41 52 52  	<unknown>
    1428: 41 59        	<unknown>
    142a: 5f 53 49 5a  	<unknown>
    142e: 45 5f        	<unknown>
    1430: 54 59        	<unknown>
    1432: 50 45        	<unknown>
    1434: 5f 5f 00 5f  	<unknown>
    1438: 5f 6d 62 73  	<unknown>
    143c: 74 61        	<unknown>
    143e: 74 65        	<unknown>
    1440: 5f 74 00 77  	<unknown>
    1444: 69 6e        	<unknown>
    1446: 74 5f        	<unknown>
    1448: 74 00        	<unknown>
    144a: 66 67        	<unknown>
    144c: 65 74        	<unknown>
    144e: 77 63 00 5f  	<unknown>
    1452: 5f 46 49 4c  	<unknown>
    1456: 45 00        	<unknown>
    1458: 66 67        	<unknown>
    145a: 65 74        	<unknown>
    145c: 77 73 00 66  	<unknown>
    1460: 70 75        	<unknown>
    1462: 74 77        	<unknown>
    1464: 63 00 66 70  	beq	a2, t1, 0x1b64 <.debug_info+0x1b64>
    1468: 75 74        	<unknown>
    146a: 77 73 00 66  	<unknown>
    146e: 77 69 64 65  	<unknown>
    1472: 00 5f        	<unknown>
    1474: 5f 69 73 6f  	<unknown>
    1478: 63 39 39 5f  	<unknown>
    147c: 66 77        	<unknown>
    147e: 73 63 61 6e  	csrrsi	t1, 0x6e6, 0x2
    1482: 66 00        	<unknown>
    1484: 67 65 74 77  	<unknown>
    1488: 63 68 61 72  	bltu	sp, t1, 0x1bb8 <.debug_info+0x1bb8>
    148c: 00 6d        	<unknown>
    148e: 62 72        	<unknown>
    1490: 6c 65        	<unknown>
    1492: 6e 00        	<unknown>
    1494: 6d 62        	<unknown>
    1496: 72 74        	<unknown>
    1498: 6f 77 63 00  	jal	a4, 0x3849e <.debug_info+0x3849e>
    149c: 6d 62        	<unknown>
    149e: 73 69 6e 69  	csrrsi	s2, 0x696, 0x1c
    14a2: 74 00        	<unknown>
    14a4: 6d 62        	<unknown>
    14a6: 73 72 74 6f  	csrrci	tp, 0x6f7, 0x8
    14aa: 77 63 73 00  	<unknown>
    14ae: 70 75        	<unknown>
    14b0: 74 77        	<unknown>
    14b2: 63 68 61 72  	bltu	sp, t1, 0x1be2 <.debug_info+0x1be2>
    14b6: 00 5f        	<unknown>
    14b8: 5f 69 73 6f  	<unknown>
    14bc: 63 39 39 5f  	<unknown>
    14c0: 73 77 73 63  	csrrci	a4, 0x637, 0x6
    14c4: 61 6e        	<unknown>
    14c6: 66 00        	<unknown>
    14c8: 75 6e        	<unknown>
    14ca: 67 65 74 77  	<unknown>
    14ce: 63 00 76 66  	beq	a2, t2, 0x1b2e <.debug_info+0x1b2e>
    14d2: 77 70 72 69  	<unknown>
    14d6: 6e 74        	<unknown>
    14d8: 66 00        	<unknown>
    14da: 5f 5f 69 73  	<unknown>
    14de: 6f 63 39 39  	jal	t1, 0x98070 <.debug_info+0x98070>
    14e2: 5f 76 66 77  	<unknown>
    14e6: 73 63 61 6e  	csrrsi	t1, 0x6e6, 0x2
    14ea: 66 00        	<unknown>
    14ec: 76 73        	<unknown>
    14ee: 77 70 72 69  	<unknown>
    14f2: 6e 74        	<unknown>
    14f4: 66 00        	<unknown>
    14f6: 5f 5f 69 73  	<unknown>
    14fa: 6f 63 39 39  	jal	t1, 0x9808c <.debug_info+0x9808c>
    14fe: 5f 76 73 77  	<unknown>
    1502: 73 63 61 6e  	csrrsi	t1, 0x6e6, 0x2
    1506: 66 00        	<unknown>
    1508: 76 77        	<unknown>
    150a: 70 72        	<unknown>
    150c: 69 6e        	<unknown>
    150e: 74 66        	<unknown>
    1510: 00 5f        	<unknown>
    1512: 5f 69 73 6f  	<unknown>
    1516: 63 39 39 5f  	<unknown>
    151a: 76 77        	<unknown>
    151c: 73 63 61 6e  	csrrsi	t1, 0x6e6, 0x2
    1520: 66 00        	<unknown>
    1522: 77 63 72 74  	<unknown>
    1526: 6f 6d 62 00  	jal	s10, 0x2752c <.debug_info+0x2752c>
    152a: 77 63 73 63  	<unknown>
    152e: 61 74        	<unknown>
    1530: 00 77        	<unknown>
    1532: 63 73 63 6d  	bgeu	t1, s6, 0x1bf8 <.debug_info+0x1bf8>
    1536: 70 00        	<unknown>
    1538: 77 63 73 63  	<unknown>
    153c: 6f 6c 6c 00  	jal	s8, 0xc7542 <.debug_info+0xc7542>
    1540: 77 63 73 63  	<unknown>
    1544: 70 79        	<unknown>
    1546: 00 77        	<unknown>
    1548: 63 73 63 73  	bgeu	t1, s6, 0x1c6e <.debug_info+0x1c6e>
    154c: 70 6e        	<unknown>
    154e: 00 77        	<unknown>
    1550: 63 73 66 74  	bgeu	a2, t1, 0x1c96 <.debug_info+0x1c96>
    1554: 69 6d        	<unknown>
    1556: 65 00        	<unknown>
    1558: 74 6d        	<unknown>
    155a: 00 77        	<unknown>
    155c: 63 73 6c 65  	bgeu	s8, s6, 0x1ba2 <.debug_info+0x1ba2>
    1560: 6e 00        	<unknown>
    1562: 77 63 73 6e  	<unknown>
    1566: 63 61 74 00  	bltu	s0, t2, 0x1568 <.debug_info+0x1568>
    156a: 77 63 73 6e  	<unknown>
    156e: 63 6d 70 00  	bltu	zero, t2, 0x1588 <.debug_info+0x1588>
    1572: 77 63 73 6e  	<unknown>
    1576: 63 70 79 00  	bgeu	s2, t2, 0x1576 <.debug_info+0x1576>
    157a: 77 63 73 72  	<unknown>
    157e: 74 6f        	<unknown>
    1580: 6d 62        	<unknown>
    1582: 73 00 77 63  	<unknown>
    1586: 73 73 70 6e  	csrrci	t1, 0x6e7, 0x0
    158a: 00 77        	<unknown>
    158c: 63 73 74 6f  	bgeu	s0, s7, 0x1c72 <.debug_info+0x1c72>
    1590: 64 00        	<unknown>
    1592: 77 63 73 74  	<unknown>
    1596: 6f 66 00 77  	jal	a2, 0x7d06 <.debug_info+0x7d06>
    159a: 63 73 74 6f  	bgeu	s0, s7, 0x1c80 <.debug_info+0x1c80>
    159e: 6b 00 77 63  	<unknown>
    15a2: 73 74 6f 6c  	csrrci	s0, 0x6c6, 0x1e
    15a6: 00 77        	<unknown>
    15a8: 63 73 74 6f  	bgeu	s0, s7, 0x1c8e <.debug_info+0x1c8e>
    15ac: 75 6c        	<unknown>
    15ae: 00 77        	<unknown>
    15b0: 63 73 78 66  	bgeu	a6, t2, 0x1c16 <.debug_info+0x1c16>
    15b4: 72 6d        	<unknown>
    15b6: 00 77        	<unknown>
    15b8: 63 74 6f 62  	bgeu	t5, t1, 0x1be0 <.debug_info+0x1be0>
    15bc: 00 77        	<unknown>
    15be: 6d 65        	<unknown>
    15c0: 6d 63        	<unknown>
    15c2: 6d 70        	<unknown>
    15c4: 00 77        	<unknown>
    15c6: 6d 65        	<unknown>
    15c8: 6d 63        	<unknown>
    15ca: 70 79        	<unknown>
    15cc: 00 77        	<unknown>
    15ce: 6d 65        	<unknown>
    15d0: 6d 6d        	<unknown>
    15d2: 6f 76 65 00  	jal	a2, 0x585d8 <.debug_info+0x585d8>
    15d6: 77 6d 65 6d  	<unknown>
    15da: 73 65 74 00  	csrrsi	a0, 0x7, 0x8
    15de: 5f 5f 69 73  	<unknown>
    15e2: 6f 63 39 39  	jal	t1, 0x98174 <.debug_info+0x98174>
    15e6: 5f 77 73 63  	<unknown>
    15ea: 61 6e        	<unknown>
    15ec: 66 00        	<unknown>
    15ee: 77 63 73 63  	<unknown>
    15f2: 68 72        	<unknown>
    15f4: 00 77        	<unknown>
    15f6: 63 73 70 62  	bgeu	zero, t2, 0x1c1c <.debug_info+0x1c1c>
    15fa: 72 6b        	<unknown>
    15fc: 00 77        	<unknown>
    15fe: 63 73 72 63  	bgeu	tp, s7, 0x1c24 <.debug_info+0x1c24>
    1602: 68 72        	<unknown>
    1604: 00 77        	<unknown>
    1606: 63 73 73 74  	bgeu	t1, t2, 0x1d4c <.debug_info+0x1d4c>
    160a: 72 00        	<unknown>
    160c: 77 6d 65 6d  	<unknown>
    1610: 63 68 72 00  	bltu	tp, t2, 0x1620 <.debug_info+0x1620>
    1614: 77 63 73 74  	<unknown>
    1618: 6f 6c 64 00  	jal	s8, 0x4761e <.debug_info+0x4761e>
    161c: 77 63 73 74  	<unknown>
    1620: 6f 6c 6c 00  	jal	s8, 0xc7626 <.debug_info+0xc7626>
    1624: 77 63 73 74  	<unknown>
    1628: 6f 75 6c 6c  	jal	a0, 0xc8cee <.debug_info+0xc8cee>
    162c: 00 6c        	<unknown>
    162e: 63 6f 6e 76  	bltu	t3, t1, 0x1dac <.debug_info+0x1dac>
    1632: 00 73        	<unknown>
    1634: 65 74        	<unknown>
    1636: 6c 6f        	<unknown>
    1638: 63 61 6c 65  	bltu	s8, s6, 0x1c7a <.debug_info+0x1c7a>
    163c: 00 6c        	<unknown>
    163e: 6f 63 61 6c  	jal	t1, 0x17d04 <.debug_info+0x17d04>
    1642: 65 63        	<unknown>
    1644: 6f 6e 76 00  	jal	t3, 0x67e4a <.debug_info+0x67e4a>
    1648: 69 73        	<unknown>
    164a: 61 6c        	<unknown>
    164c: 6e 75        	<unknown>
    164e: 6d 00        	<unknown>
    1650: 69 73        	<unknown>
    1652: 61 6c        	<unknown>
    1654: 70 68        	<unknown>
    1656: 61 00        	<unknown>
    1658: 69 73        	<unknown>
    165a: 63 6e 74 72  	bltu	s0, t2, 0x1d96 <.debug_info+0x1d96>
    165e: 6c 00        	<unknown>
    1660: 69 73        	<unknown>
    1662: 64 69        	<unknown>
    1664: 67 69 74 00  	<unknown>
    1668: 69 73        	<unknown>
    166a: 67 72 61 70  	<unknown>
    166e: 68 00        	<unknown>
    1670: 69 73        	<unknown>
    1672: 6c 6f        	<unknown>
    1674: 77 65 72 00  	<unknown>
    1678: 69 73        	<unknown>
    167a: 70 72        	<unknown>
    167c: 69 6e        	<unknown>
    167e: 74 00        	<unknown>
    1680: 69 73        	<unknown>
    1682: 70 75        	<unknown>
    1684: 6e 63        	<unknown>
    1686: 74 00        	<unknown>
    1688: 69 73        	<unknown>
    168a: 73 70 61 63  	csrci	0x636, 0x2
    168e: 65 00        	<unknown>
    1690: 69 73        	<unknown>
    1692: 75 70        	<unknown>
    1694: 70 65        	<unknown>
    1696: 72 00        	<unknown>
    1698: 69 73        	<unknown>
    169a: 78 64        	<unknown>
    169c: 69 67        	<unknown>
    169e: 69 74        	<unknown>
    16a0: 00 74        	<unknown>
    16a2: 6f 6c 6f 77  	jal	s8, 0xf7e18 <.debug_info+0xf7e18>
    16a6: 65 72        	<unknown>
    16a8: 00 74        	<unknown>
    16aa: 6f 75 70 70  	jal	a0, 0x95b0 <.debug_info+0x95b0>
    16ae: 65 72        	<unknown>
    16b0: 00 69        	<unknown>
    16b2: 73 62 6c 61  	csrrsi	tp, 0x616, 0x18
    16b6: 6e 6b        	<unknown>
    16b8: 00 5f        	<unknown>
    16ba: 5f 67 6e 75  	<unknown>
    16be: 5f 64 65 62  	<unknown>
    16c2: 75 67        	<unknown>
    16c4: 00 5f        	<unknown>
    16c6: 5f 64 65 62  	<unknown>
    16ca: 75 67        	<unknown>
    16cc: 00 5f        	<unknown>
    16ce: 5f 65 78 63  	<unknown>
    16d2: 65 70        	<unknown>
    16d4: 74 69        	<unknown>
    16d6: 6f 6e 5f 70  	jal	t3, 0xf85da <.debug_info+0xf85da>
    16da: 74 72        	<unknown>
    16dc: 00 5f        	<unknown>
    16de: 5a 53        	<unknown>
    16e0: 74 31        	<unknown>
    16e2: 37 72 65 74  	lui	tp, 0x74657
    16e6: 68 72        	<unknown>
    16e8: 6f 77 5f 65  	jal	a4, 0xf953c <.debug_info+0xf953c>
    16ec: 78 63        	<unknown>
    16ee: 65 70        	<unknown>
    16f0: 74 69        	<unknown>
    16f2: 6f 6e 4e 53  	jal	t3, 0xe7c26 <.debug_info+0xe7c26>
    16f6: 74 31        	<unknown>
    16f8: 35 5f        	<unknown>
    16fa: 5f 65 78 63  	<unknown>
    16fe: 65 70        	<unknown>
    1700: 74 69        	<unknown>
    1702: 6f 6e 5f 70  	jal	t3, 0xf8606 <.debug_info+0xf8606>
    1706: 74 72        	<unknown>
    1708: 31 33        	<unknown>
    170a: 65 78        	<unknown>
    170c: 63 65 70 74  	bltu	zero, t2, 0x1e56 <.debug_info+0x1e56>
    1710: 69 6f        	<unknown>
    1712: 6e 5f        	<unknown>
    1714: 70 74        	<unknown>
    1716: 72 45        	<unknown>
    1718: 00 72        	<unknown>
    171a: 65 74        	<unknown>
    171c: 68 72        	<unknown>
    171e: 6f 77 5f 65  	jal	a4, 0xf9572 <.debug_info+0xf9572>
    1722: 78 63        	<unknown>
    1724: 65 70        	<unknown>
    1726: 74 69        	<unknown>
    1728: 6f 6e 00 5f  	jal	t3, 0x7d18 <.debug_info+0x7d18>
    172c: 5a 4e        	<unknown>
    172e: 53 74 31 35  	<unknown>
    1732: 5f 5f 65 78  	<unknown>
    1736: 63 65 70 74  	bltu	zero, t2, 0x1e80 <.debug_info+0x1e80>
    173a: 69 6f        	<unknown>
    173c: 6e 5f        	<unknown>
    173e: 70 74        	<unknown>
    1740: 72 34        	<unknown>
    1742: 73 77 61 70  	csrrci	a4, 0x706, 0x2
    1746: 45 52        	<unknown>
    1748: 4e 53        	<unknown>
    174a: 5f 31 33 65  	<unknown>
    174e: 78 63        	<unknown>
    1750: 65 70        	<unknown>
    1752: 74 69        	<unknown>
    1754: 6f 6e 5f 70  	jal	t3, 0xf8658 <.debug_info+0xf8658>
    1758: 74 72        	<unknown>
    175a: 45 53        	<unknown>
    175c: 31 5f        	<unknown>
    175e: 00 73        	<unknown>
    1760: 77 61 70 00  	<unknown>
    1764: 77 63 74 72  	<unknown>
    1768: 61 6e        	<unknown>
    176a: 73 5f 74 00  	csrrwi	t5, 0x7, 0x8
    176e: 77 63 74 79  	<unknown>
    1772: 70 65        	<unknown>
    1774: 5f 74 00 69  	<unknown>
    1778: 73 77 61 6c  	csrrci	a4, 0x6c6, 0x2
    177c: 6e 75        	<unknown>
    177e: 6d 00        	<unknown>
    1780: 69 73        	<unknown>
    1782: 77 61 6c 70  	<unknown>
    1786: 68 61        	<unknown>
    1788: 00 69        	<unknown>
    178a: 73 77 62 6c  	csrrci	a4, 0x6c6, 0x4
    178e: 61 6e        	<unknown>
    1790: 6b 00 69 73  	<unknown>
    1794: 77 63 6e 74  	<unknown>
    1798: 72 6c        	<unknown>
    179a: 00 69        	<unknown>
    179c: 73 77 63 74  	csrrci	a4, 0x746, 0x6
    17a0: 79 70        	<unknown>
    17a2: 65 00        	<unknown>
    17a4: 69 73        	<unknown>
    17a6: 77 64 69 67  	<unknown>
    17aa: 69 74        	<unknown>
    17ac: 00 69        	<unknown>
    17ae: 73 77 67 72  	csrrci	a4, 0x726, 0xe
    17b2: 61 70        	<unknown>
    17b4: 68 00        	<unknown>
    17b6: 69 73        	<unknown>
    17b8: 77 6c 6f 77  	<unknown>
    17bc: 65 72        	<unknown>
    17be: 00 69        	<unknown>
    17c0: 73 77 70 72  	csrrci	a4, 0x727, 0x0
    17c4: 69 6e        	<unknown>
    17c6: 74 00        	<unknown>
    17c8: 69 73        	<unknown>
    17ca: 77 70 75 6e  	<unknown>
    17ce: 63 74 00 69  	bgeu	zero, a6, 0x1e56 <.debug_info+0x1e56>
    17d2: 73 77 73 70  	csrrci	a4, 0x707, 0x6
    17d6: 61 63        	<unknown>
    17d8: 65 00        	<unknown>
    17da: 69 73        	<unknown>
    17dc: 77 75 70 70  	<unknown>
    17e0: 65 72        	<unknown>
    17e2: 00 69        	<unknown>
    17e4: 73 77 78 64  	csrrci	a4, hviprio2, 0x10
    17e8: 69 67        	<unknown>
    17ea: 69 74        	<unknown>
    17ec: 00 74        	<unknown>
    17ee: 6f 77 63 74  	jal	a4, 0x38f34 <.debug_info+0x38f34>
    17f2: 72 61        	<unknown>
    17f4: 6e 73        	<unknown>
    17f6: 00 74        	<unknown>
    17f8: 6f 77 6c 6f  	jal	a4, 0xc8eee <.debug_info+0xc8eee>
    17fc: 77 65 72 00  	<unknown>
    1800: 74 6f        	<unknown>
    1802: 77 75 70 70  	<unknown>
    1806: 65 72        	<unknown>
    1808: 00 5f        	<unknown>
    180a: 5f 63 6c 6f  	<unknown>
    180e: 63 6b 5f 74  	bltu	t5, t0, 0x1f64 <.debug_info+0x1f64>
    1812: 00 5f        	<unknown>
    1814: 5f 74 69 6d  	<unknown>
    1818: 65 5f        	<unknown>
    181a: 74 00        	<unknown>
    181c: 63 6c 6f 63  	bltu	t5, s6, 0x1e54 <.debug_info+0x1e54>
    1820: 6b 00 64 69  	<unknown>
    1824: 66 66        	<unknown>
    1826: 74 69        	<unknown>
    1828: 6d 65        	<unknown>
    182a: 00 6d        	<unknown>
    182c: 6b 74 69 6d  	<unknown>
    1830: 65 00        	<unknown>
    1832: 61 73        	<unknown>
    1834: 63 74 69 6d  	bgeu	s2, s6, 0x1efc <.debug_info+0x1efc>
    1838: 65 00        	<unknown>
    183a: 67 6d 74 69  	<unknown>
    183e: 6d 65        	<unknown>
    1840: 00 6c        	<unknown>
    1842: 6f 63 61 6c  	jal	t1, 0x17f08 <.debug_info+0x17f08>
    1846: 74 69        	<unknown>
    1848: 6d 65        	<unknown>
    184a: 00 73        	<unknown>
    184c: 74 72        	<unknown>
    184e: 66 74        	<unknown>
    1850: 69 6d        	<unknown>
    1852: 65 00        	<unknown>

Disassembly of section .symtab:

0000000000000000 <.symtab>:
		...
      1c: 03 00 01 00  	lb	zero, 0x0(sp)
      20: 00 00        	<unknown>
      22: 00 80        	<unknown>
		...
      34: 03 00 02 00  	lb	zero, 0x0(tp)
      38: 70 00        	<unknown>
      3a: 00 80        	<unknown>
		...
      4c: 03 00 03 00  	lb	zero, 0x0(t1)
      50: b8 2e        	<unknown>
      52: 00 80        	<unknown>
		...
      64: 03 00 04 00  	lb	zero, 0x0(s0)
      68: 38 31        	<unknown>
      6a: 00 80        	<unknown>
		...
      7c: 03 00 05 00  	lb	zero, 0x0(a0)
      80: 98 41        	<unknown>
      82: 00 80        	<unknown>
		...
      94: 03 00 06 00  	lb	zero, 0x0(a2)
      98: 98 41        	<unknown>
      9a: 00 80        	<unknown>
		...
      ac: 03 00 07 00  	lb	zero, 0x0(a4)
      b0: d0 41        	<unknown>
      b2: 00 80        	<unknown>
		...
      c4: 03 00 08 00  	lb	zero, 0x0(a6)
      c8: 78 42        	<unknown>
      ca: 00 80        	<unknown>
		...
      dc: 03 00 09 00  	lb	zero, 0x0(s2)
      e0: a0 42        	<unknown>
      e2: 00 80        	<unknown>
		...
      f4: 03 00 0a 00  	lb	zero, 0x0(s4)
		...
     10c: 03 00 0b 00  	lb	zero, 0x0(s6)
		...
     124: 03 00 0c 00  	lb	zero, 0x0(s8)
		...
     13c: 03 00 0d 00  	lb	zero, 0x0(s10)
		...
     154: 03 00 0e 00  	lb	zero, 0x0(t3)
		...
     16c: 03 00 0f 00  	lb	zero, 0x0(t5)
		...
     184: 03 00 10 00  	lb	zero, 0x1(zero)
		...
     198: 01 00        	<unknown>
     19a: 00 00        	<unknown>
     19c: 04 00        	<unknown>
     19e: f1 ff        	<unknown>
		...
     1b0: 0e 00        	<unknown>
     1b2: 00 00        	<unknown>
     1b4: 00 00        	<unknown>
     1b6: 01 00        	<unknown>
     1b8: 00 00        	<unknown>
     1ba: 00 80        	<unknown>
		...
     1c8: 3f 00 00 00  	<unknown>
     1cc: 02 00        	<unknown>
     1ce: 02 00        	<unknown>
     1d0: 44 04        	<unknown>
     1d2: 00 80        	<unknown>
		...
     1e0: 4d 00        	<unknown>
     1e2: 00 00        	<unknown>
     1e4: 02 00        	<unknown>
     1e6: 02 00        	<unknown>
     1e8: 00 04        	<unknown>
     1ea: 00 80        	<unknown>
		...
     1f8: 57 00 00 00  	<unknown>
     1fc: 02 00        	<unknown>
     1fe: 02 00        	<unknown>
     200: 58 04        	<unknown>
     202: 00 80        	<unknown>
		...
     210: 0e 00        	<unknown>
     212: 00 00        	<unknown>
     214: 00 00        	<unknown>
     216: 02 00        	<unknown>
     218: ec 03        	<unknown>
     21a: 00 80        	<unknown>
		...
     228: 64 00        	<unknown>
     22a: 00 00        	<unknown>
     22c: 04 00        	<unknown>
     22e: f1 ff        	<unknown>
		...
     240: 57 05 00 00  	<unknown>
     244: 02 00        	<unknown>
     246: 02 00        	<unknown>
     248: 44 27        	<unknown>
     24a: 00 80        	<unknown>
     24c: 00 00        	<unknown>
     24e: 00 00        	<unknown>
     250: 04 00        	<unknown>
     252: 00 00        	<unknown>
     254: 00 00        	<unknown>
     256: 00 00        	<unknown>
     258: 6b 00 00 00  	<unknown>
     25c: 00 00        	<unknown>
     25e: 02 00        	<unknown>
     260: 44 27        	<unknown>
     262: 00 80        	<unknown>
		...
     270: 5f 05 00 00  	<unknown>
     274: 02 00        	<unknown>
     276: 02 00        	<unknown>
     278: 48 27        	<unknown>
     27a: 00 80        	<unknown>
     27c: 00 00        	<unknown>
     27e: 00 00        	<unknown>
     280: 64 00        	<unknown>
     282: 00 00        	<unknown>
     284: 00 00        	<unknown>
     286: 00 00        	<unknown>
     288: 70 00        	<unknown>
     28a: 00 00        	<unknown>
     28c: 00 00        	<unknown>
     28e: 02 00        	<unknown>
     290: 48 27        	<unknown>
     292: 00 80        	<unknown>
		...
     2a0: 75 00        	<unknown>
     2a2: 00 00        	<unknown>
     2a4: 00 00        	<unknown>
     2a6: 02 00        	<unknown>
     2a8: 70 00        	<unknown>
     2aa: 00 80        	<unknown>
		...
     2b8: 7a 00        	<unknown>
     2ba: 00 00        	<unknown>
     2bc: 00 00        	<unknown>
     2be: 0a 00        	<unknown>
     2c0: 67 00 00 00  	jr	zero <.symtab>
		...
     2d0: 7f 00 00 00  	<unknown>
     2d4: 00 00        	<unknown>
     2d6: 0b 00 e1 02  	<unknown>
		...
     2e6: 00 00        	<unknown>
     2e8: 84 00        	<unknown>
     2ea: 00 00        	<unknown>
     2ec: 04 00        	<unknown>
     2ee: f1 ff        	<unknown>
		...
     304: 00 00        	<unknown>
     306: 02 00        	<unknown>
     308: 94 00        	<unknown>
     30a: 00 80        	<unknown>
		...
     318: 6b 00 00 00  	<unknown>
     31c: 00 00        	<unknown>
     31e: 02 00        	<unknown>
     320: 94 00        	<unknown>
     322: 00 80        	<unknown>
		...
     334: 00 00        	<unknown>
     336: 02 00        	<unknown>
     338: 9c 00        	<unknown>
     33a: 00 80        	<unknown>
		...
     348: 75 00        	<unknown>
     34a: 00 00        	<unknown>
     34c: 00 00        	<unknown>
     34e: 02 00        	<unknown>
     350: 9c 00        	<unknown>
     352: 00 80        	<unknown>
		...
     364: 00 00        	<unknown>
     366: 02 00        	<unknown>
     368: e8 00        	<unknown>
     36a: 00 80        	<unknown>
		...
     37c: 00 00        	<unknown>
     37e: 02 00        	<unknown>
     380: e8 00        	<unknown>
     382: 00 80        	<unknown>
		...
     390: 97 00 00 00  	auipc	ra, 0x0
     394: 00 00        	<unknown>
     396: 02 00        	<unknown>
     398: e8 00        	<unknown>
     39a: 00 80        	<unknown>
		...
     3ac: 00 00        	<unknown>
     3ae: 02 00        	<unknown>
     3b0: 14 02        	<unknown>
     3b2: 00 80        	<unknown>
		...
     3c0: 7f 00 00 00  	<unknown>
     3c4: 00 00        	<unknown>
     3c6: 07 00 68 42  	<unknown>
     3ca: 00 80        	<unknown>
		...
     3d8: 9c 00        	<unknown>
     3da: 00 00        	<unknown>
     3dc: 00 00        	<unknown>
     3de: 08 00        	<unknown>
     3e0: 78 42        	<unknown>
     3e2: 00 80        	<unknown>
		...
     3f0: a1 00        	<unknown>
     3f2: 00 00        	<unknown>
     3f4: 00 00        	<unknown>
     3f6: 05 00        	<unknown>
     3f8: 98 41        	<unknown>
     3fa: 00 80        	<unknown>
		...
     408: a6 00        	<unknown>
     40a: 00 00        	<unknown>
     40c: 00 00        	<unknown>
     40e: 05 00        	<unknown>
     410: 9c 41        	<unknown>
     412: 00 80        	<unknown>
		...
     420: ab 00 00 00  	vx_tex	ra, zero, zero, zero
     424: 00 00        	<unknown>
     426: 05 00        	<unknown>
     428: a0 41        	<unknown>
     42a: 00 80        	<unknown>
		...
     438: b0 00        	<unknown>
     43a: 00 00        	<unknown>
     43c: 00 00        	<unknown>
     43e: 05 00        	<unknown>
     440: a4 41        	<unknown>
     442: 00 80        	<unknown>
		...
     450: b5 00        	<unknown>
     452: 00 00        	<unknown>
     454: 00 00        	<unknown>
     456: 05 00        	<unknown>
     458: a8 41        	<unknown>
     45a: 00 80        	<unknown>
		...
     468: bb 00 00 00  	addw	ra, zero, zero
     46c: 00 00        	<unknown>
     46e: 05 00        	<unknown>
     470: ac 41        	<unknown>
     472: 00 80        	<unknown>
		...
     480: c1 00        	<unknown>
     482: 00 00        	<unknown>
     484: 00 00        	<unknown>
     486: 03 00 b8 2e  	lb	zero, 0x2eb(a6)
     48a: 00 80        	<unknown>
		...
     498: c7 00 00 00  	fmsub.s	ft1, ft0, ft0, ft0, rne
     49c: 00 00        	<unknown>
     49e: 0a 00        	<unknown>
     4a0: 67 00 00 00  	jr	zero <.symtab>
		...
     4b0: cd 00        	<unknown>
     4b2: 00 00        	<unknown>
     4b4: 00 00        	<unknown>
     4b6: 0b 00 00 00  	vx_tmc	zero
		...
     4c6: 00 00        	<unknown>
     4c8: d3 00 00 00  	fadd.s	ft1, ft0, ft0, rne
     4cc: 00 00        	<unknown>
     4ce: 04 00        	<unknown>
     4d0: 38 31        	<unknown>
     4d2: 00 80        	<unknown>
		...
     4e0: d9 00        	<unknown>
     4e2: 00 00        	<unknown>
     4e4: 04 00        	<unknown>
     4e6: f1 ff        	<unknown>
		...
     4fc: 00 00        	<unknown>
     4fe: 02 00        	<unknown>
     500: 14 02        	<unknown>
     502: 00 80        	<unknown>
		...
     510: 6b 00 00 00  	<unknown>
     514: 00 00        	<unknown>
     516: 02 00        	<unknown>
     518: 14 02        	<unknown>
     51a: 00 80        	<unknown>
		...
     52c: 00 00        	<unknown>
     52e: 02 00        	<unknown>
     530: a8 03        	<unknown>
     532: 00 80        	<unknown>
		...
     544: 00 00        	<unknown>
     546: 02 00        	<unknown>
     548: a8 03        	<unknown>
     54a: 00 80        	<unknown>
		...
     558: 70 00        	<unknown>
     55a: 00 00        	<unknown>
     55c: 00 00        	<unknown>
     55e: 02 00        	<unknown>
     560: a8 03        	<unknown>
     562: 00 80        	<unknown>
		...
     574: 00 00        	<unknown>
     576: 02 00        	<unknown>
     578: ec 03        	<unknown>
     57a: 00 80        	<unknown>
		...
     588: e1 00        	<unknown>
     58a: 00 00        	<unknown>
     58c: 00 00        	<unknown>
     58e: 0d 00        	<unknown>
		...
     5a0: 7a 00        	<unknown>
     5a2: 00 00        	<unknown>
     5a4: 00 00        	<unknown>
     5a6: 0c 00        	<unknown>
		...
     5bc: 00 00        	<unknown>
     5be: 10 00        	<unknown>
		...
     5d4: 00 00        	<unknown>
     5d6: 10 00        	<unknown>
     5d8: 68 00        	<unknown>
		...
     5ee: 10 00        	<unknown>
     5f0: 70 00        	<unknown>
		...
     606: 10 00        	<unknown>
     608: 90 0c        	<unknown>
		...
     61e: 10 00        	<unknown>
     620: 95 00        	<unknown>
		...
     636: 10 00        	<unknown>
     638: 9c 00        	<unknown>
		...
     64e: 10 00        	<unknown>
     650: 03 01 00 00  	lb	sp, 0x0(zero)
		...
     664: 00 00        	<unknown>
     666: 10 00        	<unknown>
     668: a3 00 00 00  	sb	zero, 0x1(zero)
		...
     67c: 00 00        	<unknown>
     67e: 10 00        	<unknown>
     680: a9 00        	<unknown>
		...
     696: 10 00        	<unknown>
     698: af 00 00 00  	<unknown>
		...
     6ac: 00 00        	<unknown>
     6ae: 10 00        	<unknown>
     6b0: b5 00        	<unknown>
		...
     6c6: 10 00        	<unknown>
     6c8: bb 00 00 00  	addw	ra, zero, zero
		...
     6dc: 00 00        	<unknown>
     6de: 10 00        	<unknown>
     6e0: c1 00        	<unknown>
		...
     6f6: 10 00        	<unknown>
     6f8: c7 00 00 00  	fmsub.s	ft1, ft0, ft0, ft0, rne
		...
     70c: 00 00        	<unknown>
     70e: 10 00        	<unknown>
     710: cd 00        	<unknown>
		...
     726: 10 00        	<unknown>
     728: d3 00 00 00  	fadd.s	ft1, ft0, ft0, rne
		...
     73c: 00 00        	<unknown>
     73e: 10 00        	<unknown>
     740: d9 00        	<unknown>
		...
     756: 10 00        	<unknown>
     758: df 00 00 00  	<unknown>
		...
     76c: 00 00        	<unknown>
     76e: 10 00        	<unknown>
     770: e5 00        	<unknown>
		...
     786: 10 00        	<unknown>
     788: eb 00 00 00  	<unknown>
		...
     79c: 00 00        	<unknown>
     79e: 10 00        	<unknown>
     7a0: f1 00        	<unknown>
		...
     7b6: 10 00        	<unknown>
     7b8: f7 00 00 00  	<unknown>
		...
     7cc: 00 00        	<unknown>
     7ce: 10 00        	<unknown>
     7d0: fd 00        	<unknown>
		...
     7e6: 10 00        	<unknown>
     7e8: 35 01        	<unknown>
		...
     7fe: 10 00        	<unknown>
     800: 0f 01 00 00  	<unknown>
		...
     814: 00 00        	<unknown>
     816: 10 00        	<unknown>
     818: 2a 01        	<unknown>
		...
     82e: 10 00        	<unknown>
     830: 1e 10        	<unknown>
		...
     846: 10 00        	<unknown>
     848: 52 10        	<unknown>
		...
     85e: 10 00        	<unknown>
     860: 5d 10        	<unknown>
		...
     876: 10 00        	<unknown>
     878: 8e 10        	<unknown>
		...
     88e: 10 00        	<unknown>
     890: 17 01 00 00  	auipc	sp, 0x0
		...
     8a4: 00 00        	<unknown>
     8a6: 10 00        	<unknown>
     8a8: 7c 02        	<unknown>
		...
     8be: 10 00        	<unknown>
     8c0: bc 01        	<unknown>
		...
     8d6: 10 00        	<unknown>
     8d8: 02 02        	<unknown>
		...
     8ee: 10 00        	<unknown>
     8f0: 48 02        	<unknown>
		...
     906: 10 00        	<unknown>
     908: 55 01        	<unknown>
		...
     91e: 10 00        	<unknown>
     920: 69 01        	<unknown>
		...
     936: 10 00        	<unknown>
     938: 48 01        	<unknown>
		...
     94e: 10 00        	<unknown>
     950: 72 01        	<unknown>
		...
     966: 10 00        	<unknown>
     968: ab 02 00 00  	vx_tex	t0, zero, zero, zero
		...
     97c: 00 00        	<unknown>
     97e: 10 00        	<unknown>
     980: 78 01        	<unknown>
		...
     996: 10 00        	<unknown>
     998: ac 01        	<unknown>
		...
     9ae: 10 00        	<unknown>
     9b0: be 01        	<unknown>
		...
     9c6: 10 00        	<unknown>
     9c8: f2 01        	<unknown>
		...
     9de: 10 00        	<unknown>
     9e0: 04 02        	<unknown>
		...
     9f6: 10 00        	<unknown>
     9f8: 38 02        	<unknown>
		...
     a0e: 10 00        	<unknown>
     a10: 4a 02        	<unknown>
		...
     a26: 10 00        	<unknown>
     a28: 73 02 00 00  	<unknown>
		...
     a3c: 00 00        	<unknown>
     a3e: 10 00        	<unknown>
     a40: 81 02        	<unknown>
		...
     a56: 10 00        	<unknown>
     a58: c5 02        	<unknown>
		...
     a6e: 10 00        	<unknown>
     a70: ec 02        	<unknown>
		...
     a86: 10 00        	<unknown>
     a88: f6 02        	<unknown>
		...
     a9e: 10 00        	<unknown>
     aa0: 1a 03        	<unknown>
		...
     ab6: 10 00        	<unknown>
     ab8: 13 04 00 00  	li	s0, 0x0
		...
     acc: 00 00        	<unknown>
     ace: 10 00        	<unknown>
     ad0: 24 03        	<unknown>
		...
     ae6: 10 00        	<unknown>
     ae8: 58 03        	<unknown>
		...
     afe: 10 00        	<unknown>
     b00: 8c 03        	<unknown>
		...
     b16: 10 00        	<unknown>
     b18: c0 03        	<unknown>
		...
     b2e: 10 00        	<unknown>
     b30: e9 03        	<unknown>
		...
     b46: 10 00        	<unknown>
     b48: 2d 04        	<unknown>
		...
     b5e: 10 00        	<unknown>
     b60: 54 04        	<unknown>
		...
     b76: 10 00        	<unknown>
     b78: 6c 05        	<unknown>
		...
     b8e: 10 00        	<unknown>
     b90: 78 04        	<unknown>
		...
     ba6: 10 00        	<unknown>
     ba8: ad 04        	<unknown>
		...
     bbe: 10 00        	<unknown>
     bc0: e2 04        	<unknown>
		...
     bd6: 10 00        	<unknown>
     bd8: 17 05 00 00  	auipc	a0, 0x0
		...
     bec: 00 00        	<unknown>
     bee: 10 00        	<unknown>
     bf0: 41 05        	<unknown>
		...
     c06: 10 00        	<unknown>
     c08: 87 05 00 00  	<unknown>
		...
     c1c: 00 00        	<unknown>
     c1e: 10 00        	<unknown>
     c20: af 05 00 00  	<unknown>
		...
     c34: 00 00        	<unknown>
     c36: 10 00        	<unknown>
     c38: d4 05        	<unknown>
		...
     c4e: 10 00        	<unknown>
     c50: 52 0d        	<unknown>
		...
     c66: 10 00        	<unknown>
     c68: ee 06        	<unknown>
		...
     c7e: 10 00        	<unknown>
     c80: c5 16        	<unknown>
		...
     c96: 10 00        	<unknown>
     c98: cd 16        	<unknown>
		...
     cae: 10 00        	<unknown>
     cb0: cf 16 00 00  	fnmadd.s	fa3, ft0, ft0, ft0, rtz
		...
     cc4: 00 00        	<unknown>
     cc6: 10 00        	<unknown>
     cc8: 2b 17 00 00  	<unknown>
		...
     cdc: 00 00        	<unknown>
     cde: 10 00        	<unknown>
     ce0: 5f 17 00 00  	<unknown>
		...
     cf4: 00 00        	<unknown>
     cf6: 10 00        	<unknown>
     cf8: dd 16        	<unknown>
		...
     d0e: 10 00        	<unknown>
     d10: 19 17        	<unknown>
		...
     d26: 10 00        	<unknown>
     d28: d8 05        	<unknown>
		...
     d3e: 10 00        	<unknown>
     d40: 51 01        	<unknown>
		...
     d56: 10 00        	<unknown>
     d58: e1 05        	<unknown>
		...
     d6e: 10 00        	<unknown>
     d70: eb 05 00 00  	<unknown>
		...
     d84: 00 00        	<unknown>
     d86: 10 00        	<unknown>
     d88: f0 05        	<unknown>
		...
     d9e: 10 00        	<unknown>
     da0: f6 05        	<unknown>
		...
     db6: 10 00        	<unknown>
     db8: 01 06        	<unknown>
		...
     dce: 10 00        	<unknown>
     dd0: 07 06 00 00  	<unknown>
		...
     de4: 00 00        	<unknown>
     de6: 10 00        	<unknown>
     de8: 11 06        	<unknown>
		...
     dfe: 10 00        	<unknown>
     e00: 16 06        	<unknown>
		...
     e16: 10 00        	<unknown>
     e18: 21 06        	<unknown>
		...
     e2e: 10 00        	<unknown>
     e30: 27 06 00 00  	<unknown>
		...
     e44: 00 00        	<unknown>
     e46: 10 00        	<unknown>
     e48: 31 06        	<unknown>
		...
     e5e: 10 00        	<unknown>
     e60: 36 06        	<unknown>
		...
     e76: 10 00        	<unknown>
     e78: 42 06        	<unknown>
		...
     e8e: 10 00        	<unknown>
     e90: 48 06        	<unknown>
		...
     ea6: 10 00        	<unknown>
     ea8: 53 06 00 00  	fadd.s	fa2, ft0, ft0, rne
		...
     ebc: 00 00        	<unknown>
     ebe: 10 00        	<unknown>
     ec0: 59 06        	<unknown>
		...
     ed6: 10 00        	<unknown>
     ed8: 63 06 00 00  	beqz	zero, 0xee4 <.symtab+0xee4>
		...
     eec: 00 00        	<unknown>
     eee: 10 00        	<unknown>
     ef0: 68 06        	<unknown>
		...
     f06: 10 00        	<unknown>
     f08: 72 06        	<unknown>
		...
     f1e: 10 00        	<unknown>
     f20: 77 06 00 00  	<unknown>
		...
     f34: 00 00        	<unknown>
     f36: 10 00        	<unknown>
     f38: 86 06        	<unknown>
		...
     f4e: 10 00        	<unknown>
     f50: 8f 06 00 00  	<unknown>
		...
     f64: 00 00        	<unknown>
     f66: 10 00        	<unknown>
     f68: ec 05        	<unknown>
		...
     f7e: 10 00        	<unknown>
     f80: 98 06        	<unknown>
		...
     f96: 10 00        	<unknown>
     f98: 02 06        	<unknown>
		...
     fae: 10 00        	<unknown>
     fb0: a2 06        	<unknown>
		...
     fc6: 10 00        	<unknown>
     fc8: d2 0b        	<unknown>
		...
     fde: 10 00        	<unknown>
     fe0: ab 06 00 00  	vx_tex	a3, zero, zero, zero
		...
     ff4: 00 00        	<unknown>
     ff6: 10 00        	<unknown>
     ff8: b5 06        	<unknown>
		...
    100e: 10 00        	<unknown>
    1010: ba 06        	<unknown>
		...
    1026: 10 00        	<unknown>
    1028: c5 08        	<unknown>
		...
    103e: 10 00        	<unknown>
    1040: c3 06 00 00  	fmadd.s	fa3, ft0, ft0, ft0, rne
		...
    1054: 00 00        	<unknown>
    1056: 10 00        	<unknown>
    1058: cd 06        	<unknown>
		...
    106e: 10 00        	<unknown>
    1070: d2 06        	<unknown>
		...
    1086: 10 00        	<unknown>
    1088: dd 06        	<unknown>
		...
    109e: 10 00        	<unknown>
    10a0: e3 06 00 00  	beqz	zero, 0x18ac <.symtab+0x18ac>
		...
    10b4: 00 00        	<unknown>
    10b6: 10 00        	<unknown>
    10b8: ed 06        	<unknown>
		...
    10ce: 10 00        	<unknown>
    10d0: f2 06        	<unknown>
		...
    10e6: 10 00        	<unknown>
    10e8: fd 06        	<unknown>
		...
    10fe: 10 00        	<unknown>
    1100: 02 07        	<unknown>
		...
    1116: 10 00        	<unknown>
    1118: 0d 07        	<unknown>
		...
    112e: 10 00        	<unknown>
    1130: 13 07 00 00  	li	a4, 0x0
		...
    1144: 00 00        	<unknown>
    1146: 10 00        	<unknown>
    1148: 1e 07        	<unknown>
		...
    115e: 10 00        	<unknown>
    1160: 22 07        	<unknown>
		...
    1176: 10 00        	<unknown>
    1178: 2d 07        	<unknown>
		...
    118e: 10 00        	<unknown>
    1190: 32 07        	<unknown>
		...
    11a6: 10 00        	<unknown>
    11a8: 3d 07        	<unknown>
		...
    11be: 10 00        	<unknown>
    11c0: 42 07        	<unknown>
		...
    11d6: 10 00        	<unknown>
    11d8: 4d 07        	<unknown>
		...
    11ee: 10 00        	<unknown>
    11f0: 52 07        	<unknown>
		...
    1206: 10 00        	<unknown>
    1208: 63 07 00 00  	beqz	zero, 0x1216 <.symtab+0x1216>
		...
    121c: 00 00        	<unknown>
    121e: 10 00        	<unknown>
    1220: 6e 07        	<unknown>
		...
    1236: 10 00        	<unknown>
    1238: 7b 07 00 00  	<unknown>
		...
    124c: 00 00        	<unknown>
    124e: 10 00        	<unknown>
    1250: 81 07        	<unknown>
		...
    1266: 10 00        	<unknown>
    1268: 8d 07        	<unknown>
		...
    127e: 10 00        	<unknown>
    1280: 93 07 00 00  	li	a5, 0x0
		...
    1294: 00 00        	<unknown>
    1296: 10 00        	<unknown>
    1298: 9e 07        	<unknown>
		...
    12ae: 10 00        	<unknown>
    12b0: a4 07        	<unknown>
		...
    12c6: 10 00        	<unknown>
    12c8: b2 07        	<unknown>
		...
    12de: 10 00        	<unknown>
    12e0: bb 07 00 00  	addw	a5, zero, zero
		...
    12f4: 00 00        	<unknown>
    12f6: 10 00        	<unknown>
    12f8: c0 07        	<unknown>
		...
    130e: 10 00        	<unknown>
    1310: d0 07        	<unknown>
		...
    1326: 10 00        	<unknown>
    1328: da 07        	<unknown>
		...
    133e: 10 00        	<unknown>
    1340: f0 07        	<unknown>
		...
    1356: 10 00        	<unknown>
    1358: ff 07 00 00  	<unknown>
		...
    136c: 00 00        	<unknown>
    136e: 10 00        	<unknown>
    1370: 0a 08        	<unknown>
		...
    1386: 10 00        	<unknown>
    1388: 10 08        	<unknown>
		...
    139e: 10 00        	<unknown>
    13a0: 1d 08        	<unknown>
		...
    13b6: 10 00        	<unknown>
    13b8: 24 08        	<unknown>
		...
    13ce: 10 00        	<unknown>
    13d0: 37 08 00 00  	lui	a6, 0x0
		...
    13e4: 00 00        	<unknown>
    13e6: 10 00        	<unknown>
    13e8: 43 08 00 00  	fmadd.s	fa6, ft0, ft0, ft0, rne
		...
    13fc: 00 00        	<unknown>
    13fe: 10 00        	<unknown>
    1400: 58 08        	<unknown>
		...
    1416: 10 00        	<unknown>
    1418: 66 08        	<unknown>
		...
    142e: 10 00        	<unknown>
    1430: 71 08        	<unknown>
		...
    1446: 10 00        	<unknown>
    1448: 77 08 00 00  	<unknown>
		...
    145c: 00 00        	<unknown>
    145e: 10 00        	<unknown>
    1460: 85 08        	<unknown>
		...
    1476: 10 00        	<unknown>
    1478: 8e 08        	<unknown>
		...
    148e: 10 00        	<unknown>
    1490: a1 08        	<unknown>
		...
    14a6: 10 00        	<unknown>
    14a8: ad 08        	<unknown>
		...
    14be: 10 00        	<unknown>
    14c0: e8 08        	<unknown>
		...
    14d6: 10 00        	<unknown>
    14d8: 66 0c        	<unknown>
		...
    14ee: 10 00        	<unknown>
    14f0: b7 08 00 00  	lui	a7, 0x0
		...
    1504: 00 00        	<unknown>
    1506: 10 00        	<unknown>
    1508: c3 08 00 00  	fmadd.s	fa7, ft0, ft0, ft0, rne
		...
    151c: 00 00        	<unknown>
    151e: 10 00        	<unknown>
    1520: c9 08        	<unknown>
		...
    1536: 10 00        	<unknown>
    1538: d5 08        	<unknown>
		...
    154e: 10 00        	<unknown>
    1550: dc 08        	<unknown>
		...
    1566: 10 00        	<unknown>
    1568: e7 08 00 00  	jalr	a7, zero <.symtab>
		...
    157c: 00 00        	<unknown>
    157e: 10 00        	<unknown>
    1580: 20 01        	<unknown>
		...
    1596: 10 00        	<unknown>
    1598: ed 08        	<unknown>
		...
    15ae: 10 00        	<unknown>
    15b0: f9 08        	<unknown>
		...
    15c6: 10 00        	<unknown>
    15c8: 00 09        	<unknown>
		...
    15de: 10 00        	<unknown>
    15e0: 09 09        	<unknown>
		...
    15f6: 10 00        	<unknown>
    15f8: 0d 09        	<unknown>
		...
    160e: 10 00        	<unknown>
    1610: 18 09        	<unknown>
		...
    1626: 10 00        	<unknown>
    1628: 1e 09        	<unknown>
		...
    163e: 10 00        	<unknown>
    1640: 29 09        	<unknown>
		...
    1656: 10 00        	<unknown>
    1658: 2f 09 00 00  	<unknown>
		...
    166c: 00 00        	<unknown>
    166e: 10 00        	<unknown>
    1670: 39 09        	<unknown>
		...
    1686: 10 00        	<unknown>
    1688: 3e 09        	<unknown>
		...
    169e: 10 00        	<unknown>
    16a0: 9f 07 00 00  	<unknown>
		...
    16b4: 00 00        	<unknown>
    16b6: 10 00        	<unknown>
    16b8: 48 09        	<unknown>
		...
    16ce: 10 00        	<unknown>
    16d0: fa 08        	<unknown>
		...
    16e6: 10 00        	<unknown>
    16e8: 53 09 00 00  	fadd.s	fs2, ft0, ft0, rne
		...
    16fc: 00 00        	<unknown>
    16fe: 10 00        	<unknown>
    1700: 6d 09        	<unknown>
		...
    1716: 10 00        	<unknown>
    1718: 5f 09 00 00  	<unknown>
		...
    172c: 00 00        	<unknown>
    172e: 10 00        	<unknown>
    1730: 6c 09        	<unknown>
		...
    1746: 10 00        	<unknown>
    1748: 74 09        	<unknown>
		...
    175e: 10 00        	<unknown>
    1760: 7a 0e        	<unknown>
		...
    1776: 10 00        	<unknown>
    1778: 80 09        	<unknown>
		...
    178e: 10 00        	<unknown>
    1790: 73 08 00 00  	<unknown>
		...
    17a4: 00 00        	<unknown>
    17a6: 10 00        	<unknown>
    17a8: d2 0a        	<unknown>
		...
    17be: 10 00        	<unknown>
    17c0: 96 12        	<unknown>
		...
    17d6: 10 00        	<unknown>
    17d8: 8b 09 00 00  	<unknown>
		...
    17ec: 00 00        	<unknown>
    17ee: 10 00        	<unknown>
    17f0: 6c 08        	<unknown>
		...
    1806: 10 00        	<unknown>
    1808: 97 09 00 00  	auipc	s3, 0x0
		...
    181c: 00 00        	<unknown>
    181e: 10 00        	<unknown>
    1820: a6 09        	<unknown>
		...
    1836: 10 00        	<unknown>
    1838: b0 09        	<unknown>
		...
    184e: 10 00        	<unknown>
    1850: c0 09        	<unknown>
		...
    1866: 10 00        	<unknown>
    1868: ca 09        	<unknown>
		...
    187e: 10 00        	<unknown>
    1880: d4 09        	<unknown>
		...
    1896: 10 00        	<unknown>
    1898: d8 09        	<unknown>
		...
    18ae: 10 00        	<unknown>
    18b0: e8 09        	<unknown>
		...
    18c6: 10 00        	<unknown>
    18c8: f2 09        	<unknown>
		...
    18de: 10 00        	<unknown>
    18e0: 01 0a        	<unknown>
		...
    18f6: 10 00        	<unknown>
    18f8: 08 0a        	<unknown>
		...
    190e: 10 00        	<unknown>
    1910: fb 08 00 00  	<unknown>
		...
    1924: 00 00        	<unknown>
    1926: 10 00        	<unknown>
    1928: 12 0a        	<unknown>
		...
    193e: 10 00        	<unknown>
    1940: 6e 09        	<unknown>
		...
    1956: 10 00        	<unknown>
    1958: 1d 0a        	<unknown>
		...
    196e: 10 00        	<unknown>
    1970: 2b 0a 00 00  	vx_tex	s4, zero, zero, zero
		...
    1984: 00 00        	<unknown>
    1986: 10 00        	<unknown>
    1988: 33 0a 00 00  	add	s4, zero, zero
		...
    199c: 00 00        	<unknown>
    199e: 10 00        	<unknown>
    19a0: 40 0a        	<unknown>
		...
    19b6: 10 00        	<unknown>
    19b8: 47 0a 00 00  	fmsub.s	fs4, ft0, ft0, ft0, rne
		...
    19cc: 00 00        	<unknown>
    19ce: 10 00        	<unknown>
    19d0: 54 0a        	<unknown>
		...
    19e6: 10 00        	<unknown>
    19e8: 5c 0a        	<unknown>
		...
    19fe: 10 00        	<unknown>
    1a00: 12 06        	<unknown>
		...
    1a16: 10 00        	<unknown>
    1a18: 65 0a        	<unknown>
		...
    1a2e: 10 00        	<unknown>
    1a30: 22 06        	<unknown>
		...
    1a46: 10 00        	<unknown>
    1a48: 6f 0a 00 00  	jal	s4, 0x1a48 <.symtab+0x1a48>
		...
    1a5c: 00 00        	<unknown>
    1a5e: 10 00        	<unknown>
    1a60: 79 0a        	<unknown>
		...
    1a76: 10 00        	<unknown>
    1a78: 7e 0a        	<unknown>
		...
    1a8e: 10 00        	<unknown>
    1a90: 32 06        	<unknown>
		...
    1aa6: 10 00        	<unknown>
    1aa8: 87 0a 00 00  	<unknown>
		...
    1abc: 00 00        	<unknown>
    1abe: 10 00        	<unknown>
    1ac0: 54 06        	<unknown>
		...
    1ad6: 10 00        	<unknown>
    1ad8: 91 0a        	<unknown>
		...
    1aee: 10 00        	<unknown>
    1af0: 9d 0a        	<unknown>
		...
    1b06: 10 00        	<unknown>
    1b08: a4 0a        	<unknown>
		...
    1b1e: 10 00        	<unknown>
    1b20: af 0a 00 00  	<unknown>
		...
    1b34: 00 00        	<unknown>
    1b36: 10 00        	<unknown>
    1b38: b5 0a        	<unknown>
		...
    1b4e: 10 00        	<unknown>
    1b50: be 0a        	<unknown>
		...
    1b66: 10 00        	<unknown>
    1b68: fa 05        	<unknown>
		...
    1b7e: 10 00        	<unknown>
    1b80: c6 0a        	<unknown>
		...
    1b96: 10 00        	<unknown>
    1b98: cd 0a        	<unknown>
		...
    1bae: 10 00        	<unknown>
    1bb0: 1a 06        	<unknown>
		...
    1bc6: 10 00        	<unknown>
    1bc8: d9 0a        	<unknown>
		...
    1bde: 10 00        	<unknown>
    1be0: 4c 06        	<unknown>
		...
    1bf6: 10 00        	<unknown>
    1bf8: e0 0a        	<unknown>
		...
    1c0e: 10 00        	<unknown>
    1c10: 5d 06        	<unknown>
		...
    1c26: 10 00        	<unknown>
    1c28: e7 0a 00 00  	jalr	s5, zero <.symtab>
		...
    1c3c: 00 00        	<unknown>
    1c3e: 10 00        	<unknown>
    1c40: ed 0a        	<unknown>
		...
    1c56: 10 00        	<unknown>
    1c58: f7 0a 00 00  	<unknown>
		...
    1c6c: 00 00        	<unknown>
    1c6e: 10 00        	<unknown>
    1c70: a6 06        	<unknown>
		...
    1c86: 10 00        	<unknown>
    1c88: 01 0b        	<unknown>
		...
    1c9e: 10 00        	<unknown>
    1ca0: af 06 00 00  	<unknown>
		...
    1cb4: 00 00        	<unknown>
    1cb6: 10 00        	<unknown>
    1cb8: 06 0b        	<unknown>
		...
    1cce: 10 00        	<unknown>
    1cd0: c7 06 00 00  	fmsub.s	fa3, ft0, ft0, ft0, rne
		...
    1ce4: 00 00        	<unknown>
    1ce6: 10 00        	<unknown>
    1ce8: 0c 0b        	<unknown>
		...
    1cfe: 10 00        	<unknown>
    1d00: d6 06        	<unknown>
		...
    1d16: 10 00        	<unknown>
    1d18: 12 0b        	<unknown>
		...
    1d2e: 10 00        	<unknown>
    1d30: 19 0b        	<unknown>
		...
    1d46: 10 00        	<unknown>
    1d48: 1f 0b 00 00  	<unknown>
		...
    1d5c: 00 00        	<unknown>
    1d5e: 10 00        	<unknown>
    1d60: 25 0b        	<unknown>
		...
    1d76: 10 00        	<unknown>
    1d78: 2a 0b        	<unknown>
		...
    1d8e: 10 00        	<unknown>
    1d90: 2f 0b 00 00  	<unknown>
		...
    1da4: 00 00        	<unknown>
    1da6: 10 00        	<unknown>
    1da8: 35 0b        	<unknown>
		...
    1dbe: 10 00        	<unknown>
    1dc0: 3b 0b 00 00  	addw	s6, zero, zero
		...
    1dd4: 00 00        	<unknown>
    1dd6: 10 00        	<unknown>
    1dd8: 41 0b        	<unknown>
		...
    1dee: 10 00        	<unknown>
    1df0: 47 0b 00 00  	fmsub.s	fs6, ft0, ft0, ft0, rne
		...
    1e04: 00 00        	<unknown>
    1e06: 10 00        	<unknown>
    1e08: 4e 0b        	<unknown>
		...
    1e1e: 10 00        	<unknown>
    1e20: 97 07 00 00  	auipc	a5, 0x0
		...
    1e34: 00 00        	<unknown>
    1e36: 10 00        	<unknown>
    1e38: 55 0b        	<unknown>
		...
    1e4e: 10 00        	<unknown>
    1e50: cd 08        	<unknown>
		...
    1e66: 10 00        	<unknown>
    1e68: 5c 0b        	<unknown>
		...
    1e7e: 10 00        	<unknown>
    1e80: f1 08        	<unknown>
		...
    1e96: 10 00        	<unknown>
    1e98: 64 0b        	<unknown>
		...
    1eae: 10 00        	<unknown>
    1eb0: 63 09 00 00  	beqz	zero, 0x1ec2 <.symtab+0x1ec2>
		...
    1ec4: 00 00        	<unknown>
    1ec6: 10 00        	<unknown>
    1ec8: 6c 0b        	<unknown>
		...
    1ede: 10 00        	<unknown>
    1ee0: 22 09        	<unknown>
		...
    1ef6: 10 00        	<unknown>
    1ef8: 75 0b        	<unknown>
		...
    1f0e: 10 00        	<unknown>
    1f10: 33 09 00 00  	add	s2, zero, zero
		...
    1f24: 00 00        	<unknown>
    1f26: 10 00        	<unknown>
    1f28: 7c 0b        	<unknown>
		...
    1f3e: 10 00        	<unknown>
    1f40: 42 09        	<unknown>
		...
    1f56: 10 00        	<unknown>
    1f58: 56 0b        	<unknown>
		...
    1f6e: 10 00        	<unknown>
    1f70: 4c 09        	<unknown>
		...
    1f86: 10 00        	<unknown>
    1f88: 65 0b        	<unknown>
		...
    1f9e: 10 00        	<unknown>
    1fa0: 57 09 00 00  	<unknown>
		...
    1fb4: 00 00        	<unknown>
    1fb6: 10 00        	<unknown>
    1fb8: 6d 0b        	<unknown>
		...
    1fce: 10 00        	<unknown>
    1fd0: 82 0b        	<unknown>
		...
    1fe6: 10 00        	<unknown>
    1fe8: 9b 09 00 00  	sext.w	s3, zero
		...
    1ffc: 00 00        	<unknown>
    1ffe: 10 00        	<unknown>
    2000: 87 0b 00 00  	<unknown>
		...
    2014: 00 00        	<unknown>
    2016: 10 00        	<unknown>
    2018: 92 0b        	<unknown>
		...
    202e: 10 00        	<unknown>
    2030: 9d 0b        	<unknown>
		...
    2046: 10 00        	<unknown>
    2048: a8 0b        	<unknown>
		...
    205e: 10 00        	<unknown>
    2060: b3 0b 00 00  	add	s7, zero, zero
		...
    2074: 00 00        	<unknown>
    2076: 10 00        	<unknown>
    2078: bf 0b 00 00  	<unknown>
		...
    208c: 00 00        	<unknown>
    208e: 10 00        	<unknown>
    2090: cb 0b 00 00  	fnmsub.s	fs7, ft0, ft0, ft0, rne
		...
    20a4: 00 00        	<unknown>
    20a6: 10 00        	<unknown>
    20a8: d6 0b        	<unknown>
		...
    20be: 10 00        	<unknown>
    20c0: e1 0b        	<unknown>
		...
    20d6: 10 00        	<unknown>
    20d8: e9 0b        	<unknown>
		...
    20ee: 10 00        	<unknown>
    20f0: 0c 0a        	<unknown>
		...
    2106: 10 00        	<unknown>
    2108: 66 0b        	<unknown>
		...
    211e: 10 00        	<unknown>
    2120: 16 0a        	<unknown>
		...
    2136: 10 00        	<unknown>
    2138: 6e 0b        	<unknown>
		...
    214e: 10 00        	<unknown>
    2150: f1 0b        	<unknown>
		...
    2166: 10 00        	<unknown>
    2168: fa 0b        	<unknown>
		...
    217e: 10 00        	<unknown>
    2180: 03 0c 00 00  	lb	s8, 0x0(zero)
		...
    2194: 00 00        	<unknown>
    2196: 10 00        	<unknown>
    2198: 0b 0c 00 00  	<unknown>
		...
    21ac: 00 00        	<unknown>
    21ae: 10 00        	<unknown>
    21b0: 95 0a        	<unknown>
		...
    21c6: 10 00        	<unknown>
    21c8: 13 0c 00 00  	li	s8, 0x0
		...
    21dc: 00 00        	<unknown>
    21de: 10 00        	<unknown>
    21e0: a8 0a        	<unknown>
		...
    21f6: 10 00        	<unknown>
    21f8: 1b 0c 00 00  	sext.w	s8, zero
		...
    220c: 00 00        	<unknown>
    220e: 10 00        	<unknown>
    2210: 05 0d        	<unknown>
		...
    2226: 10 00        	<unknown>
    2228: 04 0d        	<unknown>
		...
    223e: 10 00        	<unknown>
    2240: 22 0c        	<unknown>
		...
    2256: 10 00        	<unknown>
    2258: 27 0c 00 00  	<unknown>
		...
    226c: 00 00        	<unknown>
    226e: 10 00        	<unknown>
    2270: 2b 0c 00 00  	vx_tex	s8, zero, zero, zero
		...
    2284: 00 00        	<unknown>
    2286: 10 00        	<unknown>
    2288: 31 0c        	<unknown>
		...
    229e: 10 00        	<unknown>
    22a0: 38 0c        	<unknown>
		...
    22b6: 10 00        	<unknown>
    22b8: 46 0c        	<unknown>
		...
    22ce: 10 00        	<unknown>
    22d0: 4b 0c 00 00  	fnmsub.s	fs8, ft0, ft0, ft0, rne
		...
    22e4: 00 00        	<unknown>
    22e6: 10 00        	<unknown>
    22e8: 50 0c        	<unknown>
		...
    22fe: 10 00        	<unknown>
    2300: 55 0c        	<unknown>
		...
    2316: 10 00        	<unknown>
    2318: 6b 0c 00 00  	<unknown>
		...
    232c: 00 00        	<unknown>
    232e: 10 00        	<unknown>
    2330: 5d 0c        	<unknown>
		...
    2346: 10 00        	<unknown>
    2348: 72 0c        	<unknown>
		...
    235e: 10 00        	<unknown>
    2360: 80 0c        	<unknown>
		...
    2376: 10 00        	<unknown>
    2378: 13 0d 00 00  	li	s10, 0x0
		...
    238c: 00 00        	<unknown>
    238e: 10 00        	<unknown>
    2390: 41 0c        	<unknown>
		...
    23a6: 10 00        	<unknown>
    23a8: 87 0c 00 00  	<unknown>
		...
    23bc: 00 00        	<unknown>
    23be: 10 00        	<unknown>
    23c0: 8c 0c        	<unknown>
		...
    23d6: 10 00        	<unknown>
    23d8: 12 0d        	<unknown>
		...
    23ee: 10 00        	<unknown>
    23f0: 93 0c 00 00  	li	s9, 0x0
		...
    2404: 00 00        	<unknown>
    2406: 10 00        	<unknown>
    2408: 9a 0c        	<unknown>
		...
    241e: 10 00        	<unknown>
    2420: a0 0c        	<unknown>
		...
    2436: 10 00        	<unknown>
    2438: a9 0c        	<unknown>
		...
    244e: 10 00        	<unknown>
    2450: b1 0c        	<unknown>
		...
    2466: 10 00        	<unknown>
    2468: b8 0c        	<unknown>
		...
    247e: 10 00        	<unknown>
    2480: 3b 0c 00 00  	addw	s8, zero, zero
		...
    2494: 00 00        	<unknown>
    2496: 10 00        	<unknown>
    2498: c7 0c 00 00  	fmsub.s	fs9, ft0, ft0, ft0, rne
		...
    24ac: 00 00        	<unknown>
    24ae: 10 00        	<unknown>
    24b0: be 0c        	<unknown>
		...
    24c6: 10 00        	<unknown>
    24c8: c6 0c        	<unknown>
		...
    24de: 10 00        	<unknown>
    24e0: cc 0c        	<unknown>
		...
    24f6: 10 00        	<unknown>
    24f8: d3 0c 00 00  	fadd.s	fs9, ft0, ft0, rne
		...
    250c: 00 00        	<unknown>
    250e: 10 00        	<unknown>
    2510: da 0c        	<unknown>
		...
    2526: 10 00        	<unknown>
    2528: e2 0c        	<unknown>
		...
    253e: 10 00        	<unknown>
    2540: e9 0c        	<unknown>
		...
    2556: 10 00        	<unknown>
    2558: f2 0c        	<unknown>
		...
    256e: 10 00        	<unknown>
    2570: f9 0c        	<unknown>
		...
    2586: 10 00        	<unknown>
    2588: 3d 0d        	<unknown>
		...
    259e: 10 00        	<unknown>
    25a0: 03 0d 00 00  	lb	s10, 0x0(zero)
		...
    25b4: 00 00        	<unknown>
    25b6: 10 00        	<unknown>
    25b8: 0b 0d 00 00  	<unknown>
		...
    25cc: 00 00        	<unknown>
    25ce: 10 00        	<unknown>
    25d0: 11 0d        	<unknown>
		...
    25e6: 10 00        	<unknown>
    25e8: 17 0d 00 00  	auipc	s10, 0x0
		...
    25fc: 00 00        	<unknown>
    25fe: 10 00        	<unknown>
    2600: 1d 0d        	<unknown>
		...
    2616: 10 00        	<unknown>
    2618: 25 0d        	<unknown>
		...
    262e: 10 00        	<unknown>
    2630: 2e 0d        	<unknown>
		...
    2646: 10 00        	<unknown>
    2648: 35 0d        	<unknown>
		...
    265e: 10 00        	<unknown>
    2660: 5c 0d        	<unknown>
		...
    2676: 10 00        	<unknown>
    2678: e5 05        	<unknown>
		...
    268e: 10 00        	<unknown>
    2690: 67 0d 00 00  	jalr	s10, zero <.symtab>
		...
    26a4: 00 00        	<unknown>
    26a6: 10 00        	<unknown>
    26a8: 73 0d 00 00  	<unknown>
		...
    26bc: 00 00        	<unknown>
    26be: 10 00        	<unknown>
    26c0: 0b 06 00 00  	<unknown>
		...
    26d4: 00 00        	<unknown>
    26d6: 10 00        	<unknown>
    26d8: 7e 0d        	<unknown>
		...
    26ee: 10 00        	<unknown>
    26f0: 8a 0d        	<unknown>
		...
    2706: 10 00        	<unknown>
    2708: 97 0d 00 00  	auipc	s11, 0x0
		...
    271c: 00 00        	<unknown>
    271e: 10 00        	<unknown>
    2720: 9e 0d        	<unknown>
		...
    2736: 10 00        	<unknown>
    2738: 2b 06 00 00  	vx_tex	a2, zero, zero, zero
		...
    274c: 00 00        	<unknown>
    274e: 10 00        	<unknown>
    2750: a9 0d        	<unknown>
		...
    2766: 10 00        	<unknown>
    2768: b5 0d        	<unknown>
		...
    277e: 10 00        	<unknown>
    2780: c0 0d        	<unknown>
		...
    2796: 10 00        	<unknown>
    2798: 6c 06        	<unknown>
		...
    27ae: 10 00        	<unknown>
    27b0: cb 0d 00 00  	fnmsub.s	fs11, ft0, ft0, ft0, rne
		...
    27c4: 00 00        	<unknown>
    27c6: 10 00        	<unknown>
    27c8: db 0d 00 00  	<unknown>
		...
    27dc: 00 00        	<unknown>
    27de: 10 00        	<unknown>
    27e0: 93 06 00 00  	li	a3, 0x0
		...
    27f4: 00 00        	<unknown>
    27f6: 10 00        	<unknown>
    27f8: e5 0d        	<unknown>
		...
    280e: 10 00        	<unknown>
    2810: 9c 06        	<unknown>
		...
    2826: 10 00        	<unknown>
    2828: f0 0d        	<unknown>
		...
    283e: 10 00        	<unknown>
    2840: fb 0d 00 00  	<unknown>
		...
    2854: 00 00        	<unknown>
    2856: 10 00        	<unknown>
    2858: 05 0e        	<unknown>
		...
    286e: 10 00        	<unknown>
    2870: 10 0e        	<unknown>
		...
    2886: 10 00        	<unknown>
    2888: be 06        	<unknown>
		...
    289e: 10 00        	<unknown>
    28a0: 1a 0e        	<unknown>
		...
    28b6: 10 00        	<unknown>
    28b8: 26 0e        	<unknown>
		...
    28ce: 10 00        	<unknown>
    28d0: e7 06 00 00  	jalr	a3, zero <.symtab>
		...
    28e4: 00 00        	<unknown>
    28e6: 10 00        	<unknown>
    28e8: 31 0e        	<unknown>
		...
    28fe: 10 00        	<unknown>
    2900: 3d 0e        	<unknown>
		...
    2916: 10 00        	<unknown>
    2918: 06 07        	<unknown>
		...
    292e: 10 00        	<unknown>
    2930: 49 0e        	<unknown>
		...
    2946: 10 00        	<unknown>
    2948: 55 0e        	<unknown>
		...
    295e: 10 00        	<unknown>
    2960: 61 0e        	<unknown>
		...
    2976: 10 00        	<unknown>
    2978: 6d 0e        	<unknown>
		...
    298e: 10 00        	<unknown>
    2990: 79 0e        	<unknown>
		...
    29a6: 10 00        	<unknown>
    29a8: 7f 0e 00 00  	<unknown>
		...
    29bc: 00 00        	<unknown>
    29be: 10 00        	<unknown>
    29c0: 8d 0e        	<unknown>
		...
    29d6: 10 00        	<unknown>
    29d8: 94 0e        	<unknown>
		...
    29ee: 10 00        	<unknown>
    29f0: a1 0e        	<unknown>
		...
    2a06: 10 00        	<unknown>
    2a08: ad 0e        	<unknown>
		...
    2a1e: 10 00        	<unknown>
    2a20: ba 0e        	<unknown>
		...
    2a36: 10 00        	<unknown>
    2a38: c1 0e        	<unknown>
		...
    2a4e: 10 00        	<unknown>
    2a50: ce 0e        	<unknown>
		...
    2a66: 10 00        	<unknown>
    2a68: db 0e 00 00  	<unknown>
		...
    2a7c: 00 00        	<unknown>
    2a7e: 10 00        	<unknown>
    2a80: e9 0e        	<unknown>
		...
    2a96: 10 00        	<unknown>
    2a98: 11 09        	<unknown>
		...
    2aae: 10 00        	<unknown>
    2ab0: f5 0e        	<unknown>
		...
    2ac6: 10 00        	<unknown>
    2ac8: 01 0f        	<unknown>
		...
    2ade: 10 00        	<unknown>
    2ae0: 0c 0f        	<unknown>
		...
    2af6: 10 00        	<unknown>
    2af8: 17 0f 00 00  	auipc	t5, 0x0
		...
    2b0c: 00 00        	<unknown>
    2b0e: 10 00        	<unknown>
    2b10: 04 09        	<unknown>
		...
    2b26: 10 00        	<unknown>
    2b28: 21 0f        	<unknown>
		...
    2b3e: 10 00        	<unknown>
    2b40: 2d 0f        	<unknown>
		...
    2b56: 10 00        	<unknown>
    2b58: 3a 0f        	<unknown>
		...
    2b6e: 10 00        	<unknown>
    2b70: 47 07 00 00  	fmsub.s	fa4, ft0, ft0, ft0, rne
		...
    2b84: 00 00        	<unknown>
    2b86: 10 00        	<unknown>
    2b88: 47 0f 00 00  	fmsub.s	ft10, ft0, ft0, ft0, rne
		...
    2b9c: 00 00        	<unknown>
    2b9e: 10 00        	<unknown>
    2ba0: 58 0f        	<unknown>
		...
    2bb6: 10 00        	<unknown>
    2bb8: 6a 0f        	<unknown>
		...
    2bce: 10 00        	<unknown>
    2bd0: 75 0f        	<unknown>
		...
    2be6: 10 00        	<unknown>
    2be8: 7a 0f        	<unknown>
		...
    2bfe: 10 00        	<unknown>
    2c00: 8c 0f        	<unknown>
		...
    2c16: 10 00        	<unknown>
    2c18: 9c 0f        	<unknown>
		...
    2c2e: 10 00        	<unknown>
    2c30: a7 0f 00 00  	<unknown>
		...
    2c44: 00 00        	<unknown>
    2c46: 10 00        	<unknown>
    2c48: b3 0f 00 00  	add	t6, zero, zero
		...
    2c5c: 00 00        	<unknown>
    2c5e: 10 00        	<unknown>
    2c60: c2 0f        	<unknown>
		...
    2c76: 10 00        	<unknown>
    2c78: d0 0f        	<unknown>
		...
    2c8e: 10 00        	<unknown>
    2c90: 60 0a        	<unknown>
		...
    2ca6: 10 00        	<unknown>
    2ca8: da 0f        	<unknown>
		...
    2cbe: 10 00        	<unknown>
    2cc0: 69 0a        	<unknown>
		...
    2cd6: 10 00        	<unknown>
    2cd8: e5 0f        	<unknown>
		...
    2cee: 10 00        	<unknown>
    2cf0: 73 0a 00 00  	<unknown>
		...
    2d04: 00 00        	<unknown>
    2d06: 10 00        	<unknown>
    2d08: f0 0f        	<unknown>
		...
    2d1e: 10 00        	<unknown>
    2d20: 82 0a        	<unknown>
		...
    2d36: 10 00        	<unknown>
    2d38: fa 0f        	<unknown>
		...
    2d4e: 10 00        	<unknown>
    2d50: 8b 0a 00 00  	<unknown>
		...
    2d64: 00 00        	<unknown>
    2d66: 10 00        	<unknown>
    2d68: 05 10        	<unknown>
		...
    2d7e: 10 00        	<unknown>
    2d80: 12 10        	<unknown>
		...
    2d96: 10 00        	<unknown>
    2d98: 9b 10 00 00  	slliw	ra, zero, 0x0
		...
    2dac: 00 00        	<unknown>
    2dae: 10 00        	<unknown>
    2db0: 97 10 00 00  	auipc	ra, 0x1
		...
    2dc4: 00 00        	<unknown>
    2dc6: 10 00        	<unknown>
    2dc8: a3 10 00 00  	sh	zero, 0x1(zero)
		...
    2ddc: 00 00        	<unknown>
    2dde: 10 00        	<unknown>
    2de0: aa 10        	<unknown>
		...
    2df6: 10 00        	<unknown>
    2df8: a0 10        	<unknown>
		...
    2e0e: 10 00        	<unknown>
    2e10: b3 10 00 00  	sll	ra, zero, zero
		...
    2e24: 00 00        	<unknown>
    2e26: 10 00        	<unknown>
    2e28: bc 10        	<unknown>
		...
    2e3e: 10 00        	<unknown>
    2e40: c3 10 00 00  	fmadd.s	ft1, ft0, ft0, ft0, rtz
		...
    2e54: 00 00        	<unknown>
    2e56: 10 00        	<unknown>
    2e58: c8 10        	<unknown>
		...
    2e6e: 10 00        	<unknown>
    2e70: cf 10 00 00  	fnmadd.s	ft1, ft0, ft0, ft0, rtz
		...
    2e84: 00 00        	<unknown>
    2e86: 10 00        	<unknown>
    2e88: d6 10        	<unknown>
		...
    2e9e: 10 00        	<unknown>
    2ea0: dc 10        	<unknown>
		...
    2eb6: 10 00        	<unknown>
    2eb8: e4 10        	<unknown>
		...
    2ece: 10 00        	<unknown>
    2ed0: ea 10        	<unknown>
		...
    2ee6: 10 00        	<unknown>
    2ee8: a6 11        	<unknown>
		...
    2efe: 10 00        	<unknown>
    2f00: f0 10        	<unknown>
		...
    2f16: 10 00        	<unknown>
    2f18: f6 10        	<unknown>
		...
    2f2e: 10 00        	<unknown>
    2f30: fc 10        	<unknown>
		...
    2f46: 10 00        	<unknown>
    2f48: 02 11        	<unknown>
		...
    2f5e: 10 00        	<unknown>
    2f60: 0a 11        	<unknown>
		...
    2f76: 10 00        	<unknown>
    2f78: 13 11 00 00  	slli	sp, zero, 0x0
		...
    2f8c: 00 00        	<unknown>
    2f8e: 10 00        	<unknown>
    2f90: 1a 11        	<unknown>
		...
    2fa6: 10 00        	<unknown>
    2fa8: 20 11        	<unknown>
		...
    2fbe: 10 00        	<unknown>
    2fc0: 28 11        	<unknown>
		...
    2fd6: 10 00        	<unknown>
    2fd8: 2e 11        	<unknown>
		...
    2fee: 10 00        	<unknown>
    2ff0: d7 10 00 00  	<unknown>
		...
    3004: 00 00        	<unknown>
    3006: 10 00        	<unknown>
    3008: 35 11        	<unknown>
		...
    301e: 10 00        	<unknown>
    3020: e5 10        	<unknown>
		...
    3036: 10 00        	<unknown>
    3038: 3d 11        	<unknown>
		...
    304e: 10 00        	<unknown>
    3050: a7 11 00 00  	<unknown>
		...
    3064: 00 00        	<unknown>
    3066: 10 00        	<unknown>
    3068: f1 10        	<unknown>
		...
    307e: 10 00        	<unknown>
    3080: 44 11        	<unknown>
		...
    3096: 10 00        	<unknown>
    3098: f7 10 00 00  	<unknown>
		...
    30ac: 00 00        	<unknown>
    30ae: 10 00        	<unknown>
    30b0: 4c 11        	<unknown>
		...
    30c6: 10 00        	<unknown>
    30c8: 53 11 00 00  	fadd.s	ft2, ft0, ft0, rtz
		...
    30dc: 00 00        	<unknown>
    30de: 10 00        	<unknown>
    30e0: 5a 11        	<unknown>
		...
    30f6: 10 00        	<unknown>
    30f8: 61 11        	<unknown>
		...
    310e: 10 00        	<unknown>
    3110: 6a 11        	<unknown>
		...
    3126: 10 00        	<unknown>
    3128: 70 11        	<unknown>
		...
    313e: 10 00        	<unknown>
    3140: 77 11 00 00  	<unknown>
		...
    3154: 00 00        	<unknown>
    3156: 10 00        	<unknown>
    3158: d8 11        	<unknown>
		...
    316e: 10 00        	<unknown>
    3170: 7f 11 00 00  	<unknown>
		...
    3184: 00 00        	<unknown>
    3186: 10 00        	<unknown>
    3188: 88 11        	<unknown>
		...
    319e: 10 00        	<unknown>
    31a0: 8f 11 00 00  	<unknown>
		...
    31b4: 00 00        	<unknown>
    31b6: 10 00        	<unknown>
    31b8: 97 11 00 00  	auipc	gp, 0x1
		...
    31cc: 00 00        	<unknown>
    31ce: 10 00        	<unknown>
    31d0: 9e 11        	<unknown>
		...
    31e6: 10 00        	<unknown>
    31e8: a5 11        	<unknown>
		...
    31fe: 10 00        	<unknown>
    3200: c0 11        	<unknown>
		...
    3216: 10 00        	<unknown>
    3218: ae 11        	<unknown>
		...
    322e: 10 00        	<unknown>
    3230: cf 11 00 00  	fnmadd.s	ft3, ft0, ft0, ft0, rtz
		...
    3244: 00 00        	<unknown>
    3246: 10 00        	<unknown>
    3248: d7 11 00 00  	<unknown>
		...
    325c: 00 00        	<unknown>
    325e: 10 00        	<unknown>
    3260: 02 12        	<unknown>
		...
    3276: 10 00        	<unknown>
    3278: e0 11        	<unknown>
		...
    328e: 10 00        	<unknown>
    3290: e9 11        	<unknown>
		...
    32a6: 10 00        	<unknown>
    32a8: f1 11        	<unknown>
		...
    32be: 10 00        	<unknown>
    32c0: fa 11        	<unknown>
		...
    32d6: 10 00        	<unknown>
    32d8: 01 12        	<unknown>
		...
    32ee: 10 00        	<unknown>
    32f0: 0b 12 00 00  	<unknown>
		...
    3304: 00 00        	<unknown>
    3306: 10 00        	<unknown>
    3308: 14 12        	<unknown>
		...
    331e: 10 00        	<unknown>
    3320: 1e 12        	<unknown>
		...
    3336: 10 00        	<unknown>
    3338: 1c 12        	<unknown>
		...
    334e: 10 00        	<unknown>
    3350: 8f 12 00 00  	<unknown>
		...
    3364: 00 00        	<unknown>
    3366: 10 00        	<unknown>
    3368: 27 12 00 00  	<unknown>
		...
    337c: 00 00        	<unknown>
    337e: 10 00        	<unknown>
    3380: 25 12        	<unknown>
		...
    3396: 10 00        	<unknown>
    3398: ae 12        	<unknown>
		...
    33ae: 10 00        	<unknown>
    33b0: 31 12        	<unknown>
		...
    33c6: 10 00        	<unknown>
    33c8: 2f 12 00 00  	<unknown>
		...
    33dc: 00 00        	<unknown>
    33de: 10 00        	<unknown>
    33e0: 3b 12 00 00  	sllw	tp, zero, zero
		...
    33f4: 00 00        	<unknown>
    33f6: 10 00        	<unknown>
    33f8: 39 12        	<unknown>
		...
    340e: 10 00        	<unknown>
    3410: d6 12        	<unknown>
		...
    3426: 10 00        	<unknown>
    3428: e3 12 00 00  	bnez	zero, 0x3c2c <.symtab+0x3c2c>
		...
    343c: 00 00        	<unknown>
    343e: 10 00        	<unknown>
    3440: f1 12        	<unknown>
		...
    3456: 10 00        	<unknown>
    3458: ff 12 00 00  	<unknown>
		...
    346c: 00 00        	<unknown>
    346e: 10 00        	<unknown>
    3470: 45 12        	<unknown>
		...
    3486: 10 00        	<unknown>
    3488: 43 12 00 00  	fmadd.s	ft4, ft0, ft0, ft0, rtz
		...
    349c: 00 00        	<unknown>
    349e: 10 00        	<unknown>
    34a0: 54 12        	<unknown>
		...
    34b6: 10 00        	<unknown>
    34b8: 52 12        	<unknown>
		...
    34ce: 10 00        	<unknown>
    34d0: 64 12        	<unknown>
		...
    34e6: 10 00        	<unknown>
    34e8: 62 12        	<unknown>
		...
    34fe: 10 00        	<unknown>
    3500: 74 12        	<unknown>
		...
    3516: 10 00        	<unknown>
    3518: 72 12        	<unknown>
		...
    352e: 10 00        	<unknown>
    3530: 84 12        	<unknown>
		...
    3546: 10 00        	<unknown>
    3548: 82 12        	<unknown>
		...
    355e: 10 00        	<unknown>
    3560: 5c 13        	<unknown>
		...
    3576: 10 00        	<unknown>
    3578: 9d 12        	<unknown>
		...
    358e: 10 00        	<unknown>
    3590: 9b 12 00 00  	slliw	t0, zero, 0x0
		...
    35a4: 00 00        	<unknown>
    35a6: 10 00        	<unknown>
    35a8: 8d 12        	<unknown>
		...
    35be: 10 00        	<unknown>
    35c0: b6 12        	<unknown>
		...
    35d6: 10 00        	<unknown>
    35d8: b4 12        	<unknown>
		...
    35ee: 10 00        	<unknown>
    35f0: a5 12        	<unknown>
		...
    3606: 10 00        	<unknown>
    3608: c1 12        	<unknown>
		...
    361e: 10 00        	<unknown>
    3620: bf 12 00 00  	<unknown>
		...
    3634: 00 00        	<unknown>
    3636: 10 00        	<unknown>
    3638: cc 12        	<unknown>
		...
    364e: 10 00        	<unknown>
    3650: ca 12        	<unknown>
		...
    3666: 10 00        	<unknown>
    3668: d5 12        	<unknown>
		...
    367e: 10 00        	<unknown>
    3680: e2 12        	<unknown>
		...
    3696: 10 00        	<unknown>
    3698: f0 12        	<unknown>
		...
    36ae: 10 00        	<unknown>
    36b0: fe 12        	<unknown>
		...
    36c6: 10 00        	<unknown>
    36c8: 0e 13        	<unknown>
		...
    36de: 10 00        	<unknown>
    36e0: 0c 13        	<unknown>
		...
    36f6: 10 00        	<unknown>
    36f8: 1e 13        	<unknown>
		...
    370e: 10 00        	<unknown>
    3710: 1c 13        	<unknown>
		...
    3726: 10 00        	<unknown>
    3728: 2f 13 00 00  	<unknown>
		...
    373c: 00 00        	<unknown>
    373e: 10 00        	<unknown>
    3740: 2d 13        	<unknown>
		...
    3756: 10 00        	<unknown>
    3758: 40 13        	<unknown>
		...
    376e: 10 00        	<unknown>
    3770: 3e 13        	<unknown>
		...
    3786: 10 00        	<unknown>
    3788: 51 13        	<unknown>
		...
    379e: 10 00        	<unknown>
    37a0: 4f 13 00 00  	fnmadd.s	ft6, ft0, ft0, ft0, rtz
		...
    37b4: 00 00        	<unknown>
    37b6: 10 00        	<unknown>
    37b8: 5b 13 00 00  	<unknown>
		...
    37cc: 00 00        	<unknown>
    37ce: 10 00        	<unknown>
    37d0: 0d 16        	<unknown>
		...
    37e6: 10 00        	<unknown>
    37e8: be 15        	<unknown>
		...
    37fe: 10 00        	<unknown>
    3800: 65 13        	<unknown>
		...
    3816: 10 00        	<unknown>
    3818: c6 15        	<unknown>
		...
    382e: 10 00        	<unknown>
    3830: ce 15        	<unknown>
		...
    3846: 10 00        	<unknown>
    3848: 76 13        	<unknown>
		...
    385e: 10 00        	<unknown>
    3860: d7 15 00 00  	<unknown>
		...
    3874: 00 00        	<unknown>
    3876: 10 00        	<unknown>
    3878: 85 13        	<unknown>
		...
    388e: 10 00        	<unknown>
    3890: 8c 13        	<unknown>
		...
    38a6: 10 00        	<unknown>
    38a8: 93 13 00 00  	slli	t2, zero, 0x0
		...
    38bc: 00 00        	<unknown>
    38be: 10 00        	<unknown>
    38c0: 9b 13 00 00  	slliw	t2, zero, 0x0
		...
    38d4: 00 00        	<unknown>
    38d6: 10 00        	<unknown>
    38d8: a2 13        	<unknown>
		...
    38ee: 10 00        	<unknown>
    38f0: aa 13        	<unknown>
		...
    3906: 10 00        	<unknown>
    3908: b3 13 00 00  	sll	t2, zero, zero
		...
    391c: 00 00        	<unknown>
    391e: 10 00        	<unknown>
    3920: ba 13        	<unknown>
		...
    3936: 10 00        	<unknown>
    3938: c2 13        	<unknown>
		...
    394e: 10 00        	<unknown>
    3950: ca 13        	<unknown>
		...
    3966: 10 00        	<unknown>
    3968: d2 13        	<unknown>
		...
    397e: 10 00        	<unknown>
    3980: d9 13        	<unknown>
		...
    3996: 10 00        	<unknown>
    3998: e0 13        	<unknown>
		...
    39ae: 10 00        	<unknown>
    39b0: e8 13        	<unknown>
		...
    39c6: 10 00        	<unknown>
    39c8: ef 13 00 00  	jal	t2, 0x49c8 <.symtab+0x49c8>
		...
    39dc: 00 00        	<unknown>
    39de: 10 00        	<unknown>
    39e0: f7 13 00 00  	<unknown>
		...
    39f4: 00 00        	<unknown>
    39f6: 10 00        	<unknown>
    39f8: ff 13 00 00  	<unknown>
		...
    3a0c: 00 00        	<unknown>
    3a0e: 10 00        	<unknown>
    3a10: 39 14        	<unknown>
		...
    3a26: 10 00        	<unknown>
    3a28: 37 14 00 00  	lui	s0, 0x1
		...
    3a3c: 00 00        	<unknown>
    3a3e: 10 00        	<unknown>
    3a40: 06 14        	<unknown>
		...
    3a56: 10 00        	<unknown>
    3a58: 0e 14        	<unknown>
		...
    3a6e: 10 00        	<unknown>
    3a70: 16 14        	<unknown>
		...
    3a86: 10 00        	<unknown>
    3a88: 1c 14        	<unknown>
		...
    3a9e: 10 00        	<unknown>
    3aa0: 23 14 00 00  	sh	zero, 0x8(zero)
		...
    3ab4: 00 00        	<unknown>
    3ab6: 10 00        	<unknown>
    3ab8: 43 14 00 00  	fmadd.s	fs0, ft0, ft0, ft0, rtz
		...
    3acc: 00 00        	<unknown>
    3ace: 10 00        	<unknown>
    3ad0: b2 0c        	<unknown>
		...
    3ae6: 10 00        	<unknown>
    3ae8: 4a 14        	<unknown>
		...
    3afe: 10 00        	<unknown>
    3b00: 51 14        	<unknown>
		...
    3b16: 10 00        	<unknown>
    3b18: 58 14        	<unknown>
		...
    3b2e: 10 00        	<unknown>
    3b30: 5f 14 00 00  	<unknown>
		...
    3b44: 00 00        	<unknown>
    3b46: 10 00        	<unknown>
    3b48: 66 14        	<unknown>
		...
    3b5e: 10 00        	<unknown>
    3b60: 6d 14        	<unknown>
		...
    3b76: 10 00        	<unknown>
    3b78: d1 14        	<unknown>
		...
    3b8e: 10 00        	<unknown>
    3b90: 73 14 00 00  	csrrw	s0, 0x0, zero
		...
    3ba4: 00 00        	<unknown>
    3ba6: 10 00        	<unknown>
    3ba8: 7c 14        	<unknown>
		...
    3bbe: 10 00        	<unknown>
    3bc0: 4b 14 00 00  	fnmsub.s	fs0, ft0, ft0, ft0, rtz
		...
    3bd4: 00 00        	<unknown>
    3bd6: 10 00        	<unknown>
    3bd8: 84 14        	<unknown>
		...
    3bee: 10 00        	<unknown>
    3bf0: 8d 14        	<unknown>
		...
    3c06: 10 00        	<unknown>
    3c08: 94 14        	<unknown>
		...
    3c1e: 10 00        	<unknown>
    3c20: 9c 14        	<unknown>
		...
    3c36: 10 00        	<unknown>
    3c38: a4 14        	<unknown>
		...
    3c4e: 10 00        	<unknown>
    3c50: 60 14        	<unknown>
		...
    3c66: 10 00        	<unknown>
    3c68: ae 14        	<unknown>
		...
    3c7e: 10 00        	<unknown>
    3c80: ed 14        	<unknown>
		...
    3c96: 10 00        	<unknown>
    3c98: b7 14 00 00  	lui	s1, 0x1
		...
    3cac: 00 00        	<unknown>
    3cae: 10 00        	<unknown>
    3cb0: c0 14        	<unknown>
		...
    3cc6: 10 00        	<unknown>
    3cc8: c8 14        	<unknown>
		...
    3cde: 10 00        	<unknown>
    3ce0: d0 14        	<unknown>
		...
    3cf6: 10 00        	<unknown>
    3cf8: da 14        	<unknown>
		...
    3d0e: 10 00        	<unknown>
    3d10: e3 14 00 00  	bnez	zero, 0x4518 <.symtab+0x4518>
		...
    3d24: 00 00        	<unknown>
    3d26: 10 00        	<unknown>
    3d28: ec 14        	<unknown>
		...
    3d3e: 10 00        	<unknown>
    3d40: f6 14        	<unknown>
		...
    3d56: 10 00        	<unknown>
    3d58: ff 14 00 00  	<unknown>
		...
    3d6c: 00 00        	<unknown>
    3d6e: 10 00        	<unknown>
    3d70: 08 15        	<unknown>
		...
    3d86: 10 00        	<unknown>
    3d88: 11 15        	<unknown>
		...
    3d9e: 10 00        	<unknown>
    3da0: 1a 15        	<unknown>
		...
    3db6: 10 00        	<unknown>
    3db8: 22 15        	<unknown>
		...
    3dce: 10 00        	<unknown>
    3dd0: 2a 15        	<unknown>
		...
    3de6: 10 00        	<unknown>
    3de8: 31 15        	<unknown>
		...
    3dfe: 10 00        	<unknown>
    3e00: 38 15        	<unknown>
		...
    3e16: 10 00        	<unknown>
    3e18: 40 15        	<unknown>
		...
    3e2e: 10 00        	<unknown>
    3e30: 47 15 00 00  	fmsub.s	fa0, ft0, ft0, ft0, rtz
		...
    3e44: 00 00        	<unknown>
    3e46: 10 00        	<unknown>
    3e48: 4f 15 00 00  	fnmadd.s	fa0, ft0, ft0, ft0, rtz
		...
    3e5c: 00 00        	<unknown>
    3e5e: 10 00        	<unknown>
    3e60: 58 15        	<unknown>
		...
    3e76: 10 00        	<unknown>
    3e78: 5b 15 00 00  	<unknown>
		...
    3e8c: 00 00        	<unknown>
    3e8e: 10 00        	<unknown>
    3e90: 62 15        	<unknown>
		...
    3ea6: 10 00        	<unknown>
    3ea8: 6a 15        	<unknown>
		...
    3ebe: 10 00        	<unknown>
    3ec0: 72 15        	<unknown>
		...
    3ed6: 10 00        	<unknown>
    3ed8: 7a 15        	<unknown>
		...
    3eee: 10 00        	<unknown>
    3ef0: 84 15        	<unknown>
		...
    3f06: 10 00        	<unknown>
    3f08: 8b 15 00 00  	<unknown>
		...
    3f1c: 00 00        	<unknown>
    3f1e: 10 00        	<unknown>
    3f20: 92 15        	<unknown>
		...
    3f36: 10 00        	<unknown>
    3f38: 99 15        	<unknown>
		...
    3f4e: 10 00        	<unknown>
    3f50: a0 15        	<unknown>
		...
    3f66: 10 00        	<unknown>
    3f68: a7 15 00 00  	<unknown>
		...
    3f7c: 00 00        	<unknown>
    3f7e: 10 00        	<unknown>
    3f80: af 15 00 00  	<unknown>
		...
    3f94: 00 00        	<unknown>
    3f96: 10 00        	<unknown>
    3f98: b7 15 00 00  	lui	a1, 0x1
		...
    3fac: 00 00        	<unknown>
    3fae: 10 00        	<unknown>
    3fb0: bd 15        	<unknown>
		...
    3fc6: 10 00        	<unknown>
    3fc8: c5 15        	<unknown>
		...
    3fde: 10 00        	<unknown>
    3fe0: cd 15        	<unknown>
		...
    3ff6: 10 00        	<unknown>
    3ff8: d6 15        	<unknown>
		...
    400e: 10 00        	<unknown>
    4010: d2 14        	<unknown>
		...
    4026: 10 00        	<unknown>
    4028: de 15        	<unknown>
		...
    403e: 10 00        	<unknown>
    4040: e7 15 00 00  	<unknown>
		...
    4054: 00 00        	<unknown>
    4056: 10 00        	<unknown>
    4058: ee 15        	<unknown>
		...
    406e: 10 00        	<unknown>
    4070: f5 15        	<unknown>
		...
    4086: 10 00        	<unknown>
    4088: fd 15        	<unknown>
		...
    409e: 10 00        	<unknown>
    40a0: 05 16        	<unknown>
		...
    40b6: 10 00        	<unknown>
    40b8: 0c 16        	<unknown>
		...
    40ce: 10 00        	<unknown>
    40d0: 14 16        	<unknown>
		...
    40e6: 10 00        	<unknown>
    40e8: 1c 16        	<unknown>
		...
    40fe: 10 00        	<unknown>
    4100: 24 16        	<unknown>
		...
    4116: 10 00        	<unknown>
    4118: 2d 16        	<unknown>
		...
    412e: 10 00        	<unknown>
    4130: 33 16 00 00  	sll	a2, zero, zero
		...
    4144: 00 00        	<unknown>
    4146: 10 00        	<unknown>
    4148: 3d 16        	<unknown>
		...
    415e: 10 00        	<unknown>
    4160: 48 16        	<unknown>
		...
    4176: 10 00        	<unknown>
    4178: 50 16        	<unknown>
		...
    418e: 10 00        	<unknown>
    4190: 58 16        	<unknown>
		...
    41a6: 10 00        	<unknown>
    41a8: 60 16        	<unknown>
		...
    41be: 10 00        	<unknown>
    41c0: 68 16        	<unknown>
		...
    41d6: 10 00        	<unknown>
    41d8: 70 16        	<unknown>
		...
    41ee: 10 00        	<unknown>
    41f0: 78 16        	<unknown>
		...
    4206: 10 00        	<unknown>
    4208: 80 16        	<unknown>
		...
    421e: 10 00        	<unknown>
    4220: 88 16        	<unknown>
		...
    4236: 10 00        	<unknown>
    4238: 90 16        	<unknown>
		...
    424e: 10 00        	<unknown>
    4250: 98 16        	<unknown>
		...
    4266: 10 00        	<unknown>
    4268: a1 16        	<unknown>
		...
    427e: 10 00        	<unknown>
    4280: a9 16        	<unknown>
		...
    4296: 10 00        	<unknown>
    4298: b1 16        	<unknown>
		...
    42ae: 10 00        	<unknown>
    42b0: b9 16        	<unknown>
		...
    42c6: 10 00        	<unknown>
    42c8: 64 17        	<unknown>
		...
    42de: 10 00        	<unknown>
    42e0: 6e 17        	<unknown>
		...
    42f6: 10 00        	<unknown>
    42f8: 77 17 00 00  	<unknown>
		...
    430c: 00 00        	<unknown>
    430e: 10 00        	<unknown>
    4310: 80 17        	<unknown>
		...
    4326: 10 00        	<unknown>
    4328: 89 17        	<unknown>
		...
    433e: 10 00        	<unknown>
    4340: 92 17        	<unknown>
		...
    4356: 10 00        	<unknown>
    4358: 9b 17 00 00  	slliw	a5, zero, 0x0
		...
    436c: 00 00        	<unknown>
    436e: 10 00        	<unknown>
    4370: a4 17        	<unknown>
		...
    4386: 10 00        	<unknown>
    4388: ad 17        	<unknown>
		...
    439e: 10 00        	<unknown>
    43a0: b6 17        	<unknown>
		...
    43b6: 10 00        	<unknown>
    43b8: bf 17 00 00  	<unknown>
		...
    43cc: 00 00        	<unknown>
    43ce: 10 00        	<unknown>
    43d0: c8 17        	<unknown>
		...
    43e6: 10 00        	<unknown>
    43e8: d1 17        	<unknown>
		...
    43fe: 10 00        	<unknown>
    4400: da 17        	<unknown>
		...
    4416: 10 00        	<unknown>
    4418: e3 17 00 00  	bnez	zero, 0x4c26 <.symtab+0x4c26>
		...
    442c: 00 00        	<unknown>
    442e: 10 00        	<unknown>
    4430: ed 17        	<unknown>
		...
    4446: 10 00        	<unknown>
    4448: f7 17 00 00  	<unknown>
		...
    445c: 00 00        	<unknown>
    445e: 10 00        	<unknown>
    4460: 00 18        	<unknown>
		...
    4476: 10 00        	<unknown>
    4478: ef 17 00 00  	jal	a5, 0x5478 <.symtab+0x5478>
		...
    448c: 00 00        	<unknown>
    448e: 10 00        	<unknown>
    4490: 9d 17        	<unknown>
		...
    44a6: 10 00        	<unknown>
    44a8: 0b 18 00 00  	<unknown>
		...
    44bc: 00 00        	<unknown>
    44be: 10 00        	<unknown>
    44c0: 09 18        	<unknown>
		...
    44d6: 10 00        	<unknown>
    44d8: 15 18        	<unknown>
		...
    44ee: 10 00        	<unknown>
    44f0: 13 18 00 00  	slli	a6, zero, 0x0
		...
    4504: 00 00        	<unknown>
    4506: 10 00        	<unknown>
    4508: 1c 18        	<unknown>
		...
    451e: 10 00        	<unknown>
    4520: 22 18        	<unknown>
		...
    4536: 10 00        	<unknown>
    4538: 2b 18 00 00  	<unknown>
		...
    454c: 00 00        	<unknown>
    454e: 10 00        	<unknown>
    4550: 35 18        	<unknown>
		...
    4566: 10 00        	<unknown>
    4568: 32 18        	<unknown>
		...
    457e: 10 00        	<unknown>
    4580: 34 18        	<unknown>
		...
    4596: 10 00        	<unknown>
    4598: 3a 18        	<unknown>
		...
    45ae: 10 00        	<unknown>
    45b0: 41 18        	<unknown>
		...
    45c6: 10 00        	<unknown>
    45c8: 4b 18 00 00  	fnmsub.s	fa6, ft0, ft0, ft0, rtz
		...
    45d8: 7f 00 00 00  	<unknown>
    45dc: 00 00        	<unknown>
    45de: 10 00        	<unknown>
		...
    45f0: 9c 00        	<unknown>
    45f2: 00 00        	<unknown>
    45f4: 00 00        	<unknown>
    45f6: 0a 00        	<unknown>
    45f8: 67 00 00 00  	jr	zero <.symtab>
		...
    4608: a1 00        	<unknown>
    460a: 00 00        	<unknown>
    460c: 00 00        	<unknown>
    460e: 0a 00        	<unknown>
    4610: 68 00        	<unknown>
		...
    461e: 00 00        	<unknown>
    4620: a6 00        	<unknown>
    4622: 00 00        	<unknown>
    4624: 00 00        	<unknown>
    4626: 0b 00 43 00  	<unknown>
		...
    463e: 0f 00 00 00  	fence	0, 0
		...
    464e: 00 00        	<unknown>
    4650: ab 00 00 00  	vx_tex	ra, zero, zero, zero
    4654: 00 00        	<unknown>
    4656: 0f 00 00 00  	fence	0, 0
		...
    4666: 00 00        	<unknown>
    4668: b0 00        	<unknown>
    466a: 00 00        	<unknown>
    466c: 00 00        	<unknown>
    466e: 0e 00        	<unknown>
		...
    4680: e6 00        	<unknown>
    4682: 00 00        	<unknown>
    4684: 04 00        	<unknown>
    4686: f1 ff        	<unknown>
		...
    4698: 0e 00        	<unknown>
    469a: 00 00        	<unknown>
    469c: 00 00        	<unknown>
    469e: 02 00        	<unknown>
    46a0: 6c 04        	<unknown>
    46a2: 00 80        	<unknown>
		...
    46b0: 0e 00        	<unknown>
    46b2: 00 00        	<unknown>
    46b4: 00 00        	<unknown>
    46b6: 02 00        	<unknown>
    46b8: b0 04        	<unknown>
    46ba: 00 80        	<unknown>
		...
    46c8: 0e 00        	<unknown>
    46ca: 00 00        	<unknown>
    46cc: 00 00        	<unknown>
    46ce: 02 00        	<unknown>
    46d0: 44 05        	<unknown>
    46d2: 00 80        	<unknown>
		...
    46e0: f4 00        	<unknown>
    46e2: 00 00        	<unknown>
    46e4: 04 00        	<unknown>
    46e6: f1 ff        	<unknown>
		...
    46f8: 0e 00        	<unknown>
    46fa: 00 00        	<unknown>
    46fc: 00 00        	<unknown>
    46fe: 02 00        	<unknown>
    4700: a0 05        	<unknown>
    4702: 00 80        	<unknown>
		...
    4710: 01 01        	<unknown>
    4712: 00 00        	<unknown>
    4714: 04 00        	<unknown>
    4716: f1 ff        	<unknown>
		...
    4728: 0c 01        	<unknown>
    472a: 00 00        	<unknown>
    472c: 02 00        	<unknown>
    472e: 02 00        	<unknown>
    4730: b8 05        	<unknown>
    4732: 00 80        	<unknown>
    4734: 00 00        	<unknown>
    4736: 00 00        	<unknown>
    4738: 34 00        	<unknown>
    473a: 00 00        	<unknown>
    473c: 00 00        	<unknown>
    473e: 00 00        	<unknown>
    4740: 0e 00        	<unknown>
    4742: 00 00        	<unknown>
    4744: 00 00        	<unknown>
    4746: 02 00        	<unknown>
    4748: b8 05        	<unknown>
    474a: 00 80        	<unknown>
		...
    4758: 0e 00        	<unknown>
    475a: 00 00        	<unknown>
    475c: 00 00        	<unknown>
    475e: 02 00        	<unknown>
    4760: ec 05        	<unknown>
    4762: 00 80        	<unknown>
		...
    4770: 19 01        	<unknown>
    4772: 00 00        	<unknown>
    4774: 04 00        	<unknown>
    4776: f1 ff        	<unknown>
		...
    4788: 24 01        	<unknown>
    478a: 00 00        	<unknown>
    478c: 02 00        	<unknown>
    478e: 02 00        	<unknown>
    4790: 4c 06        	<unknown>
    4792: 00 80        	<unknown>
    4794: 00 00        	<unknown>
    4796: 00 00        	<unknown>
    4798: 20 01        	<unknown>
    479a: 00 00        	<unknown>
    479c: 00 00        	<unknown>
    479e: 00 00        	<unknown>
    47a0: 0e 00        	<unknown>
    47a2: 00 00        	<unknown>
    47a4: 00 00        	<unknown>
    47a6: 02 00        	<unknown>
    47a8: 4c 06        	<unknown>
    47aa: 00 80        	<unknown>
		...
    47b8: 34 01        	<unknown>
    47ba: 00 00        	<unknown>
    47bc: 02 00        	<unknown>
    47be: 02 00        	<unknown>
    47c0: 6c 07        	<unknown>
    47c2: 00 80        	<unknown>
    47c4: 00 00        	<unknown>
    47c6: 00 00        	<unknown>
    47c8: 5c 00        	<unknown>
    47ca: 00 00        	<unknown>
    47cc: 00 00        	<unknown>
    47ce: 00 00        	<unknown>
    47d0: 0e 00        	<unknown>
    47d2: 00 00        	<unknown>
    47d4: 00 00        	<unknown>
    47d6: 02 00        	<unknown>
    47d8: 6c 07        	<unknown>
    47da: 00 80        	<unknown>
		...
    47e8: 4e 01        	<unknown>
    47ea: 00 00        	<unknown>
    47ec: 02 00        	<unknown>
    47ee: 02 00        	<unknown>
    47f0: c8 07        	<unknown>
    47f2: 00 80        	<unknown>
    47f4: 00 00        	<unknown>
    47f6: 00 00        	<unknown>
    47f8: 24 00        	<unknown>
    47fa: 00 00        	<unknown>
    47fc: 00 00        	<unknown>
    47fe: 00 00        	<unknown>
    4800: 0e 00        	<unknown>
    4802: 00 00        	<unknown>
    4804: 00 00        	<unknown>
    4806: 02 00        	<unknown>
    4808: c8 07        	<unknown>
    480a: 00 80        	<unknown>
		...
    4818: 63 01 00 00  	beqz	zero, 0x481a <.symtab+0x481a>
    481c: 02 00        	<unknown>
    481e: 02 00        	<unknown>
    4820: ec 07        	<unknown>
    4822: 00 80        	<unknown>
    4824: 00 00        	<unknown>
    4826: 00 00        	<unknown>
    4828: 58 01        	<unknown>
    482a: 00 00        	<unknown>
    482c: 00 00        	<unknown>
    482e: 00 00        	<unknown>
    4830: 0e 00        	<unknown>
    4832: 00 00        	<unknown>
    4834: 00 00        	<unknown>
    4836: 02 00        	<unknown>
    4838: ec 07        	<unknown>
    483a: 00 80        	<unknown>
		...
    4848: 79 01        	<unknown>
    484a: 00 00        	<unknown>
    484c: 02 00        	<unknown>
    484e: 02 00        	<unknown>
    4850: 44 09        	<unknown>
    4852: 00 80        	<unknown>
    4854: 00 00        	<unknown>
    4856: 00 00        	<unknown>
    4858: 50 00        	<unknown>
    485a: 00 00        	<unknown>
    485c: 00 00        	<unknown>
    485e: 00 00        	<unknown>
    4860: 0e 00        	<unknown>
    4862: 00 00        	<unknown>
    4864: 00 00        	<unknown>
    4866: 02 00        	<unknown>
    4868: 44 09        	<unknown>
    486a: 00 80        	<unknown>
		...
    4878: 0e 00        	<unknown>
    487a: 00 00        	<unknown>
    487c: 00 00        	<unknown>
    487e: 02 00        	<unknown>
    4880: 94 09        	<unknown>
    4882: 00 80        	<unknown>
		...
    4890: 94 01        	<unknown>
    4892: 00 00        	<unknown>
    4894: 04 00        	<unknown>
    4896: f1 ff        	<unknown>
		...
    48a8: 0e 00        	<unknown>
    48aa: 00 00        	<unknown>
    48ac: 00 00        	<unknown>
    48ae: 02 00        	<unknown>
    48b0: 18 0e        	<unknown>
    48b2: 00 80        	<unknown>
		...
    48c0: a2 01        	<unknown>
    48c2: 00 00        	<unknown>
    48c4: 00 00        	<unknown>
    48c6: 02 00        	<unknown>
    48c8: 4c 0e        	<unknown>
    48ca: 00 80        	<unknown>
		...
    48d8: ad 01        	<unknown>
    48da: 00 00        	<unknown>
    48dc: 00 00        	<unknown>
    48de: 02 00        	<unknown>
    48e0: 64 0e        	<unknown>
    48e2: 00 80        	<unknown>
		...
    48f0: b8 01        	<unknown>
    48f2: 00 00        	<unknown>
    48f4: 04 00        	<unknown>
    48f6: f1 ff        	<unknown>
		...
    4908: 0e 00        	<unknown>
    490a: 00 00        	<unknown>
    490c: 00 00        	<unknown>
    490e: 02 00        	<unknown>
    4910: 94 0e        	<unknown>
    4912: 00 80        	<unknown>
		...
    4920: c2 01        	<unknown>
    4922: 00 00        	<unknown>
    4924: 04 00        	<unknown>
    4926: f1 ff        	<unknown>
		...
    4938: cf 01 00 00  	fnmadd.s	ft3, ft0, ft0, ft0, rne
    493c: 02 00        	<unknown>
    493e: 02 00        	<unknown>
    4940: a0 0f        	<unknown>
    4942: 00 80        	<unknown>
    4944: 00 00        	<unknown>
    4946: 00 00        	<unknown>
    4948: 04 00        	<unknown>
    494a: 00 00        	<unknown>
    494c: 00 00        	<unknown>
    494e: 00 00        	<unknown>
    4950: 0e 00        	<unknown>
    4952: 00 00        	<unknown>
    4954: 00 00        	<unknown>
    4956: 02 00        	<unknown>
    4958: a0 0f        	<unknown>
    495a: 00 80        	<unknown>
		...
    4968: d9 01        	<unknown>
    496a: 00 00        	<unknown>
    496c: 02 00        	<unknown>
    496e: 02 00        	<unknown>
    4970: a4 0f        	<unknown>
    4972: 00 80        	<unknown>
    4974: 00 00        	<unknown>
    4976: 00 00        	<unknown>
    4978: 3c 01        	<unknown>
    497a: 00 00        	<unknown>
    497c: 00 00        	<unknown>
    497e: 00 00        	<unknown>
    4980: 0e 00        	<unknown>
    4982: 00 00        	<unknown>
    4984: 00 00        	<unknown>
    4986: 02 00        	<unknown>
    4988: a4 0f        	<unknown>
    498a: 00 80        	<unknown>
		...
    4998: e2 01        	<unknown>
    499a: 00 00        	<unknown>
    499c: 02 00        	<unknown>
    499e: 02 00        	<unknown>
    49a0: e0 10        	<unknown>
    49a2: 00 80        	<unknown>
    49a4: 00 00        	<unknown>
    49a6: 00 00        	<unknown>
    49a8: 0c 04        	<unknown>
    49aa: 00 00        	<unknown>
    49ac: 00 00        	<unknown>
    49ae: 00 00        	<unknown>
    49b0: 0e 00        	<unknown>
    49b2: 00 00        	<unknown>
    49b4: 00 00        	<unknown>
    49b6: 02 00        	<unknown>
    49b8: e0 10        	<unknown>
    49ba: 00 80        	<unknown>
		...
    49c8: ed 01        	<unknown>
    49ca: 00 00        	<unknown>
    49cc: 02 00        	<unknown>
    49ce: 02 00        	<unknown>
    49d0: e0 10        	<unknown>
    49d2: 00 80        	<unknown>
    49d4: 00 00        	<unknown>
    49d6: 00 00        	<unknown>
    49d8: 0c 04        	<unknown>
    49da: 00 00        	<unknown>
    49dc: 00 00        	<unknown>
    49de: 00 00        	<unknown>
    49e0: fd 01        	<unknown>
    49e2: 00 00        	<unknown>
    49e4: 02 00        	<unknown>
    49e6: 02 00        	<unknown>
    49e8: ec 14        	<unknown>
    49ea: 00 80        	<unknown>
    49ec: 00 00        	<unknown>
    49ee: 00 00        	<unknown>
    49f0: 0c 00        	<unknown>
    49f2: 00 00        	<unknown>
    49f4: 00 00        	<unknown>
    49f6: 00 00        	<unknown>
    49f8: 0e 00        	<unknown>
    49fa: 00 00        	<unknown>
    49fc: 00 00        	<unknown>
    49fe: 02 00        	<unknown>
    4a00: ec 14        	<unknown>
    4a02: 00 80        	<unknown>
		...
    4a10: 07 02 00 00  	<unknown>
    4a14: 02 00        	<unknown>
    4a16: 02 00        	<unknown>
    4a18: f8 14        	<unknown>
    4a1a: 00 80        	<unknown>
    4a1c: 00 00        	<unknown>
    4a1e: 00 00        	<unknown>
    4a20: 50 04        	<unknown>
    4a22: 00 00        	<unknown>
    4a24: 00 00        	<unknown>
    4a26: 00 00        	<unknown>
    4a28: 0e 00        	<unknown>
    4a2a: 00 00        	<unknown>
    4a2c: 00 00        	<unknown>
    4a2e: 02 00        	<unknown>
    4a30: f8 14        	<unknown>
    4a32: 00 80        	<unknown>
		...
    4a40: 0d 02        	<unknown>
    4a42: 00 00        	<unknown>
    4a44: 02 00        	<unknown>
    4a46: 02 00        	<unknown>
    4a48: 48 19        	<unknown>
    4a4a: 00 80        	<unknown>
    4a4c: 00 00        	<unknown>
    4a4e: 00 00        	<unknown>
    4a50: a0 03        	<unknown>
    4a52: 00 00        	<unknown>
    4a54: 00 00        	<unknown>
    4a56: 00 00        	<unknown>
    4a58: 13 02 00 00  	li	tp, 0x0
    4a5c: 01 00        	<unknown>
    4a5e: 03 00 e8 30  	lb	zero, 0x30e(a6)
    4a62: 00 80        	<unknown>
    4a64: 00 00        	<unknown>
    4a66: 00 00        	<unknown>
    4a68: 50 00        	<unknown>
    4a6a: 00 00        	<unknown>
    4a6c: 00 00        	<unknown>
    4a6e: 00 00        	<unknown>
    4a70: 0e 00        	<unknown>
    4a72: 00 00        	<unknown>
    4a74: 00 00        	<unknown>
    4a76: 02 00        	<unknown>
    4a78: 48 19        	<unknown>
    4a7a: 00 80        	<unknown>
		...
    4a88: 1b 02 00 00  	sext.w	tp, zero
    4a8c: 02 00        	<unknown>
    4a8e: 02 00        	<unknown>
    4a90: e8 1c        	<unknown>
    4a92: 00 80        	<unknown>
    4a94: 00 00        	<unknown>
    4a96: 00 00        	<unknown>
    4a98: 2c 0a        	<unknown>
    4a9a: 00 00        	<unknown>
    4a9c: 00 00        	<unknown>
    4a9e: 00 00        	<unknown>
    4aa0: 0e 00        	<unknown>
    4aa2: 00 00        	<unknown>
    4aa4: 00 00        	<unknown>
    4aa6: 02 00        	<unknown>
    4aa8: e8 1c        	<unknown>
    4aaa: 00 80        	<unknown>
		...
    4ab8: 0e 00        	<unknown>
    4aba: 00 00        	<unknown>
    4abc: 00 00        	<unknown>
    4abe: 02 00        	<unknown>
    4ac0: 14 27        	<unknown>
    4ac2: 00 80        	<unknown>
		...
    4ad0: 26 02        	<unknown>
    4ad2: 00 00        	<unknown>
    4ad4: 04 00        	<unknown>
    4ad6: f1 ff        	<unknown>
		...
    4ae8: 6b 00 00 00  	<unknown>
    4aec: 00 00        	<unknown>
    4aee: 02 00        	<unknown>
    4af0: ac 27        	<unknown>
    4af2: 00 80        	<unknown>
		...
    4b00: 2f 02 00 00  	<unknown>
    4b04: 00 00        	<unknown>
    4b06: 0a 00        	<unknown>
    4b08: 67 00 00 00  	jr	zero <.symtab>
		...
    4b18: e1 00        	<unknown>
    4b1a: 00 00        	<unknown>
    4b1c: 00 00        	<unknown>
    4b1e: 0b 00 24 03  	<unknown>
		...
    4b2e: 00 00        	<unknown>
    4b30: 34 02        	<unknown>
    4b32: 00 00        	<unknown>
    4b34: 04 00        	<unknown>
    4b36: f1 ff        	<unknown>
		...
    4b48: 6b 00 00 00  	<unknown>
    4b4c: 00 00        	<unknown>
    4b4e: 02 00        	<unknown>
    4b50: f8 2c        	<unknown>
    4b52: 00 80        	<unknown>
		...
    4b60: 2f 02 00 00  	<unknown>
    4b64: 00 00        	<unknown>
    4b66: 0a 00        	<unknown>
    4b68: 67 00 00 00  	jr	zero <.symtab>
		...
    4b78: e1 00        	<unknown>
    4b7a: 00 00        	<unknown>
    4b7c: 00 00        	<unknown>
    4b7e: 0b 00 67 03  	<unknown>
		...
    4b8e: 00 00        	<unknown>
    4b90: 3d 02        	<unknown>
    4b92: 00 00        	<unknown>
    4b94: 04 00        	<unknown>
    4b96: f1 ff        	<unknown>
		...
    4ba8: 50 02        	<unknown>
    4baa: 00 00        	<unknown>
    4bac: 00 00        	<unknown>
    4bae: 0a 00        	<unknown>
    4bb0: 67 00 00 00  	jr	zero <.symtab>
		...
    4bc0: 56 02        	<unknown>
    4bc2: 00 00        	<unknown>
    4bc4: 00 00        	<unknown>
    4bc6: 0b 00 86 00  	<unknown>
		...
    4bd6: 00 00        	<unknown>
    4bd8: 5c 02        	<unknown>
    4bda: 00 00        	<unknown>
    4bdc: 00 00        	<unknown>
    4bde: 04 00        	<unknown>
    4be0: 98 31        	<unknown>
    4be2: 00 80        	<unknown>
		...
    4bf4: 04 00        	<unknown>
    4bf6: f1 ff        	<unknown>
		...
    4c08: 62 02        	<unknown>
    4c0a: 00 00        	<unknown>
    4c0c: 00 00        	<unknown>
    4c0e: 05 00        	<unknown>
    4c10: 98 41        	<unknown>
    4c12: 00 80        	<unknown>
		...
    4c20: 73 02 00 00  	<unknown>
    4c24: 00 00        	<unknown>
    4c26: 05 00        	<unknown>
    4c28: 98 41        	<unknown>
    4c2a: 00 80        	<unknown>
		...
    4c38: 80 02        	<unknown>
    4c3a: 00 00        	<unknown>
    4c3c: 00 00        	<unknown>
    4c3e: 05 00        	<unknown>
    4c40: 98 41        	<unknown>
    4c42: 00 80        	<unknown>
		...
    4c50: 93 02 00 00  	li	t0, 0x0
    4c54: 00 00        	<unknown>
    4c56: 04 00        	<unknown>
    4c58: 98 41        	<unknown>
    4c5a: 00 80        	<unknown>
		...
    4c68: a1 02        	<unknown>
    4c6a: 00 00        	<unknown>
    4c6c: 00 00        	<unknown>
    4c6e: 05 00        	<unknown>
    4c70: 98 41        	<unknown>
    4c72: 00 80        	<unknown>
		...
    4c80: b2 02        	<unknown>
    4c82: 00 00        	<unknown>
    4c84: 00 00        	<unknown>
    4c86: f1 ff        	<unknown>
		...
    4c98: c0 02        	<unknown>
    4c9a: 00 00        	<unknown>
    4c9c: 00 00        	<unknown>
    4c9e: 05 00        	<unknown>
    4ca0: 98 41        	<unknown>
    4ca2: 00 80        	<unknown>
		...
    4cb0: d4 02        	<unknown>
    4cb2: 00 00        	<unknown>
    4cb4: 01 00        	<unknown>
    4cb6: 06 00        	<unknown>
    4cb8: a8 41        	<unknown>
    4cba: 00 80        	<unknown>
		...
    4cc8: ea 02        	<unknown>
    4cca: 00 00        	<unknown>
    4ccc: 00 00        	<unknown>
    4cce: 05 00        	<unknown>
    4cd0: 98 41        	<unknown>
    4cd2: 00 80        	<unknown>
		...
    4ce0: fd 02        	<unknown>
    4ce2: 00 00        	<unknown>
    4ce4: 00 00        	<unknown>
    4ce6: 05 00        	<unknown>
    4ce8: 98 41        	<unknown>
    4cea: 00 80        	<unknown>
		...
    4cf8: 13 03 00 00  	li	t1, 0x0
    4cfc: 16 00        	<unknown>
    4cfe: 05 00        	<unknown>
    4d00: 20 00        	<unknown>
    4d02: 00 00        	<unknown>
    4d04: 00 00        	<unknown>
    4d06: 00 00        	<unknown>
    4d08: 0c 00        	<unknown>
    4d0a: 00 00        	<unknown>
    4d0c: 00 00        	<unknown>
    4d0e: 00 00        	<unknown>
    4d10: 1d 03        	<unknown>
    4d12: 00 00        	<unknown>
    4d14: 11 00        	<unknown>
    4d16: 08 00        	<unknown>
    4d18: 80 42        	<unknown>
    4d1a: 00 80        	<unknown>
    4d1c: 00 00        	<unknown>
    4d1e: 00 00        	<unknown>
    4d20: 04 00        	<unknown>
    4d22: 00 00        	<unknown>
    4d24: 00 00        	<unknown>
    4d26: 00 00        	<unknown>
    4d28: 29 03        	<unknown>
    4d2a: 00 00        	<unknown>
    4d2c: 16 00        	<unknown>
    4d2e: 05 00        	<unknown>
		...
    4d38: 04 00        	<unknown>
    4d3a: 00 00        	<unknown>
    4d3c: 00 00        	<unknown>
    4d3e: 00 00        	<unknown>
    4d40: 37 03 00 00  	lui	t1, 0x0
    4d44: 16 00        	<unknown>
    4d46: 05 00        	<unknown>
    4d48: 10 00        	<unknown>
    4d4a: 00 00        	<unknown>
    4d4c: 00 00        	<unknown>
    4d4e: 00 00        	<unknown>
    4d50: 04 00        	<unknown>
    4d52: 00 00        	<unknown>
    4d54: 00 00        	<unknown>
    4d56: 00 00        	<unknown>
    4d58: 43 03 00 00  	fmadd.s	ft6, ft0, ft0, ft0, rne
    4d5c: 16 00        	<unknown>
    4d5e: 05 00        	<unknown>
    4d60: 30 00        	<unknown>
    4d62: 00 00        	<unknown>
    4d64: 00 00        	<unknown>
    4d66: 00 00        	<unknown>
    4d68: 0c 00        	<unknown>
    4d6a: 00 00        	<unknown>
    4d6c: 00 00        	<unknown>
    4d6e: 00 00        	<unknown>
    4d70: 4c 03        	<unknown>
    4d72: 00 00        	<unknown>
    4d74: 10 00        	<unknown>
    4d76: 07 00 d0 41  	<unknown>
    4d7a: 00 80        	<unknown>
		...
    4d88: 5c 03        	<unknown>
    4d8a: 00 00        	<unknown>
    4d8c: 12 00        	<unknown>
    4d8e: 02 00        	<unknown>
    4d90: ac 27        	<unknown>
    4d92: 00 80        	<unknown>
    4d94: 00 00        	<unknown>
    4d96: 00 00        	<unknown>
    4d98: 4c 05        	<unknown>
    4d9a: 00 00        	<unknown>
    4d9c: 00 00        	<unknown>
    4d9e: 00 00        	<unknown>
    4da0: 63 03 00 00  	beqz	zero, 0x4da6 <.symtab+0x4da6>
    4da4: 10 00        	<unknown>
    4da6: f1 ff        	<unknown>
    4da8: 98 49        	<unknown>
    4daa: 00 80        	<unknown>
		...
    4db8: 74 03        	<unknown>
    4dba: 00 00        	<unknown>
    4dbc: 12 00        	<unknown>
    4dbe: 02 00        	<unknown>
    4dc0: 94 09        	<unknown>
    4dc2: 00 80        	<unknown>
    4dc4: 00 00        	<unknown>
    4dc6: 00 00        	<unknown>
    4dc8: 84 04        	<unknown>
    4dca: 00 00        	<unknown>
    4dcc: 00 00        	<unknown>
    4dce: 00 00        	<unknown>
    4dd0: 85 03        	<unknown>
    4dd2: 00 00        	<unknown>
    4dd4: 12 00        	<unknown>
    4dd6: 02 00        	<unknown>
    4dd8: 14 02        	<unknown>
    4dda: 00 80        	<unknown>
    4ddc: 00 00        	<unknown>
    4dde: 00 00        	<unknown>
    4de0: 94 01        	<unknown>
    4de2: 00 00        	<unknown>
    4de4: 00 00        	<unknown>
    4de6: 00 00        	<unknown>
    4de8: b5 03        	<unknown>
    4dea: 00 00        	<unknown>
    4dec: 16 00        	<unknown>
    4dee: 05 00        	<unknown>
    4df0: 0c 00        	<unknown>
    4df2: 00 00        	<unknown>
    4df4: 00 00        	<unknown>
    4df6: 00 00        	<unknown>
    4df8: 04 00        	<unknown>
    4dfa: 00 00        	<unknown>
    4dfc: 00 00        	<unknown>
    4dfe: 00 00        	<unknown>
    4e00: c1 03        	<unknown>
    4e02: 00 00        	<unknown>
    4e04: 11 00        	<unknown>
    4e06: 08 00        	<unknown>
    4e08: 84 42        	<unknown>
    4e0a: 00 80        	<unknown>
    4e0c: 00 00        	<unknown>
    4e0e: 00 00        	<unknown>
    4e10: 04 00        	<unknown>
    4e12: 00 00        	<unknown>
    4e14: 00 00        	<unknown>
    4e16: 00 00        	<unknown>
    4e18: ce 03        	<unknown>
    4e1a: 00 00        	<unknown>
    4e1c: 12 00        	<unknown>
    4e1e: 02 00        	<unknown>
    4e20: b0 04        	<unknown>
    4e22: 00 80        	<unknown>
    4e24: 00 00        	<unknown>
    4e26: 00 00        	<unknown>
    4e28: 94 00        	<unknown>
    4e2a: 00 00        	<unknown>
    4e2c: 00 00        	<unknown>
    4e2e: 00 00        	<unknown>
    4e30: e0 03        	<unknown>
    4e32: 00 00        	<unknown>
    4e34: 12 00        	<unknown>
    4e36: 02 00        	<unknown>
    4e38: ec 03        	<unknown>
    4e3a: 00 80        	<unknown>
		...
    4e48: e6 03        	<unknown>
    4e4a: 00 00        	<unknown>
    4e4c: 12 00        	<unknown>
    4e4e: 02 00        	<unknown>
    4e50: 9c 00        	<unknown>
    4e52: 00 80        	<unknown>
    4e54: 00 00        	<unknown>
    4e56: 00 00        	<unknown>
    4e58: 4c 00        	<unknown>
    4e5a: 00 00        	<unknown>
    4e5c: 00 00        	<unknown>
    4e5e: 00 00        	<unknown>
    4e60: 25 04        	<unknown>
    4e62: 00 00        	<unknown>
    4e64: 12 00        	<unknown>
    4e66: 02 00        	<unknown>
    4e68: 6c 04        	<unknown>
    4e6a: 00 80        	<unknown>
    4e6c: 00 00        	<unknown>
    4e6e: 00 00        	<unknown>
    4e70: 44 00        	<unknown>
    4e72: 00 00        	<unknown>
    4e74: 00 00        	<unknown>
    4e76: 00 00        	<unknown>
    4e78: 30 04        	<unknown>
    4e7a: 00 00        	<unknown>
    4e7c: 11 00        	<unknown>
    4e7e: 09 00        	<unknown>
    4e80: a0 42        	<unknown>
    4e82: 00 80        	<unknown>
    4e84: 00 00        	<unknown>
    4e86: 00 00        	<unknown>
    4e88: 0c 00        	<unknown>
    4e8a: 00 00        	<unknown>
    4e8c: 00 00        	<unknown>
    4e8e: 00 00        	<unknown>
    4e90: 39 04        	<unknown>
    4e92: 00 00        	<unknown>
    4e94: 11 00        	<unknown>
    4e96: 07 00 70 42  	<unknown>
    4e9a: 00 80        	<unknown>
    4e9c: 00 00        	<unknown>
    4e9e: 00 00        	<unknown>
    4ea0: 08 00        	<unknown>
    4ea2: 00 00        	<unknown>
    4ea4: 00 00        	<unknown>
    4ea6: 00 00        	<unknown>
    4ea8: 43 04 00 00  	fmadd.s	fs0, ft0, ft0, ft0, rne
    4eac: 12 00        	<unknown>
    4eae: 02 00        	<unknown>
    4eb0: 18 0e        	<unknown>
    4eb2: 00 80        	<unknown>
		...
    4ec0: 4d 04        	<unknown>
    4ec2: 00 00        	<unknown>
    4ec4: 11 00        	<unknown>
    4ec6: 08 00        	<unknown>
    4ec8: 98 42        	<unknown>
    4eca: 00 80        	<unknown>
    4ecc: 00 00        	<unknown>
    4ece: 00 00        	<unknown>
    4ed0: 04 00        	<unknown>
    4ed2: 00 00        	<unknown>
    4ed4: 00 00        	<unknown>
    4ed6: 00 00        	<unknown>
    4ed8: 5f 04 00 00  	<unknown>
    4edc: 11 00        	<unknown>
    4ede: 08 00        	<unknown>
    4ee0: 88 42        	<unknown>
    4ee2: 00 80        	<unknown>
    4ee4: 00 00        	<unknown>
    4ee6: 00 00        	<unknown>
    4ee8: 04 00        	<unknown>
    4eea: 00 00        	<unknown>
    4eec: 00 00        	<unknown>
    4eee: 00 00        	<unknown>
    4ef0: 6c 04        	<unknown>
    4ef2: 00 00        	<unknown>
    4ef4: 12 00        	<unknown>
    4ef6: 02 00        	<unknown>
    4ef8: ec 05        	<unknown>
    4efa: 00 80        	<unknown>
    4efc: 00 00        	<unknown>
    4efe: 00 00        	<unknown>
    4f00: 60 00        	<unknown>
    4f02: 00 00        	<unknown>
    4f04: 00 00        	<unknown>
    4f06: 00 00        	<unknown>
    4f08: 76 04        	<unknown>
    4f0a: 00 00        	<unknown>
    4f0c: 12 02        	<unknown>
    4f0e: 02 00        	<unknown>
    4f10: 44 05        	<unknown>
    4f12: 00 80        	<unknown>
    4f14: 00 00        	<unknown>
    4f16: 00 00        	<unknown>
    4f18: 5c 00        	<unknown>
    4f1a: 00 00        	<unknown>
    4f1c: 00 00        	<unknown>
    4f1e: 00 00        	<unknown>
    4f20: 86 04        	<unknown>
    4f22: 00 00        	<unknown>
    4f24: 10 00        	<unknown>
    4f26: f1 ff        	<unknown>
		...
    4f38: 93 04 00 00  	li	s1, 0x0
    4f3c: 10 00        	<unknown>
    4f3e: f1 ff        	<unknown>
    4f40: 40 00        	<unknown>
		...
    4f4e: 00 00        	<unknown>
    4f50: 9f 04 00 00  	<unknown>
    4f54: 22 00        	<unknown>
    4f56: 02 00        	<unknown>
    4f58: 94 00        	<unknown>
    4f5a: 00 80        	<unknown>
    4f5c: 00 00        	<unknown>
    4f5e: 00 00        	<unknown>
    4f60: 08 00        	<unknown>
    4f62: 00 00        	<unknown>
    4f64: 00 00        	<unknown>
    4f66: 00 00        	<unknown>
    4f68: 9a 02        	<unknown>
    4f6a: 00 00        	<unknown>
    4f6c: 12 00        	<unknown>
    4f6e: 01 00        	<unknown>
    4f70: 00 00        	<unknown>
    4f72: 00 80        	<unknown>
    4f74: 00 00        	<unknown>
    4f76: 00 00        	<unknown>
    4f78: 70 00        	<unknown>
    4f7a: 00 00        	<unknown>
    4f7c: 00 00        	<unknown>
    4f7e: 00 00        	<unknown>
    4f80: aa 04        	<unknown>
    4f82: 00 00        	<unknown>
    4f84: 11 00        	<unknown>
    4f86: 09 00        	<unknown>
    4f88: b0 42        	<unknown>
    4f8a: 00 80        	<unknown>
    4f8c: 00 00        	<unknown>
    4f8e: 00 00        	<unknown>
    4f90: 0c 00        	<unknown>
    4f92: 00 00        	<unknown>
    4f94: 00 00        	<unknown>
    4f96: 00 00        	<unknown>
    4f98: b2 04        	<unknown>
    4f9a: 00 00        	<unknown>
    4f9c: 10 00        	<unknown>
    4f9e: 09 00        	<unknown>
    4fa0: c0 42        	<unknown>
    4fa2: 00 80        	<unknown>
		...
    4fb0: be 04        	<unknown>
    4fb2: 00 00        	<unknown>
    4fb4: 11 00        	<unknown>
    4fb6: 08 00        	<unknown>
    4fb8: 78 42        	<unknown>
    4fba: 00 80        	<unknown>
    4fbc: 00 00        	<unknown>
    4fbe: 00 00        	<unknown>
    4fc0: 04 00        	<unknown>
    4fc2: 00 00        	<unknown>
    4fc4: 00 00        	<unknown>
    4fc6: 00 00        	<unknown>
    4fc8: ca 04        	<unknown>
    4fca: 00 00        	<unknown>
    4fcc: 10 00        	<unknown>
    4fce: 08 00        	<unknown>
    4fd0: 78 42        	<unknown>
    4fd2: 00 80        	<unknown>
		...
    4fe0: d6 04        	<unknown>
    4fe2: 00 00        	<unknown>
    4fe4: 12 00        	<unknown>
    4fe6: 02 00        	<unknown>
    4fe8: f8 2c        	<unknown>
    4fea: 00 80        	<unknown>
    4fec: 00 00        	<unknown>
    4fee: 00 00        	<unknown>
    4ff0: bc 01        	<unknown>
    4ff2: 00 00        	<unknown>
    4ff4: 00 00        	<unknown>
    4ff6: 00 00        	<unknown>
    4ff8: dd 04        	<unknown>
    4ffa: 00 00        	<unknown>
    4ffc: 12 00        	<unknown>
    4ffe: 02 00        	<unknown>
    5000: e8 00        	<unknown>
    5002: 00 80        	<unknown>
    5004: 00 00        	<unknown>
    5006: 00 00        	<unknown>
    5008: 2c 01        	<unknown>
    500a: 00 00        	<unknown>
    500c: 00 00        	<unknown>
    500e: 00 00        	<unknown>
    5010: e2 04        	<unknown>
    5012: 00 00        	<unknown>
    5014: 22 00        	<unknown>
    5016: 02 00        	<unknown>
    5018: 44 27        	<unknown>
    501a: 00 80        	<unknown>
    501c: 00 00        	<unknown>
    501e: 00 00        	<unknown>
    5020: 04 00        	<unknown>
    5022: 00 00        	<unknown>
    5024: 00 00        	<unknown>
    5026: 00 00        	<unknown>
    5028: ef 04 00 00  	jal	s1, 0x5028 <.symtab+0x5028>
    502c: 16 00        	<unknown>
    502e: 05 00        	<unknown>
    5030: 14 00        	<unknown>
    5032: 00 00        	<unknown>
    5034: 00 00        	<unknown>
    5036: 00 00        	<unknown>
    5038: 04 00        	<unknown>
    503a: 00 00        	<unknown>
    503c: 00 00        	<unknown>
    503e: 00 00        	<unknown>
    5040: fb 04 00 00  	<unknown>
    5044: 16 00        	<unknown>
    5046: 05 00        	<unknown>
    5048: 18 00        	<unknown>
    504a: 00 00        	<unknown>
    504c: 00 00        	<unknown>
    504e: 00 00        	<unknown>
    5050: 04 00        	<unknown>
    5052: 00 00        	<unknown>
    5054: 00 00        	<unknown>
    5056: 00 00        	<unknown>
    5058: 68 05        	<unknown>
    505a: 00 00        	<unknown>
    505c: 22 00        	<unknown>
    505e: 02 00        	<unknown>
    5060: 44 27        	<unknown>
    5062: 00 80        	<unknown>
    5064: 00 00        	<unknown>
    5066: 00 00        	<unknown>
    5068: 04 00        	<unknown>
    506a: 00 00        	<unknown>
    506c: 00 00        	<unknown>
    506e: 00 00        	<unknown>
    5070: 0c 05        	<unknown>
    5072: 00 00        	<unknown>
    5074: 11 00        	<unknown>
    5076: 08 00        	<unknown>
    5078: 90 42        	<unknown>
    507a: 00 80        	<unknown>
    507c: 00 00        	<unknown>
    507e: 00 00        	<unknown>
    5080: 04 00        	<unknown>
    5082: 00 00        	<unknown>
    5084: 00 00        	<unknown>
    5086: 00 00        	<unknown>
    5088: 17 05 00 00  	auipc	a0, 0x0
    508c: 16 00        	<unknown>
    508e: 05 00        	<unknown>
    5090: 08 00        	<unknown>
    5092: 00 00        	<unknown>
    5094: 00 00        	<unknown>
    5096: 00 00        	<unknown>
    5098: 04 00        	<unknown>
    509a: 00 00        	<unknown>
    509c: 00 00        	<unknown>
    509e: 00 00        	<unknown>
    50a0: 25 05        	<unknown>
    50a2: 00 00        	<unknown>
    50a4: 11 00        	<unknown>
    50a6: 08 00        	<unknown>
    50a8: 7c 42        	<unknown>
    50aa: 00 80        	<unknown>
    50ac: 00 00        	<unknown>
    50ae: 00 00        	<unknown>
    50b0: 04 00        	<unknown>
    50b2: 00 00        	<unknown>
    50b4: 00 00        	<unknown>
    50b6: 00 00        	<unknown>
    50b8: 31 05        	<unknown>
    50ba: 00 00        	<unknown>
    50bc: 16 00        	<unknown>
    50be: 05 00        	<unknown>
    50c0: 04 00        	<unknown>
    50c2: 00 00        	<unknown>
    50c4: 00 00        	<unknown>
    50c6: 00 00        	<unknown>
    50c8: 04 00        	<unknown>
    50ca: 00 00        	<unknown>
    50cc: 00 00        	<unknown>
    50ce: 00 00        	<unknown>
    50d0: 3f 05 00 00  	<unknown>
    50d4: 10 00        	<unknown>
    50d6: f1 ff        	<unknown>
    50d8: 00 00        	<unknown>
    50da: 00 80        	<unknown>
		...
    50e8: 4c 05        	<unknown>
    50ea: 00 00        	<unknown>
    50ec: 11 00        	<unknown>
    50ee: 07 00 68 42  	<unknown>
    50f2: 00 80        	<unknown>
    50f4: 00 00        	<unknown>
    50f6: 00 00        	<unknown>
    50f8: 08 00        	<unknown>
    50fa: 00 00        	<unknown>
    50fc: 00 00        	<unknown>
    50fe: 00 00        	<unknown>
    5100: 5d 05        	<unknown>
    5102: 00 00        	<unknown>
    5104: 22 02        	<unknown>
    5106: 02 00        	<unknown>
    5108: 48 27        	<unknown>
    510a: 00 80        	<unknown>
    510c: 00 00        	<unknown>
    510e: 00 00        	<unknown>
    5110: 64 00        	<unknown>
    5112: 00 00        	<unknown>
    5114: 00 00        	<unknown>
    5116: 00 00        	<unknown>
    5118: 6e 05        	<unknown>
    511a: 00 00        	<unknown>
    511c: 10 00        	<unknown>
    511e: 05 00        	<unknown>
    5120: 98 41        	<unknown>
    5122: 00 80        	<unknown>
		...
    5130: 7d 05        	<unknown>
    5132: 00 00        	<unknown>
    5134: 10 00        	<unknown>
    5136: 07 00 78 42  	<unknown>
    513a: 00 80        	<unknown>
		...
    5148: 6e 02        	<unknown>
    514a: 00 00        	<unknown>
    514c: 10 00        	<unknown>
    514e: 09 00        	<unknown>
    5150: c0 42        	<unknown>
    5152: 00 80        	<unknown>
		...
    5160: 81 04        	<unknown>
    5162: 00 00        	<unknown>
    5164: 12 00        	<unknown>
    5166: 02 00        	<unknown>
    5168: 70 00        	<unknown>
    516a: 00 80        	<unknown>
    516c: 00 00        	<unknown>
    516e: 00 00        	<unknown>
    5170: 24 00        	<unknown>
    5172: 00 00        	<unknown>
    5174: 00 00        	<unknown>
    5176: 00 00        	<unknown>
    5178: 84 05        	<unknown>
    517a: 00 00        	<unknown>
    517c: 12 00        	<unknown>
    517e: 02 00        	<unknown>
    5180: 94 0e        	<unknown>
    5182: 00 80        	<unknown>
    5184: 00 00        	<unknown>
    5186: 00 00        	<unknown>
    5188: 0c 01        	<unknown>
    518a: 00 00        	<unknown>
    518c: 00 00        	<unknown>
    518e: 00 00        	<unknown>
    5190: 91 05        	<unknown>
    5192: 00 00        	<unknown>
    5194: 11 00        	<unknown>
    5196: 08 00        	<unknown>
    5198: 94 42        	<unknown>
    519a: 00 80        	<unknown>
    519c: 00 00        	<unknown>
    519e: 00 00        	<unknown>
    51a0: 04 00        	<unknown>
    51a2: 00 00        	<unknown>
    51a4: 00 00        	<unknown>
    51a6: 00 00        	<unknown>
    51a8: a5 05        	<unknown>
    51aa: 00 00        	<unknown>
    51ac: 12 00        	<unknown>
    51ae: 02 00        	<unknown>
    51b0: a8 03        	<unknown>
    51b2: 00 80        	<unknown>
    51b4: 00 00        	<unknown>
    51b6: 00 00        	<unknown>
    51b8: 44 00        	<unknown>
    51ba: 00 00        	<unknown>
    51bc: 00 00        	<unknown>
    51be: 00 00        	<unknown>
    51c0: d9 05        	<unknown>
    51c2: 00 00        	<unknown>
    51c4: 12 00        	<unknown>
    51c6: 02 00        	<unknown>
    51c8: a0 05        	<unknown>
    51ca: 00 80        	<unknown>
		...
    51d8: e4 05        	<unknown>
    51da: 00 00        	<unknown>
    51dc: 12 00        	<unknown>
    51de: 02 00        	<unknown>
    51e0: 14 27        	<unknown>
    51e2: 00 80        	<unknown>
    51e4: 00 00        	<unknown>
    51e6: 00 00        	<unknown>
    51e8: 30 00        	<unknown>
    51ea: 00 00        	<unknown>
    51ec: 00 00        	<unknown>
    51ee: 00 00        	<unknown>
    51f0: f1 05        	<unknown>
    51f2: 00 00        	<unknown>
    51f4: 11 00        	<unknown>
    51f6: 08 00        	<unknown>
    51f8: 8c 42        	<unknown>
    51fa: 00 80        	<unknown>
    51fc: 00 00        	<unknown>
    51fe: 00 00        	<unknown>
    5200: 04 00        	<unknown>
    5202: 00 00        	<unknown>
    5204: 00 00        	<unknown>
    5206: 00 00        	<unknown>

Disassembly of section .strtab:

0000000000000000 <.strtab>:
       0: 00 76        	<unknown>
       2: 78 5f        	<unknown>
       4: 73 74 61 72  	csrrci	s0, 0x726, 0x2
       8: 74 2e        	<unknown>
       a: 53 2e 6f 00  	fadd.s	ft8, ft10, ft6, rdn
       e: 24 78        	<unknown>
      10: 72 76        	<unknown>
      12: 36 34        	<unknown>
      14: 69 32        	<unknown>
      16: 70 31        	<unknown>
      18: 5f 6d 32 70  	<unknown>
      1c: 30 5f        	<unknown>
      1e: 61 32        	<unknown>
      20: 70 31        	<unknown>
      22: 5f 66 32 70  	<unknown>
      26: 32 5f        	<unknown>
      28: 64 32        	<unknown>
      2a: 70 32        	<unknown>
      2c: 5f 7a 69 63  	<unknown>
      30: 73 72 32 70  	csrrci	tp, 0x703, 0x4
      34: 30 5f        	<unknown>
      36: 7a 6d        	<unknown>
      38: 6d 75        	<unknown>
      3a: 6c 31        	<unknown>
      3c: 70 30        	<unknown>
      3e: 00 69        	<unknown>
      40: 6e 69        	<unknown>
      42: 74 5f        	<unknown>
      44: 72 65        	<unknown>
      46: 67 73 5f 61  	<unknown>
      4a: 6c 6c        	<unknown>
      4c: 00 69        	<unknown>
      4e: 6e 69        	<unknown>
      50: 74 5f        	<unknown>
      52: 72 65        	<unknown>
      54: 67 73 00 69  	<unknown>
      58: 6e 69        	<unknown>
      5a: 74 5f        	<unknown>
      5c: 74 6c        	<unknown>
      5e: 73 5f 61 6c  	csrrwi	t5, 0x6c6, 0x2
      62: 6c 00        	<unknown>
      64: 65 78        	<unknown>
      66: 69 74        	<unknown>
      68: 2e 63        	<unknown>
      6a: 00 24        	<unknown>
      6c: 78 2e        	<unknown>
      6e: 30 00        	<unknown>
      70: 24 78        	<unknown>
      72: 2e 31        	<unknown>
      74: 00 24        	<unknown>
      76: 78 2e        	<unknown>
      78: 32 00        	<unknown>
      7a: 24 64        	<unknown>
      7c: 2e 33        	<unknown>
      7e: 00 24        	<unknown>
      80: 64 2e        	<unknown>
      82: 34 00        	<unknown>
      84: 6b 65 72 6e  	<unknown>
      88: 65 6c        	<unknown>
      8a: 5f 77 72 61  	<unknown>
      8e: 70 70        	<unknown>
      90: 65 72        	<unknown>
      92: 2e 63        	<unknown>
      94: 70 70        	<unknown>
      96: 00 24        	<unknown>
      98: 78 2e        	<unknown>
      9a: 33 00 24 64  	<unknown>
      9e: 2e 35        	<unknown>
      a0: 00 24        	<unknown>
      a2: 64 2e        	<unknown>
      a4: 36 00        	<unknown>
      a6: 24 64        	<unknown>
      a8: 2e 37        	<unknown>
      aa: 00 24        	<unknown>
      ac: 64 2e        	<unknown>
      ae: 38 00        	<unknown>
      b0: 24 64        	<unknown>
      b2: 2e 39        	<unknown>
      b4: 00 24        	<unknown>
      b6: 64 2e        	<unknown>
      b8: 31 30        	<unknown>
      ba: 00 24        	<unknown>
      bc: 64 2e        	<unknown>
      be: 31 31        	<unknown>
      c0: 00 24        	<unknown>
      c2: 64 2e        	<unknown>
      c4: 31 32        	<unknown>
      c6: 00 24        	<unknown>
      c8: 64 2e        	<unknown>
      ca: 31 33        	<unknown>
      cc: 00 24        	<unknown>
      ce: 64 2e        	<unknown>
      d0: 31 34        	<unknown>
      d2: 00 24        	<unknown>
      d4: 64 2e        	<unknown>
      d6: 31 35        	<unknown>
      d8: 00 73        	<unknown>
      da: 70 6d        	<unknown>
      dc: 76 2e        	<unknown>
      de: 63 75 00 24  	bgeu	zero, zero, 0x328 <.symtab+0x328>
      e2: 64 2e        	<unknown>
      e4: 32 00        	<unknown>
      e6: 76 78        	<unknown>
      e8: 5f 73 79 73  	<unknown>
      ec: 63 61 6c 6c  	bltu	s8, t1, 0x7ae <.symtab+0x7ae>
      f0: 73 2e 63 00  	csrrs	t3, 0x6, t1
      f4: 76 78        	<unknown>
      f6: 5f 70 72 69  	<unknown>
      fa: 6e 74        	<unknown>
      fc: 2e 53        	<unknown>
      fe: 2e 6f        	<unknown>
     100: 00 76        	<unknown>
     102: 78 5f        	<unknown>
     104: 70 72        	<unknown>
     106: 69 6e        	<unknown>
     108: 74 2e        	<unknown>
     10a: 63 00 5f 5f  	beq	t5, s5, 0x6ea <.symtab+0x6ea>
     10e: 76 70        	<unknown>
     110: 72 69        	<unknown>
     112: 6e 74        	<unknown>
     114: 66 5f        	<unknown>
     116: 63 62 00 76  	bltu	zero, zero, 0x87a <.symtab+0x87a>
     11a: 78 5f        	<unknown>
     11c: 73 70 61 77  	csrci	0x776, 0x2
     120: 6e 2e        	<unknown>
     122: 63 00 70 72  	beq	zero, t2, 0x842 <.symtab+0x842>
     126: 6f 63 65 73  	jal	t1, 0x5685c <.symtab+0x5685c>
     12a: 73 5f 74 68  	csrrwi	t5, 0x687, 0x8
     12e: 72 65        	<unknown>
     130: 61 64        	<unknown>
     132: 73 00 70 72  	<unknown>
     136: 6f 63 65 73  	jal	t1, 0x5686c <.symtab+0x5686c>
     13a: 73 5f 72 65  	csrrwi	t5, 0x657, 0x4
     13e: 6d 61        	<unknown>
     140: 69 6e        	<unknown>
     142: 69 6e        	<unknown>
     144: 67 5f 74 68  	<unknown>
     148: 72 65        	<unknown>
     14a: 61 64        	<unknown>
     14c: 73 00 70 72  	<unknown>
     150: 6f 63 65 73  	jal	t1, 0x56886 <.symtab+0x56886>
     154: 73 5f 74 68  	csrrwi	t5, 0x687, 0x8
     158: 72 65        	<unknown>
     15a: 61 64        	<unknown>
     15c: 73 5f 73 74  	csrrwi	t5, mseccfg, 0x6
     160: 75 62        	<unknown>
     162: 00 70        	<unknown>
     164: 72 6f        	<unknown>
     166: 63 65 73 73  	bltu	t1, s7, 0x890 <.symtab+0x890>
     16a: 5f 74 68 72  	<unknown>
     16e: 65 61        	<unknown>
     170: 64 5f        	<unknown>
     172: 67 72 6f 75  	<unknown>
     176: 70 73        	<unknown>
     178: 00 70        	<unknown>
     17a: 72 6f        	<unknown>
     17c: 63 65 73 73  	bltu	t1, s7, 0x8a6 <.symtab+0x8a6>
     180: 5f 74 68 72  	<unknown>
     184: 65 61        	<unknown>
     186: 64 5f        	<unknown>
     188: 67 72 6f 75  	<unknown>
     18c: 70 73        	<unknown>
     18e: 5f 73 74 75  	<unknown>
     192: 62 00        	<unknown>
     194: 76 78        	<unknown>
     196: 5f 73 65 72  	<unknown>
     19a: 69 61        	<unknown>
     19c: 6c 2e        	<unknown>
     19e: 53 2e 6f 00  	fadd.s	ft8, ft10, ft6, rdn
     1a2: 6c 61        	<unknown>
     1a4: 62 65        	<unknown>
     1a6: 6c 5f        	<unknown>
     1a8: 6c 6f        	<unknown>
     1aa: 6f 70 00 6c  	j	0x786a <.symtab+0x786a>
     1ae: 61 62        	<unknown>
     1b0: 65 6c        	<unknown>
     1b2: 5f 6a 6f 69  	<unknown>
     1b6: 6e 00        	<unknown>
     1b8: 76 78        	<unknown>
     1ba: 5f 70 65 72  	<unknown>
     1be: 66 2e        	<unknown>
     1c0: 63 00 74 69  	beq	s0, s7, 0x840 <.symtab+0x840>
     1c4: 6e 79        	<unknown>
     1c6: 70 72        	<unknown>
     1c8: 69 6e        	<unknown>
     1ca: 74 66        	<unknown>
     1cc: 2e 63        	<unknown>
     1ce: 00 5f        	<unknown>
     1d0: 6f 75 74 5f  	jal	a0, 0x47fc6 <.symtab+0x47fc6>
     1d4: 6e 75        	<unknown>
     1d6: 6c 6c        	<unknown>
     1d8: 00 5f        	<unknown>
     1da: 6f 75 74 5f  	jal	a0, 0x47fd0 <.symtab+0x47fd0>
     1de: 72 65        	<unknown>
     1e0: 76 00        	<unknown>
     1e2: 5f 6e 74 6f  	<unknown>
     1e6: 61 5f        	<unknown>
     1e8: 6c 6f        	<unknown>
     1ea: 6e 67        	<unknown>
     1ec: 00 5f        	<unknown>
     1ee: 6e 74        	<unknown>
     1f0: 6f 61 5f 6c  	jal	sp, 0xf70b4 <.symtab+0xf70b4>
     1f4: 6f 6e 67 5f  	jal	t3, 0x767ea <.symtab+0x767ea>
     1f8: 6c 6f        	<unknown>
     1fa: 6e 67        	<unknown>
     1fc: 00 5f        	<unknown>
     1fe: 6f 75 74 5f  	jal	a0, 0x47ff4 <.symtab+0x47ff4>
     202: 63 68 61 72  	bltu	sp, t1, 0x932 <.symtab+0x932>
     206: 00 5f        	<unknown>
     208: 66 74        	<unknown>
     20a: 6f 61 00 5f  	jal	sp, 0x67fa <.symtab+0x67fa>
     20e: 65 74        	<unknown>
     210: 6f 61 00 70  	jal	sp, 0x6910 <.symtab+0x6910>
     214: 6f 77 31 30  	jal	a4, 0x17d16 <.symtab+0x17d16>
     218: 2e 30        	<unknown>
     21a: 00 5f        	<unknown>
     21c: 76 73        	<unknown>
     21e: 6e 70        	<unknown>
     220: 72 69        	<unknown>
     222: 6e 74        	<unknown>
     224: 66 00        	<unknown>
     226: 6d 65        	<unknown>
     228: 6d 63        	<unknown>
     22a: 70 79        	<unknown>
     22c: 2e 63        	<unknown>
     22e: 00 24        	<unknown>
     230: 64 2e        	<unknown>
     232: 31 00        	<unknown>
     234: 6d 65        	<unknown>
     236: 6d 73        	<unknown>
     238: 65 74        	<unknown>
     23a: 2e 63        	<unknown>
     23c: 00 63        	<unknown>
     23e: 75 64        	<unknown>
     240: 61 4b        	<unknown>
     242: 65 72        	<unknown>
     244: 6e 65        	<unknown>
     246: 6c 49        	<unknown>
     248: 6d 70        	<unknown>
     24a: 6c 2e        	<unknown>
     24c: 63 70 70 00  	bgeu	zero, t2, 0x24c <.symtab+0x24c>
     250: 24 64        	<unknown>
     252: 2e 34        	<unknown>
     254: 33 00 24 64  	<unknown>
     258: 2e 34        	<unknown>
     25a: 34 00        	<unknown>
     25c: 24 64        	<unknown>
     25e: 2e 34        	<unknown>
     260: 35 00        	<unknown>
     262: 5f 5f 66 69  	<unknown>
     266: 6e 69        	<unknown>
     268: 5f 61 72 72  	<unknown>
     26c: 61 79        	<unknown>
     26e: 5f 65 6e 64  	<unknown>
     272: 00 5f        	<unknown>
     274: 5f 74 62 73  	<unknown>
     278: 73 5f 73 74  	csrrwi	t5, mseccfg, 0x6
     27c: 61 72        	<unknown>
     27e: 74 00        	<unknown>
     280: 5f 5f 66 69  	<unknown>
     284: 6e 69        	<unknown>
     286: 5f 61 72 72  	<unknown>
     28a: 61 79        	<unknown>
     28c: 5f 73 74 61  	<unknown>
     290: 72 74        	<unknown>
     292: 00 5f        	<unknown>
     294: 5f 74 64 61  	<unknown>
     298: 74 61        	<unknown>
     29a: 5f 73 74 61  	<unknown>
     29e: 72 74        	<unknown>
     2a0: 00 5f        	<unknown>
     2a2: 5f 69 6e 69  	<unknown>
     2a6: 74 5f        	<unknown>
     2a8: 61 72        	<unknown>
     2aa: 72 61        	<unknown>
     2ac: 79 5f        	<unknown>
     2ae: 65 6e        	<unknown>
     2b0: 64 00        	<unknown>
     2b2: 5f 5f 74 62  	<unknown>
     2b6: 73 73 5f 6f  	csrrci	t1, 0x6f5, 0x1e
     2ba: 66 66        	<unknown>
     2bc: 73 65 74 00  	csrrsi	a0, 0x7, 0x8
     2c0: 5f 5f 70 72  	<unknown>
     2c4: 65 69        	<unknown>
     2c6: 6e 69        	<unknown>
     2c8: 74 5f        	<unknown>
     2ca: 61 72        	<unknown>
     2cc: 72 61        	<unknown>
     2ce: 79 5f        	<unknown>
     2d0: 65 6e        	<unknown>
     2d2: 64 00        	<unknown>
     2d4: 5f 47 4c 4f  	<unknown>
     2d8: 42 41        	<unknown>
     2da: 4c 5f        	<unknown>
     2dc: 4f 46 46 53  	fnmadd.d	fa2, fa2, fs4, fa0, rmm
     2e0: 45 54        	<unknown>
     2e2: 5f 54 41 42  	<unknown>
     2e6: 4c 45        	<unknown>
     2e8: 5f 00 5f 5f  	<unknown>
     2ec: 69 6e        	<unknown>
     2ee: 69 74        	<unknown>
     2f0: 5f 61 72 72  	<unknown>
     2f4: 61 79        	<unknown>
     2f6: 5f 73 74 61  	<unknown>
     2fa: 72 74        	<unknown>
     2fc: 00 5f        	<unknown>
     2fe: 5f 70 72 65  	<unknown>
     302: 69 6e        	<unknown>
     304: 69 74        	<unknown>
     306: 5f 61 72 72  	<unknown>
     30a: 61 79        	<unknown>
     30c: 5f 73 74 61  	<unknown>
     310: 72 74        	<unknown>
     312: 00 74        	<unknown>
     314: 68 72        	<unknown>
     316: 65 61        	<unknown>
     318: 64 49        	<unknown>
     31a: 64 78        	<unknown>
     31c: 00 67        	<unknown>
     31e: 72 69        	<unknown>
     320: 64 5f        	<unknown>
     322: 73 69 7a 65  	csrrsi	s2, 0x657, 0x14
     326: 5f 7a 00 62  	<unknown>
     32a: 6c 6f        	<unknown>
     32c: 63 6b 5f 69  	bltu	t5, s5, 0x9c2 <.symtab+0x9c2>
     330: 6e 64        	<unknown>
     332: 65 78        	<unknown>
     334: 5f 78 00 74  	<unknown>
     338: 68 72        	<unknown>
     33a: 65 61        	<unknown>
     33c: 64 5f        	<unknown>
     33e: 69 64        	<unknown>
     340: 5f 79 00 62  	<unknown>
     344: 6c 6f        	<unknown>
     346: 63 6b 49 64  	bltu	s2, tp, 0x99c <.symtab+0x99c>
     34a: 78 00        	<unknown>
     34c: 5f 5f 53 44  	<unknown>
     350: 41 54        	<unknown>
     352: 41 5f        	<unknown>
     354: 42 45        	<unknown>
     356: 47 49 4e 5f  	<unknown>
     35a: 5f 00 6d 65  	<unknown>
     35e: 6d 63        	<unknown>
     360: 70 79        	<unknown>
     362: 00 5f        	<unknown>
     364: 5f 67 6c 6f  	<unknown>
     368: 62 61        	<unknown>
     36a: 6c 5f        	<unknown>
     36c: 70 6f        	<unknown>
     36e: 69 6e        	<unknown>
     370: 74 65        	<unknown>
     372: 72 00        	<unknown>
     374: 76 78        	<unknown>
     376: 5f 73 70 61  	<unknown>
     37a: 77 6e 5f 74  	<unknown>
     37e: 68 72        	<unknown>
     380: 65 61        	<unknown>
     382: 64 73        	<unknown>
     384: 00 5f        	<unknown>
     386: 5a 32        	<unknown>
     388: 31 73        	<unknown>
     38a: 70 6d        	<unknown>
     38c: 76 5f        	<unknown>
     38e: 6a 64        	<unknown>
     390: 73 5f 6e 61  	csrrwi	t5, 0x616, 0x1c
     394: 69 76        	<unknown>
     396: 65 5f        	<unknown>
     398: 6b 65 72 6e  	<unknown>
     39c: 65 6c        	<unknown>
     39e: 50 66        	<unknown>
     3a0: 50 4b        	<unknown>
     3a2: 66 50        	<unknown>
     3a4: 4b 69 53 33  	<unknown>
     3a8: 5f 53 31 5f  	<unknown>
     3ac: 69 53        	<unknown>
     3ae: 33 5f 53 33  	<unknown>
     3b2: 5f 69 00 74  	<unknown>
     3b6: 68 72        	<unknown>
     3b8: 65 61        	<unknown>
     3ba: 64 5f        	<unknown>
     3bc: 69 64        	<unknown>
     3be: 5f 78 00 62  	<unknown>
     3c2: 6c 6f        	<unknown>
     3c4: 63 6b 5f 73  	bltu	t5, s5, 0xafa <.symtab+0xafa>
     3c8: 69 7a        	<unknown>
     3ca: 65 5f        	<unknown>
     3cc: 78 00        	<unknown>
     3ce: 5f 5f 6c 69  	<unknown>
     3d2: 62 63        	<unknown>
     3d4: 5f 69 6e 69  	<unknown>
     3d8: 74 5f        	<unknown>
     3da: 61 72        	<unknown>
     3dc: 72 61        	<unknown>
     3de: 79 00        	<unknown>
     3e0: 5f 45 78 69  	<unknown>
     3e4: 74 00        	<unknown>
     3e6: 5f 5a 35 36  	<unknown>
     3ea: 63 75 64 61  	bgeu	s0, s6, 0x9f4 <.symtab+0x9f4>
     3ee: 5f 73 70 6d  	<unknown>
     3f2: 76 5f        	<unknown>
     3f4: 6a 64        	<unknown>
     3f6: 73 5f 6e 61  	csrrwi	t5, 0x616, 0x1c
     3fa: 69 76        	<unknown>
     3fc: 65 5f        	<unknown>
     3fe: 6b 65 72 6e  	<unknown>
     402: 65 6c        	<unknown>
     404: 50 66        	<unknown>
     406: 50 4b        	<unknown>
     408: 66 50        	<unknown>
     40a: 4b 69 53 33  	<unknown>
     40e: 5f 53 31 5f  	<unknown>
     412: 69 53        	<unknown>
     414: 33 5f 53 33  	<unknown>
     418: 5f 69 5f 77  	<unknown>
     41c: 72 61        	<unknown>
     41e: 70 70        	<unknown>
     420: 65 72        	<unknown>
     422: 50 76        	<unknown>
     424: 00 5f        	<unknown>
     426: 5f 69 6e 69  	<unknown>
     42a: 74 5f        	<unknown>
     42c: 74 6c        	<unknown>
     42e: 73 00 62 6c  	<unknown>
     432: 6f 63 6b 44  	jal	t1, 0xb6878 <.symtab+0xb6878>
     436: 69 6d        	<unknown>
     438: 00 63        	<unknown>
     43a: 61 6c        	<unknown>
     43c: 6c 62        	<unknown>
     43e: 61 63        	<unknown>
     440: 6b 73 00 76  	<unknown>
     444: 78 5f        	<unknown>
     446: 73 65 72 69  	csrrsi	a0, 0x697, 0x4
     44a: 61 6c        	<unknown>
     44c: 00 5f        	<unknown>
     44e: 5f 77 61 72  	<unknown>
     452: 70 73        	<unknown>
     454: 5f 70 65 72  	<unknown>
     458: 5f 67 72 6f  	<unknown>
     45c: 75 70        	<unknown>
     45e: 00 62        	<unknown>
     460: 6c 6f        	<unknown>
     462: 63 6b 5f 73  	bltu	t5, s5, 0xb98 <.symtab+0xb98>
     466: 69 7a        	<unknown>
     468: 65 5f        	<unknown>
     46a: 79 00        	<unknown>
     46c: 76 78        	<unknown>
     46e: 5f 70 72 69  	<unknown>
     472: 6e 74        	<unknown>
     474: 66 00        	<unknown>
     476: 5f 5f 66 75  	<unknown>
     47a: 6e 63        	<unknown>
     47c: 73 5f 6f 6e  	csrrwi	t5, 0x6e6, 0x1e
     480: 5f 65 78 69  	<unknown>
     484: 74 00        	<unknown>
     486: 5f 5f 74 64  	<unknown>
     48a: 61 74        	<unknown>
     48c: 61 5f        	<unknown>
     48e: 73 69 7a 65  	csrrsi	s2, 0x657, 0x14
     492: 00 5f        	<unknown>
     494: 5f 74 62 73  	<unknown>
     498: 73 5f 73 69  	csrrwi	t5, 0x697, 0x6
     49c: 7a 65        	<unknown>
     49e: 00 76        	<unknown>
     4a0: 78 5f        	<unknown>
     4a2: 62 61        	<unknown>
     4a4: 72 72        	<unknown>
     4a6: 69 65        	<unknown>
     4a8: 72 00        	<unknown>
     4aa: 67 72 69 64  	<unknown>
     4ae: 44 69        	<unknown>
     4b0: 6d 00        	<unknown>
     4b2: 5f 5f 42 53  	<unknown>
     4b6: 53 5f 45 4e  	<unknown>
     4ba: 44 5f        	<unknown>
     4bc: 5f 00 67 72  	<unknown>
     4c0: 69 64        	<unknown>
     4c2: 5f 73 69 7a  	<unknown>
     4c6: 65 5f        	<unknown>
     4c8: 78 00        	<unknown>
     4ca: 5f 5f 62 73  	<unknown>
     4ce: 73 5f 73 74  	csrrwi	t5, mseccfg, 0x6
     4d2: 61 72        	<unknown>
     4d4: 74 00        	<unknown>
     4d6: 6d 65        	<unknown>
     4d8: 6d 73        	<unknown>
     4da: 65 74        	<unknown>
     4dc: 00 6d        	<unknown>
     4de: 61 69        	<unknown>
     4e0: 6e 00        	<unknown>
     4e2: 5f 5f 73 74  	<unknown>
     4e6: 64 69        	<unknown>
     4e8: 6f 5f 65 78  	jal	t5, 0x55c6e <.symtab+0x55c6e>
     4ec: 69 74        	<unknown>
     4ee: 00 74        	<unknown>
     4f0: 68 72        	<unknown>
     4f2: 65 61        	<unknown>
     4f4: 64 5f        	<unknown>
     4f6: 69 64        	<unknown>
     4f8: 5f 7a 00 5f  	<unknown>
     4fc: 5f 6c 6f 63  	<unknown>
     500: 61 6c        	<unknown>
     502: 5f 67 72 6f  	<unknown>
     506: 75 70        	<unknown>
     508: 5f 69 64 00  	<unknown>
     50c: 62 6c        	<unknown>
     50e: 6f 63 6b 5f  	jal	t1, 0xb6b04 <.symtab+0xb6b04>
     512: 73 69 7a 65  	csrrsi	s2, 0x657, 0x14
     516: 00 62        	<unknown>
     518: 6c 6f        	<unknown>
     51a: 63 6b 5f 69  	bltu	t5, s5, 0xbb0 <.symtab+0xbb0>
     51e: 6e 64        	<unknown>
     520: 65 78        	<unknown>
     522: 5f 7a 00 67  	<unknown>
     526: 72 69        	<unknown>
     528: 64 5f        	<unknown>
     52a: 73 69 7a 65  	csrrsi	s2, 0x657, 0x14
     52e: 5f 79 00 62  	<unknown>
     532: 6c 6f        	<unknown>
     534: 63 6b 5f 69  	bltu	t5, s5, 0xbca <.symtab+0xbca>
     538: 6e 64        	<unknown>
     53a: 65 78        	<unknown>
     53c: 5f 79 00 53  	<unknown>
     540: 54 41        	<unknown>
     542: 52 54        	<unknown>
     544: 55 50        	<unknown>
     546: 5f 41 44 44  	<unknown>
     54a: 52 00        	<unknown>
     54c: 76 78        	<unknown>
     54e: 5f 62 61 72  	<unknown>
     552: 72 69        	<unknown>
     554: 65 72        	<unknown>
     556: 5f 64 75 6d  	<unknown>
     55a: 6d 79        	<unknown>
     55c: 00 5f        	<unknown>
     55e: 5f 6c 69 62  	<unknown>
     562: 63 5f 65 78  	bge	a0, t1, 0xd00 <.symtab+0xd00>
     566: 69 74        	<unknown>
     568: 5f 66 69 6e  	<unknown>
     56c: 69 00        	<unknown>
     56e: 5f 5f 44 41  	<unknown>
     572: 54 41        	<unknown>
     574: 5f 42 45 47  	<unknown>
     578: 49 4e        	<unknown>
     57a: 5f 5f 00 5f  	<unknown>
     57e: 65 64        	<unknown>
     580: 61 74        	<unknown>
     582: 61 00        	<unknown>
     584: 76 78        	<unknown>
     586: 5f 70 65 72  	<unknown>
     58a: 66 5f        	<unknown>
     58c: 64 75        	<unknown>
     58e: 6d 70        	<unknown>
     590: 00 64        	<unknown>
     592: 79 6e        	<unknown>
     594: 5f 73 68 61  	<unknown>
     598: 72 65        	<unknown>
     59a: 64 5f        	<unknown>
     59c: 6d 65        	<unknown>
     59e: 6d 5f        	<unknown>
     5a0: 73 69 7a 65  	csrrsi	s2, 0x657, 0x14
     5a4: 00 73        	<unknown>
     5a6: 70 6d        	<unknown>
     5a8: 76 5f        	<unknown>
     5aa: 6a 64        	<unknown>
     5ac: 73 5f 6e 61  	csrrwi	t5, 0x616, 0x1c
     5b0: 69 76        	<unknown>
     5b2: 65 5f        	<unknown>
     5b4: 6b 65 72 6e  	<unknown>
     5b8: 65 6c        	<unknown>
     5ba: 50 66        	<unknown>
     5bc: 50 4b        	<unknown>
     5be: 66 50        	<unknown>
     5c0: 4b 69 53 33  	<unknown>
     5c4: 5f 53 31 5f  	<unknown>
     5c8: 69 53        	<unknown>
     5ca: 33 5f 53 33  	<unknown>
     5ce: 5f 69 5f 77  	<unknown>
     5d2: 72 61        	<unknown>
     5d4: 70 70        	<unknown>
     5d6: 65 72        	<unknown>
     5d8: 00 76        	<unknown>
     5da: 78 5f        	<unknown>
     5dc: 70 75        	<unknown>
     5de: 74 63        	<unknown>
     5e0: 68 61        	<unknown>
     5e2: 72 00        	<unknown>
     5e4: 74 69        	<unknown>
     5e6: 6e 79        	<unknown>
     5e8: 5f 76 70 72  	<unknown>
     5ec: 69 6e        	<unknown>
     5ee: 74 66        	<unknown>
     5f0: 00 62        	<unknown>
     5f2: 6c 6f        	<unknown>
     5f4: 63 6b 5f 73  	bltu	t5, s5, 0xd2a <.symtab+0xd2a>
     5f8: 69 7a        	<unknown>
     5fa: 65 5f        	<unknown>
     5fc: 7a 00        	<unknown>

Disassembly of section .shstrtab:

0000000000000000 <.shstrtab>:
       0: 00 2e        	<unknown>
       2: 73 79 6d 74  	csrrci	s2, 0x746, 0x1a
       6: 61 62        	<unknown>
       8: 00 2e        	<unknown>
       a: 73 74 72 74  	csrrci	s0, mseccfg, 0x4
       e: 61 62        	<unknown>
      10: 00 2e        	<unknown>
      12: 73 68 73 74  	csrrsi	a6, mseccfg, 0x6
      16: 72 74        	<unknown>
      18: 61 62        	<unknown>
      1a: 00 2e        	<unknown>
      1c: 69 6e        	<unknown>
      1e: 69 74        	<unknown>
      20: 00 2e        	<unknown>
      22: 74 65        	<unknown>
      24: 78 74        	<unknown>
      26: 00 2e        	<unknown>
      28: 72 6f        	<unknown>
      2a: 64 61        	<unknown>
      2c: 74 61        	<unknown>
      2e: 00 2e        	<unknown>
      30: 65 68        	<unknown>
      32: 5f 66 72 61  	<unknown>
      36: 6d 65        	<unknown>
      38: 00 2e        	<unknown>
      3a: 74 62        	<unknown>
      3c: 73 73 00 2e  	csrrci	t1, 0x2e0, 0x0
      40: 67 6f 74 00  	<unknown>
      44: 2e 73        	<unknown>
      46: 64 61        	<unknown>
      48: 74 61        	<unknown>
      4a: 00 2e        	<unknown>
      4c: 73 62 73 73  	csrrsi	tp, 0x737, 0x6
      50: 00 2e        	<unknown>
      52: 62 73        	<unknown>
      54: 73 00 2e 63  	<unknown>
      58: 6f 6d 6d 65  	jal	s10, 0xd66ae <.symtab+0xd66ae>
      5c: 6e 74        	<unknown>
      5e: 00 2e        	<unknown>
      60: 72 69        	<unknown>
      62: 73 63 76 2e  	csrrsi	t1, 0x2e7, 0xc
      66: 61 74        	<unknown>
      68: 74 72        	<unknown>
      6a: 69 62        	<unknown>
      6c: 75 74        	<unknown>
      6e: 65 73        	<unknown>
      70: 00 2e        	<unknown>
      72: 64 65        	<unknown>
      74: 62 75        	<unknown>
      76: 67 5f 69 6e  	<unknown>
      7a: 66 6f        	<unknown>
      7c: 00 2e        	<unknown>
      7e: 64 65        	<unknown>
      80: 62 75        	<unknown>
      82: 67 5f 61 62  	<unknown>
      86: 62 72        	<unknown>
      88: 65 76        	<unknown>
      8a: 00 2e        	<unknown>
      8c: 64 65        	<unknown>
      8e: 62 75        	<unknown>
      90: 67 5f 6c 69  	<unknown>
      94: 6e 65        	<unknown>
      96: 00 2e        	<unknown>
      98: 64 65        	<unknown>
      9a: 62 75        	<unknown>
      9c: 67 5f 66 72  	<unknown>
      a0: 61 6d        	<unknown>
      a2: 65 00        	<unknown>
      a4: 2e 64        	<unknown>
      a6: 65 62        	<unknown>
      a8: 75 67        	<unknown>
      aa: 5f 73 74 72  	<unknown>
      ae: 00           	<unknown>
