	.text
	.file	"hotspot_simplified.cu"
	.file	0 "/nethome/cahn45/CuPBoP/examples/hotspot" "hotspot_simplified.cu" md5 0x269d69baf85c1a0e214e5095bfb4060e
	.file	1 "." "hotspot_simplified.cu"
	.file	2 "/nethome/cahn45/CuPBoP" "cuda-12.1/include/nv/target"
	.file	3 "/nethome/cahn45/CuPBoP" "cuda-12.1/include/driver_types.h"
	.file	4 "/nethome/cahn45/CuPBoP" "cuda-12.1/include/vector_types.h"
	.globl	_Z5fatalPc                      # -- Begin function _Z5fatalPc
	.p2align	4, 0x90
	.type	_Z5fatalPc,@function
_Z5fatalPc:                             # @_Z5fatalPc
.Lfunc_begin0:
	.loc	1 41 0                          # ./hotspot_simplified.cu:41:0
	.cfi_startproc
# %bb.0:                                # %entry
	pushq	%rbp
	.cfi_def_cfa_offset 16
	.cfi_offset %rbp, -16
	movq	%rsp, %rbp
	.cfi_def_cfa_register %rbp
	subq	$16, %rsp
	movq	%rdi, -8(%rbp)
.Ltmp0:
	.loc	1 41 31 prologue_end            # ./hotspot_simplified.cu:41:31
	movq	stderr@GOTPCREL(%rip), %rax
	movq	(%rax), %rdi
	.loc	1 41 54 is_stmt 0               # ./hotspot_simplified.cu:41:54
	movq	-8(%rbp), %rdx
	.loc	1 41 23                         # ./hotspot_simplified.cu:41:23
	leaq	.L.str(%rip), %rsi
	movb	$0, %al
	callq	fprintf@PLT
	.loc	1 41 58 epilogue_begin          # ./hotspot_simplified.cu:41:58
	addq	$16, %rsp
	popq	%rbp
	.cfi_def_cfa %rsp, 8
	retq
.Ltmp1:
.Lfunc_end0:
	.size	_Z5fatalPc, .Lfunc_end0-_Z5fatalPc
	.cfi_endproc
                                        # -- End function
	.globl	_Z11writeoutputPfiiPc           # -- Begin function _Z11writeoutputPfiiPc
	.p2align	4, 0x90
	.type	_Z11writeoutputPfiiPc,@function
_Z11writeoutputPfiiPc:                  # @_Z11writeoutputPfiiPc
.Lfunc_begin1:
	.loc	1 43 0 is_stmt 1                # ./hotspot_simplified.cu:43:0
	.cfi_startproc
# %bb.0:                                # %entry
	pushq	%rbp
	.cfi_def_cfa_offset 16
	.cfi_offset %rbp, -16
	movq	%rsp, %rbp
	.cfi_def_cfa_register %rbp
	subq	$304, %rsp                      # imm = 0x130
	movq	%rdi, -8(%rbp)
	movl	%esi, -12(%rbp)
	movl	%edx, -16(%rbp)
	movq	%rcx, -24(%rbp)
.Ltmp2:
	.loc	1 45 13 prologue_end            # ./hotspot_simplified.cu:45:13
	movl	$0, -36(%rbp)
.Ltmp3:
	.loc	1 49 19                         # ./hotspot_simplified.cu:49:19
	movq	-24(%rbp), %rdi
	.loc	1 49 13 is_stmt 0               # ./hotspot_simplified.cu:49:13
	leaq	.L.str.1(%rip), %rsi
	callq	fopen@PLT
	.loc	1 49 11                         # ./hotspot_simplified.cu:49:11
	movq	%rax, -48(%rbp)
	.loc	1 49 31                         # ./hotspot_simplified.cu:49:31
	cmpq	$0, %rax
.Ltmp4:
	.loc	1 49 7                          # ./hotspot_simplified.cu:49:7
	jne	.LBB1_2
# %bb.1:                                # %if.then
.Ltmp5:
	.loc	1 50 5 is_stmt 1                # ./hotspot_simplified.cu:50:5
	leaq	.L.str.2(%rip), %rdi
	movb	$0, %al
	callq	printf@PLT
.Ltmp6:
.LBB1_2:                                # %if.end
	.loc	1 52 10                         # ./hotspot_simplified.cu:52:10
	movl	$0, -28(%rbp)
.LBB1_3:                                # %for.cond
                                        # =>This Loop Header: Depth=1
                                        #     Child Loop BB1_5 Depth 2
.Ltmp7:
	.loc	1 52 15 is_stmt 0               # ./hotspot_simplified.cu:52:15
	movl	-28(%rbp), %eax
	.loc	1 52 17                         # ./hotspot_simplified.cu:52:17
	cmpl	-12(%rbp), %eax
.Ltmp8:
	.loc	1 52 3                          # ./hotspot_simplified.cu:52:3
	jge	.LBB1_10
# %bb.4:                                # %for.body
                                        #   in Loop: Header=BB1_3 Depth=1
.Ltmp9:
	.loc	1 53 12 is_stmt 1               # ./hotspot_simplified.cu:53:12
	movl	$0, -32(%rbp)
.LBB1_5:                                # %for.cond3
                                        #   Parent Loop BB1_3 Depth=1
                                        # =>  This Inner Loop Header: Depth=2
.Ltmp10:
	.loc	1 53 17 is_stmt 0               # ./hotspot_simplified.cu:53:17
	movl	-32(%rbp), %eax
	.loc	1 53 19                         # ./hotspot_simplified.cu:53:19
	cmpl	-16(%rbp), %eax
.Ltmp11:
	.loc	1 53 5                          # ./hotspot_simplified.cu:53:5
	jge	.LBB1_8
# %bb.6:                                # %for.body5
                                        #   in Loop: Header=BB1_5 Depth=2
.Ltmp12:
	.loc	1 55 15 is_stmt 1               # ./hotspot_simplified.cu:55:15
	leaq	-304(%rbp), %rdi
	.loc	1 55 32 is_stmt 0               # ./hotspot_simplified.cu:55:32
	movl	-36(%rbp), %edx
	.loc	1 55 39                         # ./hotspot_simplified.cu:55:39
	movq	-8(%rbp), %rax
	.loc	1 55 44                         # ./hotspot_simplified.cu:55:44
	movl	-28(%rbp), %ecx
	.loc	1 55 46                         # ./hotspot_simplified.cu:55:46
	imull	-16(%rbp), %ecx
	.loc	1 55 58                         # ./hotspot_simplified.cu:55:58
	addl	-32(%rbp), %ecx
	.loc	1 55 39                         # ./hotspot_simplified.cu:55:39
	movslq	%ecx, %rcx
	movss	(%rax,%rcx,4), %xmm0            # xmm0 = mem[0],zero,zero,zero
	cvtss2sd	%xmm0, %xmm0
	.loc	1 55 7                          # ./hotspot_simplified.cu:55:7
	leaq	.L.str.3(%rip), %rsi
	movb	$1, %al
	callq	sprintf@PLT
	.loc	1 56 13 is_stmt 1               # ./hotspot_simplified.cu:56:13
	leaq	-304(%rbp), %rdi
	.loc	1 56 18 is_stmt 0               # ./hotspot_simplified.cu:56:18
	movq	-48(%rbp), %rsi
	.loc	1 56 7                          # ./hotspot_simplified.cu:56:7
	callq	fputs@PLT
	.loc	1 57 12 is_stmt 1               # ./hotspot_simplified.cu:57:12
	movl	-36(%rbp), %eax
	addl	$1, %eax
	movl	%eax, -36(%rbp)
.Ltmp13:
# %bb.7:                                # %for.inc
                                        #   in Loop: Header=BB1_5 Depth=2
	.loc	1 53 33                         # ./hotspot_simplified.cu:53:33
	movl	-32(%rbp), %eax
	addl	$1, %eax
	movl	%eax, -32(%rbp)
	.loc	1 53 5 is_stmt 0                # ./hotspot_simplified.cu:53:5
	jmp	.LBB1_5
.Ltmp14:
.LBB1_8:                                # %for.end
                                        #   in Loop: Header=BB1_3 Depth=1
	.loc	1 58 5 is_stmt 1                # ./hotspot_simplified.cu:58:5
	jmp	.LBB1_9
.Ltmp15:
.LBB1_9:                                # %for.inc10
                                        #   in Loop: Header=BB1_3 Depth=1
	.loc	1 52 31                         # ./hotspot_simplified.cu:52:31
	movl	-28(%rbp), %eax
	addl	$1, %eax
	movl	%eax, -28(%rbp)
	.loc	1 52 3 is_stmt 0                # ./hotspot_simplified.cu:52:3
	jmp	.LBB1_3
.Ltmp16:
.LBB1_10:                               # %for.end12
	.loc	1 60 10 is_stmt 1               # ./hotspot_simplified.cu:60:10
	movq	-48(%rbp), %rdi
	.loc	1 60 3 is_stmt 0                # ./hotspot_simplified.cu:60:3
	callq	fclose@PLT
	.loc	1 61 1 epilogue_begin is_stmt 1 # ./hotspot_simplified.cu:61:1
	addq	$304, %rsp                      # imm = 0x130
	popq	%rbp
	.cfi_def_cfa %rsp, 8
	retq
.Ltmp17:
.Lfunc_end1:
	.size	_Z11writeoutputPfiiPc, .Lfunc_end1-_Z11writeoutputPfiiPc
	.cfi_endproc
                                        # -- End function
	.globl	_Z9readinputPfiiPc              # -- Begin function _Z9readinputPfiiPc
	.p2align	4, 0x90
	.type	_Z9readinputPfiiPc,@function
_Z9readinputPfiiPc:                     # @_Z9readinputPfiiPc
.Lfunc_begin2:
	.loc	1 63 0                          # ./hotspot_simplified.cu:63:0
	.cfi_startproc
# %bb.0:                                # %entry
	pushq	%rbp
	.cfi_def_cfa_offset 16
	.cfi_offset %rbp, -16
	movq	%rsp, %rbp
	.cfi_def_cfa_register %rbp
	subq	$320, %rsp                      # imm = 0x140
	movq	%rdi, -8(%rbp)
	movl	%esi, -12(%rbp)
	movl	%edx, -16(%rbp)
	movq	%rcx, -24(%rbp)
.Ltmp18:
	.loc	1 70 19 prologue_end            # ./hotspot_simplified.cu:70:19
	movq	-24(%rbp), %rdi
	.loc	1 70 13 is_stmt 0               # ./hotspot_simplified.cu:70:13
	leaq	.L.str.4(%rip), %rsi
	callq	fopen@PLT
	.loc	1 70 11                         # ./hotspot_simplified.cu:70:11
	movq	%rax, -40(%rbp)
	.loc	1 70 31                         # ./hotspot_simplified.cu:70:31
	cmpq	$0, %rax
.Ltmp19:
	.loc	1 70 7                          # ./hotspot_simplified.cu:70:7
	jne	.LBB2_2
# %bb.1:                                # %if.then
.Ltmp20:
	.loc	1 71 5 is_stmt 1                # ./hotspot_simplified.cu:71:5
	leaq	.L.str.2(%rip), %rdi
	movb	$0, %al
	callq	printf@PLT
.Ltmp21:
.LBB2_2:                                # %if.end
	.loc	1 73 10                         # ./hotspot_simplified.cu:73:10
	movl	$0, -28(%rbp)
.LBB2_3:                                # %for.cond
                                        # =>This Loop Header: Depth=1
                                        #     Child Loop BB2_5 Depth 2
.Ltmp22:
	.loc	1 73 15 is_stmt 0               # ./hotspot_simplified.cu:73:15
	movl	-28(%rbp), %eax
	.loc	1 73 20                         # ./hotspot_simplified.cu:73:20
	movl	-12(%rbp), %ecx
	.loc	1 73 30                         # ./hotspot_simplified.cu:73:30
	subl	$1, %ecx
	.loc	1 73 17                         # ./hotspot_simplified.cu:73:17
	cmpl	%ecx, %eax
.Ltmp23:
	.loc	1 73 3                          # ./hotspot_simplified.cu:73:3
	jg	.LBB2_14
# %bb.4:                                # %for.body
                                        #   in Loop: Header=BB2_3 Depth=1
.Ltmp24:
	.loc	1 74 12 is_stmt 1               # ./hotspot_simplified.cu:74:12
	movl	$0, -32(%rbp)
.LBB2_5:                                # %for.cond3
                                        #   Parent Loop BB2_3 Depth=1
                                        # =>  This Inner Loop Header: Depth=2
.Ltmp25:
	.loc	1 74 17 is_stmt 0               # ./hotspot_simplified.cu:74:17
	movl	-32(%rbp), %eax
	.loc	1 74 22                         # ./hotspot_simplified.cu:74:22
	movl	-16(%rbp), %ecx
	.loc	1 74 32                         # ./hotspot_simplified.cu:74:32
	subl	$1, %ecx
	.loc	1 74 19                         # ./hotspot_simplified.cu:74:19
	cmpl	%ecx, %eax
.Ltmp26:
	.loc	1 74 5                          # ./hotspot_simplified.cu:74:5
	jg	.LBB2_12
# %bb.6:                                # %for.body6
                                        #   in Loop: Header=BB2_5 Depth=2
.Ltmp27:
	.loc	1 75 13 is_stmt 1               # ./hotspot_simplified.cu:75:13
	leaq	-304(%rbp), %rdi
	.loc	1 75 23 is_stmt 0               # ./hotspot_simplified.cu:75:23
	movq	-40(%rbp), %rdx
	.loc	1 75 7                          # ./hotspot_simplified.cu:75:7
	movl	$256, %esi                      # imm = 0x100
	callq	fgets@PLT
.Ltmp28:
	.loc	1 76 16 is_stmt 1               # ./hotspot_simplified.cu:76:16
	movq	-40(%rbp), %rdi
	.loc	1 76 11 is_stmt 0               # ./hotspot_simplified.cu:76:11
	callq	feof@PLT
	cmpl	$0, %eax
.Ltmp29:
	.loc	1 76 11                         # ./hotspot_simplified.cu:76:11
	je	.LBB2_8
# %bb.7:                                # %if.then9
                                        #   in Loop: Header=BB2_5 Depth=2
.Ltmp30:
	.loc	1 77 9 is_stmt 1                # ./hotspot_simplified.cu:77:9
	leaq	.L.str.5(%rip), %rdi
	callq	_Z5fatalPc
.Ltmp31:
.LBB2_8:                                # %if.end10
                                        #   in Loop: Header=BB2_5 Depth=2
	.loc	1 80 19                         # ./hotspot_simplified.cu:80:19
	leaq	-304(%rbp), %rdi
	.loc	1 80 12 is_stmt 0               # ./hotspot_simplified.cu:80:12
	leaq	.L.str.6(%rip), %rsi
	leaq	-308(%rbp), %rdx
	movb	$0, %al
	callq	__isoc99_sscanf@PLT
	.loc	1 80 36                         # ./hotspot_simplified.cu:80:36
	cmpl	$1, %eax
.Ltmp32:
	.loc	1 80 11                         # ./hotspot_simplified.cu:80:11
	je	.LBB2_10
# %bb.9:                                # %if.then14
                                        #   in Loop: Header=BB2_5 Depth=2
.Ltmp33:
	.loc	1 81 9 is_stmt 1                # ./hotspot_simplified.cu:81:9
	leaq	.L.str.7(%rip), %rdi
	callq	_Z5fatalPc
.Ltmp34:
.LBB2_10:                               # %if.end15
                                        #   in Loop: Header=BB2_5 Depth=2
	.loc	1 82 33                         # ./hotspot_simplified.cu:82:33
	movss	-308(%rbp), %xmm0               # xmm0 = mem[0],zero,zero,zero
	.loc	1 82 7 is_stmt 0                # ./hotspot_simplified.cu:82:7
	movq	-8(%rbp), %rax
	.loc	1 82 12                         # ./hotspot_simplified.cu:82:12
	movl	-28(%rbp), %ecx
	.loc	1 82 14                         # ./hotspot_simplified.cu:82:14
	imull	-16(%rbp), %ecx
	.loc	1 82 26                         # ./hotspot_simplified.cu:82:26
	addl	-32(%rbp), %ecx
	.loc	1 82 7                          # ./hotspot_simplified.cu:82:7
	movslq	%ecx, %rcx
	.loc	1 82 31                         # ./hotspot_simplified.cu:82:31
	movss	%xmm0, (%rax,%rcx,4)
.Ltmp35:
# %bb.11:                               # %for.inc
                                        #   in Loop: Header=BB2_5 Depth=2
	.loc	1 74 38 is_stmt 1               # ./hotspot_simplified.cu:74:38
	movl	-32(%rbp), %eax
	addl	$1, %eax
	movl	%eax, -32(%rbp)
	.loc	1 74 5 is_stmt 0                # ./hotspot_simplified.cu:74:5
	jmp	.LBB2_5
.Ltmp36:
.LBB2_12:                               # %for.end
                                        #   in Loop: Header=BB2_3 Depth=1
	.loc	1 83 5 is_stmt 1                # ./hotspot_simplified.cu:83:5
	jmp	.LBB2_13
.Ltmp37:
.LBB2_13:                               # %for.inc16
                                        #   in Loop: Header=BB2_3 Depth=1
	.loc	1 73 36                         # ./hotspot_simplified.cu:73:36
	movl	-28(%rbp), %eax
	addl	$1, %eax
	movl	%eax, -28(%rbp)
	.loc	1 73 3 is_stmt 0                # ./hotspot_simplified.cu:73:3
	jmp	.LBB2_3
.Ltmp38:
.LBB2_14:                               # %for.end18
	.loc	1 85 10 is_stmt 1               # ./hotspot_simplified.cu:85:10
	movq	-40(%rbp), %rdi
	.loc	1 85 3 is_stmt 0                # ./hotspot_simplified.cu:85:3
	callq	fclose@PLT
	.loc	1 86 1 epilogue_begin is_stmt 1 # ./hotspot_simplified.cu:86:1
	addq	$320, %rsp                      # imm = 0x140
	popq	%rbp
	.cfi_def_cfa %rsp, 8
	retq
.Ltmp39:
.Lfunc_end2:
	.size	_Z9readinputPfiiPc, .Lfunc_end2-_Z9readinputPfiiPc
	.cfi_endproc
                                        # -- End function
	.globl	_Z29__device_stub__calculate_tempiPfS_S_iiiiffffff # -- Begin function _Z29__device_stub__calculate_tempiPfS_S_iiiiffffff
	.p2align	4, 0x90
	.type	_Z29__device_stub__calculate_tempiPfS_S_iiiiffffff,@function
_Z29__device_stub__calculate_tempiPfS_S_iiiiffffff: # @_Z29__device_stub__calculate_tempiPfS_S_iiiiffffff
.Lfunc_begin3:
	.loc	1 102 0                         # ./hotspot_simplified.cu:102:0
	.cfi_startproc
# %bb.0:                                # %entry
	pushq	%rbp
	.cfi_def_cfa_offset 16
	.cfi_offset %rbp, -16
	movq	%rsp, %rbp
	.cfi_def_cfa_register %rbp
	subq	$272, %rsp                      # imm = 0x110
	movl	24(%rbp), %eax
	movl	16(%rbp), %eax
	movl	%edi, -4(%rbp)
	movq	%rsi, -16(%rbp)
	movq	%rdx, -24(%rbp)
	movq	%rcx, -32(%rbp)
	movl	%r8d, -36(%rbp)
	movl	%r9d, -40(%rbp)
	movss	%xmm0, -44(%rbp)
	movss	%xmm1, -48(%rbp)
	movss	%xmm2, -52(%rbp)
	movss	%xmm3, -56(%rbp)
	movss	%xmm4, -60(%rbp)
	movss	%xmm5, -64(%rbp)
.Ltmp40:
	.loc	1 102 52 prologue_end           # ./hotspot_simplified.cu:102:52
	leaq	-4(%rbp), %rax
	movq	%rax, -256(%rbp)
	leaq	-16(%rbp), %rax
	movq	%rax, -248(%rbp)
	leaq	-24(%rbp), %rax
	movq	%rax, -240(%rbp)
	leaq	-32(%rbp), %rax
	movq	%rax, -232(%rbp)
	leaq	-36(%rbp), %rax
	movq	%rax, -224(%rbp)
	leaq	-40(%rbp), %rax
	movq	%rax, -216(%rbp)
	leaq	16(%rbp), %rax
	movq	%rax, -208(%rbp)
	leaq	24(%rbp), %rax
	movq	%rax, -200(%rbp)
	leaq	-44(%rbp), %rax
	movq	%rax, -192(%rbp)
	leaq	-48(%rbp), %rax
	movq	%rax, -184(%rbp)
	leaq	-52(%rbp), %rax
	movq	%rax, -176(%rbp)
	leaq	-56(%rbp), %rax
	movq	%rax, -168(%rbp)
	leaq	-60(%rbp), %rax
	movq	%rax, -160(%rbp)
	leaq	-64(%rbp), %rax
	movq	%rax, -152(%rbp)
	leaq	-80(%rbp), %rdi
	leaq	-96(%rbp), %rsi
	leaq	-104(%rbp), %rdx
	leaq	-112(%rbp), %rcx
	callq	__cudaPopCallConfiguration@PLT
	movq	-104(%rbp), %r10
	movq	-112(%rbp), %rax
	movq	-80(%rbp), %rcx
	movq	%rcx, -128(%rbp)
	movl	-72(%rbp), %ecx
	movl	%ecx, -120(%rbp)
	movq	-128(%rbp), %rsi
	movl	-120(%rbp), %edx
	movq	-96(%rbp), %rcx
	movq	%rcx, -144(%rbp)
	movl	-88(%rbp), %ecx
	movl	%ecx, -136(%rbp)
	movq	-144(%rbp), %rcx
	movl	-136(%rbp), %r8d
	leaq	_Z29__device_stub__calculate_tempiPfS_S_iiiiffffff(%rip), %rdi
	leaq	-256(%rbp), %r9
	movq	%r10, (%rsp)
	movq	%rax, 8(%rsp)
	callq	cudaLaunchKernel@PLT
# %bb.1:                                # %setup.end
	.loc	1 181 1 epilogue_begin          # ./hotspot_simplified.cu:181:1
	addq	$272, %rsp                      # imm = 0x110
	popq	%rbp
	.cfi_def_cfa %rsp, 8
	retq
.Ltmp41:
.Lfunc_end3:
	.size	_Z29__device_stub__calculate_tempiPfS_S_iiiiffffff, .Lfunc_end3-_Z29__device_stub__calculate_tempiPfS_S_iiiiffffff
	.cfi_endproc
                                        # -- End function
	.section	.rodata.cst4,"aM",@progbits,4
	.p2align	2, 0x0                          # -- Begin function _Z17compute_tran_tempPfPS_iiiiiiii
.LCPI4_0:
	.long	0x3a83126f                      # float 0.00100000005
.LCPI4_5:
	.long	0x42c80000                      # float 100
	.section	.rodata.cst8,"aM",@progbits,8
	.p2align	3, 0x0
.LCPI4_1:
	.quad	0x3f50624dd2f1a9fc              # double 0.001
.LCPI4_2:
	.quad	0x4146e36000000000              # double 3.0E+6
.LCPI4_3:
	.quad	0x413ab3f000000000              # double 1.75E+6
.LCPI4_4:
	.quad	0x3fe0000000000000              # double 0.5
.LCPI4_6:
	.quad	0x4069000000000000              # double 200
.LCPI4_7:
	.quad	0x412ab3f000000000              # double 875000
	.text
	.globl	_Z17compute_tran_tempPfPS_iiiiiiii
	.p2align	4, 0x90
	.type	_Z17compute_tran_tempPfPS_iiiiiiii,@function
_Z17compute_tran_tempPfPS_iiiiiiii:     # @_Z17compute_tran_tempPfPS_iiiiiiii
.Lfunc_begin4:
	.loc	1 190 0                         # ./hotspot_simplified.cu:190:0
	.cfi_startproc
# %bb.0:                                # %entry
	pushq	%rbp
	.cfi_def_cfa_offset 16
	.cfi_offset %rbp, -16
	movq	%rsp, %rbp
	.cfi_def_cfa_register %rbp
	subq	$192, %rsp
	movl	40(%rbp), %eax
	movl	32(%rbp), %eax
	movl	24(%rbp), %eax
	movl	16(%rbp), %eax
	movq	%rdi, -8(%rbp)
	movq	%rsi, -16(%rbp)
	movl	%edx, -20(%rbp)
	movl	%ecx, -24(%rbp)
	movl	%r8d, -28(%rbp)
	movl	%r9d, -32(%rbp)
.Ltmp42:
	.loc	1 191 8 prologue_end            # ./hotspot_simplified.cu:191:8
	leaq	-44(%rbp), %rdi
	movl	$8, %edx
	movl	$1, %ecx
	movl	%edx, %esi
	callq	_ZN4dim3C2Ejjj
	.loc	1 192 16                        # ./hotspot_simplified.cu:192:16
	movl	16(%rbp), %esi
	.loc	1 192 27 is_stmt 0              # ./hotspot_simplified.cu:192:27
	movl	24(%rbp), %edx
	.loc	1 192 8                         # ./hotspot_simplified.cu:192:8
	leaq	-56(%rbp), %rdi
	movl	$1, %ecx
	callq	_ZN4dim3C2Ejjj
	.loc	1 194 23 is_stmt 1              # ./hotspot_simplified.cu:194:23
	movss	chip_height(%rip), %xmm0        # xmm0 = mem[0],zero,zero,zero
	.loc	1 194 37 is_stmt 0              # ./hotspot_simplified.cu:194:37
	cvtsi2ssl	-24(%rbp), %xmm1
	.loc	1 194 35                        # ./hotspot_simplified.cu:194:35
	divss	%xmm1, %xmm0
	.loc	1 194 9                         # ./hotspot_simplified.cu:194:9
	movss	%xmm0, -60(%rbp)
	.loc	1 195 22 is_stmt 1              # ./hotspot_simplified.cu:195:22
	movss	chip_width(%rip), %xmm0         # xmm0 = mem[0],zero,zero,zero
	.loc	1 195 35 is_stmt 0              # ./hotspot_simplified.cu:195:35
	cvtsi2ssl	-20(%rbp), %xmm1
	.loc	1 195 33                        # ./hotspot_simplified.cu:195:33
	divss	%xmm1, %xmm0
	.loc	1 195 9                         # ./hotspot_simplified.cu:195:9
	movss	%xmm0, -64(%rbp)
	.loc	1 197 30 is_stmt 1              # ./hotspot_simplified.cu:197:30
	movss	t_chip(%rip), %xmm0             # xmm0 = mem[0],zero,zero,zero
	cvtss2sd	%xmm0, %xmm1
	.loc	1 197 28 is_stmt 0              # ./hotspot_simplified.cu:197:28
	movsd	.LCPI4_7(%rip), %xmm0           # xmm0 = [8.75E+5,0.0E+0]
	mulsd	%xmm1, %xmm0
	.loc	1 197 39                        # ./hotspot_simplified.cu:197:39
	movss	-64(%rbp), %xmm1                # xmm1 = mem[0],zero,zero,zero
	cvtss2sd	%xmm1, %xmm1
	.loc	1 197 37                        # ./hotspot_simplified.cu:197:37
	mulsd	%xmm1, %xmm0
	.loc	1 197 52                        # ./hotspot_simplified.cu:197:52
	movss	-60(%rbp), %xmm1                # xmm1 = mem[0],zero,zero,zero
	cvtss2sd	%xmm1, %xmm1
	.loc	1 197 50                        # ./hotspot_simplified.cu:197:50
	mulsd	%xmm1, %xmm0
	.loc	1 197 15                        # ./hotspot_simplified.cu:197:15
	cvtsd2ss	%xmm0, %xmm0
	.loc	1 197 9                         # ./hotspot_simplified.cu:197:9
	movss	%xmm0, -68(%rbp)
	.loc	1 198 14 is_stmt 1              # ./hotspot_simplified.cu:198:14
	movss	-64(%rbp), %xmm0                # xmm0 = mem[0],zero,zero,zero
	cvtss2sd	%xmm0, %xmm0
	.loc	1 198 40 is_stmt 0              # ./hotspot_simplified.cu:198:40
	movss	t_chip(%rip), %xmm1             # xmm1 = mem[0],zero,zero,zero
	cvtss2sd	%xmm1, %xmm2
	.loc	1 198 38                        # ./hotspot_simplified.cu:198:38
	movsd	.LCPI4_6(%rip), %xmm1           # xmm1 = [2.0E+2,0.0E+0]
	mulsd	%xmm2, %xmm1
	.loc	1 198 49                        # ./hotspot_simplified.cu:198:49
	movss	-60(%rbp), %xmm2                # xmm2 = mem[0],zero,zero,zero
	cvtss2sd	%xmm2, %xmm2
	.loc	1 198 47                        # ./hotspot_simplified.cu:198:47
	mulsd	%xmm2, %xmm1
	.loc	1 198 25                        # ./hotspot_simplified.cu:198:25
	divsd	%xmm1, %xmm0
	.loc	1 198 14                        # ./hotspot_simplified.cu:198:14
	cvtsd2ss	%xmm0, %xmm0
	.loc	1 198 9                         # ./hotspot_simplified.cu:198:9
	movss	%xmm0, -72(%rbp)
	.loc	1 199 14 is_stmt 1              # ./hotspot_simplified.cu:199:14
	movss	-60(%rbp), %xmm0                # xmm0 = mem[0],zero,zero,zero
	cvtss2sd	%xmm0, %xmm0
	.loc	1 199 41 is_stmt 0              # ./hotspot_simplified.cu:199:41
	movss	t_chip(%rip), %xmm1             # xmm1 = mem[0],zero,zero,zero
	cvtss2sd	%xmm1, %xmm2
	.loc	1 199 39                        # ./hotspot_simplified.cu:199:39
	movsd	.LCPI4_6(%rip), %xmm1           # xmm1 = [2.0E+2,0.0E+0]
	mulsd	%xmm2, %xmm1
	.loc	1 199 50                        # ./hotspot_simplified.cu:199:50
	movss	-64(%rbp), %xmm2                # xmm2 = mem[0],zero,zero,zero
	cvtss2sd	%xmm2, %xmm2
	.loc	1 199 48                        # ./hotspot_simplified.cu:199:48
	mulsd	%xmm2, %xmm1
	.loc	1 199 26                        # ./hotspot_simplified.cu:199:26
	divsd	%xmm1, %xmm0
	.loc	1 199 14                        # ./hotspot_simplified.cu:199:14
	cvtsd2ss	%xmm0, %xmm0
	.loc	1 199 9                         # ./hotspot_simplified.cu:199:9
	movss	%xmm0, -76(%rbp)
	.loc	1 200 14 is_stmt 1              # ./hotspot_simplified.cu:200:14
	movss	t_chip(%rip), %xmm0             # xmm0 = mem[0],zero,zero,zero
	.loc	1 200 28 is_stmt 0              # ./hotspot_simplified.cu:200:28
	movss	.LCPI4_5(%rip), %xmm1           # xmm1 = [1.0E+2,0.0E+0,0.0E+0,0.0E+0]
	mulss	-60(%rbp), %xmm1
	.loc	1 200 42                        # ./hotspot_simplified.cu:200:42
	mulss	-64(%rbp), %xmm1
	.loc	1 200 21                        # ./hotspot_simplified.cu:200:21
	divss	%xmm1, %xmm0
	.loc	1 200 9                         # ./hotspot_simplified.cu:200:9
	movss	%xmm0, -80(%rbp)
	.loc	1 202 38 is_stmt 1              # ./hotspot_simplified.cu:202:38
	movss	t_chip(%rip), %xmm0             # xmm0 = mem[0],zero,zero,zero
	cvtss2sd	%xmm0, %xmm0
	.loc	1 202 36 is_stmt 0              # ./hotspot_simplified.cu:202:36
	movsd	.LCPI4_4(%rip), %xmm1           # xmm1 = [5.0E-1,0.0E+0]
	mulsd	%xmm0, %xmm1
	.loc	1 202 45                        # ./hotspot_simplified.cu:202:45
	movsd	.LCPI4_3(%rip), %xmm0           # xmm0 = [1.75E+6,0.0E+0]
	mulsd	%xmm0, %xmm1
	.loc	1 202 29                        # ./hotspot_simplified.cu:202:29
	movsd	.LCPI4_2(%rip), %xmm0           # xmm0 = [3.0E+6,0.0E+0]
	divsd	%xmm1, %xmm0
	.loc	1 202 21                        # ./hotspot_simplified.cu:202:21
	cvtsd2ss	%xmm0, %xmm0
	.loc	1 202 9                         # ./hotspot_simplified.cu:202:9
	movss	%xmm0, -84(%rbp)
	.loc	1 203 24 is_stmt 1              # ./hotspot_simplified.cu:203:24
	movss	-84(%rbp), %xmm0                # xmm0 = mem[0],zero,zero,zero
	cvtss2sd	%xmm0, %xmm1
	.loc	1 203 22 is_stmt 0              # ./hotspot_simplified.cu:203:22
	movsd	.LCPI4_1(%rip), %xmm0           # xmm0 = [1.0E-3,0.0E+0]
	divsd	%xmm1, %xmm0
	.loc	1 203 16                        # ./hotspot_simplified.cu:203:16
	cvtsd2ss	%xmm0, %xmm0
	.loc	1 203 9                         # ./hotspot_simplified.cu:203:9
	movss	%xmm0, -88(%rbp)
	.loc	1 206 16 is_stmt 1              # ./hotspot_simplified.cu:206:16
	movss	.LCPI4_0(%rip), %xmm0           # xmm0 = [1.00000005E-3,0.0E+0,0.0E+0,0.0E+0]
	movss	%xmm0, -96(%rbp)
	.loc	1 208 7                         # ./hotspot_simplified.cu:208:7
	movl	$1, -100(%rbp)
	.loc	1 208 16 is_stmt 0              # ./hotspot_simplified.cu:208:16
	movl	$0, -104(%rbp)
.Ltmp43:
	.loc	1 210 10 is_stmt 1              # ./hotspot_simplified.cu:210:10
	xorps	%xmm0, %xmm0
	movss	%xmm0, -92(%rbp)
.LBB4_1:                                # %for.cond
                                        # =>This Inner Loop Header: Depth=1
.Ltmp44:
	.loc	1 210 15 is_stmt 0              # ./hotspot_simplified.cu:210:15
	movss	-92(%rbp), %xmm1                # xmm1 = mem[0],zero,zero,zero
	.loc	1 210 19                        # ./hotspot_simplified.cu:210:19
	cvtsi2ssl	-28(%rbp), %xmm0
	.loc	1 210 17                        # ./hotspot_simplified.cu:210:17
	ucomiss	%xmm1, %xmm0
.Ltmp45:
	.loc	1 210 3                         # ./hotspot_simplified.cu:210:3
	jbe	.LBB4_9
# %bb.2:                                # %for.body
                                        #   in Loop: Header=BB4_1 Depth=1
.Ltmp46:
	.loc	1 211 16 is_stmt 1              # ./hotspot_simplified.cu:211:16
	movl	-100(%rbp), %eax
	.loc	1 211 9 is_stmt 0               # ./hotspot_simplified.cu:211:9
	movl	%eax, -108(%rbp)
	.loc	1 212 11 is_stmt 1              # ./hotspot_simplified.cu:212:11
	movl	-104(%rbp), %eax
	.loc	1 212 9 is_stmt 0               # ./hotspot_simplified.cu:212:9
	movl	%eax, -100(%rbp)
	.loc	1 213 11 is_stmt 1              # ./hotspot_simplified.cu:213:11
	movl	-108(%rbp), %eax
	.loc	1 213 9 is_stmt 0               # ./hotspot_simplified.cu:213:9
	movl	%eax, -104(%rbp)
	.loc	1 214 22 is_stmt 1              # ./hotspot_simplified.cu:214:22
	movq	-56(%rbp), %rax
	movq	%rax, -120(%rbp)
	movl	-48(%rbp), %eax
	movl	%eax, -112(%rbp)
	.loc	1 214 31 is_stmt 0              # ./hotspot_simplified.cu:214:31
	movq	-44(%rbp), %rax
	movq	%rax, -132(%rbp)
	movl	-36(%rbp), %eax
	movl	%eax, -124(%rbp)
	.loc	1 214 19                        # ./hotspot_simplified.cu:214:19
	movq	-120(%rbp), %rax
	movq	%rax, -148(%rbp)
	movl	-112(%rbp), %eax
	movl	%eax, -140(%rbp)
	movq	-148(%rbp), %rdi
	movl	-140(%rbp), %esi
	movq	-132(%rbp), %rax
	movq	%rax, -164(%rbp)
	movl	-124(%rbp), %eax
	movl	%eax, -156(%rbp)
	movq	-164(%rbp), %rdx
	movl	-156(%rbp), %ecx
	xorl	%eax, %eax
	movl	%eax, %r9d
	movq	%r9, %r8
	callq	__cudaPushCallConfiguration@PLT
	cmpl	$0, %eax
	.loc	1 214 5                         # ./hotspot_simplified.cu:214:5
	jne	.LBB4_7
# %bb.3:                                # %kcall.configok
                                        #   in Loop: Header=BB4_1 Depth=1
	.loc	1 215 10 is_stmt 1              # ./hotspot_simplified.cu:215:10
	cvtsi2ssl	-32(%rbp), %xmm1
	.loc	1 215 31 is_stmt 0              # ./hotspot_simplified.cu:215:31
	cvtsi2ssl	-28(%rbp), %xmm0
	.loc	1 215 48                        # ./hotspot_simplified.cu:215:48
	subss	-92(%rbp), %xmm0
	.loc	1 215 27                        # ./hotspot_simplified.cu:215:27
	ucomiss	%xmm1, %xmm0
	.loc	1 215 10                        # ./hotspot_simplified.cu:215:10
	jb	.LBB4_5
# %bb.4:                                # %cond.true
                                        #   in Loop: Header=BB4_1 Depth=1
	.loc	1 215 55                        # ./hotspot_simplified.cu:215:55
	cvtsi2ssl	-32(%rbp), %xmm0
	movss	%xmm0, -168(%rbp)               # 4-byte Spill
	.loc	1 215 10                        # ./hotspot_simplified.cu:215:10
	jmp	.LBB4_6
.LBB4_5:                                # %cond.false
                                        #   in Loop: Header=BB4_1 Depth=1
	.loc	1 215 75                        # ./hotspot_simplified.cu:215:75
	cvtsi2ssl	-28(%rbp), %xmm0
	.loc	1 215 92                        # ./hotspot_simplified.cu:215:92
	subss	-92(%rbp), %xmm0
	movss	%xmm0, -168(%rbp)               # 4-byte Spill
.LBB4_6:                                # %cond.end
                                        #   in Loop: Header=BB4_1 Depth=1
	.loc	1 0 92                          # ./hotspot_simplified.cu:0:92
	movss	-168(%rbp), %xmm0               # 4-byte Reload
                                        # xmm0 = mem[0],zero,zero,zero
	.loc	1 215 9                         # ./hotspot_simplified.cu:215:9
	cvttss2si	%xmm0, %edi
	.loc	1 215 99                        # ./hotspot_simplified.cu:215:99
	movq	-8(%rbp), %rsi
	.loc	1 215 112                       # ./hotspot_simplified.cu:215:112
	movq	-16(%rbp), %rax
	movslq	-100(%rbp), %rcx
	movq	(%rax,%rcx,8), %rdx
	.loc	1 216 9 is_stmt 1               # ./hotspot_simplified.cu:216:9
	movq	-16(%rbp), %rax
	movslq	-104(%rbp), %rcx
	movq	(%rax,%rcx,8), %rcx
	.loc	1 216 26 is_stmt 0              # ./hotspot_simplified.cu:216:26
	movl	-20(%rbp), %r8d
	.loc	1 216 31                        # ./hotspot_simplified.cu:216:31
	movl	-24(%rbp), %r9d
	.loc	1 216 36                        # ./hotspot_simplified.cu:216:36
	movl	32(%rbp), %r10d
	.loc	1 216 48                        # ./hotspot_simplified.cu:216:48
	movl	40(%rbp), %eax
	.loc	1 216 60                        # ./hotspot_simplified.cu:216:60
	movss	-68(%rbp), %xmm0                # xmm0 = mem[0],zero,zero,zero
	.loc	1 216 65                        # ./hotspot_simplified.cu:216:65
	movss	-72(%rbp), %xmm1                # xmm1 = mem[0],zero,zero,zero
	.loc	1 216 69                        # ./hotspot_simplified.cu:216:69
	movss	-76(%rbp), %xmm2                # xmm2 = mem[0],zero,zero,zero
	.loc	1 216 73                        # ./hotspot_simplified.cu:216:73
	movss	-80(%rbp), %xmm3                # xmm3 = mem[0],zero,zero,zero
	.loc	1 217 9 is_stmt 1               # ./hotspot_simplified.cu:217:9
	movss	-88(%rbp), %xmm4                # xmm4 = mem[0],zero,zero,zero
	.loc	1 217 15 is_stmt 0              # ./hotspot_simplified.cu:217:15
	movss	-96(%rbp), %xmm5                # xmm5 = mem[0],zero,zero,zero
	.loc	1 214 5 is_stmt 1               # ./hotspot_simplified.cu:214:5
	movl	%r10d, (%rsp)
	movl	%eax, 8(%rsp)
	callq	_Z29__device_stub__calculate_tempiPfS_S_iiiiffffff
.LBB4_7:                                # %kcall.end
                                        #   in Loop: Header=BB4_1 Depth=1
	.loc	1 218 5                         # ./hotspot_simplified.cu:218:5
	callq	cudaDeviceSynchronize@PLT
.Ltmp47:
# %bb.8:                                # %for.inc
                                        #   in Loop: Header=BB4_1 Depth=1
	.loc	1 210 42                        # ./hotspot_simplified.cu:210:42
	cvtsi2ssl	-32(%rbp), %xmm0
	.loc	1 210 39 is_stmt 0              # ./hotspot_simplified.cu:210:39
	addss	-92(%rbp), %xmm0
	movss	%xmm0, -92(%rbp)
	.loc	1 210 3                         # ./hotspot_simplified.cu:210:3
	jmp	.LBB4_1
.Ltmp48:
.LBB4_9:                                # %for.end
	.loc	1 220 10 is_stmt 1              # ./hotspot_simplified.cu:220:10
	movl	-104(%rbp), %eax
	.loc	1 220 3 epilogue_begin is_stmt 0 # ./hotspot_simplified.cu:220:3
	addq	$192, %rsp
	popq	%rbp
	.cfi_def_cfa %rsp, 8
	retq
.Ltmp49:
.Lfunc_end4:
	.size	_Z17compute_tran_tempPfPS_iiiiiiii, .Lfunc_end4-_Z17compute_tran_tempPfPS_iiiiiiii
	.cfi_endproc
                                        # -- End function
	.section	.text._ZN4dim3C2Ejjj,"axG",@progbits,_ZN4dim3C2Ejjj,comdat
	.weak	_ZN4dim3C2Ejjj                  # -- Begin function _ZN4dim3C2Ejjj
	.p2align	4, 0x90
	.type	_ZN4dim3C2Ejjj,@function
_ZN4dim3C2Ejjj:                         # @_ZN4dim3C2Ejjj
.Lfunc_begin5:
	.loc	4 423 0 is_stmt 1               # cuda-12.1/include/vector_types.h:423:0
	.cfi_startproc
# %bb.0:                                # %entry
	pushq	%rbp
	.cfi_def_cfa_offset 16
	.cfi_offset %rbp, -16
	movq	%rsp, %rbp
	.cfi_def_cfa_register %rbp
	movq	%rdi, -8(%rbp)
	movl	%esi, -12(%rbp)
	movl	%edx, -16(%rbp)
	movl	%ecx, -20(%rbp)
	movq	-8(%rbp), %rax
.Ltmp50:
	.loc	4 423 133 prologue_end          # cuda-12.1/include/vector_types.h:423:133
	movl	-12(%rbp), %ecx
	.loc	4 423 131 is_stmt 0             # cuda-12.1/include/vector_types.h:423:131
	movl	%ecx, (%rax)
	.loc	4 423 140                       # cuda-12.1/include/vector_types.h:423:140
	movl	-16(%rbp), %ecx
	.loc	4 423 138                       # cuda-12.1/include/vector_types.h:423:138
	movl	%ecx, 4(%rax)
	.loc	4 423 147                       # cuda-12.1/include/vector_types.h:423:147
	movl	-20(%rbp), %ecx
	.loc	4 423 145                       # cuda-12.1/include/vector_types.h:423:145
	movl	%ecx, 8(%rax)
	.loc	4 423 152 epilogue_begin        # cuda-12.1/include/vector_types.h:423:152
	popq	%rbp
	.cfi_def_cfa %rsp, 8
	retq
.Ltmp51:
.Lfunc_end5:
	.size	_ZN4dim3C2Ejjj, .Lfunc_end5-_ZN4dim3C2Ejjj
	.cfi_endproc
                                        # -- End function
	.text
	.globl	_Z5usageiPPc                    # -- Begin function _Z5usageiPPc
	.p2align	4, 0x90
	.type	_Z5usageiPPc,@function
_Z5usageiPPc:                           # @_Z5usageiPPc
.Lfunc_begin6:
	.loc	1 223 0 is_stmt 1               # ./hotspot_simplified.cu:223:0
	.cfi_startproc
# %bb.0:                                # %entry
	pushq	%rbp
	.cfi_def_cfa_offset 16
	.cfi_offset %rbp, -16
	movq	%rsp, %rbp
	.cfi_def_cfa_register %rbp
	subq	$16, %rsp
	movl	%edi, -4(%rbp)
	movq	%rsi, -16(%rbp)
.Ltmp52:
	.loc	1 224 11 prologue_end           # ./hotspot_simplified.cu:224:11
	movq	stderr@GOTPCREL(%rip), %rax
	movq	(%rax), %rdi
	.loc	1 227 11                        # ./hotspot_simplified.cu:227:11
	movq	-16(%rbp), %rax
	movq	(%rax), %rdx
	.loc	1 224 3                         # ./hotspot_simplified.cu:224:3
	leaq	.L.str.8(%rip), %rsi
	movb	$0, %al
	callq	fprintf@PLT
	.loc	1 228 11                        # ./hotspot_simplified.cu:228:11
	movq	stderr@GOTPCREL(%rip), %rax
	movq	(%rax), %rdi
	.loc	1 228 3 is_stmt 0               # ./hotspot_simplified.cu:228:3
	leaq	.L.str.9(%rip), %rsi
	movb	$0, %al
	callq	fprintf@PLT
	.loc	1 230 11 is_stmt 1              # ./hotspot_simplified.cu:230:11
	movq	stderr@GOTPCREL(%rip), %rax
	movq	(%rax), %rdi
	.loc	1 230 3 is_stmt 0               # ./hotspot_simplified.cu:230:3
	leaq	.L.str.10(%rip), %rsi
	movb	$0, %al
	callq	fprintf@PLT
	.loc	1 231 11 is_stmt 1              # ./hotspot_simplified.cu:231:11
	movq	stderr@GOTPCREL(%rip), %rax
	movq	(%rax), %rdi
	.loc	1 231 3 is_stmt 0               # ./hotspot_simplified.cu:231:3
	leaq	.L.str.11(%rip), %rsi
	movb	$0, %al
	callq	fprintf@PLT
	.loc	1 232 11 is_stmt 1              # ./hotspot_simplified.cu:232:11
	movq	stderr@GOTPCREL(%rip), %rax
	movq	(%rax), %rdi
	.loc	1 232 3 is_stmt 0               # ./hotspot_simplified.cu:232:3
	leaq	.L.str.12(%rip), %rsi
	movb	$0, %al
	callq	fprintf@PLT
	.loc	1 234 11 is_stmt 1              # ./hotspot_simplified.cu:234:11
	movq	stderr@GOTPCREL(%rip), %rax
	movq	(%rax), %rdi
	.loc	1 234 3 is_stmt 0               # ./hotspot_simplified.cu:234:3
	leaq	.L.str.13(%rip), %rsi
	movb	$0, %al
	callq	fprintf@PLT
	.loc	1 236 11 is_stmt 1              # ./hotspot_simplified.cu:236:11
	movq	stderr@GOTPCREL(%rip), %rax
	movq	(%rax), %rdi
	.loc	1 236 3 is_stmt 0               # ./hotspot_simplified.cu:236:3
	leaq	.L.str.14(%rip), %rsi
	movb	$0, %al
	callq	fprintf@PLT
	.loc	1 237 3 is_stmt 1               # ./hotspot_simplified.cu:237:3
	movl	$1, %edi
	callq	exit@PLT
.Ltmp53:
.Lfunc_end6:
	.size	_Z5usageiPPc, .Lfunc_end6-_Z5usageiPPc
	.cfi_endproc
                                        # -- End function
	.globl	main                            # -- Begin function main
	.p2align	4, 0x90
	.type	main,@function
main:                                   # @main
.Lfunc_begin7:
	.loc	1 240 0                         # ./hotspot_simplified.cu:240:0
	.cfi_startproc
# %bb.0:                                # %entry
	pushq	%rbp
	.cfi_def_cfa_offset 16
	.cfi_offset %rbp, -16
	movq	%rsp, %rbp
	.cfi_def_cfa_register %rbp
	subq	$16, %rsp
	movl	$0, -4(%rbp)
	movl	%edi, -8(%rbp)
	movq	%rsi, -16(%rbp)
.Ltmp54:
	.loc	1 241 3 prologue_end            # ./hotspot_simplified.cu:241:3
	xorl	%edi, %edi
	callq	cudaSetDevice@PLT
	.loc	1 242 3                         # ./hotspot_simplified.cu:242:3
	leaq	.L.str.15(%rip), %rdi
	movl	$8, %edx
	movl	%edx, %esi
	movb	$0, %al
	callq	printf@PLT
	.loc	1 244 7                         # ./hotspot_simplified.cu:244:7
	movl	-8(%rbp), %edi
	.loc	1 244 13 is_stmt 0              # ./hotspot_simplified.cu:244:13
	movq	-16(%rbp), %rsi
	.loc	1 244 3                         # ./hotspot_simplified.cu:244:3
	callq	_Z3runiPPc
	.loc	1 246 3 is_stmt 1               # ./hotspot_simplified.cu:246:3
	xorl	%eax, %eax
	.loc	1 246 3 epilogue_begin is_stmt 0 # ./hotspot_simplified.cu:246:3
	addq	$16, %rsp
	popq	%rbp
	.cfi_def_cfa %rsp, 8
	retq
.Ltmp55:
.Lfunc_end7:
	.size	main, .Lfunc_end7-main
	.cfi_endproc
                                        # -- End function
	.globl	_Z3runiPPc                      # -- Begin function _Z3runiPPc
	.p2align	4, 0x90
	.type	_Z3runiPPc,@function
_Z3runiPPc:                             # @_Z3runiPPc
.Lfunc_begin8:
	.loc	1 249 0 is_stmt 1               # ./hotspot_simplified.cu:249:0
	.cfi_startproc
# %bb.0:                                # %entry
	pushq	%rbp
	.cfi_def_cfa_offset 16
	.cfi_offset %rbp, -16
	movq	%rsp, %rbp
	.cfi_def_cfa_register %rbp
	pushq	%rbx
	subq	$200, %rsp
	.cfi_offset %rbx, -24
	movl	%edi, -12(%rbp)
	movq	%rsi, -24(%rbp)
.Ltmp56:
	.loc	1 255 7 prologue_end            # ./hotspot_simplified.cu:255:7
	movl	$60, -92(%rbp)
	.loc	1 256 7                         # ./hotspot_simplified.cu:256:7
	movl	$1, -96(%rbp)
.Ltmp57:
	.loc	1 258 12                        # ./hotspot_simplified.cu:258:12
	cmpl	$7, -12(%rbp)
.Ltmp58:
	.loc	1 258 7 is_stmt 0               # ./hotspot_simplified.cu:258:7
	je	.LBB8_2
# %bb.1:                                # %if.then
.Ltmp59:
	.loc	1 259 11 is_stmt 1              # ./hotspot_simplified.cu:259:11
	movl	-12(%rbp), %edi
	.loc	1 259 17 is_stmt 0              # ./hotspot_simplified.cu:259:17
	movq	-24(%rbp), %rsi
	.loc	1 259 5                         # ./hotspot_simplified.cu:259:5
	callq	_Z5usageiPPc
.Ltmp60:
.LBB8_2:                                # %if.end
	.loc	1 260 25 is_stmt 1              # ./hotspot_simplified.cu:260:25
	movq	-24(%rbp), %rax
	movq	8(%rax), %rdi
	.loc	1 260 20 is_stmt 0              # ./hotspot_simplified.cu:260:20
	callq	atoi@PLT
	.loc	1 260 18                        # ./hotspot_simplified.cu:260:18
	movl	%eax, -32(%rbp)
	.loc	1 260 35                        # ./hotspot_simplified.cu:260:35
	cmpl	$0, %eax
	.loc	1 260 40                        # ./hotspot_simplified.cu:260:40
	jle	.LBB8_6
# %bb.3:                                # %lor.lhs.false
	.loc	1 260 61                        # ./hotspot_simplified.cu:260:61
	movq	-24(%rbp), %rax
	movq	8(%rax), %rdi
	.loc	1 260 56                        # ./hotspot_simplified.cu:260:56
	callq	atoi@PLT
	.loc	1 260 54                        # ./hotspot_simplified.cu:260:54
	movl	%eax, -36(%rbp)
	.loc	1 260 71                        # ./hotspot_simplified.cu:260:71
	cmpl	$0, %eax
	.loc	1 260 76                        # ./hotspot_simplified.cu:260:76
	jle	.LBB8_6
# %bb.4:                                # %lor.lhs.false5
	.loc	1 261 30 is_stmt 1              # ./hotspot_simplified.cu:261:30
	movq	-24(%rbp), %rax
	movq	16(%rax), %rdi
	.loc	1 261 25 is_stmt 0              # ./hotspot_simplified.cu:261:25
	callq	atoi@PLT
	.loc	1 261 23                        # ./hotspot_simplified.cu:261:23
	movl	%eax, -96(%rbp)
	.loc	1 261 40                        # ./hotspot_simplified.cu:261:40
	cmpl	$0, %eax
	.loc	1 261 45                        # ./hotspot_simplified.cu:261:45
	jle	.LBB8_6
# %bb.5:                                # %lor.lhs.false9
	.loc	1 262 32 is_stmt 1              # ./hotspot_simplified.cu:262:32
	movq	-24(%rbp), %rax
	movq	24(%rax), %rdi
	.loc	1 262 27 is_stmt 0              # ./hotspot_simplified.cu:262:27
	callq	atoi@PLT
	.loc	1 262 25                        # ./hotspot_simplified.cu:262:25
	movl	%eax, -92(%rbp)
	.loc	1 262 42                        # ./hotspot_simplified.cu:262:42
	cmpl	$0, %eax
.Ltmp61:
	.loc	1 260 7 is_stmt 1               # ./hotspot_simplified.cu:260:7
	jg	.LBB8_7
.LBB8_6:                                # %if.then13
.Ltmp62:
	.loc	1 263 11                        # ./hotspot_simplified.cu:263:11
	movl	-12(%rbp), %edi
	.loc	1 263 17 is_stmt 0              # ./hotspot_simplified.cu:263:17
	movq	-24(%rbp), %rsi
	.loc	1 263 5                         # ./hotspot_simplified.cu:263:5
	callq	_Z5usageiPPc
.Ltmp63:
.LBB8_7:                                # %if.end14
	.loc	1 265 11 is_stmt 1              # ./hotspot_simplified.cu:265:11
	movq	-24(%rbp), %rax
	movq	32(%rax), %rax
	.loc	1 265 9 is_stmt 0               # ./hotspot_simplified.cu:265:9
	movq	%rax, -72(%rbp)
	.loc	1 266 11 is_stmt 1              # ./hotspot_simplified.cu:266:11
	movq	-24(%rbp), %rax
	movq	40(%rax), %rax
	.loc	1 266 9 is_stmt 0               # ./hotspot_simplified.cu:266:9
	movq	%rax, -80(%rbp)
	.loc	1 267 11 is_stmt 1              # ./hotspot_simplified.cu:267:11
	movq	-24(%rbp), %rax
	movq	48(%rax), %rax
	.loc	1 267 9 is_stmt 0               # ./hotspot_simplified.cu:267:9
	movq	%rax, -88(%rbp)
	.loc	1 269 10 is_stmt 1              # ./hotspot_simplified.cu:269:10
	movl	-32(%rbp), %eax
	.loc	1 269 20 is_stmt 0              # ./hotspot_simplified.cu:269:20
	imull	-36(%rbp), %eax
	.loc	1 269 8                         # ./hotspot_simplified.cu:269:8
	movl	%eax, -28(%rbp)
	.loc	1 274 21 is_stmt 1              # ./hotspot_simplified.cu:274:21
	movl	-96(%rbp), %eax
	.loc	1 274 36 is_stmt 0              # ./hotspot_simplified.cu:274:36
	shll	%eax
	.loc	1 274 39                        # ./hotspot_simplified.cu:274:39
	movl	$2, %ecx
	cltd
	idivl	%ecx
	.loc	1 274 7                         # ./hotspot_simplified.cu:274:7
	movl	%eax, -100(%rbp)
	.loc	1 275 21 is_stmt 1              # ./hotspot_simplified.cu:275:21
	movl	-96(%rbp), %eax
	.loc	1 275 36 is_stmt 0              # ./hotspot_simplified.cu:275:36
	shll	%eax
	.loc	1 275 39                        # ./hotspot_simplified.cu:275:39
	movl	$2, %ecx
	cltd
	idivl	%ecx
	.loc	1 275 7                         # ./hotspot_simplified.cu:275:7
	movl	%eax, -104(%rbp)
	.loc	1 276 28 is_stmt 1              # ./hotspot_simplified.cu:276:28
	movl	-96(%rbp), %ecx
	.loc	1 276 43 is_stmt 0              # ./hotspot_simplified.cu:276:43
	shll	%ecx
	.loc	1 276 25                        # ./hotspot_simplified.cu:276:25
	movl	$8, %eax
	subl	%ecx, %eax
	.loc	1 276 7                         # ./hotspot_simplified.cu:276:7
	movl	%eax, -108(%rbp)
	.loc	1 277 28 is_stmt 1              # ./hotspot_simplified.cu:277:28
	movl	-96(%rbp), %ecx
	.loc	1 277 43 is_stmt 0              # ./hotspot_simplified.cu:277:43
	shll	%ecx
	.loc	1 277 25                        # ./hotspot_simplified.cu:277:25
	movl	$8, %eax
	subl	%ecx, %eax
	.loc	1 277 7                         # ./hotspot_simplified.cu:277:7
	movl	%eax, -112(%rbp)
	.loc	1 279 7 is_stmt 1               # ./hotspot_simplified.cu:279:7
	movl	-36(%rbp), %eax
	.loc	1 279 17 is_stmt 0              # ./hotspot_simplified.cu:279:17
	cltd
	idivl	-108(%rbp)
	movl	%eax, -164(%rbp)                # 4-byte Spill
	.loc	1 279 37                        # ./hotspot_simplified.cu:279:37
	movl	-36(%rbp), %eax
	.loc	1 279 47                        # ./hotspot_simplified.cu:279:47
	cltd
	idivl	-108(%rbp)
	movl	-164(%rbp), %eax                # 4-byte Reload
	movl	%edx, %esi
	.loc	1 279 36                        # ./hotspot_simplified.cu:279:36
	movl	$1, %ecx
	xorl	%edx, %edx
	.loc	1 279 63                        # ./hotspot_simplified.cu:279:63
	cmpl	$0, %esi
	.loc	1 279 36                        # ./hotspot_simplified.cu:279:36
	cmovel	%edx, %ecx
	.loc	1 279 33                        # ./hotspot_simplified.cu:279:33
	addl	%ecx, %eax
	.loc	1 278 7 is_stmt 1               # ./hotspot_simplified.cu:278:7
	movl	%eax, -116(%rbp)
	.loc	1 281 7                         # ./hotspot_simplified.cu:281:7
	movl	-32(%rbp), %eax
	.loc	1 281 17 is_stmt 0              # ./hotspot_simplified.cu:281:17
	cltd
	idivl	-112(%rbp)
	movl	%eax, -160(%rbp)                # 4-byte Spill
	.loc	1 281 37                        # ./hotspot_simplified.cu:281:37
	movl	-32(%rbp), %eax
	.loc	1 281 47                        # ./hotspot_simplified.cu:281:47
	cltd
	idivl	-112(%rbp)
	movl	-160(%rbp), %eax                # 4-byte Reload
	movl	%edx, %esi
	.loc	1 281 36                        # ./hotspot_simplified.cu:281:36
	movl	$1, %ecx
	xorl	%edx, %edx
	.loc	1 281 63                        # ./hotspot_simplified.cu:281:63
	cmpl	$0, %esi
	.loc	1 281 36                        # ./hotspot_simplified.cu:281:36
	cmovel	%edx, %ecx
	.loc	1 281 33                        # ./hotspot_simplified.cu:281:33
	addl	%ecx, %eax
	.loc	1 280 7 is_stmt 1               # ./hotspot_simplified.cu:280:7
	movl	%eax, -120(%rbp)
	.loc	1 283 36                        # ./hotspot_simplified.cu:283:36
	movslq	-28(%rbp), %rdi
	.loc	1 283 41 is_stmt 0              # ./hotspot_simplified.cu:283:41
	shlq	$2, %rdi
	.loc	1 283 29                        # ./hotspot_simplified.cu:283:29
	callq	malloc@PLT
	.loc	1 283 18                        # ./hotspot_simplified.cu:283:18
	movq	%rax, -48(%rbp)
	.loc	1 284 37 is_stmt 1              # ./hotspot_simplified.cu:284:37
	movslq	-28(%rbp), %rdi
	.loc	1 284 42 is_stmt 0              # ./hotspot_simplified.cu:284:42
	shlq	$2, %rdi
	.loc	1 284 30                        # ./hotspot_simplified.cu:284:30
	callq	malloc@PLT
	.loc	1 284 19                        # ./hotspot_simplified.cu:284:19
	movq	%rax, -56(%rbp)
	.loc	1 285 31 is_stmt 1              # ./hotspot_simplified.cu:285:31
	movslq	-28(%rbp), %rdi
	.loc	1 285 24 is_stmt 0              # ./hotspot_simplified.cu:285:24
	movl	$4, %esi
	callq	calloc@PLT
	.loc	1 285 13                        # ./hotspot_simplified.cu:285:13
	movq	%rax, -64(%rbp)
.Ltmp64:
	.loc	1 287 8 is_stmt 1               # ./hotspot_simplified.cu:287:8
	cmpq	$0, -56(%rbp)
	.loc	1 287 24 is_stmt 0              # ./hotspot_simplified.cu:287:24
	je	.LBB8_10
# %bb.8:                                # %lor.lhs.false38
	.loc	1 287 28                        # ./hotspot_simplified.cu:287:28
	cmpq	$0, -48(%rbp)
	.loc	1 287 43                        # ./hotspot_simplified.cu:287:43
	je	.LBB8_10
# %bb.9:                                # %lor.lhs.false40
	.loc	1 287 47                        # ./hotspot_simplified.cu:287:47
	cmpq	$0, -64(%rbp)
.Ltmp65:
	.loc	1 287 7                         # ./hotspot_simplified.cu:287:7
	jne	.LBB8_11
.LBB8_10:                               # %if.then42
.Ltmp66:
	.loc	1 288 5 is_stmt 1               # ./hotspot_simplified.cu:288:5
	leaq	.L.str.16(%rip), %rdi
	callq	_Z5fatalPc
.Ltmp67:
.LBB8_11:                               # %if.end43
	.loc	1 292 10                        # ./hotspot_simplified.cu:292:10
	movl	-96(%rbp), %esi
	.loc	1 292 26 is_stmt 0              # ./hotspot_simplified.cu:292:26
	movl	-36(%rbp), %edx
	.loc	1 292 37                        # ./hotspot_simplified.cu:292:37
	movl	-32(%rbp), %ecx
	.loc	1 292 48                        # ./hotspot_simplified.cu:292:48
	movl	-100(%rbp), %r8d
	.loc	1 292 60                        # ./hotspot_simplified.cu:292:60
	movl	-104(%rbp), %r9d
	.loc	1 293 10 is_stmt 1              # ./hotspot_simplified.cu:293:10
	movl	-116(%rbp), %ebx
	.loc	1 293 21 is_stmt 0              # ./hotspot_simplified.cu:293:21
	movl	-120(%rbp), %r11d
	.loc	1 293 32                        # ./hotspot_simplified.cu:293:32
	movl	-108(%rbp), %r10d
	.loc	1 293 47                        # ./hotspot_simplified.cu:293:47
	movl	-112(%rbp), %eax
	.loc	1 290 3 is_stmt 1               # ./hotspot_simplified.cu:290:3
	leaq	.L.str.17(%rip), %rdi
	movl	%ebx, (%rsp)
	movl	%r11d, 8(%rsp)
	movl	%r10d, 16(%rsp)
	movl	%eax, 24(%rsp)
	movb	$0, %al
	callq	printf@PLT
	.loc	1 295 13                        # ./hotspot_simplified.cu:295:13
	movq	-48(%rbp), %rdi
	.loc	1 295 29 is_stmt 0              # ./hotspot_simplified.cu:295:29
	movl	-32(%rbp), %esi
	.loc	1 295 40                        # ./hotspot_simplified.cu:295:40
	movl	-36(%rbp), %edx
	.loc	1 295 51                        # ./hotspot_simplified.cu:295:51
	movq	-72(%rbp), %rcx
	.loc	1 295 3                         # ./hotspot_simplified.cu:295:3
	callq	_Z9readinputPfiiPc
	.loc	1 296 13 is_stmt 1              # ./hotspot_simplified.cu:296:13
	movq	-56(%rbp), %rdi
	.loc	1 296 30 is_stmt 0              # ./hotspot_simplified.cu:296:30
	movl	-32(%rbp), %esi
	.loc	1 296 41                        # ./hotspot_simplified.cu:296:41
	movl	-36(%rbp), %edx
	.loc	1 296 52                        # ./hotspot_simplified.cu:296:52
	movq	-80(%rbp), %rcx
	.loc	1 296 3                         # ./hotspot_simplified.cu:296:3
	callq	_Z9readinputPfiiPc
	.loc	1 299 24 is_stmt 1              # ./hotspot_simplified.cu:299:24
	movl	-28(%rbp), %esi
	.loc	1 299 3 is_stmt 0               # ./hotspot_simplified.cu:299:3
	leaq	.L.str.18(%rip), %rdi
	movb	$0, %al
	callq	printf@PLT
	.loc	1 300 24 is_stmt 1              # ./hotspot_simplified.cu:300:24
	leaq	-144(%rbp), %rdi
	.loc	1 300 55 is_stmt 0              # ./hotspot_simplified.cu:300:55
	movslq	-28(%rbp), %rsi
	.loc	1 300 53                        # ./hotspot_simplified.cu:300:53
	shlq	$2, %rsi
	.loc	1 300 3                         # ./hotspot_simplified.cu:300:3
	callq	cudaMalloc@PLT
	.loc	1 301 24 is_stmt 1              # ./hotspot_simplified.cu:301:24
	leaq	-144(%rbp), %rdi
	addq	$8, %rdi
	.loc	1 301 55 is_stmt 0              # ./hotspot_simplified.cu:301:55
	movslq	-28(%rbp), %rsi
	.loc	1 301 53                        # ./hotspot_simplified.cu:301:53
	shlq	$2, %rsi
	.loc	1 301 3                         # ./hotspot_simplified.cu:301:3
	callq	cudaMalloc@PLT
	.loc	1 302 14 is_stmt 1              # ./hotspot_simplified.cu:302:14
	movq	-144(%rbp), %rdi
	.loc	1 302 29 is_stmt 0              # ./hotspot_simplified.cu:302:29
	movq	-48(%rbp), %rsi
	.loc	1 302 61                        # ./hotspot_simplified.cu:302:61
	movslq	-28(%rbp), %rdx
	.loc	1 302 59                        # ./hotspot_simplified.cu:302:59
	shlq	$2, %rdx
	.loc	1 302 3                         # ./hotspot_simplified.cu:302:3
	movl	$1, %ecx
	callq	cudaMemcpy@PLT
	.loc	1 305 53 is_stmt 1              # ./hotspot_simplified.cu:305:53
	movslq	-28(%rbp), %rsi
	.loc	1 305 51 is_stmt 0              # ./hotspot_simplified.cu:305:51
	shlq	$2, %rsi
	.loc	1 305 3                         # ./hotspot_simplified.cu:305:3
	leaq	-152(%rbp), %rdi
	callq	cudaMalloc@PLT
	.loc	1 306 14 is_stmt 1              # ./hotspot_simplified.cu:306:14
	movq	-152(%rbp), %rdi
	.loc	1 306 27 is_stmt 0              # ./hotspot_simplified.cu:306:27
	movq	-56(%rbp), %rsi
	.loc	1 306 60                        # ./hotspot_simplified.cu:306:60
	movslq	-28(%rbp), %rdx
	.loc	1 306 58                        # ./hotspot_simplified.cu:306:58
	shlq	$2, %rdx
	.loc	1 306 3                         # ./hotspot_simplified.cu:306:3
	movl	$1, %ecx
	callq	cudaMemcpy@PLT
	.loc	1 308 3 is_stmt 1               # ./hotspot_simplified.cu:308:3
	leaq	.L.str.19(%rip), %rdi
	movb	$0, %al
	callq	printf@PLT
	.loc	1 309 31                        # ./hotspot_simplified.cu:309:31
	movq	-152(%rbp), %rdi
	.loc	1 309 44 is_stmt 0              # ./hotspot_simplified.cu:309:44
	leaq	-144(%rbp), %rsi
	.loc	1 309 56                        # ./hotspot_simplified.cu:309:56
	movl	-36(%rbp), %edx
	.loc	1 309 67                        # ./hotspot_simplified.cu:309:67
	movl	-32(%rbp), %ecx
	.loc	1 310 31 is_stmt 1              # ./hotspot_simplified.cu:310:31
	movl	-92(%rbp), %r8d
	.loc	1 310 49 is_stmt 0              # ./hotspot_simplified.cu:310:49
	movl	-96(%rbp), %r9d
	.loc	1 310 65                        # ./hotspot_simplified.cu:310:65
	movl	-116(%rbp), %ebx
	.loc	1 311 31 is_stmt 1              # ./hotspot_simplified.cu:311:31
	movl	-120(%rbp), %r11d
	.loc	1 311 42 is_stmt 0              # ./hotspot_simplified.cu:311:42
	movl	-100(%rbp), %r10d
	.loc	1 311 54                        # ./hotspot_simplified.cu:311:54
	movl	-104(%rbp), %eax
	.loc	1 309 13 is_stmt 1              # ./hotspot_simplified.cu:309:13
	movl	%ebx, (%rsp)
	movl	%r11d, 8(%rsp)
	movl	%r10d, 16(%rsp)
	movl	%eax, 24(%rsp)
	callq	_Z17compute_tran_tempPfPS_iiiiiiii
	.loc	1 309 7 is_stmt 0               # ./hotspot_simplified.cu:309:7
	movl	%eax, -156(%rbp)
	.loc	1 312 3 is_stmt 1               # ./hotspot_simplified.cu:312:3
	leaq	.L.str.20(%rip), %rdi
	movb	$0, %al
	callq	printf@PLT
	.loc	1 313 14                        # ./hotspot_simplified.cu:313:14
	movq	-64(%rbp), %rdi
	.loc	1 313 25 is_stmt 0              # ./hotspot_simplified.cu:313:25
	movslq	-156(%rbp), %rax
	movq	-144(%rbp,%rax,8), %rsi
	.loc	1 313 58                        # ./hotspot_simplified.cu:313:58
	movslq	-28(%rbp), %rdx
	.loc	1 313 56                        # ./hotspot_simplified.cu:313:56
	shlq	$2, %rdx
	.loc	1 313 3                         # ./hotspot_simplified.cu:313:3
	movl	$2, %ecx
	callq	cudaMemcpy@PLT
	.loc	1 316 15 is_stmt 1              # ./hotspot_simplified.cu:316:15
	movq	-64(%rbp), %rdi
	.loc	1 316 26 is_stmt 0              # ./hotspot_simplified.cu:316:26
	movl	-32(%rbp), %esi
	.loc	1 316 37                        # ./hotspot_simplified.cu:316:37
	movl	-36(%rbp), %edx
	.loc	1 316 48                        # ./hotspot_simplified.cu:316:48
	movq	-88(%rbp), %rcx
	.loc	1 316 3                         # ./hotspot_simplified.cu:316:3
	callq	_Z11writeoutputPfiiPc
	.loc	1 318 12 is_stmt 1              # ./hotspot_simplified.cu:318:12
	movq	-152(%rbp), %rdi
	.loc	1 318 3 is_stmt 0               # ./hotspot_simplified.cu:318:3
	callq	cudaFree@PLT
	.loc	1 319 12 is_stmt 1              # ./hotspot_simplified.cu:319:12
	movq	-144(%rbp), %rdi
	.loc	1 319 3 is_stmt 0               # ./hotspot_simplified.cu:319:3
	callq	cudaFree@PLT
	.loc	1 320 12 is_stmt 1              # ./hotspot_simplified.cu:320:12
	movq	-136(%rbp), %rdi
	.loc	1 320 3 is_stmt 0               # ./hotspot_simplified.cu:320:3
	callq	cudaFree@PLT
	.loc	1 321 8 is_stmt 1               # ./hotspot_simplified.cu:321:8
	movq	-64(%rbp), %rdi
	.loc	1 321 3 is_stmt 0               # ./hotspot_simplified.cu:321:3
	callq	free@PLT
	.loc	1 322 1 epilogue_begin is_stmt 1 # ./hotspot_simplified.cu:322:1
	addq	$200, %rsp
	popq	%rbx
	popq	%rbp
	.cfi_def_cfa %rsp, 8
	retq
.Ltmp68:
.Lfunc_end8:
	.size	_Z3runiPPc, .Lfunc_end8-_Z3runiPPc
	.cfi_endproc
                                        # -- End function
	.p2align	4, 0x90                         # -- Begin function __cuda_register_globals
	.type	__cuda_register_globals,@function
__cuda_register_globals:                # @__cuda_register_globals
.Lfunc_begin9:
	.cfi_startproc
# %bb.0:                                # %entry
	subq	$40, %rsp
	.cfi_def_cfa_offset 48
	leaq	_Z29__device_stub__calculate_tempiPfS_S_iiiiffffff(%rip), %rsi
	leaq	.L__unnamed_1(%rip), %rcx
	movl	$4294967295, %r8d               # imm = 0xFFFFFFFF
	xorl	%eax, %eax
	movl	%eax, %r9d
	movq	%rcx, %rdx
	movq	$0, (%rsp)
	movq	$0, 8(%rsp)
	movq	$0, 16(%rsp)
	movq	$0, 24(%rsp)
	callq	__cudaRegisterFunction@PLT
	addq	$40, %rsp
	.cfi_def_cfa_offset 8
	retq
.Lfunc_end9:
	.size	__cuda_register_globals, .Lfunc_end9-__cuda_register_globals
	.cfi_endproc
                                        # -- End function
	.p2align	4, 0x90                         # -- Begin function __cuda_module_ctor
	.type	__cuda_module_ctor,@function
__cuda_module_ctor:                     # @__cuda_module_ctor
.Lfunc_begin10:
	.cfi_startproc
# %bb.0:                                # %entry
	pushq	%rax
	.cfi_def_cfa_offset 16
	leaq	__cuda_fatbin_wrapper(%rip), %rdi
	callq	__cudaRegisterFatBinary@PLT
	movq	%rax, %rdi
	movq	%rdi, (%rsp)                    # 8-byte Spill
	movq	%rdi, __cuda_gpubin_handle(%rip)
	callq	__cuda_register_globals
	movq	(%rsp), %rdi                    # 8-byte Reload
	callq	__cudaRegisterFatBinaryEnd@PLT
	leaq	__cuda_module_dtor(%rip), %rdi
	callq	atexit@PLT
	popq	%rax
	.cfi_def_cfa_offset 8
	retq
.Lfunc_end10:
	.size	__cuda_module_ctor, .Lfunc_end10-__cuda_module_ctor
	.cfi_endproc
                                        # -- End function
	.p2align	4, 0x90                         # -- Begin function __cuda_module_dtor
	.type	__cuda_module_dtor,@function
__cuda_module_dtor:                     # @__cuda_module_dtor
.Lfunc_begin11:
	.cfi_startproc
# %bb.0:                                # %entry
	pushq	%rax
	.cfi_def_cfa_offset 16
	movq	__cuda_gpubin_handle(%rip), %rdi
	callq	__cudaUnregisterFatBinary@PLT
	popq	%rax
	.cfi_def_cfa_offset 8
	retq
.Lfunc_end11:
	.size	__cuda_module_dtor, .Lfunc_end11-__cuda_module_dtor
	.cfi_endproc
                                        # -- End function
	.type	t_chip,@object                  # @t_chip
	.data
	.globl	t_chip
	.p2align	2, 0x0
t_chip:
	.long	0x3a03126f                      # float 5.00000024E-4
	.size	t_chip, 4

	.type	chip_height,@object             # @chip_height
	.globl	chip_height
	.p2align	2, 0x0
chip_height:
	.long	0x3c83126f                      # float 0.0160000008
	.size	chip_height, 4

	.type	chip_width,@object              # @chip_width
	.globl	chip_width
	.p2align	2, 0x0
chip_width:
	.long	0x3c83126f                      # float 0.0160000008
	.size	chip_width, 4

	.type	amb_temp,@object                # @amb_temp
	.globl	amb_temp
	.p2align	2, 0x0
amb_temp:
	.long	0x42a00000                      # float 80
	.size	amb_temp, 4

	.type	.L.str,@object                  # @.str
	.section	.rodata.str1.1,"aMS",@progbits,1
.L.str:
	.asciz	"error: %s\n"
	.size	.L.str, 11

	.type	.L.str.1,@object                # @.str.1
.L.str.1:
	.asciz	"w"
	.size	.L.str.1, 2

	.type	.L.str.2,@object                # @.str.2
.L.str.2:
	.asciz	"The file was not opened\n"
	.size	.L.str.2, 25

	.type	.L.str.3,@object                # @.str.3
.L.str.3:
	.asciz	"%d\t%g\n"
	.size	.L.str.3, 7

	.type	.L.str.4,@object                # @.str.4
.L.str.4:
	.asciz	"r"
	.size	.L.str.4, 2

	.type	.L.str.5,@object                # @.str.5
.L.str.5:
	.asciz	"not enough lines in file"
	.size	.L.str.5, 25

	.type	.L.str.6,@object                # @.str.6
.L.str.6:
	.asciz	"%f"
	.size	.L.str.6, 3

	.type	.L.str.7,@object                # @.str.7
.L.str.7:
	.asciz	"invalid file format"
	.size	.L.str.7, 20

	.type	.L.str.8,@object                # @.str.8
.L.str.8:
	.asciz	"Usage: %s <grid_rows/grid_cols> <pyramid_height> <sim_time> <temp_file> <power_file> <output_file>\n"
	.size	.L.str.8, 100

	.type	.L.str.9,@object                # @.str.9
.L.str.9:
	.asciz	"\t<grid_rows/grid_cols>  - number of rows/cols in the grid (positive integer)\n"
	.size	.L.str.9, 78

	.type	.L.str.10,@object               # @.str.10
.L.str.10:
	.asciz	"\t<pyramid_height> - pyramid heigh(positive integer)\n"
	.size	.L.str.10, 53

	.type	.L.str.11,@object               # @.str.11
.L.str.11:
	.asciz	"\t<sim_time>   - number of iterations\n"
	.size	.L.str.11, 38

	.type	.L.str.12,@object               # @.str.12
.L.str.12:
	.asciz	"\t<temp_file>  - name of the file containing the initial temperature values of each cell\n"
	.size	.L.str.12, 89

	.type	.L.str.13,@object               # @.str.13
.L.str.13:
	.asciz	"\t<power_file> - name of the file containing the dissipated power values of each cell\n"
	.size	.L.str.13, 86

	.type	.L.str.14,@object               # @.str.14
.L.str.14:
	.asciz	"\t<output_file> - name of the output file\n"
	.size	.L.str.14, 42

	.type	.L.str.15,@object               # @.str.15
.L.str.15:
	.asciz	"WG size of kernel = %d X %d\n"
	.size	.L.str.15, 29

	.type	.L.str.16,@object               # @.str.16
.L.str.16:
	.asciz	"unable to allocate memory"
	.size	.L.str.16, 26

	.type	.L.str.17,@object               # @.str.17
.L.str.17:
	.asciz	"pyramidHeight: %d\ngridSize: [%d, %d]\nborder:[%d, %d]\nblockGrid:[%d, %d]\ntargetBlock:[%d, %d]\n"
	.size	.L.str.17, 94

	.type	.L.str.18,@object               # @.str.18
.L.str.18:
	.asciz	"size is %d"
	.size	.L.str.18, 11

	.type	.L.str.19,@object               # @.str.19
.L.str.19:
	.asciz	"Start computing the transient temperature\n"
	.size	.L.str.19, 43

	.type	.L.str.20,@object               # @.str.20
.L.str.20:
	.asciz	"Ending simulation\n"
	.size	.L.str.20, 19

	.type	.L__unnamed_1,@object           # @0
.L__unnamed_1:
	.asciz	"_Z14calculate_tempiPfS_S_iiiiffffff"
	.size	.L__unnamed_1, 36

	.type	.L__unnamed_2,@object           # @1
	.section	.nv_fatbin,"a",@progbits
	.p2align	3, 0x0
.L__unnamed_2:
	.asciz	"P\355U\272\001\000\020\000\000\242\000\000\000\000\000\000\002\000\001\001@\000\000\000hW\000\000\000\000\000\000cW\000\000\000\000\000\000\007\000\001\0002\000\000\000\000\000\000\000\000\000\000\000\023 \000\000\000\000\000\000\000\000\000\000\000\000\000\000@\020\001\000\000\000\000\000\242\177ELF\002\001\0013\007\000\001\000f\002\000\276\000y\000\001\0001`\017\001\b\000\"\240\b\b\000\365\r2\0052\000@\0008\000\004\000@\000\033\000\001\000\000.shstrtab\000.\b\000'ym\b\000\361\005_shndx\000.nv.uft.entry\016\000\360!info\000.text.__cuda_sm3x_div_rn_noftz_f32_slowpath5\000\321_debug.sharedF\000eglobalQ\000\017K\000\025\nw\000`20_rcp,\000\fq\000\013U\000\017)\000\005\002O\000\361\016Z14calculate_tempiPfS_S_iiiif\001\000\007S\000\017-\000\024\002\353\000\017/\000\023?rel\212\000\033\237constant0`\000\027\0176\000\037\001\263\001d_frame\r\000BlineO\000\b\020\000\004\337\001\001\017\000T_sasss\000\016\030\000\005\024\000wptx_txt\022\000\000_\001L_reg*\000\005\030\0005typ\212\000\206abbrev\000.#\000\001t\000\031a\021\000\002\f\0008loc\264\000\003\321\000\007-\000\003\022\000\000\"\001rallgrapC\002Qprotou\000\017.\003-\017\335\002\"\017,\000\013\fT\003/_Z\324\001\0170E12\030\0001_ond\000\0174\000\024o3power5\000\033\0206\027\000(_t\352\003\360\000blockIdx\000thread\n\000\017\375\003\034\017\316\003\024\017&\000\r\ru\000\017)\000\004\017%\003\022\002s\000\017\267\003\024\002w\000\017A\004n\017\017\004#\0172\000\036z_param\000e\003\017H\004\354\017\001\000\006\204@\000\000\000\"\000\027\000\001\000!\200\b\007\000g\000f\000\000\000\003\030\000\004\001\000 9\001\030\000,\032\000\001\000WD\001\000\000\001\030\000\002\376\0073\000\000M\030\000\033\001\030\000 \206\001x\000$\030\000\001\000!\200\004\007\000!\000\246`\000,\030\000\001\000 \031\002\030\000,\031\000\001\000 \003\003\030\000,\026\000\001\000\021<\030\000,\004\000\001\000\021I\030\000,\005\000\001\000\021e\030\000,\006\000\001\000\021\221\030\000,\007\000\001\000\021\243\030\000,\b\000\001\000\021\273\030\000,\t\000\001\000\021\323\030\000,\n\000\001\000\021\341\030\000,\013\000\001\000 ,\004\030\000,\020\000\001\000f\365\001\000\000\022\020\b\001!@3\007\000v\000\377\377\377\377<\005\f\000\000\001\000@\003\000\004|\b\000\360\002\017\f\201\200\200(\000\b\377\201\200(\007\200\200\200\b\005\0000\020\007\202\005\000\020\203\005\000\020\204\005\000\020\205\005\000\020\206\005\000P\200\200\200(\b3\000\000#\000\020(#\000\020(#\000\020(#\000\020(#\0000(\007\207\005\000\020\210\005\000\020\211\005\000\020\212\005\000\020\213\005\000\020\214\005\000\020\215\005\000\020\216\005\000\020\217\005\000\020\220\005\000\020\221\005\000\020\222\005\000\020\223\005\000\020\224\005\000\020\225\005\000\020\226\005\000\020\227\005\000\020\230\005\000\020\231\005\000\020\232\005\000\020\233\005\000\020\234\005\000\020\235\005\000\020\236\005\000\020\237\005\000\020\240\005\000\020\241\005\000\020\242\005\000\020\243\005\000\020\244\005\000\020\245\005\000\020\246\005\000\020\247\005\000\020\250\005\000\020\251\005\000\020\252\005\000\020\253\005\000\020\254\005\000\020\255\005\000\020\256\005\000\020\257\005\000\020\260\005\000\020\261\005\000\020\262\005\000\020\263\005\000\020\264\005\000\020\265\005\000\020\266\005\000\020\267\005\000\020\270\005\000\020\271\005\000\020\272\005\000\020\273\005\000\020\274\005\000\020\275\005\000\020\276\005\000\020\277\005\000\020\300\005\000\020\301\005\000\020\302\005\000\020\303\005\000\020\304\005\000\020\305\005\000\020\306\005\000\020\307\005\000\020\310\005\000\020\311\005\000\020\312\005\000\020\313\005\000\020\314\005\000\020\315\005\000\020\316\005\000\020\317\005\000\020\320\005\000\020\321\005\000\020\322\005\000\020\323\005\000\020\324\005\000\020\325\005\000\020\326\005\000\020\327\005\000\020\330\005\000\020\331\005\000\020\332\005\000\020\333\005\000\020\334\005\000\020\335\005\000\020\336\005\000\020\337\005\000\020\340\005\000\020\341\005\000\020\342\005\000\020\343\005\000\020\344\005\000\020\345\005\000\020\346\005\000\020\347\005\000\020\350\005\000\020\351\005\000\020\352\005\000\020\353\005\000\020\354\005\000\020\355\005\000\020\356\005\000\020\357\005\000\020\360\005\000\020\361\005\000\020\362\005\000\020\363\005\000\020\364\005\000\020\365\005\000\020\366\005\000\020\367\005\000\020\370\005\000\020\371\005\000\020\372\005\000\020\373\005\000\020\374\005\000\020\375\005\000\020\376\005\000\020\377\005\000\020\200\250\002\020\201\005\000\020\202\005\000\020\203\005\000\020\204\005\000\020\205\005\000\020\206\005\000\020\207\005\000\020\210\005\000\020\211\005\000\020\212\005\000\020\213\005\000\020\214\005\000\020\215\005\000\020\216\005\000\020\217\005\000\020\220\005\000\020\221\005\000\020\222\005\000\020\223\005\000\020\224\005\000\020\225\005\000\020\226\005\000\020\227\005\000\020\230\005\000\020\231\005\000\020\232\005\000\020\233\005\000\020\234\005\000\020\235\005\000\020\236\005\000\020\237\005\000\020\240\005\000\020\241\005\000\020\242\005\000\020\243\005\000\020\244\005\000\020\245\005\000\020\246\005\000\020\247\005\000\020\250\005\000\020\251\005\000\020\252\005\000\020\253\005\000\020\254\005\000\020\255\005\000\020\256\005\000\020\257\005\000\020\260\005\000\020\261\005\000\020\262\005\000\020\263\005\000\020\264\005\000\020\265\005\000\020\266\005\000\020\267\005\000\020\270\005\000\020\271\005\000\020\272\005\000\020\273\005\000\020\274\005\000\020\275\005\000\020\276\005\000\020\277\005\000\020\300\005\000\020\301\005\000\020\302\005\000\020\303\005\000\020\304\005\000\020\305\005\000\020\306\005\000\020\307\005\000\020\310\005\000\020\311\005\000\020\312\005\000\020\313\005\000\020\314\005\000\020\315\005\000\020\316\005\000\020\317\005\000\020\320\005\000\020\321\005\000\020\322\005\000\020\323\005\000\020\324\005\000\020\325\005\000\020\326\005\000\020\327\005\000\020\330\005\000\020\331\005\000\020\332\005\000\020\333\005\000\020\334\005\000\020\335\005\000\020\336\005\000\020\337\005\000\020\340\005\000\020\341\005\000\020\342\005\000\020\343\005\000\020\344\005\000\020\345\005\000\020\346\005\000\020\347\005\000\020\350\005\000\020\351\005\000\020\352\005\000\020\353\005\000\020\354\005\000\020\355\005\000\020\356\005\000\020\357\005\000\020\360\005\000\020\361\005\000\020\362\005\000\020\363\005\000\020\364\005\000\020\365\005\000\020\366\005\000\020\367\005\000\020\370\005\000\020\371\005\000\020\372\005\000\020\373\005\000\020\374\005\000\020\375\005\000B\376\201\200(<\005/4\000\001\000\003\004l\005\020\004W\006Q\004\002\000\000\000Y\005c\270\001\004\270\f\000\001\000 \025\004\024\017\320\336\002\000\000\001\001\373\016\n\000\001\001\001\363\006\377\034\001/nethome/cahn45/CuPBoP/examples/hotspot/.\000*\000\004\0004\n\377\001-12.1/include/nv,\000\026\r)\000\361\002llvm-vortex-with-3\000\366\003build/lib/clang/18A\000:usr\r\000\000'\000\366\013gcc/x86_64-linux-gnu/13/..\003\000\0035\000@/c++\033\000IbitsN\000\016A\000\006#\000\017d\000##\000\000N\001\361\035_simplified.cu\000\001\273\362\262\275\006\314Ptarget\000\002\303\313\213\271\006\325;vector\236\tQs.h\000\003\027\000A\226g__\005\001\002\255\013\000\032\001ptin_var$\000\211\004\262\310\331\271\006\234&$\000\366\005math_forward_declare-\000\360\013\225Bstdlib.h\000\005\253\374\350\274\006\373\227\002std_ab$\000\200\006\312\257\264\245\006\212%D\000\000\305\t\000\024\000\021\007'\0000\232gc\025\000!\000\b\"\0000\245\336\005\016\000\005E\000B\304\352\002cX\000\003!\000\365\002\2073__stddef_size_t\201\000%\304\005\201\000\002+\000-\201\022\277\000\005-\000)\362\177\034\000\031c\035\000\203\275\220\001\000\000\t\002\000\001\000\360\016\004\001\003\345\000\001\002\310\000\003\t\002\340\021\001\004\004\003S\002\340\000\001\004\001\0031\002 \017\000\032P\017\000\023A\017\000\"\301\000\020\000\030@\020\000 \003\002\016\000\260\003\002\002\210\005\001\003\001\002\210\004\006\000S\220\004\001\003\b\f\000\201\340\001\001\003\004\002\330\001\030\000\020\003\006\000\021\230\006\000q\310\001\001\003\006\002\320\030\000\021\300\022\000Q\360\001\001\003\1770\000@\005\002\270\001T\000\021\370\036\000!\360\002\006\000\020\000\006\000\021\350*\000\021\340\006\000\200\330\003\001\003}\002\260\003`\000\0208\021\000$\350\000e\0000\002\002(\013\000\023\030W\000\023\360p\000C\002\002\240\003\030\000co\002\b\001\003\023\230\000$\300\001\\\000`\005\0028\001\002\370\r\004 \277\003\031\004,\020\000\031\004\031\000K\001\241\000\003\037\001\002\b\003\016\002\300|\000\021\320\006\000\0200\005\000\037 \005\000\036,\300\000\006\000\021 \272\000\0210\006\000\0258\321\000\001_\000/\340\000\006\000=\020\003Y\000\023\003\013\000\037 \013\000\020\004\372\001\b\006\000,\350\002\022\000\035\310\022\000\037\320$\000\r8\200\361\201\017\000(\201\361\016\000\003\024\000\t\007\000\b\032\000\037\361\032\000\000\037\201!\000\000\003\r\000#\360\202\017\000\000]\001p\201\003\003\002\030\001\200/\000\032 (\000\006H\000H\030\001\200\202\024\000#\360\2006\000\021\3616\000\000#\000\005T\001#\201\360\226\002\000!\000\000\036\0018\000\001\204<\000\0029\000A\363\362\003\003\337\002\016j\000\030\203N\000Y\361\201\201\360\203%\000\037\361!\000\r\031\360 \000Y\201\361\201\200\363 \000\n\017\0007\362\360\363\252\000$\003\001.\001\"\210\001\037\0012\360\003\002\036\000 \330\000*\003\025(\330\000\006Q\000\001\022\0002\200\203\364\370\000\022\200U\002\000\311\002\027\204H\000\001\005\000\022\361/\003\030\200O\000\000_\000\022\204x\000\022\200Q\000\030\363I\000)\360\363\215\000\022\001}\000\021\310}\000\024\370\203\000%\003\004\303\003\000\242\003\342.version 8.1\000.J\006\201 sm_50, \216\017\221\000.address\200\005  6M\b\003T\021\377\000 .align 4 .b8 _9\023\037o[256];O\000)\nT\023\017P\000.\003o\023\004H\000\002r\023\004H\000\0211H\000\004\177\023/[1\"\000\005\005\230\023\001#\000\242\000.visible \315\024\037 \363\021\0201(\000.\364\021_ .u321\000\021\002#\0226_0,9\000/649\000\030\03719\000%\03729\000%/3,\344\000$\03749\000%\03759\000%\03769\000%\02679\000\037f9\000\032\03789\000%\03799\000%/10:\000&\0371:\000&\0372:\000&\2463\000)\000{\000.loc}\003\0218}\0031\t__\026\000\260_depot0[184\250\003\334reg .b64 \t%SP\020\000\024L\021\000\020p6\004u\t%p<16>%\000\22616 \t%rs<8\023\000 32\023\0005<82\023\000\021f\023\000Zf<20>^\000\360\nrd<23>;\000\000$L__func_begin0:}\005Tmov.u\205\000*, \273\000b;\000cvta\344\000\005&\000\", \260\000\"ld:\001\004y\000O6, [@\001\031\036]C\000\0375C\000\033\0372C\000\000\0374C\000\033\0371C\000\000\0373C\000\033\0370C\000\000\0372C\000\032\0379B\000\000\0371B\000\032\0308B\000\021uB\000/r9B\000\032\0377B\000\000\0378B\000\032\0376B\000\000\0377B\000\032\0375B\000\000\017V\002\033\0314B\000\003\376\002\017\320\001\033\0373C\000\001\017\320\001\033\0372C\000\001\017\321\001\033\0371\013\001\000\017\036\003\033#0]\276\003#to#\b\005\213\00004, \027\001\003 \000\013\035\000\0215\035\000\0374=\000\006\0216 \000\0372=\000\003\0217\035\000\0376=\000\006\0218 \000\0371=\000\003\0219\035\000R8;\000st\363\000p[%SP+0]\027\000\0225\026\000#64\026\000\0218\026\000+d9\027\000\"16\030\000\0337\030\000\"24\030\000\0335]\000!32\030\000\0346\027\000\002G\000\0337\027\000\0224\214\000\f\242\000\0224]\000\002\214\000\026f\027\000\001\244\000+f1\027\000\0215s\000,f2\027\000\001s\000+f3\027\000\0216s\000,f4\027\000\001s\000,f5\027\000\002s\000!6;\327\005\003$\006\361\00010, 1117782016;\006\0060tmp\377\005\t\307\000\0227\f\001%10#\000#1: \006\003I\000\2651, %ctaid.x$\000\0342G\000\0239G\000\0251#\000\0333G\000\0252G\000\025y$\000\0354G\000\002\203\001%12#\000\0335G\000Y3, %t\214\000\0346E\000\"10\262\001%13$\000\0337F\000\0234F\000\006\213\000\0368F\000\002\341\001@14;\000\225\003\003\242\005\000\334\004\003\214\001\t\030\000\0006\005\003\000\002\224;\000\000div.rn\034\000\000\343\002\0009\000Z%f8;\000\274\001\0227\001\002\0319L\000\000\274\001\0046\002g;\000\000rcpM\000\001\220\001<f10J\000\02284\002*11K\000\0242K\000\0376K\000\000\02132\000\0352K\000\002h\002*13K\000\000e\007\003\236\002\016K\000\02152\000\0354K\000\003\017\003\0225K\000\004\200\001\0235K\000\001J\0005shl\266\002\001h\004\000\037\000\0321\316\00217, <\001Cub.s\023\000\001V\004\0211|\004\000\341\002\f\276\001\001y\000:r18y\000\0379y\000\004B20, \037\000\0321g\000&21g\000-20g\000\0221\370\002)21g\000\0242v\001\000\207\000\n\032\000\000\227\006\003\352\002\225;\000\000mul.lol\000\001\243\005\000=\000\000)\000\n8\000\0042\001;44]\241\000\0013\001\003;\000\0365\241\000\002R\003*26O\000\004\307\002\000\301\000\n\032\000\004\311\002/92\241\000\000\001\255\005\0222\r\001\nZ\001\0243\264\002+40\241\000\0213B\001\002;\000\0363B\001\0222\255\003\0323B\001\0253B\001\0211)\0015addP\000\000\266\002\001!\000\0367M\000\002\264\003\0323=\001\0243\272\002\000m\000\013M\000\001\371\006\000!\000\017M\000\000\002C\002\0323\274\002*36M\000ssetp.gtQ\000\021p\355\000\000$\000\020-\321\000\240@%p1 bra \tg\004\346BB0_2;\000bra.uni\024\000\0035\005\001\013\000/: \001\000\n\331// %cond.true\227\000\0328\227\0004neg\344\000\002\223\000(8;\002\005\0228\360\002.;\000\216\000\0263\216\000\0372\216\000\025hfalse\000\262\003_37, 0s\000\000/37t\000\f\0373t\000\0258end_\000\0016\003\0368`\002\003\355\007\0322\305\001\0259.\001\013\241\003\0244\310\002+32+\002B41,  \000$-1\370\001#le\036\000\021p\177\000\0213\345\002\0234\372\001\0322\372\001\0375\372\001\000\0264\370\000\0374\372\001\031)19\264\000\0373\316\000\006\0314\316\000\007\226\003\0214\371\002\02147\004943;\024\003\",  \000\0326\300\001\001\000\001\0373\277\001\001\0266\307\000\03753\002\032)235\002\0224\325\003\ru\000/42v\000\f\03765\002\030(24a\000\001\001\001.817\002\0028\005\0324O\001\0276?\006\001\001\002\025n\001\002\0026\001\001\371\003!35M\004Selp.u\305\017`1, 1, \002\003\022p\355\t$u8j\000\003\202\t\032s\362\006\0224@\003\003\236\b\0359\236\b\0237\240\000\017O\003\002\0267\032\001\0377\032\001\0200for\032&$d\000o\000910:\367\000\005\\\004:76]\021\001\nP\007\000\022\001\025g\022\001\002\\\002\001\247\007%49\313\000111:\036\003\0334\030\005\0373\037\003\000\0268\310\000\0378\310\000\024Rbody\000U\002\004|\001\0302J\001\0241\273\n\r\200\001\006t\n)13\377\000\000\222\026\005Y\n\t\377\000*51\031\001\007.\004\0215\021\004\000!\000\0241\032\001\025l%\006\001|\003\0215\020\005\"52-\004\0325\017\001/17\017\001\000\003E\001\001\013\000\017\017\001\020\203land.lhs,\006\b\270\000\0373\322\000\006\0314\322\000\007\221\002\0225\021\004\bD\004\0215{\b\0225\316\000\0364\f\007\002\037\000\001\031\003\"56\347\000\0376\347\000\020\004\214\f\002\f\000\037:\350\000\033*33\352\000\0377\352\000\006\0378\274\001\007\001\307\005\000!\000\037-\275\001\000\001\376\b\0225\006\000\0229\326\000\0377\326\000\021\b\346\007\0371\326\000\035\0316\326\000\0376\222\002\006/61\300\001\005-62\300\001\0216\233\001\0216\252\002.61\300\001\001\273\003\0216\247\002\"63\352\000\0378\352\000\021\003J\003\002\f\000\017\352\000\034*40\352\000\0374\352\000\006\0325\300\001\013\246\001\001\303\001\0216\203\004\"65\274\000\0379\274\000\021\007\212\b/13\274\000\035\0322\274\000\0376\274\000\006\0377\246\001\006\0368\246\001\002\313\000\002\215\001\0367\246\001\000.\016\002m\000\000,\000\002\353\000/10\354\000\021\007~\b/14\354\000\035\n\222\002\0377\222\002\006\0257\222\002/32\250\001\000\001\317\016\001?\000\000+\000\003\276\000\0371\276\000\021\0275\276\000\0375\276\000\035\0328\276\000\0372\276\000\006\005*\005?36]|\001\000\001<\003\0227\006\000\0263A\006\"4:\311\000\0372\311\000\021\007\310\b/16\311\000\017{if.then\345\006\0213i\006\004\200\000\0375\345\006\005\0323\336\000\n\356\0053cvt\323\017\003\340\000\022f\220\017\0237\006\t\003\037\005+d1\355\001\001H\017\003u\030\002\320\001\001#\000\0222V\n\024u\032\000\0212D\030S, 140p\n\004\032\000\001\210\004\002!\000!rd\302\020\006E\020\000\037\000\002D\020\0376\353\b\001&17\366\00066:\000\027\000\017I\001\022\000D\f\307\000\000bar.sync \t(\b)7:*\001\013n\004\007\032\000\b\024\n\bF\006\0217#\006\0247\013\016\013/\n\002\364\000!75\006\000\007\304\000\0238:\002\0333:\002\0379:\002\001\007 \t/18:\002\026%52n\000/9:S\001\000%23\217\000'20S\001\0379S\001\025\0245\204\007\0208\b\001\026se\002\000\001\004\000\207\003\000\333\032\001\033\000\001\377\000\000!\000\"1;!\001#eq\370\032\021p\244\023\001\"\000\006\330\002\0212<\n\020!\035\000\n\037\001/21\037\001\000\000\257\021\006\f\000\017\037\001\027\0255\b\013:22:\371\002\0374\371\002\b\001\314\000\001#\000\f\371\002\0376\371\002\006\001#\002\002!\000\000B\000\np\023\001%\006\000%\000\022]6\000\007n\023\000\r\006\001!\000`0f3F80\001\000\032;4\003\02274\003/8;\341\001\001\007R\001\0263\341\001/21\341\001\026\03486\003\017e\000\000\006P\013'24e\000/2:\310\013\022:inc\243\005\n\257\t%ad\226\001\0217 \007\000 \000/1;%\r\003/79%\r\b\000\240\000\0275\240\000\0373\240\000\023\001:\004\006\344\002\0376\344\002\007\001\344\001\000!\000\017\344\002\000\002\000\003\0217\034\000\004\215\000\0246\344\002\013\023\f/25\344\002\001\007\304\007/24\344\002\026%61o\000\0337\343\002\0378\343\002\b\001j\001\001#\000\013\343\002/20\343\002\005\002@\025\002!\000\000B\000\030;\342\002\001>\016\000$\000\000j\000\027lO\000\004\220\007\0222\356\024\007\331\002322+\236\026\017\325\001\002&25I\001\0278\326\001\0375\333\002\025v65\000\000retF\000&9:B\0370end\032\017+}\000\001\000\232.section\t\2244/{\000\001\000\377\377}\035}\251\002\001\0367/{\000\001\000\377\377\377\377\377\377\377\377\377\377\377\377\377\377\377\377\377\377\377\377\377\377\377\377\377\377\377\377\377\377\377\377\377\377\377\377\377\377\377\377\377\377\377>\016?+\177loc\t{\t}id\022\021\025\366R \000\000GM\243\000\002\000\000\005\210\000\000\000\310\271V\001\025\000\245\003\000\000\005\220\000\000\000\360\002*\000\000\347Vu\005\260\000\000\0008+)\000\000\033\000c\005\270\000\000\000\020\035a\325%f6\000\n\000\000\005\330\000\000\000\030\024\000\0205\fa)\005\370\024\000\2104\000\f\000\000\005\030\001\024\000y3\000\r\000\000\0058\024\000y2\000\016\000\000\005X\024\000x1\000\017\000\000\005x\024\000\211r9\000\021\000\000\005\230\024\00008\000\022\240\000\t\024\00007\000\023\240\000\t\024\00006\000\024\240\000\t\024\000 d3\361as\0050\002\000\000\270\003\361\000\000\025\000\020\b\242\000U\002\000\000\350\003*\000\0202{bf\005p\002\000\0008*\000\0202\250bf\005x\002\000\000H*\00001\000\007E\001F\002\000\000\210*\000\0201\242be\005\270\002\000\000\220*\00005\000\025\246\000T\002\000\000(\004\024\000!d4\254\001e\350\002\000\000h\005>\000\0214\254\001\000\250\001%8\005*\000\0215*\000)\020\003*\000\0215*\000)\030\003*\000\0216\274\000)(\003\274\000\0216\274\000)0\003\274\000\002*\000\000&\000\034P*\000\000&\000\026\bT\000\0217\025\000\023X\025\000\024\001\025\000\000?\000Vh\003\000\000\330\322\000\0218\020\001)p\003\020\001\0218\020\001(x\003\020\001\003*\000\000&\000\034\230*\000\000&\000\026\250T\000\0219\025\000\023\250\025\000\024\001\025\000\000?\000U\260\003\000\000x*\000!10\021\001f\370\b\000\000x\t\323\002\001:\001\022\t\347\002\003)\000\0201\b\000e\005\220\t\000\000\370 \002!12\025\000e\020\n\000\000x\n\025\000\0223*\000F\n\000\000\370\025\000\0224*\000T\013\000\000\220\013\303\002\0207\007\000\203\005\330\013\000\0000\r\000\024\000\02188\001(8\f\024\000?a1_\320h\t\000%\000*\005H2\000\03722\000\013\000d\000fP\f\000\000\020\rO\003\000F\000\031XF\000\002(\000\031h\024\000!181\001fp\f\000\000\210\f\264\003\000\330\001fx\f\000\000\310\f\360\003\000(\000f\220\f\000\000\350\f\030\004\000\227\001f\230\f\000\000\250\f\005\001\001\253\0014\f\000\000l_!%p\215\000:\002\260\f\031\001\000(\000\031\270\024\000\0219x\000\000t\000\025\330P\000\0221V\001\031\320)\000!10*\000\032\330\363\000\0211\243\000\000\237\000\026\360?\000\0212\025\000\031\360?\000\037v\201\001\f\0002\000_\370\f\000\0008\201\001\026\000\216\000\000\212\000\03702\000\032_@\r\000\000h\027\002\032\n2\000\0231\253\003\n\025\000\002F\001\032P\025\000\0215*\000_x\r\000\000\230\007\001\026\0002\000_\210\r\000\000\2209\001\032\000.\000&x\016\323\001\000\024\000\031\250\024\000!10[\000(h\016\025\000\b\376\000\tpk\001,\000Vp\016\000\000\350A\000\001\024\000\031\210\024\000\002\335\002e\220\016\000\000\370\016\246\003\000\007\000e\005\230\016\000\000\250\024\000\002H\001\000\020\000\025\260\024\000\002\342\003\030\260P\000\022r\204\005\030\270\024\000\003\310\002\030\310\024\000!f3x\000\030\360x\000!f4\024\000f\020\017\000\0008\017@\003\000\024\000\031\030\024\000\002\277\001\031(\024\000\002\310\000j@\017\000\000x\017Y\004fH\017\000\000\210\017@\003\000\240\000jP\017\000\000X\017m\001\000\020\000'h\017m\001\000\025\000\000\021\000\027py\000\000\024\000\031pe\000\002\215\000\000\020\000'\250\017S\003\000\025\000\031\220\025\000\037v\252\001\nX\230\017\000\000\350A\000\001[\001W\017\000\000(\020\224\003\000*\000op\020\000\000\210\020\000\002\023jx\020\000\000\360\020\000\002\031\220\024\000\003~\000Z\020\000\000\b\021\000\002j\250\020\000\000\260\020\000\002\000\020\000*\270\020\000\002\030\270P\000\003\000\002\030\310\024\000\003\000\002\030\320\024\000\003\000\002\030\370x\000\003\000\002j\030\021\000\000H\021\000\002\031(\024\000\003\224\007\t\024\000\002\310\000jP\021\000\000\210\021\000\002\000\024\000*\220\021\000\002jX\021\000\000h\021\000\002\000\020\000+p\021\000\002\000\021\000*x\021\000\002\031xe\000\002\215\000\000\020\000+\260\021\000\002\031\230\025\000\017\000\002\013V\250\021\000\000\360A\000\003[\001d\021\000\0000\022\000\025\000\002 \001ox\022\000\000\220\022\000\002\023j\210\022\000\000\370\022\000\002\031\230\024\000\003~\000Z\022\000\000\020\023\000\002j\260\022\000\000\270\022\000\002\000\020\000*\310\022\000\002\030\310P\000\003\000\002\030\320\024\000\003\000\002\030\330\024\000\003\000\002'\b\023x\000\003\000\002j(\023\000\000P\023\000\002\0310\024\000\002s\001\0318\024\000\002\310\000jX\023\000\000\220\023\000\002\000\024\000*\230\023\000\002jh\023\000\000p\023\000\002\000\020\000+x\023\000\002\000\021\000*\210\023\000\002\031\210e\000\002\215\000\000\020\000+\270\023\000\002\031\250\025\000\017\000\002\013g\260\023\000\000\370\023x\006\001[\001c\023\000\0008\024\000[\001\003\215\006V\210\024\000\000\220\025\000\003\200\000F\024\000\000\330\025\000\002\372\000t\230\024\000\000x\025\000\025\000\002\373\000V\250\024\000\000\030\025\000\0219?\000Uh\025\000\000p\025\000\0222i\006\000\021\000\026\260\025\000\002\026\002\000P\000\026\360\025\000\002\027\002e8\026\000\000\250\026\025\000\002\334\001V\230\026\000\000\330\025\000\002\372\t\000&\000%\020\027\025\000\002\322\000V\b\027\000\000H\025\000\0216*\000\000&\000\026\210\025\000\002\322\000t\320\027\000\0008\030\000\025\000\002&\nV0\030\000\000p\025\000\0229\223\000E\030\000\000\250\025\000\0223\322\000V\230\030\000\000\330\025\000\002\322\000\000&\000%\030\031\025\000\002\217\001Vh\031\000\000\250\025\000\002\352\002Vp\031\000\000\350\025\000\002\257\002e0\032\000\000p\032\025\000\002\271\001V8\032\000\000\260\025\000\002\244\001j\370\032\000\000\030\033\025\003'\b\033\024\000\"r3\321\000j\210\033\000\000\270\033\216\003\031\230\024\000!80\025\000\031\250\025\000\0223$\001\\\310\033\000\000\350*\000y\320\033\000\000p\034\000\315\003\031\370\024\000\02238\001s\270\034\000\000H\035\000\025\000\02248\001V\030\035\000\000(\025\000\002\336\002'(\035*\000\021pS\0009\0020\035>\000\0027\001t\260\035\000\000\030\036\000\025\000\0027\001V\020\036\000\000H\025\000\0027\001\000&\000*(\036_\004\031()\000\0228\016\001\0320>\000\002\320\000\\P\036\000\000p*\000VX\036\000\000\370*\000\000\007\000*\005\210\024\000\002\236\001cH\037\000\000\230\037\025\000\021p|\000d\002P\037\000\000\250\024\000#rsR\000E\037\000\000\220\025\000\0234\231\002d\037\000\000P \000\025\000\0218\025\000t\260 \000\000(!\000\025\000\002k\003'\020!\025\000\021p\221\000e\002\030!\000\0000)\000\021s\317\000l\004@!\000\000P\025\000UH!\000\000\210\025\000\0225\335\001t\030\"\000\000\250\"\000\025\000\002\237\001Vx\"\000\000\210\025\000\002\327\002\030\210*\000\021pu\001*\002\220>\000\002v\001t\020#\000\000\230#\000\025\000\002\264\001\032p\025\000\002\333\fVx#\000\000\210\025\000\003#\005\b*\000\"p6h\000\n>\000\0028\001t\b$\000\000\210$\000\025\000\002\000\003Vh$\000\000p\025\000\0028\001\030p*\000\021p>\000)\002x>\000\0226\016\001t\360$\000\000x%\000\025\000\002\016\001)P%\025\000\002s\013VX%\000\000h\025\000\0213\025\000\030h*\000\021p\311\001*\002p>\000\002F\002t\350%\000\000X&\000\025\000\002\313\004'H&\025\000\"p9F\002\031&)\000\002\337\004t\310&\000\000P'\000\025\000\002(\020)('\025\000\002\261\005V0'\000\0008\025\000\002\255\006\0308*\000!p1\372\000)\002H?\000\0227\017\001t\270'\000\0000(\000\025\000\002\017\001'\030(\025\000\022pn\n9\002((*\000\0222x\004d(\000\000\020)\000\025\000\002\333\005\030\370\025\000\022p\377\017e\002\b)\000\000\030*\000\021sH\002l\0040)\000\000H\025\000U8)\000\000x\025\000\0237\021\004W*\000\000P*\243\r\000~\000(\030*}\020\023d\002\re\230*\000\000\270*\321\020\003\253\007W\250*\000\000\320\026\000\002L\022\033\260B\000\002\000\001\000>\000\027\b\026\000\002X\016W\310*\000\000\330B\000\002&\002\000T\000&\350*,\000\002\346\017\000(\000&\020+,\000\002=\002\023\350n\000\bA\021aP+\000\000\270.?\000\005<\024\t\024\000\"r7\376\004t\330+\000\000X,\000\025\000\002\227\004V8,\000\000H\025\000\002(\002'H,*\000#p1\255\004E,\000\000h*\000\022sV\001V\350,\000\000\360\025\000\002\245\002\000\021\000%\b-?\000\002\204\004f\020-\000\000(-\347\000\003\311\013V-\000\000\360-\347\000\002\373\002W\320-\000\000\350\026\000\002W\000U\330-\000\0000\325\000\"d1\326\000\000(\000\027(\026\000\002!\004\000T\000&\b.B\000\002\023\021W\370-\000\000\020,\000\0217,\000\000(\000\027p,\000\002+\021\000(\000\031x,\000\000\227\001Y\030.\000\0008,\000\000\204\000\000\200\000'h.\033\021\000\257\000gX.\000\000\210.\321\021\000*\000\000&\000\035\270V\000\000~\000\031\220V\000\000\230\000\023x,\000\b\355\001Q\320.\000\000\350O\003\006\355\001\000\024\000\021\220$\003\000>\000\0237\344\004U/\000\000\250/\025\000\002}\007Up/\000\000\330\025\000\023s\231\006A0\000\000P\314\003\001\025\000\002\275\000\000\021\000%h0\303\001\0225\247\004V0\000\000\2100\275\000\002@\004f\0301\000\00081\275\000\002\351\000W(1\000\000P\026\000\002e\005T01\000\000\210\277\000\001\026\000\000B\000\000>\000\026\270\026\000\0222F\022VH1\000\000XB\000\0212y\000\020\005T\000\027h,\000\0211,\000\000(\000\027\220,\000\0221m\001W1\000\000\3101\201\021\000\203\000\"\2601.\001\004+\000\002\205\003U\0202\000\000(D\001\000\026\000\023\002\026\000\031\030\026\000\000W\000\000\022\000\0318B\000\000,\000\000>\000?X2\000\025\030\026Q\003\003\003\003\016\001\000Q\002\002\002\002\003\001\000+\002\003\001\000 \002\003\035\000\026\016\001\000/\020\016\001\000\000_\006\006\006\006\020\027\000)\037\002\001\000\002/\020\002\n\000\000\021\001\005\000\024\001\025\000\027\020\t\000\007\b\000\000\"\000%\016\003\001\000\0024\000%\020\003\001\000\"\016\016\027\000\007\025\000\001\022\000\360\007\001\021\001%\b\023\005\003\b\020\006\033\b\021\001\022\001\000\000\002.\001\t\000\360\007@\n\207@\b\003\b:\013;\013?\f\000\000\0034\000\003\bI\023\017\000\2203\013\002\n\000\000\004\005\000\t\000\002\"\000\020Ix\030\0334\021\000P\006\035\0001\023K\000\262X\013Y\013W\013\000\000\007\013\001c\0000\b\001\001!\000\360\006\t!\000I\0237\013\000\000\n$\000\003\b>\013\013\013\000\000\013\013\000\340\013\013>\013\000\000\f9\001\003\b\000\000\rLq \013\013V\000\366\001\000\000\016(\000\003\b\034\017\000\000\017\023\0016\013\030\000%\020\r\237\000r8\n\000\000\021.\001\210\000 <\f\275\000\240\022\005\000I\0234\f\000\000\023\t\000r\000\000\024\026\000I\023!\000U\000\000\025.\001\352\000\"I\0231\0000\026\b\000\017\000a\030\023\000\000\027\0173\000\027\030p\000E\005\000\000\031p\000\020\005p\000\023\032p\000\022\005?\000\026\033S\000\024\005S\000\025\034t\000Q\005\000\000\035&U\000=\036.\000{\000\030\037\273\000W2\013\000\000 \240\000\004\024\000\035!\264\000\000\026\000!\"\020V\000\241#.\000G\023 \013\000\000$\306\000\020\005\306\000\033%1\000Z\000\000&.\001\241\000:'.\001\212\0000(\023\000)\000\020)\372\000\004h\0016*.\000\351\000`\207\001\f\000\000+<\016\020,\351\022 -&\243I\021\025\333\001;/.\001(\000:0.\000p\000\0261\223\000\022\005\223\000R\000w:\000\000\225\033!\b\001\315s\024 \275n\362\f18.1.7 (https://github.com/\025v`gpgpu/&v\377!.git b115a172abc24683b2730b5b601f34e27fe19d93)\000\032|u\004\000\001\000\017\004w\024\034\000pw\003Y\034\006\021\000/\001\234\246\004\021\n \000Y\000\001\\\001\003\206\202\020\211r\032Sh\b\t\003\377\001\000\032\003q\202\001 \000\030i \000\003]\202\001\031\000\027j\031\000q\004\006\t\221\310~\226\001\000Piteran\035\245\000\001\\\351\026\000\000\004\006\013\034\000!#\bb\000[\000\001]\005\036\032\000\021\020\\\000msrc\000\001^\035\000\021\030\035\000mdst\000\001_\035\000\335 grid_cols\000\001`r\000\021$\036\000}rows\000\001a\036\000s(border>\000\035b \000\023, \000\002@\000\035c \000\2330Cap\000\001d\233\005\030\000m4Rx\000\001e\027\000?8Ry\027\000\001?<Rz\027\000\001_@step\031\000\001\360\001Dtime_elapsed\000\001f!\000\030\005!\000CHamb\365\001\035o\035\000\020LW\000\001d\030\001\275\000\035p!\000\215PRx_1\000\001q\031\000?TRy\031\000\003?XRz\031\000\003\213\\bx\000\001s\351\026\027\000m`by\000\001t\027\000mdtx\000\001v\027\000mhty\000\001w\027\000qlsmall_`q\003\241\001\035\205%\000\030p%\000\002\346\001\035\206%\000\215tblkY\000\001\212\031\000\215xblkX\000\001\213\031\000\020|2\000bmax\000\001\214\034\000\026\f\034\000 \200\0016\000\001\035\000\035\215\035\000\355\204\001validXmin\000\001\223\037\000\024\210\037\000\000>\000\035\224\037\000!\214\001\t\003\000'\001;\230n:\035\000\200\254\001comput\023\002\263\231\242\032\000\000\006\256\r\000\000\200\206\035\023\240\b\000P\001s\f\006\264y\032\003t\035\023 \b\000P\001t\f\006\2720\000\003\020\000\024\240\030\000@v\f\006\3000\000\003\217\035# \013\030\000Cw\f\007\340\346\020\023\340\223\n\t\217\000`\260\001i\000\001\233\303\0000\000\000\b\031\002b\t\244\005\000\000\b\006\000\362\027\000\nfloat\000\004\004\013__ARRAY_SIZE_TYPE__\000\b\007\fnv\000\f^t\361\001\000\fdetail\000\rsm_sel\256z\301\000\b\002X\016sm_35\000#\b\000A7\000%\016\207t!\0002\b\00012\0004\b\00003\0005\b\000A60\000<\b\00011\000=\b\00002\000>\b\000A70\000F\b\00012\000H\b\00005\000K\b\000A80\000P\b\00016\000V\b\00017\000W\b\00009\000Y\b\000r90\000Z\000\017\005\242\000\201_descrip\366\004B\b\002Q\020\027\000\317s\000\257\006\000\000\002R\002#\000\021)\000\000\260\002T\001\001\022\215\007\000\000\001\023(\000P\000\000\024w\007\237S\362\004se_int_t\000\0022\025_ZN2nv6>\000\0226\b\001\367\00410is_exactlyENS1_11\031\001&E\000\036\000P\000\002\216`\006\271u \023\317r \017N\000\002\2378providesK\000\001\004\034\0008\000\002\223I\000@\000\026\002\253\020\0000\026\002\254\020\000A\026\002\312\301\016\000!\313\017(\204\341\nunsigned long\005\000@\000\007\b\0272\000\366\013\030\005dim3\000\f\003\242\001\031x\0001\b\000\000\003\244\001\002#\000\031y\r\0006\004\031z\r\000!\b\0321\000\200\003\247\001\001\001\022A\b-\001\000\034\000\006\005\000\023\000!\000\026\250!\000\020F\027\000`\033_ZNK4\034\000\320cv5uint3Ev\000op\234\0061or \021\000@\000\003\251\001,\000@\001\001\022\204\007\000\b\272\000\363\001int\000\007\004\027\222\007\000\000\034T\b\000\0001\000B\200\001\017\005\013\000C\f\003\300\020\302\000e\302\002#\000\020y\f\0005\004\020z\f\000\200\b\000\027\211\b\000\000\035H\000:\017\004_L}\004\032vp_t\000\001\004A\036\236\001\0375#\000\006\22517__fetch\034\000MxEv\000\024\000A\000\004B1\323\000\017O\000\036\037yO\000\000Oy\000\004CO\000$\037zO\000\000Bz\000\004DO\000\000\213\002\037KP\000\b!cv\273\001\b\263\001\000\020\0000\000\004GJ\0010\001\001\022\217\004/\001\000G\000\017\017\373\001\005G\004HT\bI\000\037\037C\000\006\217\000\004K\001\001\003\022\n'\000\030 \023\017$\005\037 \234\000\fuaSERKS_\231\000\023=C\000\026\000C\000\037!C\000\r\027d\331\000P&\000\004K\024<\000\004D\000\320\000\000\027\005\013\000\000\035\216\b\000\000\027\005\0003\"\005\013\n\000\r\213\002\005\203x\001\214\002\0214\356\001\0376$\000\007\017\215\002\026\0275>\002\017P\000\003\017\216\002\033\0376P\000%\017\217\002\004\0307\217\002\017Q\000\003\017\220\002\013\023:\220\002&\225\r\220\002\017H\000\003\017\221\002\r7;T\bJ\000\037\037D\000\0070\000\004>\344\001\037\237(\000\0315\023\244\r\223\002\017\237\000\b\017\224\002\000\001D\000\026\225D\000\037!D\000\016\013\225\002 >\251=\000\004E\000\220\000\000\027\232\r\000\000\035\031\213\002\000\005\0003\"\232\r\n\000 #\255\001\001!#\374\006\000\0209\302\002 #\211\006\000\361\001\fstd\000\026\005\310\316\026\000\000\026\005\311\360\007\0000\312\r\027\007\000!\313,\007\000!\314I\007\000!\315h\007\000!\316\205\007\000!\317\252\007\000!\320\311\007\000!\321\346\007\0000\322\003\030\007\000!\323.\007\000!\324I\007\000!\325f\007\000!\326\201\007\000!\327\236\007\000!\330\271\007\000!\331\326\007\000!\332\365\007\0000\333\022\031\007\000!\3345\007\000!\335T\007\000!\336{\007\000!\337\236\007\000!\340\301\007\000!\341\344\007\0000\342\016\032\007\000!\3439\007\000!\344^\007\000!\345}\007\000!\346\252\007\000!\347\327\007\0000\350\017\033\007\000!\351.\007\000!\352U\007\000!\353\207\007\000!\354\275\007\000!\355\334\007\0000\356\001\034\007\000!\3573\007\000!\360X\007\000!\361}\007\000!\362\236\007\000!\363\312\007\000!\364\353\007\0000\365\006\035\007\000!\366%\007\000!\367D\007\000!\370a\007\000!\371~\007\000!\372\235\007\000!\373\276\007\000!\374\341\007\0000\375\n\036\007\000!\376C\007\000\241\377b\036\000\000$\005\000\001\211\b\0001\001\001\266\b\0001\002\001\327\b\000@\003\001\004\037\b\0001\004\0012\b\0001\005\001O\b\0001\006\001n\b\0001\007\001\227\b\0001\b\001\276\b\0001\t\001\341\b\0001\n\001\374\b\000@\013\001\031 \b\0001\f\0016\b\0001\r\001Q\b\0001\016\001n\b\000\240\017\001\217 \000\000\026\0074\256\007\0001\tU\302\007\000!h\326\007\000!{\352\007\000!\216\376\007\000\020\2320\033A\026\t\255,\007\000!\300?\007\000!\323S\007\000!\346f\007\000\241\371z!\000\000$\t\f\001\217\b\0001\030\001\250\b\0001+\001\302\b\0001>\001\334\b\0001Q\001\357\b\000@d\001\004\"\b\0001p\001\"\b\0001\214\001:\b\0001\237\001M\b\0001\262\001a\b\0001\305\001u\b\0001\330\001\210\b\0001Y\007\234\b\0001Z\007\254\b\0001]\007\273\b\0001^\007\320\b\0001_\007\346\b\000@a\007\013#\b\0001b\007 \b\0001c\0076\b\0001e\007L\b\0001f\007a\b\0001g\007w\b\0001i\007\215\b\0001j\007\241\b\0001k\007\266\b\0001m\007\313\b\0001n\007\350\b\000@o\007\006$\b\0001q\007$\b\0001r\0077\b\0001s\007K\b\0001u\007_\b\0001v\007s\b\0001w\007\210\b\0001y\007\235\b\0001z\007\261\b\0001{\007\306\b\0001}\007\333\b\0001~\007\360\b\000@\177\007\006%\b\0001\201\007\034\b\0001\202\0076\b\0001\203\007Q\b\0001\205\007l\b\0001\206\007\212\b\0001\207\007\251\b\0001\211\007\310\b\0001\212\007\342\b\0001\213\007\375\b\000@\215\007\030&\b\0001\216\0072\b\0001\217\007M\b\0001\221\007h\b\0001\222\007\202\b\0001\223\007\235\b\0001\225\007\270\b\0001\226\007\316\b\0001\227\007\345\b\0001\231\007\374\b\000@\232\007\022'\b\0001\233\007)\b\0001\236\007@\b\0001\237\007W\b\0001\240\007o\b\0001\242\007\207\b\0001\243\007\237\b\0001\244\007\270\b\0001\247\007\321\b\0001\250\007\346\b\0001\251\007\374\b\000@\253\007\022(\b\0001\254\007&\b\0001\255\007;\b\0001\257\007P\b\0001\260\007d\b\0001\261\007y\b\0001\263\007\216\b\0001\264\007\244\b\0001\265\007\273\b\0001\267\007\322\b\0001\270\007\351\b\000@\271\007\001)\b\0001\273\007\031\b\0001\274\007,\b\0001\275\007@\b\0001\277\007T\b\0001\300\007n\b\0001\301\007\211\b\0001\303\007\244\b\0001\304\007\303\b\0001\305\007\343\b\000@\307\007\003*\b\0001\310\007#\b\0001\311\007D\b\0001\313\007e\b\0001\314\007\204\b\0001\315\007\244\b\0001\317\007\304\b\0001\320\007\345\b\000@\321\007\007+\b\0001\323\007)\b\0001\324\007>\b\0001\325\007T\b\0001\327\007j\b\0001\330\007\200\b\0001\331\007\227\b\0001\333\007\256\b\0001\334\007\313\b\0001\335\007\351\b\000@\337\007\007,\b\0001\340\007#\b\0001\341\007@\b\0001\343\007]\b\0001\344\007s\b\0001\345\007\212\b\0001\347\007\241\b\0001\350\007\267\b\000\241\351\007\316,\000\000\026\013\203\345\007\000!\204\364\007\0000\206%-\007\000!\2122\007\000!\215O\007\000!\220m\007\000!\221\201\007\000!\222\225\007\000!\223\251\007\0000\224&.\007\000!\225B\007\000!\226[\007\000!\227m\007\000!\230~\007\000!\231\232\007\000!\232\257\007\000!\233\311\007\000!\235\340\007\000!\236\373\007\0000\237./\007\000!\241O\007\000!\244p\007\000!\247\210\007\000!\250\227\007\000!\251\264\007\000!\252\306\007\000!\253\346\007\0000\254\0060\007\000!\255'\007\000!\257>\007\000!\260k\007\000!\364\377\007\000\020\366s\035A\026\013\370D\007\000!\371\321\025\000!\372Z\016\000!\374u\007\000!\375\315\007\000!\376\212\007\000\261\377\2531\000\000$\013\000\001\3501\351\r\360\001St3abse\000abs\000\007O\374\"\203\007\020\023\007\000p\000$\017\273\001\3532\b\000@\274\001\n3\b\0001\275\001+\b\0001\276\001J\b\0001\277\001k\b\0001\300\001\222\b\0001\301\001\261\b\0001\302\001\322\b\0001\303\001\361\b\000@\304\001\0204\b\0001\305\001=\b\0001\306\001Z\b\0001\307\001y\b\0001\310\001\230\b\0001\311\001\265\b\0001\312\001\324\b\0001\313\001\361\b\0000\314\001\022\264cA\017\315\0011\b\0001\316\001V\b\0001\317\001w\b\0001\320\001\240\b\0001\321\001\305\b\0001\322\001\352\b\000@\323\001\0176\b\0001\324\0017\b\0001\325\001^\b\0001\326\001\177\b\0001\327\001\246\b\0001\330\001\311\b\0001\331\001\354\b\000@\332\001\0217\b\0001\333\0012\b\0001\334\001S\b\0001\335\001r\b\0001\336\001\221\b\0001\337\001\256\b\0001\340\001\317\b\0001\341\001\362\b\000@\342\001\0308\b\0001\343\001B\b\0001\344\001r\b\0001\345\001\225\b\0001\346\001\305\b\0001\347\001\365\b\000@\350\001\0259\b\0001\351\0016\b\0001\352\001b\b\0001\353\001\214\b\0001\354\001\252\b\0001\355\001\312\b\0001\356\001\352\b\000@\357\001\b:\b\0001\360\001(\b\0000\361\001L\376\177@%_ZL\325\001\021i\325\001 \005\036[\021!\001\023a\021\020\n\257\016 \005\004\"\000p4acosf\000\006\0000\000\005 x\021C\001\023\233\005?\000\0205\027\000\022h\036\000Kh\000\005\"\037\000p4asinf\000\006\000=\000\005$<\000Bsinh\036\000Mh\000\005&<\000 ta<\000mtan\000\005*<\000Rtan2f\037\000F2\000\005( \000\013%\000\022h$\000Kh\000\005,D\000p4cbrtf\000\006\000=\000\005.\035\000Peilf\000\006\000;\000\0050\035\000P8copy\330\017\000\024\027\003\013\000?\000\0052\204\000\001\0213=\001\001<\001\0354c\000\001;\001\002:\001\0336\035\000\3133erff\000erf\000\005:\033\000Q4erfc\034\000Mc\000\00588\000\255xpf\000exp\000\005>8\0001xp2\034\000K2\000\005<\035\000a5expm1\036\000[m1\000\005@\037\000\2014fabsf\000f)\002\035B\035\000`dimff\000\007\000?\000\005D\213\001\002qfloorf\000\007\000;\000\005FB\000@3fmaa\030kfma\000\005HA\000\bi\0002max'\000Kx\000\005J(\000\004#\000!in#\000\000s\002\037L#\000\004!od#\000_od\000\005N#\000\001\34610fpclassifyf\000\f\0002\000\005P%\003\007\331\000\020rr\0011Pi\000\t\0007\000\005RP\000\0204\221'3\027\351\026+\000\201hypotff\000\b\000?\000\005Tz\000\001\2015ilogbf\000\007\000;\000\005Vo\000\2648isfinitef\000\n\000U\000\005[\242\032%\000\200\nbool\000\002\001-\000\2019isgreatK\002\005\f\000_\000\005_\242\032\363\000\000\0254\"\000Xequal3\000\001\021\000?\000\005^8\000\00115isq\001\001\007\0006\000\005d$\000\001\037\000q6isless!\000\000\t\000?\000\005hF\000\001\"11\037\000\006{\000\005\016\000?\000\005g2\000\002\0223$\000\b\342\000\007\020\000?\000\005j\256\000\004\020nV\004\001\007\0006\000\005o$\000\004_\001\204normalf\000\n\000;\000\005q%\000\000\254\000!un\307\031\020eH\002\007\016\000?\000\005sv\000\001\2014labsl\000l>\0030tP\034\"\000\000\006\000!\000\n\313\024 \005\b%\00005ldJ\002!i\000\b\000U\000\005v\233\005J\000#\351\026J\000\2226lgammaf\000\b\0006\000\005x&\000\022\000F\000\000f\0002x\000lm\000!y\275m\000\025\275m\000\027 r\000\2226llrintf\000\b\000Y\000\005{\275\034M\000\3533logf\000log\000\005\205\233\005h\000Aog10\035\000\000\3443\037}\037\000\001\022p\037\000Kp\000\005\177\037\000Q4log2\036\000O2\000\005\201\035\000\0002bf\000\001\003\035\203Y\000\003\263\000\002\262\0009\207P\034\037\000\2226lroundf\000\b\000;\000\005\211!\000%7l\"\000\004#\000\033\212\366\000\0214\037\0040Pf\000\b\000T\000\005\214\233\005\037\000\020\023+\034B\000\027\233\005)\000\2013nanPKc\000K\0020\215'\036'\000\0201\"\000\361\f\ndouble\000\004\b\0276\036\000\000\035;\036\000\000\nchar\000\006\231\003\0204\204\002\003:\000ef\000\005\216\233\005;\000\000\037\000q9nearby\350\000\005\013\000Y\000\005\220\233\005\250\000r9nextaf\375\002\005\f\000^\000\005\222\233\005\203\002\000\247\214\237fi\000pow\000\005\226Z\002\001\2019remaindN\000\005\f\000?\000\005\230N\000\001\2006remquof\370\004\002\013\000;\000\005\232)\000\002\376\004\001\357\000\002\263\001\002\262\001\026\234'\000\001\035\000\0235\217\001\003\215\001\033\236\037\000\2637scalblnfl\000\n\0006\000\005\240$\000\002G\003\001\223\000\001\037\0002nfi(\000On\000\005\242\347\000\001\0207\254\007Sbitf\000\t\000;\000\005\247\340\003\0213\312\004\001\263\b9\251\233\005\033\000\0224\262\b\002\261\b\035\253\035\000\020qP\b\000\006\000;\000\005\255\035\000\0213\315\b\001\314\b\033\257\033\000\0224\246\b\002\245\b\033\261\035\000#6t\361\003\023t\361\003\033\263!\000\2015truncf\000\007\0007\000\005\265\037\000\020&\003\0040\006H\003\375\000\023\001\331\t\020'\252\t1\000\b5\256\002A\001\023'\036\024\000\000\355\000*\b7\024\000\000\254\000-\b9\024\000G2\000\b;\025\000\003\032\000\001(\t)\b\237.\000\001i\000\034>\023\000Ih\000\bG\024\000\000\355\004)\b_\023\000\001g\b*\b\242\024\000\001:\b*\b\245\025\000\000\303\007.\b\250\220\000\002\215\007(\bb\032\000\001\220\002\022'^\005(\be\032\000\002\032\001\000\350\004'\bh\030\000\"\000'\336\004)\bk\025\000\001\027\004'\bn\024\000 \023\035\b\r\020\027\013\000\020'b\003.\b\214\222\000\001c\001\031@I\000\001G\002*\bI\024\000\000>\002)\b\217\024\000\001\212\001\034B\023\000Hh\000\bK\024\000\020\024\006\000\002y\004`_t\000\n\226\024\004\002\001\025\035\000\017\0002\225'a}\001\031UH\000\003\277\013 \bU-\000\023\0018\002\002\026\000Hl\000\bU\347\r\002?\006\005\332\004\"'a\277\000\035WJ\002\000P\000\032WP\000\000\026\000Hl\000\bWP\000\"'a\305\000\035Yc\002\000A\000\032YA\000!taA\000\031YA\000\001\272\013)\b\230@\000\002\324\013\022\b\266\004\004?\000\000\025\000Jl\000\b\230>\000\004\271\013.\b\304\256\001\004\035\000Gf\000\b\304K\000\002\002\005\005\036\000Gl\000\b\304T\000\003Y\000\000\265\013G\b\344'\036\226\000\001U\005G\b\344\233\005\225\000\227erfl\000\b\344\374\"\224\000\001\324\013,\b\345<\000\\cf\000\b\345=\000Zcl\000\b\345>\000\000\332\013,\b\202^\003Z2f\000\b\202>\000|xp2l\000\b\202>\000\\m1\000\bw?\000lm1f\000\bw@\000hm1l\000\bwA\000\021&\377\013=\bF\001N\001\001\032\000\020f\033\000\rK\001\001\033\000\020l\033\000\rH\001\020&\r\f-\bOO\000\001\005\000\001\036\000\020f\037\000*\233\005S\000\001\005\000\001\037\000\020l\037\000*\374\"W\000\006\\\000Ox\000\bI\254\000\001\000c\f\000\033\000-\233\005\254\000@maxl\033\000.\374\"\254\000\000\337\003\037LP\000\002\000N\006/\bLP\000\002\020iC\002\036LP\000\022'#\fK\b\223'\036P\000\002\032\000kf\000\b\223\233\005P\000\002\033\000ll\000\b\223\374\"\240\000\002O\fU\b\030\001\351\026Q\000\003\026\000\027f\027\000%\233\005\027\000\027l\027\000\001D\000\023's\nH\b\346'\036#\005\003\240\006F\b\346\233\005D\000\003\027\000fl\000\b\346\374\"D\000\023&j\n1\b<\001u\t\004\211\000\002\027\000\027f\030\000&\233\005\030\000\027l\030\000\005G\000\001/\b-\bBH\000\002N\b-\bBI\000\000\031\000\027l\031\000\001J\000\022'\241\nF\bz'\036G\000\023'\275\nF\bz\233\005D\000\002\026\000jl\000\bz\374\"A\000L2\000\b\205@\000\000u\003\0024\013\007?\000\000u\003\034\205>\000Lb\000\b}>\000\000\225\001\002S\013\007>\000\000\223\001\030}>\000\023&M\001!:\001\345\n\003@\000\024&L\001\005\027\000%\233\005\027\000\027l\027\000\004D\000\002J\001\034@E\000\003I\001\034@F\000\003H\001\031@G\000\020'\004\013 \b\311<\000\023\001\312\n\021'\335\nJ\b\311\233\005\024\000fl\000\b\311\374\"\024\000\026&\343\n(\b&A\003\007\032\000\020f\033\000'\233\005\210\000\005\033\000\020l\033\000'\374\"\322\000\006\013\013/\b\003\221\003\000\005\037\000\020f \000\016\226\003\005 \000\020l \000\016K\003\000 \000 to\223\2369\000\b\005`\000\f \000\020f!\000&\233\005a\000\f!\000\020l!\000,\374\"b\000\006~\013/\b\020\301\000\000\005\037\000\020f \000\016\301\000\005 \000\020l \000/\374\"_\000\000\000\261\013-\b3\\\000\002#\t\003!\000\020f\"\000*\233\005^\000\t\"\000\020l\"\000*\374\"`\000\004\"\000\001\320\001\030\000c\000#\000&\231\002\030\000W\000#\000&\230\002\030\000K\000#\000&\227\002\033*B\000\003\226\002\033*C\000\003\225\002\032*D\000\0042\f(\b\"F\000\0024\f\004\035\000\020f\036\000\007M\000\n\036\000\020l\036\000\007T\000\b\036\000]n\000\b\024\001G\n\003\034\000\020f\035\000\bW\000\b\035\000\020l\035\000\bV\000\001\035\000\023'\343\013'\b\353U\000\004\026\000Gf\000\b\353O\000\004\027\000Gl\000\b\353I\000\"\000&\007\f(\b.\231\000\003\026\000\020f\027\000\bD\000\002\027\000\020l\027\000\bD\0001\024\362,\271\216\240_t\000\006>(\001\024\002-\224w\002\020\000\300F)\005\020\006B\020quot\000\013\001 \006D\253$2rem\016\000\020E\241$\361\013*abort\000\006O\002\001\001\001&atexit\000\006S\002\351\026d\000\020I\3633\362\001\027N-\000\000+&at_quick_$\000\031X$\000t'atof\000\006\252\013#1\036\024\000ji\000\006h\351\026\024\000fl\000\006kP\034\024\000\341&bsearch\000\0064\003\325-\030\000B\326-\000\000\005\000\025\334\005\000\020\373h\000\302,\027\333-\000\000-\024\352-\000\000\342\241:\000\f\022s&p\000\007\b\034\021.\000\270\256\200ompar_fn\016\001\200(\003\027\026.\000\000.\216\000\006`\000 \000&p\242coc\000\006\036\002|\000\005r\000\265\000&div\000\006T\003\345,\224\r\002\376\001\022/\003\0014i\002\001\253\r\321\032free\000\0065\002\001\001\023\325<\000\306getenv\000\006z\002\225.\354\000\020\027_\020\021&\360\0213\006I\003\006\001\000\007\0001\000&ln\000EV\003\364,\025\000\003\032\000\023m\243\000\030\033\243\000\244\000&mblen\000\006\2324\016\000a\000\005\033\000\262stowcs\000\006\245\003\3344\000G\036/\000\000#\000p\027#/\000\000\nw\351\020\020_>\0300&mb2\0004\000\006\235O\000\0131\0001\032qs*\002#>\003\343\000*\023\334\233\001\030/\036\002\026o\033\001\2030rand\000\006\305\241\b3&re\317\000\024&\317\000\005N\0002\000\032s-\0002\307\001\001\353' \000'\371\261Wod\000\006u[\002 \023\341t*4\027\225. \000jl\000\006\260P\034 \000\002~\000\002@\000\177ul\000\006\264\352-!\000\001\250&system\000\006\020H\001\200\000&wcstom\250\001\024\250C\001\000p\0004\023a0\255\000\201\027f0\000\000\035#/-\000\000,\0004\000\006\241D\000\001+\000\000\033\000\362\000\000\f__gnu_cxx\000\026\013\314\341\033\022\322\341\033\022\326\341\033\022\334\332\033\022\347\332\033\022\350\323\033!\351\253\007\000\022\353\350\033\023\354\331\033%N9N\000p3divExx\375\0030\000\013\331X\000\022\001<\024\002A\024t\000\024\0161\000\000l\f\004\020P\f\004\022L\f\004\000 \000$\006N\f\004\001\016\000\020O\f\0041/_E\274\001\026u\274\001\022&\233\024U\006L\003\275\034a\000\000\026\000\001\254\002-Z\003w\000\020'\340\003fl\000\006p\275\034L\001\003\244\001_l\000\006\310\275\245\001\nol\000\006\315w\007\"\000\007jf\000\006{\233\005 \000\003\033\000{ld\000\006~\374\"\034\0001\026\r&\036\0361\r'2\007\000\021(\355\035!\r+%\036!\r.\265\035!\r1\216\001!\r6V\036!\r7V\036@\r9\370\024\007\000\021:H\036!\r;H\036!\r<H\036!\r=H\036!\r>H\036!\r?\240\035!\r@A\036!\rAA\036!\rBA\036!\rCA\036!\rDA\036!\rFA\036!\rGA\036!\rHA\036!\rJA\036!\rK:\036!\rL:\036!\rM:\036!\rN:\036!\rO:\036!\rP:\036!\rQ:\036!\rS:\036G\rTk0\336\033\022f\336\033Kf\000\016;{\022\0226>\020\003\376\033Kf\000\016=!\000\"5a\034\030\001\007\000=\000\016?@\000\020s.\020\002 \000\000@\000\035A!\000\002\346\033\003\347\033Of\000\016D\350\033\006\003%\000Of\000\016EF\000\001\023h \000\000g\000\033G!\000\02155\020\002\n\034Mf\000\016I\037\000\000\013\034\002\f\034Kf\000\016K\037\000\0259,\020\007\016\034Of\000\016O\253\000\001\0224Q\001\002P\001\035Si\000\002O\001\003N\001\034W\037\000\001\n\020\002\371\033Of\000\016`\027\034\000\002\036\000Of\000\016e\337\033\000\"2f\375\033Of\000\016l\033\034\000\002\036\000Kf\000\016m\035\000\0226\005\020\"f\000\b\000;\000\016o!\000\0205\260\023\022f\036\034Mf\000\016p\037\000\001\037\034\002 \034Of\000\016r\031\001\001\0216\340\023\023f\"\034Kf\000\016|F\000\0224#\034!f\000\371\017+\016\200E\000\bo\000\001%\034\001)\000[xf\000\016\204*\000\004%\000\"in%\000\001\233\002\037\206%\000\004\"od%\000\000\363\023/\016\210\271\000\003\021r=\001\004\002\034Gf\000\016\212(\000$4\032(\000\002\271\017\004\377\033Of\000\016\214O\000\002\002\224\017\003\001\034@f\000\016\216\254\004\030\001\342\030\021dp\000\003(\032Gf\000\016\233H\000%\351\026\350\030\0027\n\004*\032mf\000\016\235\233\005\013\031\000\221\013\004\000\032if\000\016\246\275\034#\000\0248Q\017\005/\031\\f\000\016\250\275t\031\000&\025\000#\000\002\023\032\034\016\374\026\0226P\017#f\000X\017/\016\257.\032\000\0222 \000\000\236\002\037\261\037\000\000\000\023\001\003\022\001\037\2650\032\000\002\036\000Mf\000\016\266|\000\004\344\000\003\343\000;\273P\034\006\001\005\342\000\004\341\000\033\275#\000\0225\007\002\003\022\032jf\000\016\307\233\005\023\032\0024\036\006\257\016\007\270\0312f\000\016\003\017\006P\000\000*\000\004\204\016\b\273\031Of\000\016\315\024\002\001\0204\274\031 ff\275\031Of\000\016\347#\000\001&10\026\016\b\300\031Of\000\016\3570\000\001\0237\344\r\007\302\031Kf\000\016\365+\000\002\276\002\0201\003\001\003F\001\003E\001&\000\001*\000\003\021\032\003E\001\004D\001\027\252!\000\000A\000\0248o\r\006\311\031Gf\000\016\036H\000\002\231\n\000,\000\0237C\r\005\314\031\\f\000\016\026\001\346\002\0231\220\0312ff\000_\006\0272#\000\001\036\000\0235_\006\003^\006\0366 \000\000\261\031\002\262\031Lf\000\016: \000\0224W\006\002V\006\035<>\000\003V\006\003U\006\034> \000$7t\202\003\024t\202\003\034@$\000\0226\231\r\003\276\031Hf\000\016B\"\000\007\3454\000\305B /\b>U\001B\270\"\004\021\f\000\023\270\030\000\000\3563\023\n\030\000\001\3723\003\030\000\000\221>\023\016\030\000\"\001\000\001\000'\004\022<\000!7\004l\300\020\001t\t\203*\000\000\0044\340\000\310\035:\0000\000\000\206T*(\003\020\000&P\003\020\000\000\235U*\260\003\020\0005p\005\000\020\000[\030\007\000\000\230\020\000*\270\006\020\000\033\350\020\000*\020\007\020\000\0278\020\000[P\b\000\000\210\020\000\033\310\020\0009\b\b\000\020\000\033H\020\000_\004\036\004\000\200\374\000\002F@\000\350\000,\000\000\034@\021x\t\000\006\020\000*\330\003\020\000\033\370\020\000\000\\\000\0370\\\000\0010\n\b\000/7\242@\001H\000\003\031H\000\004\027\370R1\r\000D\205M\004\020\0009\f\000@\020\0009\013\000<\020\0009\n\0008\020\0009\t\0004\020\0009\b\0000\020\0009\007\000,\020\0009\006\000(\020\0009\005\000$\020\0009\004\000 \020\000\0018\272%\360!\020\000\001o\257\007\020\0009\001\000\b\020\000\001\001\000\360\001\360\021\000\003\033\377\000\004\035\b\000\210\t\000\000\b\214?\220\034\b\000\3102\000\000\3702h\001F\320\0018\r8\001\027\240\353R\004\020\000&8\017\020\000\027\220NQ\004\020\000&H\021\020\000\027\230nO\004\020\000&P\023\020\000\027\240\216M\004\020\000&\270\033\020\000\027\370\276J\004\020\000\033\360\020\000&H\036\020\000\027\200\365I\004\020\000\033x\020\000&0!\020\000&\340/\356H\000\020\000\000\212E*\230#\020\000*\210$\020\000*x%\020\000*X&\020\000*P'\020\000*0(\020\000*\030)\020\000*8+\020\000\033H\020\000*x,\260\00058-\000\020\000\027\320\241D\004\020\000\033\310\020\000\000\370\002&\220\002,\273\023\023\034\000\000\b\000\003\337\003P\000\376\377\377\377\b\000\023\375\b\000\023\374\b\000\000\376?\000\001\000\023*,\000*\020\021\020\000*\b\017\020\000&p\r\020\000\000d\000\023\353x\000\023\002p\000*\035\000\020\000*h\005\020\000#\340/X\305\f\030\000\003|:\033T\030\0001 \013\000\001\000\033L\030\000\000\0235\000\001\000\033<\030\000\004\350:\0334\030\000\004\b;\033$\030\000\0040;\033\034\030\000\004P;\033\f\030\000\004x;\033\004\030\000\023\200\030\000*\321\000\030\000\004\343?*\311\000\030\000\004\001\000/\300\0000\000\003/\270\0000\000\003\033\\x\000\017\001\000\377\216\371\004\357\037\340\375\003\274\177\000\005\000W\000\200\007\230\\\004\000G\b\000\f \000\023\000\030\0009\003\000W \0001\006\000\007\020\000\260\000\006w\001\000\000(8\007\000\367\232\003\024\004 \0000\b\007\367\032\277B\034\t\0007(\000\022\t(\000\004 \000\023\n0\000\"\013\n(\000\204\007\b\327\017\200\003h6 \000\"\017\013\020\000\233\007\000\007!\200\003\220P\f\240\000\023\000\220\0003\005\000g\240\000\031w \0001\b\000\207\020\0003\006\000\227\340\000\031\247 \0003\013\000\267\340\000q\200s\000\000\240\342\017\303\002$@\342 \000\000\320\000\000 \000\023\007X\000J\017\000\207' \000\021\307\030\000\364\001\007\377w\000\000\020[\\\t\360\007\000\000\370\007\001 \000\023\tx\000\204\007\007\227\000\200\203\274[H\000\f \000@\017\000\200gX\000\000\236\007\b \0001\n\377\007X\000\"\007\n@\000\033\n\300\000@\017\000\000d8\000\240\r\006W\000\000\002G\\\r\rH\001\025\007\200\001\300\007\r\367\017\200\003e[\017\000\200](\000\002\210\000%\262[@\000\022\n\020\000@\027\000\007 `\001@\007\000\007\340\b\000\005 \000\022\020\020\000A\017\000\202Y@\000\032\005`\000#\027\007`\0002\020\007A(\000)\001S \001\022\0060\000\023\017(\000\004\310\001\007\300\000\021KX\000\020\b \000!c[\277\b7\000\220\342 \000\001\220\001\f\210\001\006 \000\000\351\t4\370\360\005 \000\001\200\001\025\005\200\001\023\f\240\001\204\005\fw\000\200\002\200Y\320\002\005\240\000t\360\007\374\377\377\017\001\030\000\017`\000\005$\007\013\240\000*\200\007\240\000\0006\n$@\342(\000\023\006\210\000\005\200\002\003\220\000\004\330\001\206\000\000\207\000\000\003\200Y\300\002\023\007 \002\020\007\006_\024\034P\003\005\240\000\005x\002\002`\000@\003\003\027\370(\003\005@\000\020\003P\003@H8\000\005 \000;\021\\\000@\000\"\005\004 \000\020\005 \000a\b\f\034\005\006W(\000H\357\037\340!\340\0030\006\005G.\006\213P\005\377W\000\0000Y\300\000\312\003\001\b\005g\000\000\004\200Y\b\006\300\000\004\360\000\023\006\330\000\020\t(\000\026\000 \000\"\t\t\030\0001\000\005\227\030\000\020\005\220\003<\004\200Y`\004\"\006\005\030\004*\006\006@\0040\n\360\367\331\000A\001\n\nG\270\000 \n\nKM\025\020\240\0001\n\nw\020\0001\006\ng\b\000\021\003p\002\006 \001\204\007\003\347\017\200\003b6\b\004\004p\003\f\200\001\004\210\000\033\n`\003\023\006X\004C\000\000\000\036 \004\032\033\340\002\000`\000`i6\017\000\200\026\030\000\217\007\006\027\000\200\003c6 \002\003\244@\343\007\006\207\376\377\003c7 \000\001\230\0014\000\b\004\200\000\021\017\236\005$@\343 \000\021\0030\0011\220Y\004\b\000\246\210Y\007\003G\000\200\203\275[\300\000\000\030\000&\230Y`\002h\367\377\377\007\000\004\340\000p\000\b \004\003\006\007\233\0070\034\003\000@\001\022H\340\000P<d\000\017\003\330\002Bk[\027\006\240\003\206\003:g\000\000 \340\\\200\000\002\270\005\202\003\3777\000\000\001\240\\@\000\025( \000\0028\000\020k\000\004\023@@\004\t\340\003\301\000\377\027\000\000\004\2408\004\003\027\000\340\0018\004\027\000\340\0011\000\000g\270\004\021\000X\000\021Gh\006\b\340\001\"\000\000\330\004\023\005\340\000\004H\001\r@\001\000\b\000%\370'H\001\006\200\001\0020\000#\n\n\b\003)\nW`\000\004\200\002\004X\000\f@\000\004 \000?\004\000W\200\000\003\000P\003<\004G\\\210\000\f@\000\fH\000\f\240\000\fH\000\017@\000\035\020\000\250\003%\374\017h\004'\017\031@\0014\000\200P\030\000?\004\000\007@\000\002\004(\005\033\000 \000 \000\f\200\006/X\\@\000\r\017@\b\000C\377\000\200\037 \000\261 \343\017\000\207\377\377\017@\342\000\274C\025\260 \002\f8\000\007@\000\017 \000\002\033\000 \000\002<\311QH8\003\003\207@\004\004\b\006\006\000\004fW\000\200\003j[@\000\n\340\000\004\340\002C\000\000\2006\340\003\030\016\340\003\024\000`\000\005\200\006 7\000\360\002\004@\005\004\240\006\"\004\004@\005\004h\000\017\240\001\0024\370\005\001H\000\004@\000\243\000\004\007\000\200\001\200Y\003\000@\000\001(\000&\013\001\000\001\2217\000\000\002\200Y\004\377G\230\005\020\004\000\004\026\001@\005\023\003X\000\004\370\0001\003\0047\350\006\006@\000\023\007@\001\0377\300\002\0030\0037\3600\005 \006\360\350\000\254\000\001\007\005g\000\200\003h[\200\002@\017\000\200\"\350\000\030\t`\004P<d\000\004\t\200\000$#\004\370\000\023\006\b\001\007`\007\001\320\000 \007\004X\000!\200Y(\t\007`\006\204\004\006w\000\000\003\210Y@\000*\b\004\300\004\"\b\b\300\004\021\006(\0001\220Y\006H\000$\215X\340\002\023\004\260\004\005\200\000!\005\207H\004\005`\000\022\004`\0041\006\3607\340\000\020\006h\003%\000H \000\"\006\0060\000\002\030\000J(\\\005\006\240\004!\006\006U\017A\004\003\003G(\001*\003\b\000\005\021\007\330\0043\000\034\b\200\001\204\005\005\207\000\200\003Z[\240\0001\005:W\240\000\004H\001\033\b\000\002\"\004\0040\0009\004:G\310\000\004`\001\0040\000\"\006\006(\000\033\006\240\005\004\240\006\004\350\000\021\004\310\007\025G\000\004\fX\000u\004\003w\000\000\002M\340\001\"\003\004\340\002\004@\002 \007\t0\003\026d \000\020\003P\000\021\2408\003\000\230\0041\000\003\007h\000\006 \003\n\030\004\004`\002\005\200\000\013\030\003\f\200\002\005\230\000\013\b\000\013@\003\032\342@\000c \343\377\007\000\374`\004\tX\004\004\b\000\023\340 \000\f\030\000\t\200\004@<d\000\001@\007p\007\230L\001\001\207\364\340\001\204\000\000w\003\000\000\310\360\200\000\204\007\001\007\000\200\003l[\310\007\020\300\354\0225\000\240\343\300\003\020\001\260\b@\020\\\000\nX\000[\340\\\002\000\007`\004\002X\0013\000\000'\240\f\0317 \000\0040\000\004\030\0000\020\000\027\b\000\026L`\001\002@\000@\020\002\007\001x\001\007\200\001\001\200\0000\002\360G8\n\243\001\002\002\007\024\000\000\224\357\nh\000\006 \000\031\007 \000\035\013 \000(\307\003 \000\035\f \000\031\207 \000\035\r \000\031G \000\035\016 \000\031\007 \000\035\017 \000(\307\002 \000\035\021 \000\031\207 \000\035\022 \000\031G \000\035\023 \000\031\007 \000\035\024 \000&\207\001 \000[\225\357\t\000'@\016\03178\n\004H\n\007`\000\t@\000\033\005@\000\004x\005\006\300\007\034G\200\000\030\000@\000\033\007@\0009\006\0007\230\f\004\360\003\005@\000\003 \002\004\340\000\033\025@\000\023\002\270\000\001H\n\000(\000/\000'\000\007\002\004\030\000\004\210\002\f\000\006\004\270\000\020\005`\004\026\004\000\004\023\004\020\000\004\030\000\007\340\000\t@\000\017\300\000\000\001 \0001\007\007g8\000\023\006\b\000\004\020\000\f\340\004\004@\000f\t\020\367\017\000\200\300\t\020\026@\020%\b\020\240\001H\026\000g\001`\000 \b\t0\000\247\327[\t\t\367\017@\013\330[\300\001\030=\200\017\020\025h\006P\000\220\240\t\020\220\001\025\020@\f\033\025`\000?\025\000W`\000\006/\300\n`\000\007\021\006`\000h\260\240\007\020\007\001`\000\023\b`\000\004\340\000\007`\002\002\000\001\022\007`\000\207\007\007\367\017@\004\330[@\001\001`\000\0048\000\"\004\006`\0009\005\020\207`\000\023\006`\000\004\210\001\f\200\001\"\004\005`\000u\005\005\367\017@\003\330(\t\004`\000\004\300\001\"\002\004`\000H\003\020\007\002`\000\023\004`\000\0048\002\007\340\002\002\200\002\022\003`\000\207\003\003\367\017@\002\330[\200\002\030=\200\002\"\024\002\200\001?\003\020G`\000B\025\023`\000\037\207`\000B\025\022`\000\037\307`\000B\025\021`\000/\007\003`\000A\025\017`\000\037G`\000B\025\016`\000\037\207`\000B\025\r`\000\037\307`\000B\025\f`\000/\007\004`\000A\025\013`\000\037G`\000B\024\n`\000\000\220\013%*\004`\f1\020\000\007\320\004\f\210\b\004 \0001\005\020\207\220\000*\000\002H\004\r\000\n\bH\004#\000\330@\n\025g\340\t\004\000\007\"\003\004\210\000\004 \n@\000\000W\002p\t\004H\000\004\b\000\006\200\000 \307\005\200\000\037\003\200\000\004\004\260\000\b\200\000/\300\001\200\000\007\035\000\200\000\037g\200\000\f/\007\006\200\000K\037\027\200\000\f\037G\200\000L\037'\200\000\f\037\207\200\000B\006`\000\037\007`\002'/<d`\000\005\027\200`\000\037\003\300\000&\017`\000\000\033\004`\000\005\240\000\003\230\003\004\020\000\f@\000\023\003\b\000*\005\003 \017\001X\023% Yx\003\023\006p\025\004 \0002\006\003W@\025\001 \020Y\210\\\006\005g\340\017\004\270\r\004x\000*\005\000 \000\020\003@\000R\000\200Y\003\003\030\000\004h\000\f\300\000\025\005\250\000\f \000\021\000\360\026\f\350\026\f`\020\005 \001\013\240\004\004\030\000\000\000\333L\000\000 \342 \000\f \001\f`\000\004\220\0009\005\020\307(\002\f\300\023\f(\002\005 \000\0030\002\004\330\b\004\250\000$\357\031\000\017\002\220\002\023\005\370\006\017`\0005\006\000\017\001`\000\024\200 \000\017\000\001\005\004\b\000\f\340\022\000\240\001A\000\030\000\034\b\000\266\370\007\004\003\360\367\377\377\037\000\001 \030\0217\260\021\006@\000*\000\013\240\030\000\371b/@\342\200\000\005\f\230\001\017\240\000\r\004\240\001\005@\004\003\340\017\023\003\350\021\023\003\320\022\t\340\002\0220\340\002\000\210\002\004\020\r\n\340\017/\370\360\200\000\r\004\030\001H\005\020\007\005 \007\033\003\330\003\f\300\002\f\330\003\007`\000\001 \007\f\230\004\033\005\240\b\033\000`\000\004\b\002\017`\000\001\b\b\002\004\340\r\004`\000\f\b\002\017`\001\005\035\004\000\002\002\020\000\f\b\002\006\000\024\002\020\002\f\b\002\006@\000#\200\n\300\003\t\b\002\f\200\000\016\240\003\017\240\000\016\030!\300\001\f\b\002&\357\037`\003\000\020\002\f\b\002\f \017\f\b\002\017\200\000\005\033\000 \000O\005\020G\005\240\006K\031\307\030\004\f`\000\f\030\004\004\b\002\017@\006\025\f\340\000\004\b\000\f \000\f\b\002\b\200\000\b\030\004\004\b\002\016@\000\n\b\002\017\200\000\005\004\b\002\017 \000\005\t\240\000\007\340\006\f\b\002\n\240\026,\013\001\b\002\b\240\001\b\030\004\016`\006\017\200\000\b\001\000\001\003`\001)\020\207\b\002\f\300\005\f\b\002\b\300\005\b\030\004\004\250\001\004 \006\006\030\004\002x\020\017 \006F\003\210\025\023\000\020\022\006 \001\002\370\0341\005\020\307\210\t\037\006\200\000\004\004\330\017\017\200\000\002\037\003\000\007\021\002\340\000\017@\0015\017\340\000\006\003\320\000\006`\003/\007\007\300\003L\037\006\300\0039\033\000\300\003\017 \f*\017 \004\b&\017\031\340\0020\000\0038\000\002\030\002h\000\017\240\001=\025\000h\002/G\007`\007K/\007\007`\007A\004\230\001\0040\016\017\300\0000\020!\240\001\f\230\001\004\220\001\006\000\002/\207\002\000\002A'\357\037\000\002\001\230\001/\207\007\340\004K\002\370\001\037\000`\000\004\f(\003\b`\000/@\000`\002\020!\004w(\033O\005\020\307\007\300\tL\037\007\300\tI\004\310\000\004\200\007O\005\020\007\b\300\004K/\207\007\300\0049\f`\002\020\007p\0352\003i7\0230\000 \b(\000\n \b\002\240\013,@\342\210\000\017 \0020\031! \002\003\250\034\004H\000\f\340\000\004\b\000\f \b\004 \033\f(\000\n\300\000$\370\360\b\000\f \000?\005\020G\300\001L/\007\b\300\0019\033\000\300\001\023\005\220\027\017\300\000\"\017 \002\020#\004\004\230)\000(\000 \003g\240'\033\024`\016\027\020\340$\024\342\360\000\017\200\003=\006\340\005/\007\002\340\0056\007`\000\006\340\003\031\007\240\b\001\240$?\000\000\034`\002\r!\000\360\030\004\034\001 \000\f\270\002\016\300\002\024\007\300\n\t\210\002\f`\003\f\310\001\b`\003\b\330\000\004\310\001\017\300\n]\204\007\0047\253\377\003k7\360%\007\200\t\030\n\330\000\004\250\001\f\240\002\000h#O\020\000$6\340\000#,\020\240\b\004\007 \003\037\013\200\000\021\017\340\003%B\000\000\000\3718$\005\000\003\037\013\000\003K\002\310\001\017\000\003E\002\350\003&m[`\022\004\000,\022\000\330!\003\350\000\006\000\001d\027\000\220\177$6\300\001\004\360\001\017\240\003\025\f\370\001\017\200\001\023,\020\240 \027\017`\005H\037\013`\005K\021\027`\004\002x\001\001\000-\033\213`\005\0078\004$@\342\360\000\017`\005H\t\300\002\017`\002=:\003\360g\340\016\022\003\340\n\002\270\020$i[\360\000\n`\005\006\370\000\017\300\004=\f\370\000\037\003`\000\004\f\350\001\016\240\004\017\000\017\r\bH\007/c[\340\001\377\276\004\330\001\017\340\000\305\004\330\001*\003\003\300\021\f\330\001\f \006\017\240\005O/G\b\240\005I\f\330\001\017\340\000_\037\207\340\000P*i[\350\007\016\300\002\023\000 ,\004\260\007\f\300\007\f\350\t\017\200\002\005\f@\000\017\340\017\033$\020\240\350\002\017 \0052\017\340\021\001\020*\340\002,\270\\\340\001\017\340\023E\001\240+\267\000\340\\\003\004\367\001\000\000)8\240\000\t`\000\261\006\004'\000\300\001\3706\004\004'H\025\006\240\000\032\307 \002\000\210'\b \n8\003g\000\270\000\004\210\001\017\200\001#\"\220\240\020\002\002 \002$\000\274\340/,\370\360`+g\344\007\340=\003\324\200+\000\230\001!\033\250\200\017F\000\000\230\357\300\000/\007\013@\003K\n\330\026\f`\000\004`\001\017@\003%\n\330\007\025kH\003\007\3406\030\001 \017\r\200/\0038\003\017\000\0015\002\240\000\022\020`\002\000 \000\022\001`\002\003h\n!\004\000\340.%\3408\200\002\022\006 \0001\007\004\007\370-\f\300\000\"\007\200\020\000C\000\000\200\031 \022\005\000\002\017\340\006L\030!\200\006\004(\003\023\000(\003\b \031\t`\000f\003'\000@\000\370\240\004\022\0030\003\023\003(\003\f@\0311\003\003\0070\0033\006\006G(\003\0337\200\001\037g\200\001 \006 \002\204\000\004\007\200?\000X8X\000?\003\000g\200\003z\006\300\001/\007\013\300\001<\030\375\300\001\023\000\350\f\017\200\n\001\017\240\004; \207\007\0200\017`\003\235 \017\000eC/@\342`\bM\017\200\006\005\004X\003\004P\003\r`\000\003X\003/\003\003\200\006\003\005\240\000)\0057\200\006\001\300\030\007\200\006\004H\002\004`\000\f\270\000\037\004`\f\r\013\340,*\000\002 )\f`\000\t )\031\000 )\030!\000\006\021\002 )$\260\200\2501\006@/\004\270\003/G\000 \003\001\fx\000*\002\003 \003\fx\000\0040\000\002\300\022H\037\000\004\002\330\003\006\3102A\357\007\340\375\337\215\013\330\003\b\3002\006\000\004-\000\343 \000m\007\200\374\000\274\177@\000\0040\000\017@3-\037\000\001\000,\021\001HF\016\001\000\002\200 N\000\000.\0030\000\b\001\000\037\013@\000\004\023n\025\000?H\004\000@\000\n!\023\000\2717\r\001\0001\270\007\000\001\000\023\3401\000\004\320B\003/H\000\372F\001\001\000.\"\002T\000\000\001\000\023\230pC?\210\005\000\200\000\n\037/@\000\004\022 a\007/\000\031\300\000\f\037K@\000\00419\023\000\001\000/\303\003@\000\013\037w@\000\0041\374\026\000\001\000?\320R\000@\000\n\037\211@\000\004!\314i\007\000O\000\025\030\000@\000\n\037\241@\000\004!\341\201\007\000?\000=\001@\000\013\037\271@\000\004!\036\203\007\000?\000\216\002@\000\013\037\307@\000\004!\254\205\007\000O\000{:\000@\000\n!7\000\001\000+p\000\001\000\023(9E3T\000\000LI\002\007\002\013\317\001?\000\210\000@\000\003\023|@\000&\374\000@\000\037\027@\000\000\037\335@\000\004#x\301\220E\026\000@\000\037\030@\000\000/0\001@\000\003\023\324@\000&\370\002@\000\037\031@\000\000\022\022\363\237\r@\000#\314\304`\000\026\000@\000\027\000@\000\004H\003!\214\001\351A\016\001\000\032\305\b\004\004\200\000\0048\000\003\271\231?\000;\002@\000\003*@\305(\000\023\005\004\000\f@\000\037_@\000\004\037P@\000\000\037\006@\000\000.\323\002\024\001\000\001\000\023`@\000&P\001@\000\037\013@\004\000\037\357\200\000\004.\260\306\200\000\037\004\200\000\000\"\272\001\224\002\f\304\004\023\300@\000\023\210\200\000\037\000\300\001\004\000`\001\023\001\334\000\b\001\0001`\310\000\001\000&\200\b\200\000j\001\000\000\016 \000\001\000\037\267@\000\004#\340\320@\000\026\004@\000L\006\000\000\n@\000$\006\001@\000(\020\000\001\000#`\325\240\000\0263@\000\000\317\212\f@\000\023}\024\001\f\004\006 \240\bV\000\016\030\001*\001\000\001\000\023\006\\\000\020`3?\017\001\000\000*\340\000\b\000\027\bH\000\027\005h\001\r8\000\032A\b\000\b8\000\027\006\240\000\017\001\000\005\036\002p\000\017\250\000\035P\000\000\000\000\000\000\000\000\000\000\001\000\001\001H\000\000\000\020J\000\000\000\000\000\000\016J\000\000@\000\000\000\001\000\b\0002\000\000\000\000\000\000\000\000\000\000\000\023 \000\000\000\000\000\000\000\000\000\000\000\000\000\000\b\233\001\000\000\000\000\000\000\000\000\000\000\000\000\000\360'\n\n\n\n.version 8.1\n.target sm_50, debug\n.address_size 645\000\361$shared .align 4 .b8 _ZZ14calculate_tempiPfS_S_iiiif\001\0000E12\030\000\357_on_cuda[256];O\000)o3powerP\0006\0206\027\000$_tH\000dglobalH\000\0211H\000\257blockIdx[1\"\000\005dthread#\000\377\003\n.visible .entry _\210\000\017\337(\n.param .u321\000\021\021_/\0006_0,9\000/649\000\030\03719\000%\03729\000%/3,\344\000$\03749\000%\03759\000%\03769\000%\02679\000\037f9\000\032\03789\000%\03799\000%/10:\000&\0371:\000&\0372:\000&\2463\n)\n{\n.loc}\003\0218}\003!__\025\000\260_depot0[184\247\003\313reg .b64 %SP\017\000\024L\020\000\020p3\004e%p<16>#\000\20616 %rs<8\022\000\20532 %r<82\022\000\000\272\000i%f<20>Y\000qrd<23>;\244\000\373\013\t1 102 0 \n$L__func_begin0:\037\000\203\n\n\tmov.u\232\000\033,\316\000q;\ncvta.\023\000\004%\000\023,\304\000\"ldK\001\003\220\000O6, [P\001\031\035]B\000\0375B\000\033\0362B\000\0374B\000\033\0361B\000\0373B\000\033\0360B\000\0372B\000\032\0369A\000\0371A\000\032\0308A\000\021u,\002\0379A\000\032\0367A\000\0378A\000\032\0366A\000\0377A\000\032\0365A\000\017M\002\033\0314A\000\002\f\003\017\311\001\033\0373B\000\000\017\311\001\033\0372B\000\000\017\312\001\033\0361\007\001\017\022\003\033#0]\257\003#to&\b\004\211\000 4,\006\000\0233\037\000\n\034\000\0215\034\000\0374;\000\005\0216\037\000\0372;\000\002\0217\034\000\0376;\000\005\0218\037\000\0371;\000\002\0219\034\000Q8;\nst\354\000p[%SP+0]\026\000\0225\025\000\"64\025\000\0218\025\000*d9\026\000\"16\027\000\0327\027\000\"24\027\000\0325Y\000!32\027\000\0336\026\000\002D\000\0327\026\000\0224\206\000\013\233\000\0224Y\000\002\206\000\025f\026\000\001\235\000*f1\026\000\0215n\000+f2\026\000\001n\000*f3\026\000\0216n\000+f4\026\000\001n\000+f5\026\000\002n\00006;\n\263\005\002\030\006\361\00010, 1117782016;\357\0057tmp\350\005x11 9 \n\t\315\000\0227\017\001%100\000\02310\000\2234 66 180 \027\006\002d\000\2651, %ctaid.x2\000\0272b\000;5 7b\000\0239b\000\02510\000\0263b\000\0367b\000\0252b\000\025y2\000\0274b\000\0366b\000\002\275\001%120\000\0255b\000.53b\000Y3, %t\302\000\0276`\000\0358`\000\"10\b\002%131\000\0267a\000\0364a\000\0234a\000\006\301\000\0278a\000\0379a\000\000\002S\002&14\263\007\24321 18 \n\tld\f\006%7,\021\002\t&\000(25&\000%8,\217\002\n&\000\2433 \n\tdiv.rn*\000\"9,U\0009%f8*\000\"16\236\000\005l\002\0227\256\002\0279&\000H3 14v\000\000{\002\004\360\002\n'\000v2 \n\trcpw\000\001B\0029f10'\000\0338s\000\0228\013\003'11&\000\0344t\000%2,N\003\n'\000\016t\000!3,1\000\t'\000\rt\000\002i\003'13&\000\0345t\000%4,\254\003\n'\000\016t\000\000M\005\031f\322\001\0365t\000\0035\004\0265&\000R33 30t\000\003N\002$5,\023\005\t&\000\0204&\0004shl\376\003#6,-\000\0311\025\004I7, 88\000\0212\205\000Bub.s!\000#8,'\000\000D\000\t*\000\016\247\002\001\257\000(r1Q\000\0344\257\000\0379\257\000\001\0344\257\000320,-\000\0311'\000\013\236\000&21\236\000)20*\000\r\236\000\0221i\004\0302Q\000\0258\301\001\002\236\000622,\314\000\t(\000)33(\000%3,\\\004\n'\000\0201\353\003Tul.lo\243\000#4,Y\000\0007\000\n-\000\0318T\000\004\311\001+44T\000\0326\364\000&6,W\000\b\032\002\017\232\004\000\003\374\006\0302\271\001\0349\364\000&7,\"\001\t(\000\013\364\000\004<\004\0349'\000\016\364\000#9,Y\000\0007\000\n-\000\t\364\000\0243\031\004+40T\000\n\364\000531,W\000\0303\350\001\017-\005\000\0222\216\005\0273\350\001Y40 17x\000\005\350\001\0271\301\001\000(\000\0202y\0004addy\000#3,/\000\0317'\000\016v\000\002\243\005\0273\342\001,41v\000&4,\244\000\t(\000\fv\000#5,/\000\0317'\000\016v\000\002r\003\0273\007\002I47 2r\003/36v\000\003\0227\033\006rsetp.gtz\0003p1,2\000)-1+\000\0201\031\b\220@%p1 bra \266\006\345BB0_2;\nbra.uni\023\000\003\307\007\001\013\000G: \n\tD\000\nO\002/38\227\000\005\0203-\0053neg\r\001\002\223\00068;\nB\007\0228\036\004\016\242\000\f\216\000\0263\216\000\0272\216\000\0220.\000\006\007\005^37, 0b\000/37c\000\032)3:\350\007\001\363\003)80C\000\r\302\001\003p\n\007|\006,48\301\001&9,\357\001\t(\000\n[\005\0244M\003*32'\000)40^\002341,.\000\t\345\001\0238]\005\000\020\002\"le,\0003p2,\201\000\0007\000\t-\000\004\022\002\0312\022\002\0365\022\002\0264!\001\0274\204\001Y149 3\211\004/43\350\000\003:9 4(\000\0374\350\000\002\0229\211\004\0065\004345,.\000\000\\\000';\n`\003\023,\037\000\0316\364\001\002j\002\016\346\000\f\363\001\0266\322\000\0375V\002\t\02247\004\fb\000/42c\000\032\0326V\002\001\317\000\0328\214\001\016V\002\002\370\005\007^\b\000\351\n\0319F\001\0276\211\007\001\365\001\024n\365\001#3, \000Y-1357D\000\002\"\002Blp.u~\022`1, 1, -\003\022p\257\f#u8\203\000\003:\f\031so\b\0224h\003\003\366\n\0269\366\n\0235$\t\t\306\000\002Z\n(r4\203\000\002%\t\f/\001\0267/\001T7: \n b\000*10c\000\n\002\001\005\202\004\0277\005\006\000c\000)23(\000\017\263\b\001\000&\000\0251?\005\004:\001#4,X\000\0006\000\005\350\000811:8\000\02239\003\0324K\005\0363:\003\0268\326\000\0218\326\000\006j\002\0243\024\002\002\207\001\0302W\001\0271q\r\"56\356\007\017\232\001\001\006\020\r'132\000H7 11\377\000\000m\031\005\350\f\031;(\000\tO\001/51O\001\003\0227)\001\006\200\004352,/\000\0321O\000\005\217\006\024l\217\006#5,\201\000\0006\000\nT\000\0226F\001\0315F\001.17F\001\003\210\001\001\013\000\tF\001\000G\000\nB\005/53\353\000\005)42(\000\0314\353\000\006\340\002\0225T\004\b9\000\0314\224\004356,'\000\000F\000\t*\000-34\216\007#6,\225\000\0009\000\t-\000\"50\377\000\0376\377\000\016\004\273\017\002\f\000\013\001\001\0348\354\001\0377\001\001\003\003\246\004\006(\000\017;\003\004\0358\354\001#9,/\000*-1P\000\016\355\001#7,\202\000\0007\000\nU\000\003\355\001\0377\356\000\017\b\200\b\0351\356\000\n\357\001\0376\332\002\004\0338\357\001/61\357\001\004*62\357\001\0348\357\001363,'\000\000F\000\t*\000\017\357\001\000#8,\225\000\0009\000\t-\000\004\357\001\0378\001\001\017\003\326\003\002\f\000\013\001\001\0339\357\001/64\001\001\003\0339\357\001/65\357\001\003\0379\307\001\001#9,Z\000\0008\000\t-\000\"22\306\000\0379\306\000\017\007V\t-13\306\000)26\236\000\0376\306\000\005\nm\f/67\307\001\005\0328\307\001\0239\216\016\006\307\001#9,'\000\000F\000\nc\000\0350\307\001\000\356\020\002\226\000\000:\000\nX\000\003\311\002/10\003\001\017\0078\t*14\003\001H60 4\332\000\0377\311\002\003\"60U\007\006(\000\005\311\002*32(\000\0358\307\001\001\211\021\001Z\000\0008\000\t-\000#23\306\000\0371\306\000\017\0275\306\000\0355\306\000)27\237\000\0372\307\000\005)35(\000\005\247\005+36(\000\0361\216\001#2,[\000\0009\000\006\363\006(4:P\005\0239\322\000\0372\322\000\017\007\233\t+16\227\007\0329\227\007\0213\343\006\004r\000\0265r\000\0266H\023\r\227\007\007\372\003\"62P\005\006\372\000\ny\0063cvtR\022\002\355\000\022f\346\021)74C\000\0231=\001\002\222\005/d1-\002\00442 7\203\021\002y\027\002\002\002\0010\000\0222>\013\023u\031\000\"2,\336\0333140W\013\003\031\000%3, \000\000@\000\n\207\000\0309\336\022\000-\000\002\335\022\007z\003O63 5\336\t\000&17E\00166:\n\027\000\013P\002\0225>\000xar.sync\022\t&7:d\00096 9S\001\017\334\004\003+66'\021\03070\013\007&\000)24\361\006377,-\000*-1N\000\005\233\002\005h\013\002/\001\0217\r\b\0277\344\000,8:\256\000\000\233\002\0323\233\002\0379\233\002\000\0071\n618:\006\013\007i\013\0226\204\016\fc\001%23\177\000'20c\001\0132\t%68=\001\0208\254\002\006\217\002\000P\0044and\226\036#5,\037\000\0231]\f\"eq\033\000\021p\376\026\001!\000\0261s\000\007!\013\003c\000 @!+\000\t\363\000.21\363\000\0272\336\b(20\373\013\0272\006\013\"69o\003\007\005\003\0374\005\003\003;9 8\005\003$5,0\000\013\005\003\0376\005\003\005%7, \000\000@\000\t^\000)200\026\"7,\013\003\"7]C\000\006\037\026#8, \000`0f3F80\001\000(;\n>\003\0227>\003\0358\275\000\r\333\001\007h\001\0263\333\001\0332\036\t-71>\003\005\033\000?2 3Y\000\001\006A\f'24Y\000\fv\b\0345\277\005\n=\n$ad\226\001379,\037\000\002'\033\r\n\016\0307N\007\0365\225\000\006\n\016\000\224\000\0275\224\000(3:\353\000\002\036\026\005\306\002\0376\306\002\005#7,\037\000\016\306\002#5,!\000\007^\001;6:\nc\000\001\306\002\n\243\f/25\306\002\000\007\354\007624:\304\002\007\270\004%75.\007\004\304\002\0378\304\002\002\0237\350\016\b\305\002$9,1\000\n\305\002/20\305\002\004\002Y\027\002 \000\000@\000&;\n\265\002\001\017\017\000#\000\nu\000\004\344\001\003Z\000\004\314\007+24\234\000\0327\007\006322+Z\031\007\335\001/76r\002\003\0265m\001\0278\336\001\b\206\021@181 k\0056ret-\000&9:\336\"\364,end0:\n\n}\n.file\t1 \"/nethome/cahn45/CuPBoP/examples/hotspot/.\n\000\363\000_simplified.cu\"J\000\0372J\000\006\000\377'\362\002-12.1/include/nv/\317(\004=\000\0373=\000\030\344vector_types.hB\000\0364B\000\361\002llvm-vortex-with-L\000\365\003build/lib/clang/18Z\000!__\023\000\001\260(\020_(\000wtin_varg\000\0375g\000=\370\004math_forward_declar\327\000u6 \"/usr<\000fstdlib \000\0237 \000\000i\000\366\013gcc/x86_64-linux-gnu/13/..\003\000\004H\0000c++\033\000@bitsT\0007_abu\000\0338u\000\rU\000\0017\000\000\272\000Gcall9\000\0379\216\000+\020cS\000\004L\000+10\206\000\000\035\000\006k\000/11l\000,\002J\001\005O\000\0372\331\0012astddef\217+'_t\255\000\0373\255\000+\f\366\001/14\207\002A\007`\000\017\347\002>\025ca\000\221section\t.\303,p_abbrev2( b8\272\004\001\007\000(7 \017\000\0233\017\000\0228\007\000\"19\b\000\0225\007\000\0323\035\000\0226\b\000\003\007\000*27\036\000\nY\000)18\017\000\0310\007\000\0222\007\000*463\000\017B\000\n#64\017\000\003D\0004135\031\000\b\207\000\n\263\000\0235\b\000#11\020\000\0329\020\000\0236/\000/12\247\000\001\003\035\000/52\026\000\001\003Z\000+73:\001\017r\000\f*51\020\000\0322\326\000\n\007\000\0314\216\001\0370B\000\022\017\001\001\033\f\277\000\0320k\000\016\001\001\017\201\000[\004k\002\n\035\000*494\000\0179\002\013\0338\202\000+89\020\000\0327\020\000\0310\007\000\013\035\000\017\253\002\022\nB\000\n\034\000\017\367\000\022\003\025\000)33\026\000\f4\000/55\271\000\t\005\217\001\003D\001\017\236\001\002+62\337\000\013\b\000\0310\007\000/11S\000\020*11\b\000\fc\000\0310\007\000\004y\003\0325Q\001\nS\000\0133\000\0313\035\003\0172\000\002*11\b\000\017\206\002\r\013b\000\003[\000\0324\027\000\nc\000\0232\b\000)15%\000\0320\026\000)19\246\000\0245\265\000\017\266\000A\0326 \001\016\266\000\016D\002\017c\000\016*56N\002\n\007\000/17\311\005\002\ns\000\017c\000\r\0336\013\002\017\224\005\013\004k\003\0375\033\003\013\0372D\000\n\0379D\000\021\0310\007\000\0242\b\000\03725\000\004\017\373\000!\0310\007\000.21\027\007\017\351\0065\f\250\000\017u\001\033)22m\000\0370t\000\023*24t\000\0310\007\000.23@\003\017Q\001\000\0310\007\000\fS\000\017W\003:\0375r\000\002\0375V\0038\0375U\003\021/26U\003(\0375\337\001\"\0377y\002?\0375x\0022\0378u\0038\0315D\000\0320Z\b/38b\000\n\0310\007\000*300\001\03700\0010/111\0011.31\312\001\017\203\000\036\017s\000\r*500\000\013\203\000\0372M\002?\017\232\0004\0363\232\000\017\267\001e\017\252\000\f\0324\323\007\0370e\000\003\0310\007\000*35\337\000\003\027\000*715\000/32z\000\n\0316\367\000\0370S\003\022\017\351\005\013/37w\001g\013\212\000\0368\212\000\017s\000\026\0375\351\001#\013\202\000\0379\202\000(/11\203\0001*40>\000\0370E\000\003\0310\007\000*415\000\017x\007\004\f\b\000\017\312\000\r\013e\000\0322\035\001\0370\237\001 \017\f\001\r\005v\002\0311\027\000\0310\007\000*43\221\t\0370\007\000\001/44\300\b\002\n\007\000/45_\006\002\n\007\000*46o\000\017\347\001\004\0135\000\016V\003\017-\001d\0328\211\000\017\266\001\033\017\322\0022\0379\013\001\002\016a\004\017\231\000?\0340\007\000-\t}\206\023Ainfo\204\023 32L*)676\021\0220\031\000\t\262\023\t\242\000\003\231\000$994\n\0228\020\000\0227\017\000\"10\b\000#03\336\005\002\017\000#18\027\000\003\273\001#14\b\000\0225\b\000\0230\b\000)11G\000\003?\000#49\250\n\002\016\000\0306\025\000\003\016\000)551\000\004\206\000\004g\000\0336\b\000\0312\177\000#58\304\002\b\007\000\004\303\000\006\234\000\003=\000\005U\000\002(\000(98\210\000*99\311\000)09T\000\004\b\001\0341\b\001\0326 \001*20\204\000/12\020\000\003\0331\263\000\0328\b\000*18\206\000\0376\332\000\n)32\321\000\0309\007\000(53\347\001(49u\001(50\034\000\003\020\001(99\034\000#52\241\005\b\311\001(511\000)50T\000\0231\316\003\t#\000\0313\016\000\0304#\000\003\223\0008102@\000\003x\000\004X\001\nd\000*10\036\000\004\326\000\0237\026\000\0300\017\000\004\221\000\0251'\003\006\033\r\02301\000+4 \336\001\0326\346\002/12 \000\002*95'\000)05\266\001\0057\000\005\336\001\f\277\000\0315\307\000\004\271\000\f\222\002\0377\341\003\000Yline \301\005\006\302\003\003N\000\r\367\002\0321\236\000(01\203\002(99\f\002\0065\000\n\007\002\03033\000)67\241\000\0228+\000)66o\000(803\000\004u\000\004(\003/972\001\f\0311b\001/47\323\000\003*16\211\001/12 \000\002!0\no\036\013F@\033 \026\000\000~\035\007[\005\0171\000\031\0241\313\007\004 \002\002\020\000)90\247\002\0372q\001\002\0308\026\000+11\027\000\0327\351\000*01\201\002\n\027\000\016O\001\0305\214\001\004\200\002(83E\000\n\016\000/10\b\000\r\0372\b\000\032\0310}\006\017\365\000Q\0310\366\006\0312\241\001\004\216\007\005\353\024\017D\000\004+95H\002\0300\027\000\r\267\000\0300\267\000\0240\252\007\f\344\027\004n\004\0328\244\027\002U\002\037_\006H\037\n\322\000+2 \263\000\0369\301\007\017\332\000F\0375\332\000.\n\221H\017\255\001#\0376\246\000\f\0376\246\000-\003\347H\b>\030\0376M\000\002\t\177D\n$\001\r\277\002\004\231\001\0337\037\000\017\251\001\003\0360\336\002\21732 5865 \227\000\000/11\230\000\r\0223g\000\0378F\002\033\n\206\000\0233\206\000?768\206\000+\004\374\000\017\362\001\026\0325C\001\0379\235\000\000\0374\235\0005/24\235\000\033\003<\003\006\245\000\0376\236\000\000\0375\236\0005\003\013\nI103 \024\001*10\217\000\f\351\003\0311z\005\004\255\000\n\245\000\0376f\0025/36\245\000\032\005\037\000\f\216\002\017\246\000\002\0377\246\0005\003\214\f;98 ~\000\0314\245\000*10\030\000\017Z\001!\0378\264\0006\0374\264\000)\005'\000\017i\001\022\0379\265\0006\002\033\001\004\321\016\005\002\005\0362u\000D100 \330\005\0373v\000+\003\207\t982 \222\n\013o\000\0371o\0006\0336o\000\0371o\000J+60o\000\0372o\000K\0049\002+5 \277\006\004J\002\017\200\000L\0348\225\005\0325\225\005)01\351\002\0320\226\003\013s\002,11'\000\0370\276\000\001\0352\276\000\0375\276\000#'72\273\004\006\265\000*98\235\003\013S\001/09[\001\b/11\235\0006\0376\333\001\023+95c\004\0315\313\020(954\016/97\274\000\t\017Y\0016/80\344\003\002(95\220\r\013}\000\0373}\0006\0364\362\003\017}\000W\0368\000\004\017}\000V*92\206\006\017[\005\002-15@\006\017o\000%\0336o\000\017[\005\001/16o\0005\005\342\002\002S\000\017\340\000\006\0378q\0007\0344q\000\017\342\000\002\0379q\0007\0338\364\003\004\222\004\0327 \000(08V\002+98>\000\0311\n\t(07-\000\017l\b\032\000\314G\017\334\0005\003s\004\017\334\000I*99\333\000/08\333\000\t\0374\333\0007\013\t\003)08\236\000/89\177\000\001\017\247\0027/20\177\000\013\0378\177\000\001\017\265\0027/24\376\000\021\f\357\001\017\274\003\002/40\226\000\r\0372\226\000\026\003\206\000\017\033\001\021\017\234\000\023\0371\234\0006(32\226\033\004\022'\004~\000+08K\t\0370\254\000\001\006\350\007\017\231\020\000\000PF\017\255\0006\0376\255\000/\017Y\001\013\0378\254\0006\004\307\032\013\267\005\017\272\t\004*95Y\t\017\236\000\002%52\236\007?958\237\000+'72\237\000\004\224\025/11\236\000\003\005\005\024\004\237\000\005\306\000\017\247\000\002\004\251\005G6818\237\000R32 352\013\003;\027\000\3669\n\017\000)2 K\000\005\241\005\0352H\000\03289\000\0323\017\000\0334H\000\0376H\000\005*149\000\0325\017\000\0336H\000\0378H\000\005*209\000\0327\017\000/8 \250\007\000\006H\000\013.\000\0329\017\000/25\354\001,\0306\213\002\004~\024\013\265\001\0355\372\002\0310\007\000\0358\032\n\0259\022\000\004\300 \0378\031\000\f\003K\000)10?\r\007\273\003\003\200\002\0329o\002\0300\027\016\003\036\016\004\024\006\005`\031\002A\003#65\364\n\b\007\000(65\376\005\n\354\030(73\237\031\0326#\000\03048\000\0378#\000\001\003\007\000\0300\346\000\0327\240\001\0251\357\000\003\007\r\0330\037\000*6 \365\000\0334\351\035\0361\r\001\006>\000\002\r\021\016'\000+97\r\005\t|\000+3 `\003\0310\326\000\004\246\b\005U\000)08\020\000)99l\000\0057\004.14\016\001\003\251\000*88\020/\017{\000\005(51f\034\004\310\002\017<\000\033\0305<\000\0032&\017<\000\016\0303\210\022\0320Y'\017<\000\023\003\241\036\03206.\017<\000\024\0301<\000\0373<\000\024\0364\264\000/60<\000\033\0309<\000\0371<\000\032\t\360\000/62<\000\024\0365\264\000/70<\000\032\tx\000\0377x\000\033(53<\000\0375<\000\024\0366\264\000/80<\000\032(54<\000\0376<\000\033\0305<\000\0377<\000\033\0307<\000\0379<\000\024\0367\360\000*90\303\005\n\223\006\017\305\004\035\003i\000\004@\b\006\037\000\0325`\004\0324\305\004\005\217\b\0336\030\000\016\031\033\r\200\004\0331\3322\017\262\000\034\004\233\000\0230\333\006:711`\000\0312\017\000'35\212\000/17&\001\207\003\260\000*84\241\b\b!3\000\357\000:933\032\000,9 \t\001\017\3442\001\001;\000\004!\000\004\372\f)97\307\000\004\327\000+95\257\000\0370\r\001\002.16\276\000*50\366(\013u!(788\004\006Y\000\0308\233\003\005h\000\017\234\001\023/54\234\001\004\nF\000\013\177\007(49Z\003\005\036\000*15\002\001\0311\005\f*97\357\001\0326\224\007(21\230\b(78\336\b(49Y\000\004~\000\0319v\000\013\375\003+11\206\000)08\020\000\f\207\000)110\001'69\237\001\007\352\036\0315d\000\017\342\000\"\t\363\0014142a\002\0256\207.\017\243\002\004\02445\005\017'\002\225\003\275\005\006\312\003\003e\000\005l\001\03387\000\f^\000\0375\023\002\207\006\370\n\017\325\000#\013\006\002\0377\006\002&\013\2206\004>\000-71R\000\r#\000\0352T\000\013#\000%20#\000?729#\000\004\0243#\000/80\232\000\002\0068\f+7 \223\002\0335+\001\0323 \000\0043\001*00\021 \0338r\001\0310?\000\017'\000\024\0300\345\f\0308\2017\n5\001\0324\"\b\006\251\f\nd\002\t\372\n\004\035\002\004\360#\005V\n\n@7\002]\006\0025\000{32 20978\000\03148\000\017\224\007\000\006L\000\0371L\000(\0334L\000\0372L\000(\0318\227*\0170\001\023\005X\000\0307X\000\017\305\007\004\0232\337\031\016\034\003\006\251\000\017\023\000\023/0 \254\000)\0378\254\000+\005\205\021\013r8\017\316\005\003\0317\352\037\006U\004\017\251\000\002)99\213\004\003-\f\006\003'\0035\000)10\360\004(51\347\004\004=\000\0300\205\035\007\314\005\0320\035\005/97<\005\n/32\203\000\031\013i\001\0269i\001\t9\001\0371t\001\005)80\032\000\0310\007\000\017\217\004?\0375\314\000\002\t`\004\0344`\004)934?\001\267\000\004s\004\006\232\000\017'\001\031\0322\220\002\f\331\f\017S\000\031\f\277\004\005s*\0376\271\004\025\002\244&\f\033\004\0330F\000\0371F\000\"\0334F\000\0372F\000\"\003\336\002\013\230\001H2185\006;\t\253\001\004-\016\0334\251\003\0325u\003\0317&\002/97|\033\001\f\b\003\005\254\006\0326\030\000.10>\000\r\332\006)99\202\031\003\013\024\004\201\000)12D\000\004c\000\0300\"\003\003\322\000*65\315;\017Y\n\n(53W\000\017\005\001\243(49\232\020\0319\007\000,10\352\004\0326i\000\0374\324\0007\004\237\000\017|\005\002\013h\002\017\230\000a\0310&\002,6 k\003\0311\007\000\017?\002\377a\0371?\002\204\0371?\002\000\0377?\002\377\200\0372?\002\204\0372?\002\000\0378?\002\006\017\026\021\021/75F\002\275\0329\266\001\017\"\f\023\017\353\001\002\017\345\0135\017{\000\013\t\316\001.71f\t\017\326\013\0049816\032\000\0370\357\001\363\0373\231\000\003\003\201\000\0046\000\017\367\001Q\017\203\000\023\n\377\001\0362\375\f\017\377\001\033\004\336E\005\377\001\0325&\001\017\325\001\223\n\025\001\0325\003\001\005\316\f\r\023\001/26\023\001\377\016\006o\021?831\224G\002\0178\004\326\0307>\027(69Y\"(75\034\000'95\201\001\017\035\004-/61\316\001)\0371\316\001\026\003\355\017\017\316\001\334\004&\000\017\330\005C\0378\273\001\005\002\202\001\013\234\001\017\306\001\026/0 {\021\003;821{\021>219\241\021\0319\021J\n9\000\016&\000\017\264\021n\006\037\000\0314^\001\004\215\001\004\205\001/00\377\001\030\003\035\000\t\333\000/52?\r\031\0304W\000\017\016\001\254\017H\rw\017\216\003\b\013z\002\017\230\000a\0310/\002\0373\207\017\006\017H\002\377p\0371\317\021\227/54H\002\377\211\0372\330\021\227/55\330\021,\017O\002\306\0379\341\021\251/58\341\021\025N3477(\n\017\370\001\370\0373\242\000\003\003\212\000\0046\000\017\000\002Q\017\203\000\023\n\b\002\0369\352\021\017\b\002\033\004\362\r\005\b\002\002.\001\017\336\001\245\t\036\001*62\f\001\017L\r\005\0253\251%\017\034\001\377\021\005.\020N3492\374\021\017S\004\342\017\005\022w\017\327\001\027\0377\327\001\026\0373\327\001\353\004&\000\017\016\022V&62\213\001\013\245\001\017\317\001\026\003\274\001\f\350\021L3482\016\022-84\350\021\005\023\000.349\000\017&\000\000\0245\023\000\0242W\b\r\032\000?300\032\000\004?873\032\000\004*95\032\000\004A%\006\2322)16\243\001\0310K+\0245K+\0250\2758\004-\t\r#\000\0251#\000/72#\000\004\0242#\000?901#\000\004\0253#\000\0373F\000\005\0254#\000\0376F\000\005\0255#\000\0379F\000\005\0236#\000?602F\000\005\0257#\000/58#\000\004\0258#\000/89#\000\004\004&\002?611F\000\004%10#\000/47#\000\004\0251#\000/90#\000\004\0242#\000/21F\000\005\0253#\000/46#\000\004\0254#\000/73#\000\004\0245#\000?302#\000\004\005^\001?329#\000\004\0257#\000\017^\001\005\005\234\003/63^\001\005\005t\005/64^\001\005%20#\000/53#\000\004\005^\001?484#\000\004\0242#\000?523#\000\004\0253#\000\017\322\000\005%24#\000/93#\000\004\0245#\000?628#\000\004\005^\001?670#\000\004\005^\001?713#\000\004\0258#\000\0375F\000\005\005^\001?781#\000\003$30#\000\005\342\032\r#\000\005^\001?871#\000\004\0242#\000?927#\000\004\0253#\000\017^\001\005\005k\005?699F\000\005\0235#\000/70k\003\005$36#\000\003<K\017#\000\000\0257#\000\017\246\004\005%38#\000/69#\000\004\004^\001\0237\307\002\016#\000\005$CO7256#\000\004\0251#\000\017S\002\005\005\3123/73\244\001\005%43#\000\017S\002\005$44#\000?403#\000\004\0255#\000\0373F\000\005\0256#\000\017\276\005\005%47#\000\017\276\005\005\005GB/75\276\005\005%49#\000\017\337\002\005%50#\000\017\337\002\005$51#\000?614#\000\004\0252#\000/49#\000\004\005^\001\0376\276\005\005\005\256\024/77\231\002\005\005\211\022J7778\002d\0315\254\b\0231'\000?817'\000\002\0331'\000/62'\000\002\0332'\000/95'\000\002\0323'\000?940'\000\002\0334'\000/86'\000\002\0315'\000O8015'\000\002\0336'\000\0374N\000\003\0337'\000/87'\000\002\0328'\000/12N\000\003\0339'\000/61'\000\002+10(\000/88(\000\003\n\210\001\0258\267\007\f(\000\0332(\000\017\355\000\004+13(\000/73(\000\003\n\213\001\0258\306\007\f(\000\0335(\000*35\231\002\0307\340\033\001\"\000\002\202+\006\"\000\0032\001%85\"\000\0378\"\000\003\003\261Y\000#\000/40#\000\004\005`\007?842#\000\004\005\352\004?844#\000\004\005i\003O8472#\000\003%73#\000\0379#\000\004$92#\000?511#\000\002\006\263\t?853#\000\004\005=\007\0358\244\004\0349\307\004J8570\247\001\0379\037\002\003?591(\000\002*24(\000?616(\000\002+43(\000\002U\001\r(\000+62(\000/68(\000\002+81(\000/87(\000\002\006\3454\003)\000\0227^\013\016)\000\f\362\000/73)\000\004\0344R\000/62)\000\003+59)\000/81)\000\003*78)\000/80)\000\004+97)\000\0372)\000\003\003+\013\007)\000/40)\000\002\004\002\013\0247(\000\0376(\000\003+90(\000/76(\000\003\0333(\000\0177\002\004*94(\000?912(\000\003\0335(\000\002\216\t\016(\000\0337(\000/71(\000\003\0338(\000/92(\000\003\0319(\000O9014_\002\004\0331)\000/36)\000\004\0332)\000/57)\000\004\0333)\000/79)\000\004\n\034\001\0259\214\000\r)\000\0336)\000\0372)\000\005\0337)\000\017\245\003\004;109)\000/63)\000\003+10)\000\017p\001\004\005\257\021\004)\000\003\033\r\017)\000\000\013\037\001\003*\t\017)\000\000\0334)\000\017\023\002\004\005\265\020\005)\000\0379)\000\005\013\037\001/31)\000\005\0338)\000\0373)\000\005\0339)\000\017\315\000\005+21)\000/73)\000\004\0332)\000\0379)\000\005\0323)\000\0374\342\002\005+25)\000/35)\000\004\0336)\000/56)\000\004\013H\001?478)\000\004\0329)\000?500)\000\003+30)\000/26)\000\004\013H\001?553)\000\004\013\037\001?580)\000\004\013g\002/61)\000\005\013H\001?641)\000\004\013\037\001?672)\000\004\013g\002?698)\000\004\0329)\000?725)\000\003+41)\000\017\220\002\005+42)\000\017\303\001\005*43)\000?805)\000\004\0335)\000/32)\000\004\0336)\000/58)\000\004\013H\001?885)\000\004\0329)\000\017\215\006\005;150)\000\017\216\006\004;151)\000\017\355\005\005+53)\000\017g\002\005\002a\n\005)\000_10002*\000\004\0345*\000\017\356\001\005,58*\000/48\312\b\013\006*\000\017M\005\005,60*\000/95*\000\004\0332*\000\005\016\005\r*\000\0343*\000/43*\000\004\f&\001\005\267>\r*\000\0347*\000\017)\005\005+68*\000\003\316\024\017*\000\000\0349*\000/36*\000\003,71*\000\017\305\002\005,72*\000\017j\003\005,73*\000/99*\000\004\0335*\000?320*\000\004\0346*\000\0374*\000\005\fP\001?361*\000\004\0349*\000/82*\000\003+80*\000\0224\320\r\017*\000\000\fP\001?427*\000\004\f&\001?450*\000\004\0344*\000\017t\007\005,85*\000/97*\000\004\0337*\000\005i\022\r*\000\0348*\000\017z\001\005,89*\000\017\304\013\004<191*\000\017n\004\005+92*\000?606*\000\004\fP\001?633*\000\004\f&\001\0376\250\000\006\0346*\000\0379\020\r\f\005*\000?723*\000\004\0349*\000/55*\000\002\003\226\032\b*\000\017[\016\004\003\235\032\007*\000\0378H\003\004\003\201\032\b*\000\017x\b\004\003\210\032\b*\000/84*\000\004\fP\001\0379{\017\004\003s\032\b*\000\017\350\005\004\003z\032\b*\000/81*\000\004\0329*\000\0351T\023\n\262\020\b*\000/49*\000\004\0342*\000\017\235\020\004\003s\032\b*\000\017X\f\004\003W\032\007*\000\005\030\f\0173\017\005\006*\000/36*\000\004\0347*\000/59*\000\004\0349*\000\017\354\004\004\003P\032\007*\000\0058\001\r*\000\fP\001\003\255\027\017*\000\000\f&\001\017\003\r\005\003B\032\b*\000\017<\006\004\003I\032\007*\000?328*\000\004\f&\001\0373\005\t\004\0034\032\b*\000\017\363\016\004\003;\032\007*\000\0374\006\t\004\003\037\032\b*\000\017\006\t\004\003&\032\b*\000/47*\000\004\fP\001\0244\240\002\004v\r\004\264\001\003h\f\002%\000/93%\000\005\0252%\000\003\031Y\017%\000\001\0264%\000/57%\000\005\0268%\000\017\224\000\006&41%\000/99%\000\005\006o\000/62%\000\006\0265%\000\0374%\000\006\0266%\000\0376%\000\006\0267%\000\0378%\000\006\006\336\000?814%\000\005\0269%\000/42%\000\004&50%\000/67%\000\005\0261%\000/85%\000\005\0252%\000?902%\000\005\0263%\000/30%\000\005\006r\001?951%\000\005\006r\001?977%\000\005\0247%\000O2000%\000\005\0268%\000\0372J\000\006\0269%\000/78%\000\004%61%\000\005\277\021\016%\000\0264%\000\002\\\002\017%\000\001\006\271\000\005o\013\016%\000\0268%\000/83%\000\005\006\271\000\005O\006\r%\000&70%\000\017\227\001\006&71%\000\0376J\000\006\0262%\000/94%\000\005\005\006\002/23r\001\006&75%\000/50%\000\005\0266%\000/95%\000\003\006R\035_12543%\000\005\006J\000/59%\000\006\006r\001\0376M\001\005\006K\030%12\367\n\r%\000\006x\003O2634%\000\005\0262%\000/61%\000\005\0253%\000?749%\000\005\006\003\001?682%\000\005\006r\001\0347\274\b/11\373\034\0014127\021\r/21|'\002\003N(\013\032,*97J'\004xK\0271\034%\004\301\026\013%\000\0300\023\033\002\026\007\001\267\026*56u\035\013,(\006!\000\0330\331\000\0335\212\f\02211\000_13035+\000\005\0348+\000/66+\000\005\0349+\000/99+\000\004+90+\000\005\305\023\016+\000\0341+\000/63+\000\005\0332+\000\003\037&\017+\000\001\0343+\000\0373V\000\006\0344+\000\017\002\001\006,95+\000/97+\000\005\0336+\000\rK\t/15\370\031\003-13\000\026\006+\000\f\256\001\r#\t\006+\000\0349+\000\017\002\001\005\005\025\r\006+\000/64+\000\005\f\256\001/49V\000\006\0332+\000/52V\000\006\0343+\000\0375V\000\006\0344+\000/86+\000\005\0335+\000?617+\000\005\0346+\000\002f\004\017+\000\001\f\256\001/68V\000\006\f\256\001\0377\004\002\005\005r\r\006+\000/65+\000\004+10+\000\0378\004\002\005\005f\f\006+\000/39+\000\005\f\256\001/87+\000\006\f\256\001?918+\000\005\f\256\001\005\005\t\016+\000\0345+\000/90+\000\005\0326+\000\0354\005\025\006+\000\0347+\000\0376V\000\006\0348+\000\017\335\003\005\005\372\r\005+\000\017\337\004\006\005\373\r\006+\000\017\337\004\005\005\374\r\006+\000/94+\000\005\013\256\001\0254\273\r\016+\000\0343+\000\017\333\002\006,24+\000\017\333\002\006+25+\000?322+\000\005\0346+\000\017\203\001\006+27+\000\017\337\004\006\005W\016\006+\000\0375V\000\006\f\256\001?485+\000\004+30+\000\03755\005\006,31+\000/81+\000\005\0332+\000/61V\000\006\0343+\000\002\315\t\017+\000\001\f\256\001\005)&\016+\000\0335+\000?732+\000\005\0346+\000\0376+\000\006\f\256\001\0377\260\002\006+38+\000\005\372)\016+\000\f\256\001/85+\000\005,40+\000/88+\000\005\f\256\001?924\306\212\002\013\364\t\0377\354\t\022\0375\354\t\025\0305G<\t\331g\f\345\t\006\032\000\003\241\000\005\367\005\005\327\006\003\2151\004\220\n\0360;'\017\326\000\r\0312\326\000\00412\0331\336\000\0362\336\000\017-\000\005\n\346\000,2 \237h\f\346\000\006\032\000\017\207\001\023\0373\261\000\022\0374\271\000\037\0045\000\n\301\000\0374\301\000>\0302\301\000\fA\002\005\322\001\017\272\000\002\017.\000\005\n\263\000\0376t\001K\017\263\000\000\017u\001\020\0176\000\r\n\303\000\0378v\001M\0326\017\000\017u\001\013\017-\000\002\t\261\000/42t\001M\017\204\000\002\0325\270\000\017\300\000\032\0375\307\000\001\0370\307\000\022\017\332\000P\016M\002\017\323\000\020\017L\002\002/44L\002E\0329\345\005\0314\233\000\013\271\000/9 -\000\t\n\261\000\0376\261\000K\005)7\004\212\003/08\262\000\b\017.\000\005\n\263\000\017\260\003?\0376\253\005\003\0312\272C\rU\004\r\343\\\0372\333\000\003\017V\000*\t\373\000/50\373\000\022\017\016\001,\0371\016\001\003\0375\336\000\022\0375\266\000\000\0372d\002L\r\243\000\0374\253\000\030\017\310\003\002/54\263\000>\0321\342\002\0321\244\000\n\254\000\005})\f'\000\002\037\000\0345\037B\017X\001<\017\245\000\005/99\215\000\000\016\254\000\n.\000\0360\252\232\017X\001I\003\345;\005g\003\017\254\000\004\013'\000\t\245\000/62X\001M\013~\000/50\254\000\031\017L\007\001/60\023\bD\017X\001\007\0309\257G\017\273\000\024\0136\000\n\303\000\017;\007E\004\234\000\003\300\007\005\026\007\0375\272\000\002\001\374\001\017-\000\005\n\261\000\0376\261\000L\004\360<\006\033\006\0339 \000\017\273\000\002\0177\000\005\n\275\000\0378\275\000\022\017D\0024\0322\374\007\005\202\005\017g\004\003\0340\320\000\0177\000\013\t\330\000/70a\004F\0312N\001+97\027\000\n\b\000\0340\304\000\t6\000\n\263\000\0372\263\000\022\017\023\000\031\017n\002#\n\331\000+20\037\000\017\331\000\021\0046\000\n\341\000\017\332\003\000\017\316\000U\005\005\003\017\245\t\n\r\317\000\f7\000\n\320\000\0376\320\000h+11\345\003\017\320\000\023\0137\000\n\320\000\017\f\004Q\f\366p\0312\031\006)99\353\003*97\244\005*15\226\001\0330D\013\016\375\000\017]\0007\t+\001.80I\023\017\030\001+\f$\005/14x\007\f\0302\211z\004\265\000\r\372\000\017F\000\013\n\324\000\0372\377\001!\0256\3736\003\347\000-23\033\001\017\372\000\024\0324\315\001*12\263\002\013\344\016\004\b\000\004\363\000/4 ?\000\022\n\363\000\017\222\004R\0333X\002\0328\231\000)03c\b\013\327\000\003S\000\0176\000\f\n\326\000\0376\235\002>\0326\303\000\005+\003\0372]\005\004\0335\263\001\0371\334\000\004\017O\000*\t\365\000-91i\200\017\365\000\016\004\333\026\005\336\036*11\b\000\003u\001\0310d>\0171\001\022\03771\001\004\0373\230\003\002/970\001\003+14\031\001\0272\220\000\016@\001\017^\000#\nG\001\0375G\001\030\017\004\006,/52%\001;\004\020\000\0313\\J*97A\003\017L\001J\017\205\000\024\ns\001\0364s\001\017\205\004N.15k\003\017\036\001\031\0177\000\003\t\330\000\003%=\016\331\000\017\306\000(\0374\306\000\004\0338~\001\f \000\0372\326\000\004\017G\000\032\013\336\000\0374*\003W\003\007\000\017\370\000\037\017\023\003,\017n\000A\013F\001\0373F\001W/51F\001\024\017\220\004-\017V\001\f\017~\000Q\013f\001\0376c\004h*10\261\000\0173\004\001\016\027\001\0176\000\003\n\327\000.11\327\000\017\351\bC\003\177\000\006!\b\0314W\r+97\314\001\017\334\000\022\017N\000\024\013\364\000\0373\364\000=(49\007\000\016\373\000\0377\265\000\f\0370\201\002\002\005\020\000\0320\360\001\016\034\001\017o\000B\0135\001\03755\001\022\017H\001+)52\267\001(97\241\013\005\340\000\t\325\001\0241<\r\017-\000\003\013\305\000\0256>K/48\305\000\003\006\032\000\003\262\000\006\275!\003i\000\006P\001\003`\001\003_\004\0360dH\017\357\003\025\0368\231\001\017\261\016\b(10\334\000\006\230\000\017?\000\f\013\013\001\0368\266\001\017\320\001\017\006\017\r\017m\b\033\0318*\001\003\253\001\004\255\003\004\b\000\005\027\000\0362\337\000\017=\000\025\n\345\000/20\345\000\030\0370\263\001\"\0378\252\002\t.20\312\000\0175\000\r\013\302\000\0251\252M/57\302\000\003\006\032\000\003\302\000\017\262\002\026\005H]\0378'\000\n\016\331\002\017\370\001\036\0338j\004\0325i\000/16\372\001\004\017?\000\032\013:\001\0363:\001\017\277\0264\013/\001\003'\001\017\276\000\005\013'\000\n\246\000-33\214\000\017\242\002<\013\177\000\016=\024\017\264\000\020\n5\000\013h\001\0375\302\000c\f\026\005\017\303\000\023\017\r\005\003/27\304\000>\0372\304\000\n/50\274\000\031\017\247\034\001\003\204E\017\264\000X/98\264\000\031/98\264\000\000/31,\002N\017b\004#\017Z\004\032.35F\b\017\306\000,\0374\306\000\003/11\322\t\003/00\316\000\004\017?\000\032\013\326\000\0377\326\000>\0325\326\000\017\336\0004/08\346\000)\0378\026\006>\0322\220\b/11\306\000\002\rn\030\n\335\000/9 >\000\n\n\305\000\017\357'#\006\t\247\fg\030\006-\000\017\001\007\023(10\300\b\004\017\000\003\332\000(75*\032\0240#\000\037 3\000\001\013\327\000\004\b=O7719\327\000\003\0257\377\207\003\304\000,10OP\013\017\002\0339}\002\003\035\013\0300k-\0338\020\001K7734\365]J7739r\000\005\005%*04\333\000\0274a\000\004\271T\017I\002\031/10+\001\001\004\n\002\017f\001 \017E\002\004\017\254\032\017\rn\001\017\262\027\023\0321\210\f\013\031\001*98e\032\017\252\005\023\004\333\000\017U\000+\013\002\001\0374\002\001\016\006\032\000\017\002\001)*12\207\000)97\343\000\004\027\000\005/\000*14 \000\016\013\001\017^\0000\013\f\001\0376\f\001\022\017A\0133/12\250\240\003)02\276\001\0340\342\214\n/\000\n\301\000/50\320\016Q\0337\241\001\0311\374\005/97~\002\003/00\202\001\002\006\360\000\0272\321\000\005\bE\017^\000,\013\037\001\0372\037\001!\017\307\b$/14\301\000\002\f\326\026\005\321\001/02\343\004\001\004\351\000\017\027\001\f\017V\000\005\013\000\001\0374\000\001+\016\255\037\017\036\b\033/14\275\001\003\005\235\003\0362\354\000\017/\000\007\013\334\000\017\274\003\000\017V\0133*14\251\001.17{\002\017\276\000\b\0177\000\f\013\306\000\0378\306\000>\0315Y\021\0339G\003\0378 \b\002\0321\323\000\004\030\000\004\333\000/5 L\000\037\n\350\000\017`*\032-19\225\013\017\212\003\033\017\373\000\021\r\363\000\0375\363\000\037\017\353\000\003\0372\224\005Q\0315\353\000\0053\003\003\210\016\004\232\000*98\037\000\017y\003\004/5 F\000!\013\367\000\0377+\027\021\0179\007\"\0335\177\000\0370\305\000\022/10\246\000\001\016\214\000\017\246\000-\0372\246\000\f\0374\256\000\031\004/\000\n\266\000/71\266\000M\0341\374\004\017)\002\013\017/\000\004\013\266\000\0373\266\000>\0311o\000+97<\001\n\255\000\001!\006\r&\000\013\244\000\0375Z\001F\017\244\000\004\0374\254\000\030\017\016\002\004\0377\264\000>\0314\264\000\004\000\004\004\216\000)09\b\000/97\303\000\t\017=\000\023\013\322\000\0379\314\007F\0336\251\002\n\225\007/99\313\000\004\0176\000\021\n\304\000/81\304\000 \003)\005\004*8\004i\005.15N\017\002\346-\002\252\245\t0\006\004f\000\017Q\006\016\0339m\000\0339\260\b\bu\000\003\231\000\005\340H\016\235\020\013o\000\006!\000\017o\000\004\004`\000\f\362\004\np\000\0375p\0008\0316\210\002\017o\000\002\0377o\000M\0375v\000\001\0379v\000\037\017\211\000\020\003\b\000\006*\f\003h\001.08\203\000\006SM\017\372\000(/9 A\002\017/62h\000F\n\035\005\003p\000/71p\000.\017}4\006\ti\000/95i\0000(2 4\002\017\376\003\002\0348V\n\017p\0000\004\023\002\006R\001\0311\360\004\013z\000\0375z\0009\013u\004/00r\000\001\0378r\000\037\017\205\000\031*14*\003\017\350\001\n\017\214\000)\0167\017\005\214\000)8 \001\001\017\214\000\022\003\232\002\017\215\000$\017\021\006\006\006\215\000\005\226\001\0373}\000\001\0374}\000\037\017j\000\025\017k\035\001\0318\007d\017x\000,/9 x\002\002\n\371\007(8 l\024\017r\000\033\005\023\000O8733q\030\003\006-\000\005\230\000\017\346\023\013\0348\372\030\017\220\000!\017\025\001\007\017\204\f\005\t}\000/64|\000\006\017i\000.\017\302\005\003\0373q\0008\017\250\f\n\0318\025b\017r\000,/6 \377\007\001\ti\000/66h\000F\017J\001\003\0375p\000&.20;\000\017l\032\034\013&y\004\250\000\t\271\026\007i\000\0076\013\017\247\006\005\005\364\000\0376a\000\020*49:\001\004\250\t\017\366\n\004\017A\001\002/85\261\001.\017w\000\024\017\210\004\002.85\034\001\017\177\000\003\006!\000\017\177\000%\0378\177\000\001\017\340S&\005\206\001\r\360\005/10\214%\003\0370[\002\031\016\307\034\016\362\000\006\343\000\017t\004\020/87\351\0016\017x\000\r\017\352\001\003\0377\352\0016\017\200\000\000\017\353\001\020\0377\353\001&\016\200\000\0376\241\004\026/89w\0018\017w\000\n\017v\001\003\0379v\0018\016\177\000\017u\001\016\0379u\001/\004\b\000\0378\347\006\020/52\213\r6\017p\000\004\016f\001\tx\000\017g\001(\017x\000\r\0378x\000\002\017`\0016\006\230\004\002\226\013\005r\037\fm\003\003\327\004\004\000\002\n\221\000/96\201\001\037\016\023\000\017\244\000=\017\265\001\003/96\265\001\037\016\023\000\017\254\000?\0378\254\000\002\017\351\001\037\016\023\000\f\254\000\006\007\020\004n\002\017)\001\001\003\327S\n\264\001\016}\000\017\302\001\n\017j\000\006\017r\000\f\007z\001\016r\000\017\210\001\n\017r\000\b\0378r\000\t\007@\001\016r\000\017N\001#/99q\000\001\0379U\001G)99\017\000\016y\000\017\\\001E/99c\001\t\0379c\0018\013D\020\017\204\024\001\003\000X\017c\0014\017q\000\003\016c\001\ty\000\017c\0011\016y\000\017c\001\006\006y\000\017c\001@\004\330\022/49y\000\000/19k\001G\013y\000\017s\001\003/19s\001G\r\201\000\0378\201\000\002\017{\001'\004D\000\006\026\016\0330$\006\0369r\000\002\306G\005>W\017y\001\030\016\023\000\017\212\000\036\016\205\001\016\222\000\017\212\001\030\016\023\000\017\222\000 \0378\222\000\b\017\233\001\036\016\023\000\017\222\000\b\0309\031\013\n\201\000\0319\201\000\007\204\001\016\201\000\n\222\001\017\023\000\r\017\224\000\032\016\257\001\016\234\000\007\216\001\016\234\000\n\234\001\017\023\000\r\017\234\000\034\0378\234\000\016\007\230\001\016\234\000\n\246\001\017\023\000\r\017\234\000\033/20\276\023\005\005\234\000\007\240\001\016\234\000\n\256\001\016\023\000\017\211\000\035\016\311\001\016\221\000\007\225\001\016\221\000\n\243\001\016\023\000\017\221\000\037\0378\221\000\016\007\212\001\016\221\000\n\230\001\016\023\000\017\221\000\016\005\t\004/10\212\000\000\004X\000\r\213\001\016\212\000\n\231\001\016\023\000\017\212\000\036\016\255\001\016\222\000\007\214\001\016\222\000\n\232\001\016\023\000\017\222\000 \0378\222\000\016\007\215\001\016\222\000\n\233\001\017\023\000\000\rT\007\003\303\022\006\377\f\003T\007\005\037\r\0366\222\000\006\245l\007\220\001\016\215\000\n\236\001\016\023\000\017\215\000&\016\271\001\t\225\000\007\223\001\016\225\000\n\241\001\016\023\000\017\225\000(\0378\225\000\t\007\226\001\016\225\000\n\244\001\017\023\000\000\rI\002)5 u\000\005\215\000\003\256\016\0369\341\013\f\231\202\006\214\033\016\221\000\016\250\001\017~\000!\016\247\001\017\206\000 \016\231\001\017\206\000\036\017\f\0010\016\212\001\005\037\002*8 v\000\0337\342\003\t\227\005\n\205\000-30k\001\017\214\001\b\017\200\0001\017\223\001\003-30m\001\017\216\001\b\017\210\0003\0378\210\000\t\006o\001\017\220\001\026\0358\210\000\0338\003\017\013k\005.16\202\000\002#,\005\027\002\016\2536\017\227\001\000\017\207\0003\016\231\001\017\217\000 \016\236\001\017\217\000'\0378\217\000\022\017\245\001=\013}\031\005\227\000/00\314\034\005\017\255\001J\017\217\000\f\017\265\001\003\0376\265\001N\017\227\000\016\0378\227\000/\016\275\001\r\352\003)11\362\003\004\177\017\0371\025\001\000\003\206\203\t\206\001\017y\000\004\016\247\001\017y\000\034/10\201\000\n\006p\001\017\221\001\b\017\201\000,\0378\201\000\t\006Z\001\017{\0016/50q\000\000/33s\001G/50k\001\001\017[A\017\017k\001.\005y\000\0378y\000\002\017c\001G\0379q\000\001/25c\001G/98\316\002\001\017\374A\017\017c\001.\005y\000\017\362\000\003\017c\001'\0358y\000\017\205\006\013\tz\000*58\300\004\r,?\017q\001\000\017\177\000+\016z\001\017\207\000 \016\177\001\017\207\000\037\0378\207\000\022\017\215\0015\017]\006\f\017\232%\000\017\225\001B\017\207\000\f\017\235\001\002/64\235\001F\017\217\000\016\0378\217\000/\016\245\001\004\253\003\004\315\"\0329~\000\n>\013-01f\001\017i\000\004\016_>\017i\000\f\016n\001\tq\000\006H\001\017q\0007\0378q\000\t\006*\001\017q\000\026\0338q\000\005$&\0317\351\001*98\355\017\017\225\003\004\t\230\000\005\\\000\017\177\001\026\0371\235\000J\016\256\001\016\245\000\017\263\001\016\006!\000\017\245\000E\0378\245\000\b\017\347\001\024\006!\000\017\245\000\r*12\177\000)97+\001\006\226\000\003/\000/14\236\000\000\017\347\001%\016\023\000\017\260\000E\004 \000\016\270\000\017\372\001!\016\023\000\017\270\000G\017\016\002\001\017\r\002%\016\023\000\017\270\000\036\006\b\000\004\371\005\0319\320\000\005\270\000\0370\235\007\000\t\270\000\007\007\002\016\270\000\n\025\002\017\270\000_\0160\002\r\300\000\007\017\002\016\300\000\n\035\002\017\300\000a\0378\300\000\r\006\214\000\016\300\000\013\255\000\017\300\000\021\0334\300\000\f\330\022\013\356\004*00/\000/14m2\001\0171\002.\006\023\000\017\261\000D\017)\002\002/16*\002.\006\023\000\017\271\000F\0378\271\000\016\007\002\002\016\271\000\n\020\002\016\023\000\017\271\000\026\006\n0\0317\343\002\n\274\002\004{\000\r\353\001\016\232\000\n\371\001\017\0054\r\017\255\0003\0161\004\016\265\000\007\347\001\016\265\000\n\365\001\016\023\000\017\265\000C\0378\265\000\016\007\343\001\016\265\000\n\361\001\016\023\000\017\265\000\033\013\271\002.16\235\000\0310\234\000\007\322\001\016\234\000\n\363\001\017v\000\035\016\320\001\r~\000\007\233\001\016~\000\n\274\001\017~\000\037\0378~\000\r\007d\001\016~\000\n\205\001\017~\000\006+11\027\002\n3\004\t~\000\002\236K\017{\001:\017\177\000\f\017\203\001\002/42\204\001>\017\207\000\016\0378\207\000\001\017\215\0016\003\237\000\0339\306\005\03185\f)08\234\000\t\214\000/34\232\001%\006\023\000\005\203\017\017\237\0002\017\272\001\002/34\272\001\037\017\247\000M\0378\247\000\001\017\332\001%\017\247\0006/10\344\017\001\017\345\001.\006\315\035\017\227\000*\017\335\001\002/20\335\001\037\017\237\000E\0378\237\000\001\017\325\001.\016\237\000\005\253\021*6 (\026\0327}\007\0310\267\000\013\332\035/5 \321\001\030\017\200\0001\016\277\001\t\210\000\017\272\001\022\017\210\0003\0378\210\000\003\017\243\001\036\r/\002*6 \352\n\013\331\005.99y\000\002nP\005!\002\017\216\001\022\017~\000*\016\207\001\016\206\000\017\214\001\022\017\206\000,\0378\206\000\b\017\212\001%'20\256\222\004<\000,00\363\b\0378+:\007\0306\242B\004N~\005z\000\b`\000\002>\034\b\232\026/00h\000\036\004o+*41)\017\004\207\000\013*\036\004\b\000\004y\205\006]\001\0351d\000\t\017\006\0306\240u\005}l\003x\327\0330]\000\016\314\013\017U\000\013\0379\315\327\016\004\265\b\004\0327+98\267\000\0374#\001\b\004_\000\t\003\002\t\007\000*38_\000\004H\000\r\323\020/05h\000\007&83h\000\tv\005\nl\000\006\003\003\0251\226\220\004~\002\0273\033\000\0328T\250\017\243\000\005/95(\r\003/05\212\310\001/95\330\000 \0378\330\000-/39_\001\004/11R\004\000\003w\000\003\0340\017\323\004\023/29q\000\034\0375q\000\001.4 \343\000\017q\0005\0378q\000\001,7 \023\003\017q\000\026\0308ID\b\3446\0311\253\006*14\007\002\0364\207\000\002\3228\005\003J%11kB\017\341\001\006\005\324Y\017\024\000\r/40\024\000\023\002aG\005\336\000\002\260\202\t\021\003\0054Z-45K\005\0227\222T\007p\t\005\321\002\003\227\302\005\027\001\0315\237\001\002\b\001\005/C\0338h>\0056\215\003{\006\017I8\017\0311\311\005\017\024d\032\003l\000\fC\3364117N\003\005\224L\002\305\000+99c\002\n\263\"\f\002\002\0315k\003\004\204\000\004\027\000.16\031\002&40\031\002\n\214\001\0319p\007\n2\003\017&\002\024\f\310\002)9 \266\000/08;\001\002.99\247\000\002c(\005\240\004\017\300\002\000\017\230\002\033\013\232\000\017\377\007\006\t\205\000\004\245\352\0353\022\233\016\205\000\0162\001\f\023\000\003r\000\002j,\017'5\001\0370\267\001\b\005F+\0372\200\000\001\017t\000\r\005\247\216\005\331.\003A\002\006\335\002\0361t\000\004\250\222\0372l\000\t\007\232\001\rd\001)3 ]\000\004\331\000\006\020\000\0370|\001\007\003\210%\002~\000\001h\000\0229\324\"\017O\005\027\005\335\002\0257h\004\006\234\000\0318\233\002\005{\b\0375k\b\000\0313\006\002\017\327\005\017\005!\000\0370u\000\004\016\024\n\017}\002\001\0336}\002\005j\235\017x\000\b\017\213\000\027\0379\233\003&/27\233\003'\017\207\000\006\013\177\000\013\"\002\t\200\000\003\253Z\005\032\001\006\356\002\017\031\002\b\017\223\000'*15\275\002\003\032\001\005\361\032\0379:\002\007\003\020M\007\304\001\005v\000\017\253\000\004_12062\277\000!'23B\000\0347\363\006/9 1\b\001)97\f\004\0176\006\002\003\301\000\0374%\001\006\017\035\001\021\n\025\001.57\277\001\017\024\001C\016\031\r\0335\247\000\0374\363\000\000\013\355\r\0373\234\000\n\007\375\002\016\211\000\017\"\t\036\0357\261\000\017\371\013>\006\361\236\017\330\000\001\013\243\000\006\234\001\004\242\000\004\001\002\004\017\016*97\313\005.00s\000\f\005\232\017\362\001\005\0343]\000\004\331\000\004e\000\0330&\004/11f\002\006/38\245\004\000\017\312\001(\rS\002*5 =\003\017\b\001\022\0269\b\001\017\211\000\006\006W\315\003t\000\004\274\006\007t\000\0376\277\002\002\005\327\002\017}\000\002/17z\r\037\007\204\003?257q\004\004\006\231\007\017\252\000 \0378\252\000\000.76\322\006\017\252\000!\016\307\002\017S\001'/17\261\000\b.80\266\f\017\262\000=\0348\262\000\004\270%*15\262\000\004\r\004\007\240\021\006\252\000\0376{\005\033\006\256\000\r\207\000)9 \222\004\f\206\000\013\300\f\013M\007\013\225\000\0318\226\000\b,\005\017\227\000\003\b\f\n\006F\001-38\024\000\017'\007\t;390\303h\007;\007\017\350\000\000\017\340\000\021\013\330\000\0361n\001\017\327\000\037\005\224\000\003\303\000\004\331\016\0139\016\r\267\016(17\037\000\004\300\000)20\b\000\002\006\000\005\265\024\0311\211\236\017\212\243\f/10\212\243\020/14\212\243\020\006\366\017\017e\243\b\006\033o\017e\243\b\006\227\227\017@\243\b.33@\243\016%\000\0375\257\243\020\006\222\226\017a\243\016\003\335\312\0325\226\001\017\274\001)\0325\356\005\fM\f\0376\362\001\t\017\000\017\f)11c\236\n\t\002\017,\004\005\006\2524\016\023\000\0310\007\000\006\346\021\0252\033\306\007\035\r\0378\330\000\n\0329j\004\ts\003\002\211\005\0179\027\r*76\027\000\016o\t-11d\000\t\317\000\0306\315\210\0179\027,\rU\000\0179\027\020\0032\000\004c\002\f\353\001\0370#\001\b\005\000\023\017\000\n\"\0373\256\001\005/97\350\005\016\004w\001\0343\371\000\017}\000\004\006!\000\017}\000\r\017+\002\005\t\177\000\005A\236\017\321\0029\004I\b\005\342\n\003s\001\006 \006\004\242\000\017\222\000\000\003\323W\nk\000\017\211\007\007\017\302\b,\017\212\000\t\003&\245\017\212\000\033\005\023\000\017s\tS\017\271\000\004\0245\205\000\005\367\375\017\271\000n\017\371\030\002\006z\b\016F\035\017\251\000\023\017\226\000-\n,\003\013\236\000.6 ^\035\017\236\000'*22\203\305$38+\000\017\013\260\000\0303\322\000\017\n\260\004\0303\275\026\001$\000\016\006\257\0303\\\033\017-\260\004\0333\343\026\016\334\255\006$\000\0379\337\b\b\003\020\000$54$\000/14$\000\006-5 \302\023\r$\000\0237$\000?536#\000\005\0378\337\260\b\0333.b\016\336\260\005$\000/60\335\260\b\004$\000\0371\334\260\b\0303\037\021\017\333\260\004\004$\000\0373b\255\b\0303}5\017\264\260\004\0303\357\364\017\263\260\004\0303\016\037\017\262\260\004\0333\322\360\017\261\260\001\0343\255\224\016\260\260\004$\000$70$\000\017\257\260\000\03431\355?202H\000\005\0372\255\260\b\0343\321\222\017\254\260\000\0333\276[\017\206\260\001\0303~\007\017\205\260\004\004$\000\0377\204\260\b\0343\301\221\017\203\260\000\0303\303\b\017\202\260\004\0303\253\t\017\201\260\004\0303+\307\017\200\260\004\0303\241\037\017\177\260\004\0343\203\217\006~\260\017\024h\022\004\326\b\0329K\005\003\336\b\005w\033\t\361\005\004\351\002\0175\000\f\002-\000,14\272\003\r\036\006\016\032\000\017\250i\031\017\302\000\r\0314\225\000\017\312\000\034\0374\322\000\b/61\250iD+97\206\000\0325<\r/02\313\000\003\0176\000\022\013\304\000\0373\226\001K\017\216\000\000\017\227\001\030\017>\000\025\013\324\000\0375\324\000M\0326\017\000\0360\211@\016\b\000\0330\332\000\017D\000\021\013\330\000\0378\330\000\022\017\203\002;\017\247\000\002\004\240\000\n\250\000\016\334\000\0175\000\002\013\325\000\0379\255\001b\016\200\002\017\312\000\032\0374\322\000\b/71\027\004E\0329\201\016\013\006\013/02\225\000\000\004\037\n\0175\000\f\013\302\000\0373\302\000K\006(\020\003\327\003)08\216\000\017\303\000\003\0176\000\r\013\304\000\0375\304\000>\0377+\006\003\0372\255\026\003\0370\371\022\004/02\354\000\013\017^\0002\013\f\001\0379\f\001\022\017\352q2\r\037\001\0315\231\000\n\241\000\016\357\000\0375\307\000\b/83\227\002L\r\206\000\0374\274\000\"\0374\304\000\t\0377\304\000D\005\036\003\0321\177\000)99\017\000\013\226\000\005\241#\0176\000\013\n\304\000/96&tE\017\304\000\004\017\275\000\034\017\266\000\003\003/\000\017{\001I)20\265\003/50\227\000\t\005\276\000\0176\000\013\f\305\000\0378|\001M\013\217\000/10\276\000\032\017\267\000\005\0379\346\007D\017\267\000\007\0319\020K/02\306\000\033\016>\000\016\325\000/11Q\002F\0302w\b+98a\004\0372\314\000\002/2 5\000\020\f\303\000\0372\303\000L\r\270\026\003Z\001\006 \000\0372\240\000\001\004\315\000\017?\000\r\f\317\000\0374\317\000\022\017z\0024\0322\207\b\005\b\006\0371\226\004\021\006\342\000\017?\000\023\013\352\000/24\b\004F\0312j\001+97\027\000\017\b\000\003\0340\326\000\017>\000\002\f\305\000\017\321\f,\017\244\0026\n\255\000+20\037\000\0372\305\000\001\016\353\000\017>\000\002\013\363\000\017U\265\001\017\340\000U\005E\003\017\213\n\022\r\341\000\016?\000\017\342\000\003\0374\342\000h+117\004\0372\342\000\032\016?\000\017\342\000\002\0376f\004`/14\247\007\032\017@\205\003\005\361\000\017N\000\024\f\371\000\0378\371\000!\016\210@\017\371\000\023\0334\372\f\0322\244\001\017\367\016\004\013\273\000\002\347!\017G\000\027\013\362\000\017f\215#\017\353\001%\0375\022\006\003)03\322\007/02\351\000\002/5 >\000\031\f\350\000\0352\034\034\017\350\000\007\017\325\000\033\0338S\003\017\300\002\023\f\271\002\003B\002\017G\000\025\013\337\000/55\307\001!\016(\035\017\362\000\013\013\277\001\004y\001\0327d\004\013/\006\0360\271\000\t\360\000\017E\000\031\f\366\000\0367\366\000\017\325\001,\f\343\000\0338O\004\013\"\006\017\244\003\004\0340\345\000\017G\000\033\013\347\000.66\331\037\017\277\2364\0378\240\000\003\f\277\037+10\235\002\0372\357\000\004\017O\000*\f\367\000\0368\367\000\017\263\003;)11\204\002\n\226z\004\226\000\013\236\000\005\345\000\017=\000\022\013\323\000\016#\205\017\323\000S\016\205\004\017\324\000\031\017|\004\005\017T\205G\0373\325\000\n/50\315\000!\017w\020\013/77\305\000\\/98\305\000!\017\345\006\013/814\rF\017\305\000\003\004\210\000\017\276\000\024\017\267\000\005\0372\026\003N\017\277\005+\017?\000\024\f\327\000\0367\003/\017\236\006;/14\257\0052\017G\000\034\f\347\000\0379\347\000>\0323\f\b/11\317\000\n\r\022\f\n\346\000/9 F\000\022\013\326\000\0369\274\000\017\326\000\007\016~\230\017\351\000\023\0134\006\0321\373\t)97\237\001*98\350\013\017\314\002\033\005H6\017]\0002\n-\001\016\235X\017-\001\t\017\032\0010*12\227\000)97\236\000\006\256\000\003/\000*14 \000/02\316\000\001\f#\001\017f\000,\f$\001\0375$\001\022\017\257\0053*12\364\002)19\233\000\f\b\000\003\253\000\004/$\0167\000\017\322\000\002/31\322\000P\f\t\002\0324t\001\f'\f\013\267\002/00\243\001\n\017\b\001\005/4 f\0009\f7\001\0379\t\002Q\0335\213\000\n\312\000\017\275Q\007\0372m\021\030\017(\001\005\017^\000\r\013\021\001/45\021\001+\017\210\021\007/49g\006\021/14\327\001\003)16\266\000\013\276\000\006\375\000\0177\000\013\n\355\000\0310E9\017\361\000\021\017\360\b\032*14q\001/17\252\002\004\0372\323\000\004\017?\000\032\fC\013/0 \327\000\036/49\247\016\021\003\343\031\0339\207\003\0318\273\006+08\255\000\0332\b\000\0318\354\000\003s-\017T\000\"\n\371\000\0373\325\001\037\03614\t\017\021\001\023\0375\021\001\030\017\t\001\006\0375\t\001\037\017\001\001\n\005\253)\017\203\0221/49\341\006\022\0375}\003\003/02\250\000\001\004\344\000\016/\000\017\317\000\001\0375\320\001\037\017p\004\033\017\274\000\005\0314\225\000\017\304\000\026\0374\314\000\t\0374\314\000S\005\362\005\0374<\005\022\003T\000\0177\000\r\013\314\000\0378\314\000D\0312}\000+97`\001\0372\224\000\001\004\0336\017.\000\004\n\272\000/60\206\001L\017\272\000\004\0374\302\000\"\0374\312\000\t\0372\312\000D\0315\312\000\0041\020\004\234\000)09\b\000)97\243\000\017\331\000\004\017E\000\033\013\350\000\0374\350\000D\0324\350\000/14j\007\002)99\234\000\013\244\000\005\341\000\017>\000\023\013\332\000\0376\332\000%\0358\031\000\006+\000)44%K\0250\007\000\360\r\t}\n.section\t.debug_loc\t{\t}\n\000\000"
	.size	.L__unnamed_2, 41488

	.type	__cuda_fatbin_wrapper,@object   # @__cuda_fatbin_wrapper
	.section	.nvFatBinSegment,"aw",@progbits
	.p2align	3, 0x0
__cuda_fatbin_wrapper:
	.long	1180844977                      # 0x466243b1
	.long	1                               # 0x1
	.quad	.L__unnamed_2
	.quad	0
	.size	__cuda_fatbin_wrapper, 24

	.type	__cuda_gpubin_handle,@object    # @__cuda_gpubin_handle
	.local	__cuda_gpubin_handle
	.comm	__cuda_gpubin_handle,8,8
	.section	.init_array,"aw",@init_array
	.p2align	3, 0x0
	.quad	__cuda_module_ctor
	.file	5 "/nethome/cahn45" "llvm-vortex-with-cuda-build/lib/clang/18/include/__clang_cuda_math_forward_declares.h"
	.file	6 "/usr/include" "stdlib.h"
	.file	7 "/usr/lib/gcc/x86_64-linux-gnu/13/../../../../include/c++/13/bits" "std_abs.h"
	.file	8 "/usr/include/x86_64-linux-gnu/bits" "mathcalls.h"
	.file	9 "/usr/lib/gcc/x86_64-linux-gnu/13/../../../../include/c++/13" "cmath"
	.file	10 "/usr/include" "math.h"
	.file	11 "/usr/lib/gcc/x86_64-linux-gnu/13/../../../../include/c++/13" "cstdlib"
	.file	12 "/nethome/cahn45" "llvm-vortex-with-cuda-build/lib/clang/18/include/__stddef_size_t.h"
	.file	13 "/usr/lib/gcc/x86_64-linux-gnu/13/../../../../include/c++/13" "stdlib.h"
	.file	14 "/nethome/cahn45" "llvm-vortex-with-cuda-build/lib/clang/18/include/__clang_cuda_math.h"
	.file	15 "/nethome/cahn45" "llvm-vortex-with-cuda-build/lib/clang/18/include/__clang_cuda_cmath.h"
	.file	16 "/usr/include/x86_64-linux-gnu/bits/types" "FILE.h"
	.section	".note.GNU-stack","",@progbits
	.addrsig
	.addrsig_sym _Z5fatalPc
	.addrsig_sym fprintf
	.addrsig_sym _Z11writeoutputPfiiPc
	.addrsig_sym fopen
	.addrsig_sym printf
	.addrsig_sym sprintf
	.addrsig_sym fputs
	.addrsig_sym fclose
	.addrsig_sym _Z9readinputPfiiPc
	.addrsig_sym fgets
	.addrsig_sym feof
	.addrsig_sym __isoc99_sscanf
	.addrsig_sym _Z29__device_stub__calculate_tempiPfS_S_iiiiffffff
	.addrsig_sym __cudaPopCallConfiguration
	.addrsig_sym cudaLaunchKernel
	.addrsig_sym _Z17compute_tran_tempPfPS_iiiiiiii
	.addrsig_sym __cudaPushCallConfiguration
	.addrsig_sym cudaDeviceSynchronize
	.addrsig_sym _Z5usageiPPc
	.addrsig_sym exit
	.addrsig_sym cudaSetDevice
	.addrsig_sym _Z3runiPPc
	.addrsig_sym atoi
	.addrsig_sym malloc
	.addrsig_sym calloc
	.addrsig_sym cudaMalloc
	.addrsig_sym cudaMemcpy
	.addrsig_sym cudaFree
	.addrsig_sym free
	.addrsig_sym __cuda_register_globals
	.addrsig_sym __cudaRegisterFunction
	.addrsig_sym __cudaRegisterFatBinary
	.addrsig_sym __cuda_module_ctor
	.addrsig_sym __cudaRegisterFatBinaryEnd
	.addrsig_sym __cudaUnregisterFatBinary
	.addrsig_sym __cuda_module_dtor
	.addrsig_sym atexit
	.addrsig_sym t_chip
	.addrsig_sym chip_height
	.addrsig_sym chip_width
	.addrsig_sym stderr
	.addrsig_sym .L__unnamed_2
	.addrsig_sym __cuda_fatbin_wrapper
	.addrsig_sym __cuda_gpubin_handle