	.text
	.file	"hotspot_jisheng.cu"
	.file	0 "/nethome/cahn45/CuPBoP/examples/hotspot" "hotspot_jisheng.cu" md5 0x250e42aa87171d00ecd17e7e43e9bf59
	.file	1 "." "hotspot_jisheng.cu"
	.file	2 "/nethome/cahn45/CuPBoP" "cuda-12.1/include/nv/target"
	.file	3 "/nethome/cahn45/CuPBoP" "cuda-12.1/include/driver_types.h"
	.file	4 "/nethome/cahn45/CuPBoP" "cuda-12.1/include/vector_types.h"
	.globl	_Z5fatalPc                      # -- Begin function _Z5fatalPc
	.p2align	4, 0x90
	.type	_Z5fatalPc,@function
_Z5fatalPc:                             # @_Z5fatalPc
.Lfunc_begin0:
	.loc	1 41 0                          # ./hotspot_jisheng.cu:41:0
	.cfi_startproc
# %bb.0:                                # %entry
	pushq	%rbp
	.cfi_def_cfa_offset 16
	.cfi_offset %rbp, -16
	movq	%rsp, %rbp
	.cfi_def_cfa_register %rbp
	subq	$16, %rsp
	movq	%rdi, -8(%rbp)
.Ltmp0:
	.loc	1 41 31 prologue_end            # ./hotspot_jisheng.cu:41:31
	movq	stderr@GOTPCREL(%rip), %rax
	movq	(%rax), %rdi
	.loc	1 41 54 is_stmt 0               # ./hotspot_jisheng.cu:41:54
	movq	-8(%rbp), %rdx
	.loc	1 41 23                         # ./hotspot_jisheng.cu:41:23
	leaq	.L.str(%rip), %rsi
	movb	$0, %al
	callq	fprintf@PLT
	.loc	1 41 58 epilogue_begin          # ./hotspot_jisheng.cu:41:58
	addq	$16, %rsp
	popq	%rbp
	.cfi_def_cfa %rsp, 8
	retq
.Ltmp1:
.Lfunc_end0:
	.size	_Z5fatalPc, .Lfunc_end0-_Z5fatalPc
	.cfi_endproc
                                        # -- End function
	.globl	_Z11writeoutputPfiiPc           # -- Begin function _Z11writeoutputPfiiPc
	.p2align	4, 0x90
	.type	_Z11writeoutputPfiiPc,@function
_Z11writeoutputPfiiPc:                  # @_Z11writeoutputPfiiPc
.Lfunc_begin1:
	.loc	1 43 0 is_stmt 1                # ./hotspot_jisheng.cu:43:0
	.cfi_startproc
# %bb.0:                                # %entry
	pushq	%rbp
	.cfi_def_cfa_offset 16
	.cfi_offset %rbp, -16
	movq	%rsp, %rbp
	.cfi_def_cfa_register %rbp
	subq	$304, %rsp                      # imm = 0x130
	movq	%rdi, -8(%rbp)
	movl	%esi, -12(%rbp)
	movl	%edx, -16(%rbp)
	movq	%rcx, -24(%rbp)
.Ltmp2:
	.loc	1 45 13 prologue_end            # ./hotspot_jisheng.cu:45:13
	movl	$0, -36(%rbp)
.Ltmp3:
	.loc	1 49 19                         # ./hotspot_jisheng.cu:49:19
	movq	-24(%rbp), %rdi
	.loc	1 49 13 is_stmt 0               # ./hotspot_jisheng.cu:49:13
	leaq	.L.str.1(%rip), %rsi
	callq	fopen@PLT
	.loc	1 49 11                         # ./hotspot_jisheng.cu:49:11
	movq	%rax, -48(%rbp)
	.loc	1 49 31                         # ./hotspot_jisheng.cu:49:31
	cmpq	$0, %rax
.Ltmp4:
	.loc	1 49 7                          # ./hotspot_jisheng.cu:49:7
	jne	.LBB1_2
# %bb.1:                                # %if.then
.Ltmp5:
	.loc	1 50 5 is_stmt 1                # ./hotspot_jisheng.cu:50:5
	leaq	.L.str.2(%rip), %rdi
	movb	$0, %al
	callq	printf@PLT
.Ltmp6:
.LBB1_2:                                # %if.end
	.loc	1 52 10                         # ./hotspot_jisheng.cu:52:10
	movl	$0, -28(%rbp)
.LBB1_3:                                # %for.cond
                                        # =>This Loop Header: Depth=1
                                        #     Child Loop BB1_5 Depth 2
.Ltmp7:
	.loc	1 52 15 is_stmt 0               # ./hotspot_jisheng.cu:52:15
	movl	-28(%rbp), %eax
	.loc	1 52 17                         # ./hotspot_jisheng.cu:52:17
	cmpl	-12(%rbp), %eax
.Ltmp8:
	.loc	1 52 3                          # ./hotspot_jisheng.cu:52:3
	jge	.LBB1_10
# %bb.4:                                # %for.body
                                        #   in Loop: Header=BB1_3 Depth=1
.Ltmp9:
	.loc	1 53 12 is_stmt 1               # ./hotspot_jisheng.cu:53:12
	movl	$0, -32(%rbp)
.LBB1_5:                                # %for.cond3
                                        #   Parent Loop BB1_3 Depth=1
                                        # =>  This Inner Loop Header: Depth=2
.Ltmp10:
	.loc	1 53 17 is_stmt 0               # ./hotspot_jisheng.cu:53:17
	movl	-32(%rbp), %eax
	.loc	1 53 19                         # ./hotspot_jisheng.cu:53:19
	cmpl	-16(%rbp), %eax
.Ltmp11:
	.loc	1 53 5                          # ./hotspot_jisheng.cu:53:5
	jge	.LBB1_8
# %bb.6:                                # %for.body5
                                        #   in Loop: Header=BB1_5 Depth=2
.Ltmp12:
	.loc	1 55 15 is_stmt 1               # ./hotspot_jisheng.cu:55:15
	leaq	-304(%rbp), %rdi
	.loc	1 55 32 is_stmt 0               # ./hotspot_jisheng.cu:55:32
	movl	-36(%rbp), %edx
	.loc	1 55 39                         # ./hotspot_jisheng.cu:55:39
	movq	-8(%rbp), %rax
	.loc	1 55 44                         # ./hotspot_jisheng.cu:55:44
	movl	-28(%rbp), %ecx
	.loc	1 55 46                         # ./hotspot_jisheng.cu:55:46
	imull	-16(%rbp), %ecx
	.loc	1 55 58                         # ./hotspot_jisheng.cu:55:58
	addl	-32(%rbp), %ecx
	.loc	1 55 39                         # ./hotspot_jisheng.cu:55:39
	movslq	%ecx, %rcx
	movss	(%rax,%rcx,4), %xmm0            # xmm0 = mem[0],zero,zero,zero
	cvtss2sd	%xmm0, %xmm0
	.loc	1 55 7                          # ./hotspot_jisheng.cu:55:7
	leaq	.L.str.3(%rip), %rsi
	movb	$1, %al
	callq	sprintf@PLT
	.loc	1 56 13 is_stmt 1               # ./hotspot_jisheng.cu:56:13
	leaq	-304(%rbp), %rdi
	.loc	1 56 18 is_stmt 0               # ./hotspot_jisheng.cu:56:18
	movq	-48(%rbp), %rsi
	.loc	1 56 7                          # ./hotspot_jisheng.cu:56:7
	callq	fputs@PLT
	.loc	1 57 12 is_stmt 1               # ./hotspot_jisheng.cu:57:12
	movl	-36(%rbp), %eax
	addl	$1, %eax
	movl	%eax, -36(%rbp)
.Ltmp13:
# %bb.7:                                # %for.inc
                                        #   in Loop: Header=BB1_5 Depth=2
	.loc	1 53 33                         # ./hotspot_jisheng.cu:53:33
	movl	-32(%rbp), %eax
	addl	$1, %eax
	movl	%eax, -32(%rbp)
	.loc	1 53 5 is_stmt 0                # ./hotspot_jisheng.cu:53:5
	jmp	.LBB1_5
.Ltmp14:
.LBB1_8:                                # %for.end
                                        #   in Loop: Header=BB1_3 Depth=1
	.loc	1 58 5 is_stmt 1                # ./hotspot_jisheng.cu:58:5
	jmp	.LBB1_9
.Ltmp15:
.LBB1_9:                                # %for.inc10
                                        #   in Loop: Header=BB1_3 Depth=1
	.loc	1 52 31                         # ./hotspot_jisheng.cu:52:31
	movl	-28(%rbp), %eax
	addl	$1, %eax
	movl	%eax, -28(%rbp)
	.loc	1 52 3 is_stmt 0                # ./hotspot_jisheng.cu:52:3
	jmp	.LBB1_3
.Ltmp16:
.LBB1_10:                               # %for.end12
	.loc	1 60 10 is_stmt 1               # ./hotspot_jisheng.cu:60:10
	movq	-48(%rbp), %rdi
	.loc	1 60 3 is_stmt 0                # ./hotspot_jisheng.cu:60:3
	callq	fclose@PLT
	.loc	1 61 1 epilogue_begin is_stmt 1 # ./hotspot_jisheng.cu:61:1
	addq	$304, %rsp                      # imm = 0x130
	popq	%rbp
	.cfi_def_cfa %rsp, 8
	retq
.Ltmp17:
.Lfunc_end1:
	.size	_Z11writeoutputPfiiPc, .Lfunc_end1-_Z11writeoutputPfiiPc
	.cfi_endproc
                                        # -- End function
	.globl	_Z9readinputPfiiPc              # -- Begin function _Z9readinputPfiiPc
	.p2align	4, 0x90
	.type	_Z9readinputPfiiPc,@function
_Z9readinputPfiiPc:                     # @_Z9readinputPfiiPc
.Lfunc_begin2:
	.loc	1 63 0                          # ./hotspot_jisheng.cu:63:0
	.cfi_startproc
# %bb.0:                                # %entry
	pushq	%rbp
	.cfi_def_cfa_offset 16
	.cfi_offset %rbp, -16
	movq	%rsp, %rbp
	.cfi_def_cfa_register %rbp
	subq	$320, %rsp                      # imm = 0x140
	movq	%rdi, -8(%rbp)
	movl	%esi, -12(%rbp)
	movl	%edx, -16(%rbp)
	movq	%rcx, -24(%rbp)
.Ltmp18:
	.loc	1 70 19 prologue_end            # ./hotspot_jisheng.cu:70:19
	movq	-24(%rbp), %rdi
	.loc	1 70 13 is_stmt 0               # ./hotspot_jisheng.cu:70:13
	leaq	.L.str.4(%rip), %rsi
	callq	fopen@PLT
	.loc	1 70 11                         # ./hotspot_jisheng.cu:70:11
	movq	%rax, -40(%rbp)
	.loc	1 70 31                         # ./hotspot_jisheng.cu:70:31
	cmpq	$0, %rax
.Ltmp19:
	.loc	1 70 7                          # ./hotspot_jisheng.cu:70:7
	jne	.LBB2_2
# %bb.1:                                # %if.then
.Ltmp20:
	.loc	1 71 5 is_stmt 1                # ./hotspot_jisheng.cu:71:5
	leaq	.L.str.2(%rip), %rdi
	movb	$0, %al
	callq	printf@PLT
.Ltmp21:
.LBB2_2:                                # %if.end
	.loc	1 73 10                         # ./hotspot_jisheng.cu:73:10
	movl	$0, -28(%rbp)
.LBB2_3:                                # %for.cond
                                        # =>This Loop Header: Depth=1
                                        #     Child Loop BB2_5 Depth 2
.Ltmp22:
	.loc	1 73 15 is_stmt 0               # ./hotspot_jisheng.cu:73:15
	movl	-28(%rbp), %eax
	.loc	1 73 20                         # ./hotspot_jisheng.cu:73:20
	movl	-12(%rbp), %ecx
	.loc	1 73 30                         # ./hotspot_jisheng.cu:73:30
	subl	$1, %ecx
	.loc	1 73 17                         # ./hotspot_jisheng.cu:73:17
	cmpl	%ecx, %eax
.Ltmp23:
	.loc	1 73 3                          # ./hotspot_jisheng.cu:73:3
	jg	.LBB2_14
# %bb.4:                                # %for.body
                                        #   in Loop: Header=BB2_3 Depth=1
.Ltmp24:
	.loc	1 74 12 is_stmt 1               # ./hotspot_jisheng.cu:74:12
	movl	$0, -32(%rbp)
.LBB2_5:                                # %for.cond3
                                        #   Parent Loop BB2_3 Depth=1
                                        # =>  This Inner Loop Header: Depth=2
.Ltmp25:
	.loc	1 74 17 is_stmt 0               # ./hotspot_jisheng.cu:74:17
	movl	-32(%rbp), %eax
	.loc	1 74 22                         # ./hotspot_jisheng.cu:74:22
	movl	-16(%rbp), %ecx
	.loc	1 74 32                         # ./hotspot_jisheng.cu:74:32
	subl	$1, %ecx
	.loc	1 74 19                         # ./hotspot_jisheng.cu:74:19
	cmpl	%ecx, %eax
.Ltmp26:
	.loc	1 74 5                          # ./hotspot_jisheng.cu:74:5
	jg	.LBB2_12
# %bb.6:                                # %for.body6
                                        #   in Loop: Header=BB2_5 Depth=2
.Ltmp27:
	.loc	1 75 13 is_stmt 1               # ./hotspot_jisheng.cu:75:13
	leaq	-304(%rbp), %rdi
	.loc	1 75 23 is_stmt 0               # ./hotspot_jisheng.cu:75:23
	movq	-40(%rbp), %rdx
	.loc	1 75 7                          # ./hotspot_jisheng.cu:75:7
	movl	$256, %esi                      # imm = 0x100
	callq	fgets@PLT
.Ltmp28:
	.loc	1 76 16 is_stmt 1               # ./hotspot_jisheng.cu:76:16
	movq	-40(%rbp), %rdi
	.loc	1 76 11 is_stmt 0               # ./hotspot_jisheng.cu:76:11
	callq	feof@PLT
	cmpl	$0, %eax
.Ltmp29:
	.loc	1 76 11                         # ./hotspot_jisheng.cu:76:11
	je	.LBB2_8
# %bb.7:                                # %if.then9
                                        #   in Loop: Header=BB2_5 Depth=2
.Ltmp30:
	.loc	1 77 9 is_stmt 1                # ./hotspot_jisheng.cu:77:9
	leaq	.L.str.5(%rip), %rdi
	callq	_Z5fatalPc
.Ltmp31:
.LBB2_8:                                # %if.end10
                                        #   in Loop: Header=BB2_5 Depth=2
	.loc	1 80 19                         # ./hotspot_jisheng.cu:80:19
	leaq	-304(%rbp), %rdi
	.loc	1 80 12 is_stmt 0               # ./hotspot_jisheng.cu:80:12
	leaq	.L.str.6(%rip), %rsi
	leaq	-308(%rbp), %rdx
	movb	$0, %al
	callq	__isoc99_sscanf@PLT
	.loc	1 80 36                         # ./hotspot_jisheng.cu:80:36
	cmpl	$1, %eax
.Ltmp32:
	.loc	1 80 11                         # ./hotspot_jisheng.cu:80:11
	je	.LBB2_10
# %bb.9:                                # %if.then14
                                        #   in Loop: Header=BB2_5 Depth=2
.Ltmp33:
	.loc	1 81 9 is_stmt 1                # ./hotspot_jisheng.cu:81:9
	leaq	.L.str.7(%rip), %rdi
	callq	_Z5fatalPc
.Ltmp34:
.LBB2_10:                               # %if.end15
                                        #   in Loop: Header=BB2_5 Depth=2
	.loc	1 82 33                         # ./hotspot_jisheng.cu:82:33
	movss	-308(%rbp), %xmm0               # xmm0 = mem[0],zero,zero,zero
	.loc	1 82 7 is_stmt 0                # ./hotspot_jisheng.cu:82:7
	movq	-8(%rbp), %rax
	.loc	1 82 12                         # ./hotspot_jisheng.cu:82:12
	movl	-28(%rbp), %ecx
	.loc	1 82 14                         # ./hotspot_jisheng.cu:82:14
	imull	-16(%rbp), %ecx
	.loc	1 82 26                         # ./hotspot_jisheng.cu:82:26
	addl	-32(%rbp), %ecx
	.loc	1 82 7                          # ./hotspot_jisheng.cu:82:7
	movslq	%ecx, %rcx
	.loc	1 82 31                         # ./hotspot_jisheng.cu:82:31
	movss	%xmm0, (%rax,%rcx,4)
.Ltmp35:
# %bb.11:                               # %for.inc
                                        #   in Loop: Header=BB2_5 Depth=2
	.loc	1 74 38 is_stmt 1               # ./hotspot_jisheng.cu:74:38
	movl	-32(%rbp), %eax
	addl	$1, %eax
	movl	%eax, -32(%rbp)
	.loc	1 74 5 is_stmt 0                # ./hotspot_jisheng.cu:74:5
	jmp	.LBB2_5
.Ltmp36:
.LBB2_12:                               # %for.end
                                        #   in Loop: Header=BB2_3 Depth=1
	.loc	1 83 5 is_stmt 1                # ./hotspot_jisheng.cu:83:5
	jmp	.LBB2_13
.Ltmp37:
.LBB2_13:                               # %for.inc16
                                        #   in Loop: Header=BB2_3 Depth=1
	.loc	1 73 36                         # ./hotspot_jisheng.cu:73:36
	movl	-28(%rbp), %eax
	addl	$1, %eax
	movl	%eax, -28(%rbp)
	.loc	1 73 3 is_stmt 0                # ./hotspot_jisheng.cu:73:3
	jmp	.LBB2_3
.Ltmp38:
.LBB2_14:                               # %for.end18
	.loc	1 85 10 is_stmt 1               # ./hotspot_jisheng.cu:85:10
	movq	-40(%rbp), %rdi
	.loc	1 85 3 is_stmt 0                # ./hotspot_jisheng.cu:85:3
	callq	fclose@PLT
	.loc	1 86 1 epilogue_begin is_stmt 1 # ./hotspot_jisheng.cu:86:1
	addq	$320, %rsp                      # imm = 0x140
	popq	%rbp
	.cfi_def_cfa %rsp, 8
	retq
.Ltmp39:
.Lfunc_end2:
	.size	_Z9readinputPfiiPc, .Lfunc_end2-_Z9readinputPfiiPc
	.cfi_endproc
                                        # -- End function
	.globl	_Z29__device_stub__calculate_tempiPfiii # -- Begin function _Z29__device_stub__calculate_tempiPfiii
	.p2align	4, 0x90
	.type	_Z29__device_stub__calculate_tempiPfiii,@function
_Z29__device_stub__calculate_tempiPfiii: # @_Z29__device_stub__calculate_tempiPfiii
.Lfunc_begin3:
	.loc	1 103 0                         # ./hotspot_jisheng.cu:103:0
	.cfi_startproc
# %bb.0:                                # %entry
	pushq	%rbp
	.cfi_def_cfa_offset 16
	.cfi_offset %rbp, -16
	movq	%rsp, %rbp
	.cfi_def_cfa_register %rbp
	subq	$160, %rsp
	movl	%edi, -4(%rbp)
	movq	%rsi, -16(%rbp)
	movl	%edx, -20(%rbp)
	movl	%ecx, -24(%rbp)
	movl	%r8d, -28(%rbp)
.Ltmp40:
	.loc	1 103 13 prologue_end           # ./hotspot_jisheng.cu:103:13
	leaq	-4(%rbp), %rax
	movq	%rax, -144(%rbp)
	leaq	-16(%rbp), %rax
	movq	%rax, -136(%rbp)
	leaq	-20(%rbp), %rax
	movq	%rax, -128(%rbp)
	leaq	-24(%rbp), %rax
	movq	%rax, -120(%rbp)
	leaq	-28(%rbp), %rax
	movq	%rax, -112(%rbp)
	leaq	-40(%rbp), %rdi
	leaq	-56(%rbp), %rsi
	leaq	-64(%rbp), %rdx
	leaq	-72(%rbp), %rcx
	callq	__cudaPopCallConfiguration@PLT
	movq	-64(%rbp), %r10
	movq	-72(%rbp), %rax
	movq	-40(%rbp), %rcx
	movq	%rcx, -88(%rbp)
	movl	-32(%rbp), %ecx
	movl	%ecx, -80(%rbp)
	movq	-88(%rbp), %rsi
	movl	-80(%rbp), %edx
	movq	-56(%rbp), %rcx
	movq	%rcx, -104(%rbp)
	movl	-48(%rbp), %ecx
	movl	%ecx, -96(%rbp)
	movq	-104(%rbp), %rcx
	movl	-96(%rbp), %r8d
	leaq	_Z29__device_stub__calculate_tempiPfiii(%rip), %rdi
	leaq	-144(%rbp), %r9
	movq	%r10, (%rsp)
	movq	%rax, 8(%rsp)
	callq	cudaLaunchKernel@PLT
# %bb.1:                                # %setup.end
	.loc	1 155 1 epilogue_begin          # ./hotspot_jisheng.cu:155:1
	addq	$160, %rsp
	popq	%rbp
	.cfi_def_cfa %rsp, 8
	retq
.Ltmp41:
.Lfunc_end3:
	.size	_Z29__device_stub__calculate_tempiPfiii, .Lfunc_end3-_Z29__device_stub__calculate_tempiPfiii
	.cfi_endproc
                                        # -- End function
	.section	.rodata.cst4,"aM",@progbits,4
	.p2align	2, 0x0                          # -- Begin function _Z17compute_tran_tempPfPS_iiiiiiii
.LCPI4_0:
	.long	0x3a83126f                      # float 0.00100000005
.LCPI4_5:
	.long	0x42c80000                      # float 100
	.section	.rodata.cst8,"aM",@progbits,8
	.p2align	3, 0x0
.LCPI4_1:
	.quad	0x3f50624dd2f1a9fc              # double 0.001
.LCPI4_2:
	.quad	0x4146e36000000000              # double 3.0E+6
.LCPI4_3:
	.quad	0x413ab3f000000000              # double 1.75E+6
.LCPI4_4:
	.quad	0x3fe0000000000000              # double 0.5
.LCPI4_6:
	.quad	0x4069000000000000              # double 200
.LCPI4_7:
	.quad	0x412ab3f000000000              # double 875000
	.text
	.globl	_Z17compute_tran_tempPfPS_iiiiiiii
	.p2align	4, 0x90
	.type	_Z17compute_tran_tempPfPS_iiiiiiii,@function
_Z17compute_tran_tempPfPS_iiiiiiii:     # @_Z17compute_tran_tempPfPS_iiiiiiii
.Lfunc_begin4:
	.loc	1 164 0                         # ./hotspot_jisheng.cu:164:0
	.cfi_startproc
# %bb.0:                                # %entry
	pushq	%rbp
	.cfi_def_cfa_offset 16
	.cfi_offset %rbp, -16
	movq	%rsp, %rbp
	.cfi_def_cfa_register %rbp
	subq	$176, %rsp
	movl	40(%rbp), %eax
	movl	32(%rbp), %eax
	movl	24(%rbp), %eax
	movl	16(%rbp), %eax
	movq	%rdi, -8(%rbp)
	movq	%rsi, -16(%rbp)
	movl	%edx, -20(%rbp)
	movl	%ecx, -24(%rbp)
	movl	%r8d, -28(%rbp)
	movl	%r9d, -32(%rbp)
.Ltmp42:
	.loc	1 165 8 prologue_end            # ./hotspot_jisheng.cu:165:8
	leaq	-44(%rbp), %rdi
	movl	$8, %edx
	movl	$1, %ecx
	movl	%edx, %esi
	callq	_ZN4dim3C2Ejjj
	.loc	1 166 16                        # ./hotspot_jisheng.cu:166:16
	movl	16(%rbp), %esi
	.loc	1 166 27 is_stmt 0              # ./hotspot_jisheng.cu:166:27
	movl	24(%rbp), %edx
	.loc	1 166 8                         # ./hotspot_jisheng.cu:166:8
	leaq	-56(%rbp), %rdi
	movl	$1, %ecx
	callq	_ZN4dim3C2Ejjj
	.loc	1 168 23 is_stmt 1              # ./hotspot_jisheng.cu:168:23
	movss	chip_height(%rip), %xmm0        # xmm0 = mem[0],zero,zero,zero
	.loc	1 168 37 is_stmt 0              # ./hotspot_jisheng.cu:168:37
	cvtsi2ssl	-24(%rbp), %xmm1
	.loc	1 168 35                        # ./hotspot_jisheng.cu:168:35
	divss	%xmm1, %xmm0
	.loc	1 168 9                         # ./hotspot_jisheng.cu:168:9
	movss	%xmm0, -60(%rbp)
	.loc	1 169 22 is_stmt 1              # ./hotspot_jisheng.cu:169:22
	movss	chip_width(%rip), %xmm0         # xmm0 = mem[0],zero,zero,zero
	.loc	1 169 35 is_stmt 0              # ./hotspot_jisheng.cu:169:35
	cvtsi2ssl	-20(%rbp), %xmm1
	.loc	1 169 33                        # ./hotspot_jisheng.cu:169:33
	divss	%xmm1, %xmm0
	.loc	1 169 9                         # ./hotspot_jisheng.cu:169:9
	movss	%xmm0, -64(%rbp)
	.loc	1 171 30 is_stmt 1              # ./hotspot_jisheng.cu:171:30
	movss	t_chip(%rip), %xmm0             # xmm0 = mem[0],zero,zero,zero
	cvtss2sd	%xmm0, %xmm1
	.loc	1 171 28 is_stmt 0              # ./hotspot_jisheng.cu:171:28
	movsd	.LCPI4_7(%rip), %xmm0           # xmm0 = [8.75E+5,0.0E+0]
	mulsd	%xmm1, %xmm0
	.loc	1 171 39                        # ./hotspot_jisheng.cu:171:39
	movss	-64(%rbp), %xmm1                # xmm1 = mem[0],zero,zero,zero
	cvtss2sd	%xmm1, %xmm1
	.loc	1 171 37                        # ./hotspot_jisheng.cu:171:37
	mulsd	%xmm1, %xmm0
	.loc	1 171 52                        # ./hotspot_jisheng.cu:171:52
	movss	-60(%rbp), %xmm1                # xmm1 = mem[0],zero,zero,zero
	cvtss2sd	%xmm1, %xmm1
	.loc	1 171 50                        # ./hotspot_jisheng.cu:171:50
	mulsd	%xmm1, %xmm0
	.loc	1 171 15                        # ./hotspot_jisheng.cu:171:15
	cvtsd2ss	%xmm0, %xmm0
	.loc	1 171 9                         # ./hotspot_jisheng.cu:171:9
	movss	%xmm0, -68(%rbp)
	.loc	1 172 14 is_stmt 1              # ./hotspot_jisheng.cu:172:14
	movss	-64(%rbp), %xmm0                # xmm0 = mem[0],zero,zero,zero
	cvtss2sd	%xmm0, %xmm0
	.loc	1 172 40 is_stmt 0              # ./hotspot_jisheng.cu:172:40
	movss	t_chip(%rip), %xmm1             # xmm1 = mem[0],zero,zero,zero
	cvtss2sd	%xmm1, %xmm2
	.loc	1 172 38                        # ./hotspot_jisheng.cu:172:38
	movsd	.LCPI4_6(%rip), %xmm1           # xmm1 = [2.0E+2,0.0E+0]
	mulsd	%xmm2, %xmm1
	.loc	1 172 49                        # ./hotspot_jisheng.cu:172:49
	movss	-60(%rbp), %xmm2                # xmm2 = mem[0],zero,zero,zero
	cvtss2sd	%xmm2, %xmm2
	.loc	1 172 47                        # ./hotspot_jisheng.cu:172:47
	mulsd	%xmm2, %xmm1
	.loc	1 172 25                        # ./hotspot_jisheng.cu:172:25
	divsd	%xmm1, %xmm0
	.loc	1 172 14                        # ./hotspot_jisheng.cu:172:14
	cvtsd2ss	%xmm0, %xmm0
	.loc	1 172 9                         # ./hotspot_jisheng.cu:172:9
	movss	%xmm0, -72(%rbp)
	.loc	1 173 14 is_stmt 1              # ./hotspot_jisheng.cu:173:14
	movss	-60(%rbp), %xmm0                # xmm0 = mem[0],zero,zero,zero
	cvtss2sd	%xmm0, %xmm0
	.loc	1 173 41 is_stmt 0              # ./hotspot_jisheng.cu:173:41
	movss	t_chip(%rip), %xmm1             # xmm1 = mem[0],zero,zero,zero
	cvtss2sd	%xmm1, %xmm2
	.loc	1 173 39                        # ./hotspot_jisheng.cu:173:39
	movsd	.LCPI4_6(%rip), %xmm1           # xmm1 = [2.0E+2,0.0E+0]
	mulsd	%xmm2, %xmm1
	.loc	1 173 50                        # ./hotspot_jisheng.cu:173:50
	movss	-64(%rbp), %xmm2                # xmm2 = mem[0],zero,zero,zero
	cvtss2sd	%xmm2, %xmm2
	.loc	1 173 48                        # ./hotspot_jisheng.cu:173:48
	mulsd	%xmm2, %xmm1
	.loc	1 173 26                        # ./hotspot_jisheng.cu:173:26
	divsd	%xmm1, %xmm0
	.loc	1 173 14                        # ./hotspot_jisheng.cu:173:14
	cvtsd2ss	%xmm0, %xmm0
	.loc	1 173 9                         # ./hotspot_jisheng.cu:173:9
	movss	%xmm0, -76(%rbp)
	.loc	1 174 14 is_stmt 1              # ./hotspot_jisheng.cu:174:14
	movss	t_chip(%rip), %xmm0             # xmm0 = mem[0],zero,zero,zero
	.loc	1 174 28 is_stmt 0              # ./hotspot_jisheng.cu:174:28
	movss	.LCPI4_5(%rip), %xmm1           # xmm1 = [1.0E+2,0.0E+0,0.0E+0,0.0E+0]
	mulss	-60(%rbp), %xmm1
	.loc	1 174 42                        # ./hotspot_jisheng.cu:174:42
	mulss	-64(%rbp), %xmm1
	.loc	1 174 21                        # ./hotspot_jisheng.cu:174:21
	divss	%xmm1, %xmm0
	.loc	1 174 9                         # ./hotspot_jisheng.cu:174:9
	movss	%xmm0, -80(%rbp)
	.loc	1 176 38 is_stmt 1              # ./hotspot_jisheng.cu:176:38
	movss	t_chip(%rip), %xmm0             # xmm0 = mem[0],zero,zero,zero
	cvtss2sd	%xmm0, %xmm0
	.loc	1 176 36 is_stmt 0              # ./hotspot_jisheng.cu:176:36
	movsd	.LCPI4_4(%rip), %xmm1           # xmm1 = [5.0E-1,0.0E+0]
	mulsd	%xmm0, %xmm1
	.loc	1 176 45                        # ./hotspot_jisheng.cu:176:45
	movsd	.LCPI4_3(%rip), %xmm0           # xmm0 = [1.75E+6,0.0E+0]
	mulsd	%xmm0, %xmm1
	.loc	1 176 29                        # ./hotspot_jisheng.cu:176:29
	movsd	.LCPI4_2(%rip), %xmm0           # xmm0 = [3.0E+6,0.0E+0]
	divsd	%xmm1, %xmm0
	.loc	1 176 21                        # ./hotspot_jisheng.cu:176:21
	cvtsd2ss	%xmm0, %xmm0
	.loc	1 176 9                         # ./hotspot_jisheng.cu:176:9
	movss	%xmm0, -84(%rbp)
	.loc	1 177 24 is_stmt 1              # ./hotspot_jisheng.cu:177:24
	movss	-84(%rbp), %xmm0                # xmm0 = mem[0],zero,zero,zero
	cvtss2sd	%xmm0, %xmm1
	.loc	1 177 22 is_stmt 0              # ./hotspot_jisheng.cu:177:22
	movsd	.LCPI4_1(%rip), %xmm0           # xmm0 = [1.0E-3,0.0E+0]
	divsd	%xmm1, %xmm0
	.loc	1 177 16                        # ./hotspot_jisheng.cu:177:16
	cvtsd2ss	%xmm0, %xmm0
	.loc	1 177 9                         # ./hotspot_jisheng.cu:177:9
	movss	%xmm0, -88(%rbp)
	.loc	1 180 16 is_stmt 1              # ./hotspot_jisheng.cu:180:16
	movss	.LCPI4_0(%rip), %xmm0           # xmm0 = [1.00000005E-3,0.0E+0,0.0E+0,0.0E+0]
	movss	%xmm0, -96(%rbp)
	.loc	1 182 7                         # ./hotspot_jisheng.cu:182:7
	movl	$1, -100(%rbp)
	.loc	1 182 16 is_stmt 0              # ./hotspot_jisheng.cu:182:16
	movl	$0, -104(%rbp)
.Ltmp43:
	.loc	1 184 10 is_stmt 1              # ./hotspot_jisheng.cu:184:10
	xorps	%xmm0, %xmm0
	movss	%xmm0, -92(%rbp)
.LBB4_1:                                # %for.cond
                                        # =>This Inner Loop Header: Depth=1
.Ltmp44:
	.loc	1 184 15 is_stmt 0              # ./hotspot_jisheng.cu:184:15
	movss	-92(%rbp), %xmm1                # xmm1 = mem[0],zero,zero,zero
	.loc	1 184 19                        # ./hotspot_jisheng.cu:184:19
	cvtsi2ssl	-28(%rbp), %xmm0
	.loc	1 184 17                        # ./hotspot_jisheng.cu:184:17
	ucomiss	%xmm1, %xmm0
.Ltmp45:
	.loc	1 184 3                         # ./hotspot_jisheng.cu:184:3
	jbe	.LBB4_9
# %bb.2:                                # %for.body
                                        #   in Loop: Header=BB4_1 Depth=1
.Ltmp46:
	.loc	1 185 16 is_stmt 1              # ./hotspot_jisheng.cu:185:16
	movl	-100(%rbp), %eax
	.loc	1 185 9 is_stmt 0               # ./hotspot_jisheng.cu:185:9
	movl	%eax, -108(%rbp)
	.loc	1 186 11 is_stmt 1              # ./hotspot_jisheng.cu:186:11
	movl	-104(%rbp), %eax
	.loc	1 186 9 is_stmt 0               # ./hotspot_jisheng.cu:186:9
	movl	%eax, -100(%rbp)
	.loc	1 187 11 is_stmt 1              # ./hotspot_jisheng.cu:187:11
	movl	-108(%rbp), %eax
	.loc	1 187 9 is_stmt 0               # ./hotspot_jisheng.cu:187:9
	movl	%eax, -104(%rbp)
	.loc	1 192 22 is_stmt 1              # ./hotspot_jisheng.cu:192:22
	movq	-56(%rbp), %rax
	movq	%rax, -120(%rbp)
	movl	-48(%rbp), %eax
	movl	%eax, -112(%rbp)
	.loc	1 192 31 is_stmt 0              # ./hotspot_jisheng.cu:192:31
	movq	-44(%rbp), %rax
	movq	%rax, -132(%rbp)
	movl	-36(%rbp), %eax
	movl	%eax, -124(%rbp)
	.loc	1 192 19                        # ./hotspot_jisheng.cu:192:19
	movq	-120(%rbp), %rax
	movq	%rax, -148(%rbp)
	movl	-112(%rbp), %eax
	movl	%eax, -140(%rbp)
	movq	-148(%rbp), %rdi
	movl	-140(%rbp), %esi
	movq	-132(%rbp), %rax
	movq	%rax, -164(%rbp)
	movl	-124(%rbp), %eax
	movl	%eax, -156(%rbp)
	movq	-164(%rbp), %rdx
	movl	-156(%rbp), %ecx
	xorl	%eax, %eax
	movl	%eax, %r9d
	movq	%r9, %r8
	callq	__cudaPushCallConfiguration@PLT
	cmpl	$0, %eax
	.loc	1 192 5                         # ./hotspot_jisheng.cu:192:5
	jne	.LBB4_7
# %bb.3:                                # %kcall.configok
                                        #   in Loop: Header=BB4_1 Depth=1
	.loc	1 192 44                        # ./hotspot_jisheng.cu:192:44
	cvtsi2ssl	-32(%rbp), %xmm1
	.loc	1 192 65                        # ./hotspot_jisheng.cu:192:65
	cvtsi2ssl	-28(%rbp), %xmm0
	.loc	1 192 82                        # ./hotspot_jisheng.cu:192:82
	subss	-92(%rbp), %xmm0
	.loc	1 192 61                        # ./hotspot_jisheng.cu:192:61
	ucomiss	%xmm1, %xmm0
	.loc	1 192 44                        # ./hotspot_jisheng.cu:192:44
	jb	.LBB4_5
# %bb.4:                                # %cond.true
                                        #   in Loop: Header=BB4_1 Depth=1
	.loc	1 192 89                        # ./hotspot_jisheng.cu:192:89
	cvtsi2ssl	-32(%rbp), %xmm0
	movss	%xmm0, -168(%rbp)               # 4-byte Spill
	.loc	1 192 44                        # ./hotspot_jisheng.cu:192:44
	jmp	.LBB4_6
.LBB4_5:                                # %cond.false
                                        #   in Loop: Header=BB4_1 Depth=1
	.loc	1 192 109                       # ./hotspot_jisheng.cu:192:109
	cvtsi2ssl	-28(%rbp), %xmm0
	.loc	1 192 126                       # ./hotspot_jisheng.cu:192:126
	subss	-92(%rbp), %xmm0
	movss	%xmm0, -168(%rbp)               # 4-byte Spill
.LBB4_6:                                # %cond.end
                                        #   in Loop: Header=BB4_1 Depth=1
	.loc	1 0 126                         # ./hotspot_jisheng.cu:0:126
	movss	-168(%rbp), %xmm0               # 4-byte Reload
                                        # xmm0 = mem[0],zero,zero,zero
	.loc	1 192 43                        # ./hotspot_jisheng.cu:192:43
	cvttss2si	%xmm0, %edi
	.loc	1 192 133                       # ./hotspot_jisheng.cu:192:133
	movq	-16(%rbp), %rax
	movslq	-104(%rbp), %rcx
	movq	(%rax,%rcx,8), %rsi
	.loc	1 192 150                       # ./hotspot_jisheng.cu:192:150
	movl	-20(%rbp), %edx
	.loc	1 192 155                       # ./hotspot_jisheng.cu:192:155
	movl	-24(%rbp), %ecx
	.loc	1 192 160                       # ./hotspot_jisheng.cu:192:160
	movl	32(%rbp), %r8d
	.loc	1 192 5                         # ./hotspot_jisheng.cu:192:5
	callq	_Z29__device_stub__calculate_tempiPfiii
.LBB4_7:                                # %kcall.end
                                        #   in Loop: Header=BB4_1 Depth=1
	.loc	1 193 5 is_stmt 1               # ./hotspot_jisheng.cu:193:5
	callq	cudaDeviceSynchronize@PLT
.Ltmp47:
# %bb.8:                                # %for.inc
                                        #   in Loop: Header=BB4_1 Depth=1
	.loc	1 184 42                        # ./hotspot_jisheng.cu:184:42
	cvtsi2ssl	-32(%rbp), %xmm0
	.loc	1 184 39 is_stmt 0              # ./hotspot_jisheng.cu:184:39
	addss	-92(%rbp), %xmm0
	movss	%xmm0, -92(%rbp)
	.loc	1 184 3                         # ./hotspot_jisheng.cu:184:3
	jmp	.LBB4_1
.Ltmp48:
.LBB4_9:                                # %for.end
	.loc	1 195 10 is_stmt 1              # ./hotspot_jisheng.cu:195:10
	movl	-104(%rbp), %eax
	.loc	1 195 3 epilogue_begin is_stmt 0 # ./hotspot_jisheng.cu:195:3
	addq	$176, %rsp
	popq	%rbp
	.cfi_def_cfa %rsp, 8
	retq
.Ltmp49:
.Lfunc_end4:
	.size	_Z17compute_tran_tempPfPS_iiiiiiii, .Lfunc_end4-_Z17compute_tran_tempPfPS_iiiiiiii
	.cfi_endproc
                                        # -- End function
	.section	.text._ZN4dim3C2Ejjj,"axG",@progbits,_ZN4dim3C2Ejjj,comdat
	.weak	_ZN4dim3C2Ejjj                  # -- Begin function _ZN4dim3C2Ejjj
	.p2align	4, 0x90
	.type	_ZN4dim3C2Ejjj,@function
_ZN4dim3C2Ejjj:                         # @_ZN4dim3C2Ejjj
.Lfunc_begin5:
	.loc	4 423 0 is_stmt 1               # cuda-12.1/include/vector_types.h:423:0
	.cfi_startproc
# %bb.0:                                # %entry
	pushq	%rbp
	.cfi_def_cfa_offset 16
	.cfi_offset %rbp, -16
	movq	%rsp, %rbp
	.cfi_def_cfa_register %rbp
	movq	%rdi, -8(%rbp)
	movl	%esi, -12(%rbp)
	movl	%edx, -16(%rbp)
	movl	%ecx, -20(%rbp)
	movq	-8(%rbp), %rax
.Ltmp50:
	.loc	4 423 133 prologue_end          # cuda-12.1/include/vector_types.h:423:133
	movl	-12(%rbp), %ecx
	.loc	4 423 131 is_stmt 0             # cuda-12.1/include/vector_types.h:423:131
	movl	%ecx, (%rax)
	.loc	4 423 140                       # cuda-12.1/include/vector_types.h:423:140
	movl	-16(%rbp), %ecx
	.loc	4 423 138                       # cuda-12.1/include/vector_types.h:423:138
	movl	%ecx, 4(%rax)
	.loc	4 423 147                       # cuda-12.1/include/vector_types.h:423:147
	movl	-20(%rbp), %ecx
	.loc	4 423 145                       # cuda-12.1/include/vector_types.h:423:145
	movl	%ecx, 8(%rax)
	.loc	4 423 152 epilogue_begin        # cuda-12.1/include/vector_types.h:423:152
	popq	%rbp
	.cfi_def_cfa %rsp, 8
	retq
.Ltmp51:
.Lfunc_end5:
	.size	_ZN4dim3C2Ejjj, .Lfunc_end5-_ZN4dim3C2Ejjj
	.cfi_endproc
                                        # -- End function
	.text
	.globl	_Z5usageiPPc                    # -- Begin function _Z5usageiPPc
	.p2align	4, 0x90
	.type	_Z5usageiPPc,@function
_Z5usageiPPc:                           # @_Z5usageiPPc
.Lfunc_begin6:
	.loc	1 198 0 is_stmt 1               # ./hotspot_jisheng.cu:198:0
	.cfi_startproc
# %bb.0:                                # %entry
	pushq	%rbp
	.cfi_def_cfa_offset 16
	.cfi_offset %rbp, -16
	movq	%rsp, %rbp
	.cfi_def_cfa_register %rbp
	subq	$16, %rsp
	movl	%edi, -4(%rbp)
	movq	%rsi, -16(%rbp)
.Ltmp52:
	.loc	1 199 11 prologue_end           # ./hotspot_jisheng.cu:199:11
	movq	stderr@GOTPCREL(%rip), %rax
	movq	(%rax), %rdi
	.loc	1 202 11                        # ./hotspot_jisheng.cu:202:11
	movq	-16(%rbp), %rax
	movq	(%rax), %rdx
	.loc	1 199 3                         # ./hotspot_jisheng.cu:199:3
	leaq	.L.str.8(%rip), %rsi
	movb	$0, %al
	callq	fprintf@PLT
	.loc	1 203 11                        # ./hotspot_jisheng.cu:203:11
	movq	stderr@GOTPCREL(%rip), %rax
	movq	(%rax), %rdi
	.loc	1 203 3 is_stmt 0               # ./hotspot_jisheng.cu:203:3
	leaq	.L.str.9(%rip), %rsi
	movb	$0, %al
	callq	fprintf@PLT
	.loc	1 205 11 is_stmt 1              # ./hotspot_jisheng.cu:205:11
	movq	stderr@GOTPCREL(%rip), %rax
	movq	(%rax), %rdi
	.loc	1 205 3 is_stmt 0               # ./hotspot_jisheng.cu:205:3
	leaq	.L.str.10(%rip), %rsi
	movb	$0, %al
	callq	fprintf@PLT
	.loc	1 206 11 is_stmt 1              # ./hotspot_jisheng.cu:206:11
	movq	stderr@GOTPCREL(%rip), %rax
	movq	(%rax), %rdi
	.loc	1 206 3 is_stmt 0               # ./hotspot_jisheng.cu:206:3
	leaq	.L.str.11(%rip), %rsi
	movb	$0, %al
	callq	fprintf@PLT
	.loc	1 207 11 is_stmt 1              # ./hotspot_jisheng.cu:207:11
	movq	stderr@GOTPCREL(%rip), %rax
	movq	(%rax), %rdi
	.loc	1 207 3 is_stmt 0               # ./hotspot_jisheng.cu:207:3
	leaq	.L.str.12(%rip), %rsi
	movb	$0, %al
	callq	fprintf@PLT
	.loc	1 209 11 is_stmt 1              # ./hotspot_jisheng.cu:209:11
	movq	stderr@GOTPCREL(%rip), %rax
	movq	(%rax), %rdi
	.loc	1 209 3 is_stmt 0               # ./hotspot_jisheng.cu:209:3
	leaq	.L.str.13(%rip), %rsi
	movb	$0, %al
	callq	fprintf@PLT
	.loc	1 211 11 is_stmt 1              # ./hotspot_jisheng.cu:211:11
	movq	stderr@GOTPCREL(%rip), %rax
	movq	(%rax), %rdi
	.loc	1 211 3 is_stmt 0               # ./hotspot_jisheng.cu:211:3
	leaq	.L.str.14(%rip), %rsi
	movb	$0, %al
	callq	fprintf@PLT
	.loc	1 212 3 is_stmt 1               # ./hotspot_jisheng.cu:212:3
	movl	$1, %edi
	callq	exit@PLT
.Ltmp53:
.Lfunc_end6:
	.size	_Z5usageiPPc, .Lfunc_end6-_Z5usageiPPc
	.cfi_endproc
                                        # -- End function
	.globl	main                            # -- Begin function main
	.p2align	4, 0x90
	.type	main,@function
main:                                   # @main
.Lfunc_begin7:
	.loc	1 215 0                         # ./hotspot_jisheng.cu:215:0
	.cfi_startproc
# %bb.0:                                # %entry
	pushq	%rbp
	.cfi_def_cfa_offset 16
	.cfi_offset %rbp, -16
	movq	%rsp, %rbp
	.cfi_def_cfa_register %rbp
	subq	$16, %rsp
	movl	$0, -4(%rbp)
	movl	%edi, -8(%rbp)
	movq	%rsi, -16(%rbp)
.Ltmp54:
	.loc	1 216 3 prologue_end            # ./hotspot_jisheng.cu:216:3
	xorl	%edi, %edi
	callq	cudaSetDevice@PLT
	.loc	1 217 3                         # ./hotspot_jisheng.cu:217:3
	leaq	.L.str.15(%rip), %rdi
	movl	$8, %edx
	movl	%edx, %esi
	movb	$0, %al
	callq	printf@PLT
	.loc	1 219 7                         # ./hotspot_jisheng.cu:219:7
	movl	-8(%rbp), %edi
	.loc	1 219 13 is_stmt 0              # ./hotspot_jisheng.cu:219:13
	movq	-16(%rbp), %rsi
	.loc	1 219 3                         # ./hotspot_jisheng.cu:219:3
	callq	_Z3runiPPc
	.loc	1 221 3 is_stmt 1               # ./hotspot_jisheng.cu:221:3
	xorl	%eax, %eax
	.loc	1 221 3 epilogue_begin is_stmt 0 # ./hotspot_jisheng.cu:221:3
	addq	$16, %rsp
	popq	%rbp
	.cfi_def_cfa %rsp, 8
	retq
.Ltmp55:
.Lfunc_end7:
	.size	main, .Lfunc_end7-main
	.cfi_endproc
                                        # -- End function
	.globl	_Z3runiPPc                      # -- Begin function _Z3runiPPc
	.p2align	4, 0x90
	.type	_Z3runiPPc,@function
_Z3runiPPc:                             # @_Z3runiPPc
.Lfunc_begin8:
	.loc	1 224 0 is_stmt 1               # ./hotspot_jisheng.cu:224:0
	.cfi_startproc
# %bb.0:                                # %entry
	pushq	%rbp
	.cfi_def_cfa_offset 16
	.cfi_offset %rbp, -16
	movq	%rsp, %rbp
	.cfi_def_cfa_register %rbp
	pushq	%rbx
	subq	$200, %rsp
	.cfi_offset %rbx, -24
	movl	%edi, -12(%rbp)
	movq	%rsi, -24(%rbp)
.Ltmp56:
	.loc	1 230 7 prologue_end            # ./hotspot_jisheng.cu:230:7
	movl	$60, -92(%rbp)
	.loc	1 231 7                         # ./hotspot_jisheng.cu:231:7
	movl	$1, -96(%rbp)
.Ltmp57:
	.loc	1 233 12                        # ./hotspot_jisheng.cu:233:12
	cmpl	$7, -12(%rbp)
.Ltmp58:
	.loc	1 233 7 is_stmt 0               # ./hotspot_jisheng.cu:233:7
	je	.LBB8_2
# %bb.1:                                # %if.then
.Ltmp59:
	.loc	1 234 11 is_stmt 1              # ./hotspot_jisheng.cu:234:11
	movl	-12(%rbp), %edi
	.loc	1 234 17 is_stmt 0              # ./hotspot_jisheng.cu:234:17
	movq	-24(%rbp), %rsi
	.loc	1 234 5                         # ./hotspot_jisheng.cu:234:5
	callq	_Z5usageiPPc
.Ltmp60:
.LBB8_2:                                # %if.end
	.loc	1 235 25 is_stmt 1              # ./hotspot_jisheng.cu:235:25
	movq	-24(%rbp), %rax
	movq	8(%rax), %rdi
	.loc	1 235 20 is_stmt 0              # ./hotspot_jisheng.cu:235:20
	callq	atoi@PLT
	.loc	1 235 18                        # ./hotspot_jisheng.cu:235:18
	movl	%eax, -32(%rbp)
	.loc	1 235 35                        # ./hotspot_jisheng.cu:235:35
	cmpl	$0, %eax
	.loc	1 235 40                        # ./hotspot_jisheng.cu:235:40
	jle	.LBB8_6
# %bb.3:                                # %lor.lhs.false
	.loc	1 235 61                        # ./hotspot_jisheng.cu:235:61
	movq	-24(%rbp), %rax
	movq	8(%rax), %rdi
	.loc	1 235 56                        # ./hotspot_jisheng.cu:235:56
	callq	atoi@PLT
	.loc	1 235 54                        # ./hotspot_jisheng.cu:235:54
	movl	%eax, -36(%rbp)
	.loc	1 235 71                        # ./hotspot_jisheng.cu:235:71
	cmpl	$0, %eax
	.loc	1 235 76                        # ./hotspot_jisheng.cu:235:76
	jle	.LBB8_6
# %bb.4:                                # %lor.lhs.false5
	.loc	1 236 30 is_stmt 1              # ./hotspot_jisheng.cu:236:30
	movq	-24(%rbp), %rax
	movq	16(%rax), %rdi
	.loc	1 236 25 is_stmt 0              # ./hotspot_jisheng.cu:236:25
	callq	atoi@PLT
	.loc	1 236 23                        # ./hotspot_jisheng.cu:236:23
	movl	%eax, -96(%rbp)
	.loc	1 236 40                        # ./hotspot_jisheng.cu:236:40
	cmpl	$0, %eax
	.loc	1 236 45                        # ./hotspot_jisheng.cu:236:45
	jle	.LBB8_6
# %bb.5:                                # %lor.lhs.false9
	.loc	1 237 32 is_stmt 1              # ./hotspot_jisheng.cu:237:32
	movq	-24(%rbp), %rax
	movq	24(%rax), %rdi
	.loc	1 237 27 is_stmt 0              # ./hotspot_jisheng.cu:237:27
	callq	atoi@PLT
	.loc	1 237 25                        # ./hotspot_jisheng.cu:237:25
	movl	%eax, -92(%rbp)
	.loc	1 237 42                        # ./hotspot_jisheng.cu:237:42
	cmpl	$0, %eax
.Ltmp61:
	.loc	1 235 7 is_stmt 1               # ./hotspot_jisheng.cu:235:7
	jg	.LBB8_7
.LBB8_6:                                # %if.then13
.Ltmp62:
	.loc	1 238 11                        # ./hotspot_jisheng.cu:238:11
	movl	-12(%rbp), %edi
	.loc	1 238 17 is_stmt 0              # ./hotspot_jisheng.cu:238:17
	movq	-24(%rbp), %rsi
	.loc	1 238 5                         # ./hotspot_jisheng.cu:238:5
	callq	_Z5usageiPPc
.Ltmp63:
.LBB8_7:                                # %if.end14
	.loc	1 240 11 is_stmt 1              # ./hotspot_jisheng.cu:240:11
	movq	-24(%rbp), %rax
	movq	32(%rax), %rax
	.loc	1 240 9 is_stmt 0               # ./hotspot_jisheng.cu:240:9
	movq	%rax, -72(%rbp)
	.loc	1 241 11 is_stmt 1              # ./hotspot_jisheng.cu:241:11
	movq	-24(%rbp), %rax
	movq	40(%rax), %rax
	.loc	1 241 9 is_stmt 0               # ./hotspot_jisheng.cu:241:9
	movq	%rax, -80(%rbp)
	.loc	1 242 11 is_stmt 1              # ./hotspot_jisheng.cu:242:11
	movq	-24(%rbp), %rax
	movq	48(%rax), %rax
	.loc	1 242 9 is_stmt 0               # ./hotspot_jisheng.cu:242:9
	movq	%rax, -88(%rbp)
	.loc	1 244 10 is_stmt 1              # ./hotspot_jisheng.cu:244:10
	movl	-32(%rbp), %eax
	.loc	1 244 20 is_stmt 0              # ./hotspot_jisheng.cu:244:20
	imull	-36(%rbp), %eax
	.loc	1 244 8                         # ./hotspot_jisheng.cu:244:8
	movl	%eax, -28(%rbp)
	.loc	1 249 21 is_stmt 1              # ./hotspot_jisheng.cu:249:21
	movl	-96(%rbp), %eax
	.loc	1 249 36 is_stmt 0              # ./hotspot_jisheng.cu:249:36
	shll	%eax
	.loc	1 249 39                        # ./hotspot_jisheng.cu:249:39
	movl	$2, %ecx
	cltd
	idivl	%ecx
	.loc	1 249 7                         # ./hotspot_jisheng.cu:249:7
	movl	%eax, -100(%rbp)
	.loc	1 250 21 is_stmt 1              # ./hotspot_jisheng.cu:250:21
	movl	-96(%rbp), %eax
	.loc	1 250 36 is_stmt 0              # ./hotspot_jisheng.cu:250:36
	shll	%eax
	.loc	1 250 39                        # ./hotspot_jisheng.cu:250:39
	movl	$2, %ecx
	cltd
	idivl	%ecx
	.loc	1 250 7                         # ./hotspot_jisheng.cu:250:7
	movl	%eax, -104(%rbp)
	.loc	1 251 28 is_stmt 1              # ./hotspot_jisheng.cu:251:28
	movl	-96(%rbp), %ecx
	.loc	1 251 43 is_stmt 0              # ./hotspot_jisheng.cu:251:43
	shll	%ecx
	.loc	1 251 25                        # ./hotspot_jisheng.cu:251:25
	movl	$8, %eax
	subl	%ecx, %eax
	.loc	1 251 7                         # ./hotspot_jisheng.cu:251:7
	movl	%eax, -108(%rbp)
	.loc	1 252 28 is_stmt 1              # ./hotspot_jisheng.cu:252:28
	movl	-96(%rbp), %ecx
	.loc	1 252 43 is_stmt 0              # ./hotspot_jisheng.cu:252:43
	shll	%ecx
	.loc	1 252 25                        # ./hotspot_jisheng.cu:252:25
	movl	$8, %eax
	subl	%ecx, %eax
	.loc	1 252 7                         # ./hotspot_jisheng.cu:252:7
	movl	%eax, -112(%rbp)
	.loc	1 254 7 is_stmt 1               # ./hotspot_jisheng.cu:254:7
	movl	-36(%rbp), %eax
	.loc	1 254 17 is_stmt 0              # ./hotspot_jisheng.cu:254:17
	cltd
	idivl	-108(%rbp)
	movl	%eax, -164(%rbp)                # 4-byte Spill
	.loc	1 254 37                        # ./hotspot_jisheng.cu:254:37
	movl	-36(%rbp), %eax
	.loc	1 254 47                        # ./hotspot_jisheng.cu:254:47
	cltd
	idivl	-108(%rbp)
	movl	-164(%rbp), %eax                # 4-byte Reload
	movl	%edx, %esi
	.loc	1 254 36                        # ./hotspot_jisheng.cu:254:36
	movl	$1, %ecx
	xorl	%edx, %edx
	.loc	1 254 63                        # ./hotspot_jisheng.cu:254:63
	cmpl	$0, %esi
	.loc	1 254 36                        # ./hotspot_jisheng.cu:254:36
	cmovel	%edx, %ecx
	.loc	1 254 33                        # ./hotspot_jisheng.cu:254:33
	addl	%ecx, %eax
	.loc	1 253 7 is_stmt 1               # ./hotspot_jisheng.cu:253:7
	movl	%eax, -116(%rbp)
	.loc	1 256 7                         # ./hotspot_jisheng.cu:256:7
	movl	-32(%rbp), %eax
	.loc	1 256 17 is_stmt 0              # ./hotspot_jisheng.cu:256:17
	cltd
	idivl	-112(%rbp)
	movl	%eax, -160(%rbp)                # 4-byte Spill
	.loc	1 256 37                        # ./hotspot_jisheng.cu:256:37
	movl	-32(%rbp), %eax
	.loc	1 256 47                        # ./hotspot_jisheng.cu:256:47
	cltd
	idivl	-112(%rbp)
	movl	-160(%rbp), %eax                # 4-byte Reload
	movl	%edx, %esi
	.loc	1 256 36                        # ./hotspot_jisheng.cu:256:36
	movl	$1, %ecx
	xorl	%edx, %edx
	.loc	1 256 63                        # ./hotspot_jisheng.cu:256:63
	cmpl	$0, %esi
	.loc	1 256 36                        # ./hotspot_jisheng.cu:256:36
	cmovel	%edx, %ecx
	.loc	1 256 33                        # ./hotspot_jisheng.cu:256:33
	addl	%ecx, %eax
	.loc	1 255 7 is_stmt 1               # ./hotspot_jisheng.cu:255:7
	movl	%eax, -120(%rbp)
	.loc	1 258 36                        # ./hotspot_jisheng.cu:258:36
	movslq	-28(%rbp), %rdi
	.loc	1 258 41 is_stmt 0              # ./hotspot_jisheng.cu:258:41
	shlq	$2, %rdi
	.loc	1 258 29                        # ./hotspot_jisheng.cu:258:29
	callq	malloc@PLT
	.loc	1 258 18                        # ./hotspot_jisheng.cu:258:18
	movq	%rax, -48(%rbp)
	.loc	1 259 37 is_stmt 1              # ./hotspot_jisheng.cu:259:37
	movslq	-28(%rbp), %rdi
	.loc	1 259 42 is_stmt 0              # ./hotspot_jisheng.cu:259:42
	shlq	$2, %rdi
	.loc	1 259 30                        # ./hotspot_jisheng.cu:259:30
	callq	malloc@PLT
	.loc	1 259 19                        # ./hotspot_jisheng.cu:259:19
	movq	%rax, -56(%rbp)
	.loc	1 260 31 is_stmt 1              # ./hotspot_jisheng.cu:260:31
	movslq	-28(%rbp), %rdi
	.loc	1 260 24 is_stmt 0              # ./hotspot_jisheng.cu:260:24
	movl	$4, %esi
	callq	calloc@PLT
	.loc	1 260 13                        # ./hotspot_jisheng.cu:260:13
	movq	%rax, -64(%rbp)
.Ltmp64:
	.loc	1 262 8 is_stmt 1               # ./hotspot_jisheng.cu:262:8
	cmpq	$0, -56(%rbp)
	.loc	1 262 24 is_stmt 0              # ./hotspot_jisheng.cu:262:24
	je	.LBB8_10
# %bb.8:                                # %lor.lhs.false38
	.loc	1 262 28                        # ./hotspot_jisheng.cu:262:28
	cmpq	$0, -48(%rbp)
	.loc	1 262 43                        # ./hotspot_jisheng.cu:262:43
	je	.LBB8_10
# %bb.9:                                # %lor.lhs.false40
	.loc	1 262 47                        # ./hotspot_jisheng.cu:262:47
	cmpq	$0, -64(%rbp)
.Ltmp65:
	.loc	1 262 7                         # ./hotspot_jisheng.cu:262:7
	jne	.LBB8_11
.LBB8_10:                               # %if.then42
.Ltmp66:
	.loc	1 263 5 is_stmt 1               # ./hotspot_jisheng.cu:263:5
	leaq	.L.str.16(%rip), %rdi
	callq	_Z5fatalPc
.Ltmp67:
.LBB8_11:                               # %if.end43
	.loc	1 267 10                        # ./hotspot_jisheng.cu:267:10
	movl	-96(%rbp), %esi
	.loc	1 267 26 is_stmt 0              # ./hotspot_jisheng.cu:267:26
	movl	-36(%rbp), %edx
	.loc	1 267 37                        # ./hotspot_jisheng.cu:267:37
	movl	-32(%rbp), %ecx
	.loc	1 267 48                        # ./hotspot_jisheng.cu:267:48
	movl	-100(%rbp), %r8d
	.loc	1 267 60                        # ./hotspot_jisheng.cu:267:60
	movl	-104(%rbp), %r9d
	.loc	1 268 10 is_stmt 1              # ./hotspot_jisheng.cu:268:10
	movl	-116(%rbp), %ebx
	.loc	1 268 21 is_stmt 0              # ./hotspot_jisheng.cu:268:21
	movl	-120(%rbp), %r11d
	.loc	1 268 32                        # ./hotspot_jisheng.cu:268:32
	movl	-108(%rbp), %r10d
	.loc	1 268 47                        # ./hotspot_jisheng.cu:268:47
	movl	-112(%rbp), %eax
	.loc	1 265 3 is_stmt 1               # ./hotspot_jisheng.cu:265:3
	leaq	.L.str.17(%rip), %rdi
	movl	%ebx, (%rsp)
	movl	%r11d, 8(%rsp)
	movl	%r10d, 16(%rsp)
	movl	%eax, 24(%rsp)
	movb	$0, %al
	callq	printf@PLT
	.loc	1 270 13                        # ./hotspot_jisheng.cu:270:13
	movq	-48(%rbp), %rdi
	.loc	1 270 29 is_stmt 0              # ./hotspot_jisheng.cu:270:29
	movl	-32(%rbp), %esi
	.loc	1 270 40                        # ./hotspot_jisheng.cu:270:40
	movl	-36(%rbp), %edx
	.loc	1 270 51                        # ./hotspot_jisheng.cu:270:51
	movq	-72(%rbp), %rcx
	.loc	1 270 3                         # ./hotspot_jisheng.cu:270:3
	callq	_Z9readinputPfiiPc
	.loc	1 271 13 is_stmt 1              # ./hotspot_jisheng.cu:271:13
	movq	-56(%rbp), %rdi
	.loc	1 271 30 is_stmt 0              # ./hotspot_jisheng.cu:271:30
	movl	-32(%rbp), %esi
	.loc	1 271 41                        # ./hotspot_jisheng.cu:271:41
	movl	-36(%rbp), %edx
	.loc	1 271 52                        # ./hotspot_jisheng.cu:271:52
	movq	-80(%rbp), %rcx
	.loc	1 271 3                         # ./hotspot_jisheng.cu:271:3
	callq	_Z9readinputPfiiPc
	.loc	1 274 24 is_stmt 1              # ./hotspot_jisheng.cu:274:24
	movl	-28(%rbp), %esi
	.loc	1 274 3 is_stmt 0               # ./hotspot_jisheng.cu:274:3
	leaq	.L.str.18(%rip), %rdi
	movb	$0, %al
	callq	printf@PLT
	.loc	1 275 24 is_stmt 1              # ./hotspot_jisheng.cu:275:24
	leaq	-144(%rbp), %rdi
	.loc	1 275 55 is_stmt 0              # ./hotspot_jisheng.cu:275:55
	movslq	-28(%rbp), %rsi
	.loc	1 275 53                        # ./hotspot_jisheng.cu:275:53
	shlq	$2, %rsi
	.loc	1 275 3                         # ./hotspot_jisheng.cu:275:3
	callq	cudaMalloc@PLT
	.loc	1 276 24 is_stmt 1              # ./hotspot_jisheng.cu:276:24
	leaq	-144(%rbp), %rdi
	addq	$8, %rdi
	.loc	1 276 55 is_stmt 0              # ./hotspot_jisheng.cu:276:55
	movslq	-28(%rbp), %rsi
	.loc	1 276 53                        # ./hotspot_jisheng.cu:276:53
	shlq	$2, %rsi
	.loc	1 276 3                         # ./hotspot_jisheng.cu:276:3
	callq	cudaMalloc@PLT
	.loc	1 277 14 is_stmt 1              # ./hotspot_jisheng.cu:277:14
	movq	-144(%rbp), %rdi
	.loc	1 277 29 is_stmt 0              # ./hotspot_jisheng.cu:277:29
	movq	-48(%rbp), %rsi
	.loc	1 277 61                        # ./hotspot_jisheng.cu:277:61
	movslq	-28(%rbp), %rdx
	.loc	1 277 59                        # ./hotspot_jisheng.cu:277:59
	shlq	$2, %rdx
	.loc	1 277 3                         # ./hotspot_jisheng.cu:277:3
	movl	$1, %ecx
	callq	cudaMemcpy@PLT
	.loc	1 280 53 is_stmt 1              # ./hotspot_jisheng.cu:280:53
	movslq	-28(%rbp), %rsi
	.loc	1 280 51 is_stmt 0              # ./hotspot_jisheng.cu:280:51
	shlq	$2, %rsi
	.loc	1 280 3                         # ./hotspot_jisheng.cu:280:3
	leaq	-152(%rbp), %rdi
	callq	cudaMalloc@PLT
	.loc	1 281 14 is_stmt 1              # ./hotspot_jisheng.cu:281:14
	movq	-152(%rbp), %rdi
	.loc	1 281 27 is_stmt 0              # ./hotspot_jisheng.cu:281:27
	movq	-56(%rbp), %rsi
	.loc	1 281 60                        # ./hotspot_jisheng.cu:281:60
	movslq	-28(%rbp), %rdx
	.loc	1 281 58                        # ./hotspot_jisheng.cu:281:58
	shlq	$2, %rdx
	.loc	1 281 3                         # ./hotspot_jisheng.cu:281:3
	movl	$1, %ecx
	callq	cudaMemcpy@PLT
	.loc	1 283 3 is_stmt 1               # ./hotspot_jisheng.cu:283:3
	leaq	.L.str.19(%rip), %rdi
	movb	$0, %al
	callq	printf@PLT
	.loc	1 284 31                        # ./hotspot_jisheng.cu:284:31
	movq	-152(%rbp), %rdi
	.loc	1 284 44 is_stmt 0              # ./hotspot_jisheng.cu:284:44
	leaq	-144(%rbp), %rsi
	.loc	1 284 56                        # ./hotspot_jisheng.cu:284:56
	movl	-36(%rbp), %edx
	.loc	1 284 67                        # ./hotspot_jisheng.cu:284:67
	movl	-32(%rbp), %ecx
	.loc	1 285 31 is_stmt 1              # ./hotspot_jisheng.cu:285:31
	movl	-92(%rbp), %r8d
	.loc	1 285 49 is_stmt 0              # ./hotspot_jisheng.cu:285:49
	movl	-96(%rbp), %r9d
	.loc	1 285 65                        # ./hotspot_jisheng.cu:285:65
	movl	-116(%rbp), %ebx
	.loc	1 286 31 is_stmt 1              # ./hotspot_jisheng.cu:286:31
	movl	-120(%rbp), %r11d
	.loc	1 286 42 is_stmt 0              # ./hotspot_jisheng.cu:286:42
	movl	-100(%rbp), %r10d
	.loc	1 286 54                        # ./hotspot_jisheng.cu:286:54
	movl	-104(%rbp), %eax
	.loc	1 284 13 is_stmt 1              # ./hotspot_jisheng.cu:284:13
	movl	%ebx, (%rsp)
	movl	%r11d, 8(%rsp)
	movl	%r10d, 16(%rsp)
	movl	%eax, 24(%rsp)
	callq	_Z17compute_tran_tempPfPS_iiiiiiii
	.loc	1 284 7 is_stmt 0               # ./hotspot_jisheng.cu:284:7
	movl	%eax, -156(%rbp)
	.loc	1 287 3 is_stmt 1               # ./hotspot_jisheng.cu:287:3
	leaq	.L.str.20(%rip), %rdi
	movb	$0, %al
	callq	printf@PLT
	.loc	1 288 14                        # ./hotspot_jisheng.cu:288:14
	movq	-64(%rbp), %rdi
	.loc	1 288 25 is_stmt 0              # ./hotspot_jisheng.cu:288:25
	movslq	-156(%rbp), %rax
	movq	-144(%rbp,%rax,8), %rsi
	.loc	1 288 58                        # ./hotspot_jisheng.cu:288:58
	movslq	-28(%rbp), %rdx
	.loc	1 288 56                        # ./hotspot_jisheng.cu:288:56
	shlq	$2, %rdx
	.loc	1 288 3                         # ./hotspot_jisheng.cu:288:3
	movl	$2, %ecx
	callq	cudaMemcpy@PLT
	.loc	1 291 15 is_stmt 1              # ./hotspot_jisheng.cu:291:15
	movq	-64(%rbp), %rdi
	.loc	1 291 26 is_stmt 0              # ./hotspot_jisheng.cu:291:26
	movl	-32(%rbp), %esi
	.loc	1 291 37                        # ./hotspot_jisheng.cu:291:37
	movl	-36(%rbp), %edx
	.loc	1 291 48                        # ./hotspot_jisheng.cu:291:48
	movq	-88(%rbp), %rcx
	.loc	1 291 3                         # ./hotspot_jisheng.cu:291:3
	callq	_Z11writeoutputPfiiPc
	.loc	1 293 12 is_stmt 1              # ./hotspot_jisheng.cu:293:12
	movq	-152(%rbp), %rdi
	.loc	1 293 3 is_stmt 0               # ./hotspot_jisheng.cu:293:3
	callq	cudaFree@PLT
	.loc	1 294 12 is_stmt 1              # ./hotspot_jisheng.cu:294:12
	movq	-144(%rbp), %rdi
	.loc	1 294 3 is_stmt 0               # ./hotspot_jisheng.cu:294:3
	callq	cudaFree@PLT
	.loc	1 295 12 is_stmt 1              # ./hotspot_jisheng.cu:295:12
	movq	-136(%rbp), %rdi
	.loc	1 295 3 is_stmt 0               # ./hotspot_jisheng.cu:295:3
	callq	cudaFree@PLT
	.loc	1 296 8 is_stmt 1               # ./hotspot_jisheng.cu:296:8
	movq	-64(%rbp), %rdi
	.loc	1 296 3 is_stmt 0               # ./hotspot_jisheng.cu:296:3
	callq	free@PLT
	.loc	1 297 1 epilogue_begin is_stmt 1 # ./hotspot_jisheng.cu:297:1
	addq	$200, %rsp
	popq	%rbx
	popq	%rbp
	.cfi_def_cfa %rsp, 8
	retq
.Ltmp68:
.Lfunc_end8:
	.size	_Z3runiPPc, .Lfunc_end8-_Z3runiPPc
	.cfi_endproc
                                        # -- End function
	.p2align	4, 0x90                         # -- Begin function __cuda_register_globals
	.type	__cuda_register_globals,@function
__cuda_register_globals:                # @__cuda_register_globals
.Lfunc_begin9:
	.cfi_startproc
# %bb.0:                                # %entry
	subq	$40, %rsp
	.cfi_def_cfa_offset 48
	leaq	_Z29__device_stub__calculate_tempiPfiii(%rip), %rsi
	leaq	.L__unnamed_1(%rip), %rcx
	movl	$4294967295, %r8d               # imm = 0xFFFFFFFF
	xorl	%eax, %eax
	movl	%eax, %r9d
	movq	%rcx, %rdx
	movq	$0, (%rsp)
	movq	$0, 8(%rsp)
	movq	$0, 16(%rsp)
	movq	$0, 24(%rsp)
	callq	__cudaRegisterFunction@PLT
	addq	$40, %rsp
	.cfi_def_cfa_offset 8
	retq
.Lfunc_end9:
	.size	__cuda_register_globals, .Lfunc_end9-__cuda_register_globals
	.cfi_endproc
                                        # -- End function
	.p2align	4, 0x90                         # -- Begin function __cuda_module_ctor
	.type	__cuda_module_ctor,@function
__cuda_module_ctor:                     # @__cuda_module_ctor
.Lfunc_begin10:
	.cfi_startproc
# %bb.0:                                # %entry
	pushq	%rax
	.cfi_def_cfa_offset 16
	leaq	__cuda_fatbin_wrapper(%rip), %rdi
	callq	__cudaRegisterFatBinary@PLT
	movq	%rax, %rdi
	movq	%rdi, (%rsp)                    # 8-byte Spill
	movq	%rdi, __cuda_gpubin_handle(%rip)
	callq	__cuda_register_globals
	movq	(%rsp), %rdi                    # 8-byte Reload
	callq	__cudaRegisterFatBinaryEnd@PLT
	leaq	__cuda_module_dtor(%rip), %rdi
	callq	atexit@PLT
	popq	%rax
	.cfi_def_cfa_offset 8
	retq
.Lfunc_end10:
	.size	__cuda_module_ctor, .Lfunc_end10-__cuda_module_ctor
	.cfi_endproc
                                        # -- End function
	.p2align	4, 0x90                         # -- Begin function __cuda_module_dtor
	.type	__cuda_module_dtor,@function
__cuda_module_dtor:                     # @__cuda_module_dtor
.Lfunc_begin11:
	.cfi_startproc
# %bb.0:                                # %entry
	pushq	%rax
	.cfi_def_cfa_offset 16
	movq	__cuda_gpubin_handle(%rip), %rdi
	callq	__cudaUnregisterFatBinary@PLT
	popq	%rax
	.cfi_def_cfa_offset 8
	retq
.Lfunc_end11:
	.size	__cuda_module_dtor, .Lfunc_end11-__cuda_module_dtor
	.cfi_endproc
                                        # -- End function
	.type	t_chip,@object                  # @t_chip
	.data
	.globl	t_chip
	.p2align	2, 0x0
t_chip:
	.long	0x3a03126f                      # float 5.00000024E-4
	.size	t_chip, 4

	.type	chip_height,@object             # @chip_height
	.globl	chip_height
	.p2align	2, 0x0
chip_height:
	.long	0x3c83126f                      # float 0.0160000008
	.size	chip_height, 4

	.type	chip_width,@object              # @chip_width
	.globl	chip_width
	.p2align	2, 0x0
chip_width:
	.long	0x3c83126f                      # float 0.0160000008
	.size	chip_width, 4

	.type	amb_temp,@object                # @amb_temp
	.globl	amb_temp
	.p2align	2, 0x0
amb_temp:
	.long	0x42a00000                      # float 80
	.size	amb_temp, 4

	.type	.L.str,@object                  # @.str
	.section	.rodata.str1.1,"aMS",@progbits,1
.L.str:
	.asciz	"error: %s\n"
	.size	.L.str, 11

	.type	.L.str.1,@object                # @.str.1
.L.str.1:
	.asciz	"w"
	.size	.L.str.1, 2

	.type	.L.str.2,@object                # @.str.2
.L.str.2:
	.asciz	"The file was not opened\n"
	.size	.L.str.2, 25

	.type	.L.str.3,@object                # @.str.3
.L.str.3:
	.asciz	"%d\t%g\n"
	.size	.L.str.3, 7

	.type	.L.str.4,@object                # @.str.4
.L.str.4:
	.asciz	"r"
	.size	.L.str.4, 2

	.type	.L.str.5,@object                # @.str.5
.L.str.5:
	.asciz	"not enough lines in file"
	.size	.L.str.5, 25

	.type	.L.str.6,@object                # @.str.6
.L.str.6:
	.asciz	"%f"
	.size	.L.str.6, 3

	.type	.L.str.7,@object                # @.str.7
.L.str.7:
	.asciz	"invalid file format"
	.size	.L.str.7, 20

	.type	.L.str.8,@object                # @.str.8
.L.str.8:
	.asciz	"Usage: %s <grid_rows/grid_cols> <pyramid_height> <sim_time> <temp_file> <power_file> <output_file>\n"
	.size	.L.str.8, 100

	.type	.L.str.9,@object                # @.str.9
.L.str.9:
	.asciz	"\t<grid_rows/grid_cols>  - number of rows/cols in the grid (positive integer)\n"
	.size	.L.str.9, 78

	.type	.L.str.10,@object               # @.str.10
.L.str.10:
	.asciz	"\t<pyramid_height> - pyramid heigh(positive integer)\n"
	.size	.L.str.10, 53

	.type	.L.str.11,@object               # @.str.11
.L.str.11:
	.asciz	"\t<sim_time>   - number of iterations\n"
	.size	.L.str.11, 38

	.type	.L.str.12,@object               # @.str.12
.L.str.12:
	.asciz	"\t<temp_file>  - name of the file containing the initial temperature values of each cell\n"
	.size	.L.str.12, 89

	.type	.L.str.13,@object               # @.str.13
.L.str.13:
	.asciz	"\t<power_file> - name of the file containing the dissipated power values of each cell\n"
	.size	.L.str.13, 86

	.type	.L.str.14,@object               # @.str.14
.L.str.14:
	.asciz	"\t<output_file> - name of the output file\n"
	.size	.L.str.14, 42

	.type	.L.str.15,@object               # @.str.15
.L.str.15:
	.asciz	"WG size of kernel = %d X %d\n"
	.size	.L.str.15, 29

	.type	.L.str.16,@object               # @.str.16
.L.str.16:
	.asciz	"unable to allocate memory"
	.size	.L.str.16, 26

	.type	.L.str.17,@object               # @.str.17
.L.str.17:
	.asciz	"pyramidHeight: %d\ngridSize: [%d, %d]\nborder:[%d, %d]\nblockGrid:[%d, %d]\ntargetBlock:[%d, %d]\n"
	.size	.L.str.17, 94

	.type	.L.str.18,@object               # @.str.18
.L.str.18:
	.asciz	"size is %d"
	.size	.L.str.18, 11

	.type	.L.str.19,@object               # @.str.19
.L.str.19:
	.asciz	"Start computing the transient temperature\n"
	.size	.L.str.19, 43

	.type	.L.str.20,@object               # @.str.20
.L.str.20:
	.asciz	"Ending simulation\n"
	.size	.L.str.20, 19

	.type	.L__unnamed_1,@object           # @0
.L__unnamed_1:
	.asciz	"_Z14calculate_tempiPfiii"
	.size	.L__unnamed_1, 25

	.type	.L__unnamed_2,@object           # @1
	.section	.nv_fatbin,"a",@progbits
	.p2align	3, 0x0
.L__unnamed_2:
	.asciz	"P\355U\272\001\000\020\000@|\000\000\000\000\000\000\002\000\001\001@\000\000\0000:\000\000\000\000\000\000*:\000\000\000\000\000\000\007\000\001\0002\000\000\000\000\000\000\000\000\000\000\000\023 \000\000\000\000\000\000\000\000\000\000\000\000\000\000\000\253\000\000\000\000\000\000\242\177ELF\002\001\0013\007\000\001\000f\002\000\276\000y\000\001\000! \252\007\0001\000\240\244\007\000\365\016\0002\0052\000@\0008\000\004\000@\000\026\000\001\000\000.shstrtab\000.\b\000'ym\b\000\361\005_shndx\000.nv.uft.entry\016\000\365\024info\000.text._Z14calculate_tempiPfiii(\000\017\"\000\013oshared$\000\013aglobal\013\000\237constant02\000\b?rel+\000\025\264debug_frame\r\000BlineD\000\b\020\0006nv_\017\000T_sassh\000\016\030\000\005\024\000wptx_txt\022\000\000\020\001L_reg*\000\005\030\0005typ\212\000\206abbrev\000.#\000\001t\000\031a\021\000\002\f\0008loc\264\000\003\321\000\007-\000\003\022\000\000\027\001\201allgraph\016\000Qprotou\000\017\016\002-\017e\001\005\017'\002^\360\000blockIdx\000thread\n\000\017\023\002\031\017'\000\023z_param\000^\001\017A\002\354\017\001\000\005\214Y\000\000\000\003\000\024\000\001\000\021\276\030\000,\025\000\001\000W\311\000\000\000\001\030\000\"\001\000\001\000\023\322\030\000\033\001\030\000 \007\001H\000,\023\000\001\000\0215\030\000,\004\000\001\000\021B\030\000,\005\000\001\000\021^\030\000,\006\000\001\000\021\212\030\000,\007\000\001\000\021\234\030\000,\b\000\001\000\021\264\030\000,\t\000\001\000\021\314\030\000,\n\000\001\000\021\332\030\000,\013\000\001\000 %\002\030\000,\016\000\001\000g@\000\000\000\022\020P\001\003\013\000f\377\377\377\377<\005\f\000\000\001\000@\003\000\004|\b\000\360\002\017\f\201\200\200(\000\b\377\201\200(\007\200\200\200\b\005\0000\020\007\202\005\000\020\203\005\000\020\204\005\000\020\205\005\000\020\206\005\000P\200\200\200(\b3\000\000#\000\020(#\000\020(#\000\020(#\000\020(#\0000(\007\207\005\000\020\210\005\000\020\211\005\000\020\212\005\000\020\213\005\000\020\214\005\000\020\215\005\000\020\216\005\000\020\217\005\000\020\220\005\000\020\221\005\000\020\222\005\000\020\223\005\000\020\224\005\000\020\225\005\000\020\226\005\000\020\227\005\000\020\230\005\000\020\231\005\000\020\232\005\000\020\233\005\000\020\234\005\000\020\235\005\000\020\236\005\000\020\237\005\000\020\240\005\000\020\241\005\000\020\242\005\000\020\243\005\000\020\244\005\000\020\245\005\000\020\246\005\000\020\247\005\000\020\250\005\000\020\251\005\000\020\252\005\000\020\253\005\000\020\254\005\000\020\255\005\000\020\256\005\000\020\257\005\000\020\260\005\000\020\261\005\000\020\262\005\000\020\263\005\000\020\264\005\000\020\265\005\000\020\266\005\000\020\267\005\000\020\270\005\000\020\271\005\000\020\272\005\000\020\273\005\000\020\274\005\000\020\275\005\000\020\276\005\000\020\277\005\000\020\300\005\000\020\301\005\000\020\302\005\000\020\303\005\000\020\304\005\000\020\305\005\000\020\306\005\000\020\307\005\000\020\310\005\000\020\311\005\000\020\312\005\000\020\313\005\000\020\314\005\000\020\315\005\000\020\316\005\000\020\317\005\000\020\320\005\000\020\321\005\000\020\322\005\000\020\323\005\000\020\324\005\000\020\325\005\000\020\326\005\000\020\327\005\000\020\330\005\000\020\331\005\000\020\332\005\000\020\333\005\000\020\334\005\000\020\335\005\000\020\336\005\000\020\337\005\000\020\340\005\000\020\341\005\000\020\342\005\000\020\343\005\000\020\344\005\000\020\345\005\000\020\346\005\000\020\347\005\000\020\350\005\000\020\351\005\000\020\352\005\000\020\353\005\000\020\354\005\000\020\355\005\000\020\356\005\000\020\357\005\000\020\360\005\000\020\361\005\000\020\362\005\000\020\363\005\000\020\364\005\000\020\365\005\000\020\366\005\000\020\367\005\000\020\370\005\000\020\371\005\000\020\372\005\000\020\373\005\000\020\374\005\000\020\375\005\000\020\376\005\000\020\377\005\000\020\200\250\002\020\201\005\000\020\202\005\000\020\203\005\000\020\204\005\000\020\205\005\000\020\206\005\000\020\207\005\000\020\210\005\000\020\211\005\000\020\212\005\000\020\213\005\000\020\214\005\000\020\215\005\000\020\216\005\000\020\217\005\000\020\220\005\000\020\221\005\000\020\222\005\000\020\223\005\000\020\224\005\000\020\225\005\000\020\226\005\000\020\227\005\000\020\230\005\000\020\231\005\000\020\232\005\000\020\233\005\000\020\234\005\000\020\235\005\000\020\236\005\000\020\237\005\000\020\240\005\000\020\241\005\000\020\242\005\000\020\243\005\000\020\244\005\000\020\245\005\000\020\246\005\000\020\247\005\000\020\250\005\000\020\251\005\000\020\252\005\000\020\253\005\000\020\254\005\000\020\255\005\000\020\256\005\000\020\257\005\000\020\260\005\000\020\261\005\000\020\262\005\000\020\263\005\000\020\264\005\000\020\265\005\000\020\266\005\000\020\267\005\000\020\270\005\000\020\271\005\000\020\272\005\000\020\273\005\000\020\274\005\000\020\275\005\000\020\276\005\000\020\277\005\000\020\300\005\000\020\301\005\000\020\302\005\000\020\303\005\000\020\304\005\000\020\305\005\000\020\306\005\000\020\307\005\000\020\310\005\000\020\311\005\000\020\312\005\000\020\313\005\000\020\314\005\000\020\315\005\000\020\316\005\000\020\317\005\000\020\320\005\000\020\321\005\000\020\322\005\000\020\323\005\000\020\324\005\000\020\325\005\000\020\326\005\000\020\327\005\000\020\330\005\000\020\331\005\000\020\332\005\000\020\333\005\000\020\334\005\000\020\335\005\000\020\336\005\000\020\337\005\000\020\340\005\000\020\341\005\000\020\342\005\000\020\343\005\000\020\344\005\000\020\345\005\000\020\346\005\000\020\347\005\000\020\350\005\000\020\351\005\000\020\352\005\000\020\353\005\000\020\354\005\000\020\355\005\000\020\356\005\000\020\357\005\000\020\360\005\000\020\361\005\000\020\362\005\000\020\363\005\000\020\364\005\000\020\365\005\000\020\366\005\000\020\367\005\000\020\370\005\000\020\371\005\000\020\372\005\000\020\373\005\000\020\374\005\000\020\375\005\000B\376\201\200(<\005/4\000\001\000\004\003l\005\020\004W\006Q\004\002\000\000\000Y\0056h\004\364h\006 \240\003\214\013\320\333\002\000\000\001\001\373\016\n\000\001\001\001\253\006\377\036\001/nethome/cahn45/CuPBoP/cuda-12.1/include/nv\000,\000\025\r)\000\361\002llvm-vortex-with-3\000\377\003build/lib/clang/18A\000\006\003j\000\366\bexamples/hotspot/.\000/usr7\000\000\r\000\000Q\000\366\013gcc/x86_64-linux-gnu/13/..\003\000\0035\000@/c++\033\000IbitsN\000\016A\000\006#\000\017d\000#\361\b\000\000target\000\001\303\313\213\271\006\325;vector\037\tQs.h\000\002\027\000A\226g__\021\001\020_&\001\020_&\001ptin_var$\000\203\003\262\310\331\271\006\234&\002\001\371\005_jisheng.cu\000\004\231\243\372\275\006\310L?\000\366\005math_forward_declareH\000\360\013\225Bstdlib.h\000\005\253\374\350\274\006\373\227\002std_ab$\000\200\006\312\257\264\245\006\212%D\000\000a\t\000\024\000\021\007'\0000\232gc\025\000!\000\b\"\0000\245\336\005\016\000\005E\000B\304\352\002cX\000\003!\000\365\002\2073__stddef_size_t\201\000%\304\005\201\000\002+\000-\201\022\277\000\005-\000)\362\177\034\000\031c\035\000`\275\220\001\000\000\t\375\002\003\f\003\367\016\003\346\000\001\002\310\000\004\003\003[\002\360\006\001\004\004\003'\002 \001\004\003\003Z\002\340\000\017\000\023K\017\000\0227\017\000\027J\017\000 \003\b\r\000\360\002\003\001\002\340\001\001\003\005\002\330\001\001\003\002\002\230\003\f\000 \310\001\030\000\021\330\006\000S\360\001\001\003\177$\000\022\320\022\000\020\000*\000\003\006\000\020\003\006\000\021\370\f\000`(\001\003\003\002\030\"\000\021\300(\000\021\350L\000@8\001\002\320\230\003 \263\001\244\003,\020\000\244\003\031\000\331\000\241\000\003\023\001\002\b\003\016\002\300\233\000\021\320\006\000\0200\005\000\032 \005\000\002 \0004 \001\360 \000/\340\000\006\000\001\021\003\250\000\020\0034\000?\003\002\340\013\000\013\021\002\013\000\001\006\0008\360\201\201\017\000\031\361\016\000\002\006\000\003\023\000\037\361\024\000\000\005\006\000+\030\001\021\000\003$\000H\030\001\200\202\024\0001\360\200\201;\001\020\200N\0000 \001\201=\001\000[\000\001\007\000\023\201\305\000\0070\000)\361\360?\000\002<\000\001\006\000\023\362\216\001\027\004\216\001`\350\000\001\360\003\003\021\000\242\001\002\030\001\203\003\002\002\210\001\f\000\001\005\0001\360\003\002h\001\004\323\001\021\340?\000\004\267\001\000\226\001\342.version 8.1\000.\347\003\201 sm_50, \254\f\221\000.address\002\003  6\314\005\003\035\016\344 .align 1 .b8 *\016O[1];\"\000\003\005C\016\001#\000\242\000.visible \375\016\037 \037\016\0051(\000. \016_ .u32&\000\006\002D\0166_0,.\000/64.\000\r/1,\\\000\031\0372.\000\032\0373.\000\032\2464\000)\000{\000.loc6\001\02186\0011\t__\026\000\260_depot0[104a\001\334reg .b64 \t%SP\020\000\024L\021\000\265pred \t%p<5>$\000\22616 \t%rs<6\023\000 32\023\0005<39\023\000\021f\023\000Jf<2>\\\0000rd<%\000\360\002\000$L__func_begin0:L\002Tmov.u\202\000*, \270\000b;\000cvta\341\000\005&\000\", \255\000\"ld+\001\".u\212\000O6, [1\001\r\036]7\000\03757\000\017\03737\000\000\03747\000\017\03127\000\003\n\001\03718\000\017\0371o\000\000\03737\000\017#0]/\001#toJ\003\005u\00002, {\000\003 \000\013\035\000\0213\035\000R2;\000stn\000p[%SP+0]\027\000\0223\026\000#64\026\000\0218\026\000+d3-\000!16\030\000\0334\027\000\0222E\000\0345\027\000\0214\027\000!6;\021\002Stmp0:\b\002\000#\000\325%r7, %ctaid.x#\000;1:\000E\000\002\213\000\0257\"\000\0322E\000\0258E\000\025y#\000\0343E\000!32E\000\0258\"\000\0324E\000Y9, %t\210\000\0355C\000\002\373\000\0259\"\000\0326C\000#10D\000\006\207\000\0347D\000\0224(\001@10;\000\371\001\004:\000\000+\002\002\213\001d;\000\000shls\003\0211\317\001\000\037\000!1;k\000\004\030\000@3, 8+\000Cub.s\023\00024, \031\000\0007\000\034;x\000\002\211\001*14x\000\0375x\000\00526, \037\000\0331f\000\0277f\000\0356f\000\002\252\001*17f\00048, \037\000\n\031\00049, \342\001\224;\000\000mul.loj\000\0202N\001\001<\000\000)\000\t8\000\0242/\001:24]\237\000\02120\001\002;\000,21\237\000\0225\004\002*22N\000\000q\003\003\037\000e;\000\000addN\000\001S\001\000 \000\0357K\000\002\f\002\0322P\001)25K\0005negK\000\001Q\001,25H\000\0226\020\002*26H\000\0247H\000*6]\031\000\004K\001,16\254\000\000\301\002\001 \000\021-\370\000cetp.le\036\000Bp1, V\000\000)\000\320;\000\000@%p1 bra \t\251\002\346BB0_2;\000bra.uni\024\00051;\000\013\000/: \001\000\n\330// %cond.true\262\000/31\313\000\004)32\313\000\007\305\001\0213^\002\0213\313\001831;\346\000\001\310\000\000 \000(6;z\003\0223&\002.;\000\304\000\0263\304\000\0372\304\000\025hfalse\000p\003!30\004\002\rs\000/30t\000\f\0373t\000\0258end_\000\002\375\000\0358/\002\002\307\003\0232\213\000\003\253\007\002\037\004\001*\000\0238)\000\"10Y\002*s1+\000O2, 0+\000\005\0252\267\004)8:\252\001\000\001\007\003\001\005\n\303\001\004\357\002560]t\002\023t\254\001\022p\303\000\001C\003\"35t\002\0322t\002\0376t\002\000\0264<\001\0374<\001\020\216land.lhsx\002\0376\265\000\005\004\\\003%64\265\000\025g\265\000\002{\002\001\255\003\0263q\006!9:\277\000\0373\277\000\017\0265\277\000\0375\277\000\020\211if.then\000\244\001\0213\317\001\004\016\007/0:\257\001\004\0373{\002\001\006j\007E11:\000\026\000\017\213\000\023\000\204\002\306\000bar.sync \t0L\000\"2:C\001\0218\241\000\004\020\002\000\213\000 ;\000\202\001\0005\n\001\033\00025, !\000\"1;[\001#eqR\n\021p\n\002\022sS\006\004X\000\000\247\007Z@!%p4Z\001\0378Z\001\000\003\216\001\001\013\000\017Z\001\027%16l\000\0224\304\000\003J\004\032d\325\002\001\374\006\003\302\n\001\304\000\000 \000\0222|\004\004>\t\0216\217\nC, 68\224\004\003\030\000\001W\005\001\036\0001rd5\320\t\003\036\013\001\373\0040rd7a\000\026lH\000\004\304\005\"8]\212\003\001.\000\000)\000!8+\337\003\037f\311\004\002\006\272\b&15\332\001\0378\332\001\026v18\000\000retF\000&6:\246\0130endh\002+}\000\001\000\232.section\t\345\032/{\000\001\000\377\377c\035}\217\002\001U\035/{\000\001\000\377\377\377\377\377\377\377\377\377\377\377\377\377\377\377\377\377\377\377\377\377\377\377\377\377\377\377\377\377\377\377\377\377\377\377\377\377\377\377\377\377\311\016\314)\177loc\t{\t}\333H\007\"J\000\001\000\000\0238\243\000\003\000\000\005\210\000\000\000\310H<\001\025\000\245\004\000\000\005\220\000\000\000\350\000*\000\000\007\000u\005\260\000\000\000\210\020)\000c\000\002\000\000\005\270\024\000\000\001\0001%r6Q\000d\330\000\000\000\260\003\024\000\0215P\000U\370\000\000\000p\024\000\0204\312Ft\005\030\001\000\000\360\002\024\000\260d1\000\007\000\000\005P\001\000\000\253=\024\001\025\000P\b\000\000\005X*\000#\001\000*\000\2663\000\n\000\000\005x\001\000\0000>\000\0202\005Gu\005\210\001\000\000\260\002>\000\0212S\000\000O\000\026\210*\000\0213*\000\032\260*\000\0213*\000\031\270*\000\0217\316\000d\310\003\000\0000\004\024\000\0218\024\000UH\004\000\000\260\024\000\0229(\000T\004\000\0000\005\024\000\"10)\000F\005\000\000\310\025\000\0211\f\001e\020\006\000\000\030\006\025\000\0212\025\000\000\021\000\026h\025\000\0213?\000e(\006\000\000\b\007\025\000\0214\272\000V0\006\000\000\250*\000\002`\001V\360\006\000\000\370\025\000\0216\025\000\000\021\000\0268?\000\002\320\000\000P\000\026x\025\000\002\321\000e\310\007\000\0000\b\025\000\0219?\000U(\b\000\000h\025\000\0222\322\000\000&\000\026\230\025\000\002\322\000V\220\b\000\000\320\025\000\0212*\000\000&\000%\020\t\025\000\0213*\000VX\t\000\000\230\025\000\0214*\000Vh\t\000\000\330\025\000\002\322\000e(\n\000\000p\n\025\000\002[\002V8\n\000\000\260\025\000\002\322\000e\370\n\000\000\210\013\025\000\0228i\000F\013\000\000h\025\000\002\322\000'h\013*\000 p1\007\000(\002p\024\0001r31S\000e\360\013\000\000X\f\025\000\002\243\001VP\f\000\000\210\025\000\002\243\001\000&\000\025h\025\000\002>\000\032h)\000\002c\001\032p\025\000\002N\001\\\220\f\000\000\260*\000d\230\f\000\0000\r\025\000\002M\001\031\310\024\000 s1\n\002\020\004\021\000\026p\025\000\001\003\003\020\004\021\000\025\350\025\000\0223b\001ex\016\000\000\370\016\025\000\002b\001\030\330\025\000 p2\007\000*\002\350)\000\002v\001eh\017\000\000\330\017\025\000\0217>\000\030\310\025\000 p3\007\000e\002\320\017\000\000\350)\000\021sj\003{\004\370\017\000\000\020\020\025\000[\b\020\000\000HL\004a\230\020\000\000\320\022(\000\005t\004\000\024\000%\260\022=\000\0214{\000e0\021\000\0008\021\025\000\002\316\000\000\021\000\024P\025\000\021p\fEe\002X\021\000\000p)\000\022d>\000e\b\022\000\000(\022\372\003\002!\001V\020\022\000\0008\025\000\0205\245\000c\005\030\022\000\000x\244K\001\025\000\000?\000\000;\000\025p\222\000!d6\313\004V0\022\000\000H?\000\003\255\002F\022\000\000P*\000\0217*\000\000&\000\026x*\000\002\302\002\000&\000\024\250*\000\022fT\003\023\230}\000\003)\000\002\033\002V\370\022\000\000\020\222\00038\000\002\025\000\030\b\025\000\0009\001\000\021\000\030(?\000\000*\000\000;\000?H\023\000\035\006\013\243\003\003\003\003\002\002\002\003\003\002\n\000\017\001\000\001#\020\002\001\000!\001\001\r\000\223\020\001\001\003\003\001\001\020\003\001\000\020\016\005\000\360\001\001\021\001%\b\023\005\003\b\020\006\033\b\021\001\022\300B\366\0229\001\003\b\000\000\003\004\001\003\b\013\013:\013;\013\000\000\004(\000\003\b\034\017\000\000\005\023\0016\013\030\000p\006\r\000\003\bI\023\r\000\000\370\003P\007.\001\003\b\r\000\360\001<\f?\f\000\000\b\005\000I\0234\f\000\000\t\t\000r\000\000\n\026\000I\023!\000\202\000\000\013.\001\207@\b\016\000\"I\0231\0000\f\b\000\017\000\361\002\030\023\000\000\r$\000\003\b>\013\013\013\000\000\016\017>\000\027\017{\000E\005\000\000\020{\000\001s\004\023\021{\000\022\005J\000\026\022^\000\024\005^\000\025\023\177\000Q\005\000\000\024&U\000=\025.\000\206\000\030\026\306\000W2\013\000\000\027\253\000\004\024\000\035\030\277\000\000\026\000!\031\020V\000\300\032.\000G\023 \013\000\000\033.\001U\001%@\n,\000\000a\000t\034\005\0003\013\002\n=\000K\000\000\0354\021\000P\036\035\0001\023:\000\221X\013Y\013W\013\000\000\037\032\001\020\005\032\001\033 z\000Z\000\000!.\001\352\0008\".\001\232\000P\000\000#\023\000)\000\020$C\001\004\274\0016%.\0002\001`\207\001\f\000\000&\035O\020'\035\004\200(&\000\000\000)\025\001\214\000;*.\001(\000:+.\000p\000\026,\223\000\022\005\223\000!-\001<\000\240.!\000I\0237\013\000\000/\317\0010\013\013>\306\005B%8\000\000\302\007!\b\001\rF\024 {C\362\f18.1.7 (https://github.com/|H`gpgpu/\215H\377\".git b115a172abc24683b2730b5b601f34e27fe19d93)\000\032\000oG\000\000\001\000\017\250H\024\034\000\252IS\002nv\000\002\rH\361\000\002detail\000\003sm_sel\023H\301\000\b\001X\004sm_35\000#\b\000A7\000%\004OD!\0002\b\00012\0004\b\00003\0005\b\000A60\000<\b\00011\000=\b\00002\000>\b\000A70\000F\b\00012\000H\b\00005\000K\b\000A80\000P\b\00016\000V\b\00017\000W\b\00009\000Y\b\000r90\000Z\000\005\005\242\000\200_descrip\206\nR\000\b\001Q\006\027\0000s\000\271\307\t_R\002#\000\007)\000\000`\001T\001\001\b\227\201\t\020\t(\000P\000\000\n\201\00269\362\004se_int_t\000\0012\013_ZN2nv6>\000\0226\b\001\367\00410is_exactlyENS1_11\031\001&E\000\036\000@\000\001\216j\202\0000\001\t\331`\000\017N\000\002\2378providesK\000\001\004\034\0008\000\001\223I\000@\000\f\001\253\020\000A\f\001\254\331\016\000!\312\313\016\000!\313\031x\002\341\runsigned long\005\000@\000\007\b\0162\000\360\000\017\005dim3\000\f\002\242\001\020x\000;sKv\244\001\002#\000\020y\r\0006\004\020z\r\000!\b\0211\000\200\002\247\001\001\001\bK\003-\001\000\034\000\006\005\000\023\000!\000\026\250!\000\020P\027\000`\022_ZNK4\034\000\361\005cv5uint3Ev\000operator \021\000@\000\002\251\001,\000@\001\001\b\216\007\000\b\272\000\363\001int\000\007\004\016\234\002\000\000\023^\003\000\0001\000B\200\001\005\005\013\000C\f\002\300\006\302\000e\302\002#\000\006y\f\0005\004\006z\f\000\200\b\000\016\223\003\000\000\024H\000:\005\004_\261J\004\311F\000\353\0010\003A\025\236\001\0375#\000\006\22517__fetch\034\000MxEv\000\024\000A\000\003B;\323\000\017O\000\036\037yO\000\000Oy\000\003CO\000$\037zO\000\000Bz\000\003DO\000\000\213\002\037KP\000\b!cv\273\001\b\263\001\000\020\0000\000\003GJ\001P\001\001\b\n\006\261\001\017G\000\017\017\373\001\005G\003H^\003I\000\037\026C\000\006\217\000\003K\001\001\003\b\024'\000\030 \t\031\207\f\037\027\234\000\fuaSERKS_\231\000\023=C\000\026\nC\000\037\030C\000\r\027d\331\000P&\000\003K\036<\000\004D\000\000\332\007\220\006\000\000\024\230\003\000\000\016\005\0003\031\017\006\n\000\r\213\002\0052I\001\214\002\0214\356\001\0376$\000\007\017\215\002\026\0275>\002\017P\000\003\017\216\002\033\0376P\000%\017\217\002\004\0307\217\002\017Q\000\003\017\220\002\013\023:\220\002&\237\b\220\002\017H\000\003\017\221\002\r7;^\003J\000\037\026D\000\0070\000\003>\344\001\037\251(\000\0315\t\256\b\223\002\017\237\000\b\017\224\002\000\001D\000\026\237D\000\037\030D\000\016\013\225\002 >\263=\000\004E\000\220\000\000\016\244\b\000\000\024#\213\002\000\005\0003\031\244\b\n\000 \032\267\001\0010\032\006\004\006\000\020C\302\002 \032\223\006\000+\033\000\034\b/\001\234\276\013\006\n\025\000\261\000\004\\\001\034\006\t\221\230\177\226\001\000 it\226\000\000|\007\225\004\\w\024\000\000\034\006\013\034\000 #\b2\000\233_dst\000\004_\234\033\035\000\335\020grid_cols\000\004`;\000\021\024\036\000}rows\000\004a\036\000s\030border>\000\020b \000\030\035 \000m\034bx\000\004i\027\000m by\000\004j\027\000m$tx\000\004l\027\000m(ty\000\004m\027\000b,small3\004\003\241\000\035u%\000\0300%\000\002\246\000\035v%\000\2154blkX\000\004{\031\000\0208\031\000mmax\000\004}\034\000\335<validXmin\000\004\202\036\000\023@\036\000\000<\000\035\203\036\000\021D\220\001\000\356\000;\207\0058\034\000\361\tdcomputed\000\004\2109\030\000\000\036\270\b\000\000\270\003\000\001\000\023\330\b\000\223\004i\f\036\276\b\000\0008\247\022\023X\b\000P\004j\f\036\3040\000\003\020\000\024\330\030\000@l\f\036\3120\000\003\256\022\023X\b\000@\004m\f\000\364Q\301\000\f\005\310\\\024\000\000\f\005\311~\007\000!\312\244\007\000!\313\303\007\000!\314\340\007\000!\315\377\007\0000\316\034\025\007\000!\317A\007\000!\320`\007\000!\321}\007\000!\322\232\007\000!\323\305\007\000!\324\340\007\000!\325\375\007\0000\326\030\026\007\000!\3275\007\000!\330P\007\000!\331m\007\000!\332\214\007\000!\333\251\007\000!\334\314\007\000!\335\353\007\0000\336\022\027\007\000!\3375\007\000!\340X\007\000!\341{\007\000!\342\245\007\000!\343\320\007\000!\344\365\007\0000\345\024\030\007\000!\346A\007\000!\347n\007\000!\350\246\007\000!\351\305\007\000!\352\354\007\0000\353\036\031\007\000!\354T\007\000!\355s\007\000!\356\230\007\000!\357\312\007\000!\360\357\007\0000\361\024\032\007\000!\3625\007\000!\363a\007\000!\364\202\007\000!\365\235\007\000!\366\274\007\000!\367\333\007\000!\370\370\007\0000\371\025\033\007\000!\3724\007\000!\373U\007\000!\374x\007\000!\375\241\007\000!\376\332\007\000\260\377\371\033\000\000\037\005\000\001 \034\b\0001\001\001M\b\0001\002\001n\b\0001\003\001\233\b\0001\004\001\311\b\0001\005\001\346\b\000@\006\001\005\035\b\0001\007\001.\b\0001\b\001U\b\0001\t\001x\b\0001\n\001\223\b\0001\013\001\260\b\0001\f\001\315\b\0001\r\001\350\b\000@\016\001\005\036\b\000\240\017\001&\036\000\000\f\0074E\007\0001\tUY\007\000!hm\007\000!{\201\007\000!\216\225\007\000!\232\257\007\000!\255\303\007\000!\300\326\007\000!\323\352\007\000!\346\375\007\000\241\371\021\037\000\000\037\t\f\001&\b\0001\030\001?\b\0001+\001Y\b\0001>\001s\b\0001Q\001\206\b\0001d\001\233\b\0001p\001\271\b\0001\214\001\321\b\0001\237\001\344\b\0001\262\001\370\b\000@\305\001\f \b\0001\330\001\037\b\0001Y\0073\b\0001Z\007C\b\0001]\007R\b\0001^\007g\b\0001_\007}\b\0001a\007\242\b\0001b\007\267\b\0001c\007\315\b\0001e\007\343\b\0001f\007\370\b\000@g\007\016!\b\0001i\007$\b\0001j\0078\b\0001k\007M\b\0001m\007b\b\0001n\007\177\b\0001o\007\235\b\0001q\007\273\b\0001r\007\316\b\0001s\007\342\b\0001u\007\366\b\000@v\007\n\"\b\0001w\007\037\b\0001y\0074\b\0001z\007H\b\0001{\007]\b\0001}\007r\b\0001~\007\207\b\0001\177\007\235\b\0001\201\007\263\b\0001\202\007\315\b\0001\203\007\350\b\000@\205\007\003#\b\0001\206\007!\b\0001\207\007@\b\0001\211\007_\b\0001\212\007y\b\0001\213\007\224\b\0001\215\007\257\b\0001\216\007\311\b\0001\217\007\344\b\0001\221\007\377\b\000@\222\007\031$\b\0001\223\0074\b\0001\225\007O\b\0001\226\007e\b\0001\227\007|\b\0001\231\007\223\b\0001\232\007\251\b\0001\233\007\300\b\0001\236\007\327\b\0001\237\007\356\b\000@\240\007\006%\b\0001\242\007\036\b\0001\243\0076\b\0001\244\007O\b\0001\247\007h\b\0001\250\007}\b\0001\251\007\223\b\0001\253\007\251\b\0001\254\007\275\b\0001\255\007\322\b\0001\257\007\347\b\0001\260\007\373\b\000@\261\007\020&\b\0001\263\007%\b\0001\264\007;\b\0001\265\007R\b\0001\267\007i\b\0001\270\007\200\b\0001\271\007\230\b\0001\273\007\260\b\0001\274\007\303\b\0001\275\007\327\b\0001\277\007\353\b\000@\300\007\005'\b\0001\301\007 \b\0001\303\007;\b\0001\304\007Z\b\0001\305\007z\b\0001\307\007\232\b\0001\310\007\272\b\0001\311\007\333\b\0001\313\007\374\b\000@\314\007\033(\b\0001\315\007;\b\0001\317\007[\b\0001\320\007|\b\0001\321\007\236\b\0001\323\007\300\b\0001\324\007\325\b\0001\325\007\353\b\000@\327\007\001)\b\0001\330\007\027\b\0001\331\007.\b\0001\333\007E\b\0001\334\007b\b\0001\335\007\200\b\0001\337\007\236\b\0001\340\007\272\b\0001\341\007\327\b\0001\343\007\364\b\000@\344\007\n*\b\0001\345\007!\b\0001\347\0078\b\0001\350\007N\b\000\241\351\007e*\000\000\f\013\203|\007\000!\204\213\007\000!\206\274\007\000!\212\311\007\000!\215\346\007\0000\220\004+\007\000!\221\030\007\000!\222,\007\000!\223@\007\000!\224\275\007\000!\225\331\007\000!\226\362\007\0000\227\004,\007\000!\230\025\007\000!\2311\007\000!\232F\007\000!\233`\007\000!\235w\007\000!\236\222\007\000!\237\305\007\000!\241\346\007\0000\244\007-\007\000!\247\037\007\000!\250.\007\000!\251K\007\000!\252]\007\000!\253}\007\000!\254\235\007\000!\255\276\007\000!\257\325\007\0000\260\002.\007\000!\364\226\007\000!\366\310\007\000!\370\333\007\000!\371h\007\000!\372\361\007\0000\374\f/\007\000!\375d\007\000!\376!\007\000\261\377B/\000\000\037\013\000\001\177/m\020\360\001St3abse\000abs\000\007O\223 \007\n\020\t\007\000p\000\037\017\273\001\2020\b\0001\274\001\241\b\0001\275\001\302\b\0001\276\001\341\b\000@\277\001\0021\b\0001\300\001)\b\0001\301\001H\b\0001\302\001i\b\0001\303\001\210\b\0001\304\001\247\b\0001\305\001\324\b\0001\306\001\361\b\000@\307\001\0202\b\0001\310\001/\b\0001\311\001L\b\0001\312\001k\b\0001\313\001\210\b\0001\314\001\251\b\0001\315\001\310\b\0001\316\001\355\b\000@\317\001\0163\b\0001\320\0017\b\0001\321\001\\\b\0001\322\001\201\b\0001\323\001\246\b\0001\324\001\316\b\0001\325\001\365\b\000@\326\001\0264\b\0001\327\001=\b\0001\330\001`\b\0001\331\001\203\b\0001\332\001\250\b\0001\333\001\311\b\0001\334\001\352\b\000@\335\001\t5\b\0001\336\001(\b\0001\337\001E\b\0001\340\001f\b\0001\341\001\211\b\0001\342\001\257\b\0001\343\001\331\b\000@\344\001\t6\b\0001\345\001,\b\0001\346\001\\\b\0001\347\001\214\b\0001\350\001\254\b\0001\351\001\315\b\0001\352\001\371\b\000@\353\001#7\b\0001\354\001A\b\0001\355\001a\b\0001\356\001\201\b\0001\357\001\237\b\0001\360\001\277\b\000@\361\001\3437\235h0_ZL\325\001\021i\325\001 \005\036\266\t \001\t\006\000 \000\r3\021 \005\004\"\000p4acosf\000\006\000A\000\005 \233$\000\021\233$\000qfloat\000\004&\000\0205 \000\022h'\000Gh\000\005\"(\000\002E\000Psinf\000\006\000;\000\005$\035\000\0205\027\000\022h\036\000Mh\000\005&<\000 ta<\000mtan\000\005*<\000Rtan2f\037\000F2\000\005( \000\013%\000\022h$\000Kh\000\005,D\000p4cbrtf\000\006\000=\000\005.\035\000Peilf\000\006\000;\000\0050\035\000P8copye\0224ff\000\013\000?\000\0052\204\000\001\0213F\001\001E\001\0354c\000\001;\001\002:\001\0336\035\000\3133erff\000erf\000\005:\033\000Q4erfc\034\000Mc\000\00588\000\255xpf\000exp\000\005>8\0001xp2\034\000K2\000\005<\035\000a5expm1\036\000[m1\000\005@\037\000\2014fabsf\000f2\002\035B\035\000`dimff\000\007\000?\000\005D\213\001\002qfloorf\000\007\000;\000\005FB\000P3fmafB\000[ma\000\005HA\000\bi\0002max'\000Kx\000\005J(\000\004#\000!in#\000\000s\002\037L#\000\004!od#\000_od\000\005N#\000\001\34610fpclassifyf\000\f\0002\000\005P.\003\007\331\000\020rr\0011Pi\000\t\0007\000\005RP\000\203\313\027\000\000\000\016w\024+\000\201hypotff\000\b\000?\000\005Tz\000\001\2015ilogbf\000\007\000;\000\005Vo\000\2648isfinitef\000\n\000U\000\005[9\030%\000\200\rbool\000\002\001-\000\2019isgreatK\002\005\f\000_\000\005_9\030\363\000\000\0254\"\000Xequal3\000\001\021\000?\000\005^8\000\00115isq\001\001\007\0006\000\005d$\000\001\037\000q6isless!\000\000\t\000?\000\005hF\000\001\"11\037\000\006{\000\005\016\000?\000\005g2\000\002\0223$\000\b\342\000\007\020\000?\000\005j\256\000\004\020nV\004\001\007\0006\000\005o$\000\004_\001\204normalf\000\n\000;\000\005q%\000\000\254\000!un\020\020\020eH\002\007\016\000?\000\005sv\000\001\2014labsl\000l>\0030t\347\031\"\000\000\006\000!\000\rX\027 \005\b%\00005ldJ\002!i\000\b\000U\000\005v\233\024J\000\024wJ\000\2226lgammaf\000\b\0006\000\005x&\000\022\000F\000\000f\0002x\000lm\0000yT\032\037\000$T\032m\000\027 r\000\2226llrintf\000\b\000Y\000\005{T\032M\000\3533logf\000log\000\005\205\233\024h\000Aog10\035\000_10\000\005}\037\000\001\022p\037\000Kp\000\005\177\037\000Q4log2\036\000O2\000\005\201\035\000\0002bf\000\001\003\035\203Y\000\003\263\000\002\262\0009\207\347\031\037\000\2226lroundf\000\b\000;\000\005\211!\000%7l\"\000\004#\000\033\212\366\000\0214\037\0040Pf\000\b\000T\000\005\214\233\024\037\000\020\tT\022B\000\016\233\024)\000\2013nanPKc\000K\0020\215\276\033'\000\020\310\"\000\361\f\rdouble\000\004\b\016\315\033\000\000\024\322\033\000\000\rchar\000\006\231\003\0204\204\002\003:\000ef\000\005\216\233\024;\000\000\037\000q9nearby\350\000\005\013\000Y\000\005\220\233\024\250\000r9nextaf\375\002\005\f\000^\000\005\222\233\024\203\002\3373powfi\000pow\000\005\226Z\002\001\2019remaindN\000\005\f\000?\000\005\230N\000\001\2006remquof\370\004\002\013\000;\000\005\232)\000\002\376\004\001\357\000\002\263\001\002\262\001\026\234'\000\001\035\000\0235\217\001\003\215\001\033\236\037\000\2637scalblnfl\000\n\0006\000\005\240$\000\002G\003\001\223\000\001\037\0002nfi(\000On\000\005\242\347\000\001\0207\254\007Sbitf\000\t\000;\000\005\247\340\003\0213\312\004\001\263\b9\251\233\024\033\000\0224\262\b\002\261\b\035\253\035\000\020qP\b\000\006\000;\000\005\255\035\000\0213\315\b\001\314\b\033\257\033\000\0224\246\b\002\245\b\033\261\035\000#6t\361\003\023t\361\003\033\263!\000\2015truncf\000\007\0007\000\005\265\037\000\020!\003\0040\006H\003\375\000\023\001\342\t\020\"\252\t1\000\b5\256\002A\001\t\276\033\024\000\000\355\000*\b7\024\000\000\254\000-\b9\024\000G2\000\b;\025\000\003\032\000\001(\t)\b\237.\000\001i\000\034>\023\000Ih\000\bG\024\000\000\355\004)\b_\023\000\001g\b*\b\242\024\000\001:\b*\b\245\025\000\000\303\007.\b\250\220\000\002\215\007(\bb\032\000\001\220\002\022\"^\005(\be\032\000\002\032\001\000\350\004'\bh\030\000\"\000\"\336\004)\bk\025\000\001\027\004'\bn\024\0000\t\264\037\030\004\000\013\000\020\"b\003.\b\214\222\000\001c\001\031@I\000\001G\002*\bI\024\000\000>\002)\b\217\024\000\001\212\001\034B\023\000Hh\000\bK\024\000\020\n\006\000\002y\004`_t\000\n\226\n\004\002\001\254\013\000\017\0002\225\"a}\001\031UH\000\003\277\013 \bU-\000\023\0018\002\002\026\000Hl\000\bU\360\r\002?\006\005\332\004\"\"a\277\000\035WJ\002\000P\000\032WP\000\000\026\000Hl\000\bWP\000\"\"a\305\000\035Yc\002\000A\000\032YA\000!taA\000\031YA\000\001\272\013)\b\230@\000\002\324\013\022\b\266\004\004?\000\000\025\000Jl\000\b\230>\000\004\271\013.\b\304\256\001\004\035\000Gf\000\b\304K\000\002\002\005\005\036\000Gl\000\b\304T\000\003Y\000\000\265\013G\b\344\276\033\226\000\001U\005G\b\344\233\024\225\000\227erfl\000\b\344\223 \224\000\001\324\013,\b\345<\000\\cf\000\b\345=\000Zcl\000\b\345>\000\000\332\013,\b\202^\003Z2f\000\b\202>\000|xp2l\000\b\202>\000\\m1\000\bw?\000\000\026\f,\bw@\000hm1l\000\bwA\000\021!\377\013=\bF\001N\001\001\032\000\020f\033\000\rK\001\001\033\000\020l\033\000\rH\001\020!\r\f-\bOO\000\001\005\000\001\036\000\020f\037\000*\233\024S\000\001\005\000\001\037\000\020l\037\000*\223 W\000\006\\\000Ox\000\bI\254\000\001\000c\f\000\033\000-\233\024\254\000@maxl\033\000.\223 \254\000\000\337\003\037LP\000\002\000N\006/\bLP\000\002\020iC\002\036LP\000\022\"#\fK\b\223\276\033P\000\002\032\000kf\000\b\223\233\024P\000\002\033\000ll\000\b\223\223 \240\000\002O\fU\b\030\001w\024Q\000\003\026\000\027f\027\000%\233\024\027\000\027l\027\000\001D\000\023\"s\nH\b\346\276\033#\005\003\240\0067\b\346\233D\000\003\027\000fl\000\b\346\223 D\000\023!j\n1\b<\001u\t\004\211\000\002\027\000\027f\030\000&\233\024\030\000\027l\030\000\005G\000\001/\b-\bBH\000\002N\b-\bBI\000\000\031\000\027l\031\000\001J\000\022\"\241\nF\bz\276\033G\000\023\"\275\nF\bz\233\024D\000\002\026\000jl\000\bz\223 A\000L2\000\b\205@\000\000u\003\0024\013\007?\000\000u\003\034\205>\000Lb\000\b}>\000\000\225\001\002S\013\007>\000\000\223\001\030}>\000\023!M\001!:\001\345\n\003@\000\024!L\001\005\027\000%\233\024\027\000\027l\027\000\004D\000\002J\001\034@E\000\003I\001\034@F\000\003H\001\031@G\000\020\"\004\013 \b\311<\000\023\001\312\n\021\"\335\nJ\b\311\233\024\024\000fl\000\b\311\223 \024\000\026!\343\n(\b&A\003\007\032\000\020f\033\000'\233\024\210\000\005\033\000\020l\033\000'\223 \322\000\006\013\013/\b\003\221\003\000\005\037\000\020f \000\016\226\003\005 \000\020l \000\016K\003\000 \000 tojn9\000\b\005`\000\f \000\020f!\000&\233\024a\000\f!\000\020l!\000,\223 b\000\006~\013/\b\020\301\000\000\005\037\000\020f \000\016\301\000\005 \000\020l \000/\223 _\000\000\000\261\013-\b3\\\000\002#\t\003!\000\020f\"\000*\233\024^\000\t\"\000\020l\"\000*\223 `\000\004\"\000\001\320\001\030\000c\000#\000!\231\002\030\000W\000#\000!\230\002\030\000K\000#\000!\227\002\033*B\000\003\226\002\033*C\000\003\225\002\032*D\000\0042\f(\b\"F\000\0024\f\004\035\000\020f\036\000\007M\000\n\036\000\020l\036\000\007T\000\b\036\000]n\000\b\024\001G\n\003\034\000\020f\035\000\bW\000\b\035\000\020l\035\000\bV\000\001\035\000\023\"\343\013'\b\353U\000\004\026\000Gf\000\b\353O\000\004\027\000Gl\000\b\353I\000\"\000!\007\f(\b.\231\000\003\026\000\020f\027\000\bD\000\002\027\000\020l\027\000\bD\000\360\003\n\211*\000\000div_t\000\006>#\001\n\231*\261`\002\020\000\300F$\005\020\006B\006quot\000\013\001 \006D8'2rem\016\000\020E.'\362\n%abort\000\006O\002\001\001\001!atexit\000\006S\002w{\000 \340*,\013\362\000\345*\000\000&!at_quick_$\000\031X$\000t\"atof\000\006\252\013#\310\033\024\000ji\000\006hw\024\024\000fl\000\006k\347\031\024\000\341!bsearch\000\0064\003l+\030\000Bm+\000\000\005\000\025s\005\000 \222+\316+\262\016r+\000\000(\n\201+\000\000\271qI\000\f\022\r\000)\240\000\007\b\023\250+\000\000__\265 Par_fn\016\001\200(\003\016\255+\000\000)\216\000\006`\000 \000!Grcoc\000\006\036\002|\000\005r\000\265\000!div\000\006T\003|*\224\r\002\376\001\022*\003\0014i\002\001\253\r\321\021free\000\0065\002\001\001\tl<\000\306getenv\000\006z\002,,\354\000\020\016_\020\021!\360\0213\006I\003\006\001\000\007\0001\000!ln\000EV\003\213*\025\000\003\032\000\023m\243\000\030\033\243\000\244\000!mblen\000\006\2324\016\000a\000\005\033\000\262stowcs\000\006\245\003s4\000G\265,\000\000#\000p\016\272,\000\000\rw\351\020\020_G\0300!mb2\0004\000\006\235O\000\0131\0001\021qs*\002#>\003\343\000*\ts\233\001\030*\036\002\026o\033\001\203+rand\000\006\305\241\b3!re\317\000\024&\317\000\005N\0002\000\021s-\0002\307\001\001x* \000\"e\177Wod\000\006u[\0020\tx-\303\000$,, \000jl\000\006\260\347\031 \000\002~\000\002@\000\177ul\000\006\264\201+!\000\001\250!system\000\006\020H\001\200\000!wcstom\250\001\024\250C\001\000p\0004\t\370-\255\000\201\016\375-\000\000\024\272,-\000\000,\0004\000\006\241D\000\001+\000\000\033\000\362\000\000\002__gnu_cxx\000\f\013\314\352\033\022\322\352\033\022\326\352\033\022\334\343\033\022\347\343\033\022\350\334\033!\351B\007\000\022\353\361\033\023\354\342\033%N9N\000p3divExx\375\0030\000\013\331X\000\022\001<\024\002A\024t\000\n\245.\000\000l\f\004\020P\f\004\022L\f\004\000 \000$\006N\f\004\001\016\000\020O\f\0041*_E\274\001\026u\274\001\022!\233\024U\006L\003T\032a\000\000\026\000\001\254\002-Z\003w\000\001\340\003fl\000\006pT\032L\001\003\244\001ol\000\006\310T\032\245\001\tol\000\006\315\201\002\"\000\007jf\000\006{\233\024 \000\003\033\000{ld\000\006~\223 \034\0001\f\r&'\036!\r''\036!\r(\366\035!\r+.\036!\r.\276\035!\r1\216\001!\r6_\036!\r7_\036@\r9\206\022\007\000\021:Q\036!\r;Q\036!\r<Q\036!\r=Q\036!\r>Q\036!\r?\251\035!\r@J\036!\rAJ\036!\rBJ\036!\rCJ\036!\rDJ\036!\rFJ\036!\rGJ\036!\rHJ\036!\rJJ\036!\rKC\036!\rLC\036!\rMC\036!\rNC\036!\rOC\036!\rPC\036!\rQC\036!\rSC\036 \rTC\036\005\336\033\022f\336\033Kf\000\016;{\022\0226>\020\003\376\033Kf\000\016=!\000\"5a\034\030\001\007\000=\000\016?@\000\001.\020\003\002\034Mf\000\016A!\000\002\346\033\003\347\033Of\000\016D\350\033\006\003%\000Of\000\016EF\000\001\023h \000\000g\000\033G!\000\02155\020\002\n\034Mf\000\016I\037\000\000\013\034\002\f\034Kf\000\016K\037\000\0259,\020\007\016\034Of\000\016O\253\000\001\0224Q\001\002P\001\035Si\000\002O\001\003N\001\034W\037\000\001\n\020\002\371\033Of\000\016`\027\034\000\002\036\000Of\000\016e\337\033\000\"2f\375\033Of\000\016l\033\034\000\002\036\000Kf\000\016m\035\000\0226\005\020\"f\000\b\000L\000\016o\233\004\033\000\035\034\002\036\034Mf\000\016p\037\000\001\037\034\002 \034Of\000\016r\031\001\001\0216\340\023\023f\"\034Kf\000\016|F\000\0224#\034!f\000\371\017+\016\200E\000\bo\000\001%\034\001)\000[xf\000\016\204*\000\004%\000\"in%\000\001\233\002\037\206%\000\004\"od%\000\000\363\023/\016\210\271\000\003\021r=\001\004\002\034Gf\000\016\212(\000$\313\027(\000\002\271\017\004\377\033Of\000\016\214O\000\002\002\224\017\003\001\034Uf\000\016\216w&\000\003\342\030\021dp\000\003(\032Gf\000\016\233H\000\026w\350\030\0027\n\004*\032mf\000\016\235\233\024\013\031\000\221\013\004\000\032if\000\016\246T\032#\000\0248Q\017\005/\031Kf\000\016\250%\000\0226\013\032\"f\000\b\000,\000\016\374\026\0226P\017#f\000X\017/\016\257.\032\000\0222 \000\000\236\002\037\261\037\000\000\000\023\001\003\022\001\037\2650\032\000\002\036\000Mf\000\016\266|\000\004\344\000\003\343\000;\273\347\031\006\001\005\342\000\004\341\000\033\275#\000\0225\007\002\003\022\032jf\000\016\307\233\024\023\032\0024\036\006\257\016\007\270\0312f\000\016\003\017\006P\000\000*\000\004\204\016\b\273\031Of\000\016\315\024\002\001\0204\274\031 ff\275\031Of\000\016\347#\000\001&10\026\016\b\300\031Of\000\016\3570\000\001\0237\344\r\007\302\031Kf\000\016\365+\000\002\276\002\020,\003\001\003F\001\003E\001&\000\001*\000\003\021\032\003E\001\004D\001\027\252!\000\000A\000\0248o\r\006\311\031Gf\000\016\036H\000\002\231\n\000,\000\0237C\r\005\314\031\\f\000\016\026\001\346\002\023,\220\0312ff\000_\006\0272#\000\001\036\000\0235_\006\003^\006\0366 \000\000\261\031\002\262\031Lf\000\016: \000\0224W\006\002V\006\035<>\000\003V\006\003U\006\034> \000$7t\202\003\024t\202\003\034@$\000\0226\231\r\003\276\031Hf\000\016B\"\000\020-\006\000\362\f.\0218\000\000\b\000/__ARRAY_SIZE_TYPE__U?@\004/\b\000\2208\000\200=\"\004\021\f\000\020h\f\000\027\022\f\000!7\004\240\214\260\0010\000\000\001*\000\000\004\n\b\307;\303\000@\001\034\000\003\031\034\000\004\027\fw}U\030\000\000\360\021\020\000\001<\210\007\020\000\001\270}\007\020\000\020\001\330@%\360!\020\000\001\001\000\241\360\021\000\003\033\377\000\004\035\b\317-\000\273-\365\000\004\034\b\000\260\023\000\000\350\023\000\000\0044pB>\00037\027\300=>\004\020\000\033\270\020\000&\370\016\020\000&\230\020\236=\004\020\000*\210\020\020\000\033\220\020\000f\004\036\004\0000\000\240\207\000\b\000\023\376\b\000\023\375\b\000s\374\377\377\377\350\002\000\350\000\021\000<\001*\035\000\020\000*H\013\020\000\004_.\033@\030\000\004\177.\0330\030\000\004\247.\033(\030\000\004\307.\033\030\030\000\004\357.\033\020\030\000\004\017/\033\000\030\000\0047/*\370\n\030\000\004W/9\331\b\000\030\000\004\2161\034\321\030\000\003\001\000/\275\0000\000\003/\265\0000\000\003.\\\005\030\000\017\001\000\377b\361\021\357\037\340\375\003<d\000\001\000\207\000\200\007\230L\001\001\207\371\377\377\017\034\000\000w\003\000\000\310\360 \000\340\274\177\000\007\001\007\000\200\003l[\017\000\200\306\002!\342\300\230\201`\240\343\357\037\340! \0000\000\001\367\367@0\\\000\nj\004P\340\\\002\000\007P\000\024\\@\000@\003\000\367\017\020\0001\000\000'\030\000;\004\0007 \000\023\007\030\000\"G\000(\000\020\027\b\000\024L \000\024\002@\000\241\003\007\000\000\002G\\\002\004'\b\000\004\200\0000\003\360\207\303\003\246\001\003\003\007\024\000\000\224\357\003`\000\001 \0001\004\360G \000\"\004\004 \000\004h\000\004 \0001\005\360\007 \000\"\005\005 \0009\005\000W \0000\006\360\207/\0010\001\006\006 \000Y\225\357\b\000g\300\0001\006\000w\020\000\022\007H\001\027\\ \000\002@\000\003\300\000\002@\000?\224\357\n@\000\f\033\006 \0009\007\000w\030\000\004\020\000\004 \000\371\004\t\000\367\017\000\200\020\\\013\002\367\017\000\b\020\\\t\000\227 \0001\013\000\267\020\000 \b\t(\000\242\327[\t\t\367\017\300\005\330[ \0003g\000\bx\000\0048\000\021\n2\006&\220\240`\000\000\000\001?\020\034\n`\000\004=\n\000\247`\000\037@`\000\b\021\006`\000&\260\240\340\000\000\200\0013\020\034\b`\000\f\340\000\004@\000\"\006\007`\000f\007\007\367\017@\004`\000\f\030\001*\005\006\300\0001\007\000G`\000\037\005`\000\004\004\360\001\b`\000/\300\002`\000\007\033\004`\0001\005\000\207`\000\023\006`\000\007@\002\003\340\001\002@\000\"\004\005`\000f\005\005\367\017@\003`\000\004\220\002\0048\000'\003\004`\000C<d\000\000 \003\023\002@\003H\003\000W\002\240\003\004\360\002\004\b\0001\005\000\307\220\000\004 \000\f\230\000\f`\002\f\230\000\007 \003\020=\200\000\f\230\000?\003\000g\200\000\f/\007\002\200\000K\037\027\200\000\f\037G\200\000L\037'\200\000\f\037\207\200\0007-\274\177\200\000\023\005\360\003\004@\000\033\003`\000\004\210\000\017`\000\001)\300\001`\000\030!`\000\022\004`\0000\200\004\004\321\013%H8`\000\004\000\005 \003G*\025\000`\002\t\340\000\033\007\200\000\f`\003\t\200\000\017\340\000\b\036\006\340\000\017@\001-\017\340\000\023\005\330\000(\007\003\310\003\004 \000\fx\000\004p\000\005 \000\013x\000\0040\000\"\357\031 \000\006\270\001\002`\000\037\003`\000\004\004\270\001\017`\000\001.\300\001`\000\032\017`\000\024\200\370\003\017\300\0005\"\017\031@\001\0048\001\001(\0014\0038\\\360\004\017\240\001E\004\220\001\006\300\000\031G\230\001\004h\000\017`\0052\007`\000\037\003`\000\004\f\230\001\004\220\001\004\240\005\f`\000\004\310\000\005@\000A\004w\000\000\255F/\207\003`\002K\n\310\000\f`\000\017`\002 \n\000\002e:G\000\000 \340H\000\006`\000\037\307\240\001L\037\207\240\001:\033\003\240\001\023\005\200\b\017\300\000\"\017\000\002\0200\004\004\367\342\225\222\034\007\003G\000\200\003g[\"\r$\220\342 \000\000=\013\000X\0131\017\000\007`\013\004\360\000\017\340\005=\006(\004\037\007\300\003K)\0047\300\0031\003\003g\000\003\004\270\000\f\300\000\002\370\000A\370\360\003\360(\003\034\001 \000\004\340\001\004(\000\004\b\000\f \000O\005\000\007\004`\003I2\003\360\027\240\000v\003\027\000\220\001$6`\000(G\006x\000\004H\001\f@\002\0048\000\017\200\000#!\020\240@\0004\177$6p\000\017\300\001\025\fx\000\017\200\003\023\030\020 \005\037\002\200\003K/\307\003\200\003I\002x\003\020cx\003\020\032x\003\002t\020*\370\360\200\002,@\342\350\000\017\240\007?\017\240\002;\004`\000\004\240\005\002\350\000\246i[\007\000\007\340\200\003\220P\340\000\027\0008\003$@\342\310\002\f \002\004\b\000\017`\002[,\037\000\330\003 \000\017\b\000\244\260P\357\007\200\374\000\274g\000\020\000\005\b\000\000\020\rR\033\250\360\365\007\200\000\000\020\000D\000\000\230\357\270\000\017\000\007CQ\020\200\004\001G\340\020\002@\n$\000\004 \000 \003\006\020\000B\3408\004\006 \000\207\007\0047\000\200\003d[\340\016\001\220\001\"\007\200\b\000@\017\000\000 \210\001\017\200\002P\030! \002\"\004:\240\000u\003\004\367\001\000\000)\000\013\0048\000\004`\000u\006\004'\000\300\001\370\340\0041\004\004'0\013O\005\000G\004\240\000\0020\005G\000\260\013\001\350\005\017 \0040\f\300\003\023\003\200\020\023\000x\000\004P\000&\357\037\000\002\000\020\000\"\002\003`\000f\003\003\367\017@\000`\000\0068\017\0028\000 \002\002`\000&\260\200@\000\023'`\017\0237(\000(G\000\000\003\fx\000\004p\000\005\240\022\013x\000\004p\000\004\340\f\005\000\001\022\002H\006\004\360\001~\357\007\340\375\000\274\037\340\002\003\b\000\021\344\340\002\006 \000\0028\000&\000\343 \003O\340\375\000\220@\000\007d\357\037\340\377\000\200`\003\245\000\343\017\000\207\377\377\017@\342(\000\017\001\000,\0005\023\0033\026\r\000\237\000\001\000=\016\002\0000\000\b\001\000\037\013@\000\004\023N8\000\037A@\000\f\023\023D\026\f\001\000\023\220\370\026*\200\001h\026\003\277\026\000\276\030\002\030\000\036\001T\000\000\001\000!\020\006\007\000O\000\210\005\000\200\000\n\037\017@\000\004\023\230p\027/\244\003@\000\013\037+@\000\004\022<\261\005?\000\267\001@\000\013\037W@\000\004\023\363\330\030?v:\000@\000\n\037i@\000\004!iK\007\000O\000\035\006\000@\000\n\037\201@\000\004!\206Q\007\000?\000g\000@\000\013\037\231@\000\004\023\355@\000/t\002@\000\013\037\247@\000\004!aT\007\000O\000)8\000@\000\n!7\000\001\000+p\000\001\000!\214\214\007\0002\000$\000\001\000\025\005o\230\n\001\000\037_@\000\004\023\260@\000&\b\001@\000\037\024@\000\000\022\362\300\000\r@\000!\270\215\007\000\000%\006\017\200\000\002\004\310\002?\033\001\000\306\242\0003\000\000\330@\000\027\020@\000\027\0058\000\004\030\000\037?@\000\004\037\350@\000\000\037\006@\000\000.\263\001\324\000\000\001\000\023\370@\000\027 \000\001\037\013\200\003\000\037\317\200\000\004.\030\217\200\000\037\004\200\000\000\023\260\324\001\f\004\004\023(@\000\023\\\200\000\037\000\200\001\004\023@@\000\025\006R\000\003 \236&\220\0005\000\003\200\0000\017\000\000lG\t\001\000\023\245\224\000\f\304\004\004\320\251\f\230\000*\001\000\001\000\023\006\\\000\004\b\252\f\001\000*\340\000\b\000\027\bH\000\027\005\350\000\f\001\000*x\025\b\000\b8\000\027\006\240\000\017\001\000\005\036\002p\000\017\250\000\035P\000\000\000\000\000\000\000\000\000\000\000\001\000\001\001H\000\000\000\210A\000\000\000\000\000\000\206A\000\000@\000\000\000\001\000\b\0002\000\000\000\000\000\000\000\000\000\000\000\023 \000\000\000\000\000\000\000\000\000\000\000\000\000\0006s\001\000\000\000\000\000\000\000\000\000\000\000\000\000\360'\n\n\n\n.version 8.1\n.target sm_50, debug\n.address_size 645\000\377\021global .align 1 .b8 blockIdx[1];\"\000\003dthread#\000\377'\n.visible .entry _Z14calculate_tempiPfiii(\n.param .u32&\000\006\021_$\0006_0,.\000/64.\000\r/1,\\\000\031\0372.\000\032\0373.\000\032\2464\n)\n{\n.loc6\001\02186\001!__\025\000\260_depot0[104`\001\313reg .b64 %SP\017\000\024L\020\000\245pred %p<5>\"\000\20616 %rs<6\022\000\20532 %r<39\022\000\020f\022\000If<2>W\0001rd<#\000\373\016loc\t4 103 0 \n$L__func_begin0:\037\000\203\n\n\tmov.u\227\000\033,\313\000q;\ncvta.\023\000\004%\000\023,\301\000\"ld<\001\001;\001o%r6, [A\001\r\035]6\000\03756\000\017\03636\000\03746\000\017\03126\000\002\037\001\03717\000\017\0361m\000\03736\000\017#0])\001#toV\003\004s\000!2,y\000\003\037\000\n\034\000\0213\034\000Q2;\nstk\000p[%SP+0]\026\000\0223\025\000\"64\025\000\0218\025\000*d3+\000!16\027\000\0324\026\000\0222B\000\0335\026\000\0214\026\000!6;\021\0024tmp\n\002\2233 66 180 \t\002\001\363\000\2657, %ctaid.x1\000\0271;\002i5 7 \n\t`\000\002\243\000\0257/\000\0262`\000\0357`\000\0258`\000\025y1\000\0273`\000\0356`\000!32`\000\0258/\000\0254`\000-53`\000Y9, %t\276\000\0275^\000\0368^\000\002J\001\0259/\000\0266^\000\0354^\000#10_\000\006\275\000\0277_\000\0359_\000\0224\223\001&10\235\003@17 3V\000$ldU\000$1,\001\002\t&\000\0204&\0003shl\006\004312,-\00001;\n\223\000\003\027\000I3, 88\000 288\000Bub.s!\000#4,'\000\000D\000\t*\000\r\256\000\002+\002'14&\000\0348\256\000\0375\256\000\001\0358\256\000#6,-\000\0311'\000\f\235\000\0277\235\000\0316*\000\r\235\000\002h\002&17&\000Y23 14\235\000%8,-\000\t'\000)33'\000%9,\274\002\n'\000\0201\357\001Sul.lo\241\000320,X\000\0007\000\n-\000\0308T\000521,p\003\n'\000\0316\362\000522,W\000)21*\000\f\362\000\0225\372\002\0272\265\001Y25 17w\000%3,-\000\t'\000\0202w\0004addw\000#4,.\000\b@\001\016\316\003\0225\020\003\0272\003\002Y30 21t\000\0375t\000\001\26430 19 \n\tnegt\000\001\004\002)25$\000\fq\000\0226\"\003\0272\375\001Y31 20q\000%7,\236\000\t'\000\n\233\002\0242\376\001\0331'\000*40\f\001#9,.\000)-1(\000\002\235\002betp.le,\0003p1,\200\000\0007\000\t-\000\001\355\000\220@%p1 bra \016\004\345BB0_2;\nbra.uni\023\00051;\n\013\000E: \n\tD\00092 3\276\002/31\347\000\002:2 4'\000\0372\347\000\002\0222\276\002\006j\002333,.\000\000[\000&;\n\001\001#1,\037\00066;\n\335\004\0223\345\002\016\345\000\f\321\000\0263\321\000\0272\321\000\003\000\002\006\233\004!30n\002\fb\000/30c\000\032)3:\203\005\002\317\000\0318C\000\rT\002\002\310\004\0232|\000\002W\t\0029\005\0056\00036 86\000\0238N\001\0220\212\002)s17\00082, \260\000\0227r\004\0178\000\001\0252\024\006\0268\024\006I39 1=\003534,z\006\031;'\000\0319'\000\004d\003+60'\000\0255\244\002\022t\317\0013p2,X\000\0007\000\t-\000\"30\244\002\0312\244\002\0366\244\002\0264p\001\0274\323\001\001D\000\n}\002\0376\277\000\004)42'\000\004\262\003*64'\000\0253c\003\024g\277\000#3,X\000\0007\000\005D\001\0319D\001\003l\003\0373\310\000\r\0265\310\000\0315\233\002\000A\000\007\326\001\0213\r\002\004\340\b\007\034\013_41 16\341\001\004\0263\312\000O43 5\267\002\000\006e\tE11:\n\026\000\bR\001\"45:\000\226ar.sync 03\000&2:`\000\002\000\007\000P\001\0208{\000&4,\214\000T;\nand-\f#5,\037\00011;\nW\001\"eq\033\0003p4, \000\007\351\000\0353b\000Y@!%p4V\001\0368V\001\003\226\001\001\013\000%: N\000\0274N\00039 2\261\000\002c\004\037d\347\002\002\0234\347\002\001(\b\002\013\013#5,.\000\0222\242\004\003\"\013\"6,q\f#68\271\004\002\027\000$7,\035\0001rd5\260\013\002\021\r\001:\005:rd7l\000\0235C\001\002S\000\004\036\006\0338\221\000\0227\357\001\021f>\004Ard8+>\004\027f-\004O50 3\356\001\000\006\223\n&15\356\001\0308\356\001055 \376\0036ret,\000&6:\233\r\362/end0:\n\n}\n.file\t1 \"/nethome/cahn45/CuPBoP/cuda-12.1/include/nv/\021\020\023\"=\000\0372=\000\030\344vector_types.hB\000\0363B\000\361\002llvm-vortex-with-L\000\365\003build/lib/clang/18Z\000!__\023\000\020_(\000\020_(\000wtin_varg\000\0374\251\000\006\364\003examples/hotspot/.\n\000\264_jisheng.cuG\000\0375\256\000=\370\004math_forward_declar\036\001u6 \"/usr<\000fstdlib \000\0237 \000\000i\000\366\013gcc/x86_64-linux-gnu/13/..\003\000\004H\0000c++\033\000@bitsT\0007_abu\000\0338u\000\rU\000\0017\000\000\272\000Gcall9\000\0379\216\000+\020cS\000\004L\000+10\206\000\000\035\000\006k\000/11l\000,\002J\001\005O\000\0372\331\0012astddef\030\023'_t\255\000\0373\255\000+\f\366\001/14\207\002A\007`\000\017\347\002>\025ca\000\221section\t.L\024p_abbrev\351\022 b8\267\004\001\007\000(7 \017\000\0233\017\000\0228\007\000\"19\b\000\0225\007\000\0323\035\000\0226\b\000\003\007\000*27\036\000\nY\000)18\017\000\0310\007\000\0222\007\000\03253\000\nn\000\n2\000\003\034\000\03741\000\b*11\b\000\0335\030\000*59\020\000\na\000\003Z\000\0374w\000\002\003J\000\0232\b\000)15%\000\003,\000\0325C\001\004v\000\004\263\000\017\264\000@\003\211\001/13\264\000\b+73\332\001\017b\000\f\0245U\000\nk\000\003\007\000\003\261\001/46\210\001\002\017b\000\023\0236L\000\0231\006\002*63\020\000\nr\000\0318]\001\0370\325\000\004\0372C\000\t\0379C\000\021\0310\007\000\004\376\000/225\000\004\017\371\000!\0310\007\000/11L\001\002#13\250\000(64\\\000\017j\000\033\f\250\000\017s\001\033)12m\000\0370t\000\023*24t\000\0310\007\000\004\244\002)36\027\000\n\327\000*62S\000\f\b\000\0310\007\000.14\216\003\017\244\001\000\0310\007\000*15\036\000\017\246\003:\0375r\000\002\017\246\0039\0375\245\003\021\0371\246\003)\03752\002\"\0378\314\002?\0375\313\0022\0379\310\0038\0315D\000\003\007\000\0232\b\000/38b\000\n\0310\007\000*210\001\03700\0010/111\0011.22\312\001\017\203\000\036\017s\000\r*500\000\013\203\000\0373M\002?\017\232\0004\0364\232\000\017\267\001e\017\252\000\f\0325}\004\0370e\000\003\0310\007\000*26\337\000\003\027\000*715\000/32z\000\n\016}\004\017\036\n\017*64\320\004\017\354\0013\0132\001\013\250\000\0378\325\003\001*51D\000\0322\230\000\017\323\001+\0310\007\000\0332\274\b\017\202\000_\0333\212\000\003\017\000*495\000\017\273\001\013\0338\203\000+89\020\000\0327\020\000\0310\007\000)31\320\000\0370\201\005\022\017j\b\013/32\245\003g\013\212\000\0363\212\000\017s\000\026\0375\027\004#\013\202\000\0374\202\000(/11\203\0002\0325>\000\0370E\000\003\0310\007\000*365\000\017\246\t\004\f\b\000\017\312\000\r\013e\000\0327\035\001\0370\237\001 \017\f\001\r\005v\002\0311\027\000\0036\000\013;\b/21\036\000\001\003\007\000/39\356\n\002\n\007\000\0374\215\b\003\n\007\000*41o\000\017\347\001\004\0135\000\0362J\002\017-\001b/43\266\001)\017\322\0021/44\013\001\002\016a\004\017\231\000?\013\211\000\0325\201\000\017D\000\003\0134\000\0326\234\004\03705\000\003*55\250\000\0310\007\000/47\315\r\020*11\b\000\f\335\r\0340\007\000-\t}\301\022Ainfo\277\022 32\243\031)73\024\007\0220\031\000\t\355\022\n\203\000\002\007\000$99D\007\0228\020\000\0227\017\000\"10\b\000#039\006\002\017\000#18\027\000\003\207\002#14\b\000\0225\b\000\0230\b\000)11G\000\003?\000#49\242\r\002\016\000\0306\025\000\003\016\000)551\000\004\206\000\004g\000\0336\b\000\0312\177\000#58\203\001\b\007\000\004\303\000\006\234\000\003=\000\005U\000\002(\000(98\210\000*99\311\000)09T\000\004\b\001\0341\b\001\0326 \001*20\204\000/12\020\000\003\0331\263\000\0328\b\000*18\206\000\0376\332\000\n)32\321\000\0309\007\000(53\347\001(49u\001(50\034\000\003\020\001(99\034\000#52m\006\b\311\001(511\000)50T\000\002\034\000)48#\000\0313\016\000\0304#\000\003\223\0008102@\000\003x\000\004X\001\nd\000*10\036\000\004\326\000\0237\026\000\0300\017\000\004\221\000\0251'\003\006\335\013\02301\000+4 \336\001\0326\346\002/12 \000\002\0249\217\000\0336\227\001\0325q\002/01d\003\002\fz\002\0377\311\003\000Yline h\004\006F\000\013\255\000/04\302\002\002\004(\000(47n\000\003\364\001\0065\000\n\357\001\03033\000)67\241\000\0228+\000)66o\000(803\000\004u\000\004\020\003*97\224\000+12\370\002\0311:\001/47\323\000\003/16\230\001\022!0\n\200\035\013#*\033 \026\000\000\236\034\nW\f\004X\f\004\177\003\0320\036\000)6 \314\000\004\003\004\005\225\003\016\205\000\006=\000?00 &\000\002*97;\002\0300z\000\003\342\005\0251\250\023\003?\001*95\007\001/01N\001\002)99k\000\f\274\004\002d\000\017\301\f\003\0374z\000\013(51'\002\0310\334\n\017;\000\024\0305;\000\0377;\000\023\03038\004\0310\372\017\017;\000\023\003G\004\0310l\016\017;\000\024\0301;\000\0373;\000\023\0364\261\000/60;\000\032\0309;\000\0371;\000\031\t\354\000/62;\000\023\0365\261\000/70;\000\031\tv\000\0377v\000\032(53;\000\0375;\000\023\0366\261\000/80;\000\031(54;\000\0376;\000\032\0305;\000\0377;\000\032\0307;\000\0379;\000\023\0367\354\000\03299\n\0315\007\000\017\262\004\035\003h\000\004@\007\006\037\000\0325O\004\004F\000\f\205\005\0336\030\000\0311[\006\017o\004\002\0321\274\033\017\261\000\034\004\232\000\0033\007:441^\000(2 \204\005\0263-\000\005\274\033\017#\001\201\004\276\000\0314\315\000&1 @\001i32 663\030\000+9 \004\001\n\031\002$108\000\004 \000+98\371\000\0315\322\000+95\252\000\0370\b\001\002.16\271\000\f\215\025\0239\217\002\0229&\000(78)\004\006Y\000\0308\217\003\005h\000\017\227\001\023/54\227\001\004\nF\000\013e\007(49Q\003\005\036\000*15\002\001\017\312\b\002)99b\000\005{\007\0222.\000(69\354\000(83p\000)95~\000\0319v\000\013\364\003+11\206\000)08\020\000\f\207\000)110\001(69\237\001905 U\000\0379\342\000)\t\363\0013142`\002\0253\332\016\017\237\002\002\0242@\025\017$\002\225\003\260\005\006\302\003\003e\000\005i\001\03387\000\f^\000\0375\020\002\207\004I\021\004\036\000\017\325\000\035\0310\351\001/47\003\002#\013\326\021\0045\000-71O\000\f\"\000\0342R\000\013\"\000$20\"\000?459\"\000\004\0233\"\000?537\252\037\t\000P2\013\214\002\0335$\001\0323 \000\004,\001(00\243\017\005\260\001+11/\000\0373'\000\031\t\304\006\0308\002 \t1\001\003\036\025\003\007\000\007\204\f\n\\\002\t\333\n\03215\007\0251M\000\n\300\037\004\352\035\0220t\000;8277\000\03047\000\017\202\007\001\006K\000\0371K\000'\0334K\000\0372K\000'\0328\340\031\017-\001\022\005X\000\0307X\000\0371\262\007\002?843\020\003\002\005\245\000\017\021\000\017/0 \244\000)\0378\244\000(*48\202\000\003\017\000\017\267\005\003(75L\020\006>\004\017\245\000\002)99t\004\003\005\f\004l\020\0055\000)10\331\004(51\320\004\004=\000\004$\000\003\276\000\005\265\005\0320\006\005/97%\005\n/32\203\000\031\013e\001\0269e\001\b8\001\0371o\001\0029910\030\000\0370|\004L\0375\311\000\002\tM\004\0334M\0048668\r\027\000\324\000,62\230\000\017\"\001\031\0312\207\002\013\242\004\017R\000\032\f\252\004\0239\t\000\017\243\004\025?94 \007\004\000\002\\\000\016\234\004\017D\000\031\002H\002\016\225\004\017D\000\031\003\322\002\013\217\001\0249\324\005,20\241\001\0315\301\001\005\232\003\0325f\003\0317\032\002)97%\000\0338%\000\0335\215\006\0376\235\001\002\013>\000\013\273\006\004z\000#07\\\031\t\201\000)12D\000\004c\000\0300\026\003\003J\031*65\252\033\0173\n\n(53W\000\017\005\001\243(49f\020\0319\007\000\f\002\027\0044\000)999\025\017\324\0002\004\237\000\017m\005\002\013h\002\017\230\000a\0310&\002+6 g\003\0311\007\000\017>\002\377a\0371>\002\204\0371>\002\000\0377>\002\377\177\0372>\002\204\0372>\002\000\0378>\002\013/116\013\013\017E\002\275\0329\265\001\017\020\f\023\017\352\001\002\017\323\0135\017{\000\013\t\315\001-71\002\013\017\304\013\002+15\373\"\0370\355\001\363\0373\231\000\003\003\201\000\0046\000\017\365\001Q\017\203\000\023\n\375\001\0352\355\f\017\375\001\032\004\363\013\005\375\001\0325$\001\017\323\001\223\n\023\001\0315\351\000$1 \035\000\f\022\001/56\022\001\377\r\0259\031\000/61\354/\002\0173\004\326\0307\016\027\003\004\004(82\356\000(839\000\0370\030\0042/61\314\001(\0374\314\001\025\0374\314\001\342\004&\000\017\321\005C\0378\271\001\005\002\202\001\n\233\001\017\304\001\026/0 k\021\002K1551l\021,92%\000)92d2\t7\000\016%\000\0375\243\021l\006\037\000\0314Y\001\004\210\001\004\200\001/00\372\001\030\0330n\001\b[#\0170\r\023\0304W\000\017\016\001\254\0179\rw\017\211\003\b\013z\002\017\230\000a\0310/\002\0373w\017\005\017G\002\377p\0371\276\021\227/54G\002\377\210\0372\307\021\227/55G\002\013\004\306\b\017\333\t\005\017N\002\306\0379\320\021\251/58\320\021\023O2207\037\n\001\017\366\001\366\0373\242\000\003\003\212\000\0046\000\017\376\001Q\017\203\000\023\n\006\002\0369\331\021\017\006\002\031\017\307\020g\017\334\001B\t\034\001)62\362\000/1 @\r\003\0262o%\017\033\001\377\017\0259\031\000.22\353\021\017N\004\342\017\364\021w\017\325\001\026\0370\325\001\025\0374\325\001\353\004&\000\017\375\021V&62\213\001\n\244\001\017\315\001\026\003\273\001\f\330\021K2212\375\021K1571&\000\006\023\000-259\000\017&\000\001\0236\023\000\0259$\022\013\031\000O1030\032\000\004?603\032\000\005\0338\032\000/7 \0017\034\02411*\0376\301\002\001(49\360\t*99\364\001\0378\273\002\003\0378\325\001\002/01\215\002\003\0311\300\t\006#\002\002\304\002\003\\8\006\032\f\0375\b\000\002\0310\341<\017\241\000Q\0310\320\023\0322\206\001(8 \007&\003\226\000\0223\204\001\n\216b\f\237/\013u\000\017!\003\004+05)\003\0370\224\000\005\000\340,?239\230\000\002/11\231\000\r\t\221&\00513\005\236\000\013\023\001\004:\001\0330\254(/16\236\000\000\0235\236\000O7068\236\000+\005\025\001)3 5\001*10\220\000*95\016\002\0311\016\002\004\256\000\n\246\000\0376D\0016\003?\005\017\246\000\025\005\037\000\005\343\001\0379\247\000\b\0377\247\0007\0314#4\006\177\000\0314\246\000\r\241\002\017\\\001 \0368\265\000\0379\265\000$\0328\265\000.20o\000\003d\003\017p\0002+32p\000\0371p\000\001\0376p\0007\0336\201\003\017\341\000\003\0378q\0006,40q\000\017\342\000\002\0379q\0007\0244)\002\031 [\004*97I\002/08\020\t\001)08w\002\013\306\032\003-\000\005\303\002\004\235\002\017R\003\t\003\217,\017\334\0003\0378\334\000N*99\333\000/08\333\000\t\017(\0027\0335\t\003)08\236\000/88\177\000\000/23\177\0007\0376\177\000\021\fp\001\017=\003\002/25\226\0006(60h\001\016\350\001\013\361\005\013\246\000\005\037\000\017\324\007\001\000hd\017\247\0006\0374\247\000)\017M\001\n/31\246\0007\0378|\b\033/16\230\000\t%5 DG/41\231\000+\004\030\001\005UG\0371\231\000\003\005v\n\004\232\000\005\301\000\017\242\000\002\0236\242\000H6201\236N\001`\f\002\323M\003\310\013\000\361j\n\017\000)1 L\000\005U\n\0362I\000\0328:\000\013X\000/3 \312\006\000\017I\000\002*44:\000\013\017\000/5 \242\006\000\017I\000\002*50:\000\0326\017\000/7 z\006\000\006I\000\003\304\r\003\016\000\006j\005/16l\001\000)12\223\037&20T\003\004\033\000\r#\000\0251#\000/46#\000\004\0252#\000/84#\000\004\005\372\004?315#\000\004\0254#\000\0374F\000\005\0255#\000\0377F\000\005\0246#\000/40F\000\005\005\340\006\006;?\f#\000\0258#\000/72#\000\004\0249#\000/50F\000\004\005\177>\"55\357\001\017#\000\000\0251#\000/73#\000\004\0242#\000/60F\000\005\005^\001?629#\000\004\0254#\000/56#\000\004\0255#\000/85#\000\004\005^\001?712#\000\004\005^\001\0377^\001\005%18#\000\017^\001\005\005x5/58^\001\005\005\243\020O5836#\000\004\0251#\000/67#\000\004\0242#\000/90F\000\005\005^\001\0379\322\000\005%24#\000\0377F\000\005\0235#\000?601F\000\005\0256#\000/53#\000\004\0257#\000\002\241\r\017#\000\000\004^\001?613F\000\005\0259#\000/64#\000\003&30\216\005\0379#\000\004\0251#\000\0375F\000\005\0242#\000?310#\000\004\0253#\000\017^\001\005%34#\000\0378F\000\005\0245#\000\0374k\003\005\006`\006\0374\246\004\005$37#\000\0375\246\004\005%38#\000/52#\000\004\005^\001/60#\000\004%40#\000/39#\000\004\005^\001\0376S\002\005\005\177@/67\244\001\005%43#\000\017S\002\005%44#\000/86#\000\004\0245#\000/81F\000\005\0256#\000\017\276\005\005\005+?/68\276\005\005$48#\000\0379\276\005\005%49#\000\017\337\002\005%50#\000\017\337\002\005%51#\000\002B\020\017#\000\000\0252\247\021/32#\000\004\0253#\000\017\276\005\005\005\236!\0237\301\n\017#\000\000\0255#\000*61\024W\0325\250\025\003'\000\003\267\007\r'\000\0331'\000/45'\000\002\0332'\000/78'\000\002\0323'\000?323'\000\002\0334'\000/69'\000\002\0335'\000/98'\000\002\0326'\000/42N\000\003\0337'\000/70'\000\002\0328'\000/50N\000\003\0339'\000/44'\000\002+10(\000/71(\000\003\0321(\000\005\267\007\f(\000\013\211\001\005\274\007\f(\000\013\212\001\005\301\007\f(\000\013\213\001\005\306\007\f(\000\0325(\000:718\221\000\003^\001\006\001\003:749\"\000\003\017\000%85\"\000\0376\"\000\003\003eP\001#\000\0378#\000\004\005`\007?780#\000\004\005\352\004?782#\000\004\006i\003?855#\000\003%73#\000\0377#\000\004\005:\026O7894#\000\002\006\263\t?791#\000\004%30#\000/33#\000\003\005\307\004J7953\247\001\03292\000\004\247\001?974(\000\002+24(\000/99(\000\002)43(\000\"80\222\b\r(\000+62(\000/51(\000\002+81(\000/70(\000\002\006\260A\004)\000/91)\000\003\013\362\000?812)\000\004+40)\000/45)\000\003+59)\000/64)\000\003+78)\000\0378)\000\004*97)\000\003\267\f\r)\000\003+\013\007)\000/23)\000\002\004\026\003\0247(\000\0374(\000\003+90(\000/59(\000\003\0333(\000\0177\002\004+94(\000/95(\000\003\0325(\000\0223\341\013\016(\000\0337(\000\002\221\003\016(\000\0338(\000/75(\000\003\0339(\000/97_\002\004\0321)\000?419)\000\004\0332)\000/40)\000\004\013C\001?462)\000\004\013\034\001\005Y\n\r)\000\0326)\000/50)\000\005\013F\001\0375\245\003\004\005\007\020\005)\000/46)\000\003+10)\000\017p\001\004\005\252\036\004)\000/60)\000\005\013\037\001\0226}\013\017)\000\000\0334)\000\017\023\002\004\005\265\020\005)\000\0377)\000\005\013\037\001/69)\000\005\013f\002/71)\000\005\0339)\000\017\315\000\005+21)\000/56)\000\004\013g\002/77)\000\005\013H\001\0377\342\002\005*25)\000?818)\000\004\0336)\000/39)\000\004\013H\001?861)\000\004\0339)\000/83)\000\003*30)\000?909)\000\004\0331)\000/36)\000\004\013\037\001?963)\000\004\0334)\000\0379)\000\005\nH\001O9024)\000\004\0337)\000/55)\000\004\0338)\000/81)\000\004\0329)\000\005\020\024\r\333\006\0331)\000\017\220\002\005\002\023\t\007)\000\017\303\001\005+43)\000/88)\000\004\0325)\000\003\021\022\017)\000\000\0336)\000/41)\000\004\013H\001?268)\000\004\0339)\000\0379\321\007\005\ng\002\0379\216\006\005;151)\000\017\355\005\005+53)\000\017g\002\005+54)\000/85)\000\004\0325)\000\0374\354\001\005+58)\000/31\307\b\013\005)\000\017I\005\005+60)\000/78)\000\004\013>\002?502)\000\004\013\037\001?526)\000\004\013\037\001\005\0216\r)\000\013\025\002\0375 \005\005+68)\000\017 \005\005*69)\000\0376\002\b\005+71)\000\017\271\002\005+72)\000\017]\003\005+73)\000\0378H\001\004*75)\000?703)\000\004\0336)\000\0372)\000\005\013H\001?744)\000\004\0339)\000/65)\000\003+80)\000/87)\000\004\0321)\000?810)\000\004\0333)\000/33)\000\004\013>\002\0378^\007\005+85)\000/80)\000\004\013\037\001\005Q\022\r)\000\013g\002\0379q\001\005\013\252\013/99\252\013\004;191)\000\017S\004\005\002n\016\007)\000/89)\000\004\0313)\000_10016*\000\004\0345*\000\017\246\000\006\0346*\000\0377\364\f\f\005*\000\005\320\n\r*\000\0349*\000/38*\000\002\005\303\022\006*\000\017?\016\004\005\r\034\005*\000\003M\032\017*\000\000\0343*\000\017\\\b\004\005\265\r\006*\000/67*\000\004\fP\001?299*\000\004\f&\001?331*\000\004\0348*\000\017\227\016\004\005{\027\006*\000/98*\000\003\013\276\013_10432*\000\004\0342*\000\017\201\020\004\003W\032\b*\000\017<\f\004\005*\b\006*\000\017\254\005\004\005\027\017\005*\000\0375\255\005\004\005U.\006*\000/42*\000\004\0349*\000\017\342\004\004\0034\032\b*\000\017A\f\004\003;\032\007*\000/62*\000\005\f&\001\017\347\f\005\003&\032\b*\000\017.\006\004\003-\032\007*\000?711*\000\004\f&\001\0377\351\b\004\003\030\032\b*\000\017\327\016\004\003\037\032\b*\000\017\353\b\004\003\003\032\007*\000\0378\354\b\004\003\n\032\b*\000/30*\000\004\fP\001\0248\240\002\005 \022\0341m!_10876%\000\005\0262%\000/91%\000\005\0254%\000?940%\000\005\0268%\000\017\224\000\006&41%\000/82%\000\005\005o\000?101%\000\006\0265%\000\0373%\000\006\0266%\000\0375%\000\006\0267%\000\0377%\000\006\005\336\000\0261\346\022\r%\000\0259%\000\005\245\002\r%\000&50%\000/50%\000\005\0261%\000/68%\000\005\0262%\000/85%\000\005\0253%\000?313%\000\005\006r\001?334%\000\005\0265%\000/60%\000\005\006M\001?383%\000\005\006M\001/41J\000\006\006M\001?461%\000\004&61%\000/94%\000\005\0254%\000?527%\000\005\006\271\000\006\256A\r%\000\006\271\000\006[B\r%\000\006\271\000?595%\000\004%70%\000\0376\227\001\006&71%\000\0374J\000\006\0262%\000/77%\000\005\0253%\000\0377r\001\006&75%\000/33%\000\005\006S\003?778%\000\003\0066\035_11926%\000\005\006J\000/97%\000\006\006r\001\0379M\001\005\006/\030%11\362\n\r%\000\006x\003O2017%\000\005\0262%\000/44%\000\005\005M\001\0232@\005\017%\000\001\0264J\000/65%\000\005\0265%\000\f\274\b/11\337\034\001%12\360\016\004!\000\013\2321\003+5\013\3628\003\227'\004=*\003\000*\004t&\002\000%\004\330\004\013%\000\0300\367\032\002/\r\001s\026*39Y\035\007\251\006\t \000\0330\330\000\0335\204\f\0241\332\000?418+\000\005\0348+\000\002\363\001\017+\000\001\0349+\000/82+\000\004+90+\000?513+\000\005\0341+\000\002\276\002\017+\000\001\0342+\000/85+\000\005\0333+\000/61V\000\006\0344+\000\017\002\001\006,95+\000/80+\000\005\0336+\000\rJ\t/15\333\031\003-12\343\025\006+\000\f\256\001\r\"\t+15\023\r\005+\000\0378\002\001\005\005\024\r\006+\000/47+\000\005\0341+\000\0377V\000\006\f\256\001/90V\000\006\f\256\001/93V\000\006\f\256\001?969+\000\005\0325+\000O3000+\000\005\0346+\000/37+\000\005\0347+\000\0377V\000\006\013\256\001\0253\354\030\016+\000\0349+\000\002\237\005\017+\000\000,10+\000\017\004\002\005\005\235\r\005+\000\005D9\016+\000\0342+\000\0376+\000\006\013\256\001O3301+\000\005\0344+\000/34+\000\005\0345+\000/73+\000\005\f\256\001\r\352\024\006+\000\0347+\000\0374V\000\006\0348+\000\017\335\003\005\005\371\r\005+\000\017\337\004\006\005\372\r\006+\000\017\337\004\005\005\373\r\006+\000/77+\000\005\f\256\001\0376\002\001\006,23+\000\017\333\002\006,24+\000\017\333\002\006+25+\000?705+\000\005\f\256\001\0377\203\001\006,27+\000\017\333\002\006+28+\000/83V\000\006\f\256\001?868+\000\004+30+\000\03795\005\006,31+\000/64+\000\005\f\256\001/99V\000\006\0323+\000O4029+\000\005\0344+\000\0171\003\006+35+\000\005\372\034\016+\000\0346+\000\0374+\000\006\0347+\000\017\260\002\006+38+\000\005\361\004\016+\000\0349+\000\0373+\000\005,40+\000/71+\000\005\0331+\000?307\273}\002\013\363\t\0377\353\t\022\0375\353\t\025\0335\205/\0265\357\000\n\344\t\006\031\000\003\240\000\005u\005\005\326\006\003\2552\004\216\n\0360\035'\017\325\000\r\0312\325\000\013\3204\0321 H\013\335\000\017-\000\003\n\345\000\0252\314\000/75\345\000\004/75\345\000\004*2 \0323(11\254\000\n\364\000\0374\364\000\031\0373\364\000\022\0374\374\000\037\0045\000\n\004\001\0374\004\001\036\017\264\001\031\f\202\002\005\024\002\017\271\000\002\017.\000\005\n\262\000\0376\262\000=\tr\001\017\204\000\005\017s\001\006\0176\000\022\n\302\000\0378t\001L\0326\017\000\017s\001\013\017-\000\002\t\260\000/42r\001L\017\203\000\002\0325\267\000\017\277\000\032\0375\306\000\001\0370\306\000\021\017\330\000O\016I\002\017\321\000\020\017H\002\002/44H\002D\0329 \006\0314\232\000\013\270\000/9 -\000\t\n\260\000\0376\260\000J\006E7\003\204\003/08\261\000\b\017.\000\005\n\262\000\017\252\003>\0376\242\005\003\0312R=\rN\004\r\321i\0372\332\000\003\017V\000*\t\372\000/50\372\000\021\017\f\001+\0371\f\001\003\0375\334\000\022\0375\264\000\000\0372`\002K\r\242\000\0374\252\000\030\017\302\003\002/54\262\000=\0321\335\002\0321\243\000\n\253\000\005!*\f'\000\002\037\000\0335)O\017V\001<\017\244\000\005/99\214\000\000\016\253\000\n.\000\0360\001\220\017V\001H\003H<\005a\003\017\253\000\004\013'\000\t\244\000/62V\001L\013}\000/50\253\000\031\017@\007\001/60\006\bC\017V\001\007\0309nH\017\272\000\024\0136\000\n\302\000\0170\007D\004\233\000\003\264\007\005\013\007\0375\271\000\002/2 -\000\b\n\260\000\0376\260\000K\004\002=\006\021\006\0339 \000\017\272\000\002\0177\000\005\n\274\000\0378\274\000\021\017@\0023\0322\357\007\005y\005\017`\004\003\0340\316\000\0177\000\013\t\326\000/70Z\004E\0312K\001+97\027\000\n\b\000\0340\303\000\t6\000\n\262\000\0372\262\000\027\016\232\001\017h\0025\n\326\000+20\037\000\017\326\000\021\0046\000\n\336\000\017\322\003\000\017\314\000S\005\375\002\017\223\t\n\r\315\000\f7\000\n\316\000\0376\316\000f+11\333\003\017\316\000\023\0137\000\n\316\000\017\002\004O)49LG\004\265\000\0331I\b\0318H\002*15\b\000\004\222\001\0330.\013\016\373\000\017]\0007\t)\001.80l\023\017\027\001*\f\031\005/14i\007\f\0322VO\0365\371\000\017F\000\017\n\323\000\0372\374\001\037\0256\3766\003\345\000-14\030\001\017\370\000\024\0324\312\001*12\256\002\013\311\016\004\b\000\004\361\000/4 ?\000\022\n\361\000\0374\361\000\037\017\326\001%\0315z\002\005\227\000)03Q\b\013\325\000\003S\000\0176\000\f\n\324\000\0376\230\002=\0326\302\000\005%\003\0372S\005\004\0335\260\001\0371\333\000\004\017O\000*\t\364\000&91\335A\0371\023\026\033\005\372\036*11\b\000\003s\001\0310c>\0170\001\022\03770\001\004\0373\222\003\002/97/\001\003+14\030\001\0272\220\000\016?\001\017^\000#\nF\001\0375F\001\027\017\373\005+/52#\001;\004\020\000\0313\247I*97=\003\017J\001J\017\205\000\024\nq\001\0364q\001\017\177\004L.15f\003\017\034\001\031\0177\000\003\t\326\000\003 =\016\327\000\017\305\000'\0374\305\000\004\0338{\001\f \000\0372\325\000\004\017G\000\032\013\335\000\0374%\003U\003\007\000\017\366\000\037\017\016\003,\017n\000A\013D\001\0373D\001U/51D\001\024\017\211\004-\017T\001\f\017~\000Q\013d\001\0376\\\004f*10\257\000\017,\004\001\016\025\001\0176\000\003\n\325\000.11\325\000\017\334\bB\003~\000\006\025\b\0314B\r+97\311\001\017\333\000\022\017N\000\024\013\363\000\0373\363\000<(49\007\000\016\372\000\0377\264\000\f\0370}\002\002\005\020\000\0320\356\001\016\033\001\017o\000B\0134\001\03754\001\021\017F\001*)52\264\001(97\220\013\005\336\000\t\322\001\005#=\017-\000\003\013\303\000\0266QK\017\303\000\003\006\031\000\003\261\000\004\322\n\005h\000\006M\001\0310X\004\0360SH\017\352\003\025\0368\226\001\017\233\016\b(10\333\000\006\230\000\017?\000\f\013\n\001\0358\242\001\017\315\001\020/39`\b!\0318(\001\003\250\001\004\247\003\004\b\000\005\027\000\0362\335\000\017=\000\025\n\343\000/20\343\000\027\0370\260\001\"\0378\246\002\t.20\311\000\0175\000\r\013\301\000\0251sM/40\301\000\002\006\031\000\017\256\002\035)32\217\000\017'\000\005\016\325\002\017\366\001\036\0338c\004\0325i\000/16\370\001\004\017?\000\032\0139\001\03639\001\017\232\0263\013.\001\003&\001\017\275\000\005\013'\000\n\245\000-33\214\000\017\237\002;\013~\000\016 \024\017\263\000\020\n5\000\013f\001\0375\301\000b\f\017\005\017\302\000\023\017\006\005\003/27\303\000=\0372\303\000\n/50\273\000\031\017y\034\001\003kE\017\263\000W/98\263\000\031/98\263\000\000/31)\002M\017\\\004#\017T\004\032.35;\b\017\305\000+\0374\305\000\003/11\304\t\003/00\315\000\004\017?\000\032\013\325\000\0377\325\000=\0325\325\000\017\335\0004/08\345\000)\0378\016\006=\0322\205\b/11\305\000\002\rK\030\n\334\000/9 >\000\n\n\304\000-40\253\000\017\304\000\006\03598f\016D\030/75\367\006\031(10\264\b\004\017\000\003\330\000(75\004\032\0240#\000\037 3\000\001\013\325\000\004\004=\0267Y\031\013\303\000\005\355O\004\303\000(3 \016\023\016\013\002\0339y\002.01{,\0338\017\001\02571L\0053\n\0257\240K\004r\000\005\313$*04\332\000\0274a\000\004\230T\017F\002\031/10*\001\001\004\007\002\017e\001 \017B\002\004\0352\375\001\017m\001\007\017\221\027\031\0321w\f\013\030\001*98@\032\017\243\005\023\004\332\000\017U\000+\013\001\001\0374\001\001\r\006\031\000\017\001\001)*12\206\000)97\342\000\004\027\000\005/\000*14 \000\016\n\001\017^\0000\013\013\001\0376\013\001\021\0172\0132/12Sf\003)02\273\001\002<\000\005\201\002\f/\000\n\277\000\017\217)#/39\334\001!\0324O\001\np\016\ry\002/00~\001\002\006\356\000\0272\317\000\005\371P\017^\000,\013\035\001\0372\334\001O\0314\200\000\005\220\000\003\277\000\f\265\026\005\315\001/02\333\004\001\004\347\000\017\025\001\f\017V\000\005\013\376\000\0374\376\000)\017~\037\000\017\312\005\032\0374\270\001\003\005\224\003\0362\351\000\017/\000\007\013\331\000\017\263\003\000\017D\0132*14\245\001.17u\002\017\275\000\b\0177\000\f\013\305\000\0378\305\000=\0315?\021\0339@\003\0378\023\b\002\0321\322\000\004\030\000\004\332\000/5 L\000\037\n\347\000\017\035*\031\0359\201\013\017\203\003\033\017\371\000\021\r\361\000\0375\361\000\037\017\351\000\003\0372\351\000\037\016\211\005\017\342\001\031\005-\003\003p\016\004\230\000*98\037\000\017s\003\004/5 F\000!\013\365\000\004 E\017;\0305/51\343\000\003\003\225\000\017\304\000\r/10\245\000\001\016\214\000\017\245\000,\0372\245\000\f\0374\255\000\031\004/\000\n\265\000/71\265\000L\0341\364\004\017&\002\013\017/\000\004\013\265\000\0373\265\000=\0311n\000+97:\001\n\254\000\001\027\006\r&\000\013\243\000\0375X\001E\017\243\000\004\0374\253\000\030\017\013\002\004\0377\263\000=\0314\263\000\004\372\003\004\215\000)09\b\000/97\302\000\t\017=\000\023\013\321\000\0379\300\007E\0336\245\002\n\211\007/99\312\000\004\0176\000\021\n\303\000/81\303\000\037)3 \3217)98\221\003\t5\017\002\235-\002Xn\t(\006\0361l\000\017H\006\002\0334l\000\0339\242\b\bt\000\003\003\020\005\301H\r\202\020\013n\000\006 \000\017n\000\004\004_\000\f\352\004\no\000\0375o\0007\0316\203\002\017n\000\002\0377n\000L\0375u\000\001\0379u\000\036\017\207\000\017+9 \023\f\0315\244\b\t\201\000\006/M\017\367\000'/9 ;\002\017/62g\000E\n\022\005\003o\000/71o\000-\017&4\006\th\000/95h\000/(2 .\002\017\364\003\002\0348B\n\017o\000/\004\016\002\006O\001\0311\344\004\013y\000\0375y\0008\013j\004/00q\000\001\0378q\000\036\017\203\000\030*14\"\003\017\343\001\n\017\212\000'\016\031\017\005\212\000)8 \375\000\017\212\000\022\003\223\002\tk\000\017\213\000\025\017\000\006\006\006\213\000\005\220\001\0373{\000\001\0374{\000\036\017i\000\025\0175\035\001\0318\272c\017w\000+/9 p\002\002\n\344\007(8 A\024\017q\000\032\004\022\000\0258(\b\003\203\000-14,\000\005\226\000/12\273\023\t\0348\310\030\006B\000\017\216\000\025\017\021\001\007\017f\f\005\t{\000/64z\000\006\017h\000-\017\261\005\003\0373p\0007\017\211\f\n\0318\301a\017q\000+/6 \350\007\001\th\000/66g\000E\017G\001\003\0375o\000%\017\371\002\001\0176\032\034\0133y\0270X\000\005\207\026\007i\000\007\030\013\005\231\005\013\225\006\005\363\000\0376a\000\020*499\001\004\217\t\017\332\n\004\017@\001\002/85\257\001-\017v\000\024\017~\004\002.85\033\001\017~\000\002\006 \000\017~\000%\0378~\000\001\017\243S%/13\343\005\005)10\353\005\005G%\0370X\002\031\016\216\034\016\361\000\006\342\000\017m\004\020/87\346\0015\017w\000\r\017\347\001\003\0377\347\0015\017\177\000\000\017\350\001\020\0377\350\001%\016\177\000\0376\232\004\026/89t\0017\017v\000\n\017s\001\003\0379s\0017\016~\000\017r\001\016\0379r\001.)9 \"\003\017\333\006\n/52l\r5\017o\000\004\016c\001\tw\000\017d\001'\017w\000\r\0378w\000\002\017]\0015\006\217\004\002}\013\0051\037\ff\003\003\316\004\004\374\001\n\220\000/96~\001\036\016\022\000\017\242\000<\017\261\001\003/96\261\001\036\016\022\000\017\252\000>\0378\252\000\002\017\344\001\036\016\022\000\013\252\000\006\341\017\004g\002\017%\001\001\003\213S\t\235\001\016{\000\017\275\001\n\017i\000\006\017q\000\f\006d\001\016q\000\017\204\001\n\017q\000\b\0378q\000\t\006+\001\016q\000\017K\001#/99p\000\001\0379R\001F)99\017\000\016x\000\017Y\001D/99`\001\t\0379`\0017\013\037\020\017S\024\001\0035p\017`\0013\017p\000\003\016`\001\tx\000\017`\0010\016x\000\017`\001\006\006x\000\017`\001?\004\254\022/49x\000\000/19h\001F\013x\000\017p\001\003/19p\001F\r\200\000\0378\200\000\002\017x\001&\0050\f\0048\001+00\026\006\0369q\000\0327\021W\017v\001\027\016\022\000\017\210\000\035\016\201\001\016\220\000\017\206\001\027\016\022\000\017\220\000\037\0378\220\000\b\017\226\001\035\016\022\000\017\220\000\007\0309\375\n\n\177\000\0319\177\000\006m\001\016\177\000\n\215\001\017\022\000\013\017\221\000\032\016\250\001\016\231\000\006v\001\016\231\000\n\226\001\017\022\000\013\017\231\000\034\0378\231\000\016\006\177\001\016\231\000\n\237\001\017\022\000\013\017\231\000\033/20\215\023\005\005\231\000\006\207\001\016\231\000\n\247\001\016\022\000\017\207\000\034\016\301\001\016\217\000\006}\001\016\217\000\n\235\001\016\022\000\017\217\000\036\0378\217\000\016\006s\001\016\217\000\n\223\001\016\022\000\017\217\000\r\005\370\003/10\210\000\000\0316\210\000\006t\001\016\210\000\n\224\001\016\022\000\017\210\000\035\016\247\001\016\220\000\006u\001\016\220\000\n\225\001\016\022\000\017\220\000\037\0378\220\000\016\006v\001\016\220\000\n\226\001\016\022\000\r8\007+4 \326\f\0332\366\f\0376s\026\001\0357y\001\016\213\000\n\231\001\016\022\000\017\213\000%\016\263\001\t\223\000\006|\001\016\223\000\n\234\001\016\022\000\017\223\000'\0378\223\000\t\006\177\001\016\223\000\n\237\001\016\022\000\rA\002)5 s\000\005\213\000\003\177\016\0369\271\013\f\003\202\006B\033\017\265\001\007\017}\000*\016\242\001\017\205\000\037\016\225\001\017\205\000\036\017\n\001/\016\207\001\005\032\002*8 u\000\0337\327\003\t\206\005\n\204\000-30i\001\017\211\001\007\017\177\0001\017\220\001\003-30k\001\017\207\000\003\016\213\001\017\207\000%\0378\207\000\t\006m\001\017\215\001\025\0353\207\000\0338\325\016\013]\005.16\201\000\002\265+\005\023\002\r,6\017\224\001\000\017\206\0003\016\226\001\017\216\000\037\016\233\001\017\216\000'\0378\216\000\022\017\242\001<\0138\031\005\226\000/00\202\034\005\017\252\001I\017\216\000\f\017\262\001\003\0376\262\001M\017\226\000\016\0378\226\000.\016\272\001\r\343\003)11\353\003\004Q\017\0371\023\001\000\003D7\t\204\001\017\244\001\007\017x\000*/10\200\000\n\006n\001\017\216\001\007\017\200\000,\0378\200\000\t\006X\001\017x\0015/50p\000\000/33p\001F/50h\001\001\017\313@\016\017h\001.\005x\000\0378x\000\002\017`\001F\0379p\000\001/25`\001F/98\310\002\001\017jA\016\017`\001.\005x\000\017\360\000\003\017`\001&,3 x\000\017x\006\013\ty\000*58\266\004\f\235>\017n\001\000\017~\000+\016w\001\017\206\000\037\016|\001\017\206\000\037\0378\206\000\022\017\212\0014\017P\006\f\017>%\000\017\222\001A\017\206\000\f\017\232\001\002/64\232\001E\017\216\000\016\0378\216\000.\016\242\001\004\244\003\004\371#\0329}\000\n(\013-01d\001\0371\317=\006\017h\000\032\016k\001\tp\000\006F\001\017p\0006\0378p\000\t\006(\001\017p\000\025\0333p\000\005\307%\0317\345\001*98\315\017\017\216\003\004\t\227\000)38\344\001\017|\001\017\0370\234\000J\016\253\001\016\244\000\017\260\001\r\006 \000\017\244\000E\0378\244\000\b\017\344\001\023\006 \000\017\244\000\r*12~\000)97)\001\006\225\000\003/\000/14\235\000\000\017\344\001$\016\022\000\017\256\000D\004 \000\016\266\000\017\366\001 \016\022\000\017\266\000F\017\t\002\001\017\b\002$\016\022\000\017\266\000\035\006\b\000\004\354\005\0319\316\000\005\266\000\0370\215\007\000\t\266\000\006\360\001\016\266\000\n\020\002\017\266\000^\016*\002\r\276\000\006\370\001\016\276\000\n\030\002\017\276\000`\0378\276\000\r\006\214\000\016\276\000\n\254\000\017\276\000\020\0334\276\000\f\260\022\013\341\004*00/\000/14\3601\001\017+\002,\006\022\000\017\257\000D\017#\002\002/16$\002,\006\022\000\017\267\000F\0378\267\000\016\006\353\001\016\267\000\n\013\002\016\022\000\017\267\000\025\006\225/\0317\333\002\n\264\002\004\243\365\f\324\001\016\230\000\n\364\001\017\022\000\007\016\2033\017\252\000%\016$\004\016\262\000\006\317\001\016\262\000\n\357\001\016\022\000\017\262\000A\0378\262\000\016\006\312\001\016\262\000\n\352\001\016\022\000\017\262\000\031\013\256\002.16\232\000\0310\231\000\006\313\001\016\231\000\n\353\001\017u\000\035\016\311\001\r}\000\006\226\001\016}\000\n\266\001\017}\000\037\0378}\000\r\006a\001\016}\000\n\201\001\017}\000\006+11\021\002\n%\004\t}\000\002\352J\017x\0019\017~\000\f\017\200\001\002/42\201\001=\017\206\000\016\0378\206\000\001\017\212\0015\003\236\000\0339\265\005\0318\023\f)08\233\000\t\213\000/34\227\001$,9 Y\017\017\235\0002\017\266\001\002/34\266\001\036\017\245\000L\0378\245\000\001\017\325\001$\017\245\0005/10\271\017\001\017\337\001,\0255\205\035\017\225\000*\016\327\001\016\235\000\017\327\001\037\017\235\0006\0378\235\000\001\017\317\001,\016\235\000\004!\002\005\030\t*03\236\000\0319\b\000/97\226\000\000\005\361T\017\313\001\021\017\177\0001\016\272\001\t\207\000\017\265\001\021\017\207\0003\0378\207\000\003\017\237\001\035\r*\002*6 \312\n\013\311\005.99x\000\002\252O\005\034\002\017\213\001\021\017}\000*\016\204\001\016\205\000\017\211\001\021\017\205\000,\0378\205\000\b\017\207\001$%10q\221<889\020:\005\335\b\0378\2309\007\0306\371A\"8 \022\002\006\200\000\006`\000<905`\026/00h\000\036(70\343\177\006\000\017\003\353\f\0326\341\035\003\007\000\005v\241\006[\001\0351c\000\t\002\006\0306\243t\005\223k.35\221\000\017\257\013\001\017T\000\013\0379\274\343\016\004\225\204\004\2156+98\266\000\0374!\001\b\004_\000\t\207\001\t\007\000*33_\000\004H\000\r\250\020/05h\000\007&83h\000\tn\005\nl\000%9 \000\002/767?\003\000\354\223\0321\t\025\017\242\000\005/95\n\r\003*05*\003\0317.\000\017\327\000\032\0378\327\000,/34]\001\004/11L\004\000\003<\000\003\242/\017\314\004\022/12p\000\034\0375p\000\001.4 \341\000\017p\0004\0378p\000\001,7 \017\003\017p\000\025\r<o\n\326\001)97\024\003\005\003\002\0364\206\000\002C8\005LI&11{\005\017\335\001\003\0251\003Y\017\023\000\013/23\023\000\021\002\206S\006\331\000\0349\b\003\0231\033!\004\211\202\b?\005\0251X\243\005\\\t\005\310\002\003\222\316\005\022\001\0315\231\001\002\003\001\004V\001+18\314=\004\317\000\004n\006\017\2727\017\0311\275\005)32\367\001\005\007\002)10?\000\t&\222\f \352%11\272\237\005\327K\002\305\000*99V\000\0320a\"\f\375\001\0315c\003\004\204\000\004\027\000.16\024\002&40\024\002\n\214\001\004\224\004-41+\003\017\016\002\013/17\301\002\003)9 \264\000*08\b\000(11\362\000\t\245\000\002\006(\005\225\004\017\271\002\000\017\223\002\031\013\230\000\017\357\007\006\t\203\000\004[\366\0233O\000\0074\232\016\203\000\016-\001\t\022\000\0330\206\017\002\375\004\017\241\005\024\005\342*\0372~\000\000\0371s\000\f\004\233\001\006e\005\003:\002\006\326\002\0361s\000\002\020M\017r\000\003-9 \224\001\r`\001*3 d\000+16\020\000\0370x\001\007\005\023\004\0242h\000\0253?\t\017A\005\023\005\324\002\006\276]\006\233\000\0318\224\002\005h\b\0375X\b\000\0313\001\002\017\310\005\r\006 \000\0370t\000\004\016\376\t\017w\002\001\0346w\002\0379w\000\r\017\211\000\027\0379\221\003&/27\221\003&\017\206\000\006\013~\000\013\035\002\t\177\000\005K\006\0343\350\002\017\024\002\007\017\221\000&*15\266\002\003\027\001\005\255\032\03794\002\007\003PL\006\277\001\006v\000\017\251\000\003_11445\274\000\037\007\267\005<450\341\006/9 \032\b\001\004\366\001\013;\006\003\346\000\0300]\f\0374\"\001\006\017\032\001\021\n\022\001\002\177P\017\272\001\026\017\021\001%\003f\000\007\371\f\0335\244\000\0374\360\000\000\f\314\r\017\360\004\023\016\207\000\017\t\t\033-42\255\000\017\327\013>\005\265\226\0372\324\000\000\0321\242\000\006\224\001\0330\375\263\002h\002\007<\002\0310\312\004\nr\000\005!\013\fV\000\nv\000\0343]\000\004\330\000\004e\000\0330\031\004/11^\002\006/38\227\004\000\017\305\001&\rL\002*5 3\003\017\006\001\022\0269\006\001\017\207\000\005\0055\331\003r\000\004c\f\007r\000\0376\266\002\002\005\316\002\017{\000\002/17T\r\036\0279Q\237\0370c\004\005\005\201\007\017\250\000 \0378\250\000\000-76\253\006\017\250\000 \016\276\002\017N\001&/17\256\000\b\005\213\200\b\223\f\017\257\0009\0343\257\000\004R%*15\257\000\004\000\004\007p\021\006\247\000\003\020\022\017g\005\024\006\253\000\r\206\000\013>\006/154\001\003/095\007\001\013\224\000\0318\225\000\007k\003\017\226\000\003\007k\002\006\023\000?768\017\007\0308773O\027\n#\007\017\345\000\000\017\335\000\021\013\325\000\0371j\001\032\017\324\000\002\005\222\000\003\301\000\0372\f\016\002\r\212\016(17\037\000*99\017\006'20\256\000\004\337\001)11\203\235\017\203\242\f/10\203\242\020/14\203\242\020\006\177\001\017^\242\b&31%\000/44%\000\005\0262%\000/65%\000\005\03639\242\016%\000\0375\250\242\020\005K\225\017Z\242\017\003\265\326\0325\226\001\017\274\001)\0325\337\005\f*\f\0376\362\001\n\017\327\016\013)11]\235\013\t\002\017\273\002\002\006'4\016\022\000\n\007\000\b8\002-41\370\f\0378\326\000\n\0329b\004\tn\003\002}\005\017\376\026\r\0327\017\000\016X\t-11c\000\t\316\000\0306\237\207\f\252\026\t\221\000\r\266\b\004,\004\017T\000\006\0379\376\026\016\004\020\n\004_\002\f\347\001\0370!\001\b\005}\021\017\350\t!/33\253\001\004/97\335\005\016\004t\001\0343\370\000\017|\000\003\006 \000\017|\000\r\017'\002\005\t~\000\004\253\244\0373\313\0027\0047\b\017\350\025\r/10\220\000\000\003O\007\tX\000\017z\007\007\017\257\b,\017\211\000\t\003\027\244\017\211\000\032\0379]\tY\017\266\000\004\0255o\307\0371\265\000q\017\264\030\002\002v\b\016\373\034\017\246\000\025\017\224\000-\n \003\013\234\000.6 \022\035\017\234\000%*12S\020$38+\000\017\360\256\000\0303\336\027\017\357\256\004\0303|\026\000$\000\017\353\255\000\0303|\016\017\022\257\004\0303\005\036\017\301\254\004\004$\000\0379\313\b\b\003$\000$54$\000/08$\000\006\0375\021\260\b\0333caO4742#\000\004\005C\001\017\304\257\000\fy\343\016\303\257\005$\000/60\302\257\b\004$\000\0371\301\257\b\0303\363\020\017\300\257\004\004$\000\0373G\254\b\0303\3664\017\231\257\004\004$\000\0375\230\257\b\0303\301\036\017\227\257\004\fz\374\017\226\257\001\0333d\223\016\225\257\005$\000/70\224\257\b\f\333\370\017\223\257\001\0333H\222\017\222\257\001\0333\216\221\017\221\257\001\0333\335Z\017k\257\001\0303o\007\017j\257\004\004$\000\0377i\257\b\0333\202\220\017h\257\001\0303\263\b\017g\257\004\0303\231\t\017f\257\004\0303\364\305\017e\257\004\0303V\037\017d\257\004\0333I\216\007c\257/32\026g\020\004\307\b\0329I\005\003\317\b\0056\033\t\355\005\004\r\003\0175\000\f\0270y\016\007\272\003\r\032\006\016\031\000\0370\250h\030\017\301\000\r\0314\224\000\017\311\000\034\0374\321\000\b/61\250hC+97\205\000\003\b\000)10\215\000\016\312\000\0176\000\021\013\303\000\0373\224\001J\017\215\000\000\017\225\001\030\017>\000\025\013\323\000\0375\323\000L\0326\017\000\0360\364?\016\b\000\0330\331\000\017D\000\021\013\327\000\0378\327\000\021\017\177\002:\017\245\000\002\004\236\000\n\246\000\016\332\000\0175\000\002\013\323\000\0379\252\001a\016|\002\017\311\000\032\0374\321\000\b/71\021\004D\0329j\016\013\374\n/02\224\000\000\005Y \0175\000\013\013\301\000\0373\301\000J\006\017\020\003\321\003)08\215\000\017\302\000\003\0176\000\r\013\303\000\0375\303\000=\0377\"\006\003\0372\210\026\003\0370\333\022\004/02\353\000\013\017^\0002\013\013\001\0379\013\001\021\017\336p1\r\035\001\0315\227\000\n\237\000\016\355\000\0375\305\000\b/83\223\002K\r\205\000\0374\273\000\"\0374\303\000\002\017\363a\r\017\303\000+\005\031\003\0321~\000)99\017\000\013\225\000\005X#\0176\000\013\n\303\000/96\027sD\017\303\000\004\017\274\000\034\017\265\000\003\003/\000\017y\001H)20\257\003/50\226\000\t\005\275\000\0176\000\013\f\304\000\0378z\001L\013\216\000/10\275\000\032\017\266\000\005\0379\333\007C\017\266\000\007\0319kJ/02\305\000\033\016>\000\016\324\000/11N\002E\0302k\b+98[\004\0372\313\000\002/2 5\000\020\f\302\000\0372\302\000K\r\226\026\003X\001\006 \000\0372\237\000\001\005\210\037\017?\000\f\f\316\000\0374\316\000\021\017v\0023\0322z\b\005\377\005\0371\217\004\021\006\340\000\017?\000\023\013\350\000/24\002\004E\0312g\001+97\027\000\017\b\000\003\0340\325\000\017>\000\002\f\304\000\017\276\f*\017\236\0025\n\252\000+20\037\000\0372\302\000\001\016\350\000\017>\000\002\013\360\000.32\360\000\017\336\000S\005=\003\017y\n\022\r\337\000\016?\000\017\340\000\003\0374\340\000f+11-\004\0372\340\000\032\016?\000\017\340\000\002\0376\\\004^/14\230\007\032\017\022\204\003\005\357\000\017N\000\024\f\367\000\017\247\003 \016\001@\017\367\000\023\0334\342\f\0322\240\001\017\335\016\004\013\271\000\002\261!\017G\000\027\013\360\000\017+\214!\017\347\001%\0375\004\006\003)03\301\007/02\347\000\002/5 >\000\031\f\346\000\0352\364\033\017\346\000\006\017\324\000\033\0338L\003\017\273\002\023\f\264\002/8 G\000\032\013\336\000/55\304\001!/39Y\203 *08v\001\0327[\004\013\"\006\0360\267\000\t\356\000\017E\000\031\f\364\000\017R\016>\f\342\000\0338G\004\013\026\006\017\236\003\004\0340\344\000\017G\000\033\013\346\000.66\246\037\017l\2353\0378\237\000\003\004V\003\005\022#\0330\231\002\0372\356\000\004\017O\000*\f\366\000\0368\366\000\017\256\003:)11\201\002\n\202y\004\225\000\013\235\000\005\344\000\017=\000\022\013\322\000\016\367\203\017\322\000R\016\177\004\017\323\000\031\017v\004\005\017(\204F\0373\324\000\n/50\314\000!\017[\020\013/77\304\000[/98\304\000!\017\334\006\013/81\035\rE\017\304\000\003\004\207\000\017\275\000\024\017\266\000\005\0372\022\003M\017\270\005+\017?\000\024\f\326\000\0367\263.\017\226\006:/14\250\0052\017G\000\034\f\346\000\0379\346\000=\0323\002\b/11\316\000\n\r\001\f\n\345\000/9 F\000\022\013\325\000\0369\274\000\017\325\000\006\0164\227\017\347\000\022\013+\006\0321\355\t)97\234\001*98\327\013\017\310\002\033\005H!\017]\0002\n+\001\016\345W\017+\001\b\017\031\0010*12\226\000)97\235\000\006\255\000\003/\000*14 \000/02\315\000\001\f\"\001\017f\000,\f#\001\0375#\001\021\017\247\0052*12\357\002)19\231\000\f\b\000\003\251\000\0231\\\000\0167\000\017\320\000\002/31\320\000N\f\005\002\0324p\001\f\026\f\013\262\002/00\237\001\n\017\006\001\005/4 f\0009\f5\001\0379\005\002O\0335\211\000\n\310\000\017\033Q\007\0372S\021\030\017&\001\005\017^\000\r\013\017\001/45\017\001)\017m\021\006/44[\006\021/14\322\001\003)16\263\000\013\273\000\006\372\000\0177\000\013\n\352\000\0330\3418\004\303\000\017\356\000\006\017\341\b\032*14m\001/17\244\002\004\0372\322\000\004\017?\000\032\f1\013/0 \326\000\035/44\221\016\021\003\267\031\0339\200\003\0318\257\006+08\254\000\0332\b\000\0318\353\000\0032-\017T\000\"\n\370\000\0373\323\001\036\016#\t\017\017\001\023\0375\017\001\030\017\007\001\006\0375\007\001\037\017\377\000\n/22\377\000%\rg\022/44\324\006\022\0375w\003\003/02\246\000\001\004\342\000\016/\000\017\315\000\001\0375\314\001\036\017i\004\033\017\273\000\005\0314\224\000\017\303\000\026\0374\313\000\t\0374\313\000R\005\347\005\03744\005\022\003T\000\0177\000\r\013\313\000\0378\313\000C\0312|\000+97^\001\0372\223\000\001\00476\017.\000\004\n\271\000/60\204\001K\017\271\000\004\0374\301\000\"\0374\311\000\t\0372\311\000C\0315\311\000\004\027\020\004\233\000)09\b\000)97\242\000\017\330\000\004\017E\000\033\013\347\000\0374\347\000C\0324\347\000/14_\007\002)99\233\000\013\243\000\005\340\000\017>\000\023\013\331\000\0376\331\000%\0355\032\000\006:3$43\2463\03285\000\0337\016\001\0235{,\003\305\276\b\007\000\004\025\000\0309*\000\003p\335(73M\001\0326#\000\03048\000\0378#\000\001\003\007\000\0300\242\000\0257\251\000\360\r\t}\n.section\t.debug_loc\t{\t}\n\000\000"
	.size	.L__unnamed_2, 31824

	.type	__cuda_fatbin_wrapper,@object   # @__cuda_fatbin_wrapper
	.section	.nvFatBinSegment,"aw",@progbits
	.p2align	3, 0x0
__cuda_fatbin_wrapper:
	.long	1180844977                      # 0x466243b1
	.long	1                               # 0x1
	.quad	.L__unnamed_2
	.quad	0
	.size	__cuda_fatbin_wrapper, 24

	.type	__cuda_gpubin_handle,@object    # @__cuda_gpubin_handle
	.local	__cuda_gpubin_handle
	.comm	__cuda_gpubin_handle,8,8
	.section	.init_array,"aw",@init_array
	.p2align	3, 0x0
	.quad	__cuda_module_ctor
	.file	5 "/nethome/cahn45" "llvm-vortex-with-cuda-build/lib/clang/18/include/__clang_cuda_math_forward_declares.h"
	.file	6 "/usr/include" "stdlib.h"
	.file	7 "/usr/lib/gcc/x86_64-linux-gnu/13/../../../../include/c++/13/bits" "std_abs.h"
	.file	8 "/usr/include/x86_64-linux-gnu/bits" "mathcalls.h"
	.file	9 "/usr/lib/gcc/x86_64-linux-gnu/13/../../../../include/c++/13" "cmath"
	.file	10 "/usr/include" "math.h"
	.file	11 "/usr/lib/gcc/x86_64-linux-gnu/13/../../../../include/c++/13" "cstdlib"
	.file	12 "/nethome/cahn45" "llvm-vortex-with-cuda-build/lib/clang/18/include/__stddef_size_t.h"
	.file	13 "/usr/lib/gcc/x86_64-linux-gnu/13/../../../../include/c++/13" "stdlib.h"
	.file	14 "/nethome/cahn45" "llvm-vortex-with-cuda-build/lib/clang/18/include/__clang_cuda_math.h"
	.file	15 "/nethome/cahn45" "llvm-vortex-with-cuda-build/lib/clang/18/include/__clang_cuda_cmath.h"
	.file	16 "/usr/include/x86_64-linux-gnu/bits/types" "FILE.h"
	.section	".note.GNU-stack","",@progbits
	.addrsig
	.addrsig_sym _Z5fatalPc
	.addrsig_sym fprintf
	.addrsig_sym _Z11writeoutputPfiiPc
	.addrsig_sym fopen
	.addrsig_sym printf
	.addrsig_sym sprintf
	.addrsig_sym fputs
	.addrsig_sym fclose
	.addrsig_sym _Z9readinputPfiiPc
	.addrsig_sym fgets
	.addrsig_sym feof
	.addrsig_sym __isoc99_sscanf
	.addrsig_sym _Z29__device_stub__calculate_tempiPfiii
	.addrsig_sym __cudaPopCallConfiguration
	.addrsig_sym cudaLaunchKernel
	.addrsig_sym _Z17compute_tran_tempPfPS_iiiiiiii
	.addrsig_sym __cudaPushCallConfiguration
	.addrsig_sym cudaDeviceSynchronize
	.addrsig_sym _Z5usageiPPc
	.addrsig_sym exit
	.addrsig_sym cudaSetDevice
	.addrsig_sym _Z3runiPPc
	.addrsig_sym atoi
	.addrsig_sym malloc
	.addrsig_sym calloc
	.addrsig_sym cudaMalloc
	.addrsig_sym cudaMemcpy
	.addrsig_sym cudaFree
	.addrsig_sym free
	.addrsig_sym __cuda_register_globals
	.addrsig_sym __cudaRegisterFunction
	.addrsig_sym __cudaRegisterFatBinary
	.addrsig_sym __cuda_module_ctor
	.addrsig_sym __cudaRegisterFatBinaryEnd
	.addrsig_sym __cudaUnregisterFatBinary
	.addrsig_sym __cuda_module_dtor
	.addrsig_sym atexit
	.addrsig_sym t_chip
	.addrsig_sym chip_height
	.addrsig_sym chip_width
	.addrsig_sym stderr
	.addrsig_sym .L__unnamed_2
	.addrsig_sym __cuda_fatbin_wrapper
	.addrsig_sym __cuda_gpubin_handle