
kernel.elf:	file format elf64-littleriscv

Disassembly of section .init:

0000000180000000 <_start>:
180000000: f3 22 10 fc 	csrr	t0, nw
180000004: 17 13 00 00 	auipc	t1, 0x1
180000008: 13 03 03 9a 	addi	t1, t1, -0x660
18000000c: 0b 90 62 00 	vx_wspawn	t0, t1
180000010: 93 02 f0 ff 	li	t0, -0x1
180000014: 0b 80 02 00 	vx_tmc	t0
180000018: ef 00 50 14 	jal	0x18000095c <init_regs>
18000001c: 93 02 10 00 	li	t0, 0x1
180000020: 0b 80 02 00 	vx_tmc	t0
180000024: f3 22 10 fc 	csrr	t0, nw
180000028: 17 13 00 00 	auipc	t1, 0x1
18000002c: 13 03 03 99 	addi	t1, t1, -0x670
180000030: 0b 90 62 00 	vx_wspawn	t0, t1
180000034: 93 02 f0 ff 	li	t0, -0x1
180000038: 0b 80 02 00 	vx_tmc	t0
18000003c: ef 00 10 19 	jal	0x1800009cc <__init_tls>
180000040: 93 02 10 00 	li	t0, 0x1
180000044: 0b 80 02 00 	vx_tmc	t0
180000048: 17 45 00 00 	auipc	a0, 0x4
18000004c: 13 05 85 7c 	addi	a0, a0, 0x7c8
180000050: 17 56 00 00 	auipc	a2, 0x5
180000054: 13 06 86 80 	addi	a2, a2, -0x7f8
180000058: 33 06 a6 40 	sub	a2, a2, a0
18000005c: 93 05 00 00 	li	a1, 0x0
180000060: ef 30 40 23 	jal	0x180003294 <memset>
180000064: ef 00 10 1b 	jal	0x180000a14 <__libc_init_array>
180000068: ef 00 00 08 	jal	0x1800000e8 <main>
18000006c: 6f 00 40 00 	j	0x180000070 <exit>

Disassembly of section .text:

0000000180000070 <exit>:
180000070: 13 01 01 ff 	addi	sp, sp, -0x10
180000074: 23 34 11 00 	sd	ra, 0x8(sp)
180000078: 23 30 81 00 	sd	s0, 0x0(sp)
18000007c: 13 04 05 00 	mv	s0, a0
180000080: ef 00 90 22 	jal	0x180000aa8 <__funcs_on_exit>
180000084: ef 20 10 46 	jal	0x180002ce4 <libc_exit_fini>
180000088: ef 20 90 45 	jal	0x180002ce0 <dummy>
18000008c: 13 05 04 00 	mv	a0, s0
180000090: ef 00 90 0b 	jal	0x180000948 <_Exit>

0000000180000094 <vx_barrier>:
180000094: 0b 40 b5 00 	vx_bar	a0, a1
180000098: 67 80 00 00 	ret

000000018000009c <_Z44cuda_calculate_tempiPfS_S_iiiiffffff_wrapperPv>:
18000009c: 97 45 00 00 	auipc	a1, 0x4
1800000a0: 83 b5 45 6b 	ld	a1, 0x6b4(a1)
1800000a4: b3 85 45 00 	add	a1, a1, tp
1800000a8: 03 a6 05 00 	lw	a2, 0x0(a1)
1800000ac: 23 20 c2 00 	sw	a2, 0x0(tp)
1800000b0: 03 a6 45 00 	lw	a2, 0x4(a1)
1800000b4: 23 22 c2 00 	sw	a2, 0x4(tp)
1800000b8: 83 a5 85 00 	lw	a1, 0x8(a1)
1800000bc: 17 46 00 00 	auipc	a2, 0x4
1800000c0: 03 36 c6 68 	ld	a2, 0x68c(a2)
1800000c4: 23 24 b2 00 	sw	a1, 0x8(tp)
1800000c8: 33 06 46 00 	add	a2, a2, tp
1800000cc: 83 25 06 00 	lw	a1, 0x0(a2)
1800000d0: 23 26 b2 00 	sw	a1, 0xc(tp)
1800000d4: 83 25 46 00 	lw	a1, 0x4(a2)
1800000d8: 23 28 b2 00 	sw	a1, 0x10(tp)
1800000dc: 83 25 86 00 	lw	a1, 0x8(a2)
1800000e0: 23 2a b2 00 	sw	a1, 0x14(tp)
1800000e4: 6f 00 d0 02 	j	0x180000910 <calculate_tempiPfS_S_iiiiffffff_wrapper>

00000001800000e8 <main>:
1800000e8: 13 01 01 fd 	addi	sp, sp, -0x30
1800000ec: 23 34 11 02 	sd	ra, 0x28(sp)
1800000f0: 23 30 81 02 	sd	s0, 0x20(sp)
1800000f4: 23 3c 91 00 	sd	s1, 0x18(sp)
1800000f8: 23 38 21 01 	sd	s2, 0x10(sp)
1800000fc: 23 34 31 01 	sd	s3, 0x8(sp)
180000100: 23 30 41 01 	sd	s4, 0x0(sp)
180000104: 73 24 00 34 	csrr	s0, mscratch
180000108: 83 29 44 04 	lw	s3, 0x44(s0)
18000010c: 93 04 84 04 	addi	s1, s0, 0x48
180000110: 93 99 39 00 	slli	s3, s3, 0x3
180000114: 03 25 04 00 	lw	a0, 0x0(s0)
180000118: 33 89 34 01 	add	s2, s1, s3
18000011c: 97 45 00 00 	auipc	a1, 0x4
180000120: 03 26 44 00 	lw	a2, 0x4(s0)
180000124: 23 aa a5 6e 	sw	a0, 0x6f4(a1)
180000128: 17 45 00 00 	auipc	a0, 0x4
18000012c: 83 25 84 00 	lw	a1, 0x8(s0)
180000130: 23 26 c5 6e 	sw	a2, 0x6ec(a0)
180000134: 17 45 00 00 	auipc	a0, 0x4
180000138: 03 26 84 01 	lw	a2, 0x18(s0)
18000013c: 23 22 b5 6e 	sw	a1, 0x6e4(a0)
180000140: 17 45 00 00 	auipc	a0, 0x4
180000144: 83 25 04 02 	lw	a1, 0x20(s0)
180000148: 23 2e c5 6c 	sw	a2, 0x6dc(a0)
18000014c: 17 45 00 00 	auipc	a0, 0x4
180000150: 83 26 c4 03 	lw	a3, 0x3c(s0)
180000154: 23 2c b5 6c 	sw	a1, 0x6d8(a0)
180000158: 03 25 c4 01 	lw	a0, 0x1c(s0)
18000015c: 97 45 00 00 	auipc	a1, 0x4
180000160: 23 a8 d5 6c 	sw	a3, 0x6d0(a1)
180000164: 97 46 00 00 	auipc	a3, 0x4
180000168: 83 35 09 00 	ld	a1, 0x0(s2)
18000016c: 23 ae a6 6a 	sw	a0, 0x6bc(a3)
180000170: 33 05 c5 02 	mul	a0, a0, a2
180000174: 17 46 00 00 	auipc	a2, 0x4
180000178: 23 2a a6 6a 	sw	a0, 0x6b4(a2)
18000017c: 63 82 05 04 	beqz	a1, 0x1800001c0 <main+0xd8>
180000180: 17 35 00 00 	auipc	a0, 0x3
180000184: 13 05 05 2d 	addi	a0, a0, 0x2d0
180000188: ef 00 90 1c 	jal	0x180000b50 <vx_printf>
18000018c: 03 35 09 00 	ld	a0, 0x0(s2)
180000190: 63 08 05 02 	beqz	a0, 0x1800001c0 <main+0xd8>
180000194: 13 0a 00 00 	li	s4, 0x0
180000198: b3 89 89 00 	add	s3, s3, s0
18000019c: 93 89 09 06 	addi	s3, s3, 0x60
1800001a0: 03 b5 09 ff 	ld	a0, -0x10(s3)
1800001a4: 83 b5 89 ff 	ld	a1, -0x8(s3)
1800001a8: 03 b6 09 00 	ld	a2, 0x0(s3)
1800001ac: ef 20 d0 39 	jal	0x180002d48 <memcpy>
1800001b0: 03 35 09 00 	ld	a0, 0x0(s2)
1800001b4: 13 0a 1a 00 	addi	s4, s4, 0x1
1800001b8: 93 89 89 01 	addi	s3, s3, 0x18
1800001bc: e3 62 aa fe 	bltu	s4, a0, 0x1800001a0 <main+0xb8>
1800001c0: 03 25 04 04 	lw	a0, 0x40(s0)
1800001c4: 13 15 35 00 	slli	a0, a0, 0x3
1800001c8: 97 45 00 00 	auipc	a1, 0x4
1800001cc: 93 85 05 64 	addi	a1, a1, 0x640
1800001d0: 33 85 a5 00 	add	a0, a1, a0
1800001d4: 83 36 05 00 	ld	a3, 0x0(a0)
1800001d8: 13 05 30 00 	li	a0, 0x3
1800001dc: 93 05 04 00 	mv	a1, s0
1800001e0: 13 06 00 00 	li	a2, 0x0
1800001e4: 13 87 04 00 	mv	a4, s1
1800001e8: 83 30 81 02 	ld	ra, 0x28(sp)
1800001ec: 03 34 01 02 	ld	s0, 0x20(sp)
1800001f0: 83 34 81 01 	ld	s1, 0x18(sp)
1800001f4: 03 39 01 01 	ld	s2, 0x10(sp)
1800001f8: 83 39 81 00 	ld	s3, 0x8(sp)
1800001fc: 03 3a 01 00 	ld	s4, 0x0(sp)
180000200: 13 01 01 03 	addi	sp, sp, 0x30
180000204: 6f 00 d0 51 	j	0x180000f20 <vx_spawn_threads>

0000000180000208 <_Z14calculate_tempiPfS_S_iiiiffffff>:
180000208: 13 01 01 f7 	addi	sp, sp, -0x90
18000020c: 23 34 11 08 	sd	ra, 0x88(sp)
180000210: 23 30 81 08 	sd	s0, 0x80(sp)
180000214: 23 3c 91 06 	sd	s1, 0x78(sp)
180000218: 23 38 21 07 	sd	s2, 0x70(sp)
18000021c: 23 34 31 07 	sd	s3, 0x68(sp)
180000220: 23 30 41 07 	sd	s4, 0x60(sp)
180000224: 23 3c 51 05 	sd	s5, 0x58(sp)
180000228: 23 38 61 05 	sd	s6, 0x50(sp)
18000022c: 23 34 71 05 	sd	s7, 0x48(sp)
180000230: 23 30 81 05 	sd	s8, 0x40(sp)
180000234: 23 3c 91 03 	sd	s9, 0x38(sp)
180000238: 23 38 a1 03 	sd	s10, 0x30(sp)
18000023c: 23 34 b1 03 	sd	s11, 0x28(sp)
180000240: 13 04 01 09 	addi	s0, sp, 0x90
180000244: 93 89 07 00 	mv	s3, a5
180000248: 13 89 06 00 	mv	s2, a3
18000024c: 97 46 00 00 	auipc	a3, 0x4
180000250: 93 86 c6 5d 	addi	a3, a3, 0x5dc
180000254: 83 e2 06 00 	lwu	t0, 0x0(a3)
180000258: 13 bf 12 00 	seqz	t5, t0
18000025c: 93 86 f2 00 	addi	a3, t0, 0xf
180000260: 93 f6 06 ff 	andi	a3, a3, -0x10
180000264: 33 03 d1 40 	sub	t1, sp, a3
180000268: 13 01 03 00 	mv	sp, t1
18000026c: 93 96 22 00 	slli	a3, t0, 0x2
180000270: 93 86 f6 00 	addi	a3, a3, 0xf
180000274: 93 f6 06 ff 	andi	a3, a3, -0x10
180000278: b3 0d d1 40 	sub	s11, sp, a3
18000027c: 13 81 0d 00 	mv	sp, s11
180000280: b3 00 d1 40 	sub	ra, sp, a3
180000284: 13 81 00 00 	mv	sp, ra
180000288: b3 07 d1 40 	sub	a5, sp, a3
18000028c: 23 3c f4 f6 	sd	a5, -0x88(s0)
180000290: 13 81 07 00 	mv	sp, a5
180000294: b3 07 d1 40 	sub	a5, sp, a3
180000298: 23 38 f4 f6 	sd	a5, -0x90(s0)
18000029c: 13 81 07 00 	mv	sp, a5
1800002a0: b3 03 d1 40 	sub	t2, sp, a3
1800002a4: 13 81 03 00 	mv	sp, t2
1800002a8: 33 0e d1 40 	sub	t3, sp, a3
1800002ac: 13 01 0e 00 	mv	sp, t3
1800002b0: b3 0e d1 40 	sub	t4, sp, a3
1800002b4: 13 81 0e 00 	mv	sp, t4
1800002b8: 63 8e 02 1c 	beqz	t0, 0x180000494 <_Z14calculate_tempiPfS_S_iiiiffffff+0x28c>
1800002bc: 6f 00 40 00 	j	0x1800002c0 <_Z14calculate_tempiPfS_S_iiiiffffff+0xb8>
1800002c0: 23 30 14 f8 	sd	ra, -0x80(s0)
1800002c4: 23 34 b4 f9 	sd	s11, -0x78(s0)
1800002c8: 23 38 24 f9 	sd	s2, -0x70(s0)
1800002cc: 13 0a 02 00 	mv	s4, tp
1800002d0: 93 0a 42 00 	addi	s5, tp, 0x4
1800002d4: 97 46 00 00 	auipc	a3, 0x4
1800002d8: 93 86 86 54 	addi	a3, a3, 0x548
1800002dc: 03 ab 06 00 	lw	s6, 0x0(a3)
1800002e0: 9b 16 15 00 	slliw	a3, a0, 0x1
1800002e4: 93 0f 00 01 	li	t6, 0x10
1800002e8: bb 8b df 40 	subw	s7, t6, a3
1800002ec: 93 0c 00 00 	li	s9, 0x0
1800002f0: 6f 00 80 08 	j	0x180000378 <_Z14calculate_tempiPfS_S_iiiiffffff+0x170>
1800002f4: 53 77 a7 18 	fdiv.s	fa4, fa4, fa0
1800002f8: b7 05 80 3f 	lui	a1, 0x3f800
1800002fc: d3 87 05 f0 	fmv.w.x	fa5, a1
180000300: d3 f5 b7 18 	fdiv.s	fa1, fa5, fa1
180000304: 53 f6 c7 18 	fdiv.s	fa2, fa5, fa2
180000308: d3 f7 d7 18 	fdiv.s	fa5, fa5, fa3
18000030c: 9b 05 fd 00 	addiw	a1, s10, 0xf
180000310: 1b 06 fc 00 	addiw	a2, s8, 0xf
180000314: bb 06 a0 41 	negw	a3, s10
180000318: 1b 58 fd 41 	sraiw	a6, s10, 0x1f
18000031c: 33 7a d8 00 	and	s4, a6, a3
180000320: 9b 86 09 00 	sext.w	a3, s3
180000324: b3 a6 d5 00 	slt	a3, a1, a3
180000328: bb 87 b9 40 	subw	a5, s3, a1
18000032c: 9b 87 e7 00 	addiw	a5, a5, 0xe
180000330: b3 f5 d7 0e 	czero.nez	a1, a5, a3
180000334: 93 07 f0 00 	li	a5, 0xf
180000338: b3 d6 d7 0e 	czero.eqz	a3, a5, a3
18000033c: b3 ea b6 00 	or	s5, a3, a1
180000340: bb 05 80 41 	negw	a1, s8
180000344: 9b 56 fc 41 	sraiw	a3, s8, 0x1f
180000348: 33 fb b6 00 	and	s6, a3, a1
18000034c: 9b 05 07 00 	sext.w	a1, a4
180000350: b3 25 b6 00 	slt	a1, a2, a1
180000354: 3b 07 c7 40 	subw	a4, a4, a2
180000358: 1b 07 e7 00 	addiw	a4, a4, 0xe
18000035c: 33 76 b7 0e 	czero.nez	a2, a4, a1
180000360: b3 d5 b7 0e 	czero.eqz	a1, a5, a1
180000364: b3 eb c5 00 	or	s7, a1, a2
180000368: 93 05 00 00 	li	a1, 0x0
18000036c: 83 3d 84 f8 	ld	s11, -0x78(s0)
180000370: 83 30 04 f8 	ld	ra, -0x80(s0)
180000374: 6f 00 40 14 	j	0x1800004b8 <_Z14calculate_tempiPfS_S_iiiiffffff+0x2b0>
180000378: 83 26 0a 00 	lw	a3, 0x0(s4)
18000037c: 83 a4 0a 00 	lw	s1, 0x0(s5)
180000380: bb c0 6c 03 	divw	ra, s9, s6
180000384: bb 8f 60 03 	mulw	t6, ra, s6
180000388: bb 8f fc 41 	subw	t6, s9, t6
18000038c: 1b 8c 0c 00 	sext.w	s8, s9
180000390: 93 1d 2c 00 	slli	s11, s8, 0x2
180000394: 33 8c be 01 	add	s8, t4, s11
180000398: 23 20 fc 01 	sw	t6, 0x0(s8)
18000039c: 33 0c be 01 	add	s8, t3, s11
1800003a0: 23 20 1c 00 	sw	ra, 0x0(s8)
1800003a4: bb 84 74 03 	mulw	s1, s1, s7
1800003a8: 3b 8d 14 41 	subw	s10, s1, a7
1800003ac: bb 86 76 03 	mulw	a3, a3, s7
1800003b0: 3b 8c 06 41 	subw	s8, a3, a6
1800003b4: 3b 89 a0 01 	addw	s2, ra, s10
1800003b8: bb 86 8f 01 	addw	a3, t6, s8
1800003bc: bb 04 e9 02 	mulw	s1, s2, a4
1800003c0: bb 84 d4 00 	addw	s1, s1, a3
1800003c4: b3 8d b3 01 	add	s11, t2, s11
1800003c8: 23 a0 9d 00 	sw	s1, 0x0(s11)
1800003cc: 93 2d 09 00 	slti	s11, s2, 0x0
1800003d0: 93 cd fd ff 	not	s11, s11
1800003d4: 9b 87 09 00 	sext.w	a5, s3
1800003d8: b3 27 f9 00 	slt	a5, s2, a5
1800003dc: b3 f7 fd 00 	and	a5, s11, a5
1800003e0: 8b ad 17 00 	vx_split_n	s11, a5
1800003e4: 63 82 07 08 	beqz	a5, 0x180000468 <_Z14calculate_tempiPfS_S_iiiiffffff+0x260>
1800003e8: 6f 00 40 00 	j	0x1800003ec <_Z14calculate_tempiPfS_S_iiiiffffff+0x1e4>
1800003ec: 9b 86 06 00 	sext.w	a3, a3
1800003f0: 93 a7 06 00 	slti	a5, a3, 0x0
1800003f4: 93 c7 f7 ff 	not	a5, a5
1800003f8: 1b 09 07 00 	sext.w	s2, a4
1800003fc: b3 a6 26 01 	slt	a3, a3, s2
180000400: b3 f7 d7 00 	and	a5, a5, a3
180000404: 8b a6 17 00 	vx_split_n	a3, a5
180000408: 63 8a 07 04 	beqz	a5, 0x18000045c <_Z14calculate_tempiPfS_S_iiiiffffff+0x254>
18000040c: 6f 00 40 00 	j	0x180000410 <_Z14calculate_tempiPfS_S_iiiiffffff+0x208>
180000410: 9b 84 04 00 	sext.w	s1, s1
180000414: 93 94 24 00 	slli	s1, s1, 0x2
180000418: b3 07 96 00 	add	a5, a2, s1
18000041c: 87 a7 07 00 	flw	fa5, 0x0(a5)
180000420: 9b 80 00 00 	sext.w	ra, ra
180000424: 9b 8f 0f 00 	sext.w	t6, t6
180000428: 93 90 60 00 	slli	ra, ra, 0x6
18000042c: 93 07 02 02 	addi	a5, tp, 0x20
180000430: b3 87 17 00 	add	a5, a5, ra
180000434: 93 9f 2f 00 	slli	t6, t6, 0x2
180000438: b3 87 f7 01 	add	a5, a5, t6
18000043c: 27 a0 f7 00 	fsw	fa5, 0x0(a5)
180000440: b3 84 95 00 	add	s1, a1, s1
180000444: 87 a7 04 00 	flw	fa5, 0x0(s1)
180000448: 93 07 02 42 	addi	a5, tp, 0x420
18000044c: b3 87 17 00 	add	a5, a5, ra
180000450: b3 87 f7 01 	add	a5, a5, t6
180000454: 27 a0 f7 00 	fsw	fa5, 0x0(a5)
180000458: 6f 00 40 00 	j	0x18000045c <_Z14calculate_tempiPfS_S_iiiiffffff+0x254>
18000045c: 0b b0 06 00 	vx_join	a3
180000460: 6f 00 40 00 	j	0x180000464 <_Z14calculate_tempiPfS_S_iiiiffffff+0x25c>
180000464: 6f 00 40 00 	j	0x180000468 <_Z14calculate_tempiPfS_S_iiiiffffff+0x260>
180000468: 0b b0 0d 00 	vx_join	s11
18000046c: 6f 00 40 00 	j	0x180000470 <_Z14calculate_tempiPfS_S_iiiiffffff+0x268>
180000470: 9b 8c 1c 00 	addiw	s9, s9, 0x1
180000474: 9b 86 02 00 	sext.w	a3, t0
180000478: e3 8e dc e6 	beq	s9, a3, 0x1800002f4 <_Z14calculate_tempiPfS_S_iiiiffffff+0xec>
18000047c: 6f f0 df ef 	j	0x180000378 <_Z14calculate_tempiPfS_S_iiiiffffff+0x170>
180000480: d3 00 07 42 	fcvt.d.s	ft1, fa4
180000484: 53 00 06 42 	fcvt.d.s	ft0, fa2
180000488: 53 81 05 42 	fcvt.d.s	ft2, fa1
18000048c: 03 39 04 f9 	ld	s2, -0x70(s0)
180000490: 6f 00 40 00 	j	0x180000494 <_Z14calculate_tempiPfS_S_iiiiffffff+0x28c>
180000494: 9b 05 f5 ff 	addiw	a1, a0, -0x1
180000498: 1b 05 05 00 	sext.w	a0, a0
18000049c: 33 26 a0 00 	sgtz	a2, a0
1800004a0: 0b 25 16 00 	vx_split_n	a0, a2
1800004a4: 63 02 06 0c 	beqz	a2, 0x180000568 <_Z14calculate_tempiPfS_S_iiiiffffff+0x360>
1800004a8: 6f 00 40 00 	j	0x1800004ac <_Z14calculate_tempiPfS_S_iiiiffffff+0x2a4>
1800004ac: 73 26 40 cc 	csrr	a2, tmask
1800004b0: 13 07 00 00 	li	a4, 0x0
1800004b4: 6f 00 00 0c 	j	0x180000574 <_Z14calculate_tempiPfS_S_iiiiffffff+0x36c>
1800004b8: 1b 86 05 00 	sext.w	a2, a1
1800004bc: 13 16 26 00 	slli	a2, a2, 0x2
1800004c0: b3 06 ce 00 	add	a3, t3, a2
1800004c4: 83 a6 06 00 	lw	a3, 0x0(a3)
1800004c8: 13 87 f6 ff 	addi	a4, a3, -0x1
1800004cc: 83 37 04 f7 	ld	a5, -0x90(s0)
1800004d0: b3 87 c7 00 	add	a5, a5, a2
1800004d4: 13 88 16 00 	addi	a6, a3, 0x1
1800004d8: 83 38 84 f7 	ld	a7, -0x88(s0)
1800004dc: b3 88 c8 00 	add	a7, a7, a2
1800004e0: b3 8f ce 00 	add	t6, t4, a2
1800004e4: 83 af 0f 00 	lw	t6, 0x0(t6)
1800004e8: 93 84 ff ff 	addi	s1, t6, -0x1
1800004ec: 33 89 c0 00 	add	s2, ra, a2
1800004f0: 93 89 1f 00 	addi	s3, t6, 0x1
1800004f4: 33 86 cd 00 	add	a2, s11, a2
1800004f8: 1b 0c 0a 00 	sext.w	s8, s4
1800004fc: 33 2c dc 00 	slt	s8, s8, a3
180000500: 33 57 87 0f 	czero.eqz	a4, a4, s8
180000504: 33 7c 8a 0f 	czero.nez	s8, s4, s8
180000508: 33 67 87 01 	or	a4, a4, s8
18000050c: 23 a0 e7 00 	sw	a4, 0x0(a5)
180000510: 1b 87 0a 00 	sext.w	a4, s5
180000514: b3 a6 e6 00 	slt	a3, a3, a4
180000518: 33 57 d8 0e 	czero.eqz	a4, a6, a3
18000051c: b3 f6 da 0e 	czero.nez	a3, s5, a3
180000520: b3 66 d7 00 	or	a3, a4, a3
180000524: 23 a0 d8 00 	sw	a3, 0x0(a7)
180000528: 9b 06 0b 00 	sext.w	a3, s6
18000052c: b3 a6 f6 01 	slt	a3, a3, t6
180000530: 33 d7 d4 0e 	czero.eqz	a4, s1, a3
180000534: b3 76 db 0e 	czero.nez	a3, s6, a3
180000538: b3 66 d7 00 	or	a3, a4, a3
18000053c: 23 20 d9 00 	sw	a3, 0x0(s2)
180000540: 9b 86 0b 00 	sext.w	a3, s7
180000544: b3 a6 df 00 	slt	a3, t6, a3
180000548: 33 d7 d9 0e 	czero.eqz	a4, s3, a3
18000054c: b3 f6 db 0e 	czero.nez	a3, s7, a3
180000550: b3 66 d7 00 	or	a3, a4, a3
180000554: 23 20 d6 00 	sw	a3, 0x0(a2)
180000558: 9b 85 15 00 	addiw	a1, a1, 0x1
18000055c: 1b 86 02 00 	sext.w	a2, t0
180000560: e3 80 c5 f2 	beq	a1, a2, 0x180000480 <_Z14calculate_tempiPfS_S_iiiiffffff+0x278>
180000564: 6f f0 5f f5 	j	0x1800004b8 <_Z14calculate_tempiPfS_S_iiiiffffff+0x2b0>
180000568: 0b 30 05 00 	vx_join	a0
18000056c: 6f 00 40 00 	j	0x180000570 <_Z14calculate_tempiPfS_S_iiiiffffff+0x368>
180000570: 6f 00 80 2c 	j	0x180000838 <_Z14calculate_tempiPfS_S_iiiiffffff+0x630>
180000574: 93 76 1f 00 	andi	a3, t5, 0x1
180000578: 63 92 06 1e 	bnez	a3, 0x18000075c <_Z14calculate_tempiPfS_S_iiiiffffff+0x554>
18000057c: 6f 00 40 00 	j	0x180000580 <_Z14calculate_tempiPfS_S_iiiiffffff+0x378>
180000580: 93 07 e0 00 	li	a5, 0xe
180000584: bb 87 e7 40 	subw	a5, a5, a4
180000588: 13 08 00 00 	li	a6, 0x0
18000058c: 6f 00 40 00 	j	0x180000590 <_Z14calculate_tempiPfS_S_iiiiffffff+0x388>
180000590: 1b 0c 08 00 	sext.w	s8, a6
180000594: b3 0c 83 01 	add	s9, t1, s8
180000598: 23 80 0c 00 	sb	zero, 0x0(s9)
18000059c: 93 16 2c 00 	slli	a3, s8, 0x2
1800005a0: b3 86 de 00 	add	a3, t4, a3
1800005a4: 03 ad 06 00 	lw	s10, 0x0(a3)
1800005a8: 9b 06 07 00 	sext.w	a3, a4
1800005ac: 63 de a6 19 	bge	a3, s10, 0x180000748 <_Z14calculate_tempiPfS_S_iiiiffffff+0x540>
1800005b0: 6f 00 40 00 	j	0x1800005b4 <_Z14calculate_tempiPfS_S_iiiiffffff+0x3ac>
1800005b4: 9b 06 0d 00 	sext.w	a3, s10
1800005b8: 9b 88 07 00 	sext.w	a7, a5
1800005bc: 63 c6 d8 18 	blt	a7, a3, 0x180000748 <_Z14calculate_tempiPfS_S_iiiiffffff+0x540>
1800005c0: 6f 00 40 00 	j	0x1800005c4 <_Z14calculate_tempiPfS_S_iiiiffffff+0x3bc>
1800005c4: 93 16 2c 00 	slli	a3, s8, 0x2
1800005c8: b3 06 de 00 	add	a3, t3, a3
1800005cc: 83 af 06 00 	lw	t6, 0x0(a3)
1800005d0: 9b 06 07 00 	sext.w	a3, a4
1800005d4: b3 a6 f6 01 	slt	a3, a3, t6
1800005d8: 9b 88 07 00 	sext.w	a7, a5
1800005dc: b3 a8 f8 01 	slt	a7, a7, t6
1800005e0: 93 c8 f8 ff 	not	a7, a7
1800005e4: b3 f6 16 01 	and	a3, a3, a7
1800005e8: 9b 08 0b 00 	sext.w	a7, s6
1800005ec: 9b 04 0d 00 	sext.w	s1, s10
1800005f0: b3 a8 14 01 	slt	a7, s1, a7
1800005f4: 93 c8 f8 ff 	not	a7, a7
1800005f8: b3 f6 16 01 	and	a3, a3, a7
1800005fc: 9b 88 0b 00 	sext.w	a7, s7
180000600: b3 a8 98 00 	slt	a7, a7, s1
180000604: 93 c8 f8 ff 	not	a7, a7
180000608: 9b 04 0a 00 	sext.w	s1, s4
18000060c: b3 a4 9f 00 	slt	s1, t6, s1
180000610: 93 c4 f4 ff 	not	s1, s1
180000614: b3 f8 14 01 	and	a7, s1, a7
180000618: b3 f6 d8 00 	and	a3, a7, a3
18000061c: 9b 88 0a 00 	sext.w	a7, s5
180000620: b3 a8 f8 01 	slt	a7, a7, t6
180000624: 93 c8 18 00 	xori	a7, a7, 0x1
180000628: b3 f6 16 01 	and	a3, a3, a7
18000062c: 8b a8 16 00 	vx_split_n	a7, a3
180000630: 63 86 06 10 	beqz	a3, 0x18000073c <_Z14calculate_tempiPfS_S_iiiiffffff+0x534>
180000634: 6f 00 40 00 	j	0x180000638 <_Z14calculate_tempiPfS_S_iiiiffffff+0x430>
180000638: 93 06 10 00 	li	a3, 0x1
18000063c: 23 80 dc 00 	sb	a3, 0x0(s9)
180000640: 9b 8f 0f 00 	sext.w	t6, t6
180000644: 1b 0d 0d 00 	sext.w	s10, s10
180000648: 93 9c 6f 00 	slli	s9, t6, 0x6
18000064c: 93 06 02 02 	addi	a3, tp, 0x20
180000650: b3 8f 96 01 	add	t6, a3, s9
180000654: 13 1d 2d 00 	slli	s10, s10, 0x2
180000658: b3 84 af 01 	add	s1, t6, s10
18000065c: 07 a7 04 00 	flw	fa4, 0x0(s1)
180000660: d3 06 07 42 	fcvt.d.s	fa3, fa4
180000664: 93 04 02 42 	addi	s1, tp, 0x420
180000668: b3 84 94 01 	add	s1, s1, s9
18000066c: b3 84 a4 01 	add	s1, s1, s10
180000670: 07 a6 04 00 	flw	fa2, 0x0(s1)
180000674: 53 06 06 42 	fcvt.d.s	fa2, fa2
180000678: 13 1c 2c 00 	slli	s8, s8, 0x2
18000067c: 83 34 84 f7 	ld	s1, -0x88(s0)
180000680: b3 84 84 01 	add	s1, s1, s8
180000684: 83 a4 04 00 	lw	s1, 0x0(s1)
180000688: 93 94 64 00 	slli	s1, s1, 0x6
18000068c: b3 84 96 00 	add	s1, a3, s1
180000690: b3 84 a4 01 	add	s1, s1, s10
180000694: 87 a5 04 00 	flw	fa1, 0x0(s1)
180000698: 83 34 04 f7 	ld	s1, -0x90(s0)
18000069c: b3 84 84 01 	add	s1, s1, s8
1800006a0: 83 a4 04 00 	lw	s1, 0x0(s1)
1800006a4: 93 94 64 00 	slli	s1, s1, 0x6
1800006a8: b3 86 96 00 	add	a3, a3, s1
1800006ac: b3 86 a6 01 	add	a3, a3, s10
1800006b0: 07 a5 06 00 	flw	fa0, 0x0(a3)
1800006b4: d3 f5 a5 00 	fadd.s	fa1, fa1, fa0
1800006b8: d3 85 05 42 	fcvt.d.s	fa1, fa1
1800006bc: 53 f5 d6 02 	fadd.d	fa0, fa3, fa3
1800006c0: d3 f5 a5 0a 	fsub.d	fa1, fa1, fa0
1800006c4: 43 f6 05 62 	fmadd.d	fa2, fa1, ft0, fa2
1800006c8: b3 86 8d 01 	add	a3, s11, s8
1800006cc: 83 a6 06 00 	lw	a3, 0x0(a3)
1800006d0: 93 96 26 00 	slli	a3, a3, 0x2
1800006d4: b3 86 df 00 	add	a3, t6, a3
1800006d8: 87 a5 06 00 	flw	fa1, 0x0(a3)
1800006dc: 33 8c 80 01 	add	s8, ra, s8
1800006e0: 83 26 0c 00 	lw	a3, 0x0(s8)
1800006e4: 93 96 26 00 	slli	a3, a3, 0x2
1800006e8: b3 86 df 00 	add	a3, t6, a3
1800006ec: 87 a1 06 00 	flw	ft3, 0x0(a3)
1800006f0: d3 f5 35 00 	fadd.s	fa1, fa1, ft3
1800006f4: d3 85 05 42 	fcvt.d.s	fa1, fa1
1800006f8: d3 f5 a5 0a 	fsub.d	fa1, fa1, fa0
1800006fc: 43 f6 25 62 	fmadd.d	fa2, fa1, ft2, fa2
180000700: b7 06 a0 42 	lui	a3, 0x42a00
180000704: d3 85 06 f0 	fmv.w.x	fa1, a3
180000708: 53 f7 e5 08 	fsub.s	fa4, fa1, fa4
18000070c: 53 f7 e7 10 	fmul.s	fa4, fa5, fa4
180000710: 53 07 07 42 	fcvt.d.s	fa4, fa4
180000714: 53 77 e6 02 	fadd.d	fa4, fa2, fa4
180000718: 43 77 17 6a 	fmadd.d	fa4, fa4, ft1, fa3
18000071c: 53 77 17 40 	fcvt.s.d	fa4, fa4
180000720: b7 16 00 00 	lui	a3, 0x1
180000724: b3 86 46 00 	add	a3, a3, tp
180000728: 93 86 06 82 	addi	a3, a3, -0x7e0
18000072c: b3 86 96 01 	add	a3, a3, s9
180000730: b3 86 a6 01 	add	a3, a3, s10
180000734: 27 a0 e6 00 	fsw	fa4, 0x0(a3)
180000738: 6f 00 40 00 	j	0x18000073c <_Z14calculate_tempiPfS_S_iiiiffffff+0x534>
18000073c: 0b b0 08 00 	vx_join	a7
180000740: 6f 00 40 00 	j	0x180000744 <_Z14calculate_tempiPfS_S_iiiiffffff+0x53c>
180000744: 6f 00 40 00 	j	0x180000748 <_Z14calculate_tempiPfS_S_iiiiffffff+0x540>
180000748: 1b 08 18 00 	addiw	a6, a6, 0x1
18000074c: 9b 86 02 00 	sext.w	a3, t0
180000750: e3 10 d8 e4 	bne	a6, a3, 0x180000590 <_Z14calculate_tempiPfS_S_iiiiffffff+0x388>
180000754: 6f 00 40 00 	j	0x180000758 <_Z14calculate_tempiPfS_S_iiiiffffff+0x550>
180000758: 6f 00 40 00 	j	0x18000075c <_Z14calculate_tempiPfS_S_iiiiffffff+0x554>
18000075c: 9b 86 05 00 	sext.w	a3, a1
180000760: 9b 07 07 00 	sext.w	a5, a4
180000764: b3 c6 d7 00 	xor	a3, a5, a3
180000768: 33 38 d0 00 	snez	a6, a3
18000076c: 8b 27 18 00 	vx_split_n	a5, a6
180000770: 93 06 10 00 	li	a3, 0x1
180000774: 63 0e 08 08 	beqz	a6, 0x180000810 <_Z14calculate_tempiPfS_S_iiiiffffff+0x608>
180000778: 6f 00 40 00 	j	0x18000077c <_Z14calculate_tempiPfS_S_iiiiffffff+0x574>
18000077c: 93 76 1f 00 	andi	a3, t5, 0x1
180000780: 63 94 06 0a 	bnez	a3, 0x180000828 <_Z14calculate_tempiPfS_S_iiiiffffff+0x620>
180000784: 6f 00 40 00 	j	0x180000788 <_Z14calculate_tempiPfS_S_iiiiffffff+0x580>
180000788: 13 08 00 00 	li	a6, 0x0
18000078c: 6f 00 40 00 	j	0x180000790 <_Z14calculate_tempiPfS_S_iiiiffffff+0x588>
180000790: 9b 08 08 00 	sext.w	a7, a6
180000794: b3 06 13 01 	add	a3, t1, a7
180000798: 83 c6 06 00 	lbu	a3, 0x0(a3)
18000079c: 93 ff 16 00 	andi	t6, a3, 0x1
1800007a0: 8b a6 1f 00 	vx_split_n	a3, t6
1800007a4: 63 88 0f 04 	beqz	t6, 0x1800007f4 <_Z14calculate_tempiPfS_S_iiiiffffff+0x5ec>
1800007a8: 6f 00 40 00 	j	0x1800007ac <_Z14calculate_tempiPfS_S_iiiiffffff+0x5a4>
1800007ac: 93 98 28 00 	slli	a7, a7, 0x2
1800007b0: b3 0f 1e 01 	add	t6, t3, a7
1800007b4: 83 af 0f 00 	lw	t6, 0x0(t6)
1800007b8: b3 88 1e 01 	add	a7, t4, a7
1800007bc: 83 a8 08 00 	lw	a7, 0x0(a7)
1800007c0: 93 9f 6f 00 	slli	t6, t6, 0x6
1800007c4: b7 14 00 00 	lui	s1, 0x1
1800007c8: b3 84 44 00 	add	s1, s1, tp
1800007cc: 93 84 04 82 	addi	s1, s1, -0x7e0
1800007d0: b3 84 f4 01 	add	s1, s1, t6
1800007d4: 93 98 28 00 	slli	a7, a7, 0x2
1800007d8: b3 84 14 01 	add	s1, s1, a7
1800007dc: 07 a7 04 00 	flw	fa4, 0x0(s1)
1800007e0: 93 04 02 02 	addi	s1, tp, 0x20
1800007e4: b3 8f f4 01 	add	t6, s1, t6
1800007e8: b3 88 1f 01 	add	a7, t6, a7
1800007ec: 27 a0 e8 00 	fsw	fa4, 0x0(a7)
1800007f0: 6f 00 40 00 	j	0x1800007f4 <_Z14calculate_tempiPfS_S_iiiiffffff+0x5ec>
1800007f4: 0b b0 06 00 	vx_join	a3
1800007f8: 6f 00 40 00 	j	0x1800007fc <_Z14calculate_tempiPfS_S_iiiiffffff+0x5f4>
1800007fc: 1b 08 18 00 	addiw	a6, a6, 0x1
180000800: 9b 86 02 00 	sext.w	a3, t0
180000804: e3 16 d8 f8 	bne	a6, a3, 0x180000790 <_Z14calculate_tempiPfS_S_iiiiffffff+0x588>
180000808: 6f 00 40 00 	j	0x18000080c <_Z14calculate_tempiPfS_S_iiiiffffff+0x604>
18000080c: 6f 00 c0 01 	j	0x180000828 <_Z14calculate_tempiPfS_S_iiiiffffff+0x620>
180000810: 0b b0 07 00 	vx_join	a5
180000814: 6f 00 40 00 	j	0x180000818 <_Z14calculate_tempiPfS_S_iiiiffffff+0x610>
180000818: 93 f6 16 00 	andi	a3, a3, 0x1
18000081c: 8b d0 c6 00 	vx_pred_n	a3, a2
180000820: 63 9a 06 00 	bnez	a3, 0x180000834 <_Z14calculate_tempiPfS_S_iiiiffffff+0x62c>
180000824: 6f f0 1f d5 	j	0x180000574 <_Z14calculate_tempiPfS_S_iiiiffffff+0x36c>
180000828: 1b 07 17 00 	addiw	a4, a4, 0x1
18000082c: 93 06 00 00 	li	a3, 0x0
180000830: 6f f0 1f fe 	j	0x180000810 <_Z14calculate_tempiPfS_S_iiiiffffff+0x608>
180000834: 6f f0 5f d3 	j	0x180000568 <_Z14calculate_tempiPfS_S_iiiiffffff+0x360>
180000838: 13 75 1f 00 	andi	a0, t5, 0x1
18000083c: 63 1a 05 08 	bnez	a0, 0x1800008d0 <_Z14calculate_tempiPfS_S_iiiiffffff+0x6c8>
180000840: 6f 00 40 00 	j	0x180000844 <_Z14calculate_tempiPfS_S_iiiiffffff+0x63c>
180000844: 13 05 00 00 	li	a0, 0x0
180000848: 6f 00 40 00 	j	0x18000084c <_Z14calculate_tempiPfS_S_iiiiffffff+0x644>
18000084c: 1b 06 05 00 	sext.w	a2, a0
180000850: b3 05 c3 00 	add	a1, t1, a2
180000854: 83 c5 05 00 	lbu	a1, 0x0(a1)
180000858: 93 f6 15 00 	andi	a3, a1, 0x1
18000085c: 8b a5 16 00 	vx_split_n	a1, a3
180000860: 63 8a 06 04 	beqz	a3, 0x1800008b4 <_Z14calculate_tempiPfS_S_iiiiffffff+0x6ac>
180000864: 6f 00 40 00 	j	0x180000868 <_Z14calculate_tempiPfS_S_iiiiffffff+0x660>
180000868: 13 16 26 00 	slli	a2, a2, 0x2
18000086c: b3 06 ce 00 	add	a3, t3, a2
180000870: 83 a6 06 00 	lw	a3, 0x0(a3)
180000874: 33 87 ce 00 	add	a4, t4, a2
180000878: 03 27 07 00 	lw	a4, 0x0(a4)
18000087c: 93 96 66 00 	slli	a3, a3, 0x6
180000880: b7 17 00 00 	lui	a5, 0x1
180000884: b3 87 47 00 	add	a5, a5, tp
180000888: 93 87 07 82 	addi	a5, a5, -0x7e0
18000088c: b3 86 d7 00 	add	a3, a5, a3
180000890: 13 17 27 00 	slli	a4, a4, 0x2
180000894: b3 86 e6 00 	add	a3, a3, a4
180000898: 87 a7 06 00 	flw	fa5, 0x0(a3)
18000089c: 33 86 c3 00 	add	a2, t2, a2
1800008a0: 03 26 06 00 	lw	a2, 0x0(a2)
1800008a4: 13 16 26 00 	slli	a2, a2, 0x2
1800008a8: 33 06 c9 00 	add	a2, s2, a2
1800008ac: 27 20 f6 00 	fsw	fa5, 0x0(a2)
1800008b0: 6f 00 40 00 	j	0x1800008b4 <_Z14calculate_tempiPfS_S_iiiiffffff+0x6ac>
1800008b4: 0b b0 05 00 	vx_join	a1
1800008b8: 6f 00 40 00 	j	0x1800008bc <_Z14calculate_tempiPfS_S_iiiiffffff+0x6b4>
1800008bc: 1b 05 15 00 	addiw	a0, a0, 0x1
1800008c0: 9b 85 02 00 	sext.w	a1, t0
1800008c4: e3 14 b5 f8 	bne	a0, a1, 0x18000084c <_Z14calculate_tempiPfS_S_iiiiffffff+0x644>
1800008c8: 6f 00 40 00 	j	0x1800008cc <_Z14calculate_tempiPfS_S_iiiiffffff+0x6c4>
1800008cc: 6f 00 40 00 	j	0x1800008d0 <_Z14calculate_tempiPfS_S_iiiiffffff+0x6c8>
1800008d0: 13 01 04 f7 	addi	sp, s0, -0x90
1800008d4: 83 30 81 08 	ld	ra, 0x88(sp)
1800008d8: 03 34 01 08 	ld	s0, 0x80(sp)
1800008dc: 83 34 81 07 	ld	s1, 0x78(sp)
1800008e0: 03 39 01 07 	ld	s2, 0x70(sp)
1800008e4: 83 39 81 06 	ld	s3, 0x68(sp)
1800008e8: 03 3a 01 06 	ld	s4, 0x60(sp)
1800008ec: 83 3a 81 05 	ld	s5, 0x58(sp)
1800008f0: 03 3b 01 05 	ld	s6, 0x50(sp)
1800008f4: 83 3b 81 04 	ld	s7, 0x48(sp)
1800008f8: 03 3c 01 04 	ld	s8, 0x40(sp)
1800008fc: 83 3c 81 03 	ld	s9, 0x38(sp)
180000900: 03 3d 01 03 	ld	s10, 0x30(sp)
180000904: 83 3d 81 02 	ld	s11, 0x28(sp)
180000908: 13 01 01 09 	addi	sp, sp, 0x90
18000090c: 67 80 00 00 	ret

0000000180000910 <calculate_tempiPfS_S_iiiiffffff_wrapper>:
180000910: 83 35 85 00 	ld	a1, 0x8(a0)
180000914: 03 36 05 01 	ld	a2, 0x10(a0)
180000918: 83 36 85 01 	ld	a3, 0x18(a0)
18000091c: 07 25 05 04 	flw	fa0, 0x40(a0)
180000920: 87 25 85 04 	flw	fa1, 0x48(a0)
180000924: 07 26 05 05 	flw	fa2, 0x50(a0)
180000928: 87 26 85 05 	flw	fa3, 0x58(a0)
18000092c: 07 27 05 06 	flw	fa4, 0x60(a0)
180000930: 83 28 85 03 	lw	a7, 0x38(a0)
180000934: 03 28 05 03 	lw	a6, 0x30(a0)
180000938: 83 27 85 02 	lw	a5, 0x28(a0)
18000093c: 03 27 05 02 	lw	a4, 0x20(a0)
180000940: 03 25 05 00 	lw	a0, 0x0(a0)
180000944: 6f f0 5f 8c 	j	0x180000208 <_Z14calculate_tempiPfS_S_iiiiffffff>

0000000180000948 <_Exit>:
180000948: ef 00 90 2e 	jal	0x180001430 <vx_perf_dump>
18000094c: 93 02 80 08 	li	t0, 0x88
180000950: 23 a0 a2 00 	sw	a0, 0x0(t0)
180000954: 0f 00 f0 0f 	fence
180000958: 0b 00 00 00 	vx_tmc	zero

000000018000095c <init_regs>:
18000095c: 97 41 00 00 	auipc	gp, 0x4
180000960: 93 81 41 5d 	addi	gp, gp, 0x5d4
180000964: 93 02 10 00 	li	t0, 0x1
180000968: 93 92 02 02 	slli	t0, t0, 0x20
18000096c: 37 01 01 00 	lui	sp, 0x10
180000970: 1b 01 f1 ff 	addiw	sp, sp, -0x1
180000974: 13 11 01 01 	slli	sp, sp, 0x10
180000978: 33 61 51 00 	or	sp, sp, t0
18000097c: f3 22 40 f1 	csrr	t0, mhartid
180000980: 13 93 d2 00 	slli	t1, t0, 0xd
180000984: 33 01 61 40 	sub	sp, sp, t1
180000988: 37 13 00 00 	lui	t1, 0x1
18000098c: 13 03 83 c4 	addi	t1, t1, -0x3b8
180000990: b3 82 62 02 	mul	t0, t0, t1
180000994: 17 42 00 00 	auipc	tp, 0x4
180000998: 13 02 42 ec 	addi	tp, tp, -0x13c
18000099c: 33 02 52 00 	add	tp, tp, t0
1800009a0: 67 80 00 00 	ret

00000001800009a4 <init_regs_all>:
1800009a4: 93 02 f0 ff 	li	t0, -0x1
1800009a8: 0b 80 02 00 	vx_tmc	t0
1800009ac: ef f0 1f fb 	jal	0x18000095c <init_regs>
1800009b0: 0b 00 00 00 	vx_tmc	zero
1800009b4: 67 80 00 00 	ret

00000001800009b8 <init_tls_all>:
1800009b8: 93 02 f0 ff 	li	t0, -0x1
1800009bc: 0b 80 02 00 	vx_tmc	t0
1800009c0: ef 00 c0 00 	jal	0x1800009cc <__init_tls>
1800009c4: 0b 00 00 00 	vx_tmc	zero
1800009c8: 67 80 00 00 	ret

00000001800009cc <__init_tls>:
1800009cc: 13 01 01 ff 	addi	sp, sp, -0x10
1800009d0: 13 06 00 00 	li	a2, 0x0
1800009d4: 97 45 00 00 	auipc	a1, 0x4
1800009d8: 93 85 c5 d5 	addi	a1, a1, -0x2a4
1800009dc: 13 05 02 00 	mv	a0, tp
1800009e0: 23 30 81 00 	sd	s0, 0x0(sp)
1800009e4: 23 34 11 00 	sd	ra, 0x8(sp)
1800009e8: 13 04 02 00 	mv	s0, tp
1800009ec: ef 20 c0 35 	jal	0x180002d48 <memcpy>
1800009f0: 13 05 00 00 	li	a0, 0x0
1800009f4: 33 05 a4 00 	add	a0, s0, a0
1800009f8: 03 34 01 00 	ld	s0, 0x0(sp)
1800009fc: 83 30 81 00 	ld	ra, 0x8(sp)
180000a00: 37 16 00 00 	lui	a2, 0x1
180000a04: 13 06 86 c4 	addi	a2, a2, -0x3b8
180000a08: 93 05 00 00 	li	a1, 0x0
180000a0c: 13 01 01 01 	addi	sp, sp, 0x10
180000a10: 6f 20 50 08 	j	0x180003294 <memset>

0000000180000a14 <__libc_init_array>:
180000a14: 13 01 01 fe 	addi	sp, sp, -0x20
180000a18: 23 38 81 00 	sd	s0, 0x10(sp)
180000a1c: 23 30 21 01 	sd	s2, 0x0(sp)
180000a20: 97 47 00 00 	auipc	a5, 0x4
180000a24: 93 87 07 d1 	addi	a5, a5, -0x2f0
180000a28: 17 44 00 00 	auipc	s0, 0x4
180000a2c: 13 04 84 d0 	addi	s0, s0, -0x2f8
180000a30: 23 3c 11 00 	sd	ra, 0x18(sp)
180000a34: 23 34 91 00 	sd	s1, 0x8(sp)
180000a38: 33 89 87 40 	sub	s2, a5, s0
180000a3c: 63 80 87 02 	beq	a5, s0, 0x180000a5c <__libc_init_array+0x48>
180000a40: 13 59 39 40 	srai	s2, s2, 0x3
180000a44: 93 04 00 00 	li	s1, 0x0
180000a48: 83 37 04 00 	ld	a5, 0x0(s0)
180000a4c: 93 84 14 00 	addi	s1, s1, 0x1
180000a50: 13 04 84 00 	addi	s0, s0, 0x8
180000a54: e7 80 07 00 	jalr	a5
180000a58: e3 e8 24 ff 	bltu	s1, s2, 0x180000a48 <__libc_init_array+0x34>
180000a5c: 97 47 00 00 	auipc	a5, 0x4
180000a60: 93 87 47 cd 	addi	a5, a5, -0x32c
180000a64: 17 44 00 00 	auipc	s0, 0x4
180000a68: 13 04 c4 cc 	addi	s0, s0, -0x334
180000a6c: 33 89 87 40 	sub	s2, a5, s0
180000a70: 13 59 39 40 	srai	s2, s2, 0x3
180000a74: 63 8e 87 00 	beq	a5, s0, 0x180000a90 <__libc_init_array+0x7c>
180000a78: 93 04 00 00 	li	s1, 0x0
180000a7c: 83 37 04 00 	ld	a5, 0x0(s0)
180000a80: 93 84 14 00 	addi	s1, s1, 0x1
180000a84: 13 04 84 00 	addi	s0, s0, 0x8
180000a88: e7 80 07 00 	jalr	a5
180000a8c: e3 e8 24 ff 	bltu	s1, s2, 0x180000a7c <__libc_init_array+0x68>
180000a90: 83 30 81 01 	ld	ra, 0x18(sp)
180000a94: 03 34 01 01 	ld	s0, 0x10(sp)
180000a98: 83 34 81 00 	ld	s1, 0x8(sp)
180000a9c: 03 39 01 00 	ld	s2, 0x0(sp)
180000aa0: 13 01 01 02 	addi	sp, sp, 0x20
180000aa4: 67 80 00 00 	ret

0000000180000aa8 <__funcs_on_exit>:
180000aa8: 13 01 01 fe 	addi	sp, sp, -0x20
180000aac: 23 38 81 00 	sd	s0, 0x10(sp)
180000ab0: 97 47 00 00 	auipc	a5, 0x4
180000ab4: 93 87 07 c8 	addi	a5, a5, -0x380
180000ab8: 17 44 00 00 	auipc	s0, 0x4
180000abc: 13 04 84 c7 	addi	s0, s0, -0x388
180000ac0: 33 04 f4 40 	sub	s0, s0, a5
180000ac4: 23 34 91 00 	sd	s1, 0x8(sp)
180000ac8: 23 3c 11 00 	sd	ra, 0x18(sp)
180000acc: 93 54 34 40 	srai	s1, s0, 0x3
180000ad0: 63 80 04 02 	beqz	s1, 0x180000af0 <__funcs_on_exit+0x48>
180000ad4: 13 04 84 ff 	addi	s0, s0, -0x8
180000ad8: 33 04 f4 00 	add	s0, s0, a5
180000adc: 83 37 04 00 	ld	a5, 0x0(s0)
180000ae0: 93 84 f4 ff 	addi	s1, s1, -0x1
180000ae4: 13 04 84 ff 	addi	s0, s0, -0x8
180000ae8: e7 80 07 00 	jalr	a5
180000aec: e3 98 04 fe 	bnez	s1, 0x180000adc <__funcs_on_exit+0x34>
180000af0: 83 30 81 01 	ld	ra, 0x18(sp)
180000af4: 03 34 01 01 	ld	s0, 0x10(sp)
180000af8: 83 34 81 00 	ld	s1, 0x8(sp)
180000afc: 13 01 01 02 	addi	sp, sp, 0x20
180000b00: 67 80 00 00 	ret

0000000180000b04 <vx_putchar>:
180000b04: f3 22 40 f1 	csrr	t0, mhartid
180000b08: 93 f2 f2 03 	andi	t0, t0, 0x3f
180000b0c: 13 03 00 04 	li	t1, 0x40
180000b10: b3 82 62 00 	add	t0, t0, t1
180000b14: 23 80 a2 00 	sb	a0, 0x0(t0)
180000b18: 67 80 00 00 	ret

0000000180000b1c <__vprintf_cb>:
180000b1c: 83 37 85 00 	ld	a5, 0x8(a0)
180000b20: 13 01 01 ff 	addi	sp, sp, -0x10
180000b24: 23 30 81 00 	sd	s0, 0x0(sp)
180000b28: 83 b5 07 00 	ld	a1, 0x0(a5)
180000b2c: 13 04 05 00 	mv	s0, a0
180000b30: 03 35 05 00 	ld	a0, 0x0(a0)
180000b34: 23 34 11 00 	sd	ra, 0x8(sp)
180000b38: ef 20 80 17 	jal	0x180002cb0 <tiny_vprintf>
180000b3c: 83 30 81 00 	ld	ra, 0x8(sp)
180000b40: 23 28 a4 00 	sw	a0, 0x10(s0)
180000b44: 03 34 01 00 	ld	s0, 0x0(sp)
180000b48: 13 01 01 01 	addi	sp, sp, 0x10
180000b4c: 67 80 00 00 	ret

0000000180000b50 <vx_printf>:
180000b50: 13 01 01 f8 	addi	sp, sp, -0x80
180000b54: 23 34 f1 06 	sd	a5, 0x68(sp)
180000b58: 93 07 81 04 	addi	a5, sp, 0x48
180000b5c: 13 03 05 00 	mv	t1, a0
180000b60: 23 34 b1 04 	sd	a1, 0x48(sp)
180000b64: 23 34 f1 00 	sd	a5, 0x8(sp)
180000b68: 23 38 f1 00 	sd	a5, 0x10(sp)
180000b6c: 17 05 00 00 	auipc	a0, 0x0
180000b70: 13 05 05 fb 	addi	a0, a0, -0x50
180000b74: 93 07 01 01 	addi	a5, sp, 0x10
180000b78: 93 05 81 01 	addi	a1, sp, 0x18
180000b7c: 23 3c 11 02 	sd	ra, 0x38(sp)
180000b80: 23 38 c1 04 	sd	a2, 0x50(sp)
180000b84: 23 3c d1 04 	sd	a3, 0x58(sp)
180000b88: 23 30 e1 06 	sd	a4, 0x60(sp)
180000b8c: 23 38 01 07 	sd	a6, 0x70(sp)
180000b90: 23 3c 11 07 	sd	a7, 0x78(sp)
180000b94: 23 3c 61 00 	sd	t1, 0x18(sp)
180000b98: 23 30 f1 02 	sd	a5, 0x20(sp)
180000b9c: ef 00 90 01 	jal	0x1800013b4 <vx_serial>
180000ba0: 83 30 81 03 	ld	ra, 0x38(sp)
180000ba4: 03 25 81 02 	lw	a0, 0x28(sp)
180000ba8: 13 01 01 08 	addi	sp, sp, 0x80
180000bac: 67 80 00 00 	ret

0000000180000bb0 <process_threads>:
180000bb0: 13 01 01 fa 	addi	sp, sp, -0x60
180000bb4: 23 3c 11 04 	sd	ra, 0x58(sp)
180000bb8: 23 38 81 04 	sd	s0, 0x50(sp)
180000bbc: 23 34 91 04 	sd	s1, 0x48(sp)
180000bc0: 23 30 21 05 	sd	s2, 0x40(sp)
180000bc4: 23 3c 31 03 	sd	s3, 0x38(sp)
180000bc8: 23 38 41 03 	sd	s4, 0x30(sp)
180000bcc: 23 34 51 03 	sd	s5, 0x28(sp)
180000bd0: 23 30 61 03 	sd	s6, 0x20(sp)
180000bd4: 23 3c 71 01 	sd	s7, 0x18(sp)
180000bd8: 23 38 81 01 	sd	s8, 0x10(sp)
180000bdc: 23 34 91 01 	sd	s9, 0x8(sp)
180000be0: 23 30 a1 01 	sd	s10, 0x0(sp)
180000be4: f3 26 00 34 	csrr	a3, mscratch
180000be8: f3 25 00 fc 	csrr	a1, nt
180000bec: 9b 8a 05 00 	sext.w	s5, a1
180000bf0: f3 27 10 cc 	csrr	a5, wid
180000bf4: 1b 87 07 00 	sext.w	a4, a5
180000bf8: 73 26 00 cc 	csrr	a2, tid
180000bfc: 03 a8 86 01 	lw	a6, 0x18(a3)
180000c00: 03 a5 c6 01 	lw	a0, 0x1c(a3)
180000c04: 93 88 07 00 	mv	a7, a5
180000c08: bb 87 07 03 	mulw	a5, a5, a6
180000c0c: 63 74 e5 00 	bgeu	a0, a4, 0x180000c14 <process_threads+0x64>
180000c10: 93 08 05 00 	mv	a7, a0
180000c14: b3 34 a7 00 	sltu	s1, a4, a0
180000c18: bb 87 17 01 	addw	a5, a5, a7
180000c1c: bb 84 04 01 	addw	s1, s1, a6
180000c20: 03 a7 06 01 	lw	a4, 0x10(a3)
180000c24: 17 45 00 00 	auipc	a0, 0x4
180000c28: 13 05 45 c2 	addi	a0, a0, -0x3dc
180000c2c: 03 2d 05 00 	lw	s10, 0x0(a0)
180000c30: 3b 07 e6 00 	addw	a4, a2, a4
180000c34: bb 87 b7 02 	mulw	a5, a5, a1
180000c38: 03 2a 45 00 	lw	s4, 0x4(a0)
180000c3c: 03 bb 06 00 	ld	s6, 0x0(a3)
180000c40: 83 bb 86 00 	ld	s7, 0x8(a3)
180000c44: bb 84 b4 02 	mulw	s1, s1, a1
180000c48: 3b 84 e7 00 	addw	s0, a5, a4
180000c4c: bb 84 84 00 	addw	s1, s1, s0
180000c50: 63 78 94 04 	bgeu	s0, s1, 0x180000ca0 <process_threads+0xf0>
180000c54: bb 0c 4d 03 	mulw	s9, s10, s4
180000c58: 37 19 00 00 	lui	s2, 0x1
180000c5c: 33 09 49 00 	add	s2, s2, tp
180000c60: 93 09 f0 ff 	li	s3, -0x1
180000c64: 93 d9 09 02 	srli	s3, s3, 0x20
180000c68: 13 0c 89 c3 	addi	s8, s2, -0x3c8
180000c6c: 13 85 0b 00 	mv	a0, s7
180000c70: 3b 57 a4 03 	divuw	a4, s0, s10
180000c74: bb 77 a4 03 	remuw	a5, s0, s10
180000c78: 3b 77 47 03 	remuw	a4, a4, s4
180000c7c: b3 f7 f9 00 	and	a5, s3, a5
180000c80: bb 56 94 03 	divuw	a3, s0, s9
180000c84: 13 17 07 02 	slli	a4, a4, 0x20
180000c88: b3 e7 e7 00 	or	a5, a5, a4
180000c8c: 3b 84 8a 00 	addw	s0, s5, s0
180000c90: 23 3c f9 c2 	sd	a5, -0x3c8(s2)
180000c94: 23 24 dc 00 	sw	a3, 0x8(s8)
180000c98: e7 00 0b 00 	jalr	s6
180000c9c: e3 68 94 fc 	bltu	s0, s1, 0x180000c6c <process_threads+0xbc>
180000ca0: 83 30 81 05 	ld	ra, 0x58(sp)
180000ca4: 03 34 01 05 	ld	s0, 0x50(sp)
180000ca8: 83 34 81 04 	ld	s1, 0x48(sp)
180000cac: 03 39 01 04 	ld	s2, 0x40(sp)
180000cb0: 83 39 81 03 	ld	s3, 0x38(sp)
180000cb4: 03 3a 01 03 	ld	s4, 0x30(sp)
180000cb8: 83 3a 81 02 	ld	s5, 0x28(sp)
180000cbc: 03 3b 01 02 	ld	s6, 0x20(sp)
180000cc0: 83 3b 81 01 	ld	s7, 0x18(sp)
180000cc4: 03 3c 01 01 	ld	s8, 0x10(sp)
180000cc8: 83 3c 81 00 	ld	s9, 0x8(sp)
180000ccc: 03 3d 01 00 	ld	s10, 0x0(sp)
180000cd0: 13 01 01 06 	addi	sp, sp, 0x60
180000cd4: 67 80 00 00 	ret

0000000180000cd8 <process_remaining_threads>:
180000cd8: f3 25 00 34 	csrr	a1, mscratch
180000cdc: 73 27 00 cc 	csrr	a4, tid
180000ce0: 97 46 00 00 	auipc	a3, 0x4
180000ce4: 93 86 86 b6 	addi	a3, a3, -0x498
180000ce8: 03 a6 45 01 	lw	a2, 0x14(a1)
180000cec: 83 a7 06 00 	lw	a5, 0x0(a3)
180000cf0: 03 a8 46 00 	lw	a6, 0x4(a3)
180000cf4: 3b 07 c7 00 	addw	a4, a4, a2
180000cf8: bb 56 f7 02 	divuw	a3, a4, a5
180000cfc: 37 16 00 00 	lui	a2, 0x1
180000d00: 83 b8 05 00 	ld	a7, 0x0(a1)
180000d04: 03 b5 85 00 	ld	a0, 0x8(a1)
180000d08: 33 06 46 00 	add	a2, a2, tp
180000d0c: 93 05 86 c3 	addi	a1, a2, -0x3c8
180000d10: 3b 83 07 03 	mulw	t1, a5, a6
180000d14: bb 77 f7 02 	remuw	a5, a4, a5
180000d18: bb f6 06 03 	remuw	a3, a3, a6
180000d1c: 93 97 07 02 	slli	a5, a5, 0x20
180000d20: 93 d7 07 02 	srli	a5, a5, 0x20
180000d24: 3b 57 67 02 	divuw	a4, a4, t1
180000d28: 93 96 06 02 	slli	a3, a3, 0x20
180000d2c: b3 e7 d7 00 	or	a5, a5, a3
180000d30: 23 3c f6 c2 	sd	a5, -0x3c8(a2)
180000d34: 23 a4 e5 00 	sw	a4, 0x8(a1)
180000d38: 67 80 08 00 	jr	a7

0000000180000d3c <process_threads_stub>:
180000d3c: 13 01 01 ff 	addi	sp, sp, -0x10
180000d40: 23 34 11 00 	sd	ra, 0x8(sp)
180000d44: 93 07 f0 ff 	li	a5, -0x1
180000d48: 0b 80 07 00 	vx_tmc	a5
180000d4c: ef f0 5f e6 	jal	0x180000bb0 <process_threads>
180000d50: 0b 00 00 00 	vx_tmc	zero
180000d54: 83 30 81 00 	ld	ra, 0x8(sp)
180000d58: 13 01 01 01 	addi	sp, sp, 0x10
180000d5c: 67 80 00 00 	ret

0000000180000d60 <process_thread_groups>:
180000d60: 13 01 01 fa 	addi	sp, sp, -0x60
180000d64: 23 3c 11 04 	sd	ra, 0x58(sp)
180000d68: 23 38 81 04 	sd	s0, 0x50(sp)
180000d6c: 23 34 91 04 	sd	s1, 0x48(sp)
180000d70: 23 30 21 05 	sd	s2, 0x40(sp)
180000d74: 23 3c 31 03 	sd	s3, 0x38(sp)
180000d78: 23 38 41 03 	sd	s4, 0x30(sp)
180000d7c: 23 34 51 03 	sd	s5, 0x28(sp)
180000d80: 23 30 61 03 	sd	s6, 0x20(sp)
180000d84: 23 3c 71 01 	sd	s7, 0x18(sp)
180000d88: 23 38 81 01 	sd	s8, 0x10(sp)
180000d8c: 23 34 91 01 	sd	s9, 0x8(sp)
180000d90: 23 30 a1 01 	sd	s10, 0x0(sp)
180000d94: f3 26 00 34 	csrr	a3, mscratch
180000d98: 73 2f 00 fc 	csrr	t5, nt
180000d9c: 73 26 10 cc 	csrr	a2, wid
180000da0: 1b 05 06 00 	sext.w	a0, a2
180000da4: f3 2e 00 cc 	csrr	t4, tid
180000da8: 03 a3 c6 01 	lw	t1, 0x1c(a3)
180000dac: 97 45 00 00 	auipc	a1, 0x4
180000db0: 93 85 c5 a8 	addi	a1, a1, -0x574
180000db4: 83 a4 86 01 	lw	s1, 0x18(a3)
180000db8: bb 77 66 02 	remuw	a5, a2, t1
180000dbc: 03 a7 05 00 	lw	a4, 0x0(a1)
180000dc0: 03 ae 45 00 	lw	t3, 0x4(a1)
180000dc4: 83 a5 46 01 	lw	a1, 0x14(a3)
180000dc8: b3 34 95 00 	sltu	s1, a0, s1
180000dcc: 83 bb 06 00 	ld	s7, 0x0(a3)
180000dd0: 03 aa 06 02 	lw	s4, 0x20(a3)
180000dd4: 03 bc 86 00 	ld	s8, 0x8(a3)
180000dd8: bb 84 b4 00 	addw	s1, s1, a1
180000ddc: 83 a5 06 01 	lw	a1, 0x10(a3)
180000de0: 13 09 f0 ff 	li	s2, -0x1
180000de4: 17 48 00 00 	auipc	a6, 0x4
180000de8: 13 08 48 a6 	addi	a6, a6, -0x59c
180000dec: 13 59 09 02 	srli	s2, s2, 0x20
180000df0: 37 15 00 00 	lui	a0, 0x1
180000df4: 03 2d 08 00 	lw	s10, 0x0(a6)
180000df8: 83 2a 48 00 	lw	s5, 0x4(a6)
180000dfc: 33 05 45 00 	add	a0, a0, tp
180000e00: b7 18 00 00 	lui	a7, 0x1
180000e04: b3 88 48 00 	add	a7, a7, tp
180000e08: 13 08 85 c2 	addi	a6, a0, -0x3d8
180000e0c: bb 87 e7 03 	mulw	a5, a5, t5
180000e10: bb 87 d7 01 	addw	a5, a5, t4
180000e14: bb d6 e7 02 	divuw	a3, a5, a4
180000e18: bb 0e c7 03 	mulw	t4, a4, t3
180000e1c: bb f6 c6 03 	remuw	a3, a3, t3
180000e20: 3b f7 e7 02 	remuw	a4, a5, a4
180000e24: 93 96 06 02 	slli	a3, a3, 0x20
180000e28: 3b 56 66 02 	divuw	a2, a2, t1
180000e2c: 33 77 e9 00 	and	a4, s2, a4
180000e30: 33 67 d7 00 	or	a4, a4, a3
180000e34: 23 34 e5 c2 	sd	a4, -0x3d8(a0)
180000e38: bb d7 d7 03 	divuw	a5, a5, t4
180000e3c: 3b 04 b6 00 	addw	s0, a2, a1
180000e40: 23 a0 c8 c2 	sw	a2, -0x3e0(a7)
180000e44: bb 04 9a 02 	mulw	s1, s4, s1
180000e48: 23 24 f8 00 	sw	a5, 0x8(a6)
180000e4c: bb 84 84 00 	addw	s1, s1, s0
180000e50: 3b 0b 5d 03 	mulw	s6, s10, s5
180000e54: 63 72 94 04 	bgeu	s0, s1, 0x180000e98 <process_thread_groups+0x138>
180000e58: b7 19 00 00 	lui	s3, 0x1
180000e5c: b3 89 49 00 	add	s3, s3, tp
180000e60: 93 8c 89 c3 	addi	s9, s3, -0x3c8
180000e64: 13 05 0c 00 	mv	a0, s8
180000e68: 3b 57 a4 03 	divuw	a4, s0, s10
180000e6c: bb 77 a4 03 	remuw	a5, s0, s10
180000e70: 3b 77 57 03 	remuw	a4, a4, s5
180000e74: b3 77 f9 00 	and	a5, s2, a5
180000e78: bb 56 64 03 	divuw	a3, s0, s6
180000e7c: 13 17 07 02 	slli	a4, a4, 0x20
180000e80: b3 e7 e7 00 	or	a5, a5, a4
180000e84: 3b 04 8a 00 	addw	s0, s4, s0
180000e88: 23 bc f9 c2 	sd	a5, -0x3c8(s3)
180000e8c: 23 a4 dc 00 	sw	a3, 0x8(s9)
180000e90: e7 80 0b 00 	jalr	s7
180000e94: e3 68 94 fc 	bltu	s0, s1, 0x180000e64 <process_thread_groups+0x104>
180000e98: 83 30 81 05 	ld	ra, 0x58(sp)
180000e9c: 03 34 01 05 	ld	s0, 0x50(sp)
180000ea0: 83 34 81 04 	ld	s1, 0x48(sp)
180000ea4: 03 39 01 04 	ld	s2, 0x40(sp)
180000ea8: 83 39 81 03 	ld	s3, 0x38(sp)
180000eac: 03 3a 01 03 	ld	s4, 0x30(sp)
180000eb0: 83 3a 81 02 	ld	s5, 0x28(sp)
180000eb4: 03 3b 01 02 	ld	s6, 0x20(sp)
180000eb8: 83 3b 81 01 	ld	s7, 0x18(sp)
180000ebc: 03 3c 01 01 	ld	s8, 0x10(sp)
180000ec0: 83 3c 81 00 	ld	s9, 0x8(sp)
180000ec4: 03 3d 01 00 	ld	s10, 0x0(sp)
180000ec8: 13 01 01 06 	addi	sp, sp, 0x60
180000ecc: 67 80 00 00 	ret

0000000180000ed0 <process_thread_groups_stub>:
180000ed0: 13 01 01 ff 	addi	sp, sp, -0x10
180000ed4: 23 34 11 00 	sd	ra, 0x8(sp)
180000ed8: 73 27 00 34 	csrr	a4, mscratch
180000edc: 83 27 c7 01 	lw	a5, 0x1c(a4)
180000ee0: 03 26 47 02 	lw	a2, 0x24(a4)
180000ee4: 73 27 10 cc 	csrr	a4, wid
180000ee8: 3b 77 f7 02 	remuw	a4, a4, a5
180000eec: 9b 87 f7 ff 	addiw	a5, a5, -0x1
180000ef0: 9b 06 06 00 	sext.w	a3, a2
180000ef4: 63 84 e7 00 	beq	a5, a4, 0x180000efc <process_thread_groups_stub+0x2c>
180000ef8: 93 06 f0 ff 	li	a3, -0x1
180000efc: 0b 80 06 00 	vx_tmc	a3
180000f00: ef f0 1f e6 	jal	0x180000d60 <process_thread_groups>
180000f04: f3 27 10 cc 	csrr	a5, wid
180000f08: 9b 87 07 00 	sext.w	a5, a5
180000f0c: 93 b7 17 00 	seqz	a5, a5
180000f10: 0b 80 07 00 	vx_tmc	a5
180000f14: 83 30 81 00 	ld	ra, 0x8(sp)
180000f18: 13 01 01 01 	addi	sp, sp, 0x10
180000f1c: 67 80 00 00 	ret

0000000180000f20 <vx_spawn_threads>:
180000f20: 13 01 01 fc 	addi	sp, sp, -0x40
180000f24: 23 3c 11 02 	sd	ra, 0x38(sp)
180000f28: 23 38 81 02 	sd	s0, 0x30(sp)
180000f2c: 63 88 05 2a 	beqz	a1, 0x1800011dc <vx_spawn_threads+0x2bc>
180000f30: 63 0c 06 16 	beqz	a2, 0x1800010a8 <vx_spawn_threads+0x188>
180000f34: 63 1c 05 2e 	bnez	a0, 0x18000122c <vx_spawn_threads+0x30c>
180000f38: 93 07 10 00 	li	a5, 0x1
180000f3c: 17 43 00 00 	auipc	t1, 0x4
180000f40: 13 03 c3 90 	addi	t1, t1, -0x6f4
180000f44: 97 48 00 00 	auipc	a7, 0x4
180000f48: 93 88 48 8f 	addi	a7, a7, -0x70c
180000f4c: 23 20 f3 00 	sw	a5, 0x0(t1)
180000f50: 23 a0 f8 00 	sw	a5, 0x0(a7)
180000f54: 13 08 10 00 	li	a6, 0x1
180000f58: 13 06 10 00 	li	a2, 0x1
180000f5c: 23 22 c3 00 	sw	a2, 0x4(t1)
180000f60: 23 a2 c8 00 	sw	a2, 0x4(a7)
180000f64: 93 05 10 00 	li	a1, 0x1
180000f68: 13 05 10 00 	li	a0, 0x1
180000f6c: 23 24 b3 00 	sw	a1, 0x8(t1)
180000f70: 23 a4 a8 00 	sw	a0, 0x8(a7)
180000f74: f3 2f 20 fc 	csrr	t6, nw
180000f78: f3 25 10 fc 	csrr	a1, nw
180000f7c: 9b 8e 05 00 	sext.w	t4, a1
180000f80: 73 25 00 fc 	csrr	a0, nt
180000f84: 73 2e 20 cc 	csrr	t3, cid
180000f88: 3b 86 a5 02 	mulw	a2, a1, a0
180000f8c: 9b 08 0e 00 	sext.w	a7, t3
180000f90: 13 03 06 00 	mv	t1, a2
180000f94: 63 60 f6 40 	bltu	a2, a5, 0x180001394 <vx_spawn_threads+0x474>
180000f98: 13 06 10 00 	li	a2, 0x1
180000f9c: 63 7c f6 14 	bgeu	a2, a5, 0x1800010f4 <vx_spawn_threads+0x1d4>
180000fa0: 3b f6 a7 02 	remuw	a2, a5, a0
180000fa4: 13 03 f0 ff 	li	t1, -0x1
180000fa8: 3b d5 a7 02 	divuw	a0, a5, a0
180000fac: 63 0a 06 00 	beqz	a2, 0x180000fc0 <vx_spawn_threads+0xa0>
180000fb0: 13 03 10 00 	li	t1, 0x1
180000fb4: 3b 13 c3 00 	sllw	t1, t1, a2
180000fb8: 1b 03 f3 ff 	addiw	t1, t1, -0x1
180000fbc: 1b 05 15 00 	addiw	a0, a0, 0x1
180000fc0: 1b 8f f5 ff 	addiw	t5, a1, -0x1
180000fc4: 1b 86 0f 00 	sext.w	a2, t6
180000fc8: bb 07 05 03 	mulw	a5, a0, a6
180000fcc: bb 87 e7 01 	addw	a5, a5, t5
180000fd0: 3b df b7 02 	divuw	t5, a5, a1
180000fd4: 93 07 0f 00 	mv	a5, t5
180000fd8: 63 74 e6 01 	bgeu	a2, t5, 0x180000fe0 <vx_spawn_threads+0xc0>
180000fdc: 93 87 0f 00 	mv	a5, t6
180000fe0: 1b 86 07 00 	sext.w	a2, a5
180000fe4: 63 f8 c8 0a 	bgeu	a7, a2, 0x180001094 <vx_spawn_threads+0x174>
180000fe8: bb 72 f8 02 	remuw	t0, a6, a5
180000fec: 3b 56 f8 02 	divuw	a2, a6, a5
180000ff0: 13 8f 02 00 	mv	t5, t0
180000ff4: 63 f4 58 00 	bgeu	a7, t0, 0x180000ffc <vx_spawn_threads+0xdc>
180000ff8: 1b 06 16 00 	addiw	a2, a2, 0x1
180000ffc: 13 13 03 02 	slli	t1, t1, 0x20
180001000: bb d5 a5 02 	divuw	a1, a1, a0
180001004: bb 0f c5 02 	mulw	t6, a0, a2
180001008: 13 98 05 02 	slli	a6, a1, 0x20
18000100c: 13 58 08 02 	srli	a6, a6, 0x20
180001010: 33 68 68 00 	or	a6, a6, t1
180001014: 93 87 0f 00 	mv	a5, t6
180001018: 63 e8 fe 27 	bltu	t4, t6, 0x180001288 <vx_spawn_threads+0x368>
18000101c: 93 05 00 00 	li	a1, 0x0
180001020: 13 03 10 00 	li	t1, 0x1
180001024: 23 34 d1 00 	sd	a3, 0x8(sp)
180001028: 23 38 e1 00 	sd	a4, 0x10(sp)
18000102c: bb 07 c6 03 	mulw	a5, a2, t3
180001030: 63 f4 58 00 	bgeu	a7, t0, 0x180001038 <vx_spawn_threads+0x118>
180001034: 13 0f 0e 00 	mv	t5, t3
180001038: 13 07 f0 ff 	li	a4, -0x1
18000103c: 13 57 07 02 	srli	a4, a4, 0x20
180001040: bb 87 e7 01 	addw	a5, a5, t5
180001044: 93 16 03 02 	slli	a3, t1, 0x20
180001048: b3 77 f7 00 	and	a5, a4, a5
18000104c: 13 16 05 02 	slli	a2, a0, 0x20
180001050: 33 f7 e5 00 	and	a4, a1, a4
180001054: b3 e7 d7 00 	or	a5, a5, a3
180001058: 33 67 c7 00 	or	a4, a4, a2
18000105c: 23 3c f1 00 	sd	a5, 0x18(sp)
180001060: 23 30 e1 02 	sd	a4, 0x20(sp)
180001064: 23 34 01 03 	sd	a6, 0x28(sp)
180001068: 93 07 81 00 	addi	a5, sp, 0x8
18000106c: 73 90 07 34 	csrw	mscratch, a5
180001070: 97 37 00 00 	auipc	a5, 0x3
180001074: 23 a0 a7 7c 	sw	a0, 0x7c0(a5)
180001078: 97 07 00 00 	auipc	a5, 0x0
18000107c: 93 87 87 e5 	addi	a5, a5, -0x1a8
180001080: 0b 90 ff 00 	vx_wspawn	t6, a5
180001084: ef f0 df e4 	jal	0x180000ed0 <process_thread_groups_stub>
180001088: 93 07 10 00 	li	a5, 0x1
18000108c: 13 07 00 00 	li	a4, 0x0
180001090: 0b 90 e7 00 	vx_wspawn	a5, a4
180001094: 13 05 00 00 	li	a0, 0x0
180001098: 83 30 81 03 	ld	ra, 0x38(sp)
18000109c: 03 34 01 03 	ld	s0, 0x30(sp)
1800010a0: 13 01 01 04 	addi	sp, sp, 0x40
1800010a4: 67 80 00 00 	ret
1800010a8: 63 08 05 22 	beqz	a0, 0x1800012d8 <vx_spawn_threads+0x3b8>
1800010ac: 03 a8 05 00 	lw	a6, 0x0(a1)
1800010b0: 17 33 00 00 	auipc	t1, 0x3
1800010b4: 13 03 83 79 	addi	t1, t1, 0x798
1800010b8: 97 38 00 00 	auipc	a7, 0x3
1800010bc: 93 88 08 78 	addi	a7, a7, 0x780
1800010c0: 93 07 10 00 	li	a5, 0x1
1800010c4: 23 20 03 01 	sw	a6, 0x0(t1)
1800010c8: 23 a0 f8 00 	sw	a5, 0x0(a7)
1800010cc: 63 06 f5 22 	beq	a0, a5, 0x1800012f8 <vx_spawn_threads+0x3d8>
1800010d0: 03 a6 45 00 	lw	a2, 0x4(a1)
1800010d4: 13 0e 20 00 	li	t3, 0x2
1800010d8: 23 a2 f8 00 	sw	a5, 0x4(a7)
1800010dc: 23 22 c3 00 	sw	a2, 0x4(t1)
1800010e0: 3b 08 c8 02 	mulw	a6, a6, a2
1800010e4: 63 0e c5 29 	beq	a0, t3, 0x180001380 <vx_spawn_threads+0x460>
1800010e8: 83 a5 85 00 	lw	a1, 0x8(a1)
1800010ec: 3b 08 b8 02 	mulw	a6, a6, a1
1800010f0: 6f 00 80 21 	j	0x180001308 <vx_spawn_threads+0x3e8>
1800010f4: 9b 07 f8 ff 	addiw	a5, a6, -0x1
1800010f8: bb 87 67 00 	addw	a5, a5, t1
1800010fc: bb d7 67 02 	divuw	a5, a5, t1
180001100: 37 16 00 00 	lui	a2, 0x1
180001104: 33 06 46 00 	add	a2, a2, tp
180001108: 37 13 00 00 	lui	t1, 0x1
18000110c: 33 03 43 00 	add	t1, t1, tp
180001110: 13 0f 86 c2 	addi	t5, a2, -0x3d8
180001114: 23 20 03 c2 	sw	zero, -0x3e0(t1)
180001118: 23 34 06 c2 	sd	zero, -0x3d8(a2)
18000111c: 97 32 00 00 	auipc	t0, 0x3
180001120: 23 aa 02 70 	sw	zero, 0x714(t0)
180001124: 23 24 0f 00 	sw	zero, 0x8(t5)
180001128: 1b 86 0f 00 	sext.w	a2, t6
18000112c: 1b 83 07 00 	sext.w	t1, a5
180001130: 63 74 66 00 	bgeu	a2, t1, 0x180001138 <vx_spawn_threads+0x218>
180001134: 93 87 0f 00 	mv	a5, t6
180001138: 1b 86 07 00 	sext.w	a2, a5
18000113c: e3 fc c8 f4 	bgeu	a7, a2, 0x180001094 <vx_spawn_threads+0x174>
180001140: bb 7f f8 02 	remuw	t6, a6, a5
180001144: bb 57 f8 02 	divuw	a5, a6, a5
180001148: 13 83 0f 00 	mv	t1, t6
18000114c: 63 f4 f8 01 	bgeu	a7, t6, 0x180001154 <vx_spawn_threads+0x234>
180001150: 9b 87 17 00 	addiw	a5, a5, 0x1
180001154: 13 08 10 00 	li	a6, 0x1
180001158: 3b df a7 02 	divuw	t5, a5, a0
18000115c: 3b f4 a7 02 	remuw	s0, a5, a0
180001160: 13 06 0f 00 	mv	a2, t5
180001164: 3b 05 e5 03 	mulw	a0, a0, t5
180001168: 63 f0 ee 03 	bgeu	t4, t5, 0x180001188 <vx_spawn_threads+0x268>
18000116c: 13 8f 0e 00 	mv	t5, t4
180001170: 3b 58 b6 02 	divuw	a6, a2, a1
180001174: 3b 76 b6 02 	remuw	a2, a2, a1
180001178: 13 18 08 02 	slli	a6, a6, 0x20
18000117c: 13 58 08 02 	srli	a6, a6, 0x20
180001180: 13 16 06 02 	slli	a2, a2, 0x20
180001184: 33 68 c8 00 	or	a6, a6, a2
180001188: bb 87 c7 03 	mulw	a5, a5, t3
18000118c: 63 e6 f8 11 	bltu	a7, t6, 0x180001298 <vx_spawn_threads+0x378>
180001190: bb 87 67 00 	addw	a5, a5, t1
180001194: 3b 05 f5 00 	addw	a0, a0, a5
180001198: 23 2c f1 00 	sw	a5, 0x18(sp)
18000119c: 23 34 d1 00 	sd	a3, 0x8(sp)
1800011a0: 23 38 e1 00 	sd	a4, 0x10(sp)
1800011a4: 23 2e a1 00 	sw	a0, 0x1c(sp)
1800011a8: 23 30 01 03 	sd	a6, 0x20(sp)
1800011ac: 93 07 81 00 	addi	a5, sp, 0x8
1800011b0: 73 90 07 34 	csrw	mscratch, a5
1800011b4: 63 10 0f 16 	bnez	t5, 0x180001314 <vx_spawn_threads+0x3f4>
1800011b8: e3 08 04 ec 	beqz	s0, 0x180001088 <vx_spawn_threads+0x168>
1800011bc: 93 07 10 00 	li	a5, 0x1
1800011c0: bb 97 87 00 	sllw	a5, a5, s0
1800011c4: 9b 87 f7 ff 	addiw	a5, a5, -0x1
1800011c8: 0b 80 07 00 	vx_tmc	a5
1800011cc: ef f0 df b0 	jal	0x180000cd8 <process_remaining_threads>
1800011d0: 13 05 10 00 	li	a0, 0x1
1800011d4: 0b 00 05 00 	vx_tmc	a0
1800011d8: 6f f0 1f eb 	j	0x180001088 <vx_spawn_threads+0x168>
1800011dc: 63 00 06 16 	beqz	a2, 0x18000133c <vx_spawn_threads+0x41c>
1800011e0: 63 00 05 0c 	beqz	a0, 0x1800012a0 <vx_spawn_threads+0x380>
1800011e4: 83 27 06 00 	lw	a5, 0x0(a2)
1800011e8: 17 33 00 00 	auipc	t1, 0x3
1800011ec: 13 03 03 66 	addi	t1, t1, 0x660
1800011f0: 93 05 10 00 	li	a1, 0x1
1800011f4: 97 38 00 00 	auipc	a7, 0x3
1800011f8: 93 88 48 64 	addi	a7, a7, 0x644
1800011fc: 23 20 b3 00 	sw	a1, 0x0(t1)
180001200: 23 a0 f8 00 	sw	a5, 0x0(a7)
180001204: 63 02 b5 18 	beq	a0, a1, 0x180001388 <vx_spawn_threads+0x468>
180001208: 03 28 46 00 	lw	a6, 0x4(a2)
18000120c: 13 0e 20 00 	li	t3, 0x2
180001210: 23 22 b3 00 	sw	a1, 0x4(t1)
180001214: 23 a2 08 01 	sw	a6, 0x4(a7)
180001218: bb 87 07 03 	mulw	a5, a5, a6
18000121c: 63 08 c5 19 	beq	a0, t3, 0x1800013ac <vx_spawn_threads+0x48c>
180001220: 03 25 86 00 	lw	a0, 0x8(a2)
180001224: bb 87 a7 02 	mulw	a5, a5, a0
180001228: 6f 00 40 0a 	j	0x1800012cc <vx_spawn_threads+0x3ac>
18000122c: 03 a8 05 00 	lw	a6, 0x0(a1)
180001230: 83 27 06 00 	lw	a5, 0x0(a2)
180001234: 17 33 00 00 	auipc	t1, 0x3
180001238: 13 03 43 61 	addi	t1, t1, 0x614
18000123c: 97 38 00 00 	auipc	a7, 0x3
180001240: 93 88 c8 5f 	addi	a7, a7, 0x5fc
180001244: 23 20 03 01 	sw	a6, 0x0(t1)
180001248: 23 a0 f8 00 	sw	a5, 0x0(a7)
18000124c: 13 0e 10 00 	li	t3, 0x1
180001250: e3 04 c5 d1 	beq	a0, t3, 0x180000f58 <vx_spawn_threads+0x38>
180001254: 83 ae 45 00 	lw	t4, 0x4(a1)
180001258: 03 2e 46 00 	lw	t3, 0x4(a2)
18000125c: 93 0f 20 00 	li	t6, 0x2
180001260: 23 22 d3 01 	sw	t4, 0x4(t1)
180001264: 23 a2 c8 01 	sw	t3, 0x4(a7)
180001268: 3b 08 d8 03 	mulw	a6, a6, t4
18000126c: bb 87 c7 03 	mulw	a5, a5, t3
180001270: 63 02 f5 11 	beq	a0, t6, 0x180001374 <vx_spawn_threads+0x454>
180001274: 83 a5 85 00 	lw	a1, 0x8(a1)
180001278: 03 25 86 00 	lw	a0, 0x8(a2)
18000127c: 3b 08 b8 02 	mulw	a6, a6, a1
180001280: bb 87 a7 02 	mulw	a5, a5, a0
180001284: 6f f0 9f ce 	j	0x180000f6c <vx_spawn_threads+0x4c>
180001288: bb 0f b5 02 	mulw	t6, a0, a1
18000128c: 3b d3 f7 03 	divuw	t1, a5, t6
180001290: bb f5 f7 03 	remuw	a1, a5, t6
180001294: 6f f0 1f d9 	j	0x180001024 <vx_spawn_threads+0x104>
180001298: 13 03 0e 00 	mv	t1, t3
18000129c: 6f f0 5f ef 	j	0x180001190 <vx_spawn_threads+0x270>
1800012a0: 93 07 10 00 	li	a5, 0x1
1800012a4: 93 97 07 02 	slli	a5, a5, 0x20
1800012a8: 93 87 17 00 	addi	a5, a5, 0x1
1800012ac: 17 33 00 00 	auipc	t1, 0x3
1800012b0: 13 03 c3 59 	addi	t1, t1, 0x59c
1800012b4: 97 38 00 00 	auipc	a7, 0x3
1800012b8: 93 88 48 58 	addi	a7, a7, 0x584
1800012bc: 23 30 f3 00 	sd	a5, 0x0(t1)
1800012c0: 23 b0 f8 00 	sd	a5, 0x0(a7)
1800012c4: 13 05 10 00 	li	a0, 0x1
1800012c8: 93 07 10 00 	li	a5, 0x1
1800012cc: 93 05 10 00 	li	a1, 0x1
1800012d0: 13 08 10 00 	li	a6, 0x1
1800012d4: 6f f0 9f c9 	j	0x180000f6c <vx_spawn_threads+0x4c>
1800012d8: 93 07 10 00 	li	a5, 0x1
1800012dc: 17 33 00 00 	auipc	t1, 0x3
1800012e0: 13 03 c3 56 	addi	t1, t1, 0x56c
1800012e4: 97 38 00 00 	auipc	a7, 0x3
1800012e8: 93 88 48 55 	addi	a7, a7, 0x554
1800012ec: 23 20 f3 00 	sw	a5, 0x0(t1)
1800012f0: 23 a0 f8 00 	sw	a5, 0x0(a7)
1800012f4: 13 08 10 00 	li	a6, 0x1
1800012f8: 93 07 10 00 	li	a5, 0x1
1800012fc: 23 22 f3 00 	sw	a5, 0x4(t1)
180001300: 23 a2 f8 00 	sw	a5, 0x4(a7)
180001304: 93 05 10 00 	li	a1, 0x1
180001308: 13 05 10 00 	li	a0, 0x1
18000130c: 93 07 10 00 	li	a5, 0x1
180001310: 6f f0 df c5 	j	0x180000f6c <vx_spawn_threads+0x4c>
180001314: 97 07 00 00 	auipc	a5, 0x0
180001318: 93 87 87 a2 	addi	a5, a5, -0x5d8
18000131c: 0b 10 ff 00 	vx_wspawn	t5, a5
180001320: 93 07 f0 ff 	li	a5, -0x1
180001324: 0b 80 07 00 	vx_tmc	a5
180001328: ef f0 9f 88 	jal	0x180000bb0 <process_threads>
18000132c: 13 05 10 00 	li	a0, 0x1
180001330: 0b 00 05 00 	vx_tmc	a0
180001334: e3 0a 04 d4 	beqz	s0, 0x180001088 <vx_spawn_threads+0x168>
180001338: 6f f0 5f e8 	j	0x1800011bc <vx_spawn_threads+0x29c>
18000133c: 93 07 10 00 	li	a5, 0x1
180001340: 93 97 07 02 	slli	a5, a5, 0x20
180001344: 93 87 17 00 	addi	a5, a5, 0x1
180001348: 17 33 00 00 	auipc	t1, 0x3
18000134c: 13 03 03 50 	addi	t1, t1, 0x500
180001350: 97 38 00 00 	auipc	a7, 0x3
180001354: 93 88 88 4e 	addi	a7, a7, 0x4e8
180001358: 23 30 f3 00 	sd	a5, 0x0(t1)
18000135c: 23 b0 f8 00 	sd	a5, 0x0(a7)
180001360: 93 05 10 00 	li	a1, 0x1
180001364: 13 05 10 00 	li	a0, 0x1
180001368: 93 07 10 00 	li	a5, 0x1
18000136c: 13 08 10 00 	li	a6, 0x1
180001370: 6f f0 df bf 	j	0x180000f6c <vx_spawn_threads+0x4c>
180001374: 93 05 10 00 	li	a1, 0x1
180001378: 13 05 10 00 	li	a0, 0x1
18000137c: 6f f0 1f bf 	j	0x180000f6c <vx_spawn_threads+0x4c>
180001380: 93 05 10 00 	li	a1, 0x1
180001384: 6f f0 5f f8 	j	0x180001308 <vx_spawn_threads+0x3e8>
180001388: 23 22 a3 00 	sw	a0, 0x4(t1)
18000138c: 23 a2 a8 00 	sw	a0, 0x4(a7)
180001390: 6f f0 df f3 	j	0x1800012cc <vx_spawn_threads+0x3ac>
180001394: 93 85 07 00 	mv	a1, a5
180001398: 17 25 00 00 	auipc	a0, 0x2
18000139c: 13 05 85 0f 	addi	a0, a0, 0xf8
1800013a0: ef f0 0f fb 	jal	0x180000b50 <vx_printf>
1800013a4: 13 05 f0 ff 	li	a0, -0x1
1800013a8: 6f f0 1f cf 	j	0x180001098 <vx_spawn_threads+0x178>
1800013ac: 13 05 10 00 	li	a0, 0x1
1800013b0: 6f f0 df f1 	j	0x1800012cc <vx_spawn_threads+0x3ac>

00000001800013b4 <vx_serial>:
1800013b4: 13 01 81 fc 	addi	sp, sp, -0x38
1800013b8: 23 38 11 02 	sd	ra, 0x30(sp)
1800013bc: 23 34 51 03 	sd	s5, 0x28(sp)
1800013c0: 23 30 41 03 	sd	s4, 0x20(sp)
1800013c4: 23 3c 31 01 	sd	s3, 0x18(sp)
1800013c8: 23 38 21 01 	sd	s2, 0x10(sp)
1800013cc: 23 34 91 00 	sd	s1, 0x8(sp)
1800013d0: 23 30 81 00 	sd	s0, 0x0(sp)
1800013d4: 13 0a 05 00 	mv	s4, a0
1800013d8: 93 89 05 00 	mv	s3, a1
1800013dc: 73 29 00 fc 	csrr	s2, nt
1800013e0: f3 24 00 cc 	csrr	s1, tid
1800013e4: 13 04 00 00 	li	s0, 0x0

00000001800013e8 <label_loop>:
1800013e8: b3 02 94 40 	sub	t0, s0, s1
1800013ec: 13 b3 12 00 	seqz	t1, t0
1800013f0: 8b 2a 03 00 	vx_split	s5, t1
1800013f4: 63 96 02 00 	bnez	t0, 0x180001400 <label_join>
1800013f8: 13 85 09 00 	mv	a0, s3
1800013fc: e7 00 0a 00 	jalr	s4

0000000180001400 <label_join>:
180001400: 0b b0 0a 00 	vx_join	s5
180001404: 13 04 14 00 	addi	s0, s0, 0x1
180001408: e3 40 24 ff 	blt	s0, s2, 0x1800013e8 <label_loop>
18000140c: 83 30 01 03 	ld	ra, 0x30(sp)
180001410: 83 3a 81 02 	ld	s5, 0x28(sp)
180001414: 03 3a 01 02 	ld	s4, 0x20(sp)
180001418: 83 39 81 01 	ld	s3, 0x18(sp)
18000141c: 03 39 01 01 	ld	s2, 0x10(sp)
180001420: 83 34 81 00 	ld	s1, 0x8(sp)
180001424: 03 34 01 00 	ld	s0, 0x0(sp)
180001428: 13 01 81 03 	addi	sp, sp, 0x38
18000142c: 67 80 00 00 	ret

0000000180001430 <vx_perf_dump>:
180001430: 73 27 20 cc 	csrr	a4, cid
180001434: 1b 07 07 00 	sext.w	a4, a4
180001438: 13 17 87 00 	slli	a4, a4, 0x8
18000143c: 93 07 07 08 	addi	a5, a4, 0x80
180001440: f3 26 00 b0 	csrr	a3, mcycle
180001444: 23 30 d7 08 	sd	a3, 0x80(a4)
180001448: 73 27 20 b0 	csrr	a4, minstret
18000144c: 23 b8 e7 00 	sd	a4, 0x10(a5)
180001450: 73 27 30 b0 	csrr	a4, mhpmcounter3
180001454: 23 bc e7 00 	sd	a4, 0x18(a5)
180001458: 73 27 40 b0 	csrr	a4, mhpmcounter4
18000145c: 23 b0 e7 02 	sd	a4, 0x20(a5)
180001460: 73 27 50 b0 	csrr	a4, mhpmcounter5
180001464: 23 b4 e7 02 	sd	a4, 0x28(a5)
180001468: 73 27 60 b0 	csrr	a4, mhpmcounter6
18000146c: 23 b8 e7 02 	sd	a4, 0x30(a5)
180001470: 73 27 70 b0 	csrr	a4, mhpmcounter7
180001474: 23 bc e7 02 	sd	a4, 0x38(a5)
180001478: 73 27 80 b0 	csrr	a4, mhpmcounter8
18000147c: 23 b0 e7 04 	sd	a4, 0x40(a5)
180001480: 73 27 90 b0 	csrr	a4, mhpmcounter9
180001484: 23 b4 e7 04 	sd	a4, 0x48(a5)
180001488: 73 27 a0 b0 	csrr	a4, mhpmcounter10
18000148c: 23 b8 e7 04 	sd	a4, 0x50(a5)
180001490: 73 27 b0 b0 	csrr	a4, mhpmcounter11
180001494: 23 bc e7 04 	sd	a4, 0x58(a5)
180001498: 73 27 c0 b0 	csrr	a4, mhpmcounter12
18000149c: 23 b0 e7 06 	sd	a4, 0x60(a5)
1800014a0: 73 27 d0 b0 	csrr	a4, mhpmcounter13
1800014a4: 23 b4 e7 06 	sd	a4, 0x68(a5)
1800014a8: 73 27 e0 b0 	csrr	a4, mhpmcounter14
1800014ac: 23 b8 e7 06 	sd	a4, 0x70(a5)
1800014b0: 73 27 f0 b0 	csrr	a4, mhpmcounter15
1800014b4: 23 bc e7 06 	sd	a4, 0x78(a5)
1800014b8: 73 27 00 b1 	csrr	a4, mhpmcounter16
1800014bc: 23 b0 e7 08 	sd	a4, 0x80(a5)
1800014c0: 73 27 10 b1 	csrr	a4, mhpmcounter17
1800014c4: 23 b4 e7 08 	sd	a4, 0x88(a5)
1800014c8: 73 27 20 b1 	csrr	a4, mhpmcounter18
1800014cc: 23 b8 e7 08 	sd	a4, 0x90(a5)
1800014d0: 73 27 30 b1 	csrr	a4, mhpmcounter19
1800014d4: 23 bc e7 08 	sd	a4, 0x98(a5)
1800014d8: 73 27 40 b1 	csrr	a4, mhpmcounter20
1800014dc: 23 b0 e7 0a 	sd	a4, 0xa0(a5)
1800014e0: 73 27 50 b1 	csrr	a4, mhpmcounter21
1800014e4: 23 b4 e7 0a 	sd	a4, 0xa8(a5)
1800014e8: 73 27 60 b1 	csrr	a4, mhpmcounter22
1800014ec: 23 b8 e7 0a 	sd	a4, 0xb0(a5)
1800014f0: 73 27 70 b1 	csrr	a4, mhpmcounter23
1800014f4: 23 bc e7 0a 	sd	a4, 0xb8(a5)
1800014f8: 73 27 80 b1 	csrr	a4, mhpmcounter24
1800014fc: 23 b0 e7 0c 	sd	a4, 0xc0(a5)
180001500: 73 27 90 b1 	csrr	a4, mhpmcounter25
180001504: 23 b4 e7 0c 	sd	a4, 0xc8(a5)
180001508: 73 27 a0 b1 	csrr	a4, mhpmcounter26
18000150c: 23 b8 e7 0c 	sd	a4, 0xd0(a5)
180001510: 73 27 b0 b1 	csrr	a4, mhpmcounter27
180001514: 23 bc e7 0c 	sd	a4, 0xd8(a5)
180001518: 73 27 c0 b1 	csrr	a4, mhpmcounter28
18000151c: 23 b0 e7 0e 	sd	a4, 0xe0(a5)
180001520: 73 27 d0 b1 	csrr	a4, mhpmcounter29
180001524: 23 b4 e7 0e 	sd	a4, 0xe8(a5)
180001528: 73 27 e0 b1 	csrr	a4, mhpmcounter30
18000152c: 23 b8 e7 0e 	sd	a4, 0xf0(a5)
180001530: 73 27 f0 b1 	csrr	a4, mhpmcounter31
180001534: 23 bc e7 0e 	sd	a4, 0xf8(a5)
180001538: 67 80 00 00 	ret

000000018000153c <_out_null>:
18000153c: 67 80 00 00 	ret

0000000180001540 <_out_rev>:
180001540: 13 01 01 fa 	addi	sp, sp, -0x60
180001544: 23 34 91 04 	sd	s1, 0x48(sp)
180001548: 23 30 21 05 	sd	s2, 0x40(sp)
18000154c: 23 3c 31 03 	sd	s3, 0x38(sp)
180001550: 23 38 41 03 	sd	s4, 0x30(sp)
180001554: 23 34 51 03 	sd	s5, 0x28(sp)
180001558: 23 30 61 03 	sd	s6, 0x20(sp)
18000155c: 93 0a 06 00 	mv	s5, a2
180001560: 23 38 81 01 	sd	s8, 0x10(sp)
180001564: 23 34 91 01 	sd	s9, 0x8(sp)
180001568: 23 30 a1 01 	sd	s10, 0x0(sp)
18000156c: 23 3c 11 04 	sd	ra, 0x58(sp)
180001570: 23 38 81 04 	sd	s0, 0x50(sp)
180001574: 23 3c 71 01 	sd	s7, 0x18(sp)
180001578: 13 f6 38 00 	andi	a2, a7, 0x3
18000157c: 93 8c 08 00 	mv	s9, a7
180001580: 13 09 05 00 	mv	s2, a0
180001584: 93 89 05 00 	mv	s3, a1
180001588: 13 8a 06 00 	mv	s4, a3
18000158c: 13 0b 07 00 	mv	s6, a4
180001590: 13 8d 07 00 	mv	s10, a5
180001594: 13 0c 08 00 	mv	s8, a6
180001598: 93 84 0a 00 	mv	s1, s5
18000159c: 63 1c 06 02 	bnez	a2, 0x1800015d4 <_out_rev+0x94>
1800015a0: 93 17 08 02 	slli	a5, a6, 0x20
1800015a4: 93 d7 07 02 	srli	a5, a5, 0x20
1800015a8: b3 84 a7 41 	sub	s1, a5, s10
1800015ac: b3 84 54 01 	add	s1, s1, s5
1800015b0: 13 84 0a 00 	mv	s0, s5
1800015b4: 63 70 fd 0c 	bgeu	s10, a5, 0x180001674 <_out_rev+0x134>
1800015b8: 13 06 04 00 	mv	a2, s0
1800015bc: 93 06 0a 00 	mv	a3, s4
1800015c0: 13 04 14 00 	addi	s0, s0, 0x1
1800015c4: 93 85 09 00 	mv	a1, s3
1800015c8: 13 05 00 02 	li	a0, 0x20
1800015cc: e7 00 09 00 	jalr	s2
1800015d0: e3 14 94 fe 	bne	s0, s1, 0x1800015b8 <_out_rev+0x78>
1800015d4: 33 04 ab 01 	add	s0, s6, s10
1800015d8: b3 0b 94 00 	add	s7, s0, s1
1800015dc: 63 02 0d 02 	beqz	s10, 0x180001600 <_out_rev+0xc0>
1800015e0: 03 45 f4 ff 	lbu	a0, -0x1(s0)
1800015e4: 33 86 8b 40 	sub	a2, s7, s0
1800015e8: 93 06 0a 00 	mv	a3, s4
1800015ec: 13 04 f4 ff 	addi	s0, s0, -0x1
1800015f0: 93 85 09 00 	mv	a1, s3
1800015f4: e7 00 09 00 	jalr	s2
1800015f8: e3 14 8b fe 	bne	s6, s0, 0x1800015e0 <_out_rev+0xa0>
1800015fc: b3 84 a4 01 	add	s1, s1, s10
180001600: 93 fc 2c 00 	andi	s9, s9, 0x2
180001604: 63 8a 0c 02 	beqz	s9, 0x180001638 <_out_rev+0xf8>
180001608: 13 1c 0c 02 	slli	s8, s8, 0x20
18000160c: b3 8a 54 41 	sub	s5, s1, s5
180001610: 13 5c 0c 02 	srli	s8, s8, 0x20
180001614: 63 f2 8a 03 	bgeu	s5, s8, 0x180001638 <_out_rev+0xf8>
180001618: 13 86 04 00 	mv	a2, s1
18000161c: 93 8a 1a 00 	addi	s5, s5, 0x1
180001620: 93 06 0a 00 	mv	a3, s4
180001624: 93 85 09 00 	mv	a1, s3
180001628: 13 05 00 02 	li	a0, 0x20
18000162c: 93 84 14 00 	addi	s1, s1, 0x1
180001630: e7 00 09 00 	jalr	s2
180001634: e3 e2 8a ff 	bltu	s5, s8, 0x180001618 <_out_rev+0xd8>
180001638: 83 30 81 05 	ld	ra, 0x58(sp)
18000163c: 03 34 01 05 	ld	s0, 0x50(sp)
180001640: 03 39 01 04 	ld	s2, 0x40(sp)
180001644: 83 39 81 03 	ld	s3, 0x38(sp)
180001648: 03 3a 01 03 	ld	s4, 0x30(sp)
18000164c: 83 3a 81 02 	ld	s5, 0x28(sp)
180001650: 03 3b 01 02 	ld	s6, 0x20(sp)
180001654: 83 3b 81 01 	ld	s7, 0x18(sp)
180001658: 03 3c 01 01 	ld	s8, 0x10(sp)
18000165c: 83 3c 81 00 	ld	s9, 0x8(sp)
180001660: 03 3d 01 00 	ld	s10, 0x0(sp)
180001664: 13 85 04 00 	mv	a0, s1
180001668: 83 34 81 04 	ld	s1, 0x48(sp)
18000166c: 13 01 01 06 	addi	sp, sp, 0x60
180001670: 67 80 00 00 	ret
180001674: 93 84 0a 00 	mv	s1, s5
180001678: 6f f0 df f5 	j	0x1800015d4 <_out_rev+0x94>

000000018000167c <_ntoa_long_long>:
18000167c: 13 01 01 fb 	addi	sp, sp, -0x50
180001680: 23 30 81 04 	sd	s0, 0x40(sp)
180001684: 03 24 81 05 	lw	s0, 0x58(sp)
180001688: 23 3c 91 02 	sd	s1, 0x38(sp)
18000168c: 23 38 21 03 	sd	s2, 0x30(sp)
180001690: 23 34 31 03 	sd	s3, 0x28(sp)
180001694: 23 34 11 04 	sd	ra, 0x48(sp)
180001698: 93 0e 08 00 	mv	t4, a6
18000169c: 13 0e 07 00 	mv	t3, a4
1800016a0: 03 28 01 05 	lw	a6, 0x50(sp)
1800016a4: 93 84 07 00 	mv	s1, a5
1800016a8: 93 79 04 40 	andi	s3, s0, 0x400
1800016ac: 13 79 04 01 	andi	s2, s0, 0x10
1800016b0: 63 1a 07 00 	bnez	a4, 0x1800016c4 <_ntoa_long_long+0x48>
1800016b4: 13 09 04 00 	mv	s2, s0
1800016b8: 13 74 f4 fe 	andi	s0, s0, -0x11
1800016bc: 63 9e 09 0a 	bnez	s3, 0x180001778 <_ntoa_long_long+0xfc>
1800016c0: 13 09 00 00 	li	s2, 0x0
1800016c4: 93 77 04 02 	andi	a5, s0, 0x20
1800016c8: 93 02 10 06 	li	t0, 0x61
1800016cc: 63 9c 07 12 	bnez	a5, 0x180001804 <_ntoa_long_long+0x188>
1800016d0: 93 07 00 00 	li	a5, 0x0
1800016d4: 13 07 01 00 	mv	a4, sp
1800016d8: 93 03 90 00 	li	t2, 0x9
1800016dc: 9b 82 62 ff 	addiw	t0, t0, -0xa
1800016e0: 93 00 00 02 	li	ra, 0x20
1800016e4: 6f 00 c0 00 	j	0x1800016f0 <_ntoa_long_long+0x74>
1800016e8: 63 8c 17 02 	beq	a5, ra, 0x180001720 <_ntoa_long_long+0xa4>
1800016ec: 13 0e 03 00 	mv	t3, t1
1800016f0: 33 7f de 03 	remu	t5, t3, t4
1800016f4: 13 73 ff 0f 	andi	t1, t5, 0xff
1800016f8: 9b 0f 03 03 	addiw	t6, t1, 0x30
1800016fc: 3b 83 62 00 	addw	t1, t0, t1
180001700: 13 73 f3 0f 	andi	t1, t1, 0xff
180001704: 63 e4 e3 01 	bltu	t2, t5, 0x18000170c <_ntoa_long_long+0x90>
180001708: 13 f3 ff 0f 	andi	t1, t6, 0xff
18000170c: 93 87 17 00 	addi	a5, a5, 0x1
180001710: 33 0f f7 00 	add	t5, a4, a5
180001714: a3 0f 6f fe 	sb	t1, -0x1(t5)
180001718: 33 53 de 03 	divu	t1, t3, t4
18000171c: e3 76 de fd 	bgeu	t3, t4, 0x1800016e8 <_ntoa_long_long+0x6c>
180001720: 13 73 24 00 	andi	t1, s0, 0x2
180001724: 9b 83 0e 00 	sext.w	t2, t4
180001728: 63 02 03 06 	beqz	t1, 0x18000178c <_ntoa_long_long+0x110>
18000172c: 63 00 09 12 	beqz	s2, 0x18000184c <_ntoa_long_long+0x1d0>
180001730: 63 9e 09 16 	bnez	s3, 0x1800018ac <_ntoa_long_long+0x230>
180001734: 63 9c 07 0c 	bnez	a5, 0x18000180c <_ntoa_long_long+0x190>
180001738: 93 07 00 01 	li	a5, 0x10
18000173c: 63 80 fe 2c 	beq	t4, a5, 0x1800019fc <_ntoa_long_long+0x380>
180001740: 93 07 20 00 	li	a5, 0x2
180001744: 63 86 f3 2c 	beq	t2, a5, 0x180001a10 <_ntoa_long_long+0x394>
180001748: 93 07 00 03 	li	a5, 0x30
18000174c: 23 00 f1 00 	sb	a5, 0x0(sp)
180001750: 13 0e 10 00 	li	t3, 0x1
180001754: 63 9e 04 18 	bnez	s1, 0x1800018f0 <_ntoa_long_long+0x274>
180001758: 93 77 44 00 	andi	a5, s0, 0x4
18000175c: 63 86 07 22 	beqz	a5, 0x180001988 <_ntoa_long_long+0x30c>
180001760: 93 07 0e 02 	addi	a5, t3, 0x20
180001764: b3 88 27 00 	add	a7, a5, sp
180001768: 13 03 b0 02 	li	t1, 0x2b
18000176c: 93 07 1e 00 	addi	a5, t3, 0x1
180001770: 23 80 68 fe 	sb	t1, -0x20(a7)
180001774: 6f 00 40 0e 	j	0x180001858 <_ntoa_long_long+0x1dc>
180001778: 13 79 29 00 	andi	s2, s2, 0x2
18000177c: 63 16 09 18 	bnez	s2, 0x180001908 <_ntoa_long_long+0x28c>
180001780: 9b 83 0e 00 	sext.w	t2, t4
180001784: 93 07 00 00 	li	a5, 0x0
180001788: 13 07 01 00 	mv	a4, sp
18000178c: 13 9e 08 02 	slli	t3, a7, 0x20
180001790: 13 5e 0e 02 	srli	t3, t3, 0x20
180001794: 63 14 08 0e 	bnez	a6, 0x18000187c <_ntoa_long_long+0x200>
180001798: e3 fa c7 f9 	bgeu	a5, t3, 0x18000172c <_ntoa_long_long+0xb0>
18000179c: 13 03 00 02 	li	t1, 0x20
1800017a0: 93 72 14 00 	andi	t0, s0, 0x1
1800017a4: 63 8e 67 26 	beq	a5, t1, 0x180001a20 <_ntoa_long_long+0x3a4>
1800017a8: 13 0f 00 03 	li	t5, 0x30
1800017ac: 93 0f 00 02 	li	t6, 0x20
1800017b0: 6f 00 80 00 	j	0x1800017b8 <_ntoa_long_long+0x13c>
1800017b4: 63 8e f7 11 	beq	a5, t6, 0x1800018d0 <_ntoa_long_long+0x254>
1800017b8: 93 87 17 00 	addi	a5, a5, 0x1
1800017bc: 33 03 f7 00 	add	t1, a4, a5
1800017c0: a3 0f e3 ff 	sb	t5, -0x1(t1)
1800017c4: e3 e8 c7 ff 	bltu	a5, t3, 0x1800017b4 <_ntoa_long_long+0x138>
1800017c8: e3 82 02 f6 	beqz	t0, 0x18000172c <_ntoa_long_long+0xb0>
1800017cc: 13 1f 08 02 	slli	t5, a6, 0x20
1800017d0: 13 5f 0f 02 	srli	t5, t5, 0x20
1800017d4: e3 fc e7 f5 	bgeu	a5, t5, 0x18000172c <_ntoa_long_long+0xb0>
1800017d8: 13 03 00 02 	li	t1, 0x20
1800017dc: 93 0f 00 03 	li	t6, 0x30
1800017e0: 93 02 00 02 	li	t0, 0x20
1800017e4: 63 96 67 00 	bne	a5, t1, 0x1800017f0 <_ntoa_long_long+0x174>
1800017e8: 6f 00 00 0f 	j	0x1800018d8 <_ntoa_long_long+0x25c>
1800017ec: 63 8a 57 18 	beq	a5, t0, 0x180001980 <_ntoa_long_long+0x304>
1800017f0: 93 87 17 00 	addi	a5, a5, 0x1
1800017f4: 33 03 f7 00 	add	t1, a4, a5
1800017f8: a3 0f f3 ff 	sb	t6, -0x1(t1)
1800017fc: e3 98 e7 ff 	bne	a5, t5, 0x1800017ec <_ntoa_long_long+0x170>
180001800: 6f f0 df f2 	j	0x18000172c <_ntoa_long_long+0xb0>
180001804: 93 02 10 04 	li	t0, 0x41
180001808: 6f f0 9f ec 	j	0x1800016d0 <_ntoa_long_long+0x54>
18000180c: 13 9e 08 02 	slli	t3, a7, 0x20
180001810: 13 5e 0e 02 	srli	t3, t3, 0x20
180001814: 63 08 fe 00 	beq	t3, a5, 0x180001824 <_ntoa_long_long+0x1a8>
180001818: 93 18 08 02 	slli	a7, a6, 0x20
18000181c: 93 d8 08 02 	srli	a7, a7, 0x20
180001820: 63 96 f8 08 	bne	a7, a5, 0x1800018ac <_ntoa_long_long+0x230>
180001824: 93 88 f7 ff 	addi	a7, a5, -0x1
180001828: 63 82 08 1a 	beqz	a7, 0x1800019cc <_ntoa_long_long+0x350>
18000182c: 13 03 00 01 	li	t1, 0x10
180001830: 63 8e 6e 1e 	beq	t4, t1, 0x180001a2c <_ntoa_long_long+0x3b0>
180001834: 13 03 20 00 	li	t1, 0x2
180001838: 63 86 63 12 	beq	t2, t1, 0x180001964 <_ntoa_long_long+0x2e8>
18000183c: 93 88 08 02 	addi	a7, a7, 0x20
180001840: b3 88 28 00 	add	a7, a7, sp
180001844: 13 03 00 03 	li	t1, 0x30
180001848: 23 80 68 fe 	sb	t1, -0x20(a7)
18000184c: 93 08 00 02 	li	a7, 0x20
180001850: 13 8e 07 00 	mv	t3, a5
180001854: e3 90 17 f1 	bne	a5, a7, 0x180001754 <_ntoa_long_long+0xd8>
180001858: 93 08 04 00 	mv	a7, s0
18000185c: ef f0 5f ce 	jal	0x180001540 <_out_rev>
180001860: 83 30 81 04 	ld	ra, 0x48(sp)
180001864: 03 34 01 04 	ld	s0, 0x40(sp)
180001868: 83 34 81 03 	ld	s1, 0x38(sp)
18000186c: 03 39 01 03 	ld	s2, 0x30(sp)
180001870: 83 39 81 02 	ld	s3, 0x28(sp)
180001874: 13 01 01 05 	addi	sp, sp, 0x50
180001878: 67 80 00 00 	ret
18000187c: 93 72 14 00 	andi	t0, s0, 0x1
180001880: 13 03 04 00 	mv	t1, s0
180001884: 63 88 02 08 	beqz	t0, 0x180001914 <_ntoa_long_long+0x298>
180001888: 63 98 04 0e 	bnez	s1, 0x180001978 <_ntoa_long_long+0x2fc>
18000188c: 13 73 c3 00 	andi	t1, t1, 0xc
180001890: 63 14 03 0e 	bnez	t1, 0x180001978 <_ntoa_long_long+0x2fc>
180001894: e3 fc c7 f3 	bgeu	a5, t3, 0x1800017cc <_ntoa_long_long+0x150>
180001898: 13 03 00 02 	li	t1, 0x20
18000189c: e3 96 67 f0 	bne	a5, t1, 0x1800017a8 <_ntoa_long_long+0x12c>
1800018a0: 63 ec 07 03 	bltu	a5, a6, 0x1800018d8 <_ntoa_long_long+0x25c>
1800018a4: e3 0a 09 fa 	beqz	s2, 0x180001858 <_ntoa_long_long+0x1dc>
1800018a8: e3 86 09 e8 	beqz	s3, 0x180001734 <_ntoa_long_long+0xb8>
1800018ac: 93 08 00 01 	li	a7, 0x10
1800018b0: 63 8e 1e 07 	beq	t4, a7, 0x18000192c <_ntoa_long_long+0x2b0>
1800018b4: 93 08 20 00 	li	a7, 0x2
1800018b8: 63 8e 13 09 	beq	t2, a7, 0x180001954 <_ntoa_long_long+0x2d8>
1800018bc: 93 08 00 02 	li	a7, 0x20
1800018c0: e3 8c 17 f9 	beq	a5, a7, 0x180001858 <_ntoa_long_long+0x1dc>
1800018c4: 93 88 07 00 	mv	a7, a5
1800018c8: 93 87 17 00 	addi	a5, a5, 0x1
1800018cc: 6f f0 1f f7 	j	0x18000183c <_ntoa_long_long+0x1c0>
1800018d0: 63 82 02 1a 	beqz	t0, 0x180001a74 <_ntoa_long_long+0x3f8>
1800018d4: 63 f6 07 0b 	bgeu	a5, a6, 0x180001980 <_ntoa_long_long+0x304>
1800018d8: 93 07 00 02 	li	a5, 0x20
1800018dc: e3 0e 09 f6 	beqz	s2, 0x180001858 <_ntoa_long_long+0x1dc>
1800018e0: 63 90 09 18 	bnez	s3, 0x180001a60 <_ntoa_long_long+0x3e4>
1800018e4: e3 1a fe f2 	bne	t3, a5, 0x180001818 <_ntoa_long_long+0x19c>
1800018e8: 93 08 f0 01 	li	a7, 0x1f
1800018ec: 6f f0 1f f4 	j	0x18000182c <_ntoa_long_long+0x1b0>
1800018f0: 93 07 0e 02 	addi	a5, t3, 0x20
1800018f4: b3 88 27 00 	add	a7, a5, sp
1800018f8: 13 03 d0 02 	li	t1, 0x2d
1800018fc: 93 07 1e 00 	addi	a5, t3, 0x1
180001900: 23 80 68 fe 	sb	t1, -0x20(a7)
180001904: 6f f0 5f f5 	j	0x180001858 <_ntoa_long_long+0x1dc>
180001908: 13 07 01 00 	mv	a4, sp
18000190c: e3 86 04 e4 	beqz	s1, 0x180001758 <_ntoa_long_long+0xdc>
180001910: 6f f0 1f fe 	j	0x1800018f0 <_ntoa_long_long+0x274>
180001914: e3 fc c7 e1 	bgeu	a5, t3, 0x18000172c <_ntoa_long_long+0xb0>
180001918: 13 03 00 02 	li	t1, 0x20
18000191c: e3 96 67 e8 	bne	a5, t1, 0x1800017a8 <_ntoa_long_long+0x12c>
180001920: e3 0c 09 f2 	beqz	s2, 0x180001858 <_ntoa_long_long+0x1dc>
180001924: e3 94 09 f8 	bnez	s3, 0x1800018ac <_ntoa_long_long+0x230>
180001928: 6f f0 df ee 	j	0x180001814 <_ntoa_long_long+0x198>
18000192c: 93 78 04 02 	andi	a7, s0, 0x20
180001930: 63 8e 08 06 	beqz	a7, 0x1800019ac <_ntoa_long_long+0x330>
180001934: 93 08 00 02 	li	a7, 0x20
180001938: e3 80 17 f3 	beq	a5, a7, 0x180001858 <_ntoa_long_long+0x1dc>
18000193c: 93 88 07 02 	addi	a7, a5, 0x20
180001940: b3 88 28 00 	add	a7, a7, sp
180001944: 13 03 80 05 	li	t1, 0x58
180001948: 23 80 68 fe 	sb	t1, -0x20(a7)
18000194c: 93 87 17 00 	addi	a5, a5, 0x1
180001950: 6f f0 df f6 	j	0x1800018bc <_ntoa_long_long+0x240>
180001954: 93 08 00 02 	li	a7, 0x20
180001958: e3 80 17 f1 	beq	a5, a7, 0x180001858 <_ntoa_long_long+0x1dc>
18000195c: 93 88 07 00 	mv	a7, a5
180001960: 93 87 17 00 	addi	a5, a5, 0x1
180001964: 93 88 08 02 	addi	a7, a7, 0x20
180001968: b3 88 28 00 	add	a7, a7, sp
18000196c: 13 03 20 06 	li	t1, 0x62
180001970: 23 80 68 fe 	sb	t1, -0x20(a7)
180001974: 6f f0 9f f4 	j	0x1800018bc <_ntoa_long_long+0x240>
180001978: 1b 08 f8 ff 	addiw	a6, a6, -0x1
18000197c: 6f f0 9f f1 	j	0x180001894 <_ntoa_long_long+0x218>
180001980: 93 07 00 02 	li	a5, 0x20
180001984: 6f f0 df f9 	j	0x180001920 <_ntoa_long_long+0x2a4>
180001988: 93 78 84 00 	andi	a7, s0, 0x8
18000198c: 93 07 0e 00 	mv	a5, t3
180001990: e3 84 08 ec 	beqz	a7, 0x180001858 <_ntoa_long_long+0x1dc>
180001994: 93 08 0e 02 	addi	a7, t3, 0x20
180001998: 33 8e 28 00 	add	t3, a7, sp
18000199c: 93 08 00 02 	li	a7, 0x20
1800019a0: 93 87 17 00 	addi	a5, a5, 0x1
1800019a4: 23 00 1e ff 	sb	a7, -0x20(t3)
1800019a8: 6f f0 1f eb 	j	0x180001858 <_ntoa_long_long+0x1dc>
1800019ac: 93 08 00 02 	li	a7, 0x20
1800019b0: e3 84 17 eb 	beq	a5, a7, 0x180001858 <_ntoa_long_long+0x1dc>
1800019b4: 93 88 07 02 	addi	a7, a5, 0x20
1800019b8: b3 88 28 00 	add	a7, a7, sp
1800019bc: 13 03 80 07 	li	t1, 0x78
1800019c0: 23 80 68 fe 	sb	t1, -0x20(a7)
1800019c4: 93 87 17 00 	addi	a5, a5, 0x1
1800019c8: 6f f0 5f ef 	j	0x1800018bc <_ntoa_long_long+0x240>
1800019cc: 93 07 00 01 	li	a5, 0x10
1800019d0: e3 98 fe d6 	bne	t4, a5, 0x180001740 <_ntoa_long_long+0xc4>
1800019d4: 93 78 04 02 	andi	a7, s0, 0x20
1800019d8: 93 07 80 07 	li	a5, 0x78
1800019dc: 63 84 08 00 	beqz	a7, 0x1800019e4 <_ntoa_long_long+0x368>
1800019e0: 93 07 80 05 	li	a5, 0x58
1800019e4: 23 00 f1 00 	sb	a5, 0x0(sp)
1800019e8: 93 07 00 03 	li	a5, 0x30
1800019ec: a3 00 f1 00 	sb	a5, 0x1(sp)
1800019f0: 13 0e 20 00 	li	t3, 0x2
1800019f4: e3 82 04 d6 	beqz	s1, 0x180001758 <_ntoa_long_long+0xdc>
1800019f8: 6f f0 9f ef 	j	0x1800018f0 <_ntoa_long_long+0x274>
1800019fc: 93 77 04 02 	andi	a5, s0, 0x20
180001a00: 63 8c 07 00 	beqz	a5, 0x180001a18 <_ntoa_long_long+0x39c>
180001a04: 93 07 80 05 	li	a5, 0x58
180001a08: 23 00 f1 00 	sb	a5, 0x0(sp)
180001a0c: 6f f0 df fd 	j	0x1800019e8 <_ntoa_long_long+0x36c>
180001a10: 93 07 20 06 	li	a5, 0x62
180001a14: 6f f0 1f fd 	j	0x1800019e4 <_ntoa_long_long+0x368>
180001a18: 93 07 80 07 	li	a5, 0x78
180001a1c: 6f f0 9f fc 	j	0x1800019e4 <_ntoa_long_long+0x368>
180001a20: e3 80 02 f0 	beqz	t0, 0x180001920 <_ntoa_long_long+0x2a4>
180001a24: e3 12 09 e8 	bnez	s2, 0x1800018a8 <_ntoa_long_long+0x22c>
180001a28: 6f f0 1f e3 	j	0x180001858 <_ntoa_long_long+0x1dc>
180001a2c: 93 87 e7 ff 	addi	a5, a5, -0x2
180001a30: 93 87 07 02 	addi	a5, a5, 0x20
180001a34: 13 73 04 02 	andi	t1, s0, 0x20
180001a38: b3 87 27 00 	add	a5, a5, sp
180001a3c: 63 1a 03 00 	bnez	t1, 0x180001a50 <_ntoa_long_long+0x3d4>
180001a40: 13 03 80 07 	li	t1, 0x78
180001a44: 23 80 67 fe 	sb	t1, -0x20(a5)
180001a48: 93 87 08 00 	mv	a5, a7
180001a4c: 6f f0 9f e7 	j	0x1800018c4 <_ntoa_long_long+0x248>
180001a50: 13 03 80 05 	li	t1, 0x58
180001a54: 23 80 67 fe 	sb	t1, -0x20(a5)
180001a58: 93 87 08 00 	mv	a5, a7
180001a5c: 6f f0 9f e6 	j	0x1800018c4 <_ntoa_long_long+0x248>
180001a60: 93 08 00 01 	li	a7, 0x10
180001a64: e3 84 1e ed 	beq	t4, a7, 0x18000192c <_ntoa_long_long+0x2b0>
180001a68: 93 08 20 00 	li	a7, 0x2
180001a6c: e3 98 13 e5 	bne	t2, a7, 0x1800018bc <_ntoa_long_long+0x240>
180001a70: 6f f0 9f de 	j	0x180001858 <_ntoa_long_long+0x1dc>
180001a74: e3 02 09 de 	beqz	s2, 0x180001858 <_ntoa_long_long+0x1dc>
180001a78: e3 94 09 fe 	bnez	s3, 0x180001a60 <_ntoa_long_long+0x3e4>
180001a7c: e3 9e f8 d8 	bne	a7, a5, 0x180001818 <_ntoa_long_long+0x19c>
180001a80: 93 08 f0 01 	li	a7, 0x1f
180001a84: 6f f0 9f da 	j	0x18000182c <_ntoa_long_long+0x1b0>

0000000180001a88 <_out_char>:
180001a88: 63 14 05 00 	bnez	a0, 0x180001a90 <_out_char+0x8>
180001a8c: 67 80 00 00 	ret
180001a90: 6f f0 4f 87 	j	0x180000b04 <vx_putchar>

0000000180001a94 <_ftoa>:
180001a94: 53 23 a5 a2 	feq.d	t1, fa0, fa0
180001a98: 93 08 08 00 	mv	a7, a6
180001a9c: 63 00 03 20 	beqz	t1, 0x180001c9c <_ftoa+0x208>
180001aa0: 17 38 00 00 	auipc	a6, 0x3
180001aa4: 87 37 88 cd 	fld	fa5, -0x328(a6)
180001aa8: 53 18 f5 a2 	flt.d	a6, fa0, fa5
180001aac: 63 12 08 26 	bnez	a6, 0x180001d10 <_ftoa+0x27c>
180001ab0: 13 01 01 fc 	addi	sp, sp, -0x40
180001ab4: 23 34 91 02 	sd	s1, 0x28(sp)
180001ab8: 93 84 06 00 	mv	s1, a3
180001abc: 97 36 00 00 	auipc	a3, 0x3
180001ac0: 87 b7 46 cc 	fld	fa5, -0x33c(a3)
180001ac4: d3 96 a7 a2 	flt.d	a3, fa5, fa0
180001ac8: 23 38 81 02 	sd	s0, 0x30(sp)
180001acc: 23 3c 11 02 	sd	ra, 0x38(sp)
180001ad0: 23 30 21 03 	sd	s2, 0x20(sp)
180001ad4: 93 02 05 00 	mv	t0, a0
180001ad8: 93 83 05 00 	mv	t2, a1
180001adc: 13 04 06 00 	mv	s0, a2
180001ae0: 63 9c 06 16 	bnez	a3, 0x180001c58 <_ftoa+0x1c4>
180001ae4: 97 36 00 00 	auipc	a3, 0x3
180001ae8: 87 b7 46 c8 	fld	fa5, -0x37c(a3)
180001aec: d3 96 a7 a2 	flt.d	a3, fa5, fa0
180001af0: 63 9a 06 1e 	bnez	a3, 0x180001ce4 <_ftoa+0x250>
180001af4: 97 36 00 00 	auipc	a3, 0x3
180001af8: 07 b7 46 c9 	fld	fa4, -0x36c(a3)
180001afc: d3 16 e5 a2 	flt.d	a3, fa0, fa4
180001b00: 63 92 06 1e 	bnez	a3, 0x180001ce4 <_ftoa+0x250>
180001b04: 53 07 00 f2 	fmv.d.x	fa4, zero
180001b08: 93 05 00 00 	li	a1, 0x0
180001b0c: d3 16 e5 a2 	flt.d	a3, fa0, fa4
180001b10: 63 94 06 1c 	bnez	a3, 0x180001cd8 <_ftoa+0x244>
180001b14: 93 f6 08 40 	andi	a3, a7, 0x400
180001b18: 63 8c 06 18 	beqz	a3, 0x180001cb0 <_ftoa+0x21c>
180001b1c: 93 06 90 00 	li	a3, 0x9
180001b20: 63 fa e6 38 	bgeu	a3, a4, 0x180001eb4 <_ftoa+0x420>
180001b24: 1b 03 77 ff 	addiw	t1, a4, -0x9
180001b28: 13 13 03 02 	slli	t1, t1, 0x20
180001b2c: 13 53 03 02 	srli	t1, t1, 0x20
180001b30: 13 0e 00 00 	li	t3, 0x0
180001b34: 13 0f 01 00 	mv	t5, sp
180001b38: 13 06 00 03 	li	a2, 0x30
180001b3c: 93 06 00 02 	li	a3, 0x20
180001b40: 13 0e 1e 00 	addi	t3, t3, 0x1
180001b44: b3 0e cf 01 	add	t4, t5, t3
180001b48: a3 8f ce fe 	sb	a2, -0x1(t4)
180001b4c: bb 0f c7 41 	subw	t6, a4, t3
180001b50: 63 08 de 2c 	beq	t3, a3, 0x180001e20 <_ftoa+0x38c>
180001b54: e3 16 6e fe 	bne	t3, t1, 0x180001b40 <_ftoa+0xac>
180001b58: 53 87 f7 22 	fmv.d	fa4, fa5
180001b5c: d3 16 05 c2 	fcvt.w.d	a3, fa0, rtz
180001b60: 17 37 00 00 	auipc	a4, 0x3
180001b64: 87 36 07 c3 	fld	fa3, -0x3d0(a4)
180001b68: d3 87 06 d2 	fcvt.d.w	fa5, a3
180001b6c: 1b 8e 06 00 	sext.w	t3, a3
180001b70: d3 77 f5 0a 	fsub.d	fa5, fa0, fa5
180001b74: d3 f7 e7 12 	fmul.d	fa5, fa5, fa4
180001b78: 53 97 37 c2 	fcvt.lu.d	a4, fa5, rtz
180001b7c: 53 76 37 d2 	fcvt.d.lu	fa2, a4
180001b80: d3 f7 c7 0a 	fsub.d	fa5, fa5, fa2
180001b84: 53 96 f6 a2 	flt.d	a2, fa3, fa5
180001b88: 63 0e 06 22 	beqz	a2, 0x180001dc4 <_ftoa+0x330>
180001b8c: 13 07 17 00 	addi	a4, a4, 0x1
180001b90: d3 77 37 d2 	fcvt.d.lu	fa5, a4
180001b94: 53 06 f7 a2 	fle.d	a2, fa4, fa5
180001b98: 63 06 06 00 	beqz	a2, 0x180001ba4 <_ftoa+0x110>
180001b9c: 1b 8e 16 00 	addiw	t3, a3, 0x1
180001ba0: 13 07 00 00 	li	a4, 0x0
180001ba4: 63 9a 0f 1c 	bnez	t6, 0x180001d78 <_ftoa+0x2e4>
180001ba8: d3 07 0e d2 	fcvt.d.w	fa5, t3
180001bac: 53 75 f5 0a 	fsub.d	fa0, fa0, fa5
180001bb0: 53 17 d5 a2 	flt.d	a4, fa0, fa3
180001bb4: 63 06 07 00 	beqz	a4, 0x180001bc0 <_ftoa+0x12c>
180001bb8: 53 97 a6 a2 	flt.d	a4, fa3, fa0
180001bbc: 63 08 07 00 	beqz	a4, 0x180001bcc <_ftoa+0x138>
180001bc0: 13 77 1e 00 	andi	a4, t3, 0x1
180001bc4: 63 04 07 00 	beqz	a4, 0x180001bcc <_ftoa+0x138>
180001bc8: 1b 0e 1e 00 	addiw	t3, t3, 0x1
180001bcc: 13 06 00 02 	li	a2, 0x20
180001bd0: 13 07 a0 00 	li	a4, 0xa
180001bd4: 63 08 c3 14 	beq	t1, a2, 0x180001d24 <_ftoa+0x290>
180001bd8: bb 6e ee 02 	remw	t4, t3, a4
180001bdc: 13 03 13 00 	addi	t1, t1, 0x1
180001be0: b3 06 6f 00 	add	a3, t5, t1
180001be4: 3b 4e ee 02 	divw	t3, t3, a4
180001be8: 9b 8e 0e 03 	addiw	t4, t4, 0x30
180001bec: a3 8f d6 ff 	sb	t4, -0x1(a3)
180001bf0: e3 12 0e fe 	bnez	t3, 0x180001bd4 <_ftoa+0x140>
180001bf4: 13 f7 38 00 	andi	a4, a7, 0x3
180001bf8: 93 06 10 00 	li	a3, 0x1
180001bfc: 63 00 d7 2e 	beq	a4, a3, 0x180001edc <_ftoa+0x448>
180001c00: 13 07 00 02 	li	a4, 0x20
180001c04: 63 0e e3 00 	beq	t1, a4, 0x180001c20 <_ftoa+0x18c>
180001c08: 63 86 05 22 	beqz	a1, 0x180001e34 <_ftoa+0x3a0>
180001c0c: 13 07 03 02 	addi	a4, t1, 0x20
180001c10: 33 07 27 00 	add	a4, a4, sp
180001c14: 93 06 d0 02 	li	a3, 0x2d
180001c18: 23 00 d7 fe 	sb	a3, -0x20(a4)
180001c1c: 13 03 13 00 	addi	t1, t1, 0x1
180001c20: 13 88 07 00 	mv	a6, a5
180001c24: 93 86 04 00 	mv	a3, s1
180001c28: 13 06 04 00 	mv	a2, s0
180001c2c: 93 07 03 00 	mv	a5, t1
180001c30: 13 07 0f 00 	mv	a4, t5
180001c34: 93 85 03 00 	mv	a1, t2
180001c38: 13 85 02 00 	mv	a0, t0
180001c3c: ef f0 5f 90 	jal	0x180001540 <_out_rev>
180001c40: 83 30 81 03 	ld	ra, 0x38(sp)
180001c44: 03 34 01 03 	ld	s0, 0x30(sp)
180001c48: 83 34 81 02 	ld	s1, 0x28(sp)
180001c4c: 03 39 01 02 	ld	s2, 0x20(sp)
180001c50: 13 01 01 04 	addi	sp, sp, 0x40
180001c54: 67 80 00 00 	ret
180001c58: 13 f7 48 00 	andi	a4, a7, 0x4
180001c5c: 63 16 07 06 	bnez	a4, 0x180001cc8 <_ftoa+0x234>
180001c60: 17 27 00 00 	auipc	a4, 0x2
180001c64: 13 07 87 86 	addi	a4, a4, -0x798
180001c68: 93 06 30 00 	li	a3, 0x3
180001c6c: 13 06 04 00 	mv	a2, s0
180001c70: 03 34 01 03 	ld	s0, 0x30(sp)
180001c74: 83 30 81 03 	ld	ra, 0x38(sp)
180001c78: 03 39 01 02 	ld	s2, 0x20(sp)
180001c7c: 13 88 07 00 	mv	a6, a5
180001c80: 93 87 06 00 	mv	a5, a3
180001c84: 93 86 04 00 	mv	a3, s1
180001c88: 83 34 81 02 	ld	s1, 0x28(sp)
180001c8c: 93 85 03 00 	mv	a1, t2
180001c90: 13 85 02 00 	mv	a0, t0
180001c94: 13 01 01 04 	addi	sp, sp, 0x40
180001c98: 6f f0 9f 8a 	j	0x180001540 <_out_rev>
180001c9c: 13 88 07 00 	mv	a6, a5
180001ca0: 17 27 00 00 	auipc	a4, 0x2
180001ca4: 13 07 07 83 	addi	a4, a4, -0x7d0
180001ca8: 93 07 30 00 	li	a5, 0x3
180001cac: 6f f0 5f 89 	j	0x180001540 <_out_rev>
180001cb0: 17 37 00 00 	auipc	a4, 0x3
180001cb4: 07 37 07 ac 	fld	fa4, -0x540(a4)
180001cb8: 93 0f 60 00 	li	t6, 0x6
180001cbc: 13 03 00 00 	li	t1, 0x0
180001cc0: 13 0f 01 00 	mv	t5, sp
180001cc4: 6f f0 9f e9 	j	0x180001b5c <_ftoa+0xc8>
180001cc8: 17 17 00 00 	auipc	a4, 0x1
180001ccc: 13 07 87 7f 	addi	a4, a4, 0x7f8
180001cd0: 93 06 40 00 	li	a3, 0x4
180001cd4: 6f f0 9f f9 	j	0x180001c6c <_ftoa+0x1d8>
180001cd8: 53 75 a7 0a 	fsub.d	fa0, fa4, fa0
180001cdc: 93 05 10 00 	li	a1, 0x1
180001ce0: 6f f0 5f e3 	j	0x180001b14 <_ftoa+0x80>
180001ce4: 13 06 04 00 	mv	a2, s0
180001ce8: 03 34 01 03 	ld	s0, 0x30(sp)
180001cec: 83 30 81 03 	ld	ra, 0x38(sp)
180001cf0: 03 39 01 02 	ld	s2, 0x20(sp)
180001cf4: 93 86 04 00 	mv	a3, s1
180001cf8: 83 34 81 02 	ld	s1, 0x28(sp)
180001cfc: 13 88 08 00 	mv	a6, a7
180001d00: 93 85 03 00 	mv	a1, t2
180001d04: 13 85 02 00 	mv	a0, t0
180001d08: 13 01 01 04 	addi	sp, sp, 0x40
180001d0c: 6f 00 80 1d 	j	0x180001ee4 <_etoa>
180001d10: 13 88 07 00 	mv	a6, a5
180001d14: 17 17 00 00 	auipc	a4, 0x1
180001d18: 13 07 47 7c 	addi	a4, a4, 0x7c4
180001d1c: 93 07 40 00 	li	a5, 0x4
180001d20: 6f f0 1f 82 	j	0x180001540 <_out_rev>
180001d24: 13 f7 38 00 	andi	a4, a7, 0x3
180001d28: 93 06 10 00 	li	a3, 0x1
180001d2c: e3 1a d7 ee 	bne	a4, a3, 0x180001c20 <_ftoa+0x18c>
180001d30: e3 88 07 ee 	beqz	a5, 0x180001c20 <_ftoa+0x18c>
180001d34: 63 96 05 16 	bnez	a1, 0x180001ea0 <_ftoa+0x40c>
180001d38: 13 f7 c8 00 	andi	a4, a7, 0xc
180001d3c: 63 12 07 16 	bnez	a4, 0x180001ea0 <_ftoa+0x40c>
180001d40: 13 96 07 02 	slli	a2, a5, 0x20
180001d44: 13 56 06 02 	srli	a2, a2, 0x20
180001d48: 63 72 c3 0e 	bgeu	t1, a2, 0x180001e2c <_ftoa+0x398>
180001d4c: 13 07 00 02 	li	a4, 0x20
180001d50: 93 06 00 03 	li	a3, 0x30
180001d54: 13 05 00 02 	li	a0, 0x20
180001d58: 63 0c e3 00 	beq	t1, a4, 0x180001d70 <_ftoa+0x2dc>
180001d5c: 13 03 13 00 	addi	t1, t1, 0x1
180001d60: 33 07 6f 00 	add	a4, t5, t1
180001d64: a3 0f d7 fe 	sb	a3, -0x1(a4)
180001d68: e3 0c c3 e8 	beq	t1, a2, 0x180001c00 <_ftoa+0x16c>
180001d6c: e3 18 a3 fe 	bne	t1, a0, 0x180001d5c <_ftoa+0x2c8>
180001d70: 13 03 00 02 	li	t1, 0x20
180001d74: 6f f0 df ea 	j	0x180001c20 <_ftoa+0x18c>
180001d78: 9b 80 0f fe 	addiw	ra, t6, -0x20
180001d7c: bb 80 60 00 	addw	ra, ra, t1
180001d80: 13 06 a0 00 	li	a2, 0xa
180001d84: 13 09 90 00 	li	s2, 0x9
180001d88: 6f 00 80 02 	j	0x180001db0 <_ftoa+0x31c>
180001d8c: b3 76 c7 02 	remu	a3, a4, a2
180001d90: 1b 88 ff ff 	addiw	a6, t6, -0x1
180001d94: 9b 86 06 03 	addiw	a3, a3, 0x30
180001d98: a3 0f d5 fe 	sb	a3, -0x1(a0)
180001d9c: b3 56 c7 02 	divu	a3, a4, a2
180001da0: 63 7c e9 02 	bgeu	s2, a4, 0x180001dd8 <_ftoa+0x344>
180001da4: 93 0f 08 00 	mv	t6, a6
180001da8: 13 83 0e 00 	mv	t1, t4
180001dac: 13 87 06 00 	mv	a4, a3
180001db0: 93 0e 13 00 	addi	t4, t1, 0x1
180001db4: 33 05 df 01 	add	a0, t5, t4
180001db8: e3 9a 1f fc 	bne	t6, ra, 0x180001d8c <_ftoa+0x2f8>
180001dbc: 13 03 00 02 	li	t1, 0x20
180001dc0: 6f f0 df e0 	j	0x180001bcc <_ftoa+0x138>
180001dc4: d3 96 d7 a2 	flt.d	a3, fa5, fa3
180001dc8: e3 9e 06 dc 	bnez	a3, 0x180001ba4 <_ftoa+0x110>
180001dcc: 63 12 07 0c 	bnez	a4, 0x180001e90 <_ftoa+0x3fc>
180001dd0: 13 07 17 00 	addi	a4, a4, 0x1
180001dd4: 6f f0 1f dd 	j	0x180001ba4 <_ftoa+0x110>
180001dd8: 13 07 00 02 	li	a4, 0x20
180001ddc: e3 80 ee fe 	beq	t4, a4, 0x180001dbc <_ftoa+0x328>
180001de0: 9b 8f ef ff 	addiw	t6, t6, -0x2
180001de4: 63 0c 08 06 	beqz	a6, 0x180001e5c <_ftoa+0x3c8>
180001de8: 93 9f 0f 02 	slli	t6, t6, 0x20
180001dec: 13 03 23 00 	addi	t1, t1, 0x2
180001df0: 93 df 0f 02 	srli	t6, t6, 0x20
180001df4: 33 03 f3 01 	add	t1, t1, t6
180001df8: 13 06 00 03 	li	a2, 0x30
180001dfc: 93 06 00 02 	li	a3, 0x20
180001e00: 6f 00 80 00 	j	0x180001e08 <_ftoa+0x374>
180001e04: 63 8e 6e 04 	beq	t4, t1, 0x180001e60 <_ftoa+0x3cc>
180001e08: 93 8e 1e 00 	addi	t4, t4, 0x1
180001e0c: 33 07 df 01 	add	a4, t5, t4
180001e10: a3 0f c7 fe 	sb	a2, -0x1(a4)
180001e14: e3 98 de fe 	bne	t4, a3, 0x180001e04 <_ftoa+0x370>
180001e18: 13 03 00 02 	li	t1, 0x20
180001e1c: 6f f0 1f db 	j	0x180001bcc <_ftoa+0x138>
180001e20: 53 87 f7 22 	fmv.d	fa4, fa5
180001e24: 13 03 00 02 	li	t1, 0x20
180001e28: 6f f0 5f d3 	j	0x180001b5c <_ftoa+0xc8>
180001e2c: 13 07 00 02 	li	a4, 0x20
180001e30: e3 08 e3 de 	beq	t1, a4, 0x180001c20 <_ftoa+0x18c>
180001e34: 13 f7 48 00 	andi	a4, a7, 0x4
180001e38: 63 10 07 04 	bnez	a4, 0x180001e78 <_ftoa+0x3e4>
180001e3c: 13 f7 88 00 	andi	a4, a7, 0x8
180001e40: e3 00 07 de 	beqz	a4, 0x180001c20 <_ftoa+0x18c>
180001e44: 13 07 03 02 	addi	a4, t1, 0x20
180001e48: 33 07 27 00 	add	a4, a4, sp
180001e4c: 93 06 00 02 	li	a3, 0x20
180001e50: 23 00 d7 fe 	sb	a3, -0x20(a4)
180001e54: 13 03 13 00 	addi	t1, t1, 0x1
180001e58: 6f f0 9f dc 	j	0x180001c20 <_ftoa+0x18c>
180001e5c: 13 83 0e 00 	mv	t1, t4
180001e60: 13 07 03 02 	addi	a4, t1, 0x20
180001e64: 33 07 27 00 	add	a4, a4, sp
180001e68: 93 06 e0 02 	li	a3, 0x2e
180001e6c: 13 03 13 00 	addi	t1, t1, 0x1
180001e70: 23 00 d7 fe 	sb	a3, -0x20(a4)
180001e74: 6f f0 9f d5 	j	0x180001bcc <_ftoa+0x138>
180001e78: 13 07 03 02 	addi	a4, t1, 0x20
180001e7c: 33 07 27 00 	add	a4, a4, sp
180001e80: 93 06 b0 02 	li	a3, 0x2b
180001e84: 23 00 d7 fe 	sb	a3, -0x20(a4)
180001e88: 13 03 13 00 	addi	t1, t1, 0x1
180001e8c: 6f f0 5f d9 	j	0x180001c20 <_ftoa+0x18c>
180001e90: 93 76 17 00 	andi	a3, a4, 0x1
180001e94: e3 88 06 d0 	beqz	a3, 0x180001ba4 <_ftoa+0x110>
180001e98: 13 07 17 00 	addi	a4, a4, 0x1
180001e9c: 6f f0 9f d0 	j	0x180001ba4 <_ftoa+0x110>
180001ea0: 9b 87 f7 ff 	addiw	a5, a5, -0x1
180001ea4: 13 96 07 02 	slli	a2, a5, 0x20
180001ea8: 13 56 06 02 	srli	a2, a2, 0x20
180001eac: e3 60 c3 ea 	bltu	t1, a2, 0x180001d4c <_ftoa+0x2b8>
180001eb0: 6f f0 1f d5 	j	0x180001c00 <_ftoa+0x16c>
180001eb4: 93 16 07 02 	slli	a3, a4, 0x20
180001eb8: 13 d6 d6 01 	srli	a2, a3, 0x1d
180001ebc: 97 16 00 00 	auipc	a3, 0x1
180001ec0: 93 86 46 7c 	addi	a3, a3, 0x7c4
180001ec4: b3 86 c6 00 	add	a3, a3, a2
180001ec8: 07 b7 06 00 	fld	fa4, 0x0(a3)
180001ecc: 93 0f 07 00 	mv	t6, a4
180001ed0: 13 03 00 00 	li	t1, 0x0
180001ed4: 13 0f 01 00 	mv	t5, sp
180001ed8: 6f f0 5f c8 	j	0x180001b5c <_ftoa+0xc8>
180001edc: e3 82 07 d2 	beqz	a5, 0x180001c00 <_ftoa+0x16c>
180001ee0: 6f f0 5f e5 	j	0x180001d34 <_ftoa+0x2a0>

0000000180001ee4 <_etoa>:
180001ee4: d3 28 a5 a2 	feq.d	a7, fa0, fa0
180001ee8: 13 01 01 f9 	addi	sp, sp, -0x70
180001eec: 23 30 81 06 	sd	s0, 0x60(sp)
180001ef0: 23 38 21 05 	sd	s2, 0x50(sp)
180001ef4: 23 34 31 05 	sd	s3, 0x48(sp)
180001ef8: 23 30 41 05 	sd	s4, 0x40(sp)
180001efc: 23 3c 51 03 	sd	s5, 0x38(sp)
180001f00: 23 38 61 03 	sd	s6, 0x30(sp)
180001f04: 23 34 11 06 	sd	ra, 0x68(sp)
180001f08: 23 3c 91 04 	sd	s1, 0x58(sp)
180001f0c: 23 34 71 03 	sd	s7, 0x28(sp)
180001f10: 23 30 81 03 	sd	s8, 0x20(sp)
180001f14: 23 3c 91 01 	sd	s9, 0x18(sp)
180001f18: 13 0a 05 00 	mv	s4, a0
180001f1c: 93 8a 05 00 	mv	s5, a1
180001f20: 13 09 06 00 	mv	s2, a2
180001f24: 13 8b 06 00 	mv	s6, a3
180001f28: 93 89 07 00 	mv	s3, a5
180001f2c: 13 04 08 00 	mv	s0, a6
180001f30: 63 84 08 2e 	beqz	a7, 0x180002218 <_etoa+0x334>
180001f34: 97 37 00 00 	auipc	a5, 0x3
180001f38: 87 b7 c7 84 	fld	fa5, -0x7b4(a5)
180001f3c: d3 97 a7 a2 	flt.d	a5, fa5, fa0
180001f40: 63 9c 07 2c 	bnez	a5, 0x180002218 <_etoa+0x334>
180001f44: 97 37 00 00 	auipc	a5, 0x3
180001f48: 87 b7 47 83 	fld	fa5, -0x7cc(a5)
180001f4c: d3 17 f5 a2 	flt.d	a5, fa0, fa5
180001f50: 63 94 07 2c 	bnez	a5, 0x180002218 <_etoa+0x334>
180001f54: d3 07 00 f2 	fmv.d.x	fa5, zero
180001f58: d3 06 05 e2 	fmv.x.d	a3, fa0
180001f5c: d3 17 f5 a2 	flt.d	a5, fa0, fa5
180001f60: 63 86 07 00 	beqz	a5, 0x180001f6c <_etoa+0x88>
180001f64: d3 17 a5 22 	fneg.d	fa5, fa0
180001f68: d3 86 07 e2 	fmv.x.d	a3, fa5
180001f6c: 93 75 04 40 	andi	a1, s0, 0x400
180001f70: 63 94 05 00 	bnez	a1, 0x180001f78 <_etoa+0x94>
180001f74: 13 07 60 00 	li	a4, 0x6
180001f78: 93 d7 46 03 	srli	a5, a3, 0x34
180001f7c: 93 f7 f7 7f 	andi	a5, a5, 0x7ff
180001f80: 17 36 00 00 	auipc	a2, 0x3
180001f84: 87 36 86 81 	fld	fa3, -0x7e8(a2)
180001f88: 17 36 00 00 	auipc	a2, 0x3
180001f8c: 07 37 86 81 	fld	fa4, -0x7e8(a2)
180001f90: 9b 87 17 c0 	addiw	a5, a5, -0x3ff
180001f94: 53 86 07 d2 	fcvt.d.w	fa2, a5
180001f98: 13 06 f0 3f 	li	a2, 0x3ff
180001f9c: 93 97 c6 00 	slli	a5, a3, 0xc
180001fa0: 13 16 46 03 	slli	a2, a2, 0x34
180001fa4: 93 d7 c7 00 	srli	a5, a5, 0xc
180001fa8: b3 e7 c7 00 	or	a5, a5, a2
180001fac: 43 76 d6 72 	fmadd.d	fa2, fa2, fa3, fa4
180001fb0: 53 87 07 f2 	fmv.d.x	fa4, a5
180001fb4: 17 26 00 00 	auipc	a2, 0x2
180001fb8: 87 37 46 7f 	fld	fa5, 0x7f4(a2)
180001fbc: 97 27 00 00 	auipc	a5, 0x2
180001fc0: 87 b5 47 7f 	fld	fa1, 0x7f4(a5)
180001fc4: d3 77 f7 0a 	fsub.d	fa5, fa4, fa5
180001fc8: 97 27 00 00 	auipc	a5, 0x2
180001fcc: 87 b6 07 7f 	fld	fa3, 0x7f0(a5)
180001fd0: 97 27 00 00 	auipc	a5, 0x2
180001fd4: 07 b2 07 7c 	fld	ft4, 0x7c0(a5)
180001fd8: 97 27 00 00 	auipc	a5, 0x2
180001fdc: 87 b1 87 7e 	fld	ft3, 0x7e8(a5)
180001fe0: 97 27 00 00 	auipc	a5, 0x2
180001fe4: 07 b1 87 7e 	fld	ft2, 0x7e8(a5)
180001fe8: 97 27 00 00 	auipc	a5, 0x2
180001fec: 07 b7 87 7e 	fld	fa4, 0x7e8(a5)
180001ff0: 97 27 00 00 	auipc	a5, 0x2
180001ff4: 87 b0 07 7f 	fld	ft1, 0x7f0(a5)
180001ff8: c3 f7 b7 62 	fmadd.d	fa5, fa5, fa1, fa2
180001ffc: 97 27 00 00 	auipc	a5, 0x2
180002000: 07 b0 47 7f 	fld	ft0, 0x7f4(a5)
180002004: 97 27 00 00 	auipc	a5, 0x2
180002008: 87 b5 47 7d 	fld	fa1, 0x7d4(a5)
18000200c: 97 27 00 00 	auipc	a5, 0x2
180002010: 07 b6 c7 7d 	fld	fa2, 0x7dc(a5)
180002014: 53 96 07 c2 	fcvt.w.d	a2, fa5, rtz
180002018: d3 07 06 d2 	fcvt.d.w	fa5, a2
18000201c: 1b 0c 06 00 	sext.w	s8, a2
180002020: c3 f6 d7 22 	fmadd.d	fa3, fa5, fa3, ft4
180002024: d3 97 06 c2 	fcvt.w.d	a5, fa3, rtz
180002028: d3 86 07 d2 	fcvt.d.w	fa3, a5
18000202c: 9b 87 f7 3f 	addiw	a5, a5, 0x3ff
180002030: 93 97 47 03 	slli	a5, a5, 0x34
180002034: d3 f6 36 12 	fmul.d	fa3, fa3, ft3
180002038: c7 f7 27 6a 	fmsub.d	fa5, fa5, ft2, fa3
18000203c: d3 f6 f7 12 	fmul.d	fa3, fa5, fa5
180002040: 53 76 f6 0a 	fsub.d	fa2, fa2, fa5
180002044: d3 f7 f7 02 	fadd.d	fa5, fa5, fa5
180002048: 53 f7 e6 1a 	fdiv.d	fa4, fa3, fa4
18000204c: 53 77 b7 02 	fadd.d	fa4, fa4, fa1
180002050: 53 f7 e6 1a 	fdiv.d	fa4, fa3, fa4
180002054: 53 77 17 02 	fadd.d	fa4, fa4, ft1
180002058: d3 f6 e6 1a 	fdiv.d	fa3, fa3, fa4
18000205c: 53 87 07 f2 	fmv.d.x	fa4, a5
180002060: d3 f6 c6 02 	fadd.d	fa3, fa3, fa2
180002064: d3 f7 d7 1a 	fdiv.d	fa5, fa5, fa3
180002068: d3 f7 07 02 	fadd.d	fa5, fa5, ft0
18000206c: d3 f7 e7 12 	fmul.d	fa5, fa5, fa4
180002070: 53 87 06 f2 	fmv.d.x	fa4, a3
180002074: d3 17 f7 a2 	flt.d	a5, fa4, fa5
180002078: 63 86 07 00 	beqz	a5, 0x180002084 <_etoa+0x1a0>
18000207c: d3 f7 b7 1a 	fdiv.d	fa5, fa5, fa1
180002080: 1b 0c f6 ff 	addiw	s8, a2, -0x1
180002084: 9b 0c 3c 06 	addiw	s9, s8, 0x63
180002088: 93 57 b4 00 	srli	a5, s0, 0xb
18000208c: 13 06 60 0c 	li	a2, 0xc6
180002090: b3 3c 96 01 	sltu	s9, a2, s9
180002094: 93 f7 17 00 	andi	a5, a5, 0x1
180002098: 93 8c 4c 00 	addi	s9, s9, 0x4
18000209c: 63 84 07 04 	beqz	a5, 0x1800020e4 <_etoa+0x200>
1800020a0: d3 86 06 f2 	fmv.d.x	fa3, a3
1800020a4: 97 27 00 00 	auipc	a5, 0x2
1800020a8: 07 b7 47 75 	fld	fa4, 0x754(a5)
1800020ac: d3 07 d7 a2 	fle.d	a5, fa4, fa3
1800020b0: 63 82 07 1c 	beqz	a5, 0x180002274 <_etoa+0x390>
1800020b4: 97 27 00 00 	auipc	a5, 0x2
1800020b8: 07 b7 c7 6b 	fld	fa4, 0x6bc(a5)
1800020bc: d3 97 e6 a2 	flt.d	a5, fa3, fa4
1800020c0: 63 8a 07 1a 	beqz	a5, 0x180002274 <_etoa+0x390>
1800020c4: 9b 07 07 00 	sext.w	a5, a4
1800020c8: 13 07 00 00 	li	a4, 0x0
1800020cc: 63 56 fc 00 	bge	s8, a5, 0x1800020d8 <_etoa+0x1f4>
1800020d0: bb 87 87 41 	subw	a5, a5, s8
1800020d4: 1b 87 f7 ff 	addiw	a4, a5, -0x1
1800020d8: 13 64 04 40 	ori	s0, s0, 0x400
1800020dc: 93 0c 00 00 	li	s9, 0x0
1800020e0: 13 0c 00 00 	li	s8, 0x0
1800020e4: 93 07 00 00 	li	a5, 0x0
1800020e8: 63 f4 3c 01 	bgeu	s9, s3, 0x1800020f0 <_etoa+0x20c>
1800020ec: bb 87 99 41 	subw	a5, s3, s9
1800020f0: 93 7b 24 00 	andi	s7, s0, 0x2
1800020f4: 63 88 0b 00 	beqz	s7, 0x180002104 <_etoa+0x220>
1800020f8: 13 b6 1c 00 	seqz	a2, s9
1800020fc: 33 06 c0 40 	neg	a2, a2
180002100: b3 f7 c7 00 	and	a5, a5, a2
180002104: 63 10 0c 16 	bnez	s8, 0x180002264 <_etoa+0x380>
180002108: d3 07 00 f2 	fmv.d.x	fa5, zero
18000210c: 53 16 f5 a2 	flt.d	a2, fa0, fa5
180002110: 63 08 06 00 	beqz	a2, 0x180002120 <_etoa+0x23c>
180002114: d3 87 06 f2 	fmv.d.x	fa5, a3
180002118: d3 97 f7 22 	fneg.d	fa5, fa5
18000211c: d3 86 07 e2 	fmv.x.d	a3, fa5
180002120: 53 85 06 f2 	fmv.d.x	fa0, a3
180002124: 37 f8 ff ff 	lui	a6, 0xfffff
180002128: 13 08 f8 7f 	addi	a6, a6, 0x7ff
18000212c: 33 78 04 01 	and	a6, s0, a6
180002130: 93 06 0b 00 	mv	a3, s6
180002134: 13 06 09 00 	mv	a2, s2
180002138: 93 85 0a 00 	mv	a1, s5
18000213c: 13 05 0a 00 	mv	a0, s4
180002140: ef f0 5f 95 	jal	0x180001a94 <_ftoa>
180002144: 93 04 05 00 	mv	s1, a0
180002148: 63 8c 0c 08 	beqz	s9, 0x1800021e0 <_etoa+0x2fc>
18000214c: 13 74 04 02 	andi	s0, s0, 0x20
180002150: 13 05 50 06 	li	a0, 0x65
180002154: 63 04 04 00 	beqz	s0, 0x18000215c <_etoa+0x278>
180002158: 13 05 50 04 	li	a0, 0x45
18000215c: 13 86 04 00 	mv	a2, s1
180002160: 93 06 0b 00 	mv	a3, s6
180002164: 93 85 0a 00 	mv	a1, s5
180002168: e7 00 0a 00 	jalr	s4
18000216c: 1b 57 fc 41 	sraiw	a4, s8, 0x1f
180002170: b3 46 ec 00 	xor	a3, s8, a4
180002174: 9b 87 fc ff 	addiw	a5, s9, -0x1
180002178: 93 05 50 00 	li	a1, 0x5
18000217c: 13 86 14 00 	addi	a2, s1, 0x1
180002180: 23 34 b1 00 	sd	a1, 0x8(sp)
180002184: 23 30 f1 00 	sd	a5, 0x0(sp)
180002188: 3b 87 e6 40 	subw	a4, a3, a4
18000218c: 93 08 00 00 	li	a7, 0x0
180002190: 13 08 a0 00 	li	a6, 0xa
180002194: 9b 57 fc 01 	srliw	a5, s8, 0x1f
180002198: 93 06 0b 00 	mv	a3, s6
18000219c: 93 85 0a 00 	mv	a1, s5
1800021a0: 13 05 0a 00 	mv	a0, s4
1800021a4: ef f0 8f cd 	jal	0x18000167c <_ntoa_long_long>
1800021a8: 93 04 05 00 	mv	s1, a0
1800021ac: 63 8a 0b 02 	beqz	s7, 0x1800021e0 <_etoa+0x2fc>
1800021b0: 93 99 09 02 	slli	s3, s3, 0x20
1800021b4: 33 09 25 41 	sub	s2, a0, s2
1800021b8: 93 d9 09 02 	srli	s3, s3, 0x20
1800021bc: 63 72 39 03 	bgeu	s2, s3, 0x1800021e0 <_etoa+0x2fc>
1800021c0: 13 86 04 00 	mv	a2, s1
1800021c4: 13 09 19 00 	addi	s2, s2, 0x1
1800021c8: 93 06 0b 00 	mv	a3, s6
1800021cc: 93 85 0a 00 	mv	a1, s5
1800021d0: 13 05 00 02 	li	a0, 0x20
1800021d4: 93 84 14 00 	addi	s1, s1, 0x1
1800021d8: e7 00 0a 00 	jalr	s4
1800021dc: e3 62 39 ff 	bltu	s2, s3, 0x1800021c0 <_etoa+0x2dc>
1800021e0: 83 30 81 06 	ld	ra, 0x68(sp)
1800021e4: 03 34 01 06 	ld	s0, 0x60(sp)
1800021e8: 03 39 01 05 	ld	s2, 0x50(sp)
1800021ec: 83 39 81 04 	ld	s3, 0x48(sp)
1800021f0: 03 3a 01 04 	ld	s4, 0x40(sp)
1800021f4: 83 3a 81 03 	ld	s5, 0x38(sp)
1800021f8: 03 3b 01 03 	ld	s6, 0x30(sp)
1800021fc: 83 3b 81 02 	ld	s7, 0x28(sp)
180002200: 03 3c 01 02 	ld	s8, 0x20(sp)
180002204: 83 3c 81 01 	ld	s9, 0x18(sp)
180002208: 13 85 04 00 	mv	a0, s1
18000220c: 83 34 81 05 	ld	s1, 0x58(sp)
180002210: 13 01 01 07 	addi	sp, sp, 0x70
180002214: 67 80 00 00 	ret
180002218: 13 08 04 00 	mv	a6, s0
18000221c: 03 34 01 06 	ld	s0, 0x60(sp)
180002220: 83 30 81 06 	ld	ra, 0x68(sp)
180002224: 83 34 81 05 	ld	s1, 0x58(sp)
180002228: 83 3b 81 02 	ld	s7, 0x28(sp)
18000222c: 03 3c 01 02 	ld	s8, 0x20(sp)
180002230: 83 3c 81 01 	ld	s9, 0x18(sp)
180002234: 93 87 09 00 	mv	a5, s3
180002238: 93 06 0b 00 	mv	a3, s6
18000223c: 83 39 81 04 	ld	s3, 0x48(sp)
180002240: 03 3b 01 03 	ld	s6, 0x30(sp)
180002244: 13 06 09 00 	mv	a2, s2
180002248: 93 85 0a 00 	mv	a1, s5
18000224c: 03 39 01 05 	ld	s2, 0x50(sp)
180002250: 83 3a 81 03 	ld	s5, 0x38(sp)
180002254: 13 05 0a 00 	mv	a0, s4
180002258: 03 3a 01 04 	ld	s4, 0x40(sp)
18000225c: 13 01 01 07 	addi	sp, sp, 0x70
180002260: 6f f0 5f 83 	j	0x180001a94 <_ftoa>
180002264: 53 87 06 f2 	fmv.d.x	fa4, a3
180002268: d3 77 f7 1a 	fdiv.d	fa5, fa4, fa5
18000226c: d3 86 07 e2 	fmv.x.d	a3, fa5
180002270: 6f f0 9f e9 	j	0x180002108 <_etoa+0x224>
180002274: e3 08 07 e6 	beqz	a4, 0x1800020e4 <_etoa+0x200>
180002278: e3 86 05 e6 	beqz	a1, 0x1800020e4 <_etoa+0x200>
18000227c: 1b 07 f7 ff 	addiw	a4, a4, -0x1
180002280: 6f f0 5f e6 	j	0x1800020e4 <_etoa+0x200>

0000000180002284 <_vsnprintf>:
180002284: 13 01 01 f6 	addi	sp, sp, -0xa0
180002288: 23 34 91 08 	sd	s1, 0x88(sp)
18000228c: 23 30 21 09 	sd	s2, 0x80(sp)
180002290: 23 3c 31 07 	sd	s3, 0x78(sp)
180002294: 23 34 51 07 	sd	s5, 0x68(sp)
180002298: 23 38 81 05 	sd	s8, 0x50(sp)
18000229c: 23 3c 11 08 	sd	ra, 0x98(sp)
1800022a0: 23 38 81 08 	sd	s0, 0x90(sp)
1800022a4: 23 38 41 07 	sd	s4, 0x70(sp)
1800022a8: 23 30 61 07 	sd	s6, 0x60(sp)
1800022ac: 23 3c 71 05 	sd	s7, 0x58(sp)
1800022b0: 23 34 91 05 	sd	s9, 0x48(sp)
1800022b4: 23 30 a1 05 	sd	s10, 0x40(sp)
1800022b8: 23 3c b1 03 	sd	s11, 0x38(sp)
1800022bc: 13 89 05 00 	mv	s2, a1
1800022c0: 93 04 06 00 	mv	s1, a2
1800022c4: 93 8a 06 00 	mv	s5, a3
1800022c8: 13 0c 07 00 	mv	s8, a4
1800022cc: 97 f9 ff ff 	auipc	s3, 0xfffff
1800022d0: 93 89 09 27 	addi	s3, s3, 0x270
1800022d4: 63 84 05 00 	beqz	a1, 0x1800022dc <_vsnprintf+0x58>
1800022d8: 93 09 05 00 	mv	s3, a0
1800022dc: 03 c5 0a 00 	lbu	a0, 0x0(s5)
1800022e0: 93 0b 00 00 	li	s7, 0x0
1800022e4: 63 0e 05 6a 	beqz	a0, 0x1800029a0 <_vsnprintf+0x71c>
1800022e8: b7 97 00 00 	lui	a5, 0x9
1800022ec: 93 87 17 04 	addi	a5, a5, 0x41
1800022f0: 13 0a 50 02 	li	s4, 0x25
1800022f4: 17 1b 00 00 	auipc	s6, 0x1
1800022f8: 13 0b cb 1e 	addi	s6, s6, 0x1ec
1800022fc: 23 3c f1 00 	sd	a5, 0x18(sp)
180002300: 6f 00 00 02 	j	0x180002320 <_vsnprintf+0x9c>
180002304: 13 86 0b 00 	mv	a2, s7
180002308: 93 86 04 00 	mv	a3, s1
18000230c: 93 05 09 00 	mv	a1, s2
180002310: 93 8b 1b 00 	addi	s7, s7, 0x1
180002314: e7 80 09 00 	jalr	s3
180002318: 03 c5 0a 00 	lbu	a0, 0x0(s5)
18000231c: 63 06 05 1a 	beqz	a0, 0x1800024c8 <_vsnprintf+0x244>
180002320: 93 8a 1a 00 	addi	s5, s5, 0x1
180002324: e3 10 45 ff 	bne	a0, s4, 0x180002304 <_vsnprintf+0x80>
180002328: 13 04 00 00 	li	s0, 0x0
18000232c: 13 07 00 01 	li	a4, 0x10
180002330: 03 c5 0a 00 	lbu	a0, 0x0(s5)
180002334: 93 86 1a 00 	addi	a3, s5, 0x1
180002338: 9b 07 05 fe 	addiw	a5, a0, -0x20
18000233c: 93 f7 f7 0f 	andi	a5, a5, 0xff
180002340: 63 6c f7 00 	bltu	a4, a5, 0x180002358 <_vsnprintf+0xd4>
180002344: 93 97 27 00 	slli	a5, a5, 0x2
180002348: b3 87 67 01 	add	a5, a5, s6
18000234c: 83 a7 07 00 	lw	a5, 0x0(a5)
180002350: b3 87 67 01 	add	a5, a5, s6
180002354: 67 80 07 00 	jr	a5
180002358: 9b 07 05 fd 	addiw	a5, a0, -0x30
18000235c: 93 f7 f7 0f 	andi	a5, a5, 0xff
180002360: 13 07 90 00 	li	a4, 0x9
180002364: 63 72 f7 1c 	bgeu	a4, a5, 0x180002528 <_vsnprintf+0x2a4>
180002368: 13 07 a0 02 	li	a4, 0x2a
18000236c: 93 0d 00 00 	li	s11, 0x0
180002370: 63 06 e5 22 	beq	a0, a4, 0x18000259c <_vsnprintf+0x318>
180002374: 13 07 e0 02 	li	a4, 0x2e
180002378: 93 0c 00 00 	li	s9, 0x0
18000237c: 63 06 e5 1e 	beq	a0, a4, 0x180002568 <_vsnprintf+0x2e4>
180002380: 1b 06 85 f9 	addiw	a2, a0, -0x68
180002384: 13 76 f6 0f 	andi	a2, a2, 0xff
180002388: 13 07 20 01 	li	a4, 0x12
18000238c: 63 60 c7 08 	bltu	a4, a2, 0x18000240c <_vsnprintf+0x188>
180002390: 97 17 00 00 	auipc	a5, 0x1
180002394: 93 87 47 19 	addi	a5, a5, 0x194
180002398: 13 16 26 00 	slli	a2, a2, 0x2
18000239c: 33 06 f6 00 	add	a2, a2, a5
1800023a0: 03 27 06 00 	lw	a4, 0x0(a2)
1800023a4: 33 07 f7 00 	add	a4, a4, a5
1800023a8: 67 00 07 00 	jr	a4
1800023ac: 13 64 14 00 	ori	s0, s0, 0x1
1800023b0: 1b 04 04 00 	sext.w	s0, s0
1800023b4: 93 8a 06 00 	mv	s5, a3
1800023b8: 6f f0 9f f7 	j	0x180002330 <_vsnprintf+0xac>
1800023bc: 13 64 24 00 	ori	s0, s0, 0x2
1800023c0: 1b 04 04 00 	sext.w	s0, s0
1800023c4: 93 8a 06 00 	mv	s5, a3
1800023c8: 6f f0 9f f6 	j	0x180002330 <_vsnprintf+0xac>
1800023cc: 13 64 44 00 	ori	s0, s0, 0x4
1800023d0: 1b 04 04 00 	sext.w	s0, s0
1800023d4: 93 8a 06 00 	mv	s5, a3
1800023d8: 6f f0 9f f5 	j	0x180002330 <_vsnprintf+0xac>
1800023dc: 13 64 04 01 	ori	s0, s0, 0x10
1800023e0: 1b 04 04 00 	sext.w	s0, s0
1800023e4: 93 8a 06 00 	mv	s5, a3
1800023e8: 6f f0 9f f4 	j	0x180002330 <_vsnprintf+0xac>
1800023ec: 13 64 84 00 	ori	s0, s0, 0x8
1800023f0: 1b 04 04 00 	sext.w	s0, s0
1800023f4: 93 8a 06 00 	mv	s5, a3
1800023f8: 6f f0 9f f3 	j	0x180002330 <_vsnprintf+0xac>
1800023fc: 03 c5 1a 00 	lbu	a0, 0x1(s5)
180002400: 13 64 04 10 	ori	s0, s0, 0x100
180002404: 1b 04 04 00 	sext.w	s0, s0
180002408: 93 86 16 00 	addi	a3, a3, 0x1
18000240c: 13 07 70 06 	li	a4, 0x67
180002410: 93 8a 06 00 	mv	s5, a3
180002414: 63 6c a7 02 	bltu	a4, a0, 0x18000244c <_vsnprintf+0x1c8>
180002418: 13 07 40 02 	li	a4, 0x24
18000241c: e3 74 a7 ee 	bgeu	a4, a0, 0x180002304 <_vsnprintf+0x80>
180002420: 1b 07 b5 fd 	addiw	a4, a0, -0x25
180002424: 13 77 f7 0f 	andi	a4, a4, 0xff
180002428: 93 06 20 04 	li	a3, 0x42
18000242c: e3 ec e6 ec 	bltu	a3, a4, 0x180002304 <_vsnprintf+0x80>
180002430: 97 17 00 00 	auipc	a5, 0x1
180002434: 93 87 07 14 	addi	a5, a5, 0x140
180002438: 13 17 27 00 	slli	a4, a4, 0x2
18000243c: 33 07 f7 00 	add	a4, a4, a5
180002440: 03 27 07 00 	lw	a4, 0x0(a4)
180002444: 33 07 f7 00 	add	a4, a4, a5
180002448: 67 00 07 00 	jr	a4
18000244c: 1b 07 75 f9 	addiw	a4, a0, -0x69
180002450: 13 77 f7 0f 	andi	a4, a4, 0xff
180002454: 93 06 f0 00 	li	a3, 0xf
180002458: e3 e6 e6 ea 	bltu	a3, a4, 0x180002304 <_vsnprintf+0x80>
18000245c: 83 37 81 01 	ld	a5, 0x18(sp)
180002460: 93 06 10 00 	li	a3, 0x1
180002464: b3 96 e6 00 	sll	a3, a3, a4
180002468: b3 f6 f6 00 	and	a3, a3, a5
18000246c: 63 92 06 4e 	bnez	a3, 0x180002950 <_vsnprintf+0x6cc>
180002470: 93 06 a0 00 	li	a3, 0xa
180002474: 63 00 d7 2a 	beq	a4, a3, 0x180002714 <_vsnprintf+0x490>
180002478: 93 07 70 00 	li	a5, 0x7
18000247c: e3 14 f7 e8 	bne	a4, a5, 0x180002304 <_vsnprintf+0x80>
180002480: 93 67 14 02 	ori	a5, s0, 0x21
180002484: 03 37 0c 00 	ld	a4, 0x0(s8)
180002488: 9b 87 07 00 	sext.w	a5, a5
18000248c: 23 34 f1 00 	sd	a5, 0x8(sp)
180002490: 93 07 00 01 	li	a5, 0x10
180002494: 13 86 0b 00 	mv	a2, s7
180002498: 23 30 f1 00 	sd	a5, 0x0(sp)
18000249c: 93 88 0c 00 	mv	a7, s9
1800024a0: 13 08 00 01 	li	a6, 0x10
1800024a4: 93 07 00 00 	li	a5, 0x0
1800024a8: 93 86 04 00 	mv	a3, s1
1800024ac: 93 05 09 00 	mv	a1, s2
1800024b0: 13 85 09 00 	mv	a0, s3
1800024b4: ef f0 8f 9c 	jal	0x18000167c <_ntoa_long_long>
1800024b8: 93 0b 05 00 	mv	s7, a0
1800024bc: 03 c5 0a 00 	lbu	a0, 0x0(s5)
1800024c0: 13 0c 8c 00 	addi	s8, s8, 0x8
1800024c4: e3 1e 05 e4 	bnez	a0, 0x180002320 <_vsnprintf+0x9c>
1800024c8: 1b 84 0b 00 	sext.w	s0, s7
1800024cc: 63 e4 9b 00 	bltu	s7, s1, 0x1800024d4 <_vsnprintf+0x250>
1800024d0: 93 8b f4 ff 	addi	s7, s1, -0x1
1800024d4: 93 86 04 00 	mv	a3, s1
1800024d8: 13 86 0b 00 	mv	a2, s7
1800024dc: 93 05 09 00 	mv	a1, s2
1800024e0: 13 05 00 00 	li	a0, 0x0
1800024e4: e7 80 09 00 	jalr	s3
1800024e8: 83 30 81 09 	ld	ra, 0x98(sp)
1800024ec: 13 05 04 00 	mv	a0, s0
1800024f0: 03 34 01 09 	ld	s0, 0x90(sp)
1800024f4: 83 34 81 08 	ld	s1, 0x88(sp)
1800024f8: 03 39 01 08 	ld	s2, 0x80(sp)
1800024fc: 83 39 81 07 	ld	s3, 0x78(sp)
180002500: 03 3a 01 07 	ld	s4, 0x70(sp)
180002504: 83 3a 81 06 	ld	s5, 0x68(sp)
180002508: 03 3b 01 06 	ld	s6, 0x60(sp)
18000250c: 83 3b 81 05 	ld	s7, 0x58(sp)
180002510: 03 3c 01 05 	ld	s8, 0x50(sp)
180002514: 83 3c 81 04 	ld	s9, 0x48(sp)
180002518: 03 3d 01 04 	ld	s10, 0x40(sp)
18000251c: 83 3d 81 03 	ld	s11, 0x38(sp)
180002520: 13 01 01 0a 	addi	sp, sp, 0xa0
180002524: 67 80 00 00 	ret
180002528: 93 0d 00 00 	li	s11, 0x0
18000252c: 13 06 90 00 	li	a2, 0x9
180002530: 1b 97 2d 00 	slliw	a4, s11, 0x2
180002534: 3b 07 b7 01 	addw	a4, a4, s11
180002538: 1b 17 17 00 	slliw	a4, a4, 0x1
18000253c: 3b 07 a7 00 	addw	a4, a4, a0
180002540: 03 c5 06 00 	lbu	a0, 0x0(a3)
180002544: 9b 0d 07 fd 	addiw	s11, a4, -0x30
180002548: 93 8a 06 00 	mv	s5, a3
18000254c: 1b 07 05 fd 	addiw	a4, a0, -0x30
180002550: 13 77 f7 0f 	andi	a4, a4, 0xff
180002554: 93 86 16 00 	addi	a3, a3, 0x1
180002558: e3 7c e6 fc 	bgeu	a2, a4, 0x180002530 <_vsnprintf+0x2ac>
18000255c: 13 07 e0 02 	li	a4, 0x2e
180002560: 93 0c 00 00 	li	s9, 0x0
180002564: e3 1e e5 e0 	bne	a0, a4, 0x180002380 <_vsnprintf+0xfc>
180002568: 03 c5 1a 00 	lbu	a0, 0x1(s5)
18000256c: 13 64 04 40 	ori	s0, s0, 0x400
180002570: 93 05 90 00 	li	a1, 0x9
180002574: 1b 07 05 fd 	addiw	a4, a0, -0x30
180002578: 13 77 f7 0f 	andi	a4, a4, 0xff
18000257c: 13 86 06 00 	mv	a2, a3
180002580: 1b 04 04 00 	sext.w	s0, s0
180002584: 63 f0 e5 24 	bgeu	a1, a4, 0x1800027c4 <_vsnprintf+0x540>
180002588: 13 07 a0 02 	li	a4, 0x2a
18000258c: 63 08 e5 26 	beq	a0, a4, 0x1800027fc <_vsnprintf+0x578>
180002590: 93 8a 06 00 	mv	s5, a3
180002594: 93 86 16 00 	addi	a3, a3, 0x1
180002598: 6f f0 9f de 	j	0x180002380 <_vsnprintf+0xfc>
18000259c: 03 27 0c 00 	lw	a4, 0x0(s8)
1800025a0: 13 0c 8c 00 	addi	s8, s8, 0x8
1800025a4: 9b 0d 07 00 	sext.w	s11, a4
1800025a8: 63 4a 07 00 	bltz	a4, 0x1800025bc <_vsnprintf+0x338>
1800025ac: 03 c5 1a 00 	lbu	a0, 0x1(s5)
1800025b0: 93 8a 06 00 	mv	s5, a3
1800025b4: 93 86 16 00 	addi	a3, a3, 0x1
1800025b8: 6f f0 df db 	j	0x180002374 <_vsnprintf+0xf0>
1800025bc: 13 64 24 00 	ori	s0, s0, 0x2
1800025c0: 03 c5 1a 00 	lbu	a0, 0x1(s5)
1800025c4: 1b 04 04 00 	sext.w	s0, s0
1800025c8: 93 8a 06 00 	mv	s5, a3
1800025cc: bb 0d e0 40 	negw	s11, a4
1800025d0: 93 86 16 00 	addi	a3, a3, 0x1
1800025d4: 6f f0 1f da 	j	0x180002374 <_vsnprintf+0xf0>
1800025d8: 13 07 70 06 	li	a4, 0x67
1800025dc: 63 0e e5 30 	beq	a0, a4, 0x1800028f8 <_vsnprintf+0x674>
1800025e0: 13 07 70 04 	li	a4, 0x47
1800025e4: 63 06 e5 38 	beq	a0, a4, 0x180002970 <_vsnprintf+0x6ec>
1800025e8: 13 07 50 04 	li	a4, 0x45
1800025ec: 63 0a e5 38 	beq	a0, a4, 0x180002980 <_vsnprintf+0x6fc>
1800025f0: 07 35 0c 00 	fld	fa0, 0x0(s8)
1800025f4: 13 86 0b 00 	mv	a2, s7
1800025f8: 13 08 04 00 	mv	a6, s0
1800025fc: 93 87 0d 00 	mv	a5, s11
180002600: 13 87 0c 00 	mv	a4, s9
180002604: 93 86 04 00 	mv	a3, s1
180002608: 93 05 09 00 	mv	a1, s2
18000260c: 13 85 09 00 	mv	a0, s3
180002610: ef f0 5f 8d 	jal	0x180001ee4 <_etoa>
180002614: 13 0c 8c 00 	addi	s8, s8, 0x8
180002618: 93 0b 05 00 	mv	s7, a0
18000261c: 6f f0 df cf 	j	0x180002318 <_vsnprintf+0x94>
180002620: 03 c5 1a 00 	lbu	a0, 0x1(s5)
180002624: 13 07 c0 06 	li	a4, 0x6c
180002628: e3 1c e5 dc 	bne	a0, a4, 0x180002400 <_vsnprintf+0x17c>
18000262c: 13 64 04 30 	ori	s0, s0, 0x300
180002630: 03 c5 2a 00 	lbu	a0, 0x2(s5)
180002634: 1b 04 04 00 	sext.w	s0, s0
180002638: 93 86 3a 00 	addi	a3, s5, 0x3
18000263c: 6f f0 1f dd 	j	0x18000240c <_vsnprintf+0x188>
180002640: 03 c5 1a 00 	lbu	a0, 0x1(s5)
180002644: 13 07 80 06 	li	a4, 0x68
180002648: 63 02 e5 34 	beq	a0, a4, 0x18000298c <_vsnprintf+0x708>
18000264c: 13 64 04 08 	ori	s0, s0, 0x80
180002650: 1b 04 04 00 	sext.w	s0, s0
180002654: 93 86 16 00 	addi	a3, a3, 0x1
180002658: 6f f0 5f db 	j	0x18000240c <_vsnprintf+0x188>
18000265c: 13 07 60 04 	li	a4, 0x46
180002660: 63 06 e5 28 	beq	a0, a4, 0x1800028ec <_vsnprintf+0x668>
180002664: 07 35 0c 00 	fld	fa0, 0x0(s8)
180002668: 13 86 0b 00 	mv	a2, s7
18000266c: 13 08 04 00 	mv	a6, s0
180002670: 93 87 0d 00 	mv	a5, s11
180002674: 13 87 0c 00 	mv	a4, s9
180002678: 93 86 04 00 	mv	a3, s1
18000267c: 93 05 09 00 	mv	a1, s2
180002680: 13 85 09 00 	mv	a0, s3
180002684: ef f0 0f c1 	jal	0x180001a94 <_ftoa>
180002688: 13 0c 8c 00 	addi	s8, s8, 0x8
18000268c: 93 0b 05 00 	mv	s7, a0
180002690: 6f f0 9f c8 	j	0x180002318 <_vsnprintf+0x94>
180002694: 13 78 24 00 	andi	a6, s0, 0x2
180002698: 13 0d 8c 00 	addi	s10, s8, 0x8
18000269c: 93 8c 1b 00 	addi	s9, s7, 0x1
1800026a0: 63 0c 08 30 	beqz	a6, 0x1800029b8 <_vsnprintf+0x734>
1800026a4: 03 45 0c 00 	lbu	a0, 0x0(s8)
1800026a8: 93 86 04 00 	mv	a3, s1
1800026ac: 13 86 0b 00 	mv	a2, s7
1800026b0: 93 05 09 00 	mv	a1, s2
1800026b4: e7 80 09 00 	jalr	s3
1800026b8: 13 07 10 00 	li	a4, 0x1
1800026bc: 63 76 b7 3d 	bgeu	a4, s11, 0x180002a88 <_vsnprintf+0x804>
1800026c0: 9b 87 ed ff 	addiw	a5, s11, -0x2
1800026c4: 93 97 07 02 	slli	a5, a5, 0x20
1800026c8: 93 8e 2b 00 	addi	t4, s7, 0x2
1800026cc: 93 d7 07 02 	srli	a5, a5, 0x20
1800026d0: b3 8b fe 00 	add	s7, t4, a5
1800026d4: 13 86 0c 00 	mv	a2, s9
1800026d8: 93 86 04 00 	mv	a3, s1
1800026dc: 93 8c 1c 00 	addi	s9, s9, 0x1
1800026e0: 93 05 09 00 	mv	a1, s2
1800026e4: 13 05 00 02 	li	a0, 0x20
1800026e8: e7 80 09 00 	jalr	s3
1800026ec: e3 94 7c ff 	bne	s9, s7, 0x1800026d4 <_vsnprintf+0x450>
1800026f0: 13 0c 0d 00 	mv	s8, s10
1800026f4: 6f f0 5f c2 	j	0x180002318 <_vsnprintf+0x94>
1800026f8: 13 86 0b 00 	mv	a2, s7
1800026fc: 93 86 04 00 	mv	a3, s1
180002700: 93 05 09 00 	mv	a1, s2
180002704: 13 05 50 02 	li	a0, 0x25
180002708: 93 8b 1b 00 	addi	s7, s7, 0x1
18000270c: e7 80 09 00 	jalr	s3
180002710: 6f f0 9f c0 	j	0x180002318 <_vsnprintf+0x94>
180002714: 83 37 0c 00 	ld	a5, 0x0(s8)
180002718: 93 06 f0 ff 	li	a3, -0x1
18000271c: 23 38 f1 00 	sd	a5, 0x10(sp)
180002720: 93 07 8c 00 	addi	a5, s8, 0x8
180002724: 23 34 f1 02 	sd	a5, 0x28(sp)
180002728: 63 9c 0c 0e 	bnez	s9, 0x180002820 <_vsnprintf+0x59c>
18000272c: 03 3d 01 01 	ld	s10, 0x10(sp)
180002730: 03 45 0d 00 	lbu	a0, 0x0(s10)
180002734: 63 0e 05 4e 	beqz	a0, 0x180002c30 <_vsnprintf+0x9ac>
180002738: b3 06 dd 00 	add	a3, s10, a3
18000273c: 6f 00 80 00 	j	0x180002744 <_vsnprintf+0x4c0>
180002740: 63 08 dd 00 	beq	s10, a3, 0x180002750 <_vsnprintf+0x4cc>
180002744: 03 47 1d 00 	lbu	a4, 0x1(s10)
180002748: 13 0d 1d 00 	addi	s10, s10, 0x1
18000274c: e3 1a 07 fe 	bnez	a4, 0x180002740 <_vsnprintf+0x4bc>
180002750: 83 37 01 01 	ld	a5, 0x10(sp)
180002754: 3b 0d fd 40 	subw	s10, s10, a5
180002758: 93 77 04 40 	andi	a5, s0, 0x400
18000275c: 23 30 f1 02 	sd	a5, 0x20(sp)
180002760: 63 8a 07 00 	beqz	a5, 0x180002774 <_vsnprintf+0x4f0>
180002764: 13 87 0c 00 	mv	a4, s9
180002768: 63 74 9d 01 	bgeu	s10, s9, 0x180002770 <_vsnprintf+0x4ec>
18000276c: 13 07 0d 00 	mv	a4, s10
180002770: 1b 0d 07 00 	sext.w	s10, a4
180002774: 13 74 24 00 	andi	s0, s0, 0x2
180002778: 63 0e 04 28 	beqz	s0, 0x180002a14 <_vsnprintf+0x790>
18000277c: 63 08 05 18 	beqz	a0, 0x18000290c <_vsnprintf+0x688>
180002780: 83 37 01 02 	ld	a5, 0x20(sp)
180002784: 63 94 07 0a 	bnez	a5, 0x18000282c <_vsnprintf+0x5a8>
180002788: 13 8c 0b 00 	mv	s8, s7
18000278c: 13 06 0c 00 	mv	a2, s8
180002790: 93 86 04 00 	mv	a3, s1
180002794: 93 05 09 00 	mv	a1, s2
180002798: e7 80 09 00 	jalr	s3
18000279c: 83 37 01 01 	ld	a5, 0x10(sp)
1800027a0: 13 0c 1c 00 	addi	s8, s8, 0x1
1800027a4: b3 06 7c 41 	sub	a3, s8, s7
1800027a8: b3 86 d7 00 	add	a3, a5, a3
1800027ac: 03 c5 06 00 	lbu	a0, 0x0(a3)
1800027b0: e3 1e 05 fc 	bnez	a0, 0x18000278c <_vsnprintf+0x508>
1800027b4: 93 0b 0c 00 	mv	s7, s8
1800027b8: 63 1a 04 14 	bnez	s0, 0x18000290c <_vsnprintf+0x688>
1800027bc: 03 3c 81 02 	ld	s8, 0x28(sp)
1800027c0: 6f f0 9f b5 	j	0x180002318 <_vsnprintf+0x94>
1800027c4: 93 06 90 00 	li	a3, 0x9
1800027c8: 1b 97 2c 00 	slliw	a4, s9, 0x2
1800027cc: 3b 07 97 01 	addw	a4, a4, s9
1800027d0: 13 06 16 00 	addi	a2, a2, 0x1
1800027d4: 1b 17 17 00 	slliw	a4, a4, 0x1
1800027d8: 3b 07 a7 00 	addw	a4, a4, a0
1800027dc: 03 45 06 00 	lbu	a0, 0x0(a2)
1800027e0: 9b 0c 07 fd 	addiw	s9, a4, -0x30
1800027e4: 1b 07 05 fd 	addiw	a4, a0, -0x30
1800027e8: 13 77 f7 0f 	andi	a4, a4, 0xff
1800027ec: e3 fe e6 fc 	bgeu	a3, a4, 0x1800027c8 <_vsnprintf+0x544>
1800027f0: 93 0a 06 00 	mv	s5, a2
1800027f4: 93 06 16 00 	addi	a3, a2, 0x1
1800027f8: 6f f0 9f b8 	j	0x180002380 <_vsnprintf+0xfc>
1800027fc: 03 27 0c 00 	lw	a4, 0x0(s8)
180002800: 03 c5 2a 00 	lbu	a0, 0x2(s5)
180002804: 93 8a 2a 00 	addi	s5, s5, 0x2
180002808: 93 48 f7 ff 	not	a7, a4
18000280c: 93 d8 f8 43 	srai	a7, a7, 0x3f
180002810: b3 fc e8 00 	and	s9, a7, a4
180002814: 13 0c 8c 00 	addi	s8, s8, 0x8
180002818: 93 86 1a 00 	addi	a3, s5, 0x1
18000281c: 6f f0 5f b6 	j	0x180002380 <_vsnprintf+0xfc>
180002820: 93 96 0c 02 	slli	a3, s9, 0x20
180002824: 93 d6 06 02 	srli	a3, a3, 0x20
180002828: 6f f0 5f f0 	j	0x18000272c <_vsnprintf+0x4a8>
18000282c: 93 98 0c 02 	slli	a7, s9, 0x20
180002830: 93 d8 08 02 	srli	a7, a7, 0x20
180002834: b3 8c 78 01 	add	s9, a7, s7
180002838: 13 86 0b 00 	mv	a2, s7
18000283c: 63 88 cc 16 	beq	s9, a2, 0x1800029ac <_vsnprintf+0x728>
180002840: 93 86 04 00 	mv	a3, s1
180002844: 93 05 09 00 	mv	a1, s2
180002848: 13 0c 16 00 	addi	s8, a2, 0x1
18000284c: e7 80 09 00 	jalr	s3
180002850: 83 37 01 01 	ld	a5, 0x10(sp)
180002854: b3 06 7c 41 	sub	a3, s8, s7
180002858: b3 86 d7 00 	add	a3, a5, a3
18000285c: 03 c5 06 00 	lbu	a0, 0x0(a3)
180002860: e3 0a 05 f4 	beqz	a0, 0x1800027b4 <_vsnprintf+0x530>
180002864: 13 06 0c 00 	mv	a2, s8
180002868: 6f f0 5f fd 	j	0x18000283c <_vsnprintf+0x5b8>
18000286c: 13 07 20 06 	li	a4, 0x62
180002870: 63 04 e5 26 	beq	a0, a4, 0x180002ad8 <_vsnprintf+0x854>
180002874: 13 07 80 05 	li	a4, 0x58
180002878: 63 0c e5 2a 	beq	a0, a4, 0x180002b30 <_vsnprintf+0x8ac>
18000287c: 13 77 04 40 	andi	a4, s0, 0x400
180002880: 63 14 07 1e 	bnez	a4, 0x180002a68 <_vsnprintf+0x7e4>
180002884: 93 76 f4 fe 	andi	a3, s0, -0x11
180002888: 9b 86 06 00 	sext.w	a3, a3
18000288c: 13 f7 06 20 	andi	a4, a3, 0x200
180002890: 13 04 8c 00 	addi	s0, s8, 0x8
180002894: 13 86 06 00 	mv	a2, a3
180002898: 63 1e 07 1e 	bnez	a4, 0x180002a94 <_vsnprintf+0x810>
18000289c: 13 f7 06 10 	andi	a4, a3, 0x100
1800028a0: 63 18 07 2e 	bnez	a4, 0x180002b90 <_vsnprintf+0x90c>
1800028a4: 13 77 06 04 	andi	a4, a2, 0x40
1800028a8: 83 27 0c 00 	lw	a5, 0x0(s8)
1800028ac: 63 08 07 30 	beqz	a4, 0x180002bbc <_vsnprintf+0x938>
1800028b0: 93 f7 f7 0f 	andi	a5, a5, 0xff
1800028b4: 13 87 07 00 	mv	a4, a5
1800028b8: 13 86 0b 00 	mv	a2, s7
1800028bc: 23 34 d1 00 	sd	a3, 0x8(sp)
1800028c0: 23 30 b1 01 	sd	s11, 0x0(sp)
1800028c4: 93 88 0c 00 	mv	a7, s9
1800028c8: 13 08 a0 00 	li	a6, 0xa
1800028cc: 9b d7 f7 01 	srliw	a5, a5, 0x1f
1800028d0: 93 86 04 00 	mv	a3, s1
1800028d4: 93 05 09 00 	mv	a1, s2
1800028d8: 13 85 09 00 	mv	a0, s3
1800028dc: ef e0 1f da 	jal	0x18000167c <_ntoa_long_long>
1800028e0: 93 0b 05 00 	mv	s7, a0
1800028e4: 13 0c 04 00 	mv	s8, s0
1800028e8: 6f f0 1f a3 	j	0x180002318 <_vsnprintf+0x94>
1800028ec: 13 64 04 02 	ori	s0, s0, 0x20
1800028f0: 1b 04 04 00 	sext.w	s0, s0
1800028f4: 6f f0 1f d7 	j	0x180002664 <_vsnprintf+0x3e0>
1800028f8: 37 17 00 00 	lui	a4, 0x1
1800028fc: 13 07 07 80 	addi	a4, a4, -0x800
180002900: 33 67 e4 00 	or	a4, s0, a4
180002904: 1b 04 07 00 	sext.w	s0, a4
180002908: 6f f0 9f ce 	j	0x1800025f0 <_vsnprintf+0x36c>
18000290c: 13 84 0b 00 	mv	s0, s7
180002910: e3 76 bd eb 	bgeu	s10, s11, 0x1800027bc <_vsnprintf+0x538>
180002914: 9b 87 fd ff 	addiw	a5, s11, -0x1
180002918: bb 87 a7 41 	subw	a5, a5, s10
18000291c: 93 97 07 02 	slli	a5, a5, 0x20
180002920: 93 d7 07 02 	srli	a5, a5, 0x20
180002924: 93 8e 1b 00 	addi	t4, s7, 0x1
180002928: b3 8b d7 01 	add	s7, a5, t4
18000292c: 13 06 04 00 	mv	a2, s0
180002930: 93 86 04 00 	mv	a3, s1
180002934: 13 04 14 00 	addi	s0, s0, 0x1
180002938: 93 05 09 00 	mv	a1, s2
18000293c: 13 05 00 02 	li	a0, 0x20
180002940: e7 80 09 00 	jalr	s3
180002944: e3 14 74 ff 	bne	s0, s7, 0x18000292c <_vsnprintf+0x6a8>
180002948: 03 3c 81 02 	ld	s8, 0x28(sp)
18000294c: 6f f0 df 9c 	j	0x180002318 <_vsnprintf+0x94>
180002950: 13 07 80 07 	li	a4, 0x78
180002954: 63 1a e5 20 	bne	a0, a4, 0x180002b68 <_vsnprintf+0x8e4>
180002958: 13 77 04 40 	andi	a4, s0, 0x400
18000295c: 63 0c 07 2e 	beqz	a4, 0x180002c54 <_vsnprintf+0x9d0>
180002960: 93 76 24 ff 	andi	a3, s0, -0xe
180002964: 9b 86 06 00 	sext.w	a3, a3
180002968: 13 08 00 01 	li	a6, 0x10
18000296c: 6f 00 00 18 	j	0x180002aec <_vsnprintf+0x868>
180002970: 37 17 00 00 	lui	a4, 0x1
180002974: 13 07 07 80 	addi	a4, a4, -0x800
180002978: 33 67 e4 00 	or	a4, s0, a4
18000297c: 1b 04 07 00 	sext.w	s0, a4
180002980: 13 64 04 02 	ori	s0, s0, 0x20
180002984: 1b 04 04 00 	sext.w	s0, s0
180002988: 6f f0 9f c6 	j	0x1800025f0 <_vsnprintf+0x36c>
18000298c: 13 64 04 0c 	ori	s0, s0, 0xc0
180002990: 03 c5 2a 00 	lbu	a0, 0x2(s5)
180002994: 1b 04 04 00 	sext.w	s0, s0
180002998: 93 86 3a 00 	addi	a3, s5, 0x3
18000299c: 6f f0 1f a7 	j	0x18000240c <_vsnprintf+0x188>
1800029a0: 13 04 00 00 	li	s0, 0x0
1800029a4: e3 e8 9b b2 	bltu	s7, s1, 0x1800024d4 <_vsnprintf+0x250>
1800029a8: 6f f0 9f b2 	j	0x1800024d0 <_vsnprintf+0x24c>
1800029ac: 93 8b 0c 00 	mv	s7, s9
1800029b0: e3 06 04 e0 	beqz	s0, 0x1800027bc <_vsnprintf+0x538>
1800029b4: 6f f0 9f f5 	j	0x18000290c <_vsnprintf+0x688>
1800029b8: 13 07 10 00 	li	a4, 0x1
1800029bc: 63 7c b7 0b 	bgeu	a4, s11, 0x180002a74 <_vsnprintf+0x7f0>
1800029c0: 9b 87 ed ff 	addiw	a5, s11, -0x2
1800029c4: 13 94 07 02 	slli	s0, a5, 0x20
1800029c8: 13 54 04 02 	srli	s0, s0, 0x20
1800029cc: b3 0c 94 01 	add	s9, s0, s9
1800029d0: 93 8d 0b 00 	mv	s11, s7
1800029d4: 13 86 0d 00 	mv	a2, s11
1800029d8: 93 86 04 00 	mv	a3, s1
1800029dc: 93 8d 1d 00 	addi	s11, s11, 0x1
1800029e0: 93 05 09 00 	mv	a1, s2
1800029e4: 13 05 00 02 	li	a0, 0x20
1800029e8: e7 80 09 00 	jalr	s3
1800029ec: e3 94 9d ff 	bne	s11, s9, 0x1800029d4 <_vsnprintf+0x750>
1800029f0: 03 45 0c 00 	lbu	a0, 0x0(s8)
1800029f4: 93 8e 2b 00 	addi	t4, s7, 0x2
1800029f8: 93 86 04 00 	mv	a3, s1
1800029fc: 13 86 0d 00 	mv	a2, s11
180002a00: 93 05 09 00 	mv	a1, s2
180002a04: b3 8b 8e 00 	add	s7, t4, s0
180002a08: 13 0c 0d 00 	mv	s8, s10
180002a0c: e7 80 09 00 	jalr	s3
180002a10: 6f f0 9f 90 	j	0x180002318 <_vsnprintf+0x94>
180002a14: 63 76 bd 23 	bgeu	s10, s11, 0x180002c40 <_vsnprintf+0x9bc>
180002a18: 1b 87 fd ff 	addiw	a4, s11, -0x1
180002a1c: 3b 0d a7 41 	subw	s10, a4, s10
180002a20: 13 1d 0d 02 	slli	s10, s10, 0x20
180002a24: 13 5d 0d 02 	srli	s10, s10, 0x20
180002a28: 13 8c 1b 00 	addi	s8, s7, 0x1
180002a2c: 33 0d 8d 01 	add	s10, s10, s8
180002a30: 6f 00 80 00 	j	0x180002a38 <_vsnprintf+0x7b4>
180002a34: 13 0c 1c 00 	addi	s8, s8, 0x1
180002a38: 13 86 0b 00 	mv	a2, s7
180002a3c: 93 86 04 00 	mv	a3, s1
180002a40: 93 05 09 00 	mv	a1, s2
180002a44: 13 05 00 02 	li	a0, 0x20
180002a48: 93 0b 0c 00 	mv	s7, s8
180002a4c: e7 80 09 00 	jalr	s3
180002a50: e3 12 ac ff 	bne	s8, s10, 0x180002a34 <_vsnprintf+0x7b0>
180002a54: 83 37 01 01 	ld	a5, 0x10(sp)
180002a58: 1b 8d 1d 00 	addiw	s10, s11, 0x1
180002a5c: 03 c5 07 00 	lbu	a0, 0x0(a5)
180002a60: e3 10 05 d2 	bnez	a0, 0x180002780 <_vsnprintf+0x4fc>
180002a64: 6f f0 9f d5 	j	0x1800027bc <_vsnprintf+0x538>
180002a68: 93 76 e4 fe 	andi	a3, s0, -0x12
180002a6c: 9b 86 06 00 	sext.w	a3, a3
180002a70: 6f f0 df e1 	j	0x18000288c <_vsnprintf+0x608>
180002a74: 03 45 0c 00 	lbu	a0, 0x0(s8)
180002a78: 93 86 04 00 	mv	a3, s1
180002a7c: 13 86 0b 00 	mv	a2, s7
180002a80: 93 05 09 00 	mv	a1, s2
180002a84: e7 80 09 00 	jalr	s3
180002a88: 93 8b 0c 00 	mv	s7, s9
180002a8c: 13 0c 0d 00 	mv	s8, s10
180002a90: 6f f0 9f 88 	j	0x180002318 <_vsnprintf+0x94>
180002a94: 83 37 0c 00 	ld	a5, 0x0(s8)
180002a98: 23 34 d1 00 	sd	a3, 0x8(sp)
180002a9c: 13 86 0b 00 	mv	a2, s7
180002aa0: 13 d7 f7 43 	srai	a4, a5, 0x3f
180002aa4: b3 46 f7 00 	xor	a3, a4, a5
180002aa8: 23 30 b1 01 	sd	s11, 0x0(sp)
180002aac: 93 88 0c 00 	mv	a7, s9
180002ab0: 13 08 a0 00 	li	a6, 0xa
180002ab4: 93 d7 f7 03 	srli	a5, a5, 0x3f
180002ab8: 33 87 e6 40 	sub	a4, a3, a4
180002abc: 93 86 04 00 	mv	a3, s1
180002ac0: 93 05 09 00 	mv	a1, s2
180002ac4: 13 85 09 00 	mv	a0, s3
180002ac8: ef e0 5f bb 	jal	0x18000167c <_ntoa_long_long>
180002acc: 93 0b 05 00 	mv	s7, a0
180002ad0: 13 0c 04 00 	mv	s8, s0
180002ad4: 6f f0 5f 84 	j	0x180002318 <_vsnprintf+0x94>
180002ad8: 13 77 04 40 	andi	a4, s0, 0x400
180002adc: 63 0a 07 12 	beqz	a4, 0x180002c10 <_vsnprintf+0x98c>
180002ae0: 93 76 24 ff 	andi	a3, s0, -0xe
180002ae4: 9b 86 06 00 	sext.w	a3, a3
180002ae8: 13 08 20 00 	li	a6, 0x2
180002aec: 13 f7 06 20 	andi	a4, a3, 0x200
180002af0: 13 04 8c 00 	addi	s0, s8, 0x8
180002af4: 13 86 06 00 	mv	a2, a3
180002af8: 63 1a 07 04 	bnez	a4, 0x180002b4c <_vsnprintf+0x8c8>
180002afc: 13 f7 06 10 	andi	a4, a3, 0x100
180002b00: 63 1a 07 0e 	bnez	a4, 0x180002bf4 <_vsnprintf+0x970>
180002b04: 13 77 06 04 	andi	a4, a2, 0x40
180002b08: 63 0e 07 0c 	beqz	a4, 0x180002be4 <_vsnprintf+0x960>
180002b0c: 03 47 0c 00 	lbu	a4, 0x0(s8)
180002b10: 13 17 07 02 	slli	a4, a4, 0x20
180002b14: 13 86 0b 00 	mv	a2, s7
180002b18: 23 34 d1 00 	sd	a3, 0x8(sp)
180002b1c: 23 30 b1 01 	sd	s11, 0x0(sp)
180002b20: 93 88 0c 00 	mv	a7, s9
180002b24: 93 07 00 00 	li	a5, 0x0
180002b28: 13 57 07 02 	srli	a4, a4, 0x20
180002b2c: 6f f0 5f da 	j	0x1800028d0 <_vsnprintf+0x64c>
180002b30: 13 77 04 40 	andi	a4, s0, 0x400
180002b34: 63 0c 07 10 	beqz	a4, 0x180002c4c <_vsnprintf+0x9c8>
180002b38: 93 76 24 ff 	andi	a3, s0, -0xe
180002b3c: 9b 86 06 00 	sext.w	a3, a3
180002b40: 93 e6 06 02 	ori	a3, a3, 0x20
180002b44: 13 08 00 01 	li	a6, 0x10
180002b48: 6f f0 5f fa 	j	0x180002aec <_vsnprintf+0x868>
180002b4c: 03 37 0c 00 	ld	a4, 0x0(s8)
180002b50: 13 86 0b 00 	mv	a2, s7
180002b54: 23 34 d1 00 	sd	a3, 0x8(sp)
180002b58: 23 30 b1 01 	sd	s11, 0x0(sp)
180002b5c: 93 88 0c 00 	mv	a7, s9
180002b60: 93 07 00 00 	li	a5, 0x0
180002b64: 6f f0 9f f5 	j	0x180002abc <_vsnprintf+0x838>
180002b68: 13 07 f0 06 	li	a4, 0x6f
180002b6c: 63 1c e5 0e 	bne	a0, a4, 0x180002c64 <_vsnprintf+0x9e0>
180002b70: 93 76 34 ff 	andi	a3, s0, -0xd
180002b74: 13 77 04 40 	andi	a4, s0, 0x400
180002b78: 13 08 80 00 	li	a6, 0x8
180002b7c: 9b 86 06 00 	sext.w	a3, a3
180002b80: e3 06 07 f6 	beqz	a4, 0x180002aec <_vsnprintf+0x868>
180002b84: 93 76 24 ff 	andi	a3, s0, -0xe
180002b88: 9b 86 06 00 	sext.w	a3, a3
180002b8c: 6f f0 1f f6 	j	0x180002aec <_vsnprintf+0x868>
180002b90: 83 37 0c 00 	ld	a5, 0x0(s8)
180002b94: 23 34 d1 00 	sd	a3, 0x8(sp)
180002b98: 13 86 0b 00 	mv	a2, s7
180002b9c: 13 d7 f7 43 	srai	a4, a5, 0x3f
180002ba0: b3 46 f7 00 	xor	a3, a4, a5
180002ba4: 23 30 b1 01 	sd	s11, 0x0(sp)
180002ba8: 93 88 0c 00 	mv	a7, s9
180002bac: 13 08 a0 00 	li	a6, 0xa
180002bb0: 93 d7 f7 03 	srli	a5, a5, 0x3f
180002bb4: 33 87 e6 40 	sub	a4, a3, a4
180002bb8: 6f f0 9f d1 	j	0x1800028d0 <_vsnprintf+0x64c>
180002bbc: 13 76 06 08 	andi	a2, a2, 0x80
180002bc0: 63 00 06 06 	beqz	a2, 0x180002c20 <_vsnprintf+0x99c>
180002bc4: 9b 97 07 01 	slliw	a5, a5, 0x10
180002bc8: 9b d7 07 41 	sraiw	a5, a5, 0x10
180002bcc: 1b d6 f7 40 	sraiw	a2, a5, 0xf
180002bd0: 33 c7 c7 00 	xor	a4, a5, a2
180002bd4: 3b 07 c7 40 	subw	a4, a4, a2
180002bd8: 13 17 07 03 	slli	a4, a4, 0x30
180002bdc: 13 57 07 03 	srli	a4, a4, 0x30
180002be0: 6f f0 9f cd 	j	0x1800028b8 <_vsnprintf+0x634>
180002be4: 13 76 06 08 	andi	a2, a2, 0x80
180002be8: 63 08 06 04 	beqz	a2, 0x180002c38 <_vsnprintf+0x9b4>
180002bec: 03 57 0c 00 	lhu	a4, 0x0(s8)
180002bf0: 6f f0 1f f2 	j	0x180002b10 <_vsnprintf+0x88c>
180002bf4: 03 37 0c 00 	ld	a4, 0x0(s8)
180002bf8: 13 86 0b 00 	mv	a2, s7
180002bfc: 23 34 d1 00 	sd	a3, 0x8(sp)
180002c00: 23 30 b1 01 	sd	s11, 0x0(sp)
180002c04: 93 88 0c 00 	mv	a7, s9
180002c08: 93 07 00 00 	li	a5, 0x0
180002c0c: 6f f0 5f cc 	j	0x1800028d0 <_vsnprintf+0x64c>
180002c10: 93 76 34 ff 	andi	a3, s0, -0xd
180002c14: 9b 86 06 00 	sext.w	a3, a3
180002c18: 13 08 20 00 	li	a6, 0x2
180002c1c: 6f f0 1f ed 	j	0x180002aec <_vsnprintf+0x868>
180002c20: 1b d6 f7 41 	sraiw	a2, a5, 0x1f
180002c24: 33 c7 c7 00 	xor	a4, a5, a2
180002c28: 3b 07 c7 40 	subw	a4, a4, a2
180002c2c: 6f f0 df c8 	j	0x1800028b8 <_vsnprintf+0x634>
180002c30: 13 0d 00 00 	li	s10, 0x0
180002c34: 6f f0 5f b2 	j	0x180002758 <_vsnprintf+0x4d4>
180002c38: 03 27 0c 00 	lw	a4, 0x0(s8)
180002c3c: 6f f0 5f ed 	j	0x180002b10 <_vsnprintf+0x88c>
180002c40: 1b 0d 1d 00 	addiw	s10, s10, 0x1
180002c44: e3 1e 05 b2 	bnez	a0, 0x180002780 <_vsnprintf+0x4fc>
180002c48: 6f f0 5f b7 	j	0x1800027bc <_vsnprintf+0x538>
180002c4c: 13 64 04 02 	ori	s0, s0, 0x20
180002c50: 1b 04 04 00 	sext.w	s0, s0
180002c54: 93 76 34 ff 	andi	a3, s0, -0xd
180002c58: 9b 86 06 00 	sext.w	a3, a3
180002c5c: 13 08 00 01 	li	a6, 0x10
180002c60: 6f f0 df e8 	j	0x180002aec <_vsnprintf+0x868>
180002c64: 93 76 f4 fe 	andi	a3, s0, -0x11
180002c68: 13 06 90 06 	li	a2, 0x69
180002c6c: 13 07 04 00 	mv	a4, s0
180002c70: 9b 86 06 00 	sext.w	a3, a3
180002c74: 63 1c c5 00 	bne	a0, a2, 0x180002c8c <_vsnprintf+0xa08>
180002c78: 13 78 04 40 	andi	a6, s0, 0x400
180002c7c: e3 08 08 c0 	beqz	a6, 0x18000288c <_vsnprintf+0x608>
180002c80: 13 77 e7 fe 	andi	a4, a4, -0x12
180002c84: 9b 06 07 00 	sext.w	a3, a4
180002c88: 6f f0 5f c0 	j	0x18000288c <_vsnprintf+0x608>
180002c8c: 13 78 04 40 	andi	a6, s0, 0x400
180002c90: 63 08 08 00 	beqz	a6, 0x180002ca0 <_vsnprintf+0xa1c>
180002c94: 13 84 06 00 	mv	s0, a3
180002c98: 13 08 a0 00 	li	a6, 0xa
180002c9c: 6f f0 9f ee 	j	0x180002b84 <_vsnprintf+0x900>
180002ca0: 13 77 37 fe 	andi	a4, a4, -0x1d
180002ca4: 9b 06 07 00 	sext.w	a3, a4
180002ca8: 13 08 a0 00 	li	a6, 0xa
180002cac: 6f f0 1f e4 	j	0x180002aec <_vsnprintf+0x868>

0000000180002cb0 <tiny_vprintf>:
180002cb0: 13 01 01 fe 	addi	sp, sp, -0x20
180002cb4: 93 06 05 00 	mv	a3, a0
180002cb8: 13 87 05 00 	mv	a4, a1
180002cbc: 13 06 f0 ff 	li	a2, -0x1
180002cc0: 93 05 81 00 	addi	a1, sp, 0x8
180002cc4: 17 f5 ff ff 	auipc	a0, 0xfffff
180002cc8: 13 05 45 dc 	addi	a0, a0, -0x23c
180002ccc: 23 3c 11 00 	sd	ra, 0x18(sp)
180002cd0: ef f0 4f db 	jal	0x180002284 <_vsnprintf>
180002cd4: 83 30 81 01 	ld	ra, 0x18(sp)
180002cd8: 13 01 01 02 	addi	sp, sp, 0x20
180002cdc: 67 80 00 00 	ret

0000000180002ce0 <dummy>:
180002ce0: 67 80 00 00 	ret

0000000180002ce4 <libc_exit_fini>:
180002ce4: 13 01 01 fe 	addi	sp, sp, -0x20
180002ce8: 23 3c 11 00 	sd	ra, 0x18(sp)
180002cec: 23 38 81 00 	sd	s0, 0x10(sp)
180002cf0: 23 34 91 00 	sd	s1, 0x8(sp)
180002cf4: 23 30 21 01 	sd	s2, 0x0(sp)
180002cf8: 17 25 00 00 	auipc	a0, 0x2
180002cfc: 03 34 05 a6 	ld	s0, -0x5a0(a0)
180002d00: 17 25 00 00 	auipc	a0, 0x2
180002d04: 83 34 05 a6 	ld	s1, -0x5a0(a0)
180002d08: 1b 05 04 00 	sext.w	a0, s0
180002d0c: 9b 84 04 00 	sext.w	s1, s1
180002d10: 63 f0 a4 02 	bgeu	s1, a0, 0x180002d30 <libc_exit_fini+0x4c>
180002d14: 13 15 04 02 	slli	a0, s0, 0x20
180002d18: 13 55 05 02 	srli	a0, a0, 0x20
180002d1c: 83 35 85 ff 	ld	a1, -0x8(a0)
180002d20: 1b 09 85 ff 	addiw	s2, a0, -0x8
180002d24: e7 80 05 00 	jalr	a1
180002d28: 13 04 84 ff 	addi	s0, s0, -0x8
180002d2c: e3 e4 24 ff 	bltu	s1, s2, 0x180002d14 <libc_exit_fini+0x30>
180002d30: 83 30 81 01 	ld	ra, 0x18(sp)
180002d34: 03 34 01 01 	ld	s0, 0x10(sp)
180002d38: 83 34 81 00 	ld	s1, 0x8(sp)
180002d3c: 03 39 01 00 	ld	s2, 0x0(sp)
180002d40: 13 01 01 02 	addi	sp, sp, 0x20
180002d44: 6f f0 df f9 	j	0x180002ce0 <dummy>

0000000180002d48 <memcpy>:
180002d48: 13 01 01 fe 	addi	sp, sp, -0x20
180002d4c: 23 3c 81 00 	sd	s0, 0x18(sp)
180002d50: 23 38 91 00 	sd	s1, 0x10(sp)
180002d54: 23 34 21 01 	sd	s2, 0x8(sp)
180002d58: 23 30 31 01 	sd	s3, 0x0(sp)
180002d5c: 93 f6 35 00 	andi	a3, a1, 0x3
180002d60: b3 36 d0 00 	snez	a3, a3
180002d64: 33 37 c0 00 	snez	a4, a2
180002d68: b3 f7 e6 00 	and	a5, a3, a4
180002d6c: 0b a7 17 00 	vx_split_n	a4, a5
180002d70: 93 06 05 00 	mv	a3, a0
180002d74: 63 8c 07 04 	beqz	a5, 0x180002dcc <memcpy+0x84>
180002d78: 93 87 15 00 	addi	a5, a1, 0x1
180002d7c: 73 28 40 cc 	csrr	a6, tmask
180002d80: 93 82 05 00 	mv	t0, a1
180002d84: 13 03 05 00 	mv	t1, a0
180002d88: 93 08 06 00 	mv	a7, a2
180002d8c: 03 c6 02 00 	lbu	a2, 0x0(t0)
180002d90: 93 85 12 00 	addi	a1, t0, 0x1
180002d94: 93 06 13 00 	addi	a3, t1, 0x1
180002d98: 23 00 c3 00 	sb	a2, 0x0(t1)
180002d9c: 1b 86 f8 ff 	addiw	a2, a7, -0x1
180002da0: 93 f2 37 00 	andi	t0, a5, 0x3
180002da4: 93 b2 12 00 	seqz	t0, t0
180002da8: 93 88 f8 ff 	addi	a7, a7, -0x1
180002dac: 93 b8 18 00 	seqz	a7, a7
180002db0: b3 e3 12 01 	or	t2, t0, a7
180002db4: 93 87 17 00 	addi	a5, a5, 0x1
180002db8: 8b d0 03 01 	vx_pred_n	t2, a6
180002dbc: 93 82 05 00 	mv	t0, a1
180002dc0: 13 83 06 00 	mv	t1, a3
180002dc4: 93 08 06 00 	mv	a7, a2
180002dc8: e3 82 03 fc 	beqz	t2, 0x180002d8c <memcpy+0x44>
180002dcc: 0b 30 07 00 	vx_join	a4
180002dd0: 13 08 00 00 	li	a6, 0x0
180002dd4: 93 fe 36 00 	andi	t4, a3, 0x3
180002dd8: 33 33 d0 01 	snez	t1, t4
180002ddc: 0b 27 13 00 	vx_split_n	a4, t1
180002de0: 93 02 10 00 	li	t0, 0x1
180002de4: 63 08 03 38 	beqz	t1, 0x180003174 <memcpy+0x42c>
180002de8: 93 37 06 02 	sltiu	a5, a2, 0x20
180002dec: 13 c3 17 00 	xori	t1, a5, 0x1
180002df0: 8b 22 13 00 	vx_split_n	t0, t1
180002df4: 93 88 05 00 	mv	a7, a1
180002df8: 93 87 06 00 	mv	a5, a3
180002dfc: 13 08 06 00 	mv	a6, a2
180002e00: 63 0a 03 1e 	beqz	t1, 0x180002ff4 <memcpy+0x2ac>
180002e04: 03 a3 05 00 	lw	t1, 0x0(a1)
180002e08: 93 a7 3e 00 	slti	a5, t4, 0x3
180002e0c: 13 ce 17 00 	xori	t3, a5, 0x1
180002e10: 8b 23 1e 00 	vx_split_n	t2, t3
180002e14: 13 0f 10 00 	li	t5, 0x1
180002e18: 63 06 0e 08 	beqz	t3, 0x180002ea4 <memcpy+0x15c>
180002e1c: 93 87 16 00 	addi	a5, a3, 0x1
180002e20: 23 80 66 00 	sb	t1, 0x0(a3)
180002e24: 13 08 f6 ff 	addi	a6, a2, -0x1
180002e28: 93 88 05 01 	addi	a7, a1, 0x10
180002e2c: 73 2e 40 cc 	csrr	t3, tmask
180002e30: 13 0f 03 00 	mv	t5, t1
180002e34: 83 af 48 ff 	lw	t6, -0xc(a7)
180002e38: 1b 5f 8f 00 	srliw	t5, t5, 0x8
180002e3c: 13 94 8f 01 	slli	s0, t6, 0x18
180002e40: 83 a4 88 ff 	lw	s1, -0x8(a7)
180002e44: 33 6f e4 01 	or	t5, s0, t5
180002e48: 23 a0 e7 01 	sw	t5, 0x0(a5)
180002e4c: 1b df 8f 00 	srliw	t5, t6, 0x8
180002e50: 93 9f 84 01 	slli	t6, s1, 0x18
180002e54: 03 a4 c8 ff 	lw	s0, -0x4(a7)
180002e58: 33 ef ef 01 	or	t5, t6, t5
180002e5c: 23 a2 e7 01 	sw	t5, 0x4(a5)
180002e60: 9b df 84 00 	srliw	t6, s1, 0x8
180002e64: 93 14 84 01 	slli	s1, s0, 0x18
180002e68: 03 af 08 00 	lw	t5, 0x0(a7)
180002e6c: b3 ef f4 01 	or	t6, s1, t6
180002e70: 23 a4 f7 01 	sw	t6, 0x8(a5)
180002e74: 9b 5f 84 00 	srliw	t6, s0, 0x8
180002e78: 13 14 8f 01 	slli	s0, t5, 0x18
180002e7c: b3 6f f4 01 	or	t6, s0, t6
180002e80: 23 a6 f7 01 	sw	t6, 0xc(a5)
180002e84: 93 87 07 01 	addi	a5, a5, 0x10
180002e88: 1b 08 08 ff 	addiw	a6, a6, -0x10
180002e8c: 93 88 08 01 	addi	a7, a7, 0x10
180002e90: 93 3f 38 01 	sltiu	t6, a6, 0x13
180002e94: 8b d0 cf 01 	vx_pred_n	t6, t3
180002e98: e3 8e 0f f8 	beqz	t6, 0x180002e34 <memcpy+0xec>
180002e9c: 13 0f 00 00 	li	t5, 0x0
180002ea0: 93 88 18 ff 	addi	a7, a7, -0xf
180002ea4: 13 8e 05 01 	addi	t3, a1, 0x10
180002ea8: 0b b0 03 00 	vx_join	t2
180002eac: 8b 23 1f 00 	vx_split_n	t2, t5
180002eb0: 63 00 0f 14 	beqz	t5, 0x180002ff0 <memcpy+0x2a8>
180002eb4: 93 8e ee ff 	addi	t4, t4, -0x2
180002eb8: 33 34 d0 01 	snez	s0, t4
180002ebc: 0b 2f 14 00 	vx_split_n	t5, s0
180002ec0: 93 0f 10 00 	li	t6, 0x1
180002ec4: 93 5e 83 00 	srli	t4, t1, 0x8
180002ec8: 63 0c 04 08 	beqz	s0, 0x180002f60 <memcpy+0x218>
180002ecc: 23 80 66 00 	sb	t1, 0x0(a3)
180002ed0: a3 80 d6 01 	sb	t4, 0x1(a3)
180002ed4: 13 58 03 01 	srli	a6, t1, 0x10
180002ed8: 93 87 36 00 	addi	a5, a3, 0x3
180002edc: 23 81 06 01 	sb	a6, 0x2(a3)
180002ee0: 13 08 d6 ff 	addi	a6, a2, -0x3
180002ee4: 93 88 05 01 	addi	a7, a1, 0x10
180002ee8: f3 2f 40 cc 	csrr	t6, tmask
180002eec: 13 04 03 00 	mv	s0, t1
180002ef0: 83 a4 48 ff 	lw	s1, -0xc(a7)
180002ef4: 1b 54 84 01 	srliw	s0, s0, 0x18
180002ef8: 13 99 84 00 	slli	s2, s1, 0x8
180002efc: 83 a9 88 ff 	lw	s3, -0x8(a7)
180002f00: 33 64 89 00 	or	s0, s2, s0
180002f04: 23 a0 87 00 	sw	s0, 0x0(a5)
180002f08: 1b d4 84 01 	srliw	s0, s1, 0x18
180002f0c: 93 94 89 00 	slli	s1, s3, 0x8
180002f10: 03 a9 c8 ff 	lw	s2, -0x4(a7)
180002f14: 33 e4 84 00 	or	s0, s1, s0
180002f18: 23 a2 87 00 	sw	s0, 0x4(a5)
180002f1c: 9b d4 89 01 	srliw	s1, s3, 0x18
180002f20: 93 19 89 00 	slli	s3, s2, 0x8
180002f24: 03 a4 08 00 	lw	s0, 0x0(a7)
180002f28: b3 e4 99 00 	or	s1, s3, s1
180002f2c: 23 a4 97 00 	sw	s1, 0x8(a5)
180002f30: 9b 54 89 01 	srliw	s1, s2, 0x18
180002f34: 13 19 84 00 	slli	s2, s0, 0x8
180002f38: b3 64 99 00 	or	s1, s2, s1
180002f3c: 23 a6 97 00 	sw	s1, 0xc(a5)
180002f40: 93 87 07 01 	addi	a5, a5, 0x10
180002f44: 1b 08 08 ff 	addiw	a6, a6, -0x10
180002f48: 93 88 08 01 	addi	a7, a7, 0x10
180002f4c: 93 34 18 01 	sltiu	s1, a6, 0x11
180002f50: 8b d0 f4 01 	vx_pred_n	s1, t6
180002f54: e3 8e 04 f8 	beqz	s1, 0x180002ef0 <memcpy+0x1a8>
180002f58: 93 0f 00 00 	li	t6, 0x0
180002f5c: 93 88 38 ff 	addi	a7, a7, -0xd
180002f60: 0b 30 0f 00 	vx_join	t5
180002f64: 0b af 1f 00 	vx_split_n	t5, t6
180002f68: 63 82 0f 08 	beqz	t6, 0x180002fec <memcpy+0x2a4>
180002f6c: 23 80 66 00 	sb	t1, 0x0(a3)
180002f70: 93 87 26 00 	addi	a5, a3, 0x2
180002f74: a3 80 d6 01 	sb	t4, 0x1(a3)
180002f78: 13 08 e6 ff 	addi	a6, a2, -0x2
180002f7c: f3 28 40 cc 	csrr	a7, tmask
180002f80: 83 2e 4e ff 	lw	t4, -0xc(t3)
180002f84: 1b 53 03 01 	srliw	t1, t1, 0x10
180002f88: 93 9f 0e 01 	slli	t6, t4, 0x10
180002f8c: 03 24 8e ff 	lw	s0, -0x8(t3)
180002f90: 33 e3 6f 00 	or	t1, t6, t1
180002f94: 23 a0 67 00 	sw	t1, 0x0(a5)
180002f98: 1b d3 0e 01 	srliw	t1, t4, 0x10
180002f9c: 93 1e 04 01 	slli	t4, s0, 0x10
180002fa0: 83 2f ce ff 	lw	t6, -0x4(t3)
180002fa4: 33 e3 6e 00 	or	t1, t4, t1
180002fa8: 23 a2 67 00 	sw	t1, 0x4(a5)
180002fac: 9b 5e 04 01 	srliw	t4, s0, 0x10
180002fb0: 13 94 0f 01 	slli	s0, t6, 0x10
180002fb4: 03 23 0e 00 	lw	t1, 0x0(t3)
180002fb8: b3 6e d4 01 	or	t4, s0, t4
180002fbc: 23 a4 d7 01 	sw	t4, 0x8(a5)
180002fc0: 9b de 0f 01 	srliw	t4, t6, 0x10
180002fc4: 93 1f 03 01 	slli	t6, t1, 0x10
180002fc8: b3 ee df 01 	or	t4, t6, t4
180002fcc: 23 a6 d7 01 	sw	t4, 0xc(a5)
180002fd0: 93 87 07 01 	addi	a5, a5, 0x10
180002fd4: 1b 08 08 ff 	addiw	a6, a6, -0x10
180002fd8: 13 0e 0e 01 	addi	t3, t3, 0x10
180002fdc: 93 3e 28 01 	sltiu	t4, a6, 0x12
180002fe0: 8b d0 1e 01 	vx_pred_n	t4, a7
180002fe4: e3 8e 0e f8 	beqz	t4, 0x180002f80 <memcpy+0x238>
180002fe8: 93 08 2e ff 	addi	a7, t3, -0xe
180002fec: 0b 30 0f 00 	vx_join	t5
180002ff0: 0b b0 03 00 	vx_join	t2
180002ff4: 0b b0 02 00 	vx_join	t0
180002ff8: 9b 02 08 00 	sext.w	t0, a6
180002ffc: 93 b2 02 01 	sltiu	t0, t0, 0x10
180003000: 13 c3 12 00 	xori	t1, t0, 0x1
180003004: 8b 22 13 00 	vx_split_n	t0, t1
180003008: 63 08 03 08 	beqz	t1, 0x180003098 <memcpy+0x350>
18000300c: 03 c3 08 00 	lbu	t1, 0x0(a7)
180003010: 83 c3 18 00 	lbu	t2, 0x1(a7)
180003014: 03 ce 28 00 	lbu	t3, 0x2(a7)
180003018: 23 80 67 00 	sb	t1, 0x0(a5)
18000301c: a3 80 77 00 	sb	t2, 0x1(a5)
180003020: 03 c3 38 00 	lbu	t1, 0x3(a7)
180003024: 23 81 c7 01 	sb	t3, 0x2(a5)
180003028: 83 c3 48 00 	lbu	t2, 0x4(a7)
18000302c: 03 ce 58 00 	lbu	t3, 0x5(a7)
180003030: a3 81 67 00 	sb	t1, 0x3(a5)
180003034: 03 c3 68 00 	lbu	t1, 0x6(a7)
180003038: 23 82 77 00 	sb	t2, 0x4(a5)
18000303c: a3 82 c7 01 	sb	t3, 0x5(a5)
180003040: 83 c3 78 00 	lbu	t2, 0x7(a7)
180003044: 23 83 67 00 	sb	t1, 0x6(a5)
180003048: 03 c3 88 00 	lbu	t1, 0x8(a7)
18000304c: 03 ce 98 00 	lbu	t3, 0x9(a7)
180003050: a3 83 77 00 	sb	t2, 0x7(a5)
180003054: 83 c3 a8 00 	lbu	t2, 0xa(a7)
180003058: 23 84 67 00 	sb	t1, 0x8(a5)
18000305c: a3 84 c7 01 	sb	t3, 0x9(a5)
180003060: 03 c3 b8 00 	lbu	t1, 0xb(a7)
180003064: 23 85 77 00 	sb	t2, 0xa(a5)
180003068: 83 c3 c8 00 	lbu	t2, 0xc(a7)
18000306c: 03 ce d8 00 	lbu	t3, 0xd(a7)
180003070: a3 85 67 00 	sb	t1, 0xb(a5)
180003074: 03 c3 e8 00 	lbu	t1, 0xe(a7)
180003078: 23 86 77 00 	sb	t2, 0xc(a5)
18000307c: a3 86 c7 01 	sb	t3, 0xd(a5)
180003080: 83 c3 f8 00 	lbu	t2, 0xf(a7)
180003084: 23 87 67 00 	sb	t1, 0xe(a5)
180003088: 93 88 08 01 	addi	a7, a7, 0x10
18000308c: 13 83 07 01 	addi	t1, a5, 0x10
180003090: a3 87 77 00 	sb	t2, 0xf(a5)
180003094: 93 07 03 00 	mv	a5, t1
180003098: 0b b0 02 00 	vx_join	t0
18000309c: 93 12 c8 03 	slli	t0, a6, 0x3c
1800030a0: 13 d3 f2 03 	srli	t1, t0, 0x3f
1800030a4: 8b 22 13 00 	vx_split_n	t0, t1
1800030a8: 63 08 03 04 	beqz	t1, 0x1800030f8 <memcpy+0x3b0>
1800030ac: 03 c3 08 00 	lbu	t1, 0x0(a7)
1800030b0: 83 c3 18 00 	lbu	t2, 0x1(a7)
1800030b4: 03 ce 28 00 	lbu	t3, 0x2(a7)
1800030b8: 23 80 67 00 	sb	t1, 0x0(a5)
1800030bc: a3 80 77 00 	sb	t2, 0x1(a5)
1800030c0: 03 c3 38 00 	lbu	t1, 0x3(a7)
1800030c4: 23 81 c7 01 	sb	t3, 0x2(a5)
1800030c8: 83 c3 48 00 	lbu	t2, 0x4(a7)
1800030cc: 03 ce 58 00 	lbu	t3, 0x5(a7)
1800030d0: a3 81 67 00 	sb	t1, 0x3(a5)
1800030d4: 03 c3 68 00 	lbu	t1, 0x6(a7)
1800030d8: 23 82 77 00 	sb	t2, 0x4(a5)
1800030dc: a3 82 c7 01 	sb	t3, 0x5(a5)
1800030e0: 83 c3 78 00 	lbu	t2, 0x7(a7)
1800030e4: 23 83 67 00 	sb	t1, 0x6(a5)
1800030e8: 93 88 88 00 	addi	a7, a7, 0x8
1800030ec: 13 83 87 00 	addi	t1, a5, 0x8
1800030f0: a3 83 77 00 	sb	t2, 0x7(a5)
1800030f4: 93 07 03 00 	mv	a5, t1
1800030f8: 0b b0 02 00 	vx_join	t0
1800030fc: 93 12 d8 03 	slli	t0, a6, 0x3d
180003100: 13 d3 f2 03 	srli	t1, t0, 0x3f
180003104: 8b 22 13 00 	vx_split_n	t0, t1
180003108: 63 08 03 02 	beqz	t1, 0x180003138 <memcpy+0x3f0>
18000310c: 03 c3 08 00 	lbu	t1, 0x0(a7)
180003110: 83 c3 18 00 	lbu	t2, 0x1(a7)
180003114: 03 ce 28 00 	lbu	t3, 0x2(a7)
180003118: 23 80 67 00 	sb	t1, 0x0(a5)
18000311c: a3 80 77 00 	sb	t2, 0x1(a5)
180003120: 03 c3 38 00 	lbu	t1, 0x3(a7)
180003124: 23 81 c7 01 	sb	t3, 0x2(a5)
180003128: 93 88 48 00 	addi	a7, a7, 0x4
18000312c: 93 83 47 00 	addi	t2, a5, 0x4
180003130: a3 81 67 00 	sb	t1, 0x3(a5)
180003134: 93 87 03 00 	mv	a5, t2
180003138: 0b b0 02 00 	vx_join	t0
18000313c: 93 12 e8 03 	slli	t0, a6, 0x3e
180003140: 13 d3 f2 03 	srli	t1, t0, 0x3f
180003144: 8b 22 13 00 	vx_split_n	t0, t1
180003148: 63 00 03 02 	beqz	t1, 0x180003168 <memcpy+0x420>
18000314c: 03 c3 08 00 	lbu	t1, 0x0(a7)
180003150: 83 c3 18 00 	lbu	t2, 0x1(a7)
180003154: 23 80 67 00 	sb	t1, 0x0(a5)
180003158: 13 83 27 00 	addi	t1, a5, 0x2
18000315c: 93 88 28 00 	addi	a7, a7, 0x2
180003160: a3 80 77 00 	sb	t2, 0x1(a5)
180003164: 93 07 03 00 	mv	a5, t1
180003168: 0b b0 02 00 	vx_join	t0
18000316c: 93 02 00 00 	li	t0, 0x0
180003170: 13 78 18 00 	andi	a6, a6, 0x1
180003174: 0b 30 07 00 	vx_join	a4
180003178: 0b a7 12 00 	vx_split_n	a4, t0
18000317c: 63 84 02 0e 	beqz	t0, 0x180003264 <memcpy+0x51c>
180003180: 93 37 06 01 	sltiu	a5, a2, 0x10
180003184: 13 c8 17 00 	xori	a6, a5, 0x1
180003188: 8b 27 18 00 	vx_split_n	a5, a6
18000318c: 63 00 08 04 	beqz	a6, 0x1800031cc <memcpy+0x484>
180003190: 73 28 40 cc 	csrr	a6, tmask
180003194: 83 a8 05 00 	lw	a7, 0x0(a1)
180003198: 83 a2 45 00 	lw	t0, 0x4(a1)
18000319c: 03 a3 85 00 	lw	t1, 0x8(a1)
1800031a0: 83 a3 c5 00 	lw	t2, 0xc(a1)
1800031a4: 23 a0 16 01 	sw	a7, 0x0(a3)
1800031a8: 23 a2 56 00 	sw	t0, 0x4(a3)
1800031ac: 23 a4 66 00 	sw	t1, 0x8(a3)
1800031b0: 23 a6 76 00 	sw	t2, 0xc(a3)
1800031b4: 93 85 05 01 	addi	a1, a1, 0x10
1800031b8: 93 86 06 01 	addi	a3, a3, 0x10
1800031bc: 1b 06 06 ff 	addiw	a2, a2, -0x10
1800031c0: 93 38 06 01 	sltiu	a7, a2, 0x10
1800031c4: 8b d0 08 01 	vx_pred_n	a7, a6
1800031c8: e3 86 08 fc 	beqz	a7, 0x180003194 <memcpy+0x44c>
1800031cc: 0b b0 07 00 	vx_join	a5
1800031d0: 93 37 86 00 	sltiu	a5, a2, 0x8
1800031d4: 13 c8 17 00 	xori	a6, a5, 0x1
1800031d8: 8b 27 18 00 	vx_split_n	a5, a6
1800031dc: 63 00 08 02 	beqz	a6, 0x1800031fc <memcpy+0x4b4>
1800031e0: 03 a8 05 00 	lw	a6, 0x0(a1)
1800031e4: 83 a8 45 00 	lw	a7, 0x4(a1)
1800031e8: 93 85 85 00 	addi	a1, a1, 0x8
1800031ec: 23 a0 06 01 	sw	a6, 0x0(a3)
1800031f0: 13 88 86 00 	addi	a6, a3, 0x8
1800031f4: 23 a2 16 01 	sw	a7, 0x4(a3)
1800031f8: 93 06 08 00 	mv	a3, a6
1800031fc: 0b b0 07 00 	vx_join	a5
180003200: 93 17 d6 03 	slli	a5, a2, 0x3d
180003204: 13 d8 f7 03 	srli	a6, a5, 0x3f
180003208: 8b 27 18 00 	vx_split_n	a5, a6
18000320c: 63 0c 08 00 	beqz	a6, 0x180003224 <memcpy+0x4dc>
180003210: 03 a8 05 00 	lw	a6, 0x0(a1)
180003214: 93 85 45 00 	addi	a1, a1, 0x4
180003218: 93 88 46 00 	addi	a7, a3, 0x4
18000321c: 23 a0 06 01 	sw	a6, 0x0(a3)
180003220: 93 86 08 00 	mv	a3, a7
180003224: 0b b0 07 00 	vx_join	a5
180003228: 93 17 e6 03 	slli	a5, a2, 0x3e
18000322c: 13 d8 f7 03 	srli	a6, a5, 0x3f
180003230: 8b 27 18 00 	vx_split_n	a5, a6
180003234: 63 00 08 02 	beqz	a6, 0x180003254 <memcpy+0x50c>
180003238: 03 c8 05 00 	lbu	a6, 0x0(a1)
18000323c: 83 c8 15 00 	lbu	a7, 0x1(a1)
180003240: 23 80 06 01 	sb	a6, 0x0(a3)
180003244: 13 88 26 00 	addi	a6, a3, 0x2
180003248: 93 85 25 00 	addi	a1, a1, 0x2
18000324c: a3 80 16 01 	sb	a7, 0x1(a3)
180003250: 93 06 08 00 	mv	a3, a6
180003254: 0b b0 07 00 	vx_join	a5
180003258: 13 78 16 00 	andi	a6, a2, 0x1
18000325c: 93 88 05 00 	mv	a7, a1
180003260: 93 87 06 00 	mv	a5, a3
180003264: 0b 30 07 00 	vx_join	a4
180003268: 8b 25 18 00 	vx_split_n	a1, a6
18000326c: 63 06 08 00 	beqz	a6, 0x180003278 <memcpy+0x530>
180003270: 03 c6 08 00 	lbu	a2, 0x0(a7)
180003274: 23 80 c7 00 	sb	a2, 0x0(a5)
180003278: 0b b0 05 00 	vx_join	a1
18000327c: 03 34 81 01 	ld	s0, 0x18(sp)
180003280: 83 34 01 01 	ld	s1, 0x10(sp)
180003284: 03 39 81 00 	ld	s2, 0x8(sp)
180003288: 83 39 01 00 	ld	s3, 0x0(sp)
18000328c: 13 01 01 02 	addi	sp, sp, 0x20
180003290: 67 80 00 00 	ret

0000000180003294 <memset>:
180003294: 33 37 c0 00 	snez	a4, a2
180003298: 8b 26 17 00 	vx_split_n	a3, a4
18000329c: 63 06 07 1a 	beqz	a4, 0x180003448 <memset+0x1b4>
1800032a0: 23 00 b5 00 	sb	a1, 0x0(a0)
1800032a4: 13 07 f6 ff 	addi	a4, a2, -0x1
1800032a8: 13 17 07 02 	slli	a4, a4, 0x20
1800032ac: 13 57 07 02 	srli	a4, a4, 0x20
1800032b0: 33 07 e5 00 	add	a4, a0, a4
1800032b4: 23 00 b7 00 	sb	a1, 0x0(a4)
1800032b8: 13 37 36 00 	sltiu	a4, a2, 0x3
1800032bc: 93 47 17 00 	xori	a5, a4, 0x1
1800032c0: 0b a7 17 00 	vx_split_n	a4, a5
1800032c4: 63 80 07 18 	beqz	a5, 0x180003444 <memset+0x1b0>
1800032c8: a3 00 b5 00 	sb	a1, 0x1(a0)
1800032cc: 23 01 b5 00 	sb	a1, 0x2(a0)
1800032d0: 93 07 e6 ff 	addi	a5, a2, -0x2
1800032d4: 93 97 07 02 	slli	a5, a5, 0x20
1800032d8: 93 d7 07 02 	srli	a5, a5, 0x20
1800032dc: b3 07 f5 00 	add	a5, a0, a5
1800032e0: 23 80 b7 00 	sb	a1, 0x0(a5)
1800032e4: 93 07 d6 ff 	addi	a5, a2, -0x3
1800032e8: 93 97 07 02 	slli	a5, a5, 0x20
1800032ec: 93 d7 07 02 	srli	a5, a5, 0x20
1800032f0: b3 07 f5 00 	add	a5, a0, a5
1800032f4: 23 80 b7 00 	sb	a1, 0x0(a5)
1800032f8: 93 37 76 00 	sltiu	a5, a2, 0x7
1800032fc: 13 c8 17 00 	xori	a6, a5, 0x1
180003300: 8b 27 18 00 	vx_split_n	a5, a6
180003304: 63 0e 08 12 	beqz	a6, 0x180003440 <memset+0x1ac>
180003308: a3 01 b5 00 	sb	a1, 0x3(a0)
18000330c: 13 08 c6 ff 	addi	a6, a2, -0x4
180003310: 13 18 08 02 	slli	a6, a6, 0x20
180003314: 13 58 08 02 	srli	a6, a6, 0x20
180003318: 33 08 05 01 	add	a6, a0, a6
18000331c: 23 00 b8 00 	sb	a1, 0x0(a6)
180003320: 13 38 96 00 	sltiu	a6, a2, 0x9
180003324: 93 48 18 00 	xori	a7, a6, 0x1
180003328: 0b a8 18 00 	vx_split_n	a6, a7
18000332c: 63 88 08 10 	beqz	a7, 0x18000343c <memset+0x1a8>
180003330: bb 08 a0 40 	negw	a7, a0
180003334: 93 f8 38 00 	andi	a7, a7, 0x3
180003338: b3 02 15 01 	add	t0, a0, a7
18000333c: 3b 06 16 41 	subw	a2, a2, a7
180003340: 13 73 c6 ff 	andi	t1, a2, -0x4
180003344: 93 95 85 03 	slli	a1, a1, 0x38
180003348: b7 13 10 10 	lui	t2, 0x10101
18000334c: 93 93 43 00 	slli	t2, t2, 0x4
180003350: 93 83 03 10 	addi	t2, t2, 0x100
180003354: b3 b3 75 02 	mulhu	t2, a1, t2
180003358: 23 a0 72 00 	sw	t2, 0x0(t0)
18000335c: 9b 55 26 00 	srliw	a1, a2, 0x2
180003360: 93 95 25 00 	slli	a1, a1, 0x2
180003364: 33 8e b2 00 	add	t3, t0, a1
180003368: 23 2e 7e fe 	sw	t2, -0x4(t3)
18000336c: 93 35 93 00 	sltiu	a1, t1, 0x9
180003370: 13 c6 15 00 	xori	a2, a1, 0x1
180003374: 8b 25 16 00 	vx_split_n	a1, a2
180003378: 63 00 06 0c 	beqz	a2, 0x180003438 <memset+0x1a4>
18000337c: 23 a2 72 00 	sw	t2, 0x4(t0)
180003380: 23 a4 72 00 	sw	t2, 0x8(t0)
180003384: 23 2a 7e fe 	sw	t2, -0xc(t3)
180003388: 23 2c 7e fe 	sw	t2, -0x8(t3)
18000338c: 13 36 93 01 	sltiu	a2, t1, 0x19
180003390: 93 4e 16 00 	xori	t4, a2, 0x1
180003394: 0b a6 1e 00 	vx_split_n	a2, t4
180003398: 63 8e 0e 08 	beqz	t4, 0x180003434 <memset+0x1a0>
18000339c: 23 a6 72 00 	sw	t2, 0xc(t0)
1800033a0: 23 a8 72 00 	sw	t2, 0x10(t0)
1800033a4: 23 aa 72 00 	sw	t2, 0x14(t0)
1800033a8: 23 ac 72 00 	sw	t2, 0x18(t0)
1800033ac: 23 22 7e fe 	sw	t2, -0x1c(t3)
1800033b0: 23 24 7e fe 	sw	t2, -0x18(t3)
1800033b4: 23 26 7e fe 	sw	t2, -0x14(t3)
1800033b8: 23 28 7e fe 	sw	t2, -0x10(t3)
1800033bc: 93 fe 42 00 	andi	t4, t0, 0x4
1800033c0: 13 8f 8e 01 	addi	t5, t4, 0x18
1800033c4: 3b 0e e3 41 	subw	t3, t1, t5
1800033c8: 13 3e 0e 02 	sltiu	t3, t3, 0x20
1800033cc: 93 4f 1e 00 	xori	t6, t3, 0x1
1800033d0: 0b ae 1f 00 	vx_split_n	t3, t6
1800033d4: 63 8e 0f 04 	beqz	t6, 0x180003430 <memset+0x19c>
1800033d8: 93 93 03 02 	slli	t2, t2, 0x20
1800033dc: 93 df 03 02 	srli	t6, t2, 0x20
1800033e0: b3 e3 f3 01 	or	t2, t2, t6
1800033e4: b3 82 e2 01 	add	t0, t0, t5
1800033e8: 3b 03 d3 41 	subw	t1, t1, t4
1800033ec: 13 03 83 fc 	addi	t1, t1, -0x38
1800033f0: 1b 53 53 00 	srliw	t1, t1, 0x5
1800033f4: 13 13 53 00 	slli	t1, t1, 0x5
1800033f8: b3 e8 1e 01 	or	a7, t4, a7
1800033fc: b3 68 13 01 	or	a7, t1, a7
180003400: b3 88 a8 00 	add	a7, a7, a0
180003404: 93 88 88 03 	addi	a7, a7, 0x38
180003408: 73 23 40 cc 	csrr	t1, tmask
18000340c: 23 b0 72 00 	sd	t2, 0x0(t0)
180003410: 23 b4 72 00 	sd	t2, 0x8(t0)
180003414: 23 b8 72 00 	sd	t2, 0x10(t0)
180003418: 23 bc 72 00 	sd	t2, 0x18(t0)
18000341c: 93 82 02 02 	addi	t0, t0, 0x20
180003420: b3 ce 12 01 	xor	t4, t0, a7
180003424: 93 be 1e 00 	seqz	t4, t4
180003428: 8b d0 6e 00 	vx_pred_n	t4, t1
18000342c: e3 80 0e fe 	beqz	t4, 0x18000340c <memset+0x178>
180003430: 0b 30 0e 00 	vx_join	t3
180003434: 0b 30 06 00 	vx_join	a2
180003438: 0b b0 05 00 	vx_join	a1
18000343c: 0b 30 08 00 	vx_join	a6
180003440: 0b b0 07 00 	vx_join	a5
180003444: 0b 30 07 00 	vx_join	a4
180003448: 0b b0 06 00 	vx_join	a3
18000344c: 67 80 00 00 	ret

Disassembly of section .rodata:

0000000180003450 <.rodata>:
180003450: 43 48 45 43 	fmadd.d	fa6, fa0, fs4, fs0, rmm
180003454: 4b 3a 20 63 	fnmsub.d	fs4, ft0, fs2, fa2, rup
180003458: 75 64       	<unknown>
18000345a: 61 6d       	<unknown>
18000345c: 65 6d       	<unknown>
18000345e: 63 70 79 74 	bgeu	s2, t2, 0x180003b9e <STARTUP_ADDR+0x3b9e>
180003462: 6f 73 79 6d 	jal	t1, 0x18009b338 <_end+0x96ae0>
180003466: 62 6f       	<unknown>
180003468: 6c 2c       	<unknown>
18000346a: 20 6e       	<unknown>
18000346c: 75 6d       	<unknown>
18000346e: 62 65       	<unknown>
180003470: 72 20       	<unknown>
180003472: 6f 66 20 63 	jal	a2, 0x180009aa4 <_end+0x524c>
180003476: 75 64       	<unknown>
180003478: 61 6d       	<unknown>
18000347a: 65 6d       	<unknown>
18000347c: 63 70 79 74 	bgeu	s2, t2, 0x180003bbc <STARTUP_ADDR+0x3bbc>
180003480: 6f 73 79 6d 	jal	t1, 0x18009b356 <_end+0x96afe>
180003484: 62 6f       	<unknown>
180003486: 6c 3d       	<unknown>
180003488: 25 64       	<unknown>
18000348a: 20 0a       	<unknown>
18000348c: 00 00       	<unknown>
18000348e: 00 00       	<unknown>
180003490: 65 72       	<unknown>
180003492: 72 6f       	<unknown>
180003494: 72 3a       	<unknown>
180003496: 20 67       	<unknown>
180003498: 72 6f       	<unknown>
18000349a: 75 70       	<unknown>
18000349c: 5f 73 69 7a 	<unknown>
1800034a0: 65 20       	<unknown>
1800034a2: 3e 20       	<unknown>
1800034a4: 74 68       	<unknown>
1800034a6: 72 65       	<unknown>
1800034a8: 61 64       	<unknown>
1800034aa: 73 5f 70 65 	csrrwi	t5, 0x657, 0x0
1800034ae: 72 5f       	<unknown>
1800034b0: 63 6f 72 65 	bltu	tp, s7, 0x180003b0e <STARTUP_ADDR+0x3b0e>
1800034b4: 20 28       	<unknown>
1800034b6: 25 64       	<unknown>
1800034b8: 2c 25       	<unknown>
1800034ba: 64 29       	<unknown>
1800034bc: 0a 00       	<unknown>
1800034be: 00 00       	<unknown>
1800034c0: 66 6e       	<unknown>
1800034c2: 69 2b       	<unknown>
1800034c4: 00 00       	<unknown>
1800034c6: 00 00       	<unknown>
1800034c8: 66 6e       	<unknown>
1800034ca: 69 00       	<unknown>
1800034cc: 00 00       	<unknown>
1800034ce: 00 00       	<unknown>
1800034d0: 6e 61       	<unknown>
1800034d2: 6e 00       	<unknown>
1800034d4: 00 00       	<unknown>
1800034d6: 00 00       	<unknown>
1800034d8: 66 6e       	<unknown>
1800034da: 69 2d       	<unknown>
1800034dc: 00 00       	<unknown>
1800034de: 00 00       	<unknown>
1800034e0: 0c ef       	<unknown>
1800034e2: ff ff 78 ee 	<unknown>
1800034e6: ff ff 78 ee 	<unknown>
1800034ea: ff ff fc ee 	<unknown>
1800034ee: ff ff 78 ee 	<unknown>
1800034f2: ff ff 78 ee 	<unknown>
1800034f6: ff ff 78 ee 	<unknown>
1800034fa: ff ff 78 ee 	<unknown>
1800034fe: ff ff 78 ee 	<unknown>
180003502: ff ff 78 ee 	<unknown>
180003506: ff ff 78 ee 	<unknown>
18000350a: ff ff ec ee 	<unknown>
18000350e: ff ff 78 ee 	<unknown>
180003512: ff ff dc ee 	<unknown>
180003516: ff ff 78 ee 	<unknown>
18000351a: ff ff 78 ee 	<unknown>
18000351e: ff ff cc ee 	<unknown>
180003522: ff ff 1c f1 	<unknown>
180003526: ff ff e8 ee 	<unknown>
18000352a: ff ff d8 ee 	<unknown>
18000352e: ff ff e8 ee 	<unknown>
180003532: ff ff fc f0 	<unknown>
180003536: ff ff e8 ee 	<unknown>
18000353a: ff ff e8 ee 	<unknown>
18000353e: ff ff e8 ee 	<unknown>
180003542: ff ff e8 ee 	<unknown>
180003546: ff ff e8 ee 	<unknown>
18000354a: ff ff e8 ee 	<unknown>
18000354e: ff ff e8 ee 	<unknown>
180003552: ff ff d8 ee 	<unknown>
180003556: ff ff e8 ee 	<unknown>
18000355a: ff ff e8 ee 	<unknown>
18000355e: ff ff e8 ee 	<unknown>
180003562: ff ff e8 ee 	<unknown>
180003566: ff ff e8 ee 	<unknown>
18000356a: ff ff d8 ee 	<unknown>
18000356e: ff ff 88 f1 	<unknown>
180003572: ff ff 94 ed 	<unknown>
180003576: ff ff 94 ed 	<unknown>
18000357a: ff ff 94 ed 	<unknown>
18000357e: ff ff 94 ed 	<unknown>
180003582: ff ff 94 ed 	<unknown>
180003586: ff ff 94 ed 	<unknown>
18000358a: ff ff 94 ed 	<unknown>
18000358e: ff ff 94 ed 	<unknown>
180003592: ff ff 94 ed 	<unknown>
180003596: ff ff 94 ed 	<unknown>
18000359a: ff ff 94 ed 	<unknown>
18000359e: ff ff 94 ed 	<unknown>
1800035a2: ff ff 94 ed 	<unknown>
1800035a6: ff ff 94 ed 	<unknown>
1800035aa: ff ff 94 ed 	<unknown>
1800035ae: ff ff 94 ed 	<unknown>
1800035b2: ff ff 94 ed 	<unknown>
1800035b6: ff ff 94 ed 	<unknown>
1800035ba: ff ff 94 ed 	<unknown>
1800035be: ff ff 94 ed 	<unknown>
1800035c2: ff ff 94 ed 	<unknown>
1800035c6: ff ff 94 ed 	<unknown>
1800035ca: ff ff 94 ed 	<unknown>
1800035ce: ff ff 94 ed 	<unknown>
1800035d2: ff ff 94 ed 	<unknown>
1800035d6: ff ff 94 ed 	<unknown>
1800035da: ff ff 94 ed 	<unknown>
1800035de: ff ff 94 ed 	<unknown>
1800035e2: ff ff 94 ed 	<unknown>
1800035e6: ff ff 94 ed 	<unknown>
1800035ea: ff ff 94 ed 	<unknown>
1800035ee: ff ff 68 f0 	<unknown>
1800035f2: ff ff ec f0 	<unknown>
1800035f6: ff ff 68 f0 	<unknown>
1800035fa: ff ff 94 ed 	<unknown>
1800035fe: ff ff 94 ed 	<unknown>
180003602: ff ff 94 ed 	<unknown>
180003606: ff ff 94 ed 	<unknown>
18000360a: ff ff 94 ed 	<unknown>
18000360e: ff ff 94 ed 	<unknown>
180003612: ff ff 94 ed 	<unknown>
180003616: ff ff 94 ed 	<unknown>
18000361a: ff ff 94 ed 	<unknown>
18000361e: ff ff 94 ed 	<unknown>
180003622: ff ff 94 ed 	<unknown>
180003626: ff ff 94 ed 	<unknown>
18000362a: ff ff 94 ed 	<unknown>
18000362e: ff ff 94 ed 	<unknown>
180003632: ff ff 94 ed 	<unknown>
180003636: ff ff 94 ed 	<unknown>
18000363a: ff ff fc f2 	<unknown>
18000363e: ff ff 94 ed 	<unknown>
180003642: ff ff 94 ed 	<unknown>
180003646: ff ff 94 ed 	<unknown>
18000364a: ff ff 94 ed 	<unknown>
18000364e: ff ff 94 ed 	<unknown>
180003652: ff ff 94 ed 	<unknown>
180003656: ff ff 94 ed 	<unknown>
18000365a: ff ff 94 ed 	<unknown>
18000365e: ff ff 94 ed 	<unknown>
180003662: ff ff fc f2 	<unknown>
180003666: ff ff 24 f1 	<unknown>
18000366a: ff ff fc f2 	<unknown>
18000366e: ff ff 68 f0 	<unknown>
180003672: ff ff ec f0 	<unknown>
180003676: ff ff 68 f0 	<unknown>
18000367a: ff ff 00 00 	<unknown>
18000367e: 00 00       	<unknown>

0000000180003680 <pow10.0>:
180003680: 00 00       	<unknown>
180003682: 00 00       	<unknown>
180003684: 00 00       	<unknown>
180003686: f0 3f       	<unknown>
180003688: 00 00       	<unknown>
18000368a: 00 00       	<unknown>
18000368c: 00 00       	<unknown>
18000368e: 24 40       	<unknown>
180003690: 00 00       	<unknown>
180003692: 00 00       	<unknown>
180003694: 00 00       	<unknown>
180003696: 59 40       	<unknown>
180003698: 00 00       	<unknown>
18000369a: 00 00       	<unknown>
18000369c: 00 40       	<unknown>
18000369e: 8f 40 00 00 	<unknown>
1800036a2: 00 00       	<unknown>
1800036a4: 00 88       	<unknown>
1800036a6: c3 40 00 00 	fmadd.s	ft1, ft0, ft0, ft0, rmm
1800036aa: 00 00       	<unknown>
1800036ac: 00 6a       	<unknown>
1800036ae: f8 40       	<unknown>
1800036b0: 00 00       	<unknown>
1800036b2: 00 00       	<unknown>
1800036b4: 80 84       	<unknown>
1800036b6: 2e 41       	<unknown>
1800036b8: 00 00       	<unknown>
1800036ba: 00 00       	<unknown>
1800036bc: d0 12       	<unknown>
1800036be: 63 41 00 00 	bltz	zero, 0x1800036c0 <pow10.0+0x40>
1800036c2: 00 00       	<unknown>
1800036c4: 84 d7       	<unknown>
1800036c6: 97 41 00 00 	auipc	gp, 0x4
1800036ca: 00 00       	<unknown>
1800036cc: 65 cd       	<unknown>
1800036ce: cd 41       	<unknown>

Disassembly of section .eh_frame:

00000001800036d0 <.eh_frame>:
1800036d0: 10 00       	<unknown>
1800036d2: 00 00       	<unknown>
1800036d4: 00 00       	<unknown>
1800036d6: 00 00       	<unknown>
1800036d8: 01 7a       	<unknown>
1800036da: 52 00       	<unknown>
1800036dc: 01 78       	<unknown>
1800036de: 01 01       	<unknown>
1800036e0: 1b 0c 02 00 	sext.w	s8, tp
1800036e4: 10 00       	<unknown>
1800036e6: 00 00       	<unknown>
1800036e8: 18 00       	<unknown>
1800036ea: 00 00       	<unknown>
1800036ec: a8 c9       	<unknown>
1800036ee: ff ff 08 00 	<unknown>
1800036f2: 00 00       	<unknown>
1800036f4: 00 00       	<unknown>
1800036f6: 00 00       	<unknown>
1800036f8: 10 00       	<unknown>
1800036fa: 00 00       	<unknown>
1800036fc: 2c 00       	<unknown>
1800036fe: 00 00       	<unknown>
180003700: 9c c9       	<unknown>
180003702: ff ff 4c 00 	<unknown>
180003706: 00 00       	<unknown>
180003708: 00 00       	<unknown>
18000370a: 00 00       	<unknown>
18000370c: 20 00       	<unknown>
18000370e: 00 00       	<unknown>
180003710: 40 00       	<unknown>
180003712: 00 00       	<unknown>
180003714: d4 c9       	<unknown>
180003716: ff ff 20 01 	<unknown>
18000371a: 00 00       	<unknown>
18000371c: 00 44       	<unknown>
18000371e: 0e 30       	<unknown>
180003720: 58 81       	<unknown>
180003722: 01 88       	<unknown>
180003724: 02 89       	<unknown>
180003726: 03 92 04 93 	lh	tp, -0x6d0(s1)
18000372a: 05 94       	<unknown>
18000372c: 06 00       	<unknown>
18000372e: 00 00       	<unknown>

Disassembly of section .tbss:

0000000180004730 <__tbss_start>:
...

Disassembly of section .got:

0000000180004730 <.got>:
180004730: ff ff ff ff 	<unknown>
180004734: ff ff ff ff 	<unknown>
		...

0000000180004740 <_GLOBAL_OFFSET_TABLE_>:
		...
180004748: 28 0c       	<unknown>
18000474a: 00 00       	<unknown>
18000474c: 00 00       	<unknown>
18000474e: 00 00       	<unknown>
180004750: 38 0c       	<unknown>
180004752: 00 00       	<unknown>
180004754: 00 00       	<unknown>
180004756: 00 00       	<unknown>
180004758: 30 47       	<unknown>
18000475a: 00 80       	<unknown>
18000475c: 01 00       	<unknown>
18000475e: 00 00       	<unknown>
180004760: 30 47       	<unknown>
180004762: 00 80       	<unknown>
180004764: 01 00       	<unknown>
180004766: 00 00       	<unknown>

Disassembly of section .sdata:

0000000180004768 <__SDATA_BEGIN__>:
180004768: 00 00       	<unknown>
18000476a: 00 00       	<unknown>
18000476c: 65 cd       	<unknown>
18000476e: cd 41       	<unknown>
180004770: 00 00       	<unknown>
180004772: 00 00       	<unknown>
180004774: 80 84       	<unknown>
180004776: 2e 41       	<unknown>
180004778: ff ff ff ff 	<unknown>
18000477c: ff ff ef ff 	<unknown>
180004780: ff ff ff ff 	<unknown>
180004784: ff ff ef 7f 	<unknown>
180004788: 00 00       	<unknown>
18000478a: 00 00       	<unknown>
18000478c: 65 cd       	<unknown>
18000478e: cd c1       	<unknown>
180004790: 00 00       	<unknown>
180004792: 00 00       	<unknown>
180004794: 00 00       	<unknown>
180004796: e0 3f       	<unknown>
180004798: fb 79 9f 50 	<unknown>
18000479c: 13 44 d3 3f 	xori	s0, t1, 0x3fd
1800047a0: b3 c8 60 8b 	<unknown>
1800047a4: 28 8a       	<unknown>
1800047a6: c6 3f       	<unknown>
1800047a8: 00 00       	<unknown>
1800047aa: 00 00       	<unknown>
1800047ac: 00 00       	<unknown>
1800047ae: f8 3f       	<unknown>
1800047b0: 61 43       	<unknown>
1800047b2: 6f 63 a7 87 	jal	t1, 0x17ff7a82c <__tbss_size+0x17ff79be4>
1800047b6: d2 3f       	<unknown>
1800047b8: 71 a3       	<unknown>
1800047ba: 79 09       	<unknown>
1800047bc: 4f 93 0a 40 	fnmadd.s	ft6, fs5, ft0, fs0, rtz
1800047c0: ef 39 fa fe 	jal	s3, 0x17ffa87ae <__tbss_size+0x17ffa7b66>
1800047c4: 42 2e       	<unknown>
1800047c6: e6 3f       	<unknown>
1800047c8: 16 55       	<unknown>
1800047ca: b5 bb       	<unknown>
1800047cc: b1 6b       	<unknown>
1800047ce: 02 40       	<unknown>
1800047d0: 00 00       	<unknown>
1800047d2: 00 00       	<unknown>
1800047d4: 00 00       	<unknown>
1800047d6: 2c 40       	<unknown>
1800047d8: 00 00       	<unknown>
1800047da: 00 00       	<unknown>
1800047dc: 00 00       	<unknown>
1800047de: 24 40       	<unknown>
1800047e0: 00 00       	<unknown>
1800047e2: 00 00       	<unknown>
1800047e4: 00 00       	<unknown>
1800047e6: 18 40       	<unknown>
1800047e8: 00 00       	<unknown>
1800047ea: 00 00       	<unknown>
1800047ec: 00 00       	<unknown>
1800047ee: 00 40       	<unknown>
1800047f0: 00 00       	<unknown>
1800047f2: 00 00       	<unknown>
1800047f4: 00 00       	<unknown>
1800047f6: f0 3f       	<unknown>
1800047f8: 2d 43       	<unknown>
1800047fa: 1c eb       	<unknown>
1800047fc: e2 36       	<unknown>
1800047fe: 1a 3f       	<unknown>

0000000180004800 <vx_barrier_dummy>:
180004800: 94 00       	<unknown>
180004802: 00 80       	<unknown>
180004804: 01 00       	<unknown>
180004806: 00 00       	<unknown>

0000000180004808 <callbacks>:
180004808: 9c 00       	<unknown>
18000480a: 00 80       	<unknown>
18000480c: 01 00       	<unknown>
18000480e: 00 00       	<unknown>

Disassembly of section .sbss:

0000000180004810 <grid_size_x>:
...

0000000180004814 <grid_size_y>:
...

0000000180004818 <grid_size_z>:
...

000000018000481c <block_size_x>:
...

0000000180004820 <block_size_y>:
...

0000000180004824 <block_size_z>:
...

0000000180004828 <block_size>:
...

000000018000482c <dyn_shared_mem_size>:
...

0000000180004830 <__warps_per_group>:
...

Disassembly of section .bss:

0000000180004838 <blockDim>:
...

0000000180004848 <gridDim>:
...

Disassembly of section .comment:

0000000000000000 <.comment>:
       0: 63 6c 61 6e  	bltu	sp, t1, 0x6f8 <.comment+0x6f8>
       4: 67 20 76 65  	<unknown>
       8: 72 73        	<unknown>
       a: 69 6f        	<unknown>
       c: 6e 20        	<unknown>
       e: 31 38        	<unknown>
      10: 2e 31        	<unknown>
      12: 2e 37        	<unknown>
      14: 20 28        	<unknown>
      16: 68 74        	<unknown>
      18: 74 70        	<unknown>
      1a: 73 3a 2f 2f  	csrrc	s4, 0x2f2, t5
      1e: 67 69 74 68  	<unknown>
      22: 75 62        	<unknown>
      24: 2e 63        	<unknown>
      26: 6f 6d 2f 76  	jal	s10, 0xf6788 <.comment+0xf6788>
      2a: 6f 72 74 65  	jal	tp, 0x47e80 <.comment+0x47e80>
      2e: 78 67        	<unknown>
      30: 70 67        	<unknown>
      32: 70 75        	<unknown>
      34: 2f 6c 6c 76  	<unknown>
      38: 6d 2e        	<unknown>
      3a: 67 69 74 20  	<unknown>
      3e: 61 35        	<unknown>
      40: 65 62        	<unknown>
      42: 66 37        	<unknown>
      44: 66 32        	<unknown>
      46: 63 31 66 32  	<unknown>
      4a: 34 36        	<unknown>
      4c: 61 35        	<unknown>
      4e: 65 33        	<unknown>
      50: 61 30        	<unknown>
      52: 38 31        	<unknown>
      54: 61 34        	<unknown>
      56: 66 64        	<unknown>
      58: 31 35        	<unknown>
      5a: 37 36 32 34  	lui	a2, 0x34323
      5e: 37 65 35 37  	lui	a0, 0x37356
      62: 34 62        	<unknown>
      64: 33 30 29 00  	sltu	zero, s2, sp
      68: 63 6c 61 6e  	bltu	sp, t1, 0x760 <.comment+0x760>
      6c: 67 20 76 65  	<unknown>
      70: 72 73        	<unknown>
      72: 69 6f        	<unknown>
      74: 6e 20        	<unknown>
      76: 33 2e 38 2e  	<unknown>
      7a: 30 20        	<unknown>
      7c: 28 74        	<unknown>
      7e: 61 67        	<unknown>
      80: 73 2f 52 45  	csrrs	t5, 0x455, tp
      84: 4c 45        	<unknown>
      86: 41 53        	<unknown>
      88: 45 5f        	<unknown>
      8a: 33 38 30 2f  	<unknown>
      8e: 66 69        	<unknown>
      90: 6e 61        	<unknown>
      92: 6c 29        	<unknown>
      94: 00 63        	<unknown>
      96: 6c 61        	<unknown>
      98: 6e 67        	<unknown>
      9a: 20 76        	<unknown>
      9c: 65 72        	<unknown>
      9e: 73 69 6f 6e  	csrrsi	s2, 0x6e6, 0x1e
      a2: 20 31        	<unknown>
      a4: 38 2e        	<unknown>
      a6: 31 2e        	<unknown>
      a8: 37 20 28 68  	lui	zero, 0x68282
      ac: 74 74        	<unknown>
      ae: 70 73        	<unknown>
      b0: 3a 2f        	<unknown>
      b2: 2f 67 69 74  	<unknown>
      b6: 68 75        	<unknown>
      b8: 62 2e        	<unknown>
      ba: 63 6f 6d 2f  	bltu	s10, s6, 0x3b8 <.comment+0x3b8>
      be: 76 6f        	<unknown>
      c0: 72 74        	<unknown>
      c2: 65 78        	<unknown>
      c4: 67 70 67 70  	<unknown>
      c8: 75 2f        	<unknown>
      ca: 6c 6c        	<unknown>
      cc: 76 6d        	<unknown>
      ce: 2e 67        	<unknown>
      d0: 69 74        	<unknown>
      d2: 20 35        	<unknown>
      d4: 32 31        	<unknown>
      d6: 32 62        	<unknown>
      d8: 31 30        	<unknown>
      da: 31 36        	<unknown>
      dc: 30 65        	<unknown>
      de: 36 33        	<unknown>
      e0: 63 39 61 39  	<unknown>
      e4: 38 38        	<unknown>
      e6: 33 63 33 66  	<unknown>
      ea: 62 38        	<unknown>
      ec: 62 30        	<unknown>
      ee: 38 64        	<unknown>
      f0: 30 31        	<unknown>
      f2: 35 62        	<unknown>
      f4: 36 36        	<unknown>
      f6: 37 64 64 61  	lui	s0, 0x61646
      fa: 62 29        	<unknown>
      fc: 00 47        	<unknown>
      fe: 43 43 3a 20  	fmadd.s	ft6, fs4, ft3, ft4, rmm
     102: 28 67        	<unknown>
     104: 32 65        	<unknown>
     106: 65 35        	<unknown>
     108: 65 34        	<unknown>
     10a: 33 30 30 31  	<unknown>
     10e: 38 2d        	<unknown>
     110: 64 69        	<unknown>
     112: 72 74        	<unknown>
     114: 79 29        	<unknown>
     116: 20 31        	<unknown>
     118: 32 2e        	<unknown>
     11a: 32 2e        	<unknown>
     11c: 30 00        	<unknown>
     11e: 63 6c 61 6e  	bltu	sp, t1, 0x816 <.comment+0x816>
     122: 67 20 76 65  	<unknown>
     126: 72 73        	<unknown>
     128: 69 6f        	<unknown>
     12a: 6e 20        	<unknown>
     12c: 31 38        	<unknown>
     12e: 2e 31        	<unknown>
     130: 2e 36        	<unknown>
     132: 20 28        	<unknown>
     134: 68 74        	<unknown>
     136: 74 70        	<unknown>
     138: 73 3a 2f 2f  	csrrc	s4, 0x2f2, t5
     13c: 67 69 74 68  	<unknown>
     140: 75 62        	<unknown>
     142: 2e 63        	<unknown>
     144: 6f 6d 2f 6c  	jal	s10, 0xf6806 <.comment+0xf6806>
     148: 6c 76        	<unknown>
     14a: 6d 2f        	<unknown>
     14c: 6c 6c        	<unknown>
     14e: 76 6d        	<unknown>
     150: 2d 70        	<unknown>
     152: 72 6f        	<unknown>
     154: 6a 65        	<unknown>
     156: 63 74 2e 67  	bgeu	t3, s2, 0x7be <.comment+0x7be>
     15a: 69 74        	<unknown>
     15c: 20 31        	<unknown>
     15e: 64 36        	<unknown>
     160: 31 62        	<unknown>
     162: 34 30        	<unknown>
     164: 34 34        	<unknown>
     166: 64 64        	<unknown>
     168: 64 64        	<unknown>
     16a: 61 36        	<unknown>
     16c: 35 65        	<unknown>
     16e: 39 38        	<unknown>
     170: 65 37        	<unknown>
     172: 39 32        	<unknown>
     174: 38 66        	<unknown>
     176: 64 33        	<unknown>
     178: 39 35        	<unknown>
     17a: 65 36        	<unknown>
     17c: 61 39        	<unknown>
     17e: 35 31        	<unknown>
     180: 63 35 61 38  	<unknown>
     184: 66 29        	<unknown>
     186: 00           	<unknown>

Disassembly of section .riscv.attributes:

0000000000000000 <.riscv.attributes>:
       0: 41 4f        	<unknown>
       2: 00 00        	<unknown>
       4: 00 72        	<unknown>
       6: 69 73        	<unknown>
       8: 63 76 00 01  	bgeu	zero, a6, 0x14 <.comment+0x14>
       c: 45 00        	<unknown>
       e: 00 00        	<unknown>
      10: 04 10        	<unknown>
      12: 05 72        	<unknown>
      14: 76 36        	<unknown>
      16: 34 69        	<unknown>
      18: 32 70        	<unknown>
      1a: 31 5f        	<unknown>
      1c: 6d 32        	<unknown>
      1e: 70 30        	<unknown>
      20: 5f 61 32 70  	<unknown>
      24: 31 5f        	<unknown>
      26: 66 32        	<unknown>
      28: 70 32        	<unknown>
      2a: 5f 64 32 70  	<unknown>
      2e: 32 5f        	<unknown>
      30: 7a 69        	<unknown>
      32: 63 6f 6e 64  	bltu	t3, t1, 0x690 <.comment+0x690>
      36: 31 70        	<unknown>
      38: 30 5f        	<unknown>
      3a: 7a 69        	<unknown>
      3c: 63 73 72 32  	bgeu	tp, t2, 0x362 <.comment+0x362>
      40: 70 30        	<unknown>
      42: 5f 7a 6d 6d  	<unknown>
      46: 75 6c        	<unknown>
      48: 31 70        	<unknown>
      4a: 30 00        	<unknown>
      4c: 08 01        	<unknown>
      4e: 0a 0b        	<unknown>

Disassembly of section .debug_info:

0000000000000000 <.debug_info>:
       0: 3f 29 00 00  	<unknown>
       4: 02 00        	<unknown>
       6: 00 00        	<unknown>
       8: 00 00        	<unknown>
       a: 08 01        	<unknown>
       c: 00 00        	<unknown>
       e: 00 00        	<unknown>
      10: 1a 00        	<unknown>
      12: 68 00        	<unknown>
      14: 00 00        	<unknown>
      16: 00 00        	<unknown>
      18: 00 00        	<unknown>
      1a: 73 00 00 00  	ecall
      1e: 02 03        	<unknown>
      20: 9b 00 00 00  	sext.w	ra, zero
      24: 41 00        	<unknown>
      26: 00 00        	<unknown>
      28: 01 68        	<unknown>
      2a: 03 c2 00 00  	lbu	tp, 0x0(ra)
      2e: 00 41        	<unknown>
      30: 00 00        	<unknown>
      32: 00 01        	<unknown>
      34: 69 03        	<unknown>
      36: d0 00        	<unknown>
      38: 00 00        	<unknown>
      3a: 41 00        	<unknown>
      3c: 00 00        	<unknown>
      3e: 01 6a        	<unknown>
      40: 00 04        	<unknown>
      42: 53 00 00 00  	fadd.s	ft0, ft0, ft0, rne
      46: 05 5a        	<unknown>
      48: 00 00        	<unknown>
      4a: 00 10        	<unknown>
      4c: 05 5a        	<unknown>
      4e: 00 00        	<unknown>
      50: 00 10        	<unknown>
      52: 00 06        	<unknown>
      54: a8 00        	<unknown>
      56: 00 00        	<unknown>
      58: 04 04        	<unknown>
      5a: 07 ae 00 00  	flw	ft8, 0x0(ra)
      5e: 00 08        	<unknown>
      60: 07 08 7d 0b  	<unknown>
      64: 00 00        	<unknown>
      66: 08 d7        	<unknown>
      68: 00 00        	<unknown>
      6a: 00 08        	<unknown>
      6c: de 00        	<unknown>
      6e: 00 00        	<unknown>
      70: 09 45        	<unknown>
      72: 01 00        	<unknown>
      74: 00 08        	<unknown>
      76: 02 58        	<unknown>
      78: 0a e5        	<unknown>
      7a: 00 00        	<unknown>
      7c: 00 23        	<unknown>
      7e: 0a eb        	<unknown>
      80: 00 00        	<unknown>
      82: 00 25        	<unknown>
      84: 0a f1        	<unknown>
      86: 00 00        	<unknown>
      88: 00 32        	<unknown>
      8a: 0a f7        	<unknown>
      8c: 00 00        	<unknown>
      8e: 00 34        	<unknown>
      90: 0a fd        	<unknown>
      92: 00 00        	<unknown>
      94: 00 35        	<unknown>
      96: 0a 03        	<unknown>
      98: 01 00        	<unknown>
      9a: 00 3c        	<unknown>
      9c: 0a 09        	<unknown>
      9e: 01 00        	<unknown>
      a0: 00 3d        	<unknown>
      a2: 0a 0f        	<unknown>
      a4: 01 00        	<unknown>
      a6: 00 3e        	<unknown>
      a8: 0a 15        	<unknown>
      aa: 01 00        	<unknown>
      ac: 00 46        	<unknown>
      ae: 0a 1b        	<unknown>
      b0: 01 00        	<unknown>
      b2: 00 48        	<unknown>
      b4: 0a 21        	<unknown>
      b6: 01 00        	<unknown>
      b8: 00 4b        	<unknown>
      ba: 0a 27        	<unknown>
      bc: 01 00        	<unknown>
      be: 00 50        	<unknown>
      c0: 0a 2d        	<unknown>
      c2: 01 00        	<unknown>
      c4: 00 56        	<unknown>
      c6: 0a 33        	<unknown>
      c8: 01 00        	<unknown>
      ca: 00 57        	<unknown>
      cc: 0a 39        	<unknown>
      ce: 01 00        	<unknown>
      d0: 00 59        	<unknown>
      d2: 0a 3f        	<unknown>
      d4: 01 00        	<unknown>
      d6: 00 5a        	<unknown>
      d8: 00 0b        	<unknown>
      da: 05 77        	<unknown>
      dc: 01 00        	<unknown>
      de: 00 08        	<unknown>
      e0: 02 51        	<unknown>
      e2: 0c 51        	<unknown>
      e4: 01 00        	<unknown>
      e6: 00 06        	<unknown>
      e8: 01 00        	<unknown>
      ea: 00 02        	<unknown>
      ec: 52 02        	<unknown>
      ee: 23 00 0d 77  	sb	a6, 0x760(s10)
      f2: 01 00        	<unknown>
      f4: 00 02        	<unknown>
      f6: 54 01        	<unknown>
      f8: 01 0e        	<unknown>
      fa: 65 01        	<unknown>
      fc: 00 00        	<unknown>
      fe: 01 0f        	<unknown>
     100: 06 01        	<unknown>
     102: 00 00        	<unknown>
     104: 00 00        	<unknown>
     106: 10 5e        	<unknown>
     108: 01 00        	<unknown>
     10a: 00 6c        	<unknown>
     10c: 01 00        	<unknown>
     10e: 00 02        	<unknown>
     110: 32 11        	<unknown>
     112: 0b 0f 00 00  	<unknown>
     116: 3f 0f 00 00  	<unknown>
     11a: 02 8e        	<unknown>
     11c: d9 00        	<unknown>
     11e: 00 00        	<unknown>
     120: 01 01        	<unknown>
     122: 0f 70 00 00  	<unknown>
     126: 00 00        	<unknown>
     128: 11 4a        	<unknown>
     12a: 0f 00 00 7b  	<unknown>
     12e: 0f 00 00 02  	fence	r, 0
     132: 93 d9 00 00  	srli	s3, ra, 0x0
     136: 00 01        	<unknown>
     138: 01 0f        	<unknown>
     13a: 70 00        	<unknown>
     13c: 00 00        	<unknown>
     13e: 00 00        	<unknown>
     140: 12 02        	<unknown>
     142: ab d9 00 00  	<unknown>
     146: 00 12        	<unknown>
     148: 02 ac        	<unknown>
     14a: 70 00        	<unknown>
     14c: 00 00        	<unknown>
     14e: 12 02        	<unknown>
     150: ca 11        	<unknown>
     152: 01 00        	<unknown>
     154: 00 12        	<unknown>
     156: 02 cb        	<unknown>
     158: 28 01        	<unknown>
     15a: 00 00        	<unknown>
     15c: 00 00        	<unknown>
     15e: 06 59        	<unknown>
     160: 01 00        	<unknown>
     162: 00 07        	<unknown>
     164: 08 13        	<unknown>
     166: d9 00        	<unknown>
     168: 00 00        	<unknown>
     16a: 14 05        	<unknown>
     16c: be 02        	<unknown>
     16e: 00 00        	<unknown>
     170: 0c 03        	<unknown>
     172: a2 01        	<unknown>
     174: 15 fe        	<unknown>
     176: 01 00        	<unknown>
     178: 00 f1        	<unknown>
     17a: 01 00        	<unknown>
     17c: 00 03        	<unknown>
     17e: a4 01        	<unknown>
     180: 02 23        	<unknown>
     182: 00 15        	<unknown>
     184: 44 02        	<unknown>
     186: 00 00        	<unknown>
     188: f1 01        	<unknown>
     18a: 00 00        	<unknown>
     18c: 03 a4 01 02  	lw	s0, 0x20(gp)
     190: 23 04 15 8a  	sb	ra, -0x758(a0)
     194: 02 00        	<unknown>
     196: 00 f1        	<unknown>
     198: 01 00        	<unknown>
     19a: 00 03        	<unknown>
     19c: a4 01        	<unknown>
     19e: 02 23        	<unknown>
     1a0: 08 16        	<unknown>
     1a2: be 02        	<unknown>
     1a4: 00 00        	<unknown>
     1a6: 03 a7 01 01  	lw	a4, 0x10(gp)
     1aa: 01 0e        	<unknown>
     1ac: f8 01        	<unknown>
     1ae: 00 00        	<unknown>
     1b0: 01 0f        	<unknown>
     1b2: f1 01        	<unknown>
     1b4: 00 00        	<unknown>
     1b6: 0f f1 01 00  	<unknown>
     1ba: 00 0f        	<unknown>
     1bc: f1 01        	<unknown>
     1be: 00 00        	<unknown>
     1c0: 00 16        	<unknown>
     1c2: be 02        	<unknown>
     1c4: 00 00        	<unknown>
     1c6: 03 a8 01 01  	lw	a6, 0x10(gp)
     1ca: 01 0e        	<unknown>
     1cc: f8 01        	<unknown>
     1ce: 00 00        	<unknown>
     1d0: 01 0f        	<unknown>
     1d2: fd 01        	<unknown>
     1d4: 00 00        	<unknown>
     1d6: 00 17        	<unknown>
     1d8: 97 01 00 00  	auipc	gp, 0x0
     1dc: ab 01 00 00  	vx_tex	gp, zero, zero, zero
     1e0: 03 a9 01 fd  	lw	s2, -0x30(gp)
     1e4: 01 00        	<unknown>
     1e6: 00 01        	<unknown>
     1e8: 01 0e        	<unknown>
     1ea: 3d 02        	<unknown>
     1ec: 00 00        	<unknown>
     1ee: 01 00        	<unknown>
     1f0: 00 06        	<unknown>
     1f2: 8a 01        	<unknown>
     1f4: 00 00        	<unknown>
     1f6: 07 04 13 6a  	<unknown>
     1fa: 01 00        	<unknown>
     1fc: 00 18        	<unknown>
     1fe: 09 02        	<unknown>
     200: 00 00        	<unknown>
     202: b4 01        	<unknown>
     204: 00 00        	<unknown>
     206: 03 80 01 0b  	lb	zero, 0xb0(gp)
     20a: 05 b4        	<unknown>
     20c: 01 00        	<unknown>
     20e: 00 0c        	<unknown>
     210: 03 c0 0c fe  	lbu	zero, -0x20(s9)
     214: 01 00        	<unknown>
     216: 00 f1        	<unknown>
     218: 01 00        	<unknown>
     21a: 00 03        	<unknown>
     21c: c2 02        	<unknown>
     21e: 23 00 0c 44  	sb	zero, 0x440(s8)
     222: 02 00        	<unknown>
     224: 00 f1        	<unknown>
     226: 01 00        	<unknown>
     228: 00 03        	<unknown>
     22a: c2 02        	<unknown>
     22c: 23 04 0c 8a  	sb	zero, -0x758(s8)
     230: 02 00        	<unknown>
     232: 00 f1        	<unknown>
     234: 01 00        	<unknown>
     236: 00 03        	<unknown>
     238: c2 02        	<unknown>
     23a: 23 08 00 13  	sb	a6, 0x130(zero)
     23e: 42 02        	<unknown>
     240: 00 00        	<unknown>
     242: 19 6a        	<unknown>
     244: 01 00        	<unknown>
     246: 00 0b        	<unknown>
     248: 04 ed        	<unknown>
     24a: 02 00        	<unknown>
     24c: 00 01        	<unknown>
     24e: 04 41        	<unknown>
     250: 1a ba        	<unknown>
     252: 01 00        	<unknown>
     254: 00 ee        	<unknown>
     256: 01 00        	<unknown>
     258: 00 04        	<unknown>
     25a: 42 f1        	<unknown>
     25c: 01 00        	<unknown>
     25e: 00 01        	<unknown>
     260: 01 1a        	<unknown>
     262: 00 02        	<unknown>
     264: 00 00        	<unknown>
     266: 34 02        	<unknown>
     268: 00 00        	<unknown>
     26a: 04 43        	<unknown>
     26c: f1 01        	<unknown>
     26e: 00 00        	<unknown>
     270: 01 01        	<unknown>
     272: 1a 46        	<unknown>
     274: 02 00        	<unknown>
     276: 00 7a        	<unknown>
     278: 02 00        	<unknown>
     27a: 00 04        	<unknown>
     27c: 44 f1        	<unknown>
     27e: 01 00        	<unknown>
     280: 00 01        	<unknown>
     282: 01 11        	<unknown>
     284: 8c 02        	<unknown>
     286: 00 00        	<unknown>
     288: b5 02        	<unknown>
     28a: 00 00        	<unknown>
     28c: 04 47        	<unknown>
     28e: 6a 01        	<unknown>
     290: 00 00        	<unknown>
     292: 01 01        	<unknown>
     294: 0e 0e        	<unknown>
     296: 03 00 00 01  	lb	zero, 0x10(zero)
     29a: 00 11        	<unknown>
     29c: c3 02 00 00  	fmadd.s	ft5, ft0, ft0, ft0, rne
     2a0: ab 01 00 00  	vx_tex	gp, zero, zero, zero
     2a4: 04 48        	<unknown>
     2a6: 09 02        	<unknown>
     2a8: 00 00        	<unknown>
     2aa: 01 01        	<unknown>
     2ac: 0e 0e        	<unknown>
     2ae: 03 00 00 01  	lb	zero, 0x10(zero)
     2b2: 00 1b        	<unknown>
     2b4: ed 02        	<unknown>
     2b6: 00 00        	<unknown>
     2b8: 04 4b        	<unknown>
     2ba: 01 01        	<unknown>
     2bc: 03 0e 18 03  	lb	t3, 0x31(a6)
     2c0: 00 00        	<unknown>
     2c2: 01 00        	<unknown>
     2c4: 1b ed 02 00  	<unknown>
     2c8: 00 04        	<unknown>
     2ca: 4b 01 01 03  	fnmsub.d	ft2, ft2, fa6, ft0, rne
     2ce: 0e 18        	<unknown>
     2d0: 03 00 00 01  	lb	zero, 0x10(zero)
     2d4: 0f 1d 03 00  	<unknown>
     2d8: 00 00        	<unknown>
     2da: 1c 07        	<unknown>
     2dc: 03 00 00 2e  	lb	zero, 0x2e0(zero)
     2e0: 03 00 00 04  	lb	zero, 0x40(zero)
     2e4: 4b 01 01 03  	fnmsub.d	ft2, ft2, fa6, ft0, rne
     2e8: 0e 0e        	<unknown>
     2ea: 03 00 00 01  	lb	zero, 0x10(zero)
     2ee: 0f 1d 03 00  	<unknown>
     2f2: 00 00        	<unknown>
     2f4: 1d 38        	<unknown>
     2f6: 03 00 00 5c  	lb	zero, 0x5c0(zero)
     2fa: 03 00 00 04  	lb	zero, 0x40(zero)
     2fe: 4b 22 03 00  	fnmsub.s	ft4, ft6, ft0, ft0, rdn
     302: 00 01        	<unknown>
     304: 01 03        	<unknown>
     306: 0e 0e        	<unknown>
     308: 03 00 00 01  	lb	zero, 0x10(zero)
     30c: 00 00        	<unknown>
     30e: 13 13 03 00  	slli	t1, t1, 0x0
     312: 00 19        	<unknown>
     314: 47 02 00 00  	fmsub.s	ft4, ft0, ft0, ft0, rne
     318: 13 47 02 00  	xori	a4, tp, 0x0
     31c: 00 1e        	<unknown>
     31e: 13 03 00 00  	li	t1, 0x0
     322: 13 47 02 00  	xori	a4, tp, 0x0
     326: 00 0b        	<unknown>
     328: 04 5a        	<unknown>
     32a: 04 00        	<unknown>
     32c: 00 01        	<unknown>
     32e: 04 34        	<unknown>
     330: 1a 66        	<unknown>
     332: 03 00 00 ee  	lb	zero, -0x120(zero)
     336: 01 00        	<unknown>
     338: 00 04        	<unknown>
     33a: 35 f1        	<unknown>
     33c: 01 00        	<unknown>
     33e: 00 01        	<unknown>
     340: 01 1a        	<unknown>
     342: 9b 03 00 00  	sext.w	t2, zero
     346: 34 02        	<unknown>
     348: 00 00        	<unknown>
     34a: 04 36        	<unknown>
     34c: f1 01        	<unknown>
     34e: 00 00        	<unknown>
     350: 01 01        	<unknown>
     352: 1a d0        	<unknown>
     354: 03 00 00 7a  	lb	zero, 0x7a0(zero)
     358: 02 00        	<unknown>
     35a: 00 04        	<unknown>
     35c: 37 f1 01 00  	lui	sp, 0x1f
     360: 00 01        	<unknown>
     362: 01 11        	<unknown>
     364: 05 04        	<unknown>
     366: 00 00        	<unknown>
     368: b5 02        	<unknown>
     36a: 00 00        	<unknown>
     36c: 04 3a        	<unknown>
     36e: 6a 01        	<unknown>
     370: 00 00        	<unknown>
     372: 01 01        	<unknown>
     374: 0e ee        	<unknown>
     376: 03 00 00 01  	lb	zero, 0x10(zero)
     37a: 00 11        	<unknown>
     37c: 2f 04 00 00  	<unknown>
     380: ab 01 00 00  	vx_tex	gp, zero, zero, zero
     384: 04 3b        	<unknown>
     386: 09 02        	<unknown>
     388: 00 00        	<unknown>
     38a: 01 01        	<unknown>
     38c: 0e ee        	<unknown>
     38e: 03 00 00 01  	lb	zero, 0x10(zero)
     392: 00 1b        	<unknown>
     394: 5a 04        	<unknown>
     396: 00 00        	<unknown>
     398: 04 3e        	<unknown>
     39a: 01 01        	<unknown>
     39c: 03 0e f8 03  	lb	t3, 0x3f(a6)
     3a0: 00 00        	<unknown>
     3a2: 01 00        	<unknown>
     3a4: 1b 5a 04 00  	srliw	s4, s0, 0x0
     3a8: 00 04        	<unknown>
     3aa: 3e 01        	<unknown>
     3ac: 01 03        	<unknown>
     3ae: 0e f8        	<unknown>
     3b0: 03 00 00 01  	lb	zero, 0x10(zero)
     3b4: 0f fd 03 00  	<unknown>
     3b8: 00 00        	<unknown>
     3ba: 1c 75        	<unknown>
     3bc: 04 00        	<unknown>
     3be: 00 2e        	<unknown>
     3c0: 03 00 00 04  	lb	zero, 0x40(zero)
     3c4: 3e 01        	<unknown>
     3c6: 01 03        	<unknown>
     3c8: 0e ee        	<unknown>
     3ca: 03 00 00 01  	lb	zero, 0x10(zero)
     3ce: 0f fd 03 00  	<unknown>
     3d2: 00 00        	<unknown>
     3d4: 1d 9d        	<unknown>
     3d6: 04 00        	<unknown>
     3d8: 00 5c        	<unknown>
     3da: 03 00 00 04  	lb	zero, 0x40(zero)
     3de: 3e 02        	<unknown>
     3e0: 04 00        	<unknown>
     3e2: 00 01        	<unknown>
     3e4: 01 03        	<unknown>
     3e6: 0e ee        	<unknown>
     3e8: 03 00 00 01  	lb	zero, 0x10(zero)
     3ec: 00 00        	<unknown>
     3ee: 13 f3 03 00  	andi	t1, t2, 0x0
     3f2: 00 19        	<unknown>
     3f4: 27 03 00 00  	<unknown>
     3f8: 13 27 03 00  	slti	a4, t1, 0x0
     3fc: 00 1e        	<unknown>
     3fe: f3 03 00 00  	<unknown>
     402: 13 27 03 00  	slti	a4, t1, 0x0
     406: 00 08        	<unknown>
     408: c2 04        	<unknown>
     40a: 00 00        	<unknown>
     40c: 12 05        	<unknown>
     40e: c8 09        	<unknown>
     410: 0d 00        	<unknown>
     412: 00 12        	<unknown>
     414: 05 c9        	<unknown>
     416: 26 0d        	<unknown>
     418: 00 00        	<unknown>
     41a: 12 05        	<unknown>
     41c: ca 3c        	<unknown>
     41e: 0d 00        	<unknown>
     420: 00 12        	<unknown>
     422: 05 cb        	<unknown>
     424: 52 0d        	<unknown>
     426: 00 00        	<unknown>
     428: 12 05        	<unknown>
     42a: cc 68        	<unknown>
     42c: 0d 00        	<unknown>
     42e: 00 12        	<unknown>
     430: 05 cd        	<unknown>
     432: 7e 0d        	<unknown>
     434: 00 00        	<unknown>
     436: 12 05        	<unknown>
     438: ce 94        	<unknown>
     43a: 0d 00        	<unknown>
     43c: 00 12        	<unknown>
     43e: 05 cf        	<unknown>
     440: af 0d 00 00  	<unknown>
     444: 12 05        	<unknown>
     446: d0 c5        	<unknown>
     448: 0d 00        	<unknown>
     44a: 00 12        	<unknown>
     44c: 05 d1        	<unknown>
     44e: db 0d 00 00  	<unknown>
     452: 12 05        	<unknown>
     454: d2 f1        	<unknown>
     456: 0d 00        	<unknown>
     458: 00 12        	<unknown>
     45a: 05 d3        	<unknown>
     45c: 0c 0e        	<unknown>
     45e: 00 00        	<unknown>
     460: 12 05        	<unknown>
     462: d4 22        	<unknown>
     464: 0e 00        	<unknown>
     466: 00 12        	<unknown>
     468: 05 d5        	<unknown>
     46a: 38 0e        	<unknown>
     46c: 00 00        	<unknown>
     46e: 12 05        	<unknown>
     470: d6 4e        	<unknown>
     472: 0e 00        	<unknown>
     474: 00 12        	<unknown>
     476: 05 d7        	<unknown>
     478: 64 0e        	<unknown>
     47a: 00 00        	<unknown>
     47c: 12 05        	<unknown>
     47e: d8 7a        	<unknown>
     480: 0e 00        	<unknown>
     482: 00 12        	<unknown>
     484: 05 d9        	<unknown>
     486: 90 0e        	<unknown>
     488: 00 00        	<unknown>
     48a: 12 05        	<unknown>
     48c: da a6        	<unknown>
     48e: 0e 00        	<unknown>
     490: 00 12        	<unknown>
     492: 05 db        	<unknown>
     494: bc 0e        	<unknown>
     496: 00 00        	<unknown>
     498: 12 05        	<unknown>
     49a: dc d7        	<unknown>
     49c: 0e 00        	<unknown>
     49e: 00 12        	<unknown>
     4a0: 05 dd        	<unknown>
     4a2: ed 0e        	<unknown>
     4a4: 00 00        	<unknown>
     4a6: 12 05        	<unknown>
     4a8: de 0d        	<unknown>
     4aa: 0f 00 00 12  	<unknown>
     4ae: 05 df        	<unknown>
     4b0: 28 0f        	<unknown>
     4b2: 00 00        	<unknown>
     4b4: 12 05        	<unknown>
     4b6: e0 43        	<unknown>
     4b8: 0f 00 00 12  	<unknown>
     4bc: 05 e1        	<unknown>
     4be: 5e 0f        	<unknown>
     4c0: 00 00        	<unknown>
     4c2: 12 05        	<unknown>
     4c4: e2 74        	<unknown>
     4c6: 0f 00 00 12  	<unknown>
     4ca: 05 e3        	<unknown>
     4cc: 94 0f        	<unknown>
     4ce: 00 00        	<unknown>
     4d0: 12 05        	<unknown>
     4d2: e4 af        	<unknown>
     4d4: 0f 00 00 12  	<unknown>
     4d8: 05 e5        	<unknown>
     4da: c5 0f        	<unknown>
     4dc: 00 00        	<unknown>
     4de: 12 05        	<unknown>
     4e0: e6 e2        	<unknown>
     4e2: 0f 00 00 12  	<unknown>
     4e6: 05 e7        	<unknown>
     4e8: fd 0f        	<unknown>
     4ea: 00 00        	<unknown>
     4ec: 12 05        	<unknown>
     4ee: e8 18        	<unknown>
     4f0: 10 00        	<unknown>
     4f2: 00 12        	<unknown>
     4f4: 05 e9        	<unknown>
     4f6: 2e 10        	<unknown>
     4f8: 00 00        	<unknown>
     4fa: 12 05        	<unknown>
     4fc: ea 49        	<unknown>
     4fe: 10 00        	<unknown>
     500: 00 12        	<unknown>
     502: 05 eb        	<unknown>
     504: 64 10        	<unknown>
     506: 00 00        	<unknown>
     508: 12 05        	<unknown>
     50a: ec 7f        	<unknown>
     50c: 10 00        	<unknown>
     50e: 00 12        	<unknown>
     510: 05 ed        	<unknown>
     512: 95 10        	<unknown>
     514: 00 00        	<unknown>
     516: 12 05        	<unknown>
     518: ee ab        	<unknown>
     51a: 10 00        	<unknown>
     51c: 00 12        	<unknown>
     51e: 05 ef        	<unknown>
     520: c6 10        	<unknown>
     522: 00 00        	<unknown>
     524: 12 05        	<unknown>
     526: f0 e3        	<unknown>
     528: 10 00        	<unknown>
     52a: 00 12        	<unknown>
     52c: 05 f1        	<unknown>
     52e: fe 10        	<unknown>
     530: 00 00        	<unknown>
     532: 12 05        	<unknown>
     534: f2 14        	<unknown>
     536: 11 00        	<unknown>
     538: 00 12        	<unknown>
     53a: 05 f3        	<unknown>
     53c: 31 11        	<unknown>
     53e: 00 00        	<unknown>
     540: 12 05        	<unknown>
     542: f4 47        	<unknown>
     544: 11 00        	<unknown>
     546: 00 12        	<unknown>
     548: 05 f5        	<unknown>
     54a: 5d 11        	<unknown>
     54c: 00 00        	<unknown>
     54e: 12 05        	<unknown>
     550: f6 73        	<unknown>
     552: 11 00        	<unknown>
     554: 00 12        	<unknown>
     556: 05 f7        	<unknown>
     558: 89 11        	<unknown>
     55a: 00 00        	<unknown>
     55c: 12 05        	<unknown>
     55e: f8 9f        	<unknown>
     560: 11 00        	<unknown>
     562: 00 12        	<unknown>
     564: 05 f9        	<unknown>
     566: b5 11        	<unknown>
     568: 00 00        	<unknown>
     56a: 12 05        	<unknown>
     56c: fa cb        	<unknown>
     56e: 11 00        	<unknown>
     570: 00 12        	<unknown>
     572: 05 fb        	<unknown>
     574: e1 11        	<unknown>
     576: 00 00        	<unknown>
     578: 12 05        	<unknown>
     57a: fc f7        	<unknown>
     57c: 11 00        	<unknown>
     57e: 00 12        	<unknown>
     580: 05 fd        	<unknown>
     582: 17 12 00 00  	auipc	tp, 0x1
     586: 12 05        	<unknown>
     588: fe 45        	<unknown>
     58a: 12 00        	<unknown>
     58c: 00 12        	<unknown>
     58e: 05 ff        	<unknown>
     590: 5b 12 00 00  	<unknown>
     594: 1f 05 00 01  	<unknown>
     598: 71 12        	<unknown>
     59a: 00 00        	<unknown>
     59c: 1f 05 01 01  	<unknown>
     5a0: 8c 12        	<unknown>
     5a2: 00 00        	<unknown>
     5a4: 1f 05 02 01  	<unknown>
     5a8: a7 12 00 00  	<unknown>
     5ac: 1f 05 03 01  	<unknown>
     5b0: c2 12        	<unknown>
     5b2: 00 00        	<unknown>
     5b4: 1f 05 04 01  	<unknown>
     5b8: e2 12        	<unknown>
     5ba: 00 00        	<unknown>
     5bc: 1f 05 05 01  	<unknown>
     5c0: f8 12        	<unknown>
     5c2: 00 00        	<unknown>
     5c4: 1f 05 06 01  	<unknown>
     5c8: 0e 13        	<unknown>
     5ca: 00 00        	<unknown>
     5cc: 1f 05 07 01  	<unknown>
     5d0: 29 13        	<unknown>
     5d2: 00 00        	<unknown>
     5d4: 1f 05 08 01  	<unknown>
     5d8: 44 13        	<unknown>
     5da: 00 00        	<unknown>
     5dc: 1f 05 09 01  	<unknown>
     5e0: 5a 13        	<unknown>
     5e2: 00 00        	<unknown>
     5e4: 1f 05 0a 01  	<unknown>
     5e8: 70 13        	<unknown>
     5ea: 00 00        	<unknown>
     5ec: 1f 05 0b 01  	<unknown>
     5f0: 86 13        	<unknown>
     5f2: 00 00        	<unknown>
     5f4: 1f 05 0c 01  	<unknown>
     5f8: 9c 13        	<unknown>
     5fa: 00 00        	<unknown>
     5fc: 1f 05 0d 01  	<unknown>
     600: b2 13        	<unknown>
     602: 00 00        	<unknown>
     604: 1f 05 0e 01  	<unknown>
     608: c8 13        	<unknown>
     60a: 00 00        	<unknown>
     60c: 1f 05 0f 01  	<unknown>
     610: de 13        	<unknown>
     612: 00 00        	<unknown>
     614: 12 07        	<unknown>
     616: 34 f4        	<unknown>
     618: 13 00 00 12  	li	zero, 0x120
     61c: 09 55        	<unknown>
     61e: 08 14        	<unknown>
     620: 00 00        	<unknown>
     622: 12 09        	<unknown>
     624: 68 1b        	<unknown>
     626: 14 00        	<unknown>
     628: 00 12        	<unknown>
     62a: 09 7b        	<unknown>
     62c: 2e 14        	<unknown>
     62e: 00 00        	<unknown>
     630: 12 09        	<unknown>
     632: 8e 41        	<unknown>
     634: 14 00        	<unknown>
     636: 00 12        	<unknown>
     638: 09 9a        	<unknown>
     63a: 59 14        	<unknown>
     63c: 00 00        	<unknown>
     63e: 12 09        	<unknown>
     640: ad 6c        	<unknown>
     642: 14 00        	<unknown>
     644: 00 12        	<unknown>
     646: 09 c0        	<unknown>
     648: 7f 14 00 00  	<unknown>
     64c: 12 09        	<unknown>
     64e: d3 92 14 00  	fadd.s	ft5, fs1, ft1, rtz
     652: 00 12        	<unknown>
     654: 09 e6        	<unknown>
     656: a5 14        	<unknown>
     658: 00 00        	<unknown>
     65a: 12 09        	<unknown>
     65c: f9 b8        	<unknown>
     65e: 14 00        	<unknown>
     660: 00 1f        	<unknown>
     662: 09 0c        	<unknown>
     664: 01 cb        	<unknown>
     666: 14 00        	<unknown>
     668: 00 1f        	<unknown>
     66a: 09 18        	<unknown>
     66c: 01 e3        	<unknown>
     66e: 14 00        	<unknown>
     670: 00 1f        	<unknown>
     672: 09 2b        	<unknown>
     674: 01 fb        	<unknown>
     676: 14 00        	<unknown>
     678: 00 1f        	<unknown>
     67a: 09 3e        	<unknown>
     67c: 01 13        	<unknown>
     67e: 15 00        	<unknown>
     680: 00 1f        	<unknown>
     682: 09 51        	<unknown>
     684: 01 26        	<unknown>
     686: 15 00        	<unknown>
     688: 00 1f        	<unknown>
     68a: 09 64        	<unknown>
     68c: 01 39        	<unknown>
     68e: 15 00        	<unknown>
     690: 00 1f        	<unknown>
     692: 09 70        	<unknown>
     694: 01 56        	<unknown>
     696: 15 00        	<unknown>
     698: 00 1f        	<unknown>
     69a: 09 8c        	<unknown>
     69c: 01 6e        	<unknown>
     69e: 15 00        	<unknown>
     6a0: 00 1f        	<unknown>
     6a2: 09 9f        	<unknown>
     6a4: 01 81        	<unknown>
     6a6: 15 00        	<unknown>
     6a8: 00 1f        	<unknown>
     6aa: 09 b2        	<unknown>
     6ac: 01 94        	<unknown>
     6ae: 15 00        	<unknown>
     6b0: 00 1f        	<unknown>
     6b2: 09 c5        	<unknown>
     6b4: 01 a7        	<unknown>
     6b6: 15 00        	<unknown>
     6b8: 00 1f        	<unknown>
     6ba: 09 d8        	<unknown>
     6bc: 01 ba        	<unknown>
     6be: 15 00        	<unknown>
     6c0: 00 1f        	<unknown>
     6c2: 09 59        	<unknown>
     6c4: 07 cd 15 00  	<unknown>
     6c8: 00 1f        	<unknown>
     6ca: 09 5a        	<unknown>
     6cc: 07 d8 15 00  	<unknown>
     6d0: 00 1f        	<unknown>
     6d2: 09 5d        	<unknown>
     6d4: 07 e3 15 00  	<unknown>
     6d8: 00 1f        	<unknown>
     6da: 09 5e        	<unknown>
     6dc: 07 f6 15 00  	<unknown>
     6e0: 00 1f        	<unknown>
     6e2: 09 5f        	<unknown>
     6e4: 07 09 16 00  	<unknown>
     6e8: 00 1f        	<unknown>
     6ea: 09 61        	<unknown>
     6ec: 07 23 16 00  	flw	ft6, 0x1(a2)
     6f0: 00 1f        	<unknown>
     6f2: 09 62        	<unknown>
     6f4: 07 36 16 00  	fld	fa2, 0x1(a2)
     6f8: 00 1f        	<unknown>
     6fa: 09 63        	<unknown>
     6fc: 07 49 16 00  	<unknown>
     700: 00 1f        	<unknown>
     702: 09 65        	<unknown>
     704: 07 5c 16 00  	<unknown>
     708: 00 1f        	<unknown>
     70a: 09 66        	<unknown>
     70c: 07 6f 16 00  	<unknown>
     710: 00 1f        	<unknown>
     712: 09 67        	<unknown>
     714: 07 82 16 00  	<unknown>
     718: 00 1f        	<unknown>
     71a: 09 69        	<unknown>
     71c: 07 95 16 00  	<unknown>
     720: 00 1f        	<unknown>
     722: 09 6a        	<unknown>
     724: 07 a8 16 00  	flw	fa6, 0x1(a3)
     728: 00 1f        	<unknown>
     72a: 09 6b        	<unknown>
     72c: 07 bb 16 00  	fld	fs6, 0x1(a3)
     730: 00 1f        	<unknown>
     732: 09 6d        	<unknown>
     734: 07 ce 16 00  	<unknown>
     738: 00 1f        	<unknown>
     73a: 09 6e        	<unknown>
     73c: 07 e6 16 00  	<unknown>
     740: 00 1f        	<unknown>
     742: 09 6f        	<unknown>
     744: 07 fe 16 00  	<unknown>
     748: 00 1f        	<unknown>
     74a: 09 71        	<unknown>
     74c: 07 16 17 00  	<unknown>
     750: 00 1f        	<unknown>
     752: 09 72        	<unknown>
     754: 07 29 17 00  	flw	fs2, 0x1(a4)
     758: 00 1f        	<unknown>
     75a: 09 73        	<unknown>
     75c: 07 3c 17 00  	fld	fs8, 0x1(a4)
     760: 00 1f        	<unknown>
     762: 09 75        	<unknown>
     764: 07 4f 17 00  	<unknown>
     768: 00 1f        	<unknown>
     76a: 09 76        	<unknown>
     76c: 07 62 17 00  	<unknown>
     770: 00 1f        	<unknown>
     772: 09 77        	<unknown>
     774: 07 75 17 00  	<unknown>
     778: 00 1f        	<unknown>
     77a: 09 79        	<unknown>
     77c: 07 88 17 00  	<unknown>
     780: 00 1f        	<unknown>
     782: 09 7a        	<unknown>
     784: 07 9b 17 00  	<unknown>
     788: 00 1f        	<unknown>
     78a: 09 7b        	<unknown>
     78c: 07 ae 17 00  	flw	ft8, 0x1(a5)
     790: 00 1f        	<unknown>
     792: 09 7d        	<unknown>
     794: 07 c1 17 00  	<unknown>
     798: 00 1f        	<unknown>
     79a: 09 7e        	<unknown>
     79c: 07 d4 17 00  	<unknown>
     7a0: 00 1f        	<unknown>
     7a2: 09 7f        	<unknown>
     7a4: 07 e7 17 00  	<unknown>
     7a8: 00 1f        	<unknown>
     7aa: 09 81        	<unknown>
     7ac: 07 fa 17 00  	<unknown>
     7b0: 00 1f        	<unknown>
     7b2: 09 82        	<unknown>
     7b4: 07 13 18 00  	<unknown>
     7b8: 00 1f        	<unknown>
     7ba: 09 83        	<unknown>
     7bc: 07 2c 18 00  	flw	fs8, 0x1(a6)
     7c0: 00 1f        	<unknown>
     7c2: 09 85        	<unknown>
     7c4: 07 45 18 00  	<unknown>
     7c8: 00 1f        	<unknown>
     7ca: 09 86        	<unknown>
     7cc: 07 63 18 00  	<unknown>
     7d0: 00 1f        	<unknown>
     7d2: 09 87        	<unknown>
     7d4: 07 81 18 00  	<unknown>
     7d8: 00 1f        	<unknown>
     7da: 09 89        	<unknown>
     7dc: 07 9f 18 00  	<unknown>
     7e0: 00 1f        	<unknown>
     7e2: 09 8a        	<unknown>
     7e4: 07 b8 18 00  	fld	fa6, 0x1(a7)
     7e8: 00 1f        	<unknown>
     7ea: 09 8b        	<unknown>
     7ec: 07 d1 18 00  	<unknown>
     7f0: 00 1f        	<unknown>
     7f2: 09 8d        	<unknown>
     7f4: 07 ea 18 00  	<unknown>
     7f8: 00 1f        	<unknown>
     7fa: 09 8e        	<unknown>
     7fc: 07 03 19 00  	<unknown>
     800: 00 1f        	<unknown>
     802: 09 8f        	<unknown>
     804: 07 1c 19 00  	<unknown>
     808: 00 1f        	<unknown>
     80a: 09 91        	<unknown>
     80c: 07 35 19 00  	fld	fa0, 0x1(s2)
     810: 00 1f        	<unknown>
     812: 09 92        	<unknown>
     814: 07 4d 19 00  	<unknown>
     818: 00 1f        	<unknown>
     81a: 09 93        	<unknown>
     81c: 07 65 19 00  	<unknown>
     820: 00 1f        	<unknown>
     822: 09 95        	<unknown>
     824: 07 7d 19 00  	<unknown>
     828: 00 1f        	<unknown>
     82a: 09 96        	<unknown>
     82c: 07 91 19 00  	<unknown>
     830: 00 1f        	<unknown>
     832: 09 97        	<unknown>
     834: 07 a5 19 00  	flw	fa0, 0x1(s3)
     838: 00 1f        	<unknown>
     83a: 09 99        	<unknown>
     83c: 07 b9 19 00  	fld	fs2, 0x1(s3)
     840: 00 1f        	<unknown>
     842: 09 9a        	<unknown>
     844: 07 cc 19 00  	<unknown>
     848: 00 1f        	<unknown>
     84a: 09 9b        	<unknown>
     84c: 07 df 19 00  	<unknown>
     850: 00 1f        	<unknown>
     852: 09 9e        	<unknown>
     854: 07 f2 19 00  	<unknown>
     858: 00 1f        	<unknown>
     85a: 09 9f        	<unknown>
     85c: 07 06 1a 00  	<unknown>
     860: 00 1f        	<unknown>
     862: 09 a0        	<unknown>
     864: 07 1a 1a 00  	<unknown>
     868: 00 1f        	<unknown>
     86a: 09 a2        	<unknown>
     86c: 07 2e 1a 00  	flw	ft8, 0x1(s4)
     870: 00 1f        	<unknown>
     872: 09 a3        	<unknown>
     874: 07 42 1a 00  	<unknown>
     878: 00 1f        	<unknown>
     87a: 09 a4        	<unknown>
     87c: 07 56 1a 00  	<unknown>
     880: 00 1f        	<unknown>
     882: 09 a7        	<unknown>
     884: 07 6a 1a 00  	<unknown>
     888: 00 1f        	<unknown>
     88a: 09 a8        	<unknown>
     88c: 07 7d 1a 00  	<unknown>
     890: 00 1f        	<unknown>
     892: 09 a9        	<unknown>
     894: 07 90 1a 00  	<unknown>
     898: 00 1f        	<unknown>
     89a: 09 ab        	<unknown>
     89c: 07 a3 1a 00  	flw	ft6, 0x1(s5)
     8a0: 00 1f        	<unknown>
     8a2: 09 ac        	<unknown>
     8a4: 07 b6 1a 00  	fld	fa2, 0x1(s5)
     8a8: 00 1f        	<unknown>
     8aa: 09 ad        	<unknown>
     8ac: 07 c9 1a 00  	<unknown>
     8b0: 00 1f        	<unknown>
     8b2: 09 af        	<unknown>
     8b4: 07 dc 1a 00  	<unknown>
     8b8: 00 1f        	<unknown>
     8ba: 09 b0        	<unknown>
     8bc: 07 ef 1a 00  	<unknown>
     8c0: 00 1f        	<unknown>
     8c2: 09 b1        	<unknown>
     8c4: 07 02 1b 00  	<unknown>
     8c8: 00 1f        	<unknown>
     8ca: 09 b3        	<unknown>
     8cc: 07 15 1b 00  	<unknown>
     8d0: 00 1f        	<unknown>
     8d2: 09 b4        	<unknown>
     8d4: 07 29 1b 00  	flw	fs2, 0x1(s6)
     8d8: 00 1f        	<unknown>
     8da: 09 b5        	<unknown>
     8dc: 07 3d 1b 00  	fld	fs10, 0x1(s6)
     8e0: 00 1f        	<unknown>
     8e2: 09 b7        	<unknown>
     8e4: 07 51 1b 00  	<unknown>
     8e8: 00 1f        	<unknown>
     8ea: 09 b8        	<unknown>
     8ec: 07 65 1b 00  	<unknown>
     8f0: 00 1f        	<unknown>
     8f2: 09 b9        	<unknown>
     8f4: 07 79 1b 00  	<unknown>
     8f8: 00 1f        	<unknown>
     8fa: 09 bb        	<unknown>
     8fc: 07 8d 1b 00  	<unknown>
     900: 00 1f        	<unknown>
     902: 09 bc        	<unknown>
     904: 07 a0 1b 00  	flw	ft0, 0x1(s7)
     908: 00 1f        	<unknown>
     90a: 09 bd        	<unknown>
     90c: 07 b3 1b 00  	fld	ft6, 0x1(s7)
     910: 00 1f        	<unknown>
     912: 09 bf        	<unknown>
     914: 07 c6 1b 00  	<unknown>
     918: 00 1f        	<unknown>
     91a: 09 c0        	<unknown>
     91c: 07 da 1b 00  	<unknown>
     920: 00 1f        	<unknown>
     922: 09 c1        	<unknown>
     924: 07 ee 1b 00  	<unknown>
     928: 00 1f        	<unknown>
     92a: 09 c3        	<unknown>
     92c: 07 02 1c 00  	<unknown>
     930: 00 1f        	<unknown>
     932: 09 c4        	<unknown>
     934: 07 1b 1c 00  	<unknown>
     938: 00 1f        	<unknown>
     93a: 09 c5        	<unknown>
     93c: 07 34 1c 00  	fld	fs0, 0x1(s8)
     940: 00 1f        	<unknown>
     942: 09 c7        	<unknown>
     944: 07 4d 1c 00  	<unknown>
     948: 00 1f        	<unknown>
     94a: 09 c8        	<unknown>
     94c: 07 66 1c 00  	<unknown>
     950: 00 1f        	<unknown>
     952: 09 c9        	<unknown>
     954: 07 7f 1c 00  	<unknown>
     958: 00 1f        	<unknown>
     95a: 09 cb        	<unknown>
     95c: 07 98 1c 00  	<unknown>
     960: 00 1f        	<unknown>
     962: 09 cc        	<unknown>
     964: 07 b1 1c 00  	fld	ft2, 0x1(s9)
     968: 00 1f        	<unknown>
     96a: 09 cd        	<unknown>
     96c: 07 ca 1c 00  	<unknown>
     970: 00 1f        	<unknown>
     972: 09 cf        	<unknown>
     974: 07 e3 1c 00  	<unknown>
     978: 00 1f        	<unknown>
     97a: 09 d0        	<unknown>
     97c: 07 01 1d 00  	<unknown>
     980: 00 1f        	<unknown>
     982: 09 d1        	<unknown>
     984: 07 1f 1d 00  	<unknown>
     988: 00 1f        	<unknown>
     98a: 09 d3        	<unknown>
     98c: 07 3d 1d 00  	fld	fs10, 0x1(s10)
     990: 00 1f        	<unknown>
     992: 09 d4        	<unknown>
     994: 07 51 1d 00  	<unknown>
     998: 00 1f        	<unknown>
     99a: 09 d5        	<unknown>
     99c: 07 65 1d 00  	<unknown>
     9a0: 00 1f        	<unknown>
     9a2: 09 d7        	<unknown>
     9a4: 07 79 1d 00  	<unknown>
     9a8: 00 1f        	<unknown>
     9aa: 09 d8        	<unknown>
     9ac: 07 8d 1d 00  	<unknown>
     9b0: 00 1f        	<unknown>
     9b2: 09 d9        	<unknown>
     9b4: 07 a1 1d 00  	flw	ft2, 0x1(s11)
     9b8: 00 1f        	<unknown>
     9ba: 09 db        	<unknown>
     9bc: 07 b5 1d 00  	fld	fa0, 0x1(s11)
     9c0: 00 1f        	<unknown>
     9c2: 09 dc        	<unknown>
     9c4: 07 ce 1d 00  	<unknown>
     9c8: 00 1f        	<unknown>
     9ca: 09 dd        	<unknown>
     9cc: 07 e7 1d 00  	<unknown>
     9d0: 00 1f        	<unknown>
     9d2: 09 df        	<unknown>
     9d4: 07 00 1e 00  	<unknown>
     9d8: 00 1f        	<unknown>
     9da: 09 e0        	<unknown>
     9dc: 07 19 1e 00  	<unknown>
     9e0: 00 1f        	<unknown>
     9e2: 09 e1        	<unknown>
     9e4: 07 32 1e 00  	fld	ft4, 0x1(t3)
     9e8: 00 1f        	<unknown>
     9ea: 09 e3        	<unknown>
     9ec: 07 4b 1e 00  	<unknown>
     9f0: 00 1f        	<unknown>
     9f2: 09 e4        	<unknown>
     9f4: 07 5e 1e 00  	<unknown>
     9f8: 00 1f        	<unknown>
     9fa: 09 e5        	<unknown>
     9fc: 07 71 1e 00  	<unknown>
     a00: 00 1f        	<unknown>
     a02: 09 e7        	<unknown>
     a04: 07 84 1e 00  	<unknown>
     a08: 00 1f        	<unknown>
     a0a: 09 e8        	<unknown>
     a0c: 07 98 1e 00  	<unknown>
     a10: 00 1f        	<unknown>
     a12: 09 e9        	<unknown>
     a14: 07 ac 1e 00  	flw	fs8, 0x1(t4)
     a18: 00 12        	<unknown>
     a1a: 0b 83 c0 1e  	<unknown>
     a1e: 00 00        	<unknown>
     a20: 12 0b        	<unknown>
     a22: 84 cd        	<unknown>
     a24: 1e 00        	<unknown>
     a26: 00 12        	<unknown>
     a28: 0b 86 fa 1e  	<unknown>
     a2c: 00 00        	<unknown>
     a2e: 12 0b        	<unknown>
     a30: 8a 05        	<unknown>
     a32: 1f 00 00 12  	<unknown>
     a36: 0b 8d 1f 1f  	<unknown>
     a3a: 00 00        	<unknown>
     a3c: 12 0b        	<unknown>
     a3e: 90 33        	<unknown>
     a40: 1f 00 00 12  	<unknown>
     a44: 0b 91 46 1f  	<unknown>
     a48: 00 00        	<unknown>
     a4a: 12 0b        	<unknown>
     a4c: 92 59        	<unknown>
     a4e: 1f 00 00 12  	<unknown>
     a52: 0b 93 6c 1f  	<unknown>
     a56: 00 00        	<unknown>
     a58: 12 0b        	<unknown>
     a5a: 94 ce        	<unknown>
     a5c: 1f 00 00 12  	<unknown>
     a60: 0b 95 e7 1f  	<unknown>
     a64: 00 00        	<unknown>
     a66: 12 0b        	<unknown>
     a68: 96 00        	<unknown>
     a6a: 20 00        	<unknown>
     a6c: 00 12        	<unknown>
     a6e: 0b 97 11 20  	<unknown>
     a72: 00 00        	<unknown>
     a74: 12 0b        	<unknown>
     a76: 98 21        	<unknown>
     a78: 20 00        	<unknown>
     a7a: 00 12        	<unknown>
     a7c: 0b 99 3a 20  	<unknown>
     a80: 00 00        	<unknown>
     a82: 12 0b        	<unknown>
     a84: 9a 4e        	<unknown>
     a86: 20 00        	<unknown>
     a88: 00 12        	<unknown>
     a8a: 0b 9b 67 20  	<unknown>
     a8e: 00 00        	<unknown>
     a90: 12 0b        	<unknown>
     a92: 9d 7b        	<unknown>
     a94: 20 00        	<unknown>
     a96: 00 12        	<unknown>
     a98: 0b 9e 94 20  	<unknown>
     a9c: 00 00        	<unknown>
     a9e: 12 0b        	<unknown>
     aa0: 9f be 20 00  	<unknown>
     aa4: 00 12        	<unknown>
     aa6: 0b a1 dc 20  	<unknown>
     aaa: 00 00        	<unknown>
     aac: 12 0b        	<unknown>
     aae: a4 fb        	<unknown>
     ab0: 20 00        	<unknown>
     ab2: 00 12        	<unknown>
     ab4: 0b a7 0c 21  	<unknown>
     ab8: 00 00        	<unknown>
     aba: 12 0b        	<unknown>
     abc: a8 1a        	<unknown>
     abe: 21 00        	<unknown>
     ac0: 00 12        	<unknown>
     ac2: 0b a9 33 21  	<unknown>
     ac6: 00 00        	<unknown>
     ac8: 12 0b        	<unknown>
     aca: aa 43        	<unknown>
     acc: 21 00        	<unknown>
     ace: 00 12        	<unknown>
     ad0: 0b ab 60 21  	<unknown>
     ad4: 00 00        	<unknown>
     ad6: 12 0b        	<unknown>
     ad8: ac 7d        	<unknown>
     ada: 21 00        	<unknown>
     adc: 00 12        	<unknown>
     ade: 0b ad 9a 21  	<unknown>
     ae2: 00 00        	<unknown>
     ae4: 12 0b        	<unknown>
     ae6: af ae 21 00  	amoadd.w	t4, sp, (gp)
     aea: 00 12        	<unknown>
     aec: 0b b0 d6 21  	<unknown>
     af0: 00 00        	<unknown>
     af2: 12 0b        	<unknown>
     af4: f4 50        	<unknown>
     af6: 22 00        	<unknown>
     af8: 00 12        	<unknown>
     afa: 0b f6 7d 22  	<unknown>
     afe: 00 00        	<unknown>
     b00: 12 0b        	<unknown>
     b02: f8 8e        	<unknown>
     b04: 22 00        	<unknown>
     b06: 00 12        	<unknown>
     b08: 0b f9 33 22  	<unknown>
     b0c: 00 00        	<unknown>
     b0e: 12 0b        	<unknown>
     b10: fa a2        	<unknown>
     b12: 22 00        	<unknown>
     b14: 00 12        	<unknown>
     b16: 0b fc bb 22  	<unknown>
     b1a: 00 00        	<unknown>
     b1c: 12 0b        	<unknown>
     b1e: fd 08        	<unknown>
     b20: 23 00 00 12  	sb	zero, 0x120(zero)
     b24: 0b fe ce 22  	<unknown>
     b28: 00 00        	<unknown>
     b2a: 12 0b        	<unknown>
     b2c: ff eb 22 00  	<unknown>
     b30: 00 1f        	<unknown>
     b32: 0b 00 01 20  	<unknown>
     b36: 23 00 00 11  	sb	a6, 0x100(zero)
     b3a: 3f 0c 00 00  	<unknown>
     b3e: d6 05        	<unknown>
     b40: 00 00        	<unknown>
     b42: 07 4f 1c 16  	<unknown>
     b46: 00 00        	<unknown>
     b48: 01 01        	<unknown>
     b4a: 0f 1c 16 00  	<unknown>
     b4e: 00 00        	<unknown>
     b50: 1f 0f bb 01  	<unknown>
     b54: 1f 24 00 00  	<unknown>
     b58: 1f 0f bc 01  	<unknown>
     b5c: 35 24        	<unknown>
     b5e: 00 00        	<unknown>
     b60: 1f 0f bd 01  	<unknown>
     b64: 4b 24 00 00  	fnmsub.s	fs0, ft0, ft0, ft0, rdn
     b68: 1f 0f be 01  	<unknown>
     b6c: 61 24        	<unknown>
     b6e: 00 00        	<unknown>
     b70: 1f 0f bf 01  	<unknown>
     b74: 77 24 00 00  	<unknown>
     b78: 1f 0f c0 01  	<unknown>
     b7c: 92 24        	<unknown>
     b7e: 00 00        	<unknown>
     b80: 1f 0f c1 01  	<unknown>
     b84: a8 24        	<unknown>
     b86: 00 00        	<unknown>
     b88: 1f 0f c2 01  	<unknown>
     b8c: be 24        	<unknown>
     b8e: 00 00        	<unknown>
     b90: 1f 0f c3 01  	<unknown>
     b94: d4 24        	<unknown>
     b96: 00 00        	<unknown>
     b98: 1f 0f c4 01  	<unknown>
     b9c: ea 24        	<unknown>
     b9e: 00 00        	<unknown>
     ba0: 1f 0f c5 01  	<unknown>
     ba4: 05 25        	<unknown>
     ba6: 00 00        	<unknown>
     ba8: 1f 0f c6 01  	<unknown>
     bac: 1b 25 00 00  	<unknown>
     bb0: 1f 0f c7 01  	<unknown>
     bb4: 31 25        	<unknown>
     bb6: 00 00        	<unknown>
     bb8: 1f 0f c8 01  	<unknown>
     bbc: 47 25 00 00  	fmsub.s	fa0, ft0, ft0, ft0, rdn
     bc0: 1f 0f c9 01  	<unknown>
     bc4: 5d 25        	<unknown>
     bc6: 00 00        	<unknown>
     bc8: 1f 0f ca 01  	<unknown>
     bcc: 73 25 00 00  	csrr	a0, 0x0
     bd0: 1f 0f cb 01  	<unknown>
     bd4: 89 25        	<unknown>
     bd6: 00 00        	<unknown>
     bd8: 1f 0f cc 01  	<unknown>
     bdc: 9f 25 00 00  	<unknown>
     be0: 1f 0f cd 01  	<unknown>
     be4: b5 25        	<unknown>
     be6: 00 00        	<unknown>
     be8: 1f 0f ce 01  	<unknown>
     bec: d0 25        	<unknown>
     bee: 00 00        	<unknown>
     bf0: 1f 0f cf 01  	<unknown>
     bf4: e6 25        	<unknown>
     bf6: 00 00        	<unknown>
     bf8: 1f 0f d0 01  	<unknown>
     bfc: 06 26        	<unknown>
     bfe: 00 00        	<unknown>
     c00: 1f 0f d1 01  	<unknown>
     c04: 21 26        	<unknown>
     c06: 00 00        	<unknown>
     c08: 1f 0f d2 01  	<unknown>
     c0c: 3c 26        	<unknown>
     c0e: 00 00        	<unknown>
     c10: 1f 0f d3 01  	<unknown>
     c14: 57 26 00 00  	<unknown>
     c18: 1f 0f d4 01  	<unknown>
     c1c: 72 26        	<unknown>
     c1e: 00 00        	<unknown>
     c20: 1f 0f d5 01  	<unknown>
     c24: 8d 26        	<unknown>
     c26: 00 00        	<unknown>
     c28: 1f 0f d6 01  	<unknown>
     c2c: a3 26 00 00  	sw	zero, 0xd(zero)
     c30: 1f 0f d7 01  	<unknown>
     c34: be 26        	<unknown>
     c36: 00 00        	<unknown>
     c38: 1f 0f d8 01  	<unknown>
     c3c: d4 26        	<unknown>
     c3e: 00 00        	<unknown>
     c40: 1f 0f d9 01  	<unknown>
     c44: ea 26        	<unknown>
     c46: 00 00        	<unknown>
     c48: 1f 0f da 01  	<unknown>
     c4c: 00 27        	<unknown>
     c4e: 00 00        	<unknown>
     c50: 1f 0f db 01  	<unknown>
     c54: 16 27        	<unknown>
     c56: 00 00        	<unknown>
     c58: 1f 0f dc 01  	<unknown>
     c5c: 2c 27        	<unknown>
     c5e: 00 00        	<unknown>
     c60: 1f 0f dd 01  	<unknown>
     c64: 42 27        	<unknown>
     c66: 00 00        	<unknown>
     c68: 1f 0f de 01  	<unknown>
     c6c: 58 27        	<unknown>
     c6e: 00 00        	<unknown>
     c70: 1f 0f df 01  	<unknown>
     c74: 6e 27        	<unknown>
     c76: 00 00        	<unknown>
     c78: 1f 0f e0 01  	<unknown>
     c7c: 84 27        	<unknown>
     c7e: 00 00        	<unknown>
     c80: 1f 0f e1 01  	<unknown>
     c84: 9a 27        	<unknown>
     c86: 00 00        	<unknown>
     c88: 1f 0f e2 01  	<unknown>
     c8c: b5 27        	<unknown>
     c8e: 00 00        	<unknown>
     c90: 1f 0f e3 01  	<unknown>
     c94: cb 27 00 00  	fnmsub.s	fa5, ft0, ft0, ft0, rdn
     c98: 1f 0f e4 01  	<unknown>
     c9c: e6 27        	<unknown>
     c9e: 00 00        	<unknown>
     ca0: 1f 0f e5 01  	<unknown>
     ca4: 01 28        	<unknown>
     ca6: 00 00        	<unknown>
     ca8: 1f 0f e6 01  	<unknown>
     cac: 1c 28        	<unknown>
     cae: 00 00        	<unknown>
     cb0: 1f 0f e7 01  	<unknown>
     cb4: 3c 28        	<unknown>
     cb6: 00 00        	<unknown>
     cb8: 1f 0f e8 01  	<unknown>
     cbc: 53 28 00 00  	fadd.s	fa6, ft0, ft0, rdn
     cc0: 1f 0f e9 01  	<unknown>
     cc4: 69 28        	<unknown>
     cc6: 00 00        	<unknown>
     cc8: 1f 0f ea 01  	<unknown>
     ccc: 85 28        	<unknown>
     cce: 00 00        	<unknown>
     cd0: 1f 0f eb 01  	<unknown>
     cd4: a1 28        	<unknown>
     cd6: 00 00        	<unknown>
     cd8: 1f 0f ec 01  	<unknown>
     cdc: b8 28        	<unknown>
     cde: 00 00        	<unknown>
     ce0: 1f 0f ed 01  	<unknown>
     ce4: cf 28 00 00  	fnmadd.s	fa7, ft0, ft0, ft0, rdn
     ce8: 1f 0f ee 01  	<unknown>
     cec: e6 28        	<unknown>
     cee: 00 00        	<unknown>
     cf0: 1f 0f ef 01  	<unknown>
     cf4: fd 28        	<unknown>
     cf6: 00 00        	<unknown>
     cf8: 1f 0f f0 01  	<unknown>
     cfc: 14 29        	<unknown>
     cfe: 00 00        	<unknown>
     d00: 1f 0f f1 01  	<unknown>
     d04: 2b 29 00 00  	<unknown>
     d08: 00 20        	<unknown>
     d0a: c6 04        	<unknown>
     d0c: 00 00        	<unknown>
     d0e: d6 05        	<unknown>
     d10: 00 00        	<unknown>
     d12: 05 1e        	<unknown>
     d14: 1f 0d 00 00  	<unknown>
     d18: 01 0f        	<unknown>
     d1a: 1f 0d 00 00  	<unknown>
     d1e: 00 06        	<unknown>
     d20: 93 01 00 00  	li	gp, 0x0
     d24: 05 04        	<unknown>
     d26: 20 cf        	<unknown>
     d28: 04 00        	<unknown>
     d2a: 00 d9        	<unknown>
     d2c: 04 00        	<unknown>
     d2e: 00 05        	<unknown>
     d30: 20 53        	<unknown>
     d32: 00 00        	<unknown>
     d34: 00 01        	<unknown>
     d36: 0f 53 00 00  	<unknown>
     d3a: 00 00        	<unknown>
     d3c: 20 de        	<unknown>
     d3e: 04 00        	<unknown>
     d40: 00 e9        	<unknown>
     d42: 04 00        	<unknown>
     d44: 00 05        	<unknown>
     d46: 22 53        	<unknown>
     d48: 00 00        	<unknown>
     d4a: 00 01        	<unknown>
     d4c: 0f 53 00 00  	<unknown>
     d50: 00 00        	<unknown>
     d52: 20 ef        	<unknown>
     d54: 04 00        	<unknown>
     d56: 00 f9        	<unknown>
     d58: 04 00        	<unknown>
     d5a: 00 05        	<unknown>
     d5c: 24 53        	<unknown>
     d5e: 00 00        	<unknown>
     d60: 00 01        	<unknown>
     d62: 0f 53 00 00  	<unknown>
     d66: 00 00        	<unknown>
     d68: 20 fe        	<unknown>
     d6a: 04 00        	<unknown>
     d6c: 00 09        	<unknown>
     d6e: 05 00        	<unknown>
     d70: 00 05        	<unknown>
     d72: 26 53        	<unknown>
     d74: 00 00        	<unknown>
     d76: 00 01        	<unknown>
     d78: 0f 53 00 00  	<unknown>
     d7c: 00 00        	<unknown>
     d7e: 20 0f        	<unknown>
     d80: 05 00        	<unknown>
     d82: 00 19        	<unknown>
     d84: 05 00        	<unknown>
     d86: 00 05        	<unknown>
     d88: 2a 53        	<unknown>
     d8a: 00 00        	<unknown>
     d8c: 00 01        	<unknown>
     d8e: 0f 53 00 00  	<unknown>
     d92: 00 00        	<unknown>
     d94: 20 1e        	<unknown>
     d96: 05 00        	<unknown>
     d98: 00 2a        	<unknown>
     d9a: 05 00        	<unknown>
     d9c: 00 05        	<unknown>
     d9e: 28 53        	<unknown>
     da0: 00 00        	<unknown>
     da2: 00 01        	<unknown>
     da4: 0f 53 00 00  	<unknown>
     da8: 00 0f        	<unknown>
     daa: 53 00 00 00  	fadd.s	ft0, ft0, ft0, rne
     dae: 00 20        	<unknown>
     db0: 30 05        	<unknown>
     db2: 00 00        	<unknown>
     db4: 3b 05 00 00  	addw	a0, zero, zero
     db8: 05 2c        	<unknown>
     dba: 53 00 00 00  	fadd.s	ft0, ft0, ft0, rne
     dbe: 01 0f        	<unknown>
     dc0: 53 00 00 00  	fadd.s	ft0, ft0, ft0, rne
     dc4: 00 20        	<unknown>
     dc6: 41 05        	<unknown>
     dc8: 00 00        	<unknown>
     dca: 4b 05 00 00  	fnmsub.s	fa0, ft0, ft0, ft0, rne
     dce: 05 2e        	<unknown>
     dd0: 53 00 00 00  	fadd.s	ft0, ft0, ft0, rne
     dd4: 01 0f        	<unknown>
     dd6: 53 00 00 00  	fadd.s	ft0, ft0, ft0, rne
     dda: 00 20        	<unknown>
     ddc: 50 05        	<unknown>
     dde: 00 00        	<unknown>
     de0: 5a 05        	<unknown>
     de2: 00 00        	<unknown>
     de4: 05 30        	<unknown>
     de6: 53 00 00 00  	fadd.s	ft0, ft0, ft0, rne
     dea: 01 0f        	<unknown>
     dec: 53 00 00 00  	fadd.s	ft0, ft0, ft0, rne
     df0: 00 20        	<unknown>
     df2: 5f 05 00 00  	<unknown>
     df6: 6e 05        	<unknown>
     df8: 00 00        	<unknown>
     dfa: 05 32        	<unknown>
     dfc: 53 00 00 00  	fadd.s	ft0, ft0, ft0, rne
     e00: 01 0f        	<unknown>
     e02: 53 00 00 00  	fadd.s	ft0, ft0, ft0, rne
     e06: 0f 53 00 00  	<unknown>
     e0a: 00 00        	<unknown>
     e0c: 20 77        	<unknown>
     e0e: 05 00        	<unknown>
     e10: 00 da        	<unknown>
     e12: 04 00        	<unknown>
     e14: 00 05        	<unknown>
     e16: 34 53        	<unknown>
     e18: 00 00        	<unknown>
     e1a: 00 01        	<unknown>
     e1c: 0f 53 00 00  	<unknown>
     e20: 00 00        	<unknown>
     e22: 20 80        	<unknown>
     e24: 05 00        	<unknown>
     e26: 00 ea        	<unknown>
     e28: 04 00        	<unknown>
     e2a: 00 05        	<unknown>
     e2c: 36 53        	<unknown>
     e2e: 00 00        	<unknown>
     e30: 00 01        	<unknown>
     e32: 0f 53 00 00  	<unknown>
     e36: 00 00        	<unknown>
     e38: 20 8a        	<unknown>
     e3a: 05 00        	<unknown>
     e3c: 00 bf        	<unknown>
     e3e: 0a 00        	<unknown>
     e40: 00 05        	<unknown>
     e42: 3a 53        	<unknown>
     e44: 00 00        	<unknown>
     e46: 00 01        	<unknown>
     e48: 0f 53 00 00  	<unknown>
     e4c: 00 00        	<unknown>
     e4e: 20 93        	<unknown>
     e50: 05 00        	<unknown>
     e52: 00 9d        	<unknown>
     e54: 05 00        	<unknown>
     e56: 00 05        	<unknown>
     e58: 38 53        	<unknown>
     e5a: 00 00        	<unknown>
     e5c: 00 01        	<unknown>
     e5e: 0f 53 00 00  	<unknown>
     e62: 00 00        	<unknown>
     e64: 20 a2        	<unknown>
     e66: 05 00        	<unknown>
     e68: 00 ad        	<unknown>
     e6a: 07 00 00 05  	<unknown>
     e6e: 3e 53        	<unknown>
     e70: 00 00        	<unknown>
     e72: 00 01        	<unknown>
     e74: 0f 53 00 00  	<unknown>
     e78: 00 00        	<unknown>
     e7a: 20 ab        	<unknown>
     e7c: 05 00        	<unknown>
     e7e: 00 b5        	<unknown>
     e80: 05 00        	<unknown>
     e82: 00 05        	<unknown>
     e84: 3c 53        	<unknown>
     e86: 00 00        	<unknown>
     e88: 00 01        	<unknown>
     e8a: 0f 53 00 00  	<unknown>
     e8e: 00 00        	<unknown>
     e90: 20 ba        	<unknown>
     e92: 05 00        	<unknown>
     e94: 00 c5        	<unknown>
     e96: 05 00        	<unknown>
     e98: 00 05        	<unknown>
     e9a: 40 53        	<unknown>
     e9c: 00 00        	<unknown>
     e9e: 00 01        	<unknown>
     ea0: 0f 53 00 00  	<unknown>
     ea4: 00 00        	<unknown>
     ea6: 20 cb        	<unknown>
     ea8: 05 00        	<unknown>
     eaa: 00 d5        	<unknown>
     eac: 05 00        	<unknown>
     eae: 00 05        	<unknown>
     eb0: 42 53        	<unknown>
     eb2: 00 00        	<unknown>
     eb4: 00 01        	<unknown>
     eb6: 0f 53 00 00  	<unknown>
     eba: 00 00        	<unknown>
     ebc: 20 da        	<unknown>
     ebe: 05 00        	<unknown>
     ec0: 00 e5        	<unknown>
     ec2: 05 00        	<unknown>
     ec4: 00 05        	<unknown>
     ec6: 44 53        	<unknown>
     ec8: 00 00        	<unknown>
     eca: 00 01        	<unknown>
     ecc: 0f 53 00 00  	<unknown>
     ed0: 00 0f        	<unknown>
     ed2: 53 00 00 00  	fadd.s	ft0, ft0, ft0, rne
     ed6: 00 20        	<unknown>
     ed8: ea 05        	<unknown>
     eda: 00 00        	<unknown>
     edc: f5 05        	<unknown>
     ede: 00 00        	<unknown>
     ee0: 05 46        	<unknown>
     ee2: 53 00 00 00  	fadd.s	ft0, ft0, ft0, rne
     ee6: 01 0f        	<unknown>
     ee8: 53 00 00 00  	fadd.s	ft0, ft0, ft0, rne
     eec: 00 20        	<unknown>
     eee: fb 05 00 00  	<unknown>
     ef2: 06 06        	<unknown>
     ef4: 00 00        	<unknown>
     ef6: 05 48        	<unknown>
     ef8: 53 00 00 00  	fadd.s	ft0, ft0, ft0, rne
     efc: 01 0f        	<unknown>
     efe: 53 00 00 00  	fadd.s	ft0, ft0, ft0, rne
     f02: 0f 53 00 00  	<unknown>
     f06: 00 0f        	<unknown>
     f08: 53 00 00 00  	fadd.s	ft0, ft0, ft0, rne
     f0c: 00 20        	<unknown>
     f0e: 0a 06        	<unknown>
     f10: 00 00        	<unknown>
     f12: 15 06        	<unknown>
     f14: 00 00        	<unknown>
     f16: 05 4a        	<unknown>
     f18: 53 00 00 00  	fadd.s	ft0, ft0, ft0, rne
     f1c: 01 0f        	<unknown>
     f1e: 53 00 00 00  	fadd.s	ft0, ft0, ft0, rne
     f22: 0f 53 00 00  	<unknown>
     f26: 00 00        	<unknown>
     f28: 20 1a        	<unknown>
     f2a: 06 00        	<unknown>
     f2c: 00 25        	<unknown>
     f2e: 06 00        	<unknown>
     f30: 00 05        	<unknown>
     f32: 4c 53        	<unknown>
     f34: 00 00        	<unknown>
     f36: 00 01        	<unknown>
     f38: 0f 53 00 00  	<unknown>
     f3c: 00 0f        	<unknown>
     f3e: 53 00 00 00  	fadd.s	ft0, ft0, ft0, rne
     f42: 00 20        	<unknown>
     f44: 2a 06        	<unknown>
     f46: 00 00        	<unknown>
     f48: 35 06        	<unknown>
     f4a: 00 00        	<unknown>
     f4c: 05 4e        	<unknown>
     f4e: 53 00 00 00  	fadd.s	ft0, ft0, ft0, rne
     f52: 01 0f        	<unknown>
     f54: 53 00 00 00  	fadd.s	ft0, ft0, ft0, rne
     f58: 0f 53 00 00  	<unknown>
     f5c: 00 00        	<unknown>
     f5e: 20 3a        	<unknown>
     f60: 06 00        	<unknown>
     f62: 00 4b        	<unknown>
     f64: 06 00        	<unknown>
     f66: 00 05        	<unknown>
     f68: 50 1f        	<unknown>
     f6a: 0d 00        	<unknown>
     f6c: 00 01        	<unknown>
     f6e: 0f 53 00 00  	<unknown>
     f72: 00 00        	<unknown>
     f74: 20 56        	<unknown>
     f76: 06 00        	<unknown>
     f78: 00 63        	<unknown>
     f7a: 06 00        	<unknown>
     f7c: 00 05        	<unknown>
     f7e: 52 53        	<unknown>
     f80: 00 00        	<unknown>
     f82: 00 01        	<unknown>
     f84: 0f 53 00 00  	<unknown>
     f88: 00 0f        	<unknown>
     f8a: 8f 0f 00 00  	<unknown>
     f8e: 00 13        	<unknown>
     f90: 1f 0d 00 00  	<unknown>
     f94: 20 69        	<unknown>
     f96: 06 00        	<unknown>
     f98: 00 75        	<unknown>
     f9a: 06 00        	<unknown>
     f9c: 00 05        	<unknown>
     f9e: 54 53        	<unknown>
     fa0: 00 00        	<unknown>
     fa2: 00 01        	<unknown>
     fa4: 0f 53 00 00  	<unknown>
     fa8: 00 0f        	<unknown>
     faa: 53 00 00 00  	fadd.s	ft0, ft0, ft0, rne
     fae: 00 20        	<unknown>
     fb0: 7b 06 00 00  	<unknown>
     fb4: 86 06        	<unknown>
     fb6: 00 00        	<unknown>
     fb8: 05 56        	<unknown>
     fba: 1f 0d 00 00  	<unknown>
     fbe: 01 0f        	<unknown>
     fc0: 53 00 00 00  	fadd.s	ft0, ft0, ft0, rne
     fc4: 00 20        	<unknown>
     fc6: 8c 06        	<unknown>
     fc8: 00 00        	<unknown>
     fca: 9a 06        	<unknown>
     fcc: 00 00        	<unknown>
     fce: 05 5b        	<unknown>
     fd0: db 0f 00 00  	<unknown>
     fd4: 01 0f        	<unknown>
     fd6: 53 00 00 00  	fadd.s	ft0, ft0, ft0, rne
     fda: 00 06        	<unknown>
     fdc: a3 06 00 00  	sb	zero, 0xd(zero)
     fe0: 02 01        	<unknown>
     fe2: 20 a8        	<unknown>
     fe4: 06 00        	<unknown>
     fe6: 00 b8        	<unknown>
     fe8: 06 00        	<unknown>
     fea: 00 05        	<unknown>
     fec: 5f db 0f 00  	<unknown>
     ff0: 00 01        	<unknown>
     ff2: 0f 53 00 00  	<unknown>
     ff6: 00 0f        	<unknown>
     ff8: 53 00 00 00  	fadd.s	ft0, ft0, ft0, rne
     ffc: 00 20        	<unknown>
     ffe: c2 06        	<unknown>
    1000: 00 00        	<unknown>
    1002: d8 06        	<unknown>
    1004: 00 00        	<unknown>
    1006: 05 5e        	<unknown>
    1008: db 0f 00 00  	<unknown>
    100c: 01 0f        	<unknown>
    100e: 53 00 00 00  	fadd.s	ft0, ft0, ft0, rne
    1012: 0f 53 00 00  	<unknown>
    1016: 00 00        	<unknown>
    1018: 20 e7        	<unknown>
    101a: 06 00        	<unknown>
    101c: 00 f2        	<unknown>
    101e: 06 00        	<unknown>
    1020: 00 05        	<unknown>
    1022: 64 db        	<unknown>
    1024: 0f 00 00 01  	fence	w, 0
    1028: 0f 53 00 00  	<unknown>
    102c: 00 00        	<unknown>
    102e: 20 f8        	<unknown>
    1030: 06 00        	<unknown>
    1032: 00 05        	<unknown>
    1034: 07 00 00 05  	<unknown>
    1038: 68 db        	<unknown>
    103a: 0f 00 00 01  	fence	w, 0
    103e: 0f 53 00 00  	<unknown>
    1042: 00 0f        	<unknown>
    1044: 53 00 00 00  	fadd.s	ft0, ft0, ft0, rne
    1048: 00 20        	<unknown>
    104a: 0c 07        	<unknown>
    104c: 00 00        	<unknown>
    104e: 1f 07 00 00  	<unknown>
    1052: 05 67        	<unknown>
    1054: db 0f 00 00  	<unknown>
    1058: 01 0f        	<unknown>
    105a: 53 00 00 00  	fadd.s	ft0, ft0, ft0, rne
    105e: 0f 53 00 00  	<unknown>
    1062: 00 00        	<unknown>
    1064: 20 2b        	<unknown>
    1066: 07 00 00 40  	<unknown>
    106a: 07 00 00 05  	<unknown>
    106e: 6a db        	<unknown>
    1070: 0f 00 00 01  	fence	w, 0
    1074: 0f 53 00 00  	<unknown>
    1078: 00 0f        	<unknown>
    107a: 53 00 00 00  	fadd.s	ft0, ft0, ft0, rne
    107e: 00 20        	<unknown>
    1080: 4e 07        	<unknown>
    1082: 00 00        	<unknown>
    1084: 59 07        	<unknown>
    1086: 00 00        	<unknown>
    1088: 05 6f        	<unknown>
    108a: db 0f 00 00  	<unknown>
    108e: 01 0f        	<unknown>
    1090: 53 00 00 00  	fadd.s	ft0, ft0, ft0, rne
    1094: 00 20        	<unknown>
    1096: 5f 07 00 00  	<unknown>
    109a: 6d 07        	<unknown>
    109c: 00 00        	<unknown>
    109e: 05 71        	<unknown>
    10a0: db 0f 00 00  	<unknown>
    10a4: 01 0f        	<unknown>
    10a6: 53 00 00 00  	fadd.s	ft0, ft0, ft0, rne
    10aa: 00 20        	<unknown>
    10ac: 76 07        	<unknown>
    10ae: 00 00        	<unknown>
    10b0: 89 07        	<unknown>
    10b2: 00 00        	<unknown>
    10b4: 05 73        	<unknown>
    10b6: db 0f 00 00  	<unknown>
    10ba: 01 0f        	<unknown>
    10bc: 53 00 00 00  	fadd.s	ft0, ft0, ft0, rne
    10c0: 0f 53 00 00  	<unknown>
    10c4: 00 00        	<unknown>
    10c6: 20 95        	<unknown>
    10c8: 07 00 00 d0  	<unknown>
    10cc: 07 00 00 05  	<unknown>
    10d0: 74 dc        	<unknown>
    10d2: 10 00        	<unknown>
    10d4: 00 01        	<unknown>
    10d6: 0f dc 10 00  	<unknown>
    10da: 00 00        	<unknown>
    10dc: 06 53        	<unknown>
    10de: 0b 00 00 05  	<unknown>
    10e2: 08 20        	<unknown>
    10e4: 9f 07 00 00  	<unknown>
    10e8: ab 07 00 00  	vx_tex	a5, zero, zero, zero
    10ec: 05 76        	<unknown>
    10ee: 53 00 00 00  	fadd.s	ft0, ft0, ft0, rne
    10f2: 01 0f        	<unknown>
    10f4: 53 00 00 00  	fadd.s	ft0, ft0, ft0, rne
    10f8: 0f 1f 0d 00  	<unknown>
    10fc: 00 00        	<unknown>
    10fe: 20 b1        	<unknown>
    1100: 07 00 00 bd  	<unknown>
    1104: 07 00 00 05  	<unknown>
    1108: 78 53        	<unknown>
    110a: 00 00        	<unknown>
    110c: 00 01        	<unknown>
    110e: 0f 53 00 00  	<unknown>
    1112: 00 00        	<unknown>
    1114: 20 c4        	<unknown>
    1116: 07 00 00 cf  	<unknown>
    111a: 07 00 00 05  	<unknown>
    111e: 79 2a        	<unknown>
    1120: 11 00        	<unknown>
    1122: 00 01        	<unknown>
    1124: 0f 2a 11 00  	<unknown>
    1128: 00 00        	<unknown>
    112a: 06 62        	<unknown>
    112c: 01 00        	<unknown>
    112e: 00 05        	<unknown>
    1130: 08 20        	<unknown>
    1132: d5 07        	<unknown>
    1134: 00 00        	<unknown>
    1136: e1 07        	<unknown>
    1138: 00 00        	<unknown>
    113a: 05 7b        	<unknown>
    113c: 2a 11        	<unknown>
    113e: 00 00        	<unknown>
    1140: 01 0f        	<unknown>
    1142: 53 00 00 00  	fadd.s	ft0, ft0, ft0, rne
    1146: 00 20        	<unknown>
    1148: e8 07        	<unknown>
    114a: 00 00        	<unknown>
    114c: f1 07        	<unknown>
    114e: 00 00        	<unknown>
    1150: 05 85        	<unknown>
    1152: 53 00 00 00  	fadd.s	ft0, ft0, ft0, rne
    1156: 01 0f        	<unknown>
    1158: 53 00 00 00  	fadd.s	ft0, ft0, ft0, rne
    115c: 00 20        	<unknown>
    115e: f5 07        	<unknown>
    1160: 00 00        	<unknown>
    1162: 00 08        	<unknown>
    1164: 00 00        	<unknown>
    1166: 05 7d        	<unknown>
    1168: 53 00 00 00  	fadd.s	ft0, ft0, ft0, rne
    116c: 01 0f        	<unknown>
    116e: 53 00 00 00  	fadd.s	ft0, ft0, ft0, rne
    1172: 00 20        	<unknown>
    1174: 06 08        	<unknown>
    1176: 00 00        	<unknown>
    1178: 11 08        	<unknown>
    117a: 00 00        	<unknown>
    117c: 05 7f        	<unknown>
    117e: 53 00 00 00  	fadd.s	ft0, ft0, ft0, rne
    1182: 01 0f        	<unknown>
    1184: 53 00 00 00  	fadd.s	ft0, ft0, ft0, rne
    1188: 00 20        	<unknown>
    118a: 17 08 00 00  	auipc	a6, 0x0
    118e: 21 08        	<unknown>
    1190: 00 00        	<unknown>
    1192: 05 81        	<unknown>
    1194: 53 00 00 00  	fadd.s	ft0, ft0, ft0, rne
    1198: 01 0f        	<unknown>
    119a: 53 00 00 00  	fadd.s	ft0, ft0, ft0, rne
    119e: 00 20        	<unknown>
    11a0: 26 08        	<unknown>
    11a2: 00 00        	<unknown>
    11a4: 87 06 00 00  	<unknown>
    11a8: 05 83        	<unknown>
    11aa: 53 00 00 00  	fadd.s	ft0, ft0, ft0, rne
    11ae: 01 0f        	<unknown>
    11b0: 53 00 00 00  	fadd.s	ft0, ft0, ft0, rne
    11b4: 00 20        	<unknown>
    11b6: 30 08        	<unknown>
    11b8: 00 00        	<unknown>
    11ba: e2 07        	<unknown>
    11bc: 00 00        	<unknown>
    11be: 05 87        	<unknown>
    11c0: dc 10        	<unknown>
    11c2: 00 00        	<unknown>
    11c4: 01 0f        	<unknown>
    11c6: 53 00 00 00  	fadd.s	ft0, ft0, ft0, rne
    11ca: 00 20        	<unknown>
    11cc: 3b 08 00 00  	addw	a6, zero, zero
    11d0: 55 08        	<unknown>
    11d2: 00 00        	<unknown>
    11d4: 05 89        	<unknown>
    11d6: dc 10        	<unknown>
    11d8: 00 00        	<unknown>
    11da: 01 0f        	<unknown>
    11dc: 53 00 00 00  	fadd.s	ft0, ft0, ft0, rne
    11e0: 00 20        	<unknown>
    11e2: 47 08 00 00  	fmsub.s	fa6, ft0, ft0, ft0, rne
    11e6: 54 08        	<unknown>
    11e8: 00 00        	<unknown>
    11ea: 05 8a        	<unknown>
    11ec: 2a 11        	<unknown>
    11ee: 00 00        	<unknown>
    11f0: 01 0f        	<unknown>
    11f2: 53 00 00 00  	fadd.s	ft0, ft0, ft0, rne
    11f6: 00 20        	<unknown>
    11f8: 5c 08        	<unknown>
    11fa: 00 00        	<unknown>
    11fc: 67 0d 00 00  	jalr	s10, zero <.debug_info>
    1200: 05 8c        	<unknown>
    1202: 53 00 00 00  	fadd.s	ft0, ft0, ft0, rne
    1206: 01 0f        	<unknown>
    1208: 53 00 00 00  	fadd.s	ft0, ft0, ft0, rne
    120c: 0f 12 12 00  	<unknown>
    1210: 00 00        	<unknown>
    1212: 13 53 00 00  	srli	t1, zero, 0x0
    1216: 00 20        	<unknown>
    1218: 68 08        	<unknown>
    121a: 00 00        	<unknown>
    121c: 5b 07 00 00  	<unknown>
    1220: 05 8d        	<unknown>
    1222: 2d 12        	<unknown>
    1224: 00 00        	<unknown>
    1226: 01 0f        	<unknown>
    1228: 34 12        	<unknown>
    122a: 00 00        	<unknown>
    122c: 00 06        	<unknown>
    122e: bf 09 00 00  	<unknown>
    1232: 04 08        	<unknown>
    1234: 13 39 12 00  	seqz	s2, tp
    1238: 00 19        	<unknown>
    123a: 3e 12        	<unknown>
    123c: 00 00        	<unknown>
    123e: 06 73        	<unknown>
    1240: 08 00        	<unknown>
    1242: 00 06        	<unknown>
    1244: 01 20        	<unknown>
    1246: 78 08        	<unknown>
    1248: 00 00        	<unknown>
    124a: 54 07        	<unknown>
    124c: 00 00        	<unknown>
    124e: 05 8e        	<unknown>
    1250: 53 00 00 00  	fadd.s	ft0, ft0, ft0, rne
    1254: 01 0f        	<unknown>
    1256: 34 12        	<unknown>
    1258: 00 00        	<unknown>
    125a: 00 20        	<unknown>
    125c: 84 08        	<unknown>
    125e: 00 00        	<unknown>
    1260: 93 08 00 00  	li	a7, 0x0
    1264: 05 90        	<unknown>
    1266: 53 00 00 00  	fadd.s	ft0, ft0, ft0, rne
    126a: 01 0f        	<unknown>
    126c: 53 00 00 00  	fadd.s	ft0, ft0, ft0, rne
    1270: 00 20        	<unknown>
    1272: 9d 08        	<unknown>
    1274: 00 00        	<unknown>
    1276: ad 08        	<unknown>
    1278: 00 00        	<unknown>
    127a: 05 92        	<unknown>
    127c: 53 00 00 00  	fadd.s	ft0, ft0, ft0, rne
    1280: 01 0f        	<unknown>
    1282: 53 00 00 00  	fadd.s	ft0, ft0, ft0, rne
    1286: 0f 53 00 00  	<unknown>
    128a: 00 00        	<unknown>
    128c: 20 b7        	<unknown>
    128e: 08 00        	<unknown>
    1290: 00 c1        	<unknown>
    1292: 08 00        	<unknown>
    1294: 00 05        	<unknown>
    1296: 96 53        	<unknown>
    1298: 00 00        	<unknown>
    129a: 00 01        	<unknown>
    129c: 0f 53 00 00  	<unknown>
    12a0: 00 0f        	<unknown>
    12a2: 1f 0d 00 00  	<unknown>
    12a6: 00 20        	<unknown>
    12a8: c5 08        	<unknown>
    12aa: 00 00        	<unknown>
    12ac: d5 08        	<unknown>
    12ae: 00 00        	<unknown>
    12b0: 05 98        	<unknown>
    12b2: 53 00 00 00  	fadd.s	ft0, ft0, ft0, rne
    12b6: 01 0f        	<unknown>
    12b8: 53 00 00 00  	fadd.s	ft0, ft0, ft0, rne
    12bc: 0f 53 00 00  	<unknown>
    12c0: 00 00        	<unknown>
    12c2: 20 df        	<unknown>
    12c4: 08 00        	<unknown>
    12c6: 00 ee        	<unknown>
    12c8: 08 00        	<unknown>
    12ca: 00 05        	<unknown>
    12cc: 9a 53        	<unknown>
    12ce: 00 00        	<unknown>
    12d0: 00 01        	<unknown>
    12d2: 0f 53 00 00  	<unknown>
    12d6: 00 0f        	<unknown>
    12d8: 53 00 00 00  	fadd.s	ft0, ft0, ft0, rne
    12dc: 0f 8f 0f 00  	<unknown>
    12e0: 00 00        	<unknown>
    12e2: 20 f5        	<unknown>
    12e4: 08 00        	<unknown>
    12e6: 00 e3        	<unknown>
    12e8: 07 00 00 05  	<unknown>
    12ec: 9c 53        	<unknown>
    12ee: 00 00        	<unknown>
    12f0: 00 01        	<unknown>
    12f2: 0f 53 00 00  	<unknown>
    12f6: 00 00        	<unknown>
    12f8: 20 ff        	<unknown>
    12fa: 08 00        	<unknown>
    12fc: 00 56        	<unknown>
    12fe: 08 00        	<unknown>
    1300: 00 05        	<unknown>
    1302: 9e 53        	<unknown>
    1304: 00 00        	<unknown>
    1306: 00 01        	<unknown>
    1308: 0f 53 00 00  	<unknown>
    130c: 00 00        	<unknown>
    130e: 20 0a        	<unknown>
    1310: 09 00        	<unknown>
    1312: 00 18        	<unknown>
    1314: 09 00        	<unknown>
    1316: 00 05        	<unknown>
    1318: a0 53        	<unknown>
    131a: 00 00        	<unknown>
    131c: 00 01        	<unknown>
    131e: 0f 53 00 00  	<unknown>
    1322: 00 0f        	<unknown>
    1324: dc 10        	<unknown>
    1326: 00 00        	<unknown>
    1328: 00 20        	<unknown>
    132a: 20 09        	<unknown>
    132c: 00 00        	<unknown>
    132e: 2d 09        	<unknown>
    1330: 00 00        	<unknown>
    1332: 05 a2        	<unknown>
    1334: 53 00 00 00  	fadd.s	ft0, ft0, ft0, rne
    1338: 01 0f        	<unknown>
    133a: 53 00 00 00  	fadd.s	ft0, ft0, ft0, rne
    133e: 0f 1f 0d 00  	<unknown>
    1342: 00 00        	<unknown>
    1344: 20 34        	<unknown>
    1346: 09 00        	<unknown>
    1348: 00 41        	<unknown>
    134a: 09 00        	<unknown>
    134c: 00 05        	<unknown>
    134e: a7 db 0f 00  	<unknown>
    1352: 00 01        	<unknown>
    1354: 0f 53 00 00  	<unknown>
    1358: 00 00        	<unknown>
    135a: 20 49        	<unknown>
    135c: 09 00        	<unknown>
    135e: 00 fa        	<unknown>
    1360: 04 00        	<unknown>
    1362: 00 05        	<unknown>
    1364: a9 53        	<unknown>
    1366: 00 00        	<unknown>
    1368: 00 01        	<unknown>
    136a: 0f 53 00 00  	<unknown>
    136e: 00 00        	<unknown>
    1370: 20 52        	<unknown>
    1372: 09 00        	<unknown>
    1374: 00 0a        	<unknown>
    1376: 05 00        	<unknown>
    1378: 00 05        	<unknown>
    137a: ab 53 00 00  	<unknown>
    137e: 00 01        	<unknown>
    1380: 0f 53 00 00  	<unknown>
    1384: 00 00        	<unknown>
    1386: 20 5c        	<unknown>
    1388: 09 00        	<unknown>
    138a: 00 66        	<unknown>
    138c: 09 00        	<unknown>
    138e: 00 05        	<unknown>
    1390: ad 53        	<unknown>
    1392: 00 00        	<unknown>
    1394: 00 01        	<unknown>
    1396: 0f 53 00 00  	<unknown>
    139a: 00 00        	<unknown>
    139c: 20 6b        	<unknown>
    139e: 09 00        	<unknown>
    13a0: 00 1a        	<unknown>
    13a2: 05 00        	<unknown>
    13a4: 00 05        	<unknown>
    13a6: af 53 00 00  	<unknown>
    13aa: 00 01        	<unknown>
    13ac: 0f 53 00 00  	<unknown>
    13b0: 00 00        	<unknown>
    13b2: 20 74        	<unknown>
    13b4: 09 00        	<unknown>
    13b6: 00 3c        	<unknown>
    13b8: 05 00        	<unknown>
    13ba: 00 05        	<unknown>
    13bc: b1 53        	<unknown>
    13be: 00 00        	<unknown>
    13c0: 00 01        	<unknown>
    13c2: 0f 53 00 00  	<unknown>
    13c6: 00 00        	<unknown>
    13c8: 20 7e        	<unknown>
    13ca: 09 00        	<unknown>
    13cc: 00 8a        	<unknown>
    13ce: 09 00        	<unknown>
    13d0: 00 05        	<unknown>
    13d2: b3 53 00 00  	srl	t2, zero, zero
    13d6: 00 01        	<unknown>
    13d8: 0f 53 00 00  	<unknown>
    13dc: 00 00        	<unknown>
    13de: 20 91        	<unknown>
    13e0: 09 00        	<unknown>
    13e2: 00 9c        	<unknown>
    13e4: 09 00        	<unknown>
    13e6: 00 05        	<unknown>
    13e8: b5 53        	<unknown>
    13ea: 00 00        	<unknown>
    13ec: 00 01        	<unknown>
    13ee: 0f 53 00 00  	<unknown>
    13f2: 00 00        	<unknown>
    13f4: 21 d6        	<unknown>
    13f6: 05 00        	<unknown>
    13f8: 00 06        	<unknown>
    13fa: 48 03        	<unknown>
    13fc: 1f 0d 00 00  	<unknown>
    1400: 01 01        	<unknown>
    1402: 0f 1f 0d 00  	<unknown>
    1406: 00 00        	<unknown>
    1408: 22 d9        	<unknown>
    140a: 04 00        	<unknown>
    140c: 00 08        	<unknown>
    140e: 35 2d        	<unknown>
    1410: 12 00        	<unknown>
    1412: 00 01        	<unknown>
    1414: 01 0f        	<unknown>
    1416: 2d 12        	<unknown>
    1418: 00 00        	<unknown>
    141a: 00 22        	<unknown>
    141c: f9 04        	<unknown>
    141e: 00 00        	<unknown>
    1420: 08 37        	<unknown>
    1422: 2d 12        	<unknown>
    1424: 00 00        	<unknown>
    1426: 01 01        	<unknown>
    1428: 0f 2d 12 00  	<unknown>
    142c: 00 00        	<unknown>
    142e: 22 19        	<unknown>
    1430: 05 00        	<unknown>
    1432: 00 08        	<unknown>
    1434: 39 2d        	<unknown>
    1436: 12 00        	<unknown>
    1438: 00 01        	<unknown>
    143a: 01 0f        	<unknown>
    143c: 2d 12        	<unknown>
    143e: 00 00        	<unknown>
    1440: 00 22        	<unknown>
    1442: 2a 05        	<unknown>
    1444: 00 00        	<unknown>
    1446: 08 3b        	<unknown>
    1448: 2d 12        	<unknown>
    144a: 00 00        	<unknown>
    144c: 01 01        	<unknown>
    144e: 0f 2d 12 00  	<unknown>
    1452: 00 0f        	<unknown>
    1454: 2d 12        	<unknown>
    1456: 00 00        	<unknown>
    1458: 00 22        	<unknown>
    145a: 5a 05        	<unknown>
    145c: 00 00        	<unknown>
    145e: 08 9f        	<unknown>
    1460: 2d 12        	<unknown>
    1462: 00 00        	<unknown>
    1464: 01 01        	<unknown>
    1466: 0f 2d 12 00  	<unknown>
    146a: 00 00        	<unknown>
    146c: 22 da        	<unknown>
    146e: 04 00        	<unknown>
    1470: 00 08        	<unknown>
    1472: 3e 2d        	<unknown>
    1474: 12 00        	<unknown>
    1476: 00 01        	<unknown>
    1478: 01 0f        	<unknown>
    147a: 2d 12        	<unknown>
    147c: 00 00        	<unknown>
    147e: 00 22        	<unknown>
    1480: ea 04        	<unknown>
    1482: 00 00        	<unknown>
    1484: 08 47        	<unknown>
    1486: 2d 12        	<unknown>
    1488: 00 00        	<unknown>
    148a: 01 01        	<unknown>
    148c: 0f 2d 12 00  	<unknown>
    1490: 00 00        	<unknown>
    1492: 22 ad        	<unknown>
    1494: 07 00 00 08  	<unknown>
    1498: 5f 2d 12 00  	<unknown>
    149c: 00 01        	<unknown>
    149e: 01 0f        	<unknown>
    14a0: 2d 12        	<unknown>
    14a2: 00 00        	<unknown>
    14a4: 00 22        	<unknown>
    14a6: d5 05        	<unknown>
    14a8: 00 00        	<unknown>
    14aa: 08 a2        	<unknown>
    14ac: 2d 12        	<unknown>
    14ae: 00 00        	<unknown>
    14b0: 01 01        	<unknown>
    14b2: 0f 2d 12 00  	<unknown>
    14b6: 00 00        	<unknown>
    14b8: 22 f5        	<unknown>
    14ba: 05 00        	<unknown>
    14bc: 00 08        	<unknown>
    14be: a5 2d        	<unknown>
    14c0: 12 00        	<unknown>
    14c2: 00 01        	<unknown>
    14c4: 01 0f        	<unknown>
    14c6: 2d 12        	<unknown>
    14c8: 00 00        	<unknown>
    14ca: 00 22        	<unknown>
    14cc: 35 06        	<unknown>
    14ce: 00 00        	<unknown>
    14d0: 08 a8        	<unknown>
    14d2: 2d 12        	<unknown>
    14d4: 00 00        	<unknown>
    14d6: 01 01        	<unknown>
    14d8: 0f 2d 12 00  	<unknown>
    14dc: 00 0f        	<unknown>
    14de: 2d 12        	<unknown>
    14e0: 00 00        	<unknown>
    14e2: 00 22        	<unknown>
    14e4: 63 06 00 00  	beqz	zero, 0x14f0 <.debug_info+0x14f0>
    14e8: 08 62        	<unknown>
    14ea: 2d 12        	<unknown>
    14ec: 00 00        	<unknown>
    14ee: 01 01        	<unknown>
    14f0: 0f 2d 12 00  	<unknown>
    14f4: 00 0f        	<unknown>
    14f6: 8f 0f 00 00  	<unknown>
    14fa: 00 22        	<unknown>
    14fc: ab 07 00 00  	vx_tex	a5, zero, zero, zero
    1500: 08 65        	<unknown>
    1502: 2d 12        	<unknown>
    1504: 00 00        	<unknown>
    1506: 01 01        	<unknown>
    1508: 0f 2d 12 00  	<unknown>
    150c: 00 0f        	<unknown>
    150e: 1f 0d 00 00  	<unknown>
    1512: 00 22        	<unknown>
    1514: f1 07        	<unknown>
    1516: 00 00        	<unknown>
    1518: 08 68        	<unknown>
    151a: 2d 12        	<unknown>
    151c: 00 00        	<unknown>
    151e: 01 01        	<unknown>
    1520: 0f 2d 12 00  	<unknown>
    1524: 00 00        	<unknown>
    1526: 22 00        	<unknown>
    1528: 08 00        	<unknown>
    152a: 00 08        	<unknown>
    152c: 6b 2d 12 00  	<unknown>
    1530: 00 01        	<unknown>
    1532: 01 0f        	<unknown>
    1534: 2d 12        	<unknown>
    1536: 00 00        	<unknown>
    1538: 00 22        	<unknown>
    153a: 67 0d 00 00  	jalr	s10, zero <.debug_info>
    153e: 08 6e        	<unknown>
    1540: 2d 12        	<unknown>
    1542: 00 00        	<unknown>
    1544: 01 01        	<unknown>
    1546: 0f 2d 12 00  	<unknown>
    154a: 00 0f        	<unknown>
    154c: 51 15        	<unknown>
    154e: 00 00        	<unknown>
    1550: 00 13        	<unknown>
    1552: 2d 12        	<unknown>
    1554: 00 00        	<unknown>
    1556: 22 c1        	<unknown>
    1558: 08 00        	<unknown>
    155a: 00 08        	<unknown>
    155c: 8c 2d        	<unknown>
    155e: 12 00        	<unknown>
    1560: 00 01        	<unknown>
    1562: 01 0f        	<unknown>
    1564: 2d 12        	<unknown>
    1566: 00 00        	<unknown>
    1568: 0f 2d 12 00  	<unknown>
    156c: 00 00        	<unknown>
    156e: 22 fa        	<unknown>
    1570: 04 00        	<unknown>
    1572: 00 08        	<unknown>
    1574: 40 2d        	<unknown>
    1576: 12 00        	<unknown>
    1578: 00 01        	<unknown>
    157a: 01 0f        	<unknown>
    157c: 2d 12        	<unknown>
    157e: 00 00        	<unknown>
    1580: 00 22        	<unknown>
    1582: 0a 05        	<unknown>
    1584: 00 00        	<unknown>
    1586: 08 49        	<unknown>
    1588: 2d 12        	<unknown>
    158a: 00 00        	<unknown>
    158c: 01 01        	<unknown>
    158e: 0f 2d 12 00  	<unknown>
    1592: 00 00        	<unknown>
    1594: 22 66        	<unknown>
    1596: 09 00        	<unknown>
    1598: 00 08        	<unknown>
    159a: 8f 2d 12 00  	<unknown>
    159e: 00 01        	<unknown>
    15a0: 01 0f        	<unknown>
    15a2: 2d 12        	<unknown>
    15a4: 00 00        	<unknown>
    15a6: 00 22        	<unknown>
    15a8: 1a 05        	<unknown>
    15aa: 00 00        	<unknown>
    15ac: 08 42        	<unknown>
    15ae: 2d 12        	<unknown>
    15b0: 00 00        	<unknown>
    15b2: 01 01        	<unknown>
    15b4: 0f 2d 12 00  	<unknown>
    15b8: 00 00        	<unknown>
    15ba: 22 3c        	<unknown>
    15bc: 05 00        	<unknown>
    15be: 00 08        	<unknown>
    15c0: 4b 2d 12 00  	fnmsub.s	fs10, ft4, ft1, ft0, rdn
    15c4: 00 01        	<unknown>
    15c6: 01 0f        	<unknown>
    15c8: 2d 12        	<unknown>
    15ca: 00 00        	<unknown>
    15cc: 00 10        	<unknown>
    15ce: 2d 12        	<unknown>
    15d0: 00 00        	<unknown>
    15d2: a2 09        	<unknown>
    15d4: 00 00        	<unknown>
    15d6: 0a 96        	<unknown>
    15d8: 10 53        	<unknown>
    15da: 00 00        	<unknown>
    15dc: 00 ab        	<unknown>
    15de: 09 00        	<unknown>
    15e0: 00 0a        	<unknown>
    15e2: 95 22        	<unknown>
    15e4: e9 04        	<unknown>
    15e6: 00 00        	<unknown>
    15e8: 08 55        	<unknown>
    15ea: 2d 12        	<unknown>
    15ec: 00 00        	<unknown>
    15ee: 01 01        	<unknown>
    15f0: 0f 2d 12 00  	<unknown>
    15f4: 00 00        	<unknown>
    15f6: 22 e2        	<unknown>
    15f8: 04 00        	<unknown>
    15fa: 00 08        	<unknown>
    15fc: 55 53        	<unknown>
    15fe: 00 00        	<unknown>
    1600: 00 01        	<unknown>
    1602: 01 0f        	<unknown>
    1604: 53 00 00 00  	fadd.s	ft0, ft0, ft0, rne
    1608: 00 22        	<unknown>
    160a: b3 09 00 00  	add	s3, zero, zero
    160e: 08 55        	<unknown>
    1610: 1c 16        	<unknown>
    1612: 00 00        	<unknown>
    1614: 01 01        	<unknown>
    1616: 0f 1c 16 00  	<unknown>
    161a: 00 00        	<unknown>
    161c: 06 ba        	<unknown>
    161e: 09 00        	<unknown>
    1620: 00 04        	<unknown>
    1622: 08 22        	<unknown>
    1624: 09 05        	<unknown>
    1626: 00 00        	<unknown>
    1628: 08 57        	<unknown>
    162a: 2d 12        	<unknown>
    162c: 00 00        	<unknown>
    162e: 01 01        	<unknown>
    1630: 0f 2d 12 00  	<unknown>
    1634: 00 00        	<unknown>
    1636: 22 02        	<unknown>
    1638: 05 00        	<unknown>
    163a: 00 08        	<unknown>
    163c: 57 53 00 00  	<unknown>
    1640: 00 01        	<unknown>
    1642: 01 0f        	<unknown>
    1644: 53 00 00 00  	fadd.s	ft0, ft0, ft0, rne
    1648: 00 22        	<unknown>
    164a: c6 09        	<unknown>
    164c: 00 00        	<unknown>
    164e: 08 57        	<unknown>
    1650: 1c 16        	<unknown>
    1652: 00 00        	<unknown>
    1654: 01 01        	<unknown>
    1656: 0f 1c 16 00  	<unknown>
    165a: 00 00        	<unknown>
    165c: 22 3b        	<unknown>
    165e: 05 00        	<unknown>
    1660: 00 08        	<unknown>
    1662: 59 2d        	<unknown>
    1664: 12 00        	<unknown>
    1666: 00 01        	<unknown>
    1668: 01 0f        	<unknown>
    166a: 2d 12        	<unknown>
    166c: 00 00        	<unknown>
    166e: 00 22        	<unknown>
    1670: 34 05        	<unknown>
    1672: 00 00        	<unknown>
    1674: 08 59        	<unknown>
    1676: 53 00 00 00  	fadd.s	ft0, ft0, ft0, rne
    167a: 01 01        	<unknown>
    167c: 0f 53 00 00  	<unknown>
    1680: 00 00        	<unknown>
    1682: 22 cd        	<unknown>
    1684: 09 00        	<unknown>
    1686: 00 08        	<unknown>
    1688: 59 1c        	<unknown>
    168a: 16 00        	<unknown>
    168c: 00 01        	<unknown>
    168e: 01 0f        	<unknown>
    1690: 1c 16        	<unknown>
    1692: 00 00        	<unknown>
    1694: 00 22        	<unknown>
    1696: 4b 05 00 00  	fnmsub.s	fa0, ft0, ft0, ft0, rne
    169a: 08 98        	<unknown>
    169c: 2d 12        	<unknown>
    169e: 00 00        	<unknown>
    16a0: 01 01        	<unknown>
    16a2: 0f 2d 12 00  	<unknown>
    16a6: 00 00        	<unknown>
    16a8: 22 45        	<unknown>
    16aa: 05 00        	<unknown>
    16ac: 00 08        	<unknown>
    16ae: 98 53        	<unknown>
    16b0: 00 00        	<unknown>
    16b2: 00 01        	<unknown>
    16b4: 01 0f        	<unknown>
    16b6: 53 00 00 00  	fadd.s	ft0, ft0, ft0, rne
    16ba: 00 22        	<unknown>
    16bc: d4 09        	<unknown>
    16be: 00 00        	<unknown>
    16c0: 08 98        	<unknown>
    16c2: 1c 16        	<unknown>
    16c4: 00 00        	<unknown>
    16c6: 01 01        	<unknown>
    16c8: 0f 1c 16 00  	<unknown>
    16cc: 00 00        	<unknown>
    16ce: 22 6e        	<unknown>
    16d0: 05 00        	<unknown>
    16d2: 00 08        	<unknown>
    16d4: c4 2d        	<unknown>
    16d6: 12 00        	<unknown>
    16d8: 00 01        	<unknown>
    16da: 01 0f        	<unknown>
    16dc: 2d 12        	<unknown>
    16de: 00 00        	<unknown>
    16e0: 0f 2d 12 00  	<unknown>
    16e4: 00 00        	<unknown>
    16e6: 22 da        	<unknown>
    16e8: 09 00        	<unknown>
    16ea: 00 08        	<unknown>
    16ec: c4 53        	<unknown>
    16ee: 00 00        	<unknown>
    16f0: 00 01        	<unknown>
    16f2: 01 0f        	<unknown>
    16f4: 53 00 00 00  	fadd.s	ft0, ft0, ft0, rne
    16f8: 0f 53 00 00  	<unknown>
    16fc: 00 00        	<unknown>
    16fe: 22 e4        	<unknown>
    1700: 09 00        	<unknown>
    1702: 00 08        	<unknown>
    1704: c4 1c        	<unknown>
    1706: 16 00        	<unknown>
    1708: 00 01        	<unknown>
    170a: 01 0f        	<unknown>
    170c: 1c 16        	<unknown>
    170e: 00 00        	<unknown>
    1710: 0f 1c 16 00  	<unknown>
    1714: 00 00        	<unknown>
    1716: 22 bf        	<unknown>
    1718: 0a 00        	<unknown>
    171a: 00 08        	<unknown>
    171c: e4 2d        	<unknown>
    171e: 12 00        	<unknown>
    1720: 00 01        	<unknown>
    1722: 01 0f        	<unknown>
    1724: 2d 12        	<unknown>
    1726: 00 00        	<unknown>
    1728: 00 22        	<unknown>
    172a: 8e 05        	<unknown>
    172c: 00 00        	<unknown>
    172e: 08 e4        	<unknown>
    1730: 53 00 00 00  	fadd.s	ft0, ft0, ft0, rne
    1734: 01 01        	<unknown>
    1736: 0f 53 00 00  	<unknown>
    173a: 00 00        	<unknown>
    173c: 22 ee        	<unknown>
    173e: 09 00        	<unknown>
    1740: 00 08        	<unknown>
    1742: e4 1c        	<unknown>
    1744: 16 00        	<unknown>
    1746: 00 01        	<unknown>
    1748: 01 0f        	<unknown>
    174a: 1c 16        	<unknown>
    174c: 00 00        	<unknown>
    174e: 00 22        	<unknown>
    1750: 9d 05        	<unknown>
    1752: 00 00        	<unknown>
    1754: 08 e5        	<unknown>
    1756: 2d 12        	<unknown>
    1758: 00 00        	<unknown>
    175a: 01 01        	<unknown>
    175c: 0f 2d 12 00  	<unknown>
    1760: 00 00        	<unknown>
    1762: 22 97        	<unknown>
    1764: 05 00        	<unknown>
    1766: 00 08        	<unknown>
    1768: e5 53        	<unknown>
    176a: 00 00        	<unknown>
    176c: 00 01        	<unknown>
    176e: 01 0f        	<unknown>
    1770: 53 00 00 00  	fadd.s	ft0, ft0, ft0, rne
    1774: 00 22        	<unknown>
    1776: f3 09 00 00  	<unknown>
    177a: 08 e5        	<unknown>
    177c: 1c 16        	<unknown>
    177e: 00 00        	<unknown>
    1780: 01 01        	<unknown>
    1782: 0f 1c 16 00  	<unknown>
    1786: 00 00        	<unknown>
    1788: 22 b5        	<unknown>
    178a: 05 00        	<unknown>
    178c: 00 08        	<unknown>
    178e: 82 2d        	<unknown>
    1790: 12 00        	<unknown>
    1792: 00 01        	<unknown>
    1794: 01 0f        	<unknown>
    1796: 2d 12        	<unknown>
    1798: 00 00        	<unknown>
    179a: 00 22        	<unknown>
    179c: af 05 00 00  	<unknown>
    17a0: 08 82        	<unknown>
    17a2: 53 00 00 00  	fadd.s	ft0, ft0, ft0, rne
    17a6: 01 01        	<unknown>
    17a8: 0f 53 00 00  	<unknown>
    17ac: 00 00        	<unknown>
    17ae: 22 f9        	<unknown>
    17b0: 09 00        	<unknown>
    17b2: 00 08        	<unknown>
    17b4: 82 1c        	<unknown>
    17b6: 16 00        	<unknown>
    17b8: 00 01        	<unknown>
    17ba: 01 0f        	<unknown>
    17bc: 1c 16        	<unknown>
    17be: 00 00        	<unknown>
    17c0: 00 22        	<unknown>
    17c2: c5 05        	<unknown>
    17c4: 00 00        	<unknown>
    17c6: 08 77        	<unknown>
    17c8: 2d 12        	<unknown>
    17ca: 00 00        	<unknown>
    17cc: 01 01        	<unknown>
    17ce: 0f 2d 12 00  	<unknown>
    17d2: 00 00        	<unknown>
    17d4: 22 be        	<unknown>
    17d6: 05 00        	<unknown>
    17d8: 00 08        	<unknown>
    17da: 77 53 00 00  	<unknown>
    17de: 00 01        	<unknown>
    17e0: 01 0f        	<unknown>
    17e2: 53 00 00 00  	fadd.s	ft0, ft0, ft0, rne
    17e6: 00 22        	<unknown>
    17e8: ff 09 00 00  	<unknown>
    17ec: 08 77        	<unknown>
    17ee: 1c 16        	<unknown>
    17f0: 00 00        	<unknown>
    17f2: 01 01        	<unknown>
    17f4: 0f 1c 16 00  	<unknown>
    17f8: 00 00        	<unknown>
    17fa: 21 e5        	<unknown>
    17fc: 05 00        	<unknown>
    17fe: 00 08        	<unknown>
    1800: 46 01        	<unknown>
    1802: 2d 12        	<unknown>
    1804: 00 00        	<unknown>
    1806: 01 01        	<unknown>
    1808: 0f 2d 12 00  	<unknown>
    180c: 00 0f        	<unknown>
    180e: 2d 12        	<unknown>
    1810: 00 00        	<unknown>
    1812: 00 21        	<unknown>
    1814: 06 0a        	<unknown>
    1816: 00 00        	<unknown>
    1818: 08 46        	<unknown>
    181a: 01 53        	<unknown>
    181c: 00 00        	<unknown>
    181e: 00 01        	<unknown>
    1820: 01 0f        	<unknown>
    1822: 53 00 00 00  	fadd.s	ft0, ft0, ft0, rne
    1826: 0f 53 00 00  	<unknown>
    182a: 00 00        	<unknown>
    182c: 21 0c        	<unknown>
    182e: 0a 00        	<unknown>
    1830: 00 08        	<unknown>
    1832: 46 01        	<unknown>
    1834: 1c 16        	<unknown>
    1836: 00 00        	<unknown>
    1838: 01 01        	<unknown>
    183a: 0f 1c 16 00  	<unknown>
    183e: 00 0f        	<unknown>
    1840: 1c 16        	<unknown>
    1842: 00 00        	<unknown>
    1844: 00 21        	<unknown>
    1846: 06 06        	<unknown>
    1848: 00 00        	<unknown>
    184a: 08 4f        	<unknown>
    184c: 01 2d        	<unknown>
    184e: 12 00        	<unknown>
    1850: 00 01        	<unknown>
    1852: 01 0f        	<unknown>
    1854: 2d 12        	<unknown>
    1856: 00 00        	<unknown>
    1858: 0f 2d 12 00  	<unknown>
    185c: 00 0f        	<unknown>
    185e: 2d 12        	<unknown>
    1860: 00 00        	<unknown>
    1862: 00 21        	<unknown>
    1864: 12 0a        	<unknown>
    1866: 00 00        	<unknown>
    1868: 08 4f        	<unknown>
    186a: 01 53        	<unknown>
    186c: 00 00        	<unknown>
    186e: 00 01        	<unknown>
    1870: 01 0f        	<unknown>
    1872: 53 00 00 00  	fadd.s	ft0, ft0, ft0, rne
    1876: 0f 53 00 00  	<unknown>
    187a: 00 0f        	<unknown>
    187c: 53 00 00 00  	fadd.s	ft0, ft0, ft0, rne
    1880: 00 21        	<unknown>
    1882: 17 0a 00 00  	auipc	s4, 0x0
    1886: 08 4f        	<unknown>
    1888: 01 1c        	<unknown>
    188a: 16 00        	<unknown>
    188c: 00 01        	<unknown>
    188e: 01 0f        	<unknown>
    1890: 1c 16        	<unknown>
    1892: 00 00        	<unknown>
    1894: 0f 1c 16 00  	<unknown>
    1898: 00 0f        	<unknown>
    189a: 1c 16        	<unknown>
    189c: 00 00        	<unknown>
    189e: 00 21        	<unknown>
    18a0: 15 06        	<unknown>
    18a2: 00 00        	<unknown>
    18a4: 08 49        	<unknown>
    18a6: 01 2d        	<unknown>
    18a8: 12 00        	<unknown>
    18aa: 00 01        	<unknown>
    18ac: 01 0f        	<unknown>
    18ae: 2d 12        	<unknown>
    18b0: 00 00        	<unknown>
    18b2: 0f 2d 12 00  	<unknown>
    18b6: 00 00        	<unknown>
    18b8: 21 1c        	<unknown>
    18ba: 0a 00        	<unknown>
    18bc: 00 08        	<unknown>
    18be: 49 01        	<unknown>
    18c0: 53 00 00 00  	fadd.s	ft0, ft0, ft0, rne
    18c4: 01 01        	<unknown>
    18c6: 0f 53 00 00  	<unknown>
    18ca: 00 0f        	<unknown>
    18cc: 53 00 00 00  	fadd.s	ft0, ft0, ft0, rne
    18d0: 00 21        	<unknown>
    18d2: 22 0a        	<unknown>
    18d4: 00 00        	<unknown>
    18d6: 08 49        	<unknown>
    18d8: 01 1c        	<unknown>
    18da: 16 00        	<unknown>
    18dc: 00 01        	<unknown>
    18de: 01 0f        	<unknown>
    18e0: 1c 16        	<unknown>
    18e2: 00 00        	<unknown>
    18e4: 0f 1c 16 00  	<unknown>
    18e8: 00 00        	<unknown>
    18ea: 21 25        	<unknown>
    18ec: 06 00        	<unknown>
    18ee: 00 08        	<unknown>
    18f0: 4c 01        	<unknown>
    18f2: 2d 12        	<unknown>
    18f4: 00 00        	<unknown>
    18f6: 01 01        	<unknown>
    18f8: 0f 2d 12 00  	<unknown>
    18fc: 00 0f        	<unknown>
    18fe: 2d 12        	<unknown>
    1900: 00 00        	<unknown>
    1902: 00 21        	<unknown>
    1904: 28 0a        	<unknown>
    1906: 00 00        	<unknown>
    1908: 08 4c        	<unknown>
    190a: 01 53        	<unknown>
    190c: 00 00        	<unknown>
    190e: 00 01        	<unknown>
    1910: 01 0f        	<unknown>
    1912: 53 00 00 00  	fadd.s	ft0, ft0, ft0, rne
    1916: 0f 53 00 00  	<unknown>
    191a: 00 00        	<unknown>
    191c: 21 2e        	<unknown>
    191e: 0a 00        	<unknown>
    1920: 00 08        	<unknown>
    1922: 4c 01        	<unknown>
    1924: 1c 16        	<unknown>
    1926: 00 00        	<unknown>
    1928: 01 01        	<unknown>
    192a: 0f 1c 16 00  	<unknown>
    192e: 00 0f        	<unknown>
    1930: 1c 16        	<unknown>
    1932: 00 00        	<unknown>
    1934: 00 22        	<unknown>
    1936: 75 06        	<unknown>
    1938: 00 00        	<unknown>
    193a: 08 93        	<unknown>
    193c: 2d 12        	<unknown>
    193e: 00 00        	<unknown>
    1940: 01 01        	<unknown>
    1942: 0f 2d 12 00  	<unknown>
    1946: 00 0f        	<unknown>
    1948: 2d 12        	<unknown>
    194a: 00 00        	<unknown>
    194c: 00 22        	<unknown>
    194e: 34 0a        	<unknown>
    1950: 00 00        	<unknown>
    1952: 08 93        	<unknown>
    1954: 53 00 00 00  	fadd.s	ft0, ft0, ft0, rne
    1958: 01 01        	<unknown>
    195a: 0f 53 00 00  	<unknown>
    195e: 00 0f        	<unknown>
    1960: 53 00 00 00  	fadd.s	ft0, ft0, ft0, rne
    1964: 00 22        	<unknown>
    1966: 3b 0a 00 00  	addw	s4, zero, zero
    196a: 08 93        	<unknown>
    196c: 1c 16        	<unknown>
    196e: 00 00        	<unknown>
    1970: 01 01        	<unknown>
    1972: 0f 1c 16 00  	<unknown>
    1976: 00 0f        	<unknown>
    1978: 1c 16        	<unknown>
    197a: 00 00        	<unknown>
    197c: 00 21        	<unknown>
    197e: 86 06        	<unknown>
    1980: 00 00        	<unknown>
    1982: 08 18        	<unknown>
    1984: 01 1f        	<unknown>
    1986: 0d 00        	<unknown>
    1988: 00 01        	<unknown>
    198a: 01 0f        	<unknown>
    198c: 2d 12        	<unknown>
    198e: 00 00        	<unknown>
    1990: 00 21        	<unknown>
    1992: 7f 06 00 00  	<unknown>
    1996: 08 18        	<unknown>
    1998: 01 1f        	<unknown>
    199a: 0d 00        	<unknown>
    199c: 00 01        	<unknown>
    199e: 01 0f        	<unknown>
    19a0: 53 00 00 00  	fadd.s	ft0, ft0, ft0, rne
    19a4: 00 21        	<unknown>
    19a6: 42 0a        	<unknown>
    19a8: 00 00        	<unknown>
    19aa: 08 18        	<unknown>
    19ac: 01 1f        	<unknown>
    19ae: 0d 00        	<unknown>
    19b0: 00 01        	<unknown>
    19b2: 01 0f        	<unknown>
    19b4: 1c 16        	<unknown>
    19b6: 00 00        	<unknown>
    19b8: 00 22        	<unknown>
    19ba: bd 07        	<unknown>
    19bc: 00 00        	<unknown>
    19be: 08 e6        	<unknown>
    19c0: 2d 12        	<unknown>
    19c2: 00 00        	<unknown>
    19c4: 01 01        	<unknown>
    19c6: 0f 2d 12 00  	<unknown>
    19ca: 00 00        	<unknown>
    19cc: 22 b5        	<unknown>
    19ce: 07 00 00 08  	<unknown>
    19d2: e6 53        	<unknown>
    19d4: 00 00        	<unknown>
    19d6: 00 01        	<unknown>
    19d8: 01 0f        	<unknown>
    19da: 53 00 00 00  	fadd.s	ft0, ft0, ft0, rne
    19de: 00 22        	<unknown>
    19e0: 49 0a        	<unknown>
    19e2: 00 00        	<unknown>
    19e4: 08 e6        	<unknown>
    19e6: 1c 16        	<unknown>
    19e8: 00 00        	<unknown>
    19ea: 01 01        	<unknown>
    19ec: 0f 1c 16 00  	<unknown>
    19f0: 00 00        	<unknown>
    19f2: 21 e1        	<unknown>
    19f4: 07 00 00 08  	<unknown>
    19f8: 3c 01        	<unknown>
    19fa: 2a 11        	<unknown>
    19fc: 00 00        	<unknown>
    19fe: 01 01        	<unknown>
    1a00: 0f 2d 12 00  	<unknown>
    1a04: 00 00        	<unknown>
    1a06: 21 d9        	<unknown>
    1a08: 07 00 00 08  	<unknown>
    1a0c: 3c 01        	<unknown>
    1a0e: 2a 11        	<unknown>
    1a10: 00 00        	<unknown>
    1a12: 01 01        	<unknown>
    1a14: 0f 53 00 00  	<unknown>
    1a18: 00 00        	<unknown>
    1a1a: 21 51        	<unknown>
    1a1c: 0a 00        	<unknown>
    1a1e: 00 08        	<unknown>
    1a20: 3c 01        	<unknown>
    1a22: 2a 11        	<unknown>
    1a24: 00 00        	<unknown>
    1a26: 01 01        	<unknown>
    1a28: 0f 1c 16 00  	<unknown>
    1a2c: 00 00        	<unknown>
    1a2e: 21 54        	<unknown>
    1a30: 08 00        	<unknown>
    1a32: 00 08        	<unknown>
    1a34: 42 01        	<unknown>
    1a36: 2a 11        	<unknown>
    1a38: 00 00        	<unknown>
    1a3a: 01 01        	<unknown>
    1a3c: 0f 2d 12 00  	<unknown>
    1a40: 00 00        	<unknown>
    1a42: 21 4b        	<unknown>
    1a44: 08 00        	<unknown>
    1a46: 00 08        	<unknown>
    1a48: 42 01        	<unknown>
    1a4a: 2a 11        	<unknown>
    1a4c: 00 00        	<unknown>
    1a4e: 01 01        	<unknown>
    1a50: 0f 53 00 00  	<unknown>
    1a54: 00 00        	<unknown>
    1a56: 21 59        	<unknown>
    1a58: 0a 00        	<unknown>
    1a5a: 00 08        	<unknown>
    1a5c: 42 01        	<unknown>
    1a5e: 2a 11        	<unknown>
    1a60: 00 00        	<unknown>
    1a62: 01 01        	<unknown>
    1a64: 0f 1c 16 00  	<unknown>
    1a68: 00 00        	<unknown>
    1a6a: 22 11        	<unknown>
    1a6c: 08 00        	<unknown>
    1a6e: 00 08        	<unknown>
    1a70: 7a 2d        	<unknown>
    1a72: 12 00        	<unknown>
    1a74: 00 01        	<unknown>
    1a76: 01 0f        	<unknown>
    1a78: 2d 12        	<unknown>
    1a7a: 00 00        	<unknown>
    1a7c: 00 22        	<unknown>
    1a7e: 0a 08        	<unknown>
    1a80: 00 00        	<unknown>
    1a82: 08 7a        	<unknown>
    1a84: 53 00 00 00  	fadd.s	ft0, ft0, ft0, rne
    1a88: 01 01        	<unknown>
    1a8a: 0f 53 00 00  	<unknown>
    1a8e: 00 00        	<unknown>
    1a90: 22 62        	<unknown>
    1a92: 0a 00        	<unknown>
    1a94: 00 08        	<unknown>
    1a96: 7a 1c        	<unknown>
    1a98: 16 00        	<unknown>
    1a9a: 00 01        	<unknown>
    1a9c: 01 0f        	<unknown>
    1a9e: 1c 16        	<unknown>
    1aa0: 00 00        	<unknown>
    1aa2: 00 22        	<unknown>
    1aa4: 21 08        	<unknown>
    1aa6: 00 00        	<unknown>
    1aa8: 08 85        	<unknown>
    1aaa: 2d 12        	<unknown>
    1aac: 00 00        	<unknown>
    1aae: 01 01        	<unknown>
    1ab0: 0f 2d 12 00  	<unknown>
    1ab4: 00 00        	<unknown>
    1ab6: 22 1b        	<unknown>
    1ab8: 08 00        	<unknown>
    1aba: 00 08        	<unknown>
    1abc: 85 53        	<unknown>
    1abe: 00 00        	<unknown>
    1ac0: 00 01        	<unknown>
    1ac2: 01 0f        	<unknown>
    1ac4: 53 00 00 00  	fadd.s	ft0, ft0, ft0, rne
    1ac8: 00 22        	<unknown>
    1aca: 69 0a        	<unknown>
    1acc: 00 00        	<unknown>
    1ace: 08 85        	<unknown>
    1ad0: 1c 16        	<unknown>
    1ad2: 00 00        	<unknown>
    1ad4: 01 01        	<unknown>
    1ad6: 0f 1c 16 00  	<unknown>
    1ada: 00 00        	<unknown>
    1adc: 22 87        	<unknown>
    1ade: 06 00        	<unknown>
    1ae0: 00 08        	<unknown>
    1ae2: 7d 2d        	<unknown>
    1ae4: 12 00        	<unknown>
    1ae6: 00 01        	<unknown>
    1ae8: 01 0f        	<unknown>
    1aea: 2d 12        	<unknown>
    1aec: 00 00        	<unknown>
    1aee: 00 22        	<unknown>
    1af0: 2a 08        	<unknown>
    1af2: 00 00        	<unknown>
    1af4: 08 7d        	<unknown>
    1af6: 53 00 00 00  	fadd.s	ft0, ft0, ft0, rne
    1afa: 01 01        	<unknown>
    1afc: 0f 53 00 00  	<unknown>
    1b00: 00 00        	<unknown>
    1b02: 22 43        	<unknown>
    1b04: 0a 00        	<unknown>
    1b06: 00 08        	<unknown>
    1b08: 7d 1c        	<unknown>
    1b0a: 16 00        	<unknown>
    1b0c: 00 01        	<unknown>
    1b0e: 01 0f        	<unknown>
    1b10: 1c 16        	<unknown>
    1b12: 00 00        	<unknown>
    1b14: 00 21        	<unknown>
    1b16: e2 07        	<unknown>
    1b18: 00 00        	<unknown>
    1b1a: 08 3a        	<unknown>
    1b1c: 01 dc        	<unknown>
    1b1e: 10 00        	<unknown>
    1b20: 00 01        	<unknown>
    1b22: 01 0f        	<unknown>
    1b24: 2d 12        	<unknown>
    1b26: 00 00        	<unknown>
    1b28: 00 21        	<unknown>
    1b2a: 34 08        	<unknown>
    1b2c: 00 00        	<unknown>
    1b2e: 08 3a        	<unknown>
    1b30: 01 dc        	<unknown>
    1b32: 10 00        	<unknown>
    1b34: 00 01        	<unknown>
    1b36: 01 0f        	<unknown>
    1b38: 53 00 00 00  	fadd.s	ft0, ft0, ft0, rne
    1b3c: 00 21        	<unknown>
    1b3e: 52 0a        	<unknown>
    1b40: 00 00        	<unknown>
    1b42: 08 3a        	<unknown>
    1b44: 01 dc        	<unknown>
    1b46: 10 00        	<unknown>
    1b48: 00 01        	<unknown>
    1b4a: 01 0f        	<unknown>
    1b4c: 1c 16        	<unknown>
    1b4e: 00 00        	<unknown>
    1b50: 00 21        	<unknown>
    1b52: 55 08        	<unknown>
    1b54: 00 00        	<unknown>
    1b56: 08 40        	<unknown>
    1b58: 01 dc        	<unknown>
    1b5a: 10 00        	<unknown>
    1b5c: 00 01        	<unknown>
    1b5e: 01 0f        	<unknown>
    1b60: 2d 12        	<unknown>
    1b62: 00 00        	<unknown>
    1b64: 00 21        	<unknown>
    1b66: 3f 08 00 00  	<unknown>
    1b6a: 08 40        	<unknown>
    1b6c: 01 dc        	<unknown>
    1b6e: 10 00        	<unknown>
    1b70: 00 01        	<unknown>
    1b72: 01 0f        	<unknown>
    1b74: 53 00 00 00  	fadd.s	ft0, ft0, ft0, rne
    1b78: 00 21        	<unknown>
    1b7a: 5a 0a        	<unknown>
    1b7c: 00 00        	<unknown>
    1b7e: 08 40        	<unknown>
    1b80: 01 dc        	<unknown>
    1b82: 10 00        	<unknown>
    1b84: 00 01        	<unknown>
    1b86: 01 0f        	<unknown>
    1b88: 1c 16        	<unknown>
    1b8a: 00 00        	<unknown>
    1b8c: 00 22        	<unknown>
    1b8e: 5b 07 00 00  	<unknown>
    1b92: 08 c9        	<unknown>
    1b94: 2d 12        	<unknown>
    1b96: 00 00        	<unknown>
    1b98: 01 01        	<unknown>
    1b9a: 0f 34 12 00  	<unknown>
    1b9e: 00 00        	<unknown>
    1ba0: 22 54        	<unknown>
    1ba2: 07 00 00 08  	<unknown>
    1ba6: c9 53        	<unknown>
    1ba8: 00 00        	<unknown>
    1baa: 00 01        	<unknown>
    1bac: 01 0f        	<unknown>
    1bae: 34 12        	<unknown>
    1bb0: 00 00        	<unknown>
    1bb2: 00 22        	<unknown>
    1bb4: 6f 0a 00 00  	jal	s4, 0x1bb4 <.debug_info+0x1bb4>
    1bb8: 08 c9        	<unknown>
    1bba: 1c 16        	<unknown>
    1bbc: 00 00        	<unknown>
    1bbe: 01 01        	<unknown>
    1bc0: 0f 34 12 00  	<unknown>
    1bc4: 00 00        	<unknown>
    1bc6: 21 93        	<unknown>
    1bc8: 08 00        	<unknown>
    1bca: 00 08        	<unknown>
    1bcc: 26 01        	<unknown>
    1bce: 2d 12        	<unknown>
    1bd0: 00 00        	<unknown>
    1bd2: 01 01        	<unknown>
    1bd4: 0f 2d 12 00  	<unknown>
    1bd8: 00 00        	<unknown>
    1bda: 21 88        	<unknown>
    1bdc: 08 00        	<unknown>
    1bde: 00 08        	<unknown>
    1be0: 26 01        	<unknown>
    1be2: 53 00 00 00  	fadd.s	ft0, ft0, ft0, rne
    1be6: 01 01        	<unknown>
    1be8: 0f 53 00 00  	<unknown>
    1bec: 00 00        	<unknown>
    1bee: 21 74        	<unknown>
    1bf0: 0a 00        	<unknown>
    1bf2: 00 08        	<unknown>
    1bf4: 26 01        	<unknown>
    1bf6: 1c 16        	<unknown>
    1bf8: 00 00        	<unknown>
    1bfa: 01 01        	<unknown>
    1bfc: 0f 1c 16 00  	<unknown>
    1c00: 00 00        	<unknown>
    1c02: 21 ad        	<unknown>
    1c04: 08 00        	<unknown>
    1c06: 00 08        	<unknown>
    1c08: 03 01 2d 12  	lb	sp, 0x122(s10)
    1c0c: 00 00        	<unknown>
    1c0e: 01 01        	<unknown>
    1c10: 0f 2d 12 00  	<unknown>
    1c14: 00 0f        	<unknown>
    1c16: 2d 12        	<unknown>
    1c18: 00 00        	<unknown>
    1c1a: 00 21        	<unknown>
    1c1c: 7f 0a 00 00  	<unknown>
    1c20: 08 03        	<unknown>
    1c22: 01 53        	<unknown>
    1c24: 00 00        	<unknown>
    1c26: 00 01        	<unknown>
    1c28: 01 0f        	<unknown>
    1c2a: 53 00 00 00  	fadd.s	ft0, ft0, ft0, rne
    1c2e: 0f 53 00 00  	<unknown>
    1c32: 00 00        	<unknown>
    1c34: 21 8a        	<unknown>
    1c36: 0a 00        	<unknown>
    1c38: 00 08        	<unknown>
    1c3a: 03 01 1c 16  	lb	sp, 0x161(s8)
    1c3e: 00 00        	<unknown>
    1c40: 01 01        	<unknown>
    1c42: 0f 1c 16 00  	<unknown>
    1c46: 00 0f        	<unknown>
    1c48: 1c 16        	<unknown>
    1c4a: 00 00        	<unknown>
    1c4c: 00 21        	<unknown>
    1c4e: 95 0a        	<unknown>
    1c50: 00 00        	<unknown>
    1c52: 08 05        	<unknown>
    1c54: 01 2d        	<unknown>
    1c56: 12 00        	<unknown>
    1c58: 00 01        	<unknown>
    1c5a: 01 0f        	<unknown>
    1c5c: 2d 12        	<unknown>
    1c5e: 00 00        	<unknown>
    1c60: 0f 1c 16 00  	<unknown>
    1c64: 00 00        	<unknown>
    1c66: 21 a0        	<unknown>
    1c68: 0a 00        	<unknown>
    1c6a: 00 08        	<unknown>
    1c6c: 05 01        	<unknown>
    1c6e: 53 00 00 00  	fadd.s	ft0, ft0, ft0, rne
    1c72: 01 01        	<unknown>
    1c74: 0f 53 00 00  	<unknown>
    1c78: 00 0f        	<unknown>
    1c7a: 1c 16        	<unknown>
    1c7c: 00 00        	<unknown>
    1c7e: 00 21        	<unknown>
    1c80: ac 0a        	<unknown>
    1c82: 00 00        	<unknown>
    1c84: 08 05        	<unknown>
    1c86: 01 1c        	<unknown>
    1c88: 16 00        	<unknown>
    1c8a: 00 01        	<unknown>
    1c8c: 01 0f        	<unknown>
    1c8e: 1c 16        	<unknown>
    1c90: 00 00        	<unknown>
    1c92: 0f 1c 16 00  	<unknown>
    1c96: 00 00        	<unknown>
    1c98: 21 d5        	<unknown>
    1c9a: 08 00        	<unknown>
    1c9c: 00 08        	<unknown>
    1c9e: 10 01        	<unknown>
    1ca0: 2d 12        	<unknown>
    1ca2: 00 00        	<unknown>
    1ca4: 01 01        	<unknown>
    1ca6: 0f 2d 12 00  	<unknown>
    1caa: 00 0f        	<unknown>
    1cac: 2d 12        	<unknown>
    1cae: 00 00        	<unknown>
    1cb0: 00 21        	<unknown>
    1cb2: b8 0a        	<unknown>
    1cb4: 00 00        	<unknown>
    1cb6: 08 10        	<unknown>
    1cb8: 01 53        	<unknown>
    1cba: 00 00        	<unknown>
    1cbc: 00 01        	<unknown>
    1cbe: 01 0f        	<unknown>
    1cc0: 53 00 00 00  	fadd.s	ft0, ft0, ft0, rne
    1cc4: 0f 53 00 00  	<unknown>
    1cc8: 00 00        	<unknown>
    1cca: 21 c3        	<unknown>
    1ccc: 0a 00        	<unknown>
    1cce: 00 08        	<unknown>
    1cd0: 10 01        	<unknown>
    1cd2: 1c 16        	<unknown>
    1cd4: 00 00        	<unknown>
    1cd6: 01 01        	<unknown>
    1cd8: 0f 1c 16 00  	<unknown>
    1cdc: 00 0f        	<unknown>
    1cde: 1c 16        	<unknown>
    1ce0: 00 00        	<unknown>
    1ce2: 00 21        	<unknown>
    1ce4: ee 08        	<unknown>
    1ce6: 00 00        	<unknown>
    1ce8: 08 33        	<unknown>
    1cea: 01 2d        	<unknown>
    1cec: 12 00        	<unknown>
    1cee: 00 01        	<unknown>
    1cf0: 01 0f        	<unknown>
    1cf2: 2d 12        	<unknown>
    1cf4: 00 00        	<unknown>
    1cf6: 0f 2d 12 00  	<unknown>
    1cfa: 00 0f        	<unknown>
    1cfc: 8f 0f 00 00  	<unknown>
    1d00: 00 21        	<unknown>
    1d02: ce 0a        	<unknown>
    1d04: 00 00        	<unknown>
    1d06: 08 33        	<unknown>
    1d08: 01 53        	<unknown>
    1d0a: 00 00        	<unknown>
    1d0c: 00 01        	<unknown>
    1d0e: 01 0f        	<unknown>
    1d10: 53 00 00 00  	fadd.s	ft0, ft0, ft0, rne
    1d14: 0f 53 00 00  	<unknown>
    1d18: 00 0f        	<unknown>
    1d1a: 8f 0f 00 00  	<unknown>
    1d1e: 00 21        	<unknown>
    1d20: d6 0a        	<unknown>
    1d22: 00 00        	<unknown>
    1d24: 08 33        	<unknown>
    1d26: 01 1c        	<unknown>
    1d28: 16 00        	<unknown>
    1d2a: 00 01        	<unknown>
    1d2c: 01 0f        	<unknown>
    1d2e: 1c 16        	<unknown>
    1d30: 00 00        	<unknown>
    1d32: 0f 1c 16 00  	<unknown>
    1d36: 00 0f        	<unknown>
    1d38: 8f 0f 00 00  	<unknown>
    1d3c: 00 21        	<unknown>
    1d3e: e3 07 00 00  	beqz	zero, 0x254c <.debug_info+0x254c>
    1d42: 08 00        	<unknown>
    1d44: 01 2d        	<unknown>
    1d46: 12 00        	<unknown>
    1d48: 00 01        	<unknown>
    1d4a: 01 0f        	<unknown>
    1d4c: 2d 12        	<unknown>
    1d4e: 00 00        	<unknown>
    1d50: 00 21        	<unknown>
    1d52: f9 08        	<unknown>
    1d54: 00 00        	<unknown>
    1d56: 08 00        	<unknown>
    1d58: 01 53        	<unknown>
    1d5a: 00 00        	<unknown>
    1d5c: 00 01        	<unknown>
    1d5e: 01 0f        	<unknown>
    1d60: 53 00 00 00  	fadd.s	ft0, ft0, ft0, rne
    1d64: 00 21        	<unknown>
    1d66: 53 0a 00 00  	fadd.s	fs4, ft0, ft0, rne
    1d6a: 08 00        	<unknown>
    1d6c: 01 1c        	<unknown>
    1d6e: 16 00        	<unknown>
    1d70: 00 01        	<unknown>
    1d72: 01 0f        	<unknown>
    1d74: 1c 16        	<unknown>
    1d76: 00 00        	<unknown>
    1d78: 00 21        	<unknown>
    1d7a: 56 08        	<unknown>
    1d7c: 00 00        	<unknown>
    1d7e: 08 2a        	<unknown>
    1d80: 01 2d        	<unknown>
    1d82: 12 00        	<unknown>
    1d84: 00 01        	<unknown>
    1d86: 01 0f        	<unknown>
    1d88: 2d 12        	<unknown>
    1d8a: 00 00        	<unknown>
    1d8c: 00 21        	<unknown>
    1d8e: 03 09 00 00  	lb	s2, 0x0(zero)
    1d92: 08 2a        	<unknown>
    1d94: 01 53        	<unknown>
    1d96: 00 00        	<unknown>
    1d98: 00 01        	<unknown>
    1d9a: 01 0f        	<unknown>
    1d9c: 53 00 00 00  	fadd.s	ft0, ft0, ft0, rne
    1da0: 00 21        	<unknown>
    1da2: 5b 0a 00 00  	<unknown>
    1da6: 08 2a        	<unknown>
    1da8: 01 1c        	<unknown>
    1daa: 16 00        	<unknown>
    1dac: 00 01        	<unknown>
    1dae: 01 0f        	<unknown>
    1db0: 1c 16        	<unknown>
    1db2: 00 00        	<unknown>
    1db4: 00 21        	<unknown>
    1db6: 18 09        	<unknown>
    1db8: 00 00        	<unknown>
    1dba: 08 22        	<unknown>
    1dbc: 01 2d        	<unknown>
    1dbe: 12 00        	<unknown>
    1dc0: 00 01        	<unknown>
    1dc2: 01 0f        	<unknown>
    1dc4: 2d 12        	<unknown>
    1dc6: 00 00        	<unknown>
    1dc8: 0f dc 10 00  	<unknown>
    1dcc: 00 00        	<unknown>
    1dce: 21 de        	<unknown>
    1dd0: 0a 00        	<unknown>
    1dd2: 00 08        	<unknown>
    1dd4: 22 01        	<unknown>
    1dd6: 53 00 00 00  	fadd.s	ft0, ft0, ft0, rne
    1dda: 01 01        	<unknown>
    1ddc: 0f 53 00 00  	<unknown>
    1de0: 00 0f        	<unknown>
    1de2: dc 10        	<unknown>
    1de4: 00 00        	<unknown>
    1de6: 00 21        	<unknown>
    1de8: e7 0a 00 00  	jalr	s5, zero <.debug_info>
    1dec: 08 22        	<unknown>
    1dee: 01 1c        	<unknown>
    1df0: 16 00        	<unknown>
    1df2: 00 01        	<unknown>
    1df4: 01 0f        	<unknown>
    1df6: 1c 16        	<unknown>
    1df8: 00 00        	<unknown>
    1dfa: 0f dc 10 00  	<unknown>
    1dfe: 00 00        	<unknown>
    1e00: 21 2d        	<unknown>
    1e02: 09 00        	<unknown>
    1e04: 00 08        	<unknown>
    1e06: 14 01        	<unknown>
    1e08: 2d 12        	<unknown>
    1e0a: 00 00        	<unknown>
    1e0c: 01 01        	<unknown>
    1e0e: 0f 2d 12 00  	<unknown>
    1e12: 00 0f        	<unknown>
    1e14: 1f 0d 00 00  	<unknown>
    1e18: 00 21        	<unknown>
    1e1a: f0 0a        	<unknown>
    1e1c: 00 00        	<unknown>
    1e1e: 08 14        	<unknown>
    1e20: 01 53        	<unknown>
    1e22: 00 00        	<unknown>
    1e24: 00 01        	<unknown>
    1e26: 01 0f        	<unknown>
    1e28: 53 00 00 00  	fadd.s	ft0, ft0, ft0, rne
    1e2c: 0f 1f 0d 00  	<unknown>
    1e30: 00 00        	<unknown>
    1e32: 21 f8        	<unknown>
    1e34: 0a 00        	<unknown>
    1e36: 00 08        	<unknown>
    1e38: 14 01        	<unknown>
    1e3a: 1c 16        	<unknown>
    1e3c: 00 00        	<unknown>
    1e3e: 01 01        	<unknown>
    1e40: 0f 1c 16 00  	<unknown>
    1e44: 00 0f        	<unknown>
    1e46: 1f 0d 00 00  	<unknown>
    1e4a: 00 22        	<unknown>
    1e4c: 8a 09        	<unknown>
    1e4e: 00 00        	<unknown>
    1e50: 08 eb        	<unknown>
    1e52: 2d 12        	<unknown>
    1e54: 00 00        	<unknown>
    1e56: 01 01        	<unknown>
    1e58: 0f 2d 12 00  	<unknown>
    1e5c: 00 00        	<unknown>
    1e5e: 22 82        	<unknown>
    1e60: 09 00        	<unknown>
    1e62: 00 08        	<unknown>
    1e64: eb 53 00 00  	<unknown>
    1e68: 00 01        	<unknown>
    1e6a: 01 0f        	<unknown>
    1e6c: 53 00 00 00  	fadd.s	ft0, ft0, ft0, rne
    1e70: 00 22        	<unknown>
    1e72: 00 0b        	<unknown>
    1e74: 00 00        	<unknown>
    1e76: 08 eb        	<unknown>
    1e78: 1c 16        	<unknown>
    1e7a: 00 00        	<unknown>
    1e7c: 01 01        	<unknown>
    1e7e: 0f 1c 16 00  	<unknown>
    1e82: 00 00        	<unknown>
    1e84: 21 9c        	<unknown>
    1e86: 09 00        	<unknown>
    1e88: 00 08        	<unknown>
    1e8a: 2e 01        	<unknown>
    1e8c: 2d 12        	<unknown>
    1e8e: 00 00        	<unknown>
    1e90: 01 01        	<unknown>
    1e92: 0f 2d 12 00  	<unknown>
    1e96: 00 00        	<unknown>
    1e98: 21 95        	<unknown>
    1e9a: 09 00        	<unknown>
    1e9c: 00 08        	<unknown>
    1e9e: 2e 01        	<unknown>
    1ea0: 53 00 00 00  	fadd.s	ft0, ft0, ft0, rne
    1ea4: 01 01        	<unknown>
    1ea6: 0f 53 00 00  	<unknown>
    1eaa: 00 00        	<unknown>
    1eac: 21 08        	<unknown>
    1eae: 0b 00 00 08  	<unknown>
    1eb2: 2e 01        	<unknown>
    1eb4: 1c 16        	<unknown>
    1eb6: 00 00        	<unknown>
    1eb8: 01 01        	<unknown>
    1eba: 0f 1c 16 00  	<unknown>
    1ebe: 00 00        	<unknown>
    1ec0: 10 cb        	<unknown>
    1ec2: 1e 00        	<unknown>
    1ec4: 00 f2        	<unknown>
    1ec6: 0b 00 00 06  	<unknown>
    1eca: 3e 23        	<unknown>
    1ecc: 01 10        	<unknown>
    1ece: d8 1e        	<unknown>
    1ed0: 00 00        	<unknown>
    1ed2: f1 0b        	<unknown>
    1ed4: 00 00        	<unknown>
    1ed6: 06 46        	<unknown>
    1ed8: 24 05        	<unknown>
    1eda: 10 06        	<unknown>
    1edc: 42 0c        	<unknown>
    1ede: 0f 0b 00 00  	<unknown>
    1ee2: dc 10        	<unknown>
    1ee4: 00 00        	<unknown>
    1ee6: 06 44        	<unknown>
    1ee8: 02 23        	<unknown>
    1eea: 00 0c        	<unknown>
    1eec: 14 0b        	<unknown>
    1eee: 00 00        	<unknown>
    1ef0: dc 10        	<unknown>
    1ef2: 00 00        	<unknown>
    1ef4: 06 45        	<unknown>
    1ef6: 02 23        	<unknown>
    1ef8: 08 00        	<unknown>
    1efa: 25 18        	<unknown>
    1efc: 0b 00 00 06  	<unknown>
    1f00: 4f 02 01 01  	fnmadd.s	ft4, ft2, fa6, ft0, rne
    1f04: 01 21        	<unknown>
    1f06: 1e 0b        	<unknown>
    1f08: 00 00        	<unknown>
    1f0a: 06 53        	<unknown>
    1f0c: 02 1f        	<unknown>
    1f0e: 0d 00        	<unknown>
    1f10: 00 01        	<unknown>
    1f12: 01 0f        	<unknown>
    1f14: 19 1f        	<unknown>
    1f16: 00 00        	<unknown>
    1f18: 00 13        	<unknown>
    1f1a: 1e 1f        	<unknown>
    1f1c: 00 00        	<unknown>
    1f1e: 26 21        	<unknown>
    1f20: 25 0b        	<unknown>
    1f22: 00 00        	<unknown>
    1f24: 06 58        	<unknown>
    1f26: 02 1f        	<unknown>
    1f28: 0d 00        	<unknown>
    1f2a: 00 01        	<unknown>
    1f2c: 01 0f        	<unknown>
    1f2e: 19 1f        	<unknown>
    1f30: 00 00        	<unknown>
    1f32: 00 22        	<unknown>
    1f34: 33 0b 00 00  	add	s6, zero, zero
    1f38: 06 65        	<unknown>
    1f3a: 2d 12        	<unknown>
    1f3c: 00 00        	<unknown>
    1f3e: 01 01        	<unknown>
    1f40: 0f 34 12 00  	<unknown>
    1f44: 00 00        	<unknown>
    1f46: 22 38        	<unknown>
    1f48: 0b 00 00 06  	<unknown>
    1f4c: 68 1f        	<unknown>
    1f4e: 0d 00        	<unknown>
    1f50: 00 01        	<unknown>
    1f52: 01 0f        	<unknown>
    1f54: 34 12        	<unknown>
    1f56: 00 00        	<unknown>
    1f58: 00 22        	<unknown>
    1f5a: 3d 0b        	<unknown>
    1f5c: 00 00        	<unknown>
    1f5e: 06 6b        	<unknown>
    1f60: dc 10        	<unknown>
    1f62: 00 00        	<unknown>
    1f64: 01 01        	<unknown>
    1f66: 0f 34 12 00  	<unknown>
    1f6a: 00 00        	<unknown>
    1f6c: 21 42        	<unknown>
    1f6e: 0b 00 00 06  	<unknown>
    1f72: 34 03        	<unknown>
    1f74: 94 1f        	<unknown>
    1f76: 00 00        	<unknown>
    1f78: 01 01        	<unknown>
    1f7a: 0f 95 1f 00  	<unknown>
    1f7e: 00 0f        	<unknown>
    1f80: 95 1f        	<unknown>
    1f82: 00 00        	<unknown>
    1f84: 0f 9b 1f 00  	<unknown>
    1f88: 00 0f        	<unknown>
    1f8a: 9b 1f 00 00  	slliw	t6, zero, 0x0
    1f8e: 0f ad 1f 00  	<unknown>
    1f92: 00 00        	<unknown>
    1f94: 27 13 9a 1f  	<unknown>
    1f98: 00 00        	<unknown>
    1f9a: 28 10        	<unknown>
    1f9c: a6 1f        	<unknown>
    1f9e: 00 00        	<unknown>
    1fa0: 58 0b        	<unknown>
    1fa2: 00 00        	<unknown>
    1fa4: 0c 12        	<unknown>
    1fa6: 06 4a        	<unknown>
    1fa8: 0b 00 00 07  	<unknown>
    1fac: 08 18        	<unknown>
    1fae: b9 1f        	<unknown>
    1fb0: 00 00        	<unknown>
    1fb2: 5f 0b 00 00  	<unknown>
    1fb6: 06 28        	<unknown>
    1fb8: 03 13 be 1f  	lh	t1, 0x1fb(t3)
    1fbc: 00 00        	<unknown>
    1fbe: 29 1f        	<unknown>
    1fc0: 0d 00        	<unknown>
    1fc2: 00 0f        	<unknown>
    1fc4: 95 1f        	<unknown>
    1fc6: 00 00        	<unknown>
    1fc8: 0f 95 1f 00  	<unknown>
    1fcc: 00 00        	<unknown>
    1fce: 21 6d        	<unknown>
    1fd0: 0b 00 00 06  	<unknown>
    1fd4: 1e 02        	<unknown>
    1fd6: 94 1f        	<unknown>
    1fd8: 00 00        	<unknown>
    1fda: 01 01        	<unknown>
    1fdc: 0f 9b 1f 00  	<unknown>
    1fe0: 00 0f        	<unknown>
    1fe2: 9b 1f 00 00  	slliw	t6, zero, 0x0
    1fe6: 00 21        	<unknown>
    1fe8: 00 0c        	<unknown>
    1fea: 00 00        	<unknown>
    1fec: 06 54        	<unknown>
    1fee: 03 c0 1e 00  	lbu	zero, 0x1(t4)
    1ff2: 00 01        	<unknown>
    1ff4: 01 0f        	<unknown>
    1ff6: 1f 0d 00 00  	<unknown>
    1ffa: 0f 1f 0d 00  	<unknown>
    1ffe: 00 00        	<unknown>
    2000: 2a 2e        	<unknown>
    2002: 0b 00 00 06  	<unknown>
    2006: 69 02        	<unknown>
    2008: 01 01        	<unknown>
    200a: 01 0f        	<unknown>
    200c: 1f 0d 00 00  	<unknown>
    2010: 00 16        	<unknown>
    2012: 74 0b        	<unknown>
    2014: 00 00        	<unknown>
    2016: 06 35        	<unknown>
    2018: 02 01        	<unknown>
    201a: 01 0f        	<unknown>
    201c: 94 1f        	<unknown>
    201e: 00 00        	<unknown>
    2020: 00 21        	<unknown>
    2022: 79 0b        	<unknown>
    2024: 00 00        	<unknown>
    2026: 06 7a        	<unknown>
    2028: 02 35        	<unknown>
    202a: 20 00        	<unknown>
    202c: 00 01        	<unknown>
    202e: 01 0f        	<unknown>
    2030: 34 12        	<unknown>
    2032: 00 00        	<unknown>
    2034: 00 13        	<unknown>
    2036: 3e 12        	<unknown>
    2038: 00 00        	<unknown>
    203a: 21 d0        	<unknown>
    203c: 07 00 00 06  	<unknown>
    2040: 49 03        	<unknown>
    2042: dc 10        	<unknown>
    2044: 00 00        	<unknown>
    2046: 01 01        	<unknown>
    2048: 0f dc 10 00  	<unknown>
    204c: 00 00        	<unknown>
    204e: 21 ff        	<unknown>
    2050: 0b 00 00 06  	<unknown>
    2054: 56 03        	<unknown>
    2056: cd 1e        	<unknown>
    2058: 00 00        	<unknown>
    205a: 01 01        	<unknown>
    205c: 0f dc 10 00  	<unknown>
    2060: 00 0f        	<unknown>
    2062: dc 10        	<unknown>
    2064: 00 00        	<unknown>
    2066: 00 21        	<unknown>
    2068: 80 0b        	<unknown>
    206a: 00 00        	<unknown>
    206c: 06 1b        	<unknown>
    206e: 02 94        	<unknown>
    2070: 1f 00 00 01  	<unknown>
    2074: 01 0f        	<unknown>
    2076: 9b 1f 00 00  	slliw	t6, zero, 0x0
    207a: 00 21        	<unknown>
    207c: 87 0b 00 00  	<unknown>
    2080: 06 9a        	<unknown>
    2082: 03 1f 0d 00  	lh	t5, 0x0(s10)
    2086: 00 01        	<unknown>
    2088: 01 0f        	<unknown>
    208a: 34 12        	<unknown>
    208c: 00 00        	<unknown>
    208e: 0f 9b 1f 00  	<unknown>
    2092: 00 00        	<unknown>
    2094: 21 8d        	<unknown>
    2096: 0b 00 00 06  	<unknown>
    209a: a5 03        	<unknown>
    209c: 9b 1f 00 00  	slliw	t6, zero, 0x0
    20a0: 01 01        	<unknown>
    20a2: 0f b2 20 00  	<unknown>
    20a6: 00 0f        	<unknown>
    20a8: 34 12        	<unknown>
    20aa: 00 00        	<unknown>
    20ac: 0f 9b 1f 00  	<unknown>
    20b0: 00 00        	<unknown>
    20b2: 13 b7 20 00  	sltiu	a4, ra, 0x2
    20b6: 00 06        	<unknown>
    20b8: 96 0b        	<unknown>
    20ba: 00 00        	<unknown>
    20bc: 05 04        	<unknown>
    20be: 21 9e        	<unknown>
    20c0: 0b 00 00 06  	<unknown>
    20c4: 9d 03        	<unknown>
    20c6: 1f 0d 00 00  	<unknown>
    20ca: 01 01        	<unknown>
    20cc: 0f b2 20 00  	<unknown>
    20d0: 00 0f        	<unknown>
    20d2: 34 12        	<unknown>
    20d4: 00 00        	<unknown>
    20d6: 0f 9b 1f 00  	<unknown>
    20da: 00 00        	<unknown>
    20dc: 16 a5        	<unknown>
    20de: 0b 00 00 06  	<unknown>
    20e2: 3e 03        	<unknown>
    20e4: 01 01        	<unknown>
    20e6: 0f 94 1f 00  	<unknown>
    20ea: 00 0f        	<unknown>
    20ec: 9b 1f 00 00  	slliw	t6, zero, 0x0
    20f0: 0f 9b 1f 00  	<unknown>
    20f4: 00 0f        	<unknown>
    20f6: ad 1f        	<unknown>
    20f8: 00 00        	<unknown>
    20fa: 00 2a        	<unknown>
    20fc: 28 0b        	<unknown>
    20fe: 00 00        	<unknown>
    2100: 06 6f        	<unknown>
    2102: 02 01        	<unknown>
    2104: 01 01        	<unknown>
    2106: 0f 1f 0d 00  	<unknown>
    210a: 00 00        	<unknown>
    210c: 2b b4 0b 00  	<unknown>
    2110: 00 06        	<unknown>
    2112: c5 01        	<unknown>
    2114: 1f 0d 00 00  	<unknown>
    2118: 01 01        	<unknown>
    211a: 21 ab        	<unknown>
    211c: 0b 00 00 06  	<unknown>
    2120: 26 02        	<unknown>
    2122: 94 1f        	<unknown>
    2124: 00 00        	<unknown>
    2126: 01 01        	<unknown>
    2128: 0f 94 1f 00  	<unknown>
    212c: 00 0f        	<unknown>
    212e: 9b 1f 00 00  	slliw	t6, zero, 0x0
    2132: 00 16        	<unknown>
    2134: b3 0b 00 00  	add	s7, zero, zero
    2138: 06 c7        	<unknown>
    213a: 01 01        	<unknown>
    213c: 01 0f        	<unknown>
    213e: f1 01        	<unknown>
    2140: 00 00        	<unknown>
    2142: 00 22        	<unknown>
    2144: b9 0b        	<unknown>
    2146: 00 00        	<unknown>
    2148: 06 75        	<unknown>
    214a: 2d 12        	<unknown>
    214c: 00 00        	<unknown>
    214e: 01 01        	<unknown>
    2150: 0f 34 12 00  	<unknown>
    2154: 00 0f        	<unknown>
    2156: 5b 21 00 00  	<unknown>
    215a: 00 13        	<unknown>
    215c: 35 20        	<unknown>
    215e: 00 00        	<unknown>
    2160: 22 c0        	<unknown>
    2162: 0b 00 00 06  	<unknown>
    2166: b0 dc        	<unknown>
    2168: 10 00        	<unknown>
    216a: 00 01        	<unknown>
    216c: 01 0f        	<unknown>
    216e: 34 12        	<unknown>
    2170: 00 00        	<unknown>
    2172: 0f 5b 21 00  	<unknown>
    2176: 00 0f        	<unknown>
    2178: 1f 0d 00 00  	<unknown>
    217c: 00 22        	<unknown>
    217e: c7 0b 00 00  	fmsub.s	fs7, ft0, ft0, ft0, rne
    2182: 06 b4        	<unknown>
    2184: a6 1f        	<unknown>
    2186: 00 00        	<unknown>
    2188: 01 01        	<unknown>
    218a: 0f 34 12 00  	<unknown>
    218e: 00 0f        	<unknown>
    2190: 5b 21 00 00  	<unknown>
    2194: 0f 1f 0d 00  	<unknown>
    2198: 00 00        	<unknown>
    219a: 21 cf        	<unknown>
    219c: 0b 00 00 06  	<unknown>
    21a0: 10 03        	<unknown>
    21a2: 1f 0d 00 00  	<unknown>
    21a6: 01 01        	<unknown>
    21a8: 0f 34 12 00  	<unknown>
    21ac: 00 00        	<unknown>
    21ae: 21 d6        	<unknown>
    21b0: 0b 00 00 06  	<unknown>
    21b4: a8 03        	<unknown>
    21b6: 9b 1f 00 00  	slliw	t6, zero, 0x0
    21ba: 01 01        	<unknown>
    21bc: 0f 35 20 00  	<unknown>
    21c0: 00 0f        	<unknown>
    21c2: cc 21        	<unknown>
    21c4: 00 00        	<unknown>
    21c6: 0f 9b 1f 00  	<unknown>
    21ca: 00 00        	<unknown>
    21cc: 13 d1 21 00  	srli	sp, gp, 0x2
    21d0: 00 19        	<unknown>
    21d2: b7 20 00 00  	lui	ra, 0x2
    21d6: 21 df        	<unknown>
    21d8: 0b 00 00 06  	<unknown>
    21dc: a1 03        	<unknown>
    21de: 1f 0d 00 00  	<unknown>
    21e2: 01 01        	<unknown>
    21e4: 0f 35 20 00  	<unknown>
    21e8: 00 0f        	<unknown>
    21ea: b7 20 00 00  	lui	ra, 0x2
    21ee: 00 08        	<unknown>
    21f0: e6 0b        	<unknown>
    21f2: 00 00        	<unknown>
    21f4: 12 0b        	<unknown>
    21f6: cc 50        	<unknown>
    21f8: 22 00        	<unknown>
    21fa: 00 12        	<unknown>
    21fc: 0b d2 7d 22  	<unknown>
    2200: 00 00        	<unknown>
    2202: 12 0b        	<unknown>
    2204: d6 8e        	<unknown>
    2206: 22 00        	<unknown>
    2208: 00 12        	<unknown>
    220a: 0b dc a2 22  	<unknown>
    220e: 00 00        	<unknown>
    2210: 12 0b        	<unknown>
    2212: e7 bb 22 00  	<unknown>
    2216: 00 12        	<unknown>
    2218: 0b e8 ce 22  	<unknown>
    221c: 00 00        	<unknown>
    221e: 12 0b        	<unknown>
    2220: e9 eb        	<unknown>
    2222: 22 00        	<unknown>
    2224: 00 12        	<unknown>
    2226: 0b eb 08 23  	<unknown>
    222a: 00 00        	<unknown>
    222c: 12 0b        	<unknown>
    222e: ec 20        	<unknown>
    2230: 23 00 00 11  	sb	a6, 0x100(zero)
    2234: 2a 0c        	<unknown>
    2236: 00 00        	<unknown>
    2238: 00 0c        	<unknown>
    223a: 00 00        	<unknown>
    223c: 0b d9 50 22  	<unknown>
    2240: 00 00        	<unknown>
    2242: 01 01        	<unknown>
    2244: 0f 2a 11 00  	<unknown>
    2248: 00 0f        	<unknown>
    224a: 2a 11        	<unknown>
    224c: 00 00        	<unknown>
    224e: 00 00        	<unknown>
    2250: 10 5b        	<unknown>
    2252: 22 00        	<unknown>
    2254: 00 f0        	<unknown>
    2256: 0b 00 00 06  	<unknown>
    225a: 50 24        	<unknown>
    225c: 05 10        	<unknown>
    225e: 06 4c        	<unknown>
    2260: 0c 0f        	<unknown>
    2262: 0b 00 00 2a  	<unknown>
    2266: 11 00        	<unknown>
    2268: 00 06        	<unknown>
    226a: 4e 02        	<unknown>
    226c: 23 00 0c 14  	sb	zero, 0x140(s8)
    2270: 0b 00 00 2a  	<unknown>
    2274: 11 00        	<unknown>
    2276: 00 06        	<unknown>
    2278: 4f 02 23 08  	fnmadd.s	ft4, ft6, ft2, ft1, rne
    227c: 00 2a        	<unknown>
    227e: f8 0b        	<unknown>
    2280: 00 00        	<unknown>
    2282: 06 75        	<unknown>
    2284: 02 01        	<unknown>
    2286: 01 01        	<unknown>
    2288: 0f 1f 0d 00  	<unknown>
    228c: 00 00        	<unknown>
    228e: 21 cf        	<unknown>
    2290: 07 00 00 06  	<unknown>
    2294: 4c 03        	<unknown>
    2296: 2a 11        	<unknown>
    2298: 00 00        	<unknown>
    229a: 01 01        	<unknown>
    229c: 0f 2a 11 00  	<unknown>
    22a0: 00 00        	<unknown>
    22a2: 21 fe        	<unknown>
    22a4: 0b 00 00 06  	<unknown>
    22a8: 5a 03        	<unknown>
    22aa: 50 22        	<unknown>
    22ac: 00 00        	<unknown>
    22ae: 01 01        	<unknown>
    22b0: 0f 2a 11 00  	<unknown>
    22b4: 00 0f        	<unknown>
    22b6: 2a 11        	<unknown>
    22b8: 00 00        	<unknown>
    22ba: 00 22        	<unknown>
    22bc: 04 0c        	<unknown>
    22be: 00 00        	<unknown>
    22c0: 06 70        	<unknown>
    22c2: 2a 11        	<unknown>
    22c4: 00 00        	<unknown>
    22c6: 01 01        	<unknown>
    22c8: 0f 34 12 00  	<unknown>
    22cc: 00 00        	<unknown>
    22ce: 22 0a        	<unknown>
    22d0: 0c 00        	<unknown>
    22d2: 00 06        	<unknown>
    22d4: c8 2a        	<unknown>
    22d6: 11 00        	<unknown>
    22d8: 00 01        	<unknown>
    22da: 01 0f        	<unknown>
    22dc: 34 12        	<unknown>
    22de: 00 00        	<unknown>
    22e0: 0f 5b 21 00  	<unknown>
    22e4: 00 0f        	<unknown>
    22e6: 1f 0d 00 00  	<unknown>
    22ea: 00 22        	<unknown>
    22ec: 12 0c        	<unknown>
    22ee: 00 00        	<unknown>
    22f0: 06 cd        	<unknown>
    22f2: 5e 01        	<unknown>
    22f4: 00 00        	<unknown>
    22f6: 01 01        	<unknown>
    22f8: 0f 34 12 00  	<unknown>
    22fc: 00 0f        	<unknown>
    22fe: 5b 21 00 00  	<unknown>
    2302: 0f 1f 0d 00  	<unknown>
    2306: 00 00        	<unknown>
    2308: 22 1b        	<unknown>
    230a: 0c 00        	<unknown>
    230c: 00 06        	<unknown>
    230e: 7b 53 00 00  	<unknown>
    2312: 00 01        	<unknown>
    2314: 01 0f        	<unknown>
    2316: 34 12        	<unknown>
    2318: 00 00        	<unknown>
    231a: 0f 5b 21 00  	<unknown>
    231e: 00 00        	<unknown>
    2320: 22 22        	<unknown>
    2322: 0c 00        	<unknown>
    2324: 00 06        	<unknown>
    2326: 7e 1c        	<unknown>
    2328: 16 00        	<unknown>
    232a: 00 01        	<unknown>
    232c: 01 0f        	<unknown>
    232e: 34 12        	<unknown>
    2330: 00 00        	<unknown>
    2332: 0f 5b 21 00  	<unknown>
    2336: 00 00        	<unknown>
    2338: 12 0d        	<unknown>
    233a: 26 fa        	<unknown>
    233c: 1e 00        	<unknown>
    233e: 00 12        	<unknown>
    2340: 0d 27        	<unknown>
    2342: 05 1f        	<unknown>
    2344: 00 00        	<unknown>
    2346: 12 0d        	<unknown>
    2348: 28 00        	<unknown>
    234a: 20 00        	<unknown>
    234c: 00 12        	<unknown>
    234e: 0d 2b        	<unknown>
    2350: 1f 1f 00 00  	<unknown>
    2354: 12 0d        	<unknown>
    2356: 2e fb        	<unknown>
    2358: 20 00        	<unknown>
    235a: 00 12        	<unknown>
    235c: 0d 31        	<unknown>
    235e: 7d 22        	<unknown>
    2360: 00 00        	<unknown>
    2362: 12 0d        	<unknown>
    2364: 36 c0        	<unknown>
    2366: 1e 00        	<unknown>
    2368: 00 12        	<unknown>
    236a: 0d 37        	<unknown>
    236c: cd 1e        	<unknown>
    236e: 00 00        	<unknown>
    2370: 12 0d        	<unknown>
    2372: 39 39        	<unknown>
    2374: 0b 00 00 12  	<unknown>
    2378: 0d 3a        	<unknown>
    237a: 33 1f 00 00  	sll	t5, zero, zero
    237e: 12 0d        	<unknown>
    2380: 3b 46 1f 00  	<unknown>
    2384: 00 12        	<unknown>
    2386: 0d 3c        	<unknown>
    2388: 59 1f        	<unknown>
    238a: 00 00        	<unknown>
    238c: 12 0d        	<unknown>
    238e: 3d 6c        	<unknown>
    2390: 1f 00 00 12  	<unknown>
    2394: 0d 3e        	<unknown>
    2396: ce 1f        	<unknown>
    2398: 00 00        	<unknown>
    239a: 12 0d        	<unknown>
    239c: 3f 33 22 00  	<unknown>
    23a0: 00 12        	<unknown>
    23a2: 0d 40        	<unknown>
    23a4: 11 20        	<unknown>
    23a6: 00 00        	<unknown>
    23a8: 12 0d        	<unknown>
    23aa: 41 21        	<unknown>
    23ac: 20 00        	<unknown>
    23ae: 00 12        	<unknown>
    23b0: 0d 42        	<unknown>
    23b2: 3a 20        	<unknown>
    23b4: 00 00        	<unknown>
    23b6: 12 0d        	<unknown>
    23b8: 43 4e 20 00  	fmadd.s	ft8, ft0, ft2, ft0, rmm
    23bc: 00 12        	<unknown>
    23be: 0d 44        	<unknown>
    23c0: 67 20 00 00  	<unknown>
    23c4: 12 0d        	<unknown>
    23c6: 46 7b        	<unknown>
    23c8: 20 00        	<unknown>
    23ca: 00 12        	<unknown>
    23cc: 0d 47        	<unknown>
    23ce: 94 20        	<unknown>
    23d0: 00 00        	<unknown>
    23d2: 12 0d        	<unknown>
    23d4: 48 be        	<unknown>
    23d6: 20 00        	<unknown>
    23d8: 00 12        	<unknown>
    23da: 0d 4a        	<unknown>
    23dc: dc 20        	<unknown>
    23de: 00 00        	<unknown>
    23e0: 12 0d        	<unknown>
    23e2: 4b 0c 21 00  	fnmsub.s	fs8, ft2, ft2, ft0, rne
    23e6: 00 12        	<unknown>
    23e8: 0d 4c        	<unknown>
    23ea: 1a 21        	<unknown>
    23ec: 00 00        	<unknown>
    23ee: 12 0d        	<unknown>
    23f0: 4d 33        	<unknown>
    23f2: 21 00        	<unknown>
    23f4: 00 12        	<unknown>
    23f6: 0d 4e        	<unknown>
    23f8: 43 21 00 00  	fmadd.s	ft2, ft0, ft0, ft0, rdn
    23fc: 12 0d        	<unknown>
    23fe: 4f 60 21 00  	<unknown>
    2402: 00 12        	<unknown>
    2404: 0d 50        	<unknown>
    2406: 7d 21        	<unknown>
    2408: 00 00        	<unknown>
    240a: 12 0d        	<unknown>
    240c: 51 9a        	<unknown>
    240e: 21 00        	<unknown>
    2410: 00 12        	<unknown>
    2412: 0d 53        	<unknown>
    2414: ae 21        	<unknown>
    2416: 00 00        	<unknown>
    2418: 12 0d        	<unknown>
    241a: 54 d6        	<unknown>
    241c: 21 00        	<unknown>
    241e: 00 20        	<unknown>
    2420: 49 0c        	<unknown>
    2422: 00 00        	<unknown>
    2424: d3 04 00 00  	fadd.s	fs1, ft0, ft0, rne
    2428: 0e 3b        	<unknown>
    242a: 53 00 00 00  	fadd.s	ft0, ft0, ft0, rne
    242e: 01 0f        	<unknown>
    2430: 53 00 00 00  	fadd.s	ft0, ft0, ft0, rne
    2434: 00 20        	<unknown>
    2436: 54 0c        	<unknown>
    2438: 00 00        	<unknown>
    243a: e2 04        	<unknown>
    243c: 00 00        	<unknown>
    243e: 0e 3d        	<unknown>
    2440: 53 00 00 00  	fadd.s	ft0, ft0, ft0, rne
    2444: 01 0f        	<unknown>
    2446: 53 00 00 00  	fadd.s	ft0, ft0, ft0, rne
    244a: 00 20        	<unknown>
    244c: 60 0c        	<unknown>
    244e: 00 00        	<unknown>
    2450: f3 04 00 00  	<unknown>
    2454: 0e 3f        	<unknown>
    2456: 53 00 00 00  	fadd.s	ft0, ft0, ft0, rne
    245a: 01 0f        	<unknown>
    245c: 53 00 00 00  	fadd.s	ft0, ft0, ft0, rne
    2460: 00 20        	<unknown>
    2462: 6b 0c 00 00  	<unknown>
    2466: 02 05        	<unknown>
    2468: 00 00        	<unknown>
    246a: 0e 41        	<unknown>
    246c: 53 00 00 00  	fadd.s	ft0, ft0, ft0, rne
    2470: 01 0f        	<unknown>
    2472: 53 00 00 00  	fadd.s	ft0, ft0, ft0, rne
    2476: 00 20        	<unknown>
    2478: 77 0c 00 00  	<unknown>
    247c: 84 0c        	<unknown>
    247e: 00 00        	<unknown>
    2480: 0e 44        	<unknown>
    2482: 53 00 00 00  	fadd.s	ft0, ft0, ft0, rne
    2486: 01 0f        	<unknown>
    2488: 53 00 00 00  	fadd.s	ft0, ft0, ft0, rne
    248c: 0f 53 00 00  	<unknown>
    2490: 00 00        	<unknown>
    2492: 20 8b        	<unknown>
    2494: 0c 00        	<unknown>
    2496: 00 13        	<unknown>
    2498: 05 00        	<unknown>
    249a: 00 0e        	<unknown>
    249c: 45 53        	<unknown>
    249e: 00 00        	<unknown>
    24a0: 00 01        	<unknown>
    24a2: 0f 53 00 00  	<unknown>
    24a6: 00 00        	<unknown>
    24a8: 20 96        	<unknown>
    24aa: 0c 00        	<unknown>
    24ac: 00 34        	<unknown>
    24ae: 05 00        	<unknown>
    24b0: 00 0e        	<unknown>
    24b2: 47 53 00 00  	<unknown>
    24b6: 00 01        	<unknown>
    24b8: 0f 53 00 00  	<unknown>
    24bc: 00 00        	<unknown>
    24be: 20 a2        	<unknown>
    24c0: 0c 00        	<unknown>
    24c2: 00 45        	<unknown>
    24c4: 05 00        	<unknown>
    24c6: 00 0e        	<unknown>
    24c8: 49 53        	<unknown>
    24ca: 00 00        	<unknown>
    24cc: 00 01        	<unknown>
    24ce: 0f 53 00 00  	<unknown>
    24d2: 00 00        	<unknown>
    24d4: 20 ad        	<unknown>
    24d6: 0c 00        	<unknown>
    24d8: 00 54        	<unknown>
    24da: 05 00        	<unknown>
    24dc: 00 0e        	<unknown>
    24de: 4b 53 00 00  	<unknown>
    24e2: 00 01        	<unknown>
    24e4: 0f 53 00 00  	<unknown>
    24e8: 00 00        	<unknown>
    24ea: 20 b8        	<unknown>
    24ec: 0c 00        	<unknown>
    24ee: 00 da        	<unknown>
    24f0: 09 00        	<unknown>
    24f2: 00 0e        	<unknown>
    24f4: 4f 53 00 00  	<unknown>
    24f8: 00 01        	<unknown>
    24fa: 0f 53 00 00  	<unknown>
    24fe: 00 0f        	<unknown>
    2500: 53 00 00 00  	fadd.s	ft0, ft0, ft0, rne
    2504: 00 20        	<unknown>
    2506: c8 0c        	<unknown>
    2508: 00 00        	<unknown>
    250a: 7b 05 00 00  	<unknown>
    250e: 0e 53        	<unknown>
    2510: 53 00 00 00  	fadd.s	ft0, ft0, ft0, rne
    2514: 01 0f        	<unknown>
    2516: 53 00 00 00  	fadd.s	ft0, ft0, ft0, rne
    251a: 00 20        	<unknown>
    251c: d2 0c        	<unknown>
    251e: 00 00        	<unknown>
    2520: 84 05        	<unknown>
    2522: 00 00        	<unknown>
    2524: 0e 57        	<unknown>
    2526: 53 00 00 00  	fadd.s	ft0, ft0, ft0, rne
    252a: 01 0f        	<unknown>
    252c: 53 00 00 00  	fadd.s	ft0, ft0, ft0, rne
    2530: 00 20        	<unknown>
    2532: dd 0c        	<unknown>
    2534: 00 00        	<unknown>
    2536: 97 05 00 00  	auipc	a1, 0x0
    253a: 0e 60        	<unknown>
    253c: 53 00 00 00  	fadd.s	ft0, ft0, ft0, rne
    2540: 01 0f        	<unknown>
    2542: 53 00 00 00  	fadd.s	ft0, ft0, ft0, rne
    2546: 00 20        	<unknown>
    2548: e8 0c        	<unknown>
    254a: 00 00        	<unknown>
    254c: 8e 05        	<unknown>
    254e: 00 00        	<unknown>
    2550: 0e 65        	<unknown>
    2552: 53 00 00 00  	fadd.s	ft0, ft0, ft0, rne
    2556: 01 0f        	<unknown>
    2558: 53 00 00 00  	fadd.s	ft0, ft0, ft0, rne
    255c: 00 20        	<unknown>
    255e: f2 0c        	<unknown>
    2560: 00 00        	<unknown>
    2562: af 05 00 00  	<unknown>
    2566: 0e 6c        	<unknown>
    2568: 53 00 00 00  	fadd.s	ft0, ft0, ft0, rne
    256c: 01 0f        	<unknown>
    256e: 53 00 00 00  	fadd.s	ft0, ft0, ft0, rne
    2572: 00 20        	<unknown>
    2574: fd 0c        	<unknown>
    2576: 00 00        	<unknown>
    2578: a6 05        	<unknown>
    257a: 00 00        	<unknown>
    257c: 0e 6d        	<unknown>
    257e: 53 00 00 00  	fadd.s	ft0, ft0, ft0, rne
    2582: 01 0f        	<unknown>
    2584: 53 00 00 00  	fadd.s	ft0, ft0, ft0, rne
    2588: 00 20        	<unknown>
    258a: 07 0d 00 00  	<unknown>
    258e: be 05        	<unknown>
    2590: 00 00        	<unknown>
    2592: 0e 6f        	<unknown>
    2594: 53 00 00 00  	fadd.s	ft0, ft0, ft0, rne
    2598: 01 0f        	<unknown>
    259a: 53 00 00 00  	fadd.s	ft0, ft0, ft0, rne
    259e: 00 20        	<unknown>
    25a0: 13 0d 00 00  	li	s10, 0x0
    25a4: cf 05 00 00  	fnmadd.s	fa1, ft0, ft0, ft0, rne
    25a8: 0e 70        	<unknown>
    25aa: 53 00 00 00  	fadd.s	ft0, ft0, ft0, rne
    25ae: 01 0f        	<unknown>
    25b0: 53 00 00 00  	fadd.s	ft0, ft0, ft0, rne
    25b4: 00 20        	<unknown>
    25b6: 1e 0d        	<unknown>
    25b8: 00 00        	<unknown>
    25ba: 06 0a        	<unknown>
    25bc: 00 00        	<unknown>
    25be: 0e 72        	<unknown>
    25c0: 53 00 00 00  	fadd.s	ft0, ft0, ft0, rne
    25c4: 01 0f        	<unknown>
    25c6: 53 00 00 00  	fadd.s	ft0, ft0, ft0, rne
    25ca: 0f 53 00 00  	<unknown>
    25ce: 00 00        	<unknown>
    25d0: 20 2a        	<unknown>
    25d2: 0d 00        	<unknown>
    25d4: 00 ee        	<unknown>
    25d6: 05 00        	<unknown>
    25d8: 00 0e        	<unknown>
    25da: 7c 53        	<unknown>
    25dc: 00 00        	<unknown>
    25de: 00 01        	<unknown>
    25e0: 0f 53 00 00  	<unknown>
    25e4: 00 00        	<unknown>
    25e6: 20 36        	<unknown>
    25e8: 0d 00        	<unknown>
    25ea: 00 12        	<unknown>
    25ec: 0a 00        	<unknown>
    25ee: 00 0e        	<unknown>
    25f0: 80 53        	<unknown>
    25f2: 00 00        	<unknown>
    25f4: 00 01        	<unknown>
    25f6: 0f 53 00 00  	<unknown>
    25fa: 00 0f        	<unknown>
    25fc: 53 00 00 00  	fadd.s	ft0, ft0, ft0, rne
    2600: 0f 53 00 00  	<unknown>
    2604: 00 00        	<unknown>
    2606: 20 42        	<unknown>
    2608: 0d 00        	<unknown>
    260a: 00 1c        	<unknown>
    260c: 0a 00        	<unknown>
    260e: 00 0e        	<unknown>
    2610: 84 53        	<unknown>
    2612: 00 00        	<unknown>
    2614: 00 01        	<unknown>
    2616: 0f 53 00 00  	<unknown>
    261a: 00 0f        	<unknown>
    261c: 53 00 00 00  	fadd.s	ft0, ft0, ft0, rne
    2620: 00 20        	<unknown>
    2622: 4e 0d        	<unknown>
    2624: 00 00        	<unknown>
    2626: 28 0a        	<unknown>
    2628: 00 00        	<unknown>
    262a: 0e 86        	<unknown>
    262c: 53 00 00 00  	fadd.s	ft0, ft0, ft0, rne
    2630: 01 0f        	<unknown>
    2632: 53 00 00 00  	fadd.s	ft0, ft0, ft0, rne
    2636: 0f 53 00 00  	<unknown>
    263a: 00 00        	<unknown>
    263c: 20 5a        	<unknown>
    263e: 0d 00        	<unknown>
    2640: 00 66        	<unknown>
    2642: 0d 00        	<unknown>
    2644: 00 0e        	<unknown>
    2646: 88 53        	<unknown>
    2648: 00 00        	<unknown>
    264a: 00 01        	<unknown>
    264c: 0f 53 00 00  	<unknown>
    2650: 00 0f        	<unknown>
    2652: 53 00 00 00  	fadd.s	ft0, ft0, ft0, rne
    2656: 00 20        	<unknown>
    2658: 6c 0d        	<unknown>
    265a: 00 00        	<unknown>
    265c: 7a 0d        	<unknown>
    265e: 00 00        	<unknown>
    2660: 0e 8a        	<unknown>
    2662: 53 00 00 00  	fadd.s	ft0, ft0, ft0, rne
    2666: 01 0f        	<unknown>
    2668: 53 00 00 00  	fadd.s	ft0, ft0, ft0, rne
    266c: 0f 8f 0f 00  	<unknown>
    2670: 00 00        	<unknown>
    2672: 20 81        	<unknown>
    2674: 0d 00        	<unknown>
    2676: 00 34        	<unknown>
    2678: 0a 00        	<unknown>
    267a: 00 0e        	<unknown>
    267c: 8c 53        	<unknown>
    267e: 00 00        	<unknown>
    2680: 00 01        	<unknown>
    2682: 0f 53 00 00  	<unknown>
    2686: 00 0f        	<unknown>
    2688: 53 00 00 00  	fadd.s	ft0, ft0, ft0, rne
    268c: 00 20        	<unknown>
    268e: 8e 0d        	<unknown>
    2690: 00 00        	<unknown>
    2692: 7f 06 00 00  	<unknown>
    2696: 0e 8e        	<unknown>
    2698: 1f 0d 00 00  	<unknown>
    269c: 01 0f        	<unknown>
    269e: 53 00 00 00  	fadd.s	ft0, ft0, ft0, rne
    26a2: 00 20        	<unknown>
    26a4: 9a 0d        	<unknown>
    26a6: 00 00        	<unknown>
    26a8: a7 0d 00 00  	<unknown>
    26ac: 0e 9b        	<unknown>
    26ae: 53 00 00 00  	fadd.s	ft0, ft0, ft0, rne
    26b2: 01 0f        	<unknown>
    26b4: 53 00 00 00  	fadd.s	ft0, ft0, ft0, rne
    26b8: 0f 1f 0d 00  	<unknown>
    26bc: 00 00        	<unknown>
    26be: 20 ae        	<unknown>
    26c0: 0d 00        	<unknown>
    26c2: 00 b5        	<unknown>
    26c4: 07 00 00 0e  	<unknown>
    26c8: 9d 53        	<unknown>
    26ca: 00 00        	<unknown>
    26cc: 00 01        	<unknown>
    26ce: 0f 53 00 00  	<unknown>
    26d2: 00 00        	<unknown>
    26d4: 20 bb        	<unknown>
    26d6: 0d 00        	<unknown>
    26d8: 00 d9        	<unknown>
    26da: 07 00 00 0e  	<unknown>
    26de: a6 2a        	<unknown>
    26e0: 11 00        	<unknown>
    26e2: 00 01        	<unknown>
    26e4: 0f 53 00 00  	<unknown>
    26e8: 00 00        	<unknown>
    26ea: 20 c8        	<unknown>
    26ec: 0d 00        	<unknown>
    26ee: 00 4b        	<unknown>
    26f0: 08 00        	<unknown>
    26f2: 00 0e        	<unknown>
    26f4: a8 2a        	<unknown>
    26f6: 11 00        	<unknown>
    26f8: 00 01        	<unknown>
    26fa: 0f 53 00 00  	<unknown>
    26fe: 00 00        	<unknown>
    2700: 20 d6        	<unknown>
    2702: 0d 00        	<unknown>
    2704: 00 f9        	<unknown>
    2706: 07 00 00 0e  	<unknown>
    270a: ad 53        	<unknown>
    270c: 00 00        	<unknown>
    270e: 00 01        	<unknown>
    2710: 0f 53 00 00  	<unknown>
    2714: 00 00        	<unknown>
    2716: 20 e2        	<unknown>
    2718: 0d 00        	<unknown>
    271a: 00 0a        	<unknown>
    271c: 08 00        	<unknown>
    271e: 00 0e        	<unknown>
    2720: af 53 00 00  	<unknown>
    2724: 00 01        	<unknown>
    2726: 0f 53 00 00  	<unknown>
    272a: 00 00        	<unknown>
    272c: 20 ee        	<unknown>
    272e: 0d 00        	<unknown>
    2730: 00 1b        	<unknown>
    2732: 08 00        	<unknown>
    2734: 00 0e        	<unknown>
    2736: b1 53        	<unknown>
    2738: 00 00        	<unknown>
    273a: 00 01        	<unknown>
    273c: 0f 53 00 00  	<unknown>
    2740: 00 00        	<unknown>
    2742: 20 f9        	<unknown>
    2744: 0d 00        	<unknown>
    2746: 00 2a        	<unknown>
    2748: 08 00        	<unknown>
    274a: 00 0e        	<unknown>
    274c: b5 53        	<unknown>
    274e: 00 00        	<unknown>
    2750: 00 01        	<unknown>
    2752: 0f 53 00 00  	<unknown>
    2756: 00 00        	<unknown>
    2758: 20 04        	<unknown>
    275a: 0e 00        	<unknown>
    275c: 00 ec        	<unknown>
    275e: 07 00 00 0e  	<unknown>
    2762: b6 53        	<unknown>
    2764: 00 00        	<unknown>
    2766: 00 01        	<unknown>
    2768: 0f 53 00 00  	<unknown>
    276c: 00 00        	<unknown>
    276e: 20 0e        	<unknown>
    2770: 0e 00        	<unknown>
    2772: 00 34        	<unknown>
    2774: 08 00        	<unknown>
    2776: 00 0e        	<unknown>
    2778: bb dc 10 00  	srlw	s9, ra, ra
    277c: 00 01        	<unknown>
    277e: 0f 53 00 00  	<unknown>
    2782: 00 00        	<unknown>
    2784: 20 1a        	<unknown>
    2786: 0e 00        	<unknown>
    2788: 00 3f        	<unknown>
    278a: 08 00        	<unknown>
    278c: 00 0e        	<unknown>
    278e: bd dc        	<unknown>
    2790: 10 00        	<unknown>
    2792: 00 01        	<unknown>
    2794: 0f 53 00 00  	<unknown>
    2798: 00 00        	<unknown>
    279a: 20 27        	<unknown>
    279c: 0e 00        	<unknown>
    279e: 00 2f        	<unknown>
    27a0: 06 00        	<unknown>
    27a2: 00 0e        	<unknown>
    27a4: c7 53 00 00  	<unknown>
    27a8: 00 01        	<unknown>
    27aa: 0f 53 00 00  	<unknown>
    27ae: 00 0f        	<unknown>
    27b0: 12 12        	<unknown>
    27b2: 00 00        	<unknown>
    27b4: 00 20        	<unknown>
    27b6: 34 0e        	<unknown>
    27b8: 00 00        	<unknown>
    27ba: 88 08        	<unknown>
    27bc: 00 00        	<unknown>
    27be: 0e c9        	<unknown>
    27c0: 53 00 00 00  	fadd.s	ft0, ft0, ft0, rne
    27c4: 01 0f        	<unknown>
    27c6: 53 00 00 00  	fadd.s	ft0, ft0, ft0, rne
    27ca: 00 20        	<unknown>
    27cc: 45 0e        	<unknown>
    27ce: 00 00        	<unknown>
    27d0: 7f 0a 00 00  	<unknown>
    27d4: 0e cd        	<unknown>
    27d6: 53 00 00 00  	fadd.s	ft0, ft0, ft0, rne
    27da: 01 0f        	<unknown>
    27dc: 53 00 00 00  	fadd.s	ft0, ft0, ft0, rne
    27e0: 0f 53 00 00  	<unknown>
    27e4: 00 00        	<unknown>
    27e6: 20 57        	<unknown>
    27e8: 0e 00        	<unknown>
    27ea: 00 62        	<unknown>
    27ec: 0e 00        	<unknown>
    27ee: 00 0e        	<unknown>
    27f0: e7 53 00 00  	<unknown>
    27f4: 00 01        	<unknown>
    27f6: 0f 53 00 00  	<unknown>
    27fa: 00 0f        	<unknown>
    27fc: 53 00 00 00  	fadd.s	ft0, ft0, ft0, rne
    2800: 00 20        	<unknown>
    2802: 67 0e 00 00  	jalr	t3, zero <.debug_info>
    2806: b8 0a        	<unknown>
    2808: 00 00        	<unknown>
    280a: 0e ef        	<unknown>
    280c: 53 00 00 00  	fadd.s	ft0, ft0, ft0, rne
    2810: 01 0f        	<unknown>
    2812: 53 00 00 00  	fadd.s	ft0, ft0, ft0, rne
    2816: 0f 53 00 00  	<unknown>
    281a: 00 00        	<unknown>
    281c: 20 79        	<unknown>
    281e: 0e 00        	<unknown>
    2820: 00 ce        	<unknown>
    2822: 0a 00        	<unknown>
    2824: 00 0e        	<unknown>
    2826: f5 53        	<unknown>
    2828: 00 00        	<unknown>
    282a: 00 01        	<unknown>
    282c: 0f 53 00 00  	<unknown>
    2830: 00 0f        	<unknown>
    2832: 53 00 00 00  	fadd.s	ft0, ft0, ft0, rne
    2836: 0f 8f 0f 00  	<unknown>
    283a: 00 00        	<unknown>
    283c: 2c 89        	<unknown>
    283e: 0e 00        	<unknown>
    2840: 00 f9        	<unknown>
    2842: 08 00        	<unknown>
    2844: 00 0e        	<unknown>
    2846: 00 01        	<unknown>
    2848: 53 00 00 00  	fadd.s	ft0, ft0, ft0, rne
    284c: 01 0f        	<unknown>
    284e: 53 00 00 00  	fadd.s	ft0, ft0, ft0, rne
    2852: 00 20        	<unknown>
    2854: 94 0e        	<unknown>
    2856: 00 00        	<unknown>
    2858: 03 09 00 00  	lb	s2, 0x0(zero)
    285c: 0e aa        	<unknown>
    285e: 53 00 00 00  	fadd.s	ft0, ft0, ft0, rne
    2862: 01 0f        	<unknown>
    2864: 53 00 00 00  	fadd.s	ft0, ft0, ft0, rne
    2868: 00 2c        	<unknown>
    286a: a0 0e        	<unknown>
    286c: 00 00        	<unknown>
    286e: de 0a        	<unknown>
    2870: 00 00        	<unknown>
    2872: 0e 1e        	<unknown>
    2874: 01 53        	<unknown>
    2876: 00 00        	<unknown>
    2878: 00 01        	<unknown>
    287a: 0f 53 00 00  	<unknown>
    287e: 00 0f        	<unknown>
    2880: dc 10        	<unknown>
    2882: 00 00        	<unknown>
    2884: 00 2c        	<unknown>
    2886: af 0e 00 00  	<unknown>
    288a: f0 0a        	<unknown>
    288c: 00 00        	<unknown>
    288e: 0e 16        	<unknown>
    2890: 01 53        	<unknown>
    2892: 00 00        	<unknown>
    2894: 00 01        	<unknown>
    2896: 0f 53 00 00  	<unknown>
    289a: 00 0f        	<unknown>
    289c: 1f 0d 00 00  	<unknown>
    28a0: 00 2c        	<unknown>
    28a2: bd 0e        	<unknown>
    28a4: 00 00        	<unknown>
    28a6: 4d 09        	<unknown>
    28a8: 00 00        	<unknown>
    28aa: 0e 32        	<unknown>
    28ac: 01 53        	<unknown>
    28ae: 00 00        	<unknown>
    28b0: 00 01        	<unknown>
    28b2: 0f 53 00 00  	<unknown>
    28b6: 00 00        	<unknown>
    28b8: 2c c7        	<unknown>
    28ba: 0e 00        	<unknown>
    28bc: 00 56        	<unknown>
    28be: 09 00        	<unknown>
    28c0: 00 0e        	<unknown>
    28c2: 36 01        	<unknown>
    28c4: 53 00 00 00  	fadd.s	ft0, ft0, ft0, rne
    28c8: 01 0f        	<unknown>
    28ca: 53 00 00 00  	fadd.s	ft0, ft0, ft0, rne
    28ce: 00 2c        	<unknown>
    28d0: d2 0e        	<unknown>
    28d2: 00 00        	<unknown>
    28d4: 60 09        	<unknown>
    28d6: 00 00        	<unknown>
    28d8: 0e 3a        	<unknown>
    28da: 01 53        	<unknown>
    28dc: 00 00        	<unknown>
    28de: 00 01        	<unknown>
    28e0: 0f 53 00 00  	<unknown>
    28e4: 00 00        	<unknown>
    28e6: 2c dd        	<unknown>
    28e8: 0e 00        	<unknown>
    28ea: 00 6f        	<unknown>
    28ec: 09 00        	<unknown>
    28ee: 00 0e        	<unknown>
    28f0: 3c 01        	<unknown>
    28f2: 53 00 00 00  	fadd.s	ft0, ft0, ft0, rne
    28f6: 01 0f        	<unknown>
    28f8: 53 00 00 00  	fadd.s	ft0, ft0, ft0, rne
    28fc: 00 2c        	<unknown>
    28fe: e7 0e 00 00  	jalr	t4, zero <.debug_info>
    2902: 78 09        	<unknown>
    2904: 00 00        	<unknown>
    2906: 0e 3e        	<unknown>
    2908: 01 53        	<unknown>
    290a: 00 00        	<unknown>
    290c: 00 01        	<unknown>
    290e: 0f 53 00 00  	<unknown>
    2912: 00 00        	<unknown>
    2914: 2c f2        	<unknown>
    2916: 0e 00        	<unknown>
    2918: 00 82        	<unknown>
    291a: 09 00        	<unknown>
    291c: 00 0e        	<unknown>
    291e: 40 01        	<unknown>
    2920: 53 00 00 00  	fadd.s	ft0, ft0, ft0, rne
    2924: 01 0f        	<unknown>
    2926: 53 00 00 00  	fadd.s	ft0, ft0, ft0, rne
    292a: 00 2c        	<unknown>
    292c: ff 0e 00 00  	<unknown>
    2930: 95 09        	<unknown>
    2932: 00 00        	<unknown>
    2934: 0e 42        	<unknown>
    2936: 01 53        	<unknown>
    2938: 00 00        	<unknown>
    293a: 00 01        	<unknown>
    293c: 0f 53 00 00  	<unknown>
    2940: 00 00        	<unknown>
    2942: 00           	<unknown>

Disassembly of section .debug_abbrev:

0000000000000000 <.debug_abbrev>:
       0: 01 11        	<unknown>
       2: 01 25        	<unknown>
       4: 0e 13        	<unknown>
       6: 05 03        	<unknown>
       8: 0e 10        	<unknown>
       a: 06 1b        	<unknown>
       c: 0e 00        	<unknown>
       e: 00 02        	<unknown>
      10: 2e 01        	<unknown>
      12: 00 00        	<unknown>
      14: 03 34 00 03  	ld	s0, 0x30(zero)
      18: 0e 49        	<unknown>
      1a: 13 3a 0b 3b  	sltiu	s4, s6, 0x3b0
      1e: 0b 00 00 04  	<unknown>
      22: 01 01        	<unknown>
      24: 49 13        	<unknown>
      26: 00 00        	<unknown>
      28: 05 21        	<unknown>
      2a: 00 49        	<unknown>
      2c: 13 37 0b 00  	sltiu	a4, s6, 0x0
      30: 00 06        	<unknown>
      32: 24 00        	<unknown>
      34: 03 0e 3e 0b  	lb	t3, 0xb3(t3)
      38: 0b 0b 00 00  	<unknown>
      3c: 07 24 00 03  	flw	fs0, 0x30(zero)
      40: 0e 0b        	<unknown>
      42: 0b 3e 0b 00  	<unknown>
      46: 00 08        	<unknown>
      48: 39 01        	<unknown>
      4a: 03 0e 00 00  	lb	t3, 0x0(zero)
      4e: 09 04        	<unknown>
      50: 01 03        	<unknown>
      52: 0e 0b        	<unknown>
      54: 0b 3a 0b 3b  	<unknown>
      58: 0b 00 00 0a  	<unknown>
      5c: 28 00        	<unknown>
      5e: 03 0e 1c 0f  	lb	t3, 0xf1(s8)
      62: 00 00        	<unknown>
      64: 0b 13 01 36  	<unknown>
      68: 0b 03 0e 0b  	<unknown>
      6c: 0b 3a 0b 3b  	<unknown>
      70: 0b 00 00 0c  	<unknown>
      74: 0d 00        	<unknown>
      76: 03 0e 49 13  	lb	t3, 0x134(s2)
      7a: 3a 0b        	<unknown>
      7c: 3b 0b 38 0a  	<unknown>
      80: 00 00        	<unknown>
      82: 0d 2e        	<unknown>
      84: 01 03        	<unknown>
      86: 0e 3a        	<unknown>
      88: 0b 3b 0b 3c  	<unknown>
      8c: 0c 3f        	<unknown>
      8e: 0c 00        	<unknown>
      90: 00 0e        	<unknown>
      92: 05 00        	<unknown>
      94: 49 13        	<unknown>
      96: 34 0c        	<unknown>
      98: 00 00        	<unknown>
      9a: 0f 05 00 49  	<unknown>
      9e: 13 00 00 10  	li	zero, 0x100
      a2: 16 00        	<unknown>
      a4: 49 13        	<unknown>
      a6: 03 0e 3a 0b  	lb	t3, 0xb3(s4)
      aa: 3b 0b 00 00  	addw	s6, zero, zero
      ae: 11 2e        	<unknown>
      b0: 01 87        	<unknown>
      b2: 40 0e        	<unknown>
      b4: 03 0e 3a 0b  	lb	t3, 0xb3(s4)
      b8: 3b 0b 49 13  	<unknown>
      bc: 3c 0c        	<unknown>
      be: 3f 0c 00 00  	<unknown>
      c2: 12 08        	<unknown>
      c4: 00 3a        	<unknown>
      c6: 0b 3b 0b 18  	<unknown>
      ca: 13 00 00 13  	li	zero, 0x130
      ce: 0f 00 49 13  	<unknown>
      d2: 00 00        	<unknown>
      d4: 14 13        	<unknown>
      d6: 01 36        	<unknown>
      d8: 0b 03 0e 0b  	<unknown>
      dc: 0b 3a 0b 3b  	<unknown>
      e0: 05 00        	<unknown>
      e2: 00 15        	<unknown>
      e4: 0d 00        	<unknown>
      e6: 03 0e 49 13  	lb	t3, 0x134(s2)
      ea: 3a 0b        	<unknown>
      ec: 3b 05 38 0a  	<unknown>
      f0: 00 00        	<unknown>
      f2: 16 2e        	<unknown>
      f4: 01 03        	<unknown>
      f6: 0e 3a        	<unknown>
      f8: 0b 3b 05 3c  	<unknown>
      fc: 0c 3f        	<unknown>
      fe: 0c 00        	<unknown>
     100: 00 17        	<unknown>
     102: 2e 01        	<unknown>
     104: 87 40 0e 03  	<unknown>
     108: 0e 3a        	<unknown>
     10a: 0b 3b 05 49  	<unknown>
     10e: 13 3c 0c 3f  	sltiu	s8, s8, 0x3f0
     112: 0c 00        	<unknown>
     114: 00 18        	<unknown>
     116: 16 00        	<unknown>
     118: 49 13        	<unknown>
     11a: 03 0e 3a 0b  	lb	t3, 0xb3(s4)
     11e: 3b 05 00 00  	addw	a0, zero, zero
     122: 19 26        	<unknown>
     124: 00 49        	<unknown>
     126: 13 00 00 1a  	li	zero, 0x1a0
     12a: 2e 00        	<unknown>
     12c: 87 40 0e 03  	<unknown>
     130: 0e 3a        	<unknown>
     132: 0b 3b 0b 49  	<unknown>
     136: 13 3c 0c 3f  	sltiu	s8, s8, 0x3f0
     13a: 0c 00        	<unknown>
     13c: 00 1b        	<unknown>
     13e: 2e 01        	<unknown>
     140: 03 0e 3a 0b  	lb	t3, 0xb3(s4)
     144: 3b 0b 3c 0c  	<unknown>
     148: 3f 0c 32 0b  	<unknown>
     14c: 00 00        	<unknown>
     14e: 1c 2e        	<unknown>
     150: 01 87        	<unknown>
     152: 40 0e        	<unknown>
     154: 03 0e 3a 0b  	lb	t3, 0xb3(s4)
     158: 3b 0b 3c 0c  	<unknown>
     15c: 3f 0c 32 0b  	<unknown>
     160: 00 00        	<unknown>
     162: 1d 2e        	<unknown>
     164: 01 87        	<unknown>
     166: 40 0e        	<unknown>
     168: 03 0e 3a 0b  	lb	t3, 0xb3(s4)
     16c: 3b 0b 49 13  	<unknown>
     170: 3c 0c        	<unknown>
     172: 3f 0c 32 0b  	<unknown>
     176: 00 00        	<unknown>
     178: 1e 10        	<unknown>
     17a: 00 49        	<unknown>
     17c: 13 00 00 1f  	li	zero, 0x1f0
     180: 08 00        	<unknown>
     182: 3a 0b        	<unknown>
     184: 3b 05 18 13  	<unknown>
     188: 00 00        	<unknown>
     18a: 20 2e        	<unknown>
     18c: 01 87        	<unknown>
     18e: 40 0e        	<unknown>
     190: 03 0e 3a 0b  	lb	t3, 0xb3(s4)
     194: 3b 0b 49 13  	<unknown>
     198: 3c 0c        	<unknown>
     19a: 00 00        	<unknown>
     19c: 21 2e        	<unknown>
     19e: 01 03        	<unknown>
     1a0: 0e 3a        	<unknown>
     1a2: 0b 3b 05 49  	<unknown>
     1a6: 13 3c 0c 3f  	sltiu	s8, s8, 0x3f0
     1aa: 0c 00        	<unknown>
     1ac: 00 22        	<unknown>
     1ae: 2e 01        	<unknown>
     1b0: 03 0e 3a 0b  	lb	t3, 0xb3(s4)
     1b4: 3b 0b 49 13  	<unknown>
     1b8: 3c 0c        	<unknown>
     1ba: 3f 0c 00 00  	<unknown>
     1be: 23 13 00 3c  	sh	zero, 0x3c6(zero)
     1c2: 0c 00        	<unknown>
     1c4: 00 24        	<unknown>
     1c6: 13 01 36 0b  	addi	sp, a2, 0xb3
     1ca: 0b 0b 3a 0b  	<unknown>
     1ce: 3b 0b 00 00  	addw	s6, zero, zero
     1d2: 25 2e        	<unknown>
     1d4: 00 03        	<unknown>
     1d6: 0e 3a        	<unknown>
     1d8: 0b 3b 05 3c  	<unknown>
     1dc: 0c 3f        	<unknown>
     1de: 0c 87        	<unknown>
     1e0: 01 0c        	<unknown>
     1e2: 00 00        	<unknown>
     1e4: 26 15        	<unknown>
     1e6: 00 00        	<unknown>
     1e8: 00 27        	<unknown>
     1ea: 0f 00 00 00  	fence	0, 0
     1ee: 28 26        	<unknown>
     1f0: 00 00        	<unknown>
     1f2: 00 29        	<unknown>
     1f4: 15 01        	<unknown>
     1f6: 49 13        	<unknown>
     1f8: 00 00        	<unknown>
     1fa: 2a 2e        	<unknown>
     1fc: 01 03        	<unknown>
     1fe: 0e 3a        	<unknown>
     200: 0b 3b 05 3c  	<unknown>
     204: 0c 3f        	<unknown>
     206: 0c 87        	<unknown>
     208: 01 0c        	<unknown>
     20a: 00 00        	<unknown>
     20c: 2b 2e 00 03  	<unknown>
     210: 0e 3a        	<unknown>
     212: 0b 3b 05 49  	<unknown>
     216: 13 3c 0c 3f  	sltiu	s8, s8, 0x3f0
     21a: 0c 00        	<unknown>
     21c: 00 2c        	<unknown>
     21e: 2e 01        	<unknown>
     220: 87 40 0e 03  	<unknown>
     224: 0e 3a        	<unknown>
     226: 0b 3b 05 49  	<unknown>
     22a: 13 3c 0c 00  	sltiu	s8, s8, 0x0
     22e: 00 00        	<unknown>

Disassembly of section .debug_line:

0000000000000000 <.debug_line>:
       0: 12 03        	<unknown>
       2: 00 00        	<unknown>
       4: 02 00        	<unknown>
       6: 0c 03        	<unknown>
       8: 00 00        	<unknown>
       a: 01 01        	<unknown>
       c: fb 0e 0d 00  	<unknown>
      10: 01 01        	<unknown>
      12: 01 01        	<unknown>
      14: 00 00        	<unknown>
      16: 00 01        	<unknown>
      18: 00 00        	<unknown>
      1a: 01 2e        	<unknown>
      1c: 00 2f        	<unknown>
      1e: 6e 65        	<unknown>
      20: 74 68        	<unknown>
      22: 6f 6d 65 2f  	jal	s10, 0x56318 <.debug_info+0x56318>
      26: 63 61 68 6e  	bltu	a6, t1, 0x708 <.debug_info+0x708>
      2a: 34 35        	<unknown>
      2c: 2f 43 75 50  	<unknown>
      30: 42 6f        	<unknown>
      32: 50 00        	<unknown>
      34: 2f 6e 65 74  	<unknown>
      38: 68 6f        	<unknown>
      3a: 6d 65        	<unknown>
      3c: 2f 63 61 68  	<unknown>
      40: 6e 34        	<unknown>
      42: 35 00        	<unknown>
      44: 2f 75 73 72  	<unknown>
      48: 2f 69 6e 63  	<unknown>
      4c: 6c 75        	<unknown>
      4e: 64 65        	<unknown>
      50: 00 2f        	<unknown>
      52: 75 73        	<unknown>
      54: 72 2f        	<unknown>
      56: 6c 69        	<unknown>
      58: 62 2f        	<unknown>
      5a: 67 63 63 2f  	<unknown>
      5e: 78 38        	<unknown>
      60: 36 5f        	<unknown>
      62: 36 34        	<unknown>
      64: 2d 6c        	<unknown>
      66: 69 6e        	<unknown>
      68: 75 78        	<unknown>
      6a: 2d 67        	<unknown>
      6c: 6e 75        	<unknown>
      6e: 2f 31 33 2f  	<unknown>
      72: 2e 2e        	<unknown>
      74: 2f 2e 2e 2f  	<unknown>
      78: 2e 2e        	<unknown>
      7a: 2f 2e 2e 2f  	<unknown>
      7e: 69 6e        	<unknown>
      80: 63 6c 75 64  	bltu	a0, t2, 0x6d8 <.debug_info+0x6d8>
      84: 65 2f        	<unknown>
      86: 63 2b 2b 2f  	<unknown>
      8a: 31 33        	<unknown>
      8c: 2f 62 69 74  	<unknown>
      90: 73 00 2f 75  	<unknown>
      94: 73 72 2f 69  	csrrci	tp, 0x692, 0x1e
      98: 6e 63        	<unknown>
      9a: 6c 75        	<unknown>
      9c: 64 65        	<unknown>
      9e: 2f 78 38 36  	<unknown>
      a2: 5f 36 34 2d  	<unknown>
      a6: 6c 69        	<unknown>
      a8: 6e 75        	<unknown>
      aa: 78 2d        	<unknown>
      ac: 67 6e 75 2f  	<unknown>
      b0: 62 69        	<unknown>
      b2: 74 73        	<unknown>
      b4: 00 2f        	<unknown>
      b6: 75 73        	<unknown>
      b8: 72 2f        	<unknown>
      ba: 6c 69        	<unknown>
      bc: 62 2f        	<unknown>
      be: 67 63 63 2f  	<unknown>
      c2: 78 38        	<unknown>
      c4: 36 5f        	<unknown>
      c6: 36 34        	<unknown>
      c8: 2d 6c        	<unknown>
      ca: 69 6e        	<unknown>
      cc: 75 78        	<unknown>
      ce: 2d 67        	<unknown>
      d0: 6e 75        	<unknown>
      d2: 2f 31 33 2f  	<unknown>
      d6: 2e 2e        	<unknown>
      d8: 2f 2e 2e 2f  	<unknown>
      dc: 2e 2e        	<unknown>
      de: 2f 2e 2e 2f  	<unknown>
      e2: 69 6e        	<unknown>
      e4: 63 6c 75 64  	bltu	a0, t2, 0x73c <.debug_info+0x73c>
      e8: 65 2f        	<unknown>
      ea: 63 2b 2b 2f  	<unknown>
      ee: 31 33        	<unknown>
      f0: 00 00        	<unknown>
      f2: 68 6f        	<unknown>
      f4: 74 73        	<unknown>
      f6: 70 6f        	<unknown>
      f8: 74 2e        	<unknown>
      fa: 63 75 00 01  	bgeu	zero, a6, 0x104 <.debug_info+0x104>
      fe: 00 00        	<unknown>
     100: 63 75 64 61  	bgeu	s0, s6, 0x70a <.debug_info+0x70a>
     104: 2d 31        	<unknown>
     106: 32 2e        	<unknown>
     108: 31 2f        	<unknown>
     10a: 69 6e        	<unknown>
     10c: 63 6c 75 64  	bltu	a0, t2, 0x764 <.debug_info+0x764>
     110: 65 2f        	<unknown>
     112: 6e 76        	<unknown>
     114: 2f 74 61 72  	<unknown>
     118: 67 65 74 00  	<unknown>
     11c: 02 00        	<unknown>
     11e: 00 63        	<unknown>
     120: 75 64        	<unknown>
     122: 61 2d        	<unknown>
     124: 31 32        	<unknown>
     126: 2e 31        	<unknown>
     128: 2f 69 6e 63  	<unknown>
     12c: 6c 75        	<unknown>
     12e: 64 65        	<unknown>
     130: 2f 76 65 63  	<unknown>
     134: 74 6f        	<unknown>
     136: 72 5f        	<unknown>
     138: 74 79        	<unknown>
     13a: 70 65        	<unknown>
     13c: 73 2e 68 00  	csrrs	t3, 0x6, a6
     140: 02 00        	<unknown>
     142: 00 6c        	<unknown>
     144: 6c 76        	<unknown>
     146: 6d 2d        	<unknown>
     148: 76 6f        	<unknown>
     14a: 72 74        	<unknown>
     14c: 65 78        	<unknown>
     14e: 2d 77        	<unknown>
     150: 69 74        	<unknown>
     152: 68 2d        	<unknown>
     154: 63 75 64 61  	bgeu	s0, s6, 0x75e <.debug_info+0x75e>
     158: 2d 62        	<unknown>
     15a: 75 69        	<unknown>
     15c: 6c 64        	<unknown>
     15e: 2f 6c 69 62  	<unknown>
     162: 2f 63 6c 61  	<unknown>
     166: 6e 67        	<unknown>
     168: 2f 31 38 2f  	<unknown>
     16c: 69 6e        	<unknown>
     16e: 63 6c 75 64  	bltu	a0, t2, 0x7c6 <.debug_info+0x7c6>
     172: 65 2f        	<unknown>
     174: 5f 5f 63 6c  	<unknown>
     178: 61 6e        	<unknown>
     17a: 67 5f 63 75  	<unknown>
     17e: 64 61        	<unknown>
     180: 5f 62 75 69  	<unknown>
     184: 6c 74        	<unknown>
     186: 69 6e        	<unknown>
     188: 5f 76 61 72  	<unknown>
     18c: 73 2e 68 00  	csrrs	t3, 0x6, a6
     190: 03 00 00 6c  	lb	zero, 0x6c0(zero)
     194: 6c 76        	<unknown>
     196: 6d 2d        	<unknown>
     198: 76 6f        	<unknown>
     19a: 72 74        	<unknown>
     19c: 65 78        	<unknown>
     19e: 2d 77        	<unknown>
     1a0: 69 74        	<unknown>
     1a2: 68 2d        	<unknown>
     1a4: 63 75 64 61  	bgeu	s0, s6, 0x7ae <.debug_info+0x7ae>
     1a8: 2d 62        	<unknown>
     1aa: 75 69        	<unknown>
     1ac: 6c 64        	<unknown>
     1ae: 2f 6c 69 62  	<unknown>
     1b2: 2f 63 6c 61  	<unknown>
     1b6: 6e 67        	<unknown>
     1b8: 2f 31 38 2f  	<unknown>
     1bc: 69 6e        	<unknown>
     1be: 63 6c 75 64  	bltu	a0, t2, 0x816 <.debug_info+0x816>
     1c2: 65 2f        	<unknown>
     1c4: 5f 5f 63 6c  	<unknown>
     1c8: 61 6e        	<unknown>
     1ca: 67 5f 63 75  	<unknown>
     1ce: 64 61        	<unknown>
     1d0: 5f 6d 61 74  	<unknown>
     1d4: 68 5f        	<unknown>
     1d6: 66 6f        	<unknown>
     1d8: 72 77        	<unknown>
     1da: 61 72        	<unknown>
     1dc: 64 5f        	<unknown>
     1de: 64 65        	<unknown>
     1e0: 63 6c 61 72  	bltu	sp, t1, 0x918 <.debug_info+0x918>
     1e4: 65 73        	<unknown>
     1e6: 2e 68        	<unknown>
     1e8: 00 03        	<unknown>
     1ea: 00 00        	<unknown>
     1ec: 73 74 64 6c  	csrrci	s0, 0x6c6, 0x8
     1f0: 69 62        	<unknown>
     1f2: 2e 68        	<unknown>
     1f4: 00 04        	<unknown>
     1f6: 00 00        	<unknown>
     1f8: 73 74 64 5f  	csrrci	s0, 0x5f6, 0x8
     1fc: 61 62        	<unknown>
     1fe: 73 2e 68 00  	csrrs	t3, 0x6, a6
     202: 05 00        	<unknown>
     204: 00 6d        	<unknown>
     206: 61 74        	<unknown>
     208: 68 63        	<unknown>
     20a: 61 6c        	<unknown>
     20c: 6c 73        	<unknown>
     20e: 2e 68        	<unknown>
     210: 00 06        	<unknown>
     212: 00 00        	<unknown>
     214: 63 6d 61 74  	bltu	sp, t1, 0x96e <.debug_info+0x96e>
     218: 68 00        	<unknown>
     21a: 07 00 00 6d  	<unknown>
     21e: 61 74        	<unknown>
     220: 68 2e        	<unknown>
     222: 68 00        	<unknown>
     224: 04 00        	<unknown>
     226: 00 63        	<unknown>
     228: 73 74 64 6c  	csrrci	s0, 0x6c6, 0x8
     22c: 69 62        	<unknown>
     22e: 00 07        	<unknown>
     230: 00 00        	<unknown>
     232: 6c 6c        	<unknown>
     234: 76 6d        	<unknown>
     236: 2d 76        	<unknown>
     238: 6f 72 74 65  	jal	tp, 0x4808e <.debug_info+0x4808e>
     23c: 78 2d        	<unknown>
     23e: 77 69 74 68  	<unknown>
     242: 2d 63        	<unknown>
     244: 75 64        	<unknown>
     246: 61 2d        	<unknown>
     248: 62 75        	<unknown>
     24a: 69 6c        	<unknown>
     24c: 64 2f        	<unknown>
     24e: 6c 69        	<unknown>
     250: 62 2f        	<unknown>
     252: 63 6c 61 6e  	bltu	sp, t1, 0x94a <.debug_info+0x94a>
     256: 67 2f 31 38  	<unknown>
     25a: 2f 69 6e 63  	<unknown>
     25e: 6c 75        	<unknown>
     260: 64 65        	<unknown>
     262: 2f 5f 5f 73  	<unknown>
     266: 74 64        	<unknown>
     268: 64 65        	<unknown>
     26a: 66 5f        	<unknown>
     26c: 73 69 7a 65  	csrrsi	s2, 0x657, 0x14
     270: 5f 74 2e 68  	<unknown>
     274: 00 03        	<unknown>
     276: 00 00        	<unknown>
     278: 73 74 64 6c  	csrrci	s0, 0x6c6, 0x8
     27c: 69 62        	<unknown>
     27e: 2e 68        	<unknown>
     280: 00 07        	<unknown>
     282: 00 00        	<unknown>
     284: 6c 6c        	<unknown>
     286: 76 6d        	<unknown>
     288: 2d 76        	<unknown>
     28a: 6f 72 74 65  	jal	tp, 0x480e0 <.debug_info+0x480e0>
     28e: 78 2d        	<unknown>
     290: 77 69 74 68  	<unknown>
     294: 2d 63        	<unknown>
     296: 75 64        	<unknown>
     298: 61 2d        	<unknown>
     29a: 62 75        	<unknown>
     29c: 69 6c        	<unknown>
     29e: 64 2f        	<unknown>
     2a0: 6c 69        	<unknown>
     2a2: 62 2f        	<unknown>
     2a4: 63 6c 61 6e  	bltu	sp, t1, 0x99c <.debug_info+0x99c>
     2a8: 67 2f 31 38  	<unknown>
     2ac: 2f 69 6e 63  	<unknown>
     2b0: 6c 75        	<unknown>
     2b2: 64 65        	<unknown>
     2b4: 2f 5f 5f 63  	<unknown>
     2b8: 6c 61        	<unknown>
     2ba: 6e 67        	<unknown>
     2bc: 5f 63 75 64  	<unknown>
     2c0: 61 5f        	<unknown>
     2c2: 6d 61        	<unknown>
     2c4: 74 68        	<unknown>
     2c6: 2e 68        	<unknown>
     2c8: 00 03        	<unknown>
     2ca: 00 00        	<unknown>
     2cc: 6c 6c        	<unknown>
     2ce: 76 6d        	<unknown>
     2d0: 2d 76        	<unknown>
     2d2: 6f 72 74 65  	jal	tp, 0x48128 <.debug_info+0x48128>
     2d6: 78 2d        	<unknown>
     2d8: 77 69 74 68  	<unknown>
     2dc: 2d 63        	<unknown>
     2de: 75 64        	<unknown>
     2e0: 61 2d        	<unknown>
     2e2: 62 75        	<unknown>
     2e4: 69 6c        	<unknown>
     2e6: 64 2f        	<unknown>
     2e8: 6c 69        	<unknown>
     2ea: 62 2f        	<unknown>
     2ec: 63 6c 61 6e  	bltu	sp, t1, 0x9e4 <.debug_info+0x9e4>
     2f0: 67 2f 31 38  	<unknown>
     2f4: 2f 69 6e 63  	<unknown>
     2f8: 6c 75        	<unknown>
     2fa: 64 65        	<unknown>
     2fc: 2f 5f 5f 63  	<unknown>
     300: 6c 61        	<unknown>
     302: 6e 67        	<unknown>
     304: 5f 63 75 64  	<unknown>
     308: 61 5f        	<unknown>
     30a: 63 6d 61 74  	bltu	sp, t1, 0xa64 <.debug_info+0xa64>
     30e: 68 2e        	<unknown>
     310: 68 00        	<unknown>
     312: 03 00 00 00  	lb	zero, 0x0(zero)

Disassembly of section .debug_frame:

0000000000000000 <.debug_frame>:
       0: 0c 00        	<unknown>
       2: 00 00        	<unknown>
       4: ff ff ff ff  	<unknown>
       8: 01 00        	<unknown>
       a: 01 78        	<unknown>
       c: 01 0c        	<unknown>
       e: 02 00        	<unknown>
      10: 3c 00        	<unknown>
      12: 00 00        	<unknown>
      14: 00 00        	<unknown>
      16: 00 00        	<unknown>
      18: 08 02        	<unknown>
      1a: 00 80        	<unknown>
      1c: 01 00        	<unknown>
      1e: 00 00        	<unknown>
      20: 08 07        	<unknown>
      22: 00 00        	<unknown>
      24: 00 00        	<unknown>
      26: 00 00        	<unknown>
      28: 44 0e        	<unknown>
      2a: 90 01        	<unknown>
      2c: 74 81        	<unknown>
      2e: 01 88        	<unknown>
      30: 02 89        	<unknown>
      32: 03 92 04 93  	lh	tp, -0x6d0(s1)
      36: 05 94        	<unknown>
      38: 06 95        	<unknown>
      3a: 07 96 08 97  	<unknown>
      3e: 09 98        	<unknown>
      40: 0a 99        	<unknown>
      42: 0b 9a 0c 9b  	<unknown>
      46: 0d 44        	<unknown>
      48: 0c 08        	<unknown>
      4a: 00 00        	<unknown>
      4c: 00 00        	<unknown>
      4e: 00 00        	<unknown>
      50: 14 00        	<unknown>
      52: 00 00        	<unknown>
      54: 00 00        	<unknown>
      56: 00 00        	<unknown>
      58: 10 09        	<unknown>
      5a: 00 80        	<unknown>
      5c: 01 00        	<unknown>
      5e: 00 00        	<unknown>
      60: 38 00        	<unknown>
      62: 00 00        	<unknown>
      64: 00 00        	<unknown>
      66: 00 00        	<unknown>

Disassembly of section .debug_str:

0000000000000000 <.debug_str>:
       0: 63 6c 61 6e  	bltu	sp, t1, 0x6f8 <.debug_info+0x6f8>
       4: 67 20 76 65  	<unknown>
       8: 72 73        	<unknown>
       a: 69 6f        	<unknown>
       c: 6e 20        	<unknown>
       e: 31 38        	<unknown>
      10: 2e 31        	<unknown>
      12: 2e 37        	<unknown>
      14: 20 28        	<unknown>
      16: 68 74        	<unknown>
      18: 74 70        	<unknown>
      1a: 73 3a 2f 2f  	csrrc	s4, 0x2f2, t5
      1e: 67 69 74 68  	<unknown>
      22: 75 62        	<unknown>
      24: 2e 63        	<unknown>
      26: 6f 6d 2f 76  	jal	s10, 0xf6788 <.debug_info+0xf6788>
      2a: 6f 72 74 65  	jal	tp, 0x47e80 <.debug_info+0x47e80>
      2e: 78 67        	<unknown>
      30: 70 67        	<unknown>
      32: 70 75        	<unknown>
      34: 2f 6c 6c 76  	<unknown>
      38: 6d 2e        	<unknown>
      3a: 67 69 74 20  	<unknown>
      3e: 61 35        	<unknown>
      40: 65 62        	<unknown>
      42: 66 37        	<unknown>
      44: 66 32        	<unknown>
      46: 63 31 66 32  	<unknown>
      4a: 34 36        	<unknown>
      4c: 61 35        	<unknown>
      4e: 65 33        	<unknown>
      50: 61 30        	<unknown>
      52: 38 31        	<unknown>
      54: 61 34        	<unknown>
      56: 66 64        	<unknown>
      58: 31 35        	<unknown>
      5a: 37 36 32 34  	lui	a2, 0x34323
      5e: 37 65 35 37  	lui	a0, 0x37356
      62: 34 62        	<unknown>
      64: 33 30 29 00  	sltu	zero, s2, sp
      68: 68 6f        	<unknown>
      6a: 74 73        	<unknown>
      6c: 70 6f        	<unknown>
      6e: 74 2e        	<unknown>
      70: 63 75 00 2f  	bgeu	zero, a6, 0x35a <.debug_info+0x35a>
      74: 6e 65        	<unknown>
      76: 74 68        	<unknown>
      78: 6f 6d 65 2f  	jal	s10, 0x5636e <.debug_info+0x5636e>
      7c: 63 61 68 6e  	bltu	a6, t1, 0x75e <.debug_info+0x75e>
      80: 34 35        	<unknown>
      82: 2f 43 75 50  	<unknown>
      86: 42 6f        	<unknown>
      88: 50 2f        	<unknown>
      8a: 65 78        	<unknown>
      8c: 61 6d        	<unknown>
      8e: 70 6c        	<unknown>
      90: 65 73        	<unknown>
      92: 2f 68 6f 74  	<unknown>
      96: 73 70 6f 74  	csrci	0x746, 0x1e
      9a: 00 74        	<unknown>
      9c: 65 6d        	<unknown>
      9e: 70 5f        	<unknown>
      a0: 6f 6e 5f 63  	jal	t3, 0xf6ed4 <.debug_info+0xf6ed4>
      a4: 75 64        	<unknown>
      a6: 61 00        	<unknown>
      a8: 66 6c        	<unknown>
      aa: 6f 61 74 00  	jal	sp, 0x468b0 <.debug_info+0x468b0>
      ae: 5f 5f 41 52  	<unknown>
      b2: 52 41        	<unknown>
      b4: 59 5f        	<unknown>
      b6: 53 49 5a 45  	<unknown>
      ba: 5f 54 59 50  	<unknown>
      be: 45 5f        	<unknown>
      c0: 5f 00 70 6f  	<unknown>
      c4: 77 65 72 5f  	<unknown>
      c8: 6f 6e 5f 63  	jal	t3, 0xf6efc <.debug_info+0xf6efc>
      cc: 75 64        	<unknown>
      ce: 61 00        	<unknown>
      d0: 74 65        	<unknown>
      d2: 6d 70        	<unknown>
      d4: 5f 74 00 74  	<unknown>
      d8: 61 72        	<unknown>
      da: 67 65 74 00  	<unknown>
      de: 64 65        	<unknown>
      e0: 74 61        	<unknown>
      e2: 69 6c        	<unknown>
      e4: 00 73        	<unknown>
      e6: 6d 5f        	<unknown>
      e8: 33 35 00 73  	<unknown>
      ec: 6d 5f        	<unknown>
      ee: 33 37 00 73  	<unknown>
      f2: 6d 5f        	<unknown>
      f4: 35 30        	<unknown>
      f6: 00 73        	<unknown>
      f8: 6d 5f        	<unknown>
      fa: 35 32        	<unknown>
      fc: 00 73        	<unknown>
      fe: 6d 5f        	<unknown>
     100: 35 33        	<unknown>
     102: 00 73        	<unknown>
     104: 6d 5f        	<unknown>
     106: 36 30        	<unknown>
     108: 00 73        	<unknown>
     10a: 6d 5f        	<unknown>
     10c: 36 31        	<unknown>
     10e: 00 73        	<unknown>
     110: 6d 5f        	<unknown>
     112: 36 32        	<unknown>
     114: 00 73        	<unknown>
     116: 6d 5f        	<unknown>
     118: 37 30 00 73  	lui	zero, 0x73003
     11c: 6d 5f        	<unknown>
     11e: 37 32 00 73  	lui	tp, 0x73003
     122: 6d 5f        	<unknown>
     124: 37 35 00 73  	lui	a0, 0x73003
     128: 6d 5f        	<unknown>
     12a: 38 30        	<unknown>
     12c: 00 73        	<unknown>
     12e: 6d 5f        	<unknown>
     130: 38 36        	<unknown>
     132: 00 73        	<unknown>
     134: 6d 5f        	<unknown>
     136: 38 37        	<unknown>
     138: 00 73        	<unknown>
     13a: 6d 5f        	<unknown>
     13c: 38 39        	<unknown>
     13e: 00 73        	<unknown>
     140: 6d 5f        	<unknown>
     142: 39 30        	<unknown>
     144: 00 73        	<unknown>
     146: 6d 5f        	<unknown>
     148: 73 65 6c 65  	csrrsi	a0, 0x656, 0x18
     14c: 63 74 6f 72  	bgeu	t5, t1, 0x874 <.debug_info+0x874>
     150: 00 74        	<unknown>
     152: 61 72        	<unknown>
     154: 67 65 74 73  	<unknown>
     158: 00 75        	<unknown>
     15a: 6e 73        	<unknown>
     15c: 69 67        	<unknown>
     15e: 6e 65        	<unknown>
     160: 64 20        	<unknown>
     162: 6c 6f        	<unknown>
     164: 6e 67        	<unknown>
     166: 20 6c        	<unknown>
     168: 6f 6e 67 00  	jal	t3, 0x7616e <.debug_info+0x7616e>
     16c: 62 61        	<unknown>
     16e: 73 65 5f 69  	csrrsi	a0, 0x695, 0x1e
     172: 6e 74        	<unknown>
     174: 5f 74 00 74  	<unknown>
     178: 61 72        	<unknown>
     17a: 67 65 74 5f  	<unknown>
     17e: 64 65        	<unknown>
     180: 73 63 72 69  	csrrsi	t1, 0x697, 0x4
     184: 70 74        	<unknown>
     186: 69 6f        	<unknown>
     188: 6e 00        	<unknown>
     18a: 75 6e        	<unknown>
     18c: 73 69 67 6e  	csrrsi	s2, 0x6e6, 0xe
     190: 65 64        	<unknown>
     192: 20 69        	<unknown>
     194: 6e 74        	<unknown>
     196: 00 5f        	<unknown>
     198: 5a 4e        	<unknown>
     19a: 4b 34 64 69  	fnmsub.s	fs0, fs0, fs6, fa3, rup
     19e: 6d 33        	<unknown>
     1a0: 63 76 35 75  	bgeu	a0, s3, 0x8ec <.debug_info+0x8ec>
     1a4: 69 6e        	<unknown>
     1a6: 74 33        	<unknown>
     1a8: 45 76        	<unknown>
     1aa: 00 6f        	<unknown>
     1ac: 70 65        	<unknown>
     1ae: 72 61        	<unknown>
     1b0: 74 6f        	<unknown>
     1b2: 72 20        	<unknown>
     1b4: 75 69        	<unknown>
     1b6: 6e 74        	<unknown>
     1b8: 33 00 5f 5a  	<unknown>
     1bc: 4e 32        	<unknown>
     1be: 35 5f        	<unknown>
     1c0: 5f 63 75 64  	<unknown>
     1c4: 61 5f        	<unknown>
     1c6: 62 75        	<unknown>
     1c8: 69 6c        	<unknown>
     1ca: 74 69        	<unknown>
     1cc: 6e 5f        	<unknown>
     1ce: 62 6c        	<unknown>
     1d0: 6f 63 6b 49  	jal	t1, 0xb6666 <.debug_info+0xb6666>
     1d4: 64 78        	<unknown>
     1d6: 5f 74 31 37  	<unknown>
     1da: 5f 5f 66 65  	<unknown>
     1de: 74 63        	<unknown>
     1e0: 68 5f        	<unknown>
     1e2: 62 75        	<unknown>
     1e4: 69 6c        	<unknown>
     1e6: 74 69        	<unknown>
     1e8: 6e 5f        	<unknown>
     1ea: 78 45        	<unknown>
     1ec: 76 00        	<unknown>
     1ee: 5f 5f 66 65  	<unknown>
     1f2: 74 63        	<unknown>
     1f4: 68 5f        	<unknown>
     1f6: 62 75        	<unknown>
     1f8: 69 6c        	<unknown>
     1fa: 74 69        	<unknown>
     1fc: 6e 5f        	<unknown>
     1fe: 78 00        	<unknown>
     200: 5f 5a 4e 32  	<unknown>
     204: 35 5f        	<unknown>
     206: 5f 63 75 64  	<unknown>
     20a: 61 5f        	<unknown>
     20c: 62 75        	<unknown>
     20e: 69 6c        	<unknown>
     210: 74 69        	<unknown>
     212: 6e 5f        	<unknown>
     214: 62 6c        	<unknown>
     216: 6f 63 6b 49  	jal	t1, 0xb66ac <.debug_info+0xb66ac>
     21a: 64 78        	<unknown>
     21c: 5f 74 31 37  	<unknown>
     220: 5f 5f 66 65  	<unknown>
     224: 74 63        	<unknown>
     226: 68 5f        	<unknown>
     228: 62 75        	<unknown>
     22a: 69 6c        	<unknown>
     22c: 74 69        	<unknown>
     22e: 6e 5f        	<unknown>
     230: 79 45        	<unknown>
     232: 76 00        	<unknown>
     234: 5f 5f 66 65  	<unknown>
     238: 74 63        	<unknown>
     23a: 68 5f        	<unknown>
     23c: 62 75        	<unknown>
     23e: 69 6c        	<unknown>
     240: 74 69        	<unknown>
     242: 6e 5f        	<unknown>
     244: 79 00        	<unknown>
     246: 5f 5a 4e 32  	<unknown>
     24a: 35 5f        	<unknown>
     24c: 5f 63 75 64  	<unknown>
     250: 61 5f        	<unknown>
     252: 62 75        	<unknown>
     254: 69 6c        	<unknown>
     256: 74 69        	<unknown>
     258: 6e 5f        	<unknown>
     25a: 62 6c        	<unknown>
     25c: 6f 63 6b 49  	jal	t1, 0xb66f2 <.debug_info+0xb66f2>
     260: 64 78        	<unknown>
     262: 5f 74 31 37  	<unknown>
     266: 5f 5f 66 65  	<unknown>
     26a: 74 63        	<unknown>
     26c: 68 5f        	<unknown>
     26e: 62 75        	<unknown>
     270: 69 6c        	<unknown>
     272: 74 69        	<unknown>
     274: 6e 5f        	<unknown>
     276: 7a 45        	<unknown>
     278: 76 00        	<unknown>
     27a: 5f 5f 66 65  	<unknown>
     27e: 74 63        	<unknown>
     280: 68 5f        	<unknown>
     282: 62 75        	<unknown>
     284: 69 6c        	<unknown>
     286: 74 69        	<unknown>
     288: 6e 5f        	<unknown>
     28a: 7a 00        	<unknown>
     28c: 5f 5a 4e 4b  	<unknown>
     290: 32 35        	<unknown>
     292: 5f 5f 63 75  	<unknown>
     296: 64 61        	<unknown>
     298: 5f 62 75 69  	<unknown>
     29c: 6c 74        	<unknown>
     29e: 69 6e        	<unknown>
     2a0: 5f 62 6c 6f  	<unknown>
     2a4: 63 6b 49 64  	bltu	s2, tp, 0x8fa <.debug_info+0x8fa>
     2a8: 78 5f        	<unknown>
     2aa: 74 63        	<unknown>
     2ac: 76 34        	<unknown>
     2ae: 64 69        	<unknown>
     2b0: 6d 33        	<unknown>
     2b2: 45 76        	<unknown>
     2b4: 00 6f        	<unknown>
     2b6: 70 65        	<unknown>
     2b8: 72 61        	<unknown>
     2ba: 74 6f        	<unknown>
     2bc: 72 20        	<unknown>
     2be: 64 69        	<unknown>
     2c0: 6d 33        	<unknown>
     2c2: 00 5f        	<unknown>
     2c4: 5a 4e        	<unknown>
     2c6: 4b 32 35 5f  	<unknown>
     2ca: 5f 63 75 64  	<unknown>
     2ce: 61 5f        	<unknown>
     2d0: 62 75        	<unknown>
     2d2: 69 6c        	<unknown>
     2d4: 74 69        	<unknown>
     2d6: 6e 5f        	<unknown>
     2d8: 62 6c        	<unknown>
     2da: 6f 63 6b 49  	jal	t1, 0xb6770 <.debug_info+0xb6770>
     2de: 64 78        	<unknown>
     2e0: 5f 74 63 76  	<unknown>
     2e4: 35 75        	<unknown>
     2e6: 69 6e        	<unknown>
     2e8: 74 33        	<unknown>
     2ea: 45 76        	<unknown>
     2ec: 00 5f        	<unknown>
     2ee: 5f 63 75 64  	<unknown>
     2f2: 61 5f        	<unknown>
     2f4: 62 75        	<unknown>
     2f6: 69 6c        	<unknown>
     2f8: 74 69        	<unknown>
     2fa: 6e 5f        	<unknown>
     2fc: 62 6c        	<unknown>
     2fe: 6f 63 6b 49  	jal	t1, 0xb6794 <.debug_info+0xb6794>
     302: 64 78        	<unknown>
     304: 5f 74 00 5f  	<unknown>
     308: 5a 4e        	<unknown>
     30a: 4b 32 35 5f  	<unknown>
     30e: 5f 63 75 64  	<unknown>
     312: 61 5f        	<unknown>
     314: 62 75        	<unknown>
     316: 69 6c        	<unknown>
     318: 74 69        	<unknown>
     31a: 6e 5f        	<unknown>
     31c: 62 6c        	<unknown>
     31e: 6f 63 6b 49  	jal	t1, 0xb67b4 <.debug_info+0xb67b4>
     322: 64 78        	<unknown>
     324: 5f 74 61 53  	<unknown>
     328: 45 52        	<unknown>
     32a: 4b 53 5f 00  	<unknown>
     32e: 6f 70 65 72  	j	0x57a54 <.debug_info+0x57a54>
     332: 61 74        	<unknown>
     334: 6f 72 3d 00  	jal	tp, 0xd7b36 <.debug_info+0xd7b36>
     338: 5f 5a 4e 4b  	<unknown>
     33c: 32 35        	<unknown>
     33e: 5f 5f 63 75  	<unknown>
     342: 64 61        	<unknown>
     344: 5f 62 75 69  	<unknown>
     348: 6c 74        	<unknown>
     34a: 69 6e        	<unknown>
     34c: 5f 62 6c 6f  	<unknown>
     350: 63 6b 49 64  	bltu	s2, tp, 0x9a6 <.debug_info+0x9a6>
     354: 78 5f        	<unknown>
     356: 74 61        	<unknown>
     358: 64 45        	<unknown>
     35a: 76 00        	<unknown>
     35c: 6f 70 65 72  	j	0x57a82 <.debug_info+0x57a82>
     360: 61 74        	<unknown>
     362: 6f 72 26 00  	jal	tp, 0x67364 <.debug_info+0x67364>
     366: 5f 5a 4e 32  	<unknown>
     36a: 36 5f        	<unknown>
     36c: 5f 63 75 64  	<unknown>
     370: 61 5f        	<unknown>
     372: 62 75        	<unknown>
     374: 69 6c        	<unknown>
     376: 74 69        	<unknown>
     378: 6e 5f        	<unknown>
     37a: 74 68        	<unknown>
     37c: 72 65        	<unknown>
     37e: 61 64        	<unknown>
     380: 49 64        	<unknown>
     382: 78 5f        	<unknown>
     384: 74 31        	<unknown>
     386: 37 5f 5f 66  	lui	t5, 0x665f5
     38a: 65 74        	<unknown>
     38c: 63 68 5f 62  	bltu	t5, t0, 0x9bc <.debug_info+0x9bc>
     390: 75 69        	<unknown>
     392: 6c 74        	<unknown>
     394: 69 6e        	<unknown>
     396: 5f 78 45 76  	<unknown>
     39a: 00 5f        	<unknown>
     39c: 5a 4e        	<unknown>
     39e: 32 36        	<unknown>
     3a0: 5f 5f 63 75  	<unknown>
     3a4: 64 61        	<unknown>
     3a6: 5f 62 75 69  	<unknown>
     3aa: 6c 74        	<unknown>
     3ac: 69 6e        	<unknown>
     3ae: 5f 74 68 72  	<unknown>
     3b2: 65 61        	<unknown>
     3b4: 64 49        	<unknown>
     3b6: 64 78        	<unknown>
     3b8: 5f 74 31 37  	<unknown>
     3bc: 5f 5f 66 65  	<unknown>
     3c0: 74 63        	<unknown>
     3c2: 68 5f        	<unknown>
     3c4: 62 75        	<unknown>
     3c6: 69 6c        	<unknown>
     3c8: 74 69        	<unknown>
     3ca: 6e 5f        	<unknown>
     3cc: 79 45        	<unknown>
     3ce: 76 00        	<unknown>
     3d0: 5f 5a 4e 32  	<unknown>
     3d4: 36 5f        	<unknown>
     3d6: 5f 63 75 64  	<unknown>
     3da: 61 5f        	<unknown>
     3dc: 62 75        	<unknown>
     3de: 69 6c        	<unknown>
     3e0: 74 69        	<unknown>
     3e2: 6e 5f        	<unknown>
     3e4: 74 68        	<unknown>
     3e6: 72 65        	<unknown>
     3e8: 61 64        	<unknown>
     3ea: 49 64        	<unknown>
     3ec: 78 5f        	<unknown>
     3ee: 74 31        	<unknown>
     3f0: 37 5f 5f 66  	lui	t5, 0x665f5
     3f4: 65 74        	<unknown>
     3f6: 63 68 5f 62  	bltu	t5, t0, 0xa26 <.debug_info+0xa26>
     3fa: 75 69        	<unknown>
     3fc: 6c 74        	<unknown>
     3fe: 69 6e        	<unknown>
     400: 5f 7a 45 76  	<unknown>
     404: 00 5f        	<unknown>
     406: 5a 4e        	<unknown>
     408: 4b 32 36 5f  	<unknown>
     40c: 5f 63 75 64  	<unknown>
     410: 61 5f        	<unknown>
     412: 62 75        	<unknown>
     414: 69 6c        	<unknown>
     416: 74 69        	<unknown>
     418: 6e 5f        	<unknown>
     41a: 74 68        	<unknown>
     41c: 72 65        	<unknown>
     41e: 61 64        	<unknown>
     420: 49 64        	<unknown>
     422: 78 5f        	<unknown>
     424: 74 63        	<unknown>
     426: 76 34        	<unknown>
     428: 64 69        	<unknown>
     42a: 6d 33        	<unknown>
     42c: 45 76        	<unknown>
     42e: 00 5f        	<unknown>
     430: 5a 4e        	<unknown>
     432: 4b 32 36 5f  	<unknown>
     436: 5f 63 75 64  	<unknown>
     43a: 61 5f        	<unknown>
     43c: 62 75        	<unknown>
     43e: 69 6c        	<unknown>
     440: 74 69        	<unknown>
     442: 6e 5f        	<unknown>
     444: 74 68        	<unknown>
     446: 72 65        	<unknown>
     448: 61 64        	<unknown>
     44a: 49 64        	<unknown>
     44c: 78 5f        	<unknown>
     44e: 74 63        	<unknown>
     450: 76 35        	<unknown>
     452: 75 69        	<unknown>
     454: 6e 74        	<unknown>
     456: 33 45 76 00  	xor	a0, a2, t2
     45a: 5f 5f 63 75  	<unknown>
     45e: 64 61        	<unknown>
     460: 5f 62 75 69  	<unknown>
     464: 6c 74        	<unknown>
     466: 69 6e        	<unknown>
     468: 5f 74 68 72  	<unknown>
     46c: 65 61        	<unknown>
     46e: 64 49        	<unknown>
     470: 64 78        	<unknown>
     472: 5f 74 00 5f  	<unknown>
     476: 5a 4e        	<unknown>
     478: 4b 32 36 5f  	<unknown>
     47c: 5f 63 75 64  	<unknown>
     480: 61 5f        	<unknown>
     482: 62 75        	<unknown>
     484: 69 6c        	<unknown>
     486: 74 69        	<unknown>
     488: 6e 5f        	<unknown>
     48a: 74 68        	<unknown>
     48c: 72 65        	<unknown>
     48e: 61 64        	<unknown>
     490: 49 64        	<unknown>
     492: 78 5f        	<unknown>
     494: 74 61        	<unknown>
     496: 53 45 52 4b  	<unknown>
     49a: 53 5f 00 5f  	<unknown>
     49e: 5a 4e        	<unknown>
     4a0: 4b 32 36 5f  	<unknown>
     4a4: 5f 63 75 64  	<unknown>
     4a8: 61 5f        	<unknown>
     4aa: 62 75        	<unknown>
     4ac: 69 6c        	<unknown>
     4ae: 74 69        	<unknown>
     4b0: 6e 5f        	<unknown>
     4b2: 74 68        	<unknown>
     4b4: 72 65        	<unknown>
     4b6: 61 64        	<unknown>
     4b8: 49 64        	<unknown>
     4ba: 78 5f        	<unknown>
     4bc: 74 61        	<unknown>
     4be: 64 45        	<unknown>
     4c0: 76 00        	<unknown>
     4c2: 73 74 64 00  	csrrci	s0, 0x6, 0x8
     4c6: 5f 5a 4c 33  	<unknown>
     4ca: 61 62        	<unknown>
     4cc: 73 69 00 5f  	csrrsi	s2, 0x5f0, 0x0
     4d0: 5a 4c        	<unknown>
     4d2: 34 61        	<unknown>
     4d4: 63 6f 73 66  	bltu	t1, t2, 0xb52 <.debug_info+0xb52>
     4d8: 00 61        	<unknown>
     4da: 63 6f 73 00  	bltu	t1, t2, 0x4f8 <.debug_info+0x4f8>
     4de: 5f 5a 4c 35  	<unknown>
     4e2: 61 63        	<unknown>
     4e4: 6f 73 68 66  	jal	t1, 0x87b4a <.debug_info+0x87b4a>
     4e8: 00 61        	<unknown>
     4ea: 63 6f 73 68  	bltu	t1, t2, 0xb88 <.debug_info+0xb88>
     4ee: 00 5f        	<unknown>
     4f0: 5a 4c        	<unknown>
     4f2: 34 61        	<unknown>
     4f4: 73 69 6e 66  	csrrsi	s2, 0x666, 0x1c
     4f8: 00 61        	<unknown>
     4fa: 73 69 6e 00  	csrrsi	s2, 0x6, 0x1c
     4fe: 5f 5a 4c 35  	<unknown>
     502: 61 73        	<unknown>
     504: 69 6e        	<unknown>
     506: 68 66        	<unknown>
     508: 00 61        	<unknown>
     50a: 73 69 6e 68  	csrrsi	s2, 0x686, 0x1c
     50e: 00 5f        	<unknown>
     510: 5a 4c        	<unknown>
     512: 34 61        	<unknown>
     514: 74 61        	<unknown>
     516: 6e 66        	<unknown>
     518: 00 61        	<unknown>
     51a: 74 61        	<unknown>
     51c: 6e 00        	<unknown>
     51e: 5f 5a 4c 35  	<unknown>
     522: 61 74        	<unknown>
     524: 61 6e        	<unknown>
     526: 32 66        	<unknown>
     528: 66 00        	<unknown>
     52a: 61 74        	<unknown>
     52c: 61 6e        	<unknown>
     52e: 32 00        	<unknown>
     530: 5f 5a 4c 35  	<unknown>
     534: 61 74        	<unknown>
     536: 61 6e        	<unknown>
     538: 68 66        	<unknown>
     53a: 00 61        	<unknown>
     53c: 74 61        	<unknown>
     53e: 6e 68        	<unknown>
     540: 00 5f        	<unknown>
     542: 5a 4c        	<unknown>
     544: 34 63        	<unknown>
     546: 62 72        	<unknown>
     548: 74 66        	<unknown>
     54a: 00 63        	<unknown>
     54c: 62 72        	<unknown>
     54e: 74 00        	<unknown>
     550: 5f 5a 4c 34  	<unknown>
     554: 63 65 69 6c  	bltu	s2, t1, 0xc1e <.debug_info+0xc1e>
     558: 66 00        	<unknown>
     55a: 63 65 69 6c  	bltu	s2, t1, 0xc24 <.debug_info+0xc24>
     55e: 00 5f        	<unknown>
     560: 5a 4c        	<unknown>
     562: 38 63        	<unknown>
     564: 6f 70 79 73  	j	0x9849a <.debug_info+0x9849a>
     568: 69 67        	<unknown>
     56a: 6e 66        	<unknown>
     56c: 66 00        	<unknown>
     56e: 63 6f 70 79  	bltu	zero, s7, 0xd0c <.debug_info+0xd0c>
     572: 73 69 67 6e  	csrrsi	s2, 0x6e6, 0xe
     576: 00 5f        	<unknown>
     578: 5a 4c        	<unknown>
     57a: 33 63 6f 73  	<unknown>
     57e: 66 00        	<unknown>
     580: 5f 5a 4c 34  	<unknown>
     584: 63 6f 73 68  	bltu	t1, t2, 0xc22 <.debug_info+0xc22>
     588: 66 00        	<unknown>
     58a: 5f 5a 4c 33  	<unknown>
     58e: 65 72        	<unknown>
     590: 66 66        	<unknown>
     592: 00 5f        	<unknown>
     594: 5a 4c        	<unknown>
     596: 34 65        	<unknown>
     598: 72 66        	<unknown>
     59a: 63 66 00 65  	bltu	zero, a6, 0xbe6 <.debug_info+0xbe6>
     59e: 72 66        	<unknown>
     5a0: 63 00 5f 5a  	beq	t5, t0, 0xb40 <.debug_info+0xb40>
     5a4: 4c 33        	<unknown>
     5a6: 65 78        	<unknown>
     5a8: 70 66        	<unknown>
     5aa: 00 5f        	<unknown>
     5ac: 5a 4c        	<unknown>
     5ae: 34 65        	<unknown>
     5b0: 78 70        	<unknown>
     5b2: 32 66        	<unknown>
     5b4: 00 65        	<unknown>
     5b6: 78 70        	<unknown>
     5b8: 32 00        	<unknown>
     5ba: 5f 5a 4c 35  	<unknown>
     5be: 65 78        	<unknown>
     5c0: 70 6d        	<unknown>
     5c2: 31 66        	<unknown>
     5c4: 00 65        	<unknown>
     5c6: 78 70        	<unknown>
     5c8: 6d 31        	<unknown>
     5ca: 00 5f        	<unknown>
     5cc: 5a 4c        	<unknown>
     5ce: 34 66        	<unknown>
     5d0: 61 62        	<unknown>
     5d2: 73 66 00 66  	csrrsi	a2, 0x660, 0x0
     5d6: 61 62        	<unknown>
     5d8: 73 00 5f 5a  	<unknown>
     5dc: 4c 34        	<unknown>
     5de: 66 64        	<unknown>
     5e0: 69 6d        	<unknown>
     5e2: 66 66        	<unknown>
     5e4: 00 66        	<unknown>
     5e6: 64 69        	<unknown>
     5e8: 6d 00        	<unknown>
     5ea: 5f 5a 4c 35  	<unknown>
     5ee: 66 6c        	<unknown>
     5f0: 6f 6f 72 66  	jal	t5, 0x27456 <.debug_info+0x27456>
     5f4: 00 66        	<unknown>
     5f6: 6c 6f        	<unknown>
     5f8: 6f 72 00 5f  	jal	tp, 0x7be8 <.debug_info+0x7be8>
     5fc: 5a 4c        	<unknown>
     5fe: 33 66 6d 61  	<unknown>
     602: 66 66        	<unknown>
     604: 66 00        	<unknown>
     606: 66 6d        	<unknown>
     608: 61 00        	<unknown>
     60a: 5f 5a 4c 34  	<unknown>
     60e: 66 6d        	<unknown>
     610: 61 78        	<unknown>
     612: 66 66        	<unknown>
     614: 00 66        	<unknown>
     616: 6d 61        	<unknown>
     618: 78 00        	<unknown>
     61a: 5f 5a 4c 34  	<unknown>
     61e: 66 6d        	<unknown>
     620: 69 6e        	<unknown>
     622: 66 66        	<unknown>
     624: 00 66        	<unknown>
     626: 6d 69        	<unknown>
     628: 6e 00        	<unknown>
     62a: 5f 5a 4c 34  	<unknown>
     62e: 66 6d        	<unknown>
     630: 6f 64 66 66  	jal	s0, 0x66c96 <.debug_info+0x66c96>
     634: 00 66        	<unknown>
     636: 6d 6f        	<unknown>
     638: 64 00        	<unknown>
     63a: 5f 5a 4c 31  	<unknown>
     63e: 30 66        	<unknown>
     640: 70 63        	<unknown>
     642: 6c 61        	<unknown>
     644: 73 73 69 66  	csrrci	t1, 0x666, 0x12
     648: 79 66        	<unknown>
     64a: 00 66        	<unknown>
     64c: 70 63        	<unknown>
     64e: 6c 61        	<unknown>
     650: 73 73 69 66  	csrrci	t1, 0x666, 0x12
     654: 79 00        	<unknown>
     656: 5f 5a 4c 35  	<unknown>
     65a: 66 72        	<unknown>
     65c: 65 78        	<unknown>
     65e: 70 66        	<unknown>
     660: 50 69        	<unknown>
     662: 00 66        	<unknown>
     664: 72 65        	<unknown>
     666: 78 70        	<unknown>
     668: 00 5f        	<unknown>
     66a: 5a 4c        	<unknown>
     66c: 35 68        	<unknown>
     66e: 79 70        	<unknown>
     670: 6f 74 66 66  	jal	s0, 0x67cd6 <.debug_info+0x67cd6>
     674: 00 68        	<unknown>
     676: 79 70        	<unknown>
     678: 6f 74 00 5f  	jal	s0, 0x7c68 <.debug_info+0x7c68>
     67c: 5a 4c        	<unknown>
     67e: 35 69        	<unknown>
     680: 6c 6f        	<unknown>
     682: 67 62 66 00  	<unknown>
     686: 69 6c        	<unknown>
     688: 6f 67 62 00  	jal	a4, 0x2668e <.debug_info+0x2668e>
     68c: 5f 5a 4c 38  	<unknown>
     690: 69 73        	<unknown>
     692: 66 69        	<unknown>
     694: 6e 69        	<unknown>
     696: 74 65        	<unknown>
     698: 66 00        	<unknown>
     69a: 69 73        	<unknown>
     69c: 66 69        	<unknown>
     69e: 6e 69        	<unknown>
     6a0: 74 65        	<unknown>
     6a2: 00 62        	<unknown>
     6a4: 6f 6f 6c 00  	jal	t5, 0xc66aa <.debug_info+0xc66aa>
     6a8: 5f 5a 4c 39  	<unknown>
     6ac: 69 73        	<unknown>
     6ae: 67 72 65 61  	<unknown>
     6b2: 74 65        	<unknown>
     6b4: 72 66        	<unknown>
     6b6: 66 00        	<unknown>
     6b8: 69 73        	<unknown>
     6ba: 67 72 65 61  	<unknown>
     6be: 74 65        	<unknown>
     6c0: 72 00        	<unknown>
     6c2: 5f 5a 4c 31  	<unknown>
     6c6: 34 69        	<unknown>
     6c8: 73 67 72 65  	csrrsi	a4, 0x657, 0x4
     6cc: 61 74        	<unknown>
     6ce: 65 72        	<unknown>
     6d0: 65 71        	<unknown>
     6d2: 75 61        	<unknown>
     6d4: 6c 66        	<unknown>
     6d6: 66 00        	<unknown>
     6d8: 69 73        	<unknown>
     6da: 67 72 65 61  	<unknown>
     6de: 74 65        	<unknown>
     6e0: 72 65        	<unknown>
     6e2: 71 75        	<unknown>
     6e4: 61 6c        	<unknown>
     6e6: 00 5f        	<unknown>
     6e8: 5a 4c        	<unknown>
     6ea: 35 69        	<unknown>
     6ec: 73 69 6e 66  	csrrsi	s2, 0x666, 0x1c
     6f0: 66 00        	<unknown>
     6f2: 69 73        	<unknown>
     6f4: 69 6e        	<unknown>
     6f6: 66 00        	<unknown>
     6f8: 5f 5a 4c 36  	<unknown>
     6fc: 69 73        	<unknown>
     6fe: 6c 65        	<unknown>
     700: 73 73 66 66  	csrrci	t1, 0x666, 0xc
     704: 00 69        	<unknown>
     706: 73 6c 65 73  	csrrsi	s8, 0x736, 0xa
     70a: 73 00 5f 5a  	<unknown>
     70e: 4c 31        	<unknown>
     710: 31 69        	<unknown>
     712: 73 6c 65 73  	csrrsi	s8, 0x736, 0xa
     716: 73 65 71 75  	csrrsi	a0, 0x757, 0x2
     71a: 61 6c        	<unknown>
     71c: 66 66        	<unknown>
     71e: 00 69        	<unknown>
     720: 73 6c 65 73  	csrrsi	s8, 0x736, 0xa
     724: 73 65 71 75  	csrrsi	a0, 0x757, 0x2
     728: 61 6c        	<unknown>
     72a: 00 5f        	<unknown>
     72c: 5a 4c        	<unknown>
     72e: 31 33        	<unknown>
     730: 69 73        	<unknown>
     732: 6c 65        	<unknown>
     734: 73 73 67 72  	csrrci	t1, 0x726, 0xe
     738: 65 61        	<unknown>
     73a: 74 65        	<unknown>
     73c: 72 66        	<unknown>
     73e: 66 00        	<unknown>
     740: 69 73        	<unknown>
     742: 6c 65        	<unknown>
     744: 73 73 67 72  	csrrci	t1, 0x726, 0xe
     748: 65 61        	<unknown>
     74a: 74 65        	<unknown>
     74c: 72 00        	<unknown>
     74e: 5f 5a 4c 35  	<unknown>
     752: 69 73        	<unknown>
     754: 6e 61        	<unknown>
     756: 6e 66        	<unknown>
     758: 00 69        	<unknown>
     75a: 73 6e 61 6e  	csrrsi	t3, 0x6e6, 0x2
     75e: 00 5f        	<unknown>
     760: 5a 4c        	<unknown>
     762: 38 69        	<unknown>
     764: 73 6e 6f 72  	csrrsi	t3, 0x726, 0x1e
     768: 6d 61        	<unknown>
     76a: 6c 66        	<unknown>
     76c: 00 69        	<unknown>
     76e: 73 6e 6f 72  	csrrsi	t3, 0x726, 0x1e
     772: 6d 61        	<unknown>
     774: 6c 00        	<unknown>
     776: 5f 5a 4c 31  	<unknown>
     77a: 31 69        	<unknown>
     77c: 73 75 6e 6f  	csrrci	a0, 0x6f6, 0x1c
     780: 72 64        	<unknown>
     782: 65 72        	<unknown>
     784: 65 64        	<unknown>
     786: 66 66        	<unknown>
     788: 00 69        	<unknown>
     78a: 73 75 6e 6f  	csrrci	a0, 0x6f6, 0x1c
     78e: 72 64        	<unknown>
     790: 65 72        	<unknown>
     792: 65 64        	<unknown>
     794: 00 5f        	<unknown>
     796: 5a 4c        	<unknown>
     798: 34 6c        	<unknown>
     79a: 61 62        	<unknown>
     79c: 73 6c 00 5f  	csrrsi	s8, 0x5f0, 0x0
     7a0: 5a 4c        	<unknown>
     7a2: 35 6c        	<unknown>
     7a4: 64 65        	<unknown>
     7a6: 78 70        	<unknown>
     7a8: 66 69        	<unknown>
     7aa: 00 6c        	<unknown>
     7ac: 64 65        	<unknown>
     7ae: 78 70        	<unknown>
     7b0: 00 5f        	<unknown>
     7b2: 5a 4c        	<unknown>
     7b4: 36 6c        	<unknown>
     7b6: 67 61 6d 6d  	<unknown>
     7ba: 61 66        	<unknown>
     7bc: 00 6c        	<unknown>
     7be: 67 61 6d 6d  	<unknown>
     7c2: 61 00        	<unknown>
     7c4: 5f 5a 4c 35  	<unknown>
     7c8: 6c 6c        	<unknown>
     7ca: 61 62        	<unknown>
     7cc: 73 78 00 6c  	csrrci	a6, 0x6c0, 0x0
     7d0: 6c 61        	<unknown>
     7d2: 62 73        	<unknown>
     7d4: 00 5f        	<unknown>
     7d6: 5a 4c        	<unknown>
     7d8: 36 6c        	<unknown>
     7da: 6c 72        	<unknown>
     7dc: 69 6e        	<unknown>
     7de: 74 66        	<unknown>
     7e0: 00 6c        	<unknown>
     7e2: 6c 72        	<unknown>
     7e4: 69 6e        	<unknown>
     7e6: 74 00        	<unknown>
     7e8: 5f 5a 4c 33  	<unknown>
     7ec: 6c 6f        	<unknown>
     7ee: 67 66 00 6c  	<unknown>
     7f2: 6f 67 00 5f  	jal	a4, 0x6de2 <.debug_info+0x6de2>
     7f6: 5a 4c        	<unknown>
     7f8: 35 6c        	<unknown>
     7fa: 6f 67 31 30  	jal	a4, 0x172fc <.debug_info+0x172fc>
     7fe: 66 00        	<unknown>
     800: 6c 6f        	<unknown>
     802: 67 31 30 00  	<unknown>
     806: 5f 5a 4c 35  	<unknown>
     80a: 6c 6f        	<unknown>
     80c: 67 31 70 66  	<unknown>
     810: 00 6c        	<unknown>
     812: 6f 67 31 70  	jal	a4, 0x17714 <.debug_info+0x17714>
     816: 00 5f        	<unknown>
     818: 5a 4c        	<unknown>
     81a: 34 6c        	<unknown>
     81c: 6f 67 32 66  	jal	a4, 0x2767e <.debug_info+0x2767e>
     820: 00 6c        	<unknown>
     822: 6f 67 32 00  	jal	a4, 0x27024 <.debug_info+0x27024>
     826: 5f 5a 4c 34  	<unknown>
     82a: 6c 6f        	<unknown>
     82c: 67 62 66 00  	<unknown>
     830: 5f 5a 4c 35  	<unknown>
     834: 6c 72        	<unknown>
     836: 69 6e        	<unknown>
     838: 74 66        	<unknown>
     83a: 00 5f        	<unknown>
     83c: 5a 4c        	<unknown>
     83e: 36 6c        	<unknown>
     840: 72 6f        	<unknown>
     842: 75 6e        	<unknown>
     844: 64 66        	<unknown>
     846: 00 5f        	<unknown>
     848: 5a 4c        	<unknown>
     84a: 37 6c 6c 72  	lui	s8, 0x726c6
     84e: 6f 75 6e 64  	jal	a0, 0xe7e94 <.debug_info+0xe7e94>
     852: 66 00        	<unknown>
     854: 6c 6c        	<unknown>
     856: 72 6f        	<unknown>
     858: 75 6e        	<unknown>
     85a: 64 00        	<unknown>
     85c: 5f 5a 4c 34  	<unknown>
     860: 6d 6f        	<unknown>
     862: 64 66        	<unknown>
     864: 66 50        	<unknown>
     866: 66 00        	<unknown>
     868: 5f 5a 4c 33  	<unknown>
     86c: 6e 61        	<unknown>
     86e: 6e 50        	<unknown>
     870: 4b 63 00 63  	<unknown>
     874: 68 61        	<unknown>
     876: 72 00        	<unknown>
     878: 5f 5a 4c 34  	<unknown>
     87c: 6e 61        	<unknown>
     87e: 6e 66        	<unknown>
     880: 50 4b        	<unknown>
     882: 63 00 5f 5a  	beq	t5, t0, 0xe22 <.debug_info+0xe22>
     886: 4c 39        	<unknown>
     888: 6e 65        	<unknown>
     88a: 61 72        	<unknown>
     88c: 62 79        	<unknown>
     88e: 69 6e        	<unknown>
     890: 74 66        	<unknown>
     892: 00 6e        	<unknown>
     894: 65 61        	<unknown>
     896: 72 62        	<unknown>
     898: 79 69        	<unknown>
     89a: 6e 74        	<unknown>
     89c: 00 5f        	<unknown>
     89e: 5a 4c        	<unknown>
     8a0: 39 6e        	<unknown>
     8a2: 65 78        	<unknown>
     8a4: 74 61        	<unknown>
     8a6: 66 74        	<unknown>
     8a8: 65 72        	<unknown>
     8aa: 66 66        	<unknown>
     8ac: 00 6e        	<unknown>
     8ae: 65 78        	<unknown>
     8b0: 74 61        	<unknown>
     8b2: 66 74        	<unknown>
     8b4: 65 72        	<unknown>
     8b6: 00 5f        	<unknown>
     8b8: 5a 4c        	<unknown>
     8ba: 33 70 6f 77  	<unknown>
     8be: 66 69        	<unknown>
     8c0: 00 70        	<unknown>
     8c2: 6f 77 00 5f  	jal	a4, 0x7eb2 <.debug_info+0x7eb2>
     8c6: 5a 4c        	<unknown>
     8c8: 39 72        	<unknown>
     8ca: 65 6d        	<unknown>
     8cc: 61 69        	<unknown>
     8ce: 6e 64        	<unknown>
     8d0: 65 72        	<unknown>
     8d2: 66 66        	<unknown>
     8d4: 00 72        	<unknown>
     8d6: 65 6d        	<unknown>
     8d8: 61 69        	<unknown>
     8da: 6e 64        	<unknown>
     8dc: 65 72        	<unknown>
     8de: 00 5f        	<unknown>
     8e0: 5a 4c        	<unknown>
     8e2: 36 72        	<unknown>
     8e4: 65 6d        	<unknown>
     8e6: 71 75        	<unknown>
     8e8: 6f 66 66 50  	jal	a2, 0x66dee <.debug_info+0x66dee>
     8ec: 69 00        	<unknown>
     8ee: 72 65        	<unknown>
     8f0: 6d 71        	<unknown>
     8f2: 75 6f        	<unknown>
     8f4: 00 5f        	<unknown>
     8f6: 5a 4c        	<unknown>
     8f8: 34 72        	<unknown>
     8fa: 69 6e        	<unknown>
     8fc: 74 66        	<unknown>
     8fe: 00 5f        	<unknown>
     900: 5a 4c        	<unknown>
     902: 35 72        	<unknown>
     904: 6f 75 6e 64  	jal	a0, 0xe7f4a <.debug_info+0xe7f4a>
     908: 66 00        	<unknown>
     90a: 5f 5a 4c 37  	<unknown>
     90e: 73 63 61 6c  	csrrsi	t1, 0x6c6, 0x2
     912: 62 6c        	<unknown>
     914: 6e 66        	<unknown>
     916: 6c 00        	<unknown>
     918: 73 63 61 6c  	csrrsi	t1, 0x6c6, 0x2
     91c: 62 6c        	<unknown>
     91e: 6e 00        	<unknown>
     920: 5f 5a 4c 36  	<unknown>
     924: 73 63 61 6c  	csrrsi	t1, 0x6c6, 0x2
     928: 62 6e        	<unknown>
     92a: 66 69        	<unknown>
     92c: 00 73        	<unknown>
     92e: 63 61 6c 62  	bltu	s8, t1, 0xf50 <.debug_info+0xf50>
     932: 6e 00        	<unknown>
     934: 5f 5a 4c 37  	<unknown>
     938: 73 69 67 6e  	csrrsi	s2, 0x6e6, 0xe
     93c: 62 69        	<unknown>
     93e: 74 66        	<unknown>
     940: 00 73        	<unknown>
     942: 69 67        	<unknown>
     944: 6e 62        	<unknown>
     946: 69 74        	<unknown>
     948: 00 5f        	<unknown>
     94a: 5a 4c        	<unknown>
     94c: 33 73 69 6e  	<unknown>
     950: 66 00        	<unknown>
     952: 5f 5a 4c 34  	<unknown>
     956: 73 69 6e 68  	csrrsi	s2, 0x686, 0x1c
     95a: 66 00        	<unknown>
     95c: 5f 5a 4c 34  	<unknown>
     960: 73 71 72 74  	csrrci	sp, mseccfg, 0x4
     964: 66 00        	<unknown>
     966: 73 71 72 74  	csrrci	sp, mseccfg, 0x4
     96a: 00 5f        	<unknown>
     96c: 5a 4c        	<unknown>
     96e: 33 74 61 6e  	<unknown>
     972: 66 00        	<unknown>
     974: 5f 5a 4c 34  	<unknown>
     978: 74 61        	<unknown>
     97a: 6e 68        	<unknown>
     97c: 66 00        	<unknown>
     97e: 5f 5a 4c 36  	<unknown>
     982: 74 67        	<unknown>
     984: 61 6d        	<unknown>
     986: 6d 61        	<unknown>
     988: 66 00        	<unknown>
     98a: 74 67        	<unknown>
     98c: 61 6d        	<unknown>
     98e: 6d 61        	<unknown>
     990: 00 5f        	<unknown>
     992: 5a 4c        	<unknown>
     994: 35 74        	<unknown>
     996: 72 75        	<unknown>
     998: 6e 63        	<unknown>
     99a: 66 00        	<unknown>
     99c: 74 72        	<unknown>
     99e: 75 6e        	<unknown>
     9a0: 63 00 64 6f  	beq	s0, s6, 0x1080 <.debug_info+0x1080>
     9a4: 75 62        	<unknown>
     9a6: 6c 65        	<unknown>
     9a8: 5f 74 00 66  	<unknown>
     9ac: 6c 6f        	<unknown>
     9ae: 61 74        	<unknown>
     9b0: 5f 74 00 61  	<unknown>
     9b4: 63 6f 73 68  	bltu	t1, t2, 0x1052 <.debug_info+0x1052>
     9b8: 6c 00        	<unknown>
     9ba: 6c 6f        	<unknown>
     9bc: 6e 67        	<unknown>
     9be: 20 64        	<unknown>
     9c0: 6f 75 62 6c  	jal	a0, 0x28086 <.debug_info+0x28086>
     9c4: 65 00        	<unknown>
     9c6: 61 73        	<unknown>
     9c8: 69 6e        	<unknown>
     9ca: 68 6c        	<unknown>
     9cc: 00 61        	<unknown>
     9ce: 74 61        	<unknown>
     9d0: 6e 68        	<unknown>
     9d2: 6c 00        	<unknown>
     9d4: 63 62 72 74  	bltu	tp, t2, 0x1118 <.debug_info+0x1118>
     9d8: 6c 00        	<unknown>
     9da: 63 6f 70 79  	bltu	zero, s7, 0x1178 <.debug_info+0x1178>
     9de: 73 69 67 6e  	csrrsi	s2, 0x6e6, 0xe
     9e2: 66 00        	<unknown>
     9e4: 63 6f 70 79  	bltu	zero, s7, 0x1182 <.debug_info+0x1182>
     9e8: 73 69 67 6e  	csrrsi	s2, 0x6e6, 0xe
     9ec: 6c 00        	<unknown>
     9ee: 65 72        	<unknown>
     9f0: 66 6c        	<unknown>
     9f2: 00 65        	<unknown>
     9f4: 72 66        	<unknown>
     9f6: 63 6c 00 65  	bltu	zero, a6, 0x104e <.debug_info+0x104e>
     9fa: 78 70        	<unknown>
     9fc: 32 6c        	<unknown>
     9fe: 00 65        	<unknown>
     a00: 78 70        	<unknown>
     a02: 6d 31        	<unknown>
     a04: 6c 00        	<unknown>
     a06: 66 64        	<unknown>
     a08: 69 6d        	<unknown>
     a0a: 66 00        	<unknown>
     a0c: 66 64        	<unknown>
     a0e: 69 6d        	<unknown>
     a10: 6c 00        	<unknown>
     a12: 66 6d        	<unknown>
     a14: 61 66        	<unknown>
     a16: 00 66        	<unknown>
     a18: 6d 61        	<unknown>
     a1a: 6c 00        	<unknown>
     a1c: 66 6d        	<unknown>
     a1e: 61 78        	<unknown>
     a20: 66 00        	<unknown>
     a22: 66 6d        	<unknown>
     a24: 61 78        	<unknown>
     a26: 6c 00        	<unknown>
     a28: 66 6d        	<unknown>
     a2a: 69 6e        	<unknown>
     a2c: 66 00        	<unknown>
     a2e: 66 6d        	<unknown>
     a30: 69 6e        	<unknown>
     a32: 6c 00        	<unknown>
     a34: 68 79        	<unknown>
     a36: 70 6f        	<unknown>
     a38: 74 66        	<unknown>
     a3a: 00 68        	<unknown>
     a3c: 79 70        	<unknown>
     a3e: 6f 74 6c 00  	jal	s0, 0xc7a44 <.debug_info+0xc7a44>
     a42: 69 6c        	<unknown>
     a44: 6f 67 62 6c  	jal	a4, 0x2710a <.debug_info+0x2710a>
     a48: 00 6c        	<unknown>
     a4a: 67 61 6d 6d  	<unknown>
     a4e: 61 6c        	<unknown>
     a50: 00 6c        	<unknown>
     a52: 6c 72        	<unknown>
     a54: 69 6e        	<unknown>
     a56: 74 6c        	<unknown>
     a58: 00 6c        	<unknown>
     a5a: 6c 72        	<unknown>
     a5c: 6f 75 6e 64  	jal	a0, 0xe80a2 <.debug_info+0xe80a2>
     a60: 6c 00        	<unknown>
     a62: 6c 6f        	<unknown>
     a64: 67 31 70 6c  	<unknown>
     a68: 00 6c        	<unknown>
     a6a: 6f 67 32 6c  	jal	a4, 0x2792c <.debug_info+0x2792c>
     a6e: 00 6e        	<unknown>
     a70: 61 6e        	<unknown>
     a72: 6c 00        	<unknown>
     a74: 6e 65        	<unknown>
     a76: 61 72        	<unknown>
     a78: 62 79        	<unknown>
     a7a: 69 6e        	<unknown>
     a7c: 74 6c        	<unknown>
     a7e: 00 6e        	<unknown>
     a80: 65 78        	<unknown>
     a82: 74 61        	<unknown>
     a84: 66 74        	<unknown>
     a86: 65 72        	<unknown>
     a88: 66 00        	<unknown>
     a8a: 6e 65        	<unknown>
     a8c: 78 74        	<unknown>
     a8e: 61 66        	<unknown>
     a90: 74 65        	<unknown>
     a92: 72 6c        	<unknown>
     a94: 00 6e        	<unknown>
     a96: 65 78        	<unknown>
     a98: 74 74        	<unknown>
     a9a: 6f 77 61 72  	jal	a4, 0x181c0 <.debug_info+0x181c0>
     a9e: 64 00        	<unknown>
     aa0: 6e 65        	<unknown>
     aa2: 78 74        	<unknown>
     aa4: 74 6f        	<unknown>
     aa6: 77 61 72 64  	<unknown>
     aaa: 66 00        	<unknown>
     aac: 6e 65        	<unknown>
     aae: 78 74        	<unknown>
     ab0: 74 6f        	<unknown>
     ab2: 77 61 72 64  	<unknown>
     ab6: 6c 00        	<unknown>
     ab8: 72 65        	<unknown>
     aba: 6d 61        	<unknown>
     abc: 69 6e        	<unknown>
     abe: 64 65        	<unknown>
     ac0: 72 66        	<unknown>
     ac2: 00 72        	<unknown>
     ac4: 65 6d        	<unknown>
     ac6: 61 69        	<unknown>
     ac8: 6e 64        	<unknown>
     aca: 65 72        	<unknown>
     acc: 6c 00        	<unknown>
     ace: 72 65        	<unknown>
     ad0: 6d 71        	<unknown>
     ad2: 75 6f        	<unknown>
     ad4: 66 00        	<unknown>
     ad6: 72 65        	<unknown>
     ad8: 6d 71        	<unknown>
     ada: 75 6f        	<unknown>
     adc: 6c 00        	<unknown>
     ade: 73 63 61 6c  	csrrsi	t1, 0x6c6, 0x2
     ae2: 62 6c        	<unknown>
     ae4: 6e 66        	<unknown>
     ae6: 00 73        	<unknown>
     ae8: 63 61 6c 62  	bltu	s8, t1, 0x110a <.debug_info+0x110a>
     aec: 6c 6e        	<unknown>
     aee: 6c 00        	<unknown>
     af0: 73 63 61 6c  	csrrsi	t1, 0x6c6, 0x2
     af4: 62 6e        	<unknown>
     af6: 66 00        	<unknown>
     af8: 73 63 61 6c  	csrrsi	t1, 0x6c6, 0x2
     afc: 62 6e        	<unknown>
     afe: 6c 00        	<unknown>
     b00: 74 67        	<unknown>
     b02: 61 6d        	<unknown>
     b04: 6d 61        	<unknown>
     b06: 6c 00        	<unknown>
     b08: 74 72        	<unknown>
     b0a: 75 6e        	<unknown>
     b0c: 63 6c 00 71  	bltu	zero, a6, 0x1224 <.debug_info+0x1224>
     b10: 75 6f        	<unknown>
     b12: 74 00        	<unknown>
     b14: 72 65        	<unknown>
     b16: 6d 00        	<unknown>
     b18: 61 62        	<unknown>
     b1a: 6f 72 74 00  	jal	tp, 0x48320 <.debug_info+0x48320>
     b1e: 61 74        	<unknown>
     b20: 65 78        	<unknown>
     b22: 69 74        	<unknown>
     b24: 00 61        	<unknown>
     b26: 74 5f        	<unknown>
     b28: 71 75        	<unknown>
     b2a: 69 63        	<unknown>
     b2c: 6b 5f 65 78  	<unknown>
     b30: 69 74        	<unknown>
     b32: 00 61        	<unknown>
     b34: 74 6f        	<unknown>
     b36: 66 00        	<unknown>
     b38: 61 74        	<unknown>
     b3a: 6f 69 00 61  	jal	s2, 0x714a <.debug_info+0x714a>
     b3e: 74 6f        	<unknown>
     b40: 6c 00        	<unknown>
     b42: 62 73        	<unknown>
     b44: 65 61        	<unknown>
     b46: 72 63        	<unknown>
     b48: 68 00        	<unknown>
     b4a: 75 6e        	<unknown>
     b4c: 73 69 67 6e  	csrrsi	s2, 0x6e6, 0xe
     b50: 65 64        	<unknown>
     b52: 20 6c        	<unknown>
     b54: 6f 6e 67 00  	jal	t3, 0x76b5a <.debug_info+0x76b5a>
     b58: 73 69 7a 65  	csrrsi	s2, 0x657, 0x14
     b5c: 5f 74 00 5f  	<unknown>
     b60: 5f 63 6f 6d  	<unknown>
     b64: 70 61        	<unknown>
     b66: 72 5f        	<unknown>
     b68: 66 6e        	<unknown>
     b6a: 5f 74 00 63  	<unknown>
     b6e: 61 6c        	<unknown>
     b70: 6c 6f        	<unknown>
     b72: 63 00 66 72  	beq	a2, t1, 0x1292 <.debug_info+0x1292>
     b76: 65 65        	<unknown>
     b78: 00 67        	<unknown>
     b7a: 65 74        	<unknown>
     b7c: 65 6e        	<unknown>
     b7e: 76 00        	<unknown>
     b80: 6d 61        	<unknown>
     b82: 6c 6c        	<unknown>
     b84: 6f 63 00 6d  	jal	t1, 0x7254 <.debug_info+0x7254>
     b88: 62 6c        	<unknown>
     b8a: 65 6e        	<unknown>
     b8c: 00 6d        	<unknown>
     b8e: 62 73        	<unknown>
     b90: 74 6f        	<unknown>
     b92: 77 63 73 00  	<unknown>
     b96: 77 63 68 61  	<unknown>
     b9a: 72 5f        	<unknown>
     b9c: 74 00        	<unknown>
     b9e: 6d 62        	<unknown>
     ba0: 74 6f        	<unknown>
     ba2: 77 63 00 71  	<unknown>
     ba6: 73 6f 72 74  	csrrsi	t5, mseccfg, 0x4
     baa: 00 72        	<unknown>
     bac: 65 61        	<unknown>
     bae: 6c 6c        	<unknown>
     bb0: 6f 63 00 73  	jal	t1, 0x72e0 <.debug_info+0x72e0>
     bb4: 72 61        	<unknown>
     bb6: 6e 64        	<unknown>
     bb8: 00 73        	<unknown>
     bba: 74 72        	<unknown>
     bbc: 74 6f        	<unknown>
     bbe: 64 00        	<unknown>
     bc0: 73 74 72 74  	csrrci	s0, mseccfg, 0x4
     bc4: 6f 6c 00 73  	jal	s8, 0x72f4 <.debug_info+0x72f4>
     bc8: 74 72        	<unknown>
     bca: 74 6f        	<unknown>
     bcc: 75 6c        	<unknown>
     bce: 00 73        	<unknown>
     bd0: 79 73        	<unknown>
     bd2: 74 65        	<unknown>
     bd4: 6d 00        	<unknown>
     bd6: 77 63 73 74  	<unknown>
     bda: 6f 6d 62 73  	jal	s10, 0x27310 <.debug_info+0x27310>
     bde: 00 77        	<unknown>
     be0: 63 74 6f 6d  	bgeu	t5, s6, 0x12a8 <.debug_info+0x12a8>
     be4: 62 00        	<unknown>
     be6: 5f 5f 67 6e  	<unknown>
     bea: 75 5f        	<unknown>
     bec: 63 78 78 00  	bgeu	a6, t2, 0xbfc <.debug_info+0xbfc>
     bf0: 6c 6c        	<unknown>
     bf2: 64 69        	<unknown>
     bf4: 76 5f        	<unknown>
     bf6: 74 00        	<unknown>
     bf8: 5f 45 78 69  	<unknown>
     bfc: 74 00        	<unknown>
     bfe: 6c 6c        	<unknown>
     c00: 64 69        	<unknown>
     c02: 76 00        	<unknown>
     c04: 61 74        	<unknown>
     c06: 6f 6c 6c 00  	jal	s8, 0xc6c0c <.debug_info+0xc6c0c>
     c0a: 73 74 72 74  	csrrci	s0, mseccfg, 0x4
     c0e: 6f 6c 6c 00  	jal	s8, 0xc6c14 <.debug_info+0xc6c14>
     c12: 73 74 72 74  	csrrci	s0, mseccfg, 0x4
     c16: 6f 75 6c 6c  	jal	a0, 0xc82dc <.debug_info+0xc82dc>
     c1a: 00 73        	<unknown>
     c1c: 74 72        	<unknown>
     c1e: 74 6f        	<unknown>
     c20: 66 00        	<unknown>
     c22: 73 74 72 74  	csrrci	s0, mseccfg, 0x4
     c26: 6f 6c 64 00  	jal	s8, 0x46c2c <.debug_info+0x46c2c>
     c2a: 5f 5a 4e 39  	<unknown>
     c2e: 5f 5f 67 6e  	<unknown>
     c32: 75 5f        	<unknown>
     c34: 63 78 78 33  	bgeu	a6, s7, 0xf64 <.debug_info+0xf64>
     c38: 64 69        	<unknown>
     c3a: 76 45        	<unknown>
     c3c: 78 78        	<unknown>
     c3e: 00 5f        	<unknown>
     c40: 5a 53        	<unknown>
     c42: 74 33        	<unknown>
     c44: 61 62        	<unknown>
     c46: 73 65 00 5f  	csrrsi	a0, 0x5f0, 0x0
     c4a: 5a 4c        	<unknown>
     c4c: 35 61        	<unknown>
     c4e: 63 6f 73 66  	bltu	t1, t2, 0x12cc <.debug_info+0x12cc>
     c52: 66 00        	<unknown>
     c54: 5f 5a 4c 36  	<unknown>
     c58: 61 63        	<unknown>
     c5a: 6f 73 68 66  	jal	t1, 0x882c0 <.debug_info+0x882c0>
     c5e: 66 00        	<unknown>
     c60: 5f 5a 4c 35  	<unknown>
     c64: 61 73        	<unknown>
     c66: 69 6e        	<unknown>
     c68: 66 66        	<unknown>
     c6a: 00 5f        	<unknown>
     c6c: 5a 4c        	<unknown>
     c6e: 36 61        	<unknown>
     c70: 73 69 6e 68  	csrrsi	s2, 0x686, 0x1c
     c74: 66 66        	<unknown>
     c76: 00 5f        	<unknown>
     c78: 5a 4c        	<unknown>
     c7a: 36 61        	<unknown>
     c7c: 74 61        	<unknown>
     c7e: 6e 32        	<unknown>
     c80: 66 66        	<unknown>
     c82: 66 00        	<unknown>
     c84: 61 74        	<unknown>
     c86: 61 6e        	<unknown>
     c88: 32 66        	<unknown>
     c8a: 00 5f        	<unknown>
     c8c: 5a 4c        	<unknown>
     c8e: 35 61        	<unknown>
     c90: 74 61        	<unknown>
     c92: 6e 66        	<unknown>
     c94: 66 00        	<unknown>
     c96: 5f 5a 4c 36  	<unknown>
     c9a: 61 74        	<unknown>
     c9c: 61 6e        	<unknown>
     c9e: 68 66        	<unknown>
     ca0: 66 00        	<unknown>
     ca2: 5f 5a 4c 35  	<unknown>
     ca6: 63 62 72 74  	bltu	tp, t2, 0x13ea <.debug_info+0x13ea>
     caa: 66 66        	<unknown>
     cac: 00 5f        	<unknown>
     cae: 5a 4c        	<unknown>
     cb0: 35 63        	<unknown>
     cb2: 65 69        	<unknown>
     cb4: 6c 66        	<unknown>
     cb6: 66 00        	<unknown>
     cb8: 5f 5a 4c 39  	<unknown>
     cbc: 63 6f 70 79  	bltu	zero, s7, 0x145a <.debug_info+0x145a>
     cc0: 73 69 67 6e  	csrrsi	s2, 0x6e6, 0xe
     cc4: 66 66        	<unknown>
     cc6: 66 00        	<unknown>
     cc8: 5f 5a 4c 34  	<unknown>
     ccc: 63 6f 73 66  	bltu	t1, t2, 0x134a <.debug_info+0x134a>
     cd0: 66 00        	<unknown>
     cd2: 5f 5a 4c 35  	<unknown>
     cd6: 63 6f 73 68  	bltu	t1, t2, 0x1374 <.debug_info+0x1374>
     cda: 66 66        	<unknown>
     cdc: 00 5f        	<unknown>
     cde: 5a 4c        	<unknown>
     ce0: 35 65        	<unknown>
     ce2: 72 66        	<unknown>
     ce4: 63 66 66 00  	bltu	a2, t1, 0xcf0 <.debug_info+0xcf0>
     ce8: 5f 5a 4c 34  	<unknown>
     cec: 65 72        	<unknown>
     cee: 66 66        	<unknown>
     cf0: 66 00        	<unknown>
     cf2: 5f 5a 4c 35  	<unknown>
     cf6: 65 78        	<unknown>
     cf8: 70 32        	<unknown>
     cfa: 66 66        	<unknown>
     cfc: 00 5f        	<unknown>
     cfe: 5a 4c        	<unknown>
     d00: 34 65        	<unknown>
     d02: 78 70        	<unknown>
     d04: 66 66        	<unknown>
     d06: 00 5f        	<unknown>
     d08: 5a 4c        	<unknown>
     d0a: 36 65        	<unknown>
     d0c: 78 70        	<unknown>
     d0e: 6d 31        	<unknown>
     d10: 66 66        	<unknown>
     d12: 00 5f        	<unknown>
     d14: 5a 4c        	<unknown>
     d16: 35 66        	<unknown>
     d18: 61 62        	<unknown>
     d1a: 73 66 66 00  	csrrsi	a2, 0x6, 0xc
     d1e: 5f 5a 4c 35  	<unknown>
     d22: 66 64        	<unknown>
     d24: 69 6d        	<unknown>
     d26: 66 66        	<unknown>
     d28: 66 00        	<unknown>
     d2a: 5f 5a 4c 36  	<unknown>
     d2e: 66 6c        	<unknown>
     d30: 6f 6f 72 66  	jal	t5, 0x27b96 <.debug_info+0x27b96>
     d34: 66 00        	<unknown>
     d36: 5f 5a 4c 34  	<unknown>
     d3a: 66 6d        	<unknown>
     d3c: 61 66        	<unknown>
     d3e: 66 66        	<unknown>
     d40: 66 00        	<unknown>
     d42: 5f 5a 4c 35  	<unknown>
     d46: 66 6d        	<unknown>
     d48: 61 78        	<unknown>
     d4a: 66 66        	<unknown>
     d4c: 66 00        	<unknown>
     d4e: 5f 5a 4c 35  	<unknown>
     d52: 66 6d        	<unknown>
     d54: 69 6e        	<unknown>
     d56: 66 66        	<unknown>
     d58: 66 00        	<unknown>
     d5a: 5f 5a 4c 35  	<unknown>
     d5e: 66 6d        	<unknown>
     d60: 6f 64 66 66  	jal	s0, 0x673c6 <.debug_info+0x673c6>
     d64: 66 00        	<unknown>
     d66: 66 6d        	<unknown>
     d68: 6f 64 66 00  	jal	s0, 0x66d6e <.debug_info+0x66d6e>
     d6c: 5f 5a 4c 36  	<unknown>
     d70: 66 72        	<unknown>
     d72: 65 78        	<unknown>
     d74: 70 66        	<unknown>
     d76: 66 50        	<unknown>
     d78: 69 00        	<unknown>
     d7a: 66 72        	<unknown>
     d7c: 65 78        	<unknown>
     d7e: 70 66        	<unknown>
     d80: 00 5f        	<unknown>
     d82: 5a 4c        	<unknown>
     d84: 36 68        	<unknown>
     d86: 79 70        	<unknown>
     d88: 6f 74 66 66  	jal	s0, 0x683ee <.debug_info+0x683ee>
     d8c: 66 00        	<unknown>
     d8e: 5f 5a 4c 36  	<unknown>
     d92: 69 6c        	<unknown>
     d94: 6f 67 62 66  	jal	a4, 0x273fa <.debug_info+0x273fa>
     d98: 66 00        	<unknown>
     d9a: 5f 5a 4c 36  	<unknown>
     d9e: 6c 64        	<unknown>
     da0: 65 78        	<unknown>
     da2: 70 66        	<unknown>
     da4: 66 69        	<unknown>
     da6: 00 6c        	<unknown>
     da8: 64 65        	<unknown>
     daa: 78 70        	<unknown>
     dac: 66 00        	<unknown>
     dae: 5f 5a 4c 37  	<unknown>
     db2: 6c 67        	<unknown>
     db4: 61 6d        	<unknown>
     db6: 6d 61        	<unknown>
     db8: 66 66        	<unknown>
     dba: 00 5f        	<unknown>
     dbc: 5a 4c        	<unknown>
     dbe: 37 6c 6c 72  	lui	s8, 0x726c6
     dc2: 69 6e        	<unknown>
     dc4: 74 66        	<unknown>
     dc6: 66 00        	<unknown>
     dc8: 5f 5a 4c 38  	<unknown>
     dcc: 6c 6c        	<unknown>
     dce: 72 6f        	<unknown>
     dd0: 75 6e        	<unknown>
     dd2: 64 66        	<unknown>
     dd4: 66 00        	<unknown>
     dd6: 5f 5a 4c 36  	<unknown>
     dda: 6c 6f        	<unknown>
     ddc: 67 31 30 66  	<unknown>
     de0: 66 00        	<unknown>
     de2: 5f 5a 4c 36  	<unknown>
     de6: 6c 6f        	<unknown>
     de8: 67 31 70 66  	<unknown>
     dec: 66 00        	<unknown>
     dee: 5f 5a 4c 35  	<unknown>
     df2: 6c 6f        	<unknown>
     df4: 67 32 66 66  	<unknown>
     df8: 00 5f        	<unknown>
     dfa: 5a 4c        	<unknown>
     dfc: 35 6c        	<unknown>
     dfe: 6f 67 62 66  	jal	a4, 0x27464 <.debug_info+0x27464>
     e02: 66 00        	<unknown>
     e04: 5f 5a 4c 34  	<unknown>
     e08: 6c 6f        	<unknown>
     e0a: 67 66 66 00  	<unknown>
     e0e: 5f 5a 4c 36  	<unknown>
     e12: 6c 72        	<unknown>
     e14: 69 6e        	<unknown>
     e16: 74 66        	<unknown>
     e18: 66 00        	<unknown>
     e1a: 5f 5a 4c 37  	<unknown>
     e1e: 6c 72        	<unknown>
     e20: 6f 75 6e 64  	jal	a0, 0xe8466 <.debug_info+0xe8466>
     e24: 66 66        	<unknown>
     e26: 00 5f        	<unknown>
     e28: 5a 4c        	<unknown>
     e2a: 35 6d        	<unknown>
     e2c: 6f 64 66 66  	jal	s0, 0x67492 <.debug_info+0x67492>
     e30: 66 50        	<unknown>
     e32: 66 00        	<unknown>
     e34: 5f 5a 4c 31  	<unknown>
     e38: 30 6e        	<unknown>
     e3a: 65 61        	<unknown>
     e3c: 72 62        	<unknown>
     e3e: 79 69        	<unknown>
     e40: 6e 74        	<unknown>
     e42: 66 66        	<unknown>
     e44: 00 5f        	<unknown>
     e46: 5a 4c        	<unknown>
     e48: 31 30        	<unknown>
     e4a: 6e 65        	<unknown>
     e4c: 78 74        	<unknown>
     e4e: 61 66        	<unknown>
     e50: 74 65        	<unknown>
     e52: 72 66        	<unknown>
     e54: 66 66        	<unknown>
     e56: 00 5f        	<unknown>
     e58: 5a 4c        	<unknown>
     e5a: 34 70        	<unknown>
     e5c: 6f 77 66 66  	jal	a4, 0x684c2 <.debug_info+0x684c2>
     e60: 66 00        	<unknown>
     e62: 70 6f        	<unknown>
     e64: 77 66 00 5f  	<unknown>
     e68: 5a 4c        	<unknown>
     e6a: 31 30        	<unknown>
     e6c: 72 65        	<unknown>
     e6e: 6d 61        	<unknown>
     e70: 69 6e        	<unknown>
     e72: 64 65        	<unknown>
     e74: 72 66        	<unknown>
     e76: 66 66        	<unknown>
     e78: 00 5f        	<unknown>
     e7a: 5a 4c        	<unknown>
     e7c: 37 72 65 6d  	lui	tp, 0x6d657
     e80: 71 75        	<unknown>
     e82: 6f 66 66 66  	jal	a2, 0x674e8 <.debug_info+0x674e8>
     e86: 50 69        	<unknown>
     e88: 00 5f        	<unknown>
     e8a: 5a 4c        	<unknown>
     e8c: 35 72        	<unknown>
     e8e: 69 6e        	<unknown>
     e90: 74 66        	<unknown>
     e92: 66 00        	<unknown>
     e94: 5f 5a 4c 36  	<unknown>
     e98: 72 6f        	<unknown>
     e9a: 75 6e        	<unknown>
     e9c: 64 66        	<unknown>
     e9e: 66 00        	<unknown>
     ea0: 5f 5a 4c 38  	<unknown>
     ea4: 73 63 61 6c  	csrrsi	t1, 0x6c6, 0x2
     ea8: 62 6c        	<unknown>
     eaa: 6e 66        	<unknown>
     eac: 66 6c        	<unknown>
     eae: 00 5f        	<unknown>
     eb0: 5a 4c        	<unknown>
     eb2: 37 73 63 61  	lui	t1, 0x61637
     eb6: 6c 62        	<unknown>
     eb8: 6e 66        	<unknown>
     eba: 66 69        	<unknown>
     ebc: 00 5f        	<unknown>
     ebe: 5a 4c        	<unknown>
     ec0: 34 73        	<unknown>
     ec2: 69 6e        	<unknown>
     ec4: 66 66        	<unknown>
     ec6: 00 5f        	<unknown>
     ec8: 5a 4c        	<unknown>
     eca: 35 73        	<unknown>
     ecc: 69 6e        	<unknown>
     ece: 68 66        	<unknown>
     ed0: 66 00        	<unknown>
     ed2: 5f 5a 4c 35  	<unknown>
     ed6: 73 71 72 74  	csrrci	sp, mseccfg, 0x4
     eda: 66 66        	<unknown>
     edc: 00 5f        	<unknown>
     ede: 5a 4c        	<unknown>
     ee0: 34 74        	<unknown>
     ee2: 61 6e        	<unknown>
     ee4: 66 66        	<unknown>
     ee6: 00 5f        	<unknown>
     ee8: 5a 4c        	<unknown>
     eea: 35 74        	<unknown>
     eec: 61 6e        	<unknown>
     eee: 68 66        	<unknown>
     ef0: 66 00        	<unknown>
     ef2: 5f 5a 4c 37  	<unknown>
     ef6: 74 67        	<unknown>
     ef8: 61 6d        	<unknown>
     efa: 6d 61        	<unknown>
     efc: 66 66        	<unknown>
     efe: 00 5f        	<unknown>
     f00: 5a 4c        	<unknown>
     f02: 36 74        	<unknown>
     f04: 72 75        	<unknown>
     f06: 6e 63        	<unknown>
     f08: 66 66        	<unknown>
     f0a: 00 5f        	<unknown>
     f0c: 5a 4e        	<unknown>
     f0e: 32 6e        	<unknown>
     f10: 76 36        	<unknown>
     f12: 74 61        	<unknown>
     f14: 72 67        	<unknown>
     f16: 65 74        	<unknown>
     f18: 36 64        	<unknown>
     f1a: 65 74        	<unknown>
     f1c: 61 69        	<unknown>
     f1e: 6c 31        	<unknown>
     f20: 30 69        	<unknown>
     f22: 73 5f 65 78  	csrrwi	t5, 0x786, 0xa
     f26: 61 63        	<unknown>
     f28: 74 6c        	<unknown>
     f2a: 79 45        	<unknown>
     f2c: 4e 53        	<unknown>
     f2e: 31 5f        	<unknown>
     f30: 31 31        	<unknown>
     f32: 73 6d 5f 73  	csrrsi	s10, 0x735, 0x1e
     f36: 65 6c        	<unknown>
     f38: 65 63        	<unknown>
     f3a: 74 6f        	<unknown>
     f3c: 72 45        	<unknown>
     f3e: 00 69        	<unknown>
     f40: 73 5f 65 78  	csrrwi	t5, 0x786, 0xa
     f44: 61 63        	<unknown>
     f46: 74 6c        	<unknown>
     f48: 79 00        	<unknown>
     f4a: 5f 5a 4e 32  	<unknown>
     f4e: 6e 76        	<unknown>
     f50: 36 74        	<unknown>
     f52: 61 72        	<unknown>
     f54: 67 65 74 36  	<unknown>
     f58: 64 65        	<unknown>
     f5a: 74 61        	<unknown>
     f5c: 69 6c        	<unknown>
     f5e: 38 70        	<unknown>
     f60: 72 6f        	<unknown>
     f62: 76 69        	<unknown>
     f64: 64 65        	<unknown>
     f66: 73 45 4e 53  	<unknown>
     f6a: 31 5f        	<unknown>
     f6c: 31 31        	<unknown>
     f6e: 73 6d 5f 73  	csrrsi	s10, 0x735, 0x1e
     f72: 65 6c        	<unknown>
     f74: 65 63        	<unknown>
     f76: 74 6f        	<unknown>
     f78: 72 45        	<unknown>
     f7a: 00 70        	<unknown>
     f7c: 72 6f        	<unknown>
     f7e: 76 69        	<unknown>
     f80: 64 65        	<unknown>
     f82: 73           	<unknown>
     f83: 00           	<unknown>

Disassembly of section .symtab:

0000000000000000 <.symtab>:
		...
      1c: 03 00 01 00  	lb	zero, 0x0(sp)
      20: 00 00        	<unknown>
      22: 00 80        	<unknown>
      24: 01 00        	<unknown>
		...
      32: 00 00        	<unknown>
      34: 03 00 02 00  	lb	zero, 0x0(tp)
      38: 70 00        	<unknown>
      3a: 00 80        	<unknown>
      3c: 01 00        	<unknown>
		...
      4a: 00 00        	<unknown>
      4c: 03 00 03 00  	lb	zero, 0x0(t1)
      50: 50 34        	<unknown>
      52: 00 80        	<unknown>
      54: 01 00        	<unknown>
		...
      62: 00 00        	<unknown>
      64: 03 00 04 00  	lb	zero, 0x0(s0)
      68: d0 36        	<unknown>
      6a: 00 80        	<unknown>
      6c: 01 00        	<unknown>
		...
      7a: 00 00        	<unknown>
      7c: 03 00 05 00  	lb	zero, 0x0(a0)
      80: 30 47        	<unknown>
      82: 00 80        	<unknown>
      84: 01 00        	<unknown>
		...
      92: 00 00        	<unknown>
      94: 03 00 06 00  	lb	zero, 0x0(a2)
      98: 30 47        	<unknown>
      9a: 00 80        	<unknown>
      9c: 01 00        	<unknown>
		...
      aa: 00 00        	<unknown>
      ac: 03 00 07 00  	lb	zero, 0x0(a4)
      b0: 68 47        	<unknown>
      b2: 00 80        	<unknown>
      b4: 01 00        	<unknown>
		...
      c2: 00 00        	<unknown>
      c4: 03 00 08 00  	lb	zero, 0x0(a6)
      c8: 10 48        	<unknown>
      ca: 00 80        	<unknown>
      cc: 01 00        	<unknown>
		...
      da: 00 00        	<unknown>
      dc: 03 00 09 00  	lb	zero, 0x0(s2)
      e0: 38 48        	<unknown>
      e2: 00 80        	<unknown>
      e4: 01 00        	<unknown>
		...
      f2: 00 00        	<unknown>
      f4: 03 00 0a 00  	lb	zero, 0x0(s4)
		...
     10c: 03 00 0b 00  	lb	zero, 0x0(s6)
		...
     124: 03 00 0c 00  	lb	zero, 0x0(s8)
		...
     13c: 03 00 0d 00  	lb	zero, 0x0(s10)
		...
     154: 03 00 0e 00  	lb	zero, 0x0(t3)
		...
     16c: 03 00 0f 00  	lb	zero, 0x0(t5)
		...
     184: 03 00 10 00  	lb	zero, 0x1(zero)
		...
     198: 01 00        	<unknown>
     19a: 00 00        	<unknown>
     19c: 04 00        	<unknown>
     19e: f1 ff        	<unknown>
		...
     1b0: 0e 00        	<unknown>
     1b2: 00 00        	<unknown>
     1b4: 00 00        	<unknown>
     1b6: 01 00        	<unknown>
     1b8: 00 00        	<unknown>
     1ba: 00 80        	<unknown>
     1bc: 01 00        	<unknown>
		...
     1c6: 00 00        	<unknown>
     1c8: 3f 00 00 00  	<unknown>
     1cc: 02 00        	<unknown>
     1ce: 02 00        	<unknown>
     1d0: a4 09        	<unknown>
     1d2: 00 80        	<unknown>
     1d4: 01 00        	<unknown>
		...
     1de: 00 00        	<unknown>
     1e0: 4d 00        	<unknown>
     1e2: 00 00        	<unknown>
     1e4: 02 00        	<unknown>
     1e6: 02 00        	<unknown>
     1e8: 5c 09        	<unknown>
     1ea: 00 80        	<unknown>
     1ec: 01 00        	<unknown>
		...
     1f6: 00 00        	<unknown>
     1f8: 57 00 00 00  	<unknown>
     1fc: 02 00        	<unknown>
     1fe: 02 00        	<unknown>
     200: b8 09        	<unknown>
     202: 00 80        	<unknown>
     204: 01 00        	<unknown>
		...
     20e: 00 00        	<unknown>
     210: 0e 00        	<unknown>
     212: 00 00        	<unknown>
     214: 00 00        	<unknown>
     216: 02 00        	<unknown>
     218: 48 09        	<unknown>
     21a: 00 80        	<unknown>
     21c: 01 00        	<unknown>
		...
     226: 00 00        	<unknown>
     228: 64 00        	<unknown>
     22a: 00 00        	<unknown>
     22c: 04 00        	<unknown>
     22e: f1 ff        	<unknown>
		...
     240: fa 05        	<unknown>
     242: 00 00        	<unknown>
     244: 02 00        	<unknown>
     246: 02 00        	<unknown>
     248: e0 2c        	<unknown>
     24a: 00 80        	<unknown>
     24c: 01 00        	<unknown>
     24e: 00 00        	<unknown>
     250: 04 00        	<unknown>
     252: 00 00        	<unknown>
     254: 00 00        	<unknown>
     256: 00 00        	<unknown>
     258: 6b 00 00 00  	<unknown>
     25c: 00 00        	<unknown>
     25e: 02 00        	<unknown>
     260: e0 2c        	<unknown>
     262: 00 80        	<unknown>
     264: 01 00        	<unknown>
		...
     26e: 00 00        	<unknown>
     270: 02 06        	<unknown>
     272: 00 00        	<unknown>
     274: 02 00        	<unknown>
     276: 02 00        	<unknown>
     278: e4 2c        	<unknown>
     27a: 00 80        	<unknown>
     27c: 01 00        	<unknown>
     27e: 00 00        	<unknown>
     280: 64 00        	<unknown>
     282: 00 00        	<unknown>
     284: 00 00        	<unknown>
     286: 00 00        	<unknown>
     288: 70 00        	<unknown>
     28a: 00 00        	<unknown>
     28c: 00 00        	<unknown>
     28e: 02 00        	<unknown>
     290: e4 2c        	<unknown>
     292: 00 80        	<unknown>
     294: 01 00        	<unknown>
		...
     29e: 00 00        	<unknown>
     2a0: 75 00        	<unknown>
     2a2: 00 00        	<unknown>
     2a4: 00 00        	<unknown>
     2a6: 02 00        	<unknown>
     2a8: 70 00        	<unknown>
     2aa: 00 80        	<unknown>
     2ac: 01 00        	<unknown>
		...
     2b6: 00 00        	<unknown>
     2b8: 7a 00        	<unknown>
     2ba: 00 00        	<unknown>
     2bc: 00 00        	<unknown>
     2be: 0a 00        	<unknown>
     2c0: 67 00 00 00  	jr	zero <.symtab>
		...
     2d0: 7f 00 00 00  	<unknown>
     2d4: 00 00        	<unknown>
     2d6: 0b 00 e1 02  	<unknown>
		...
     2e6: 00 00        	<unknown>
     2e8: 84 00        	<unknown>
     2ea: 00 00        	<unknown>
     2ec: 04 00        	<unknown>
     2ee: f1 ff        	<unknown>
		...
     304: 00 00        	<unknown>
     306: 02 00        	<unknown>
     308: 94 00        	<unknown>
     30a: 00 80        	<unknown>
     30c: 01 00        	<unknown>
		...
     316: 00 00        	<unknown>
     318: 6b 00 00 00  	<unknown>
     31c: 00 00        	<unknown>
     31e: 02 00        	<unknown>
     320: 94 00        	<unknown>
     322: 00 80        	<unknown>
     324: 01 00        	<unknown>
		...
     336: 02 00        	<unknown>
     338: 9c 00        	<unknown>
     33a: 00 80        	<unknown>
     33c: 01 00        	<unknown>
		...
     346: 00 00        	<unknown>
     348: 75 00        	<unknown>
     34a: 00 00        	<unknown>
     34c: 00 00        	<unknown>
     34e: 02 00        	<unknown>
     350: 9c 00        	<unknown>
     352: 00 80        	<unknown>
     354: 01 00        	<unknown>
		...
     366: 02 00        	<unknown>
     368: e8 00        	<unknown>
     36a: 00 80        	<unknown>
     36c: 01 00        	<unknown>
		...
     37e: 02 00        	<unknown>
     380: e8 00        	<unknown>
     382: 00 80        	<unknown>
     384: 01 00        	<unknown>
		...
     38e: 00 00        	<unknown>
     390: 97 00 00 00  	auipc	ra, 0x0
     394: 00 00        	<unknown>
     396: 02 00        	<unknown>
     398: e8 00        	<unknown>
     39a: 00 80        	<unknown>
     39c: 01 00        	<unknown>
		...
     3ae: 02 00        	<unknown>
     3b0: 08 02        	<unknown>
     3b2: 00 80        	<unknown>
     3b4: 01 00        	<unknown>
		...
     3be: 00 00        	<unknown>
     3c0: 7f 00 00 00  	<unknown>
     3c4: 00 00        	<unknown>
     3c6: 07 00 00 48  	<unknown>
     3ca: 00 80        	<unknown>
     3cc: 01 00        	<unknown>
		...
     3d6: 00 00        	<unknown>
     3d8: 9c 00        	<unknown>
     3da: 00 00        	<unknown>
     3dc: 00 00        	<unknown>
     3de: 08 00        	<unknown>
     3e0: 10 48        	<unknown>
     3e2: 00 80        	<unknown>
     3e4: 01 00        	<unknown>
		...
     3ee: 00 00        	<unknown>
     3f0: a1 00        	<unknown>
     3f2: 00 00        	<unknown>
     3f4: 00 00        	<unknown>
     3f6: 05 00        	<unknown>
     3f8: 30 47        	<unknown>
     3fa: 00 80        	<unknown>
     3fc: 01 00        	<unknown>
		...
     406: 00 00        	<unknown>
     408: a6 00        	<unknown>
     40a: 00 00        	<unknown>
     40c: 00 00        	<unknown>
     40e: 05 00        	<unknown>
     410: 34 47        	<unknown>
     412: 00 80        	<unknown>
     414: 01 00        	<unknown>
		...
     41e: 00 00        	<unknown>
     420: ab 00 00 00  	vx_tex	ra, zero, zero, zero
     424: 00 00        	<unknown>
     426: 05 00        	<unknown>
     428: 38 47        	<unknown>
     42a: 00 80        	<unknown>
     42c: 01 00        	<unknown>
		...
     436: 00 00        	<unknown>
     438: b0 00        	<unknown>
     43a: 00 00        	<unknown>
     43c: 00 00        	<unknown>
     43e: 05 00        	<unknown>
     440: 3c 47        	<unknown>
     442: 00 80        	<unknown>
     444: 01 00        	<unknown>
		...
     44e: 00 00        	<unknown>
     450: b5 00        	<unknown>
     452: 00 00        	<unknown>
     454: 00 00        	<unknown>
     456: 05 00        	<unknown>
     458: 40 47        	<unknown>
     45a: 00 80        	<unknown>
     45c: 01 00        	<unknown>
		...
     466: 00 00        	<unknown>
     468: bb 00 00 00  	addw	ra, zero, zero
     46c: 00 00        	<unknown>
     46e: 05 00        	<unknown>
     470: 44 47        	<unknown>
     472: 00 80        	<unknown>
     474: 01 00        	<unknown>
		...
     47e: 00 00        	<unknown>
     480: c1 00        	<unknown>
     482: 00 00        	<unknown>
     484: 00 00        	<unknown>
     486: 03 00 50 34  	lb	zero, 0x345(zero)
     48a: 00 80        	<unknown>
     48c: 01 00        	<unknown>
		...
     496: 00 00        	<unknown>
     498: c7 00 00 00  	fmsub.s	ft1, ft0, ft0, ft0, rne
     49c: 00 00        	<unknown>
     49e: 0a 00        	<unknown>
     4a0: 67 00 00 00  	jr	zero <.symtab>
		...
     4b0: cd 00        	<unknown>
     4b2: 00 00        	<unknown>
     4b4: 00 00        	<unknown>
     4b6: 0b 00 00 00  	vx_tmc	zero
		...
     4c6: 00 00        	<unknown>
     4c8: d3 00 00 00  	fadd.s	ft1, ft0, ft0, rne
     4cc: 00 00        	<unknown>
     4ce: 04 00        	<unknown>
     4d0: d0 36        	<unknown>
     4d2: 00 80        	<unknown>
     4d4: 01 00        	<unknown>
		...
     4de: 00 00        	<unknown>
     4e0: d9 00        	<unknown>
     4e2: 00 00        	<unknown>
     4e4: 04 00        	<unknown>
     4e6: f1 ff        	<unknown>
		...
     4fc: 00 00        	<unknown>
     4fe: 02 00        	<unknown>
     500: 08 02        	<unknown>
     502: 00 80        	<unknown>
     504: 01 00        	<unknown>
		...
     50e: 00 00        	<unknown>
     510: 6b 00 00 00  	<unknown>
     514: 00 00        	<unknown>
     516: 02 00        	<unknown>
     518: 08 02        	<unknown>
     51a: 00 80        	<unknown>
     51c: 01 00        	<unknown>
		...
     52e: 02 00        	<unknown>
     530: 10 09        	<unknown>
     532: 00 80        	<unknown>
     534: 01 00        	<unknown>
		...
     546: 02 00        	<unknown>
     548: 10 09        	<unknown>
     54a: 00 80        	<unknown>
     54c: 01 00        	<unknown>
		...
     556: 00 00        	<unknown>
     558: 70 00        	<unknown>
     55a: 00 00        	<unknown>
     55c: 00 00        	<unknown>
     55e: 02 00        	<unknown>
     560: 10 09        	<unknown>
     562: 00 80        	<unknown>
     564: 01 00        	<unknown>
		...
     576: 02 00        	<unknown>
     578: 48 09        	<unknown>
     57a: 00 80        	<unknown>
     57c: 01 00        	<unknown>
		...
     586: 00 00        	<unknown>
     588: e4 00        	<unknown>
     58a: 00 00        	<unknown>
     58c: 00 00        	<unknown>
     58e: 05 00        	<unknown>
     590: 50 47        	<unknown>
     592: 00 80        	<unknown>
     594: 01 00        	<unknown>
		...
     59e: 00 00        	<unknown>
     5a0: 7a 00        	<unknown>
     5a2: 00 00        	<unknown>
     5a4: 00 00        	<unknown>
     5a6: 05 00        	<unknown>
     5a8: 50 4b        	<unknown>
     5aa: 00 80        	<unknown>
     5ac: 01 00        	<unknown>
		...
     5b6: 00 00        	<unknown>
     5b8: 7f 00 00 00  	<unknown>
     5bc: 00 00        	<unknown>
     5be: 05 00        	<unknown>
     5c0: 50 4f        	<unknown>
     5c2: 00 80        	<unknown>
     5c4: 01 00        	<unknown>
		...
     5ce: 00 00        	<unknown>
     5d0: 9c 00        	<unknown>
     5d2: 00 00        	<unknown>
     5d4: 00 00        	<unknown>
     5d6: 0d 00        	<unknown>
		...
     5e8: a1 00        	<unknown>
     5ea: 00 00        	<unknown>
     5ec: 00 00        	<unknown>
     5ee: 0c 00        	<unknown>
		...
     604: 00 00        	<unknown>
     606: 10 00        	<unknown>
		...
     61c: 00 00        	<unknown>
     61e: 10 00        	<unknown>
     620: 68 00        	<unknown>
		...
     636: 10 00        	<unknown>
     638: 73 00 00 00  	ecall
		...
     64c: 00 00        	<unknown>
     64e: 10 00        	<unknown>
     650: 9b 00 00 00  	sext.w	ra, zero
		...
     664: 00 00        	<unknown>
     666: 10 00        	<unknown>
     668: c2 00        	<unknown>
		...
     67e: 10 00        	<unknown>
     680: d0 00        	<unknown>
		...
     696: 10 00        	<unknown>
     698: a8 00        	<unknown>
		...
     6ae: 10 00        	<unknown>
     6b0: ae 00        	<unknown>
		...
     6c6: 10 00        	<unknown>
     6c8: 7d 0b        	<unknown>
		...
     6de: 10 00        	<unknown>
     6e0: d7 00 00 00  	<unknown>
		...
     6f4: 00 00        	<unknown>
     6f6: 10 00        	<unknown>
     6f8: de 00        	<unknown>
		...
     70e: 10 00        	<unknown>
     710: 45 01        	<unknown>
		...
     726: 10 00        	<unknown>
     728: e5 00        	<unknown>
		...
     73e: 10 00        	<unknown>
     740: eb 00 00 00  	<unknown>
		...
     754: 00 00        	<unknown>
     756: 10 00        	<unknown>
     758: f1 00        	<unknown>
		...
     76e: 10 00        	<unknown>
     770: f7 00 00 00  	<unknown>
		...
     784: 00 00        	<unknown>
     786: 10 00        	<unknown>
     788: fd 00        	<unknown>
		...
     79e: 10 00        	<unknown>
     7a0: 03 01 00 00  	lb	sp, 0x0(zero)
		...
     7b4: 00 00        	<unknown>
     7b6: 10 00        	<unknown>
     7b8: 09 01        	<unknown>
		...
     7ce: 10 00        	<unknown>
     7d0: 0f 01 00 00  	<unknown>
		...
     7e4: 00 00        	<unknown>
     7e6: 10 00        	<unknown>
     7e8: 15 01        	<unknown>
		...
     7fe: 10 00        	<unknown>
     800: 1b 01 00 00  	sext.w	sp, zero
		...
     814: 00 00        	<unknown>
     816: 10 00        	<unknown>
     818: 21 01        	<unknown>
		...
     82e: 10 00        	<unknown>
     830: 27 01 00 00  	<unknown>
		...
     844: 00 00        	<unknown>
     846: 10 00        	<unknown>
     848: 2d 01        	<unknown>
		...
     85e: 10 00        	<unknown>
     860: 33 01 00 00  	add	sp, zero, zero
		...
     874: 00 00        	<unknown>
     876: 10 00        	<unknown>
     878: 39 01        	<unknown>
		...
     88e: 10 00        	<unknown>
     890: 3f 01 00 00  	<unknown>
		...
     8a4: 00 00        	<unknown>
     8a6: 10 00        	<unknown>
     8a8: 77 01 00 00  	<unknown>
		...
     8bc: 00 00        	<unknown>
     8be: 10 00        	<unknown>
     8c0: 51 01        	<unknown>
		...
     8d6: 10 00        	<unknown>
     8d8: 6c 01        	<unknown>
		...
     8ee: 10 00        	<unknown>
     8f0: 0b 0f 00 00  	<unknown>
		...
     904: 00 00        	<unknown>
     906: 10 00        	<unknown>
     908: 3f 0f 00 00  	<unknown>
		...
     91c: 00 00        	<unknown>
     91e: 10 00        	<unknown>
     920: 4a 0f        	<unknown>
		...
     936: 10 00        	<unknown>
     938: 7b 0f 00 00  	<unknown>
		...
     94c: 00 00        	<unknown>
     94e: 10 00        	<unknown>
     950: 59 01        	<unknown>
		...
     966: 10 00        	<unknown>
     968: be 02        	<unknown>
		...
     97e: 10 00        	<unknown>
     980: fe 01        	<unknown>
		...
     996: 10 00        	<unknown>
     998: 44 02        	<unknown>
		...
     9ae: 10 00        	<unknown>
     9b0: 8a 02        	<unknown>
		...
     9c6: 10 00        	<unknown>
     9c8: 97 01 00 00  	auipc	gp, 0x0
		...
     9dc: 00 00        	<unknown>
     9de: 10 00        	<unknown>
     9e0: ab 01 00 00  	vx_tex	gp, zero, zero, zero
		...
     9f4: 00 00        	<unknown>
     9f6: 10 00        	<unknown>
     9f8: 8a 01        	<unknown>
		...
     a0e: 10 00        	<unknown>
     a10: b4 01        	<unknown>
		...
     a26: 10 00        	<unknown>
     a28: ed 02        	<unknown>
		...
     a3e: 10 00        	<unknown>
     a40: ba 01        	<unknown>
		...
     a56: 10 00        	<unknown>
     a58: ee 01        	<unknown>
		...
     a6e: 10 00        	<unknown>
     a70: 00 02        	<unknown>
		...
     a86: 10 00        	<unknown>
     a88: 34 02        	<unknown>
		...
     a9e: 10 00        	<unknown>
     aa0: 46 02        	<unknown>
		...
     ab6: 10 00        	<unknown>
     ab8: 7a 02        	<unknown>
		...
     ace: 10 00        	<unknown>
     ad0: 8c 02        	<unknown>
		...
     ae6: 10 00        	<unknown>
     ae8: b5 02        	<unknown>
		...
     afe: 10 00        	<unknown>
     b00: c3 02 00 00  	fmadd.s	ft5, ft0, ft0, ft0, rne
		...
     b14: 00 00        	<unknown>
     b16: 10 00        	<unknown>
     b18: 07 03 00 00  	<unknown>
		...
     b2c: 00 00        	<unknown>
     b2e: 10 00        	<unknown>
     b30: 2e 03        	<unknown>
		...
     b46: 10 00        	<unknown>
     b48: 38 03        	<unknown>
		...
     b5e: 10 00        	<unknown>
     b60: 5c 03        	<unknown>
		...
     b76: 10 00        	<unknown>
     b78: 5a 04        	<unknown>
		...
     b8e: 10 00        	<unknown>
     b90: 66 03        	<unknown>
		...
     ba6: 10 00        	<unknown>
     ba8: 9b 03 00 00  	sext.w	t2, zero
		...
     bbc: 00 00        	<unknown>
     bbe: 10 00        	<unknown>
     bc0: d0 03        	<unknown>
		...
     bd6: 10 00        	<unknown>
     bd8: 05 04        	<unknown>
		...
     bee: 10 00        	<unknown>
     bf0: 2f 04 00 00  	<unknown>
		...
     c04: 00 00        	<unknown>
     c06: 10 00        	<unknown>
     c08: 75 04        	<unknown>
		...
     c1e: 10 00        	<unknown>
     c20: 9d 04        	<unknown>
		...
     c36: 10 00        	<unknown>
     c38: c2 04        	<unknown>
		...
     c4e: 10 00        	<unknown>
     c50: 3f 0c 00 00  	<unknown>
		...
     c64: 00 00        	<unknown>
     c66: 10 00        	<unknown>
     c68: d6 05        	<unknown>
		...
     c7e: 10 00        	<unknown>
     c80: c6 04        	<unknown>
		...
     c96: 10 00        	<unknown>
     c98: 93 01 00 00  	li	gp, 0x0
		...
     cac: 00 00        	<unknown>
     cae: 10 00        	<unknown>
     cb0: cf 04 00 00  	fnmadd.s	fs1, ft0, ft0, ft0, rne
		...
     cc4: 00 00        	<unknown>
     cc6: 10 00        	<unknown>
     cc8: d9 04        	<unknown>
		...
     cde: 10 00        	<unknown>
     ce0: de 04        	<unknown>
		...
     cf6: 10 00        	<unknown>
     cf8: e9 04        	<unknown>
		...
     d0e: 10 00        	<unknown>
     d10: ef 04 00 00  	jal	s1, 0xd10 <.symtab+0xd10>
		...
     d24: 00 00        	<unknown>
     d26: 10 00        	<unknown>
     d28: f9 04        	<unknown>
		...
     d3e: 10 00        	<unknown>
     d40: fe 04        	<unknown>
		...
     d56: 10 00        	<unknown>
     d58: 09 05        	<unknown>
		...
     d6e: 10 00        	<unknown>
     d70: 0f 05 00 00  	<unknown>
		...
     d84: 00 00        	<unknown>
     d86: 10 00        	<unknown>
     d88: 19 05        	<unknown>
		...
     d9e: 10 00        	<unknown>
     da0: 1e 05        	<unknown>
		...
     db6: 10 00        	<unknown>
     db8: 2a 05        	<unknown>
		...
     dce: 10 00        	<unknown>
     dd0: 30 05        	<unknown>
		...
     de6: 10 00        	<unknown>
     de8: 3b 05 00 00  	addw	a0, zero, zero
		...
     dfc: 00 00        	<unknown>
     dfe: 10 00        	<unknown>
     e00: 41 05        	<unknown>
		...
     e16: 10 00        	<unknown>
     e18: 4b 05 00 00  	fnmsub.s	fa0, ft0, ft0, ft0, rne
		...
     e2c: 00 00        	<unknown>
     e2e: 10 00        	<unknown>
     e30: 50 05        	<unknown>
		...
     e46: 10 00        	<unknown>
     e48: 5a 05        	<unknown>
		...
     e5e: 10 00        	<unknown>
     e60: 5f 05 00 00  	<unknown>
		...
     e74: 00 00        	<unknown>
     e76: 10 00        	<unknown>
     e78: 6e 05        	<unknown>
		...
     e8e: 10 00        	<unknown>
     e90: 77 05 00 00  	<unknown>
		...
     ea4: 00 00        	<unknown>
     ea6: 10 00        	<unknown>
     ea8: da 04        	<unknown>
		...
     ebe: 10 00        	<unknown>
     ec0: 80 05        	<unknown>
		...
     ed6: 10 00        	<unknown>
     ed8: ea 04        	<unknown>
		...
     eee: 10 00        	<unknown>
     ef0: 8a 05        	<unknown>
		...
     f06: 10 00        	<unknown>
     f08: bf 0a 00 00  	<unknown>
		...
     f1c: 00 00        	<unknown>
     f1e: 10 00        	<unknown>
     f20: 93 05 00 00  	li	a1, 0x0
		...
     f34: 00 00        	<unknown>
     f36: 10 00        	<unknown>
     f38: 9d 05        	<unknown>
		...
     f4e: 10 00        	<unknown>
     f50: a2 05        	<unknown>
		...
     f66: 10 00        	<unknown>
     f68: ad 07        	<unknown>
		...
     f7e: 10 00        	<unknown>
     f80: ab 05 00 00  	vx_tex	a1, zero, zero, zero
		...
     f94: 00 00        	<unknown>
     f96: 10 00        	<unknown>
     f98: b5 05        	<unknown>
		...
     fae: 10 00        	<unknown>
     fb0: ba 05        	<unknown>
		...
     fc6: 10 00        	<unknown>
     fc8: c5 05        	<unknown>
		...
     fde: 10 00        	<unknown>
     fe0: cb 05 00 00  	fnmsub.s	fa1, ft0, ft0, ft0, rne
		...
     ff4: 00 00        	<unknown>
     ff6: 10 00        	<unknown>
     ff8: d5 05        	<unknown>
		...
    100e: 10 00        	<unknown>
    1010: da 05        	<unknown>
		...
    1026: 10 00        	<unknown>
    1028: e5 05        	<unknown>
		...
    103e: 10 00        	<unknown>
    1040: ea 05        	<unknown>
		...
    1056: 10 00        	<unknown>
    1058: f5 05        	<unknown>
		...
    106e: 10 00        	<unknown>
    1070: fb 05 00 00  	<unknown>
		...
    1084: 00 00        	<unknown>
    1086: 10 00        	<unknown>
    1088: 06 06        	<unknown>
		...
    109e: 10 00        	<unknown>
    10a0: 0a 06        	<unknown>
		...
    10b6: 10 00        	<unknown>
    10b8: 15 06        	<unknown>
		...
    10ce: 10 00        	<unknown>
    10d0: 1a 06        	<unknown>
		...
    10e6: 10 00        	<unknown>
    10e8: 25 06        	<unknown>
		...
    10fe: 10 00        	<unknown>
    1100: 2a 06        	<unknown>
		...
    1116: 10 00        	<unknown>
    1118: 35 06        	<unknown>
		...
    112e: 10 00        	<unknown>
    1130: 3a 06        	<unknown>
		...
    1146: 10 00        	<unknown>
    1148: 4b 06 00 00  	fnmsub.s	fa2, ft0, ft0, ft0, rne
		...
    115c: 00 00        	<unknown>
    115e: 10 00        	<unknown>
    1160: 56 06        	<unknown>
		...
    1176: 10 00        	<unknown>
    1178: 63 06 00 00  	beqz	zero, 0x1184 <.symtab+0x1184>
		...
    118c: 00 00        	<unknown>
    118e: 10 00        	<unknown>
    1190: 69 06        	<unknown>
		...
    11a6: 10 00        	<unknown>
    11a8: 75 06        	<unknown>
		...
    11be: 10 00        	<unknown>
    11c0: 7b 06 00 00  	<unknown>
		...
    11d4: 00 00        	<unknown>
    11d6: 10 00        	<unknown>
    11d8: 86 06        	<unknown>
		...
    11ee: 10 00        	<unknown>
    11f0: 8c 06        	<unknown>
		...
    1206: 10 00        	<unknown>
    1208: 9a 06        	<unknown>
		...
    121e: 10 00        	<unknown>
    1220: a3 06 00 00  	sb	zero, 0xd(zero)
		...
    1234: 00 00        	<unknown>
    1236: 10 00        	<unknown>
    1238: a8 06        	<unknown>
		...
    124e: 10 00        	<unknown>
    1250: b8 06        	<unknown>
		...
    1266: 10 00        	<unknown>
    1268: c2 06        	<unknown>
		...
    127e: 10 00        	<unknown>
    1280: d8 06        	<unknown>
		...
    1296: 10 00        	<unknown>
    1298: e7 06 00 00  	jalr	a3, zero <.symtab>
		...
    12ac: 00 00        	<unknown>
    12ae: 10 00        	<unknown>
    12b0: f2 06        	<unknown>
		...
    12c6: 10 00        	<unknown>
    12c8: f8 06        	<unknown>
		...
    12de: 10 00        	<unknown>
    12e0: 05 07        	<unknown>
		...
    12f6: 10 00        	<unknown>
    12f8: 0c 07        	<unknown>
		...
    130e: 10 00        	<unknown>
    1310: 1f 07 00 00  	<unknown>
		...
    1324: 00 00        	<unknown>
    1326: 10 00        	<unknown>
    1328: 2b 07 00 00  	vx_tex	a4, zero, zero, zero
		...
    133c: 00 00        	<unknown>
    133e: 10 00        	<unknown>
    1340: 40 07        	<unknown>
		...
    1356: 10 00        	<unknown>
    1358: 4e 07        	<unknown>
		...
    136e: 10 00        	<unknown>
    1370: 59 07        	<unknown>
		...
    1386: 10 00        	<unknown>
    1388: 5f 07 00 00  	<unknown>
		...
    139c: 00 00        	<unknown>
    139e: 10 00        	<unknown>
    13a0: 6d 07        	<unknown>
		...
    13b6: 10 00        	<unknown>
    13b8: 76 07        	<unknown>
		...
    13ce: 10 00        	<unknown>
    13d0: 89 07        	<unknown>
		...
    13e6: 10 00        	<unknown>
    13e8: 95 07        	<unknown>
		...
    13fe: 10 00        	<unknown>
    1400: d0 07        	<unknown>
		...
    1416: 10 00        	<unknown>
    1418: 53 0b 00 00  	fadd.s	fs6, ft0, ft0, rne
		...
    142c: 00 00        	<unknown>
    142e: 10 00        	<unknown>
    1430: 9f 07 00 00  	<unknown>
		...
    1444: 00 00        	<unknown>
    1446: 10 00        	<unknown>
    1448: ab 07 00 00  	vx_tex	a5, zero, zero, zero
		...
    145c: 00 00        	<unknown>
    145e: 10 00        	<unknown>
    1460: b1 07        	<unknown>
		...
    1476: 10 00        	<unknown>
    1478: bd 07        	<unknown>
		...
    148e: 10 00        	<unknown>
    1490: c4 07        	<unknown>
		...
    14a6: 10 00        	<unknown>
    14a8: cf 07 00 00  	fnmadd.s	fa5, ft0, ft0, ft0, rne
		...
    14bc: 00 00        	<unknown>
    14be: 10 00        	<unknown>
    14c0: 62 01        	<unknown>
		...
    14d6: 10 00        	<unknown>
    14d8: d5 07        	<unknown>
		...
    14ee: 10 00        	<unknown>
    14f0: e1 07        	<unknown>
		...
    1506: 10 00        	<unknown>
    1508: e8 07        	<unknown>
		...
    151e: 10 00        	<unknown>
    1520: f1 07        	<unknown>
		...
    1536: 10 00        	<unknown>
    1538: f5 07        	<unknown>
		...
    154e: 10 00        	<unknown>
    1550: 00 08        	<unknown>
		...
    1566: 10 00        	<unknown>
    1568: 06 08        	<unknown>
		...
    157e: 10 00        	<unknown>
    1580: 11 08        	<unknown>
		...
    1596: 10 00        	<unknown>
    1598: 17 08 00 00  	auipc	a6, 0x0
		...
    15ac: 00 00        	<unknown>
    15ae: 10 00        	<unknown>
    15b0: 21 08        	<unknown>
		...
    15c6: 10 00        	<unknown>
    15c8: 26 08        	<unknown>
		...
    15de: 10 00        	<unknown>
    15e0: 87 06 00 00  	<unknown>
		...
    15f4: 00 00        	<unknown>
    15f6: 10 00        	<unknown>
    15f8: 30 08        	<unknown>
		...
    160e: 10 00        	<unknown>
    1610: e2 07        	<unknown>
		...
    1626: 10 00        	<unknown>
    1628: 3b 08 00 00  	addw	a6, zero, zero
		...
    163c: 00 00        	<unknown>
    163e: 10 00        	<unknown>
    1640: 55 08        	<unknown>
		...
    1656: 10 00        	<unknown>
    1658: 47 08 00 00  	fmsub.s	fa6, ft0, ft0, ft0, rne
		...
    166c: 00 00        	<unknown>
    166e: 10 00        	<unknown>
    1670: 54 08        	<unknown>
		...
    1686: 10 00        	<unknown>
    1688: 5c 08        	<unknown>
		...
    169e: 10 00        	<unknown>
    16a0: 67 0d 00 00  	jalr	s10, zero <.symtab>
		...
    16b4: 00 00        	<unknown>
    16b6: 10 00        	<unknown>
    16b8: 68 08        	<unknown>
		...
    16ce: 10 00        	<unknown>
    16d0: 5b 07 00 00  	<unknown>
		...
    16e4: 00 00        	<unknown>
    16e6: 10 00        	<unknown>
    16e8: bf 09 00 00  	<unknown>
		...
    16fc: 00 00        	<unknown>
    16fe: 10 00        	<unknown>
    1700: 73 08 00 00  	<unknown>
		...
    1714: 00 00        	<unknown>
    1716: 10 00        	<unknown>
    1718: 78 08        	<unknown>
		...
    172e: 10 00        	<unknown>
    1730: 54 07        	<unknown>
		...
    1746: 10 00        	<unknown>
    1748: 84 08        	<unknown>
		...
    175e: 10 00        	<unknown>
    1760: 93 08 00 00  	li	a7, 0x0
		...
    1774: 00 00        	<unknown>
    1776: 10 00        	<unknown>
    1778: 9d 08        	<unknown>
		...
    178e: 10 00        	<unknown>
    1790: ad 08        	<unknown>
		...
    17a6: 10 00        	<unknown>
    17a8: b7 08 00 00  	lui	a7, 0x0
		...
    17bc: 00 00        	<unknown>
    17be: 10 00        	<unknown>
    17c0: c1 08        	<unknown>
		...
    17d6: 10 00        	<unknown>
    17d8: c5 08        	<unknown>
		...
    17ee: 10 00        	<unknown>
    17f0: d5 08        	<unknown>
		...
    1806: 10 00        	<unknown>
    1808: df 08 00 00  	<unknown>
		...
    181c: 00 00        	<unknown>
    181e: 10 00        	<unknown>
    1820: ee 08        	<unknown>
		...
    1836: 10 00        	<unknown>
    1838: f5 08        	<unknown>
		...
    184e: 10 00        	<unknown>
    1850: e3 07 00 00  	beqz	zero, 0x205e <.symtab+0x205e>
		...
    1864: 00 00        	<unknown>
    1866: 10 00        	<unknown>
    1868: ff 08 00 00  	<unknown>
		...
    187c: 00 00        	<unknown>
    187e: 10 00        	<unknown>
    1880: 56 08        	<unknown>
		...
    1896: 10 00        	<unknown>
    1898: 0a 09        	<unknown>
		...
    18ae: 10 00        	<unknown>
    18b0: 18 09        	<unknown>
		...
    18c6: 10 00        	<unknown>
    18c8: 20 09        	<unknown>
		...
    18de: 10 00        	<unknown>
    18e0: 2d 09        	<unknown>
		...
    18f6: 10 00        	<unknown>
    18f8: 34 09        	<unknown>
		...
    190e: 10 00        	<unknown>
    1910: 41 09        	<unknown>
		...
    1926: 10 00        	<unknown>
    1928: 49 09        	<unknown>
		...
    193e: 10 00        	<unknown>
    1940: fa 04        	<unknown>
		...
    1956: 10 00        	<unknown>
    1958: 52 09        	<unknown>
		...
    196e: 10 00        	<unknown>
    1970: 0a 05        	<unknown>
		...
    1986: 10 00        	<unknown>
    1988: 5c 09        	<unknown>
		...
    199e: 10 00        	<unknown>
    19a0: 66 09        	<unknown>
		...
    19b6: 10 00        	<unknown>
    19b8: 6b 09 00 00  	<unknown>
		...
    19cc: 00 00        	<unknown>
    19ce: 10 00        	<unknown>
    19d0: 1a 05        	<unknown>
		...
    19e6: 10 00        	<unknown>
    19e8: 74 09        	<unknown>
		...
    19fe: 10 00        	<unknown>
    1a00: 3c 05        	<unknown>
		...
    1a16: 10 00        	<unknown>
    1a18: 7e 09        	<unknown>
		...
    1a2e: 10 00        	<unknown>
    1a30: 8a 09        	<unknown>
		...
    1a46: 10 00        	<unknown>
    1a48: 91 09        	<unknown>
		...
    1a5e: 10 00        	<unknown>
    1a60: 9c 09        	<unknown>
		...
    1a76: 10 00        	<unknown>
    1a78: a2 09        	<unknown>
		...
    1a8e: 10 00        	<unknown>
    1a90: ab 09 00 00  	vx_tex	s3, zero, zero, zero
		...
    1aa4: 00 00        	<unknown>
    1aa6: 10 00        	<unknown>
    1aa8: e2 04        	<unknown>
		...
    1abe: 10 00        	<unknown>
    1ac0: b3 09 00 00  	add	s3, zero, zero
		...
    1ad4: 00 00        	<unknown>
    1ad6: 10 00        	<unknown>
    1ad8: ba 09        	<unknown>
		...
    1aee: 10 00        	<unknown>
    1af0: 02 05        	<unknown>
		...
    1b06: 10 00        	<unknown>
    1b08: c6 09        	<unknown>
		...
    1b1e: 10 00        	<unknown>
    1b20: 34 05        	<unknown>
		...
    1b36: 10 00        	<unknown>
    1b38: cd 09        	<unknown>
		...
    1b4e: 10 00        	<unknown>
    1b50: 45 05        	<unknown>
		...
    1b66: 10 00        	<unknown>
    1b68: d4 09        	<unknown>
		...
    1b7e: 10 00        	<unknown>
    1b80: da 09        	<unknown>
		...
    1b96: 10 00        	<unknown>
    1b98: e4 09        	<unknown>
		...
    1bae: 10 00        	<unknown>
    1bb0: 8e 05        	<unknown>
		...
    1bc6: 10 00        	<unknown>
    1bc8: ee 09        	<unknown>
		...
    1bde: 10 00        	<unknown>
    1be0: 97 05 00 00  	auipc	a1, 0x0
		...
    1bf4: 00 00        	<unknown>
    1bf6: 10 00        	<unknown>
    1bf8: f3 09 00 00  	<unknown>
		...
    1c0c: 00 00        	<unknown>
    1c0e: 10 00        	<unknown>
    1c10: af 05 00 00  	<unknown>
		...
    1c24: 00 00        	<unknown>
    1c26: 10 00        	<unknown>
    1c28: f9 09        	<unknown>
		...
    1c3e: 10 00        	<unknown>
    1c40: be 05        	<unknown>
		...
    1c56: 10 00        	<unknown>
    1c58: ff 09 00 00  	<unknown>
		...
    1c6c: 00 00        	<unknown>
    1c6e: 10 00        	<unknown>
    1c70: 06 0a        	<unknown>
		...
    1c86: 10 00        	<unknown>
    1c88: 0c 0a        	<unknown>
		...
    1c9e: 10 00        	<unknown>
    1ca0: 12 0a        	<unknown>
		...
    1cb6: 10 00        	<unknown>
    1cb8: 17 0a 00 00  	auipc	s4, 0x0
		...
    1ccc: 00 00        	<unknown>
    1cce: 10 00        	<unknown>
    1cd0: 1c 0a        	<unknown>
		...
    1ce6: 10 00        	<unknown>
    1ce8: 22 0a        	<unknown>
		...
    1cfe: 10 00        	<unknown>
    1d00: 28 0a        	<unknown>
		...
    1d16: 10 00        	<unknown>
    1d18: 2e 0a        	<unknown>
		...
    1d2e: 10 00        	<unknown>
    1d30: 34 0a        	<unknown>
		...
    1d46: 10 00        	<unknown>
    1d48: 3b 0a 00 00  	addw	s4, zero, zero
		...
    1d5c: 00 00        	<unknown>
    1d5e: 10 00        	<unknown>
    1d60: 7f 06 00 00  	<unknown>
		...
    1d74: 00 00        	<unknown>
    1d76: 10 00        	<unknown>
    1d78: 42 0a        	<unknown>
		...
    1d8e: 10 00        	<unknown>
    1d90: b5 07        	<unknown>
		...
    1da6: 10 00        	<unknown>
    1da8: 49 0a        	<unknown>
		...
    1dbe: 10 00        	<unknown>
    1dc0: d9 07        	<unknown>
		...
    1dd6: 10 00        	<unknown>
    1dd8: 51 0a        	<unknown>
		...
    1dee: 10 00        	<unknown>
    1df0: 4b 08 00 00  	fnmsub.s	fa6, ft0, ft0, ft0, rne
		...
    1e04: 00 00        	<unknown>
    1e06: 10 00        	<unknown>
    1e08: 59 0a        	<unknown>
		...
    1e1e: 10 00        	<unknown>
    1e20: 0a 08        	<unknown>
		...
    1e36: 10 00        	<unknown>
    1e38: 62 0a        	<unknown>
		...
    1e4e: 10 00        	<unknown>
    1e50: 1b 08 00 00  	sext.w	a6, zero
		...
    1e64: 00 00        	<unknown>
    1e66: 10 00        	<unknown>
    1e68: 69 0a        	<unknown>
		...
    1e7e: 10 00        	<unknown>
    1e80: 2a 08        	<unknown>
		...
    1e96: 10 00        	<unknown>
    1e98: 43 0a 00 00  	fmadd.s	fs4, ft0, ft0, ft0, rne
		...
    1eac: 00 00        	<unknown>
    1eae: 10 00        	<unknown>
    1eb0: 34 08        	<unknown>
		...
    1ec6: 10 00        	<unknown>
    1ec8: 52 0a        	<unknown>
		...
    1ede: 10 00        	<unknown>
    1ee0: 3f 08 00 00  	<unknown>
		...
    1ef4: 00 00        	<unknown>
    1ef6: 10 00        	<unknown>
    1ef8: 5a 0a        	<unknown>
		...
    1f0e: 10 00        	<unknown>
    1f10: 6f 0a 00 00  	jal	s4, 0x1f10 <.symtab+0x1f10>
		...
    1f24: 00 00        	<unknown>
    1f26: 10 00        	<unknown>
    1f28: 88 08        	<unknown>
		...
    1f3e: 10 00        	<unknown>
    1f40: 74 0a        	<unknown>
		...
    1f56: 10 00        	<unknown>
    1f58: 7f 0a 00 00  	<unknown>
		...
    1f6c: 00 00        	<unknown>
    1f6e: 10 00        	<unknown>
    1f70: 8a 0a        	<unknown>
		...
    1f86: 10 00        	<unknown>
    1f88: 95 0a        	<unknown>
		...
    1f9e: 10 00        	<unknown>
    1fa0: a0 0a        	<unknown>
		...
    1fb6: 10 00        	<unknown>
    1fb8: ac 0a        	<unknown>
		...
    1fce: 10 00        	<unknown>
    1fd0: b8 0a        	<unknown>
		...
    1fe6: 10 00        	<unknown>
    1fe8: c3 0a 00 00  	fmadd.s	fs5, ft0, ft0, ft0, rne
		...
    1ffc: 00 00        	<unknown>
    1ffe: 10 00        	<unknown>
    2000: ce 0a        	<unknown>
		...
    2016: 10 00        	<unknown>
    2018: d6 0a        	<unknown>
		...
    202e: 10 00        	<unknown>
    2030: f9 08        	<unknown>
		...
    2046: 10 00        	<unknown>
    2048: 53 0a 00 00  	fadd.s	fs4, ft0, ft0, rne
		...
    205c: 00 00        	<unknown>
    205e: 10 00        	<unknown>
    2060: 03 09 00 00  	lb	s2, 0x0(zero)
		...
    2074: 00 00        	<unknown>
    2076: 10 00        	<unknown>
    2078: 5b 0a 00 00  	<unknown>
		...
    208c: 00 00        	<unknown>
    208e: 10 00        	<unknown>
    2090: de 0a        	<unknown>
		...
    20a6: 10 00        	<unknown>
    20a8: e7 0a 00 00  	jalr	s5, zero <.symtab>
		...
    20bc: 00 00        	<unknown>
    20be: 10 00        	<unknown>
    20c0: f0 0a        	<unknown>
		...
    20d6: 10 00        	<unknown>
    20d8: f8 0a        	<unknown>
		...
    20ee: 10 00        	<unknown>
    20f0: 82 09        	<unknown>
		...
    2106: 10 00        	<unknown>
    2108: 00 0b        	<unknown>
		...
    211e: 10 00        	<unknown>
    2120: 95 09        	<unknown>
		...
    2136: 10 00        	<unknown>
    2138: 08 0b        	<unknown>
		...
    214e: 10 00        	<unknown>
    2150: f2 0b        	<unknown>
		...
    2166: 10 00        	<unknown>
    2168: f1 0b        	<unknown>
		...
    217e: 10 00        	<unknown>
    2180: 0f 0b 00 00  	<unknown>
		...
    2194: 00 00        	<unknown>
    2196: 10 00        	<unknown>
    2198: 14 0b        	<unknown>
		...
    21ae: 10 00        	<unknown>
    21b0: 18 0b        	<unknown>
		...
    21c6: 10 00        	<unknown>
    21c8: 1e 0b        	<unknown>
		...
    21de: 10 00        	<unknown>
    21e0: 25 0b        	<unknown>
		...
    21f6: 10 00        	<unknown>
    21f8: 33 0b 00 00  	add	s6, zero, zero
		...
    220c: 00 00        	<unknown>
    220e: 10 00        	<unknown>
    2210: 38 0b        	<unknown>
		...
    2226: 10 00        	<unknown>
    2228: 3d 0b        	<unknown>
		...
    223e: 10 00        	<unknown>
    2240: 42 0b        	<unknown>
		...
    2256: 10 00        	<unknown>
    2258: 58 0b        	<unknown>
		...
    226e: 10 00        	<unknown>
    2270: 4a 0b        	<unknown>
		...
    2286: 10 00        	<unknown>
    2288: 5f 0b 00 00  	<unknown>
		...
    229c: 00 00        	<unknown>
    229e: 10 00        	<unknown>
    22a0: 6d 0b        	<unknown>
		...
    22b6: 10 00        	<unknown>
    22b8: 00 0c        	<unknown>
		...
    22ce: 10 00        	<unknown>
    22d0: 2e 0b        	<unknown>
		...
    22e6: 10 00        	<unknown>
    22e8: 74 0b        	<unknown>
		...
    22fe: 10 00        	<unknown>
    2300: 79 0b        	<unknown>
		...
    2316: 10 00        	<unknown>
    2318: ff 0b 00 00  	<unknown>
		...
    232c: 00 00        	<unknown>
    232e: 10 00        	<unknown>
    2330: 80 0b        	<unknown>
		...
    2346: 10 00        	<unknown>
    2348: 87 0b 00 00  	<unknown>
		...
    235c: 00 00        	<unknown>
    235e: 10 00        	<unknown>
    2360: 8d 0b        	<unknown>
		...
    2376: 10 00        	<unknown>
    2378: 96 0b        	<unknown>
		...
    238e: 10 00        	<unknown>
    2390: 9e 0b        	<unknown>
		...
    23a6: 10 00        	<unknown>
    23a8: a5 0b        	<unknown>
		...
    23be: 10 00        	<unknown>
    23c0: 28 0b        	<unknown>
		...
    23d6: 10 00        	<unknown>
    23d8: b4 0b        	<unknown>
		...
    23ee: 10 00        	<unknown>
    23f0: ab 0b 00 00  	vx_tex	s7, zero, zero, zero
		...
    2404: 00 00        	<unknown>
    2406: 10 00        	<unknown>
    2408: b3 0b 00 00  	add	s7, zero, zero
		...
    241c: 00 00        	<unknown>
    241e: 10 00        	<unknown>
    2420: b9 0b        	<unknown>
		...
    2436: 10 00        	<unknown>
    2438: c0 0b        	<unknown>
		...
    244e: 10 00        	<unknown>
    2450: c7 0b 00 00  	fmsub.s	fs7, ft0, ft0, ft0, rne
		...
    2464: 00 00        	<unknown>
    2466: 10 00        	<unknown>
    2468: cf 0b 00 00  	fnmadd.s	fs7, ft0, ft0, ft0, rne
		...
    247c: 00 00        	<unknown>
    247e: 10 00        	<unknown>
    2480: d6 0b        	<unknown>
		...
    2496: 10 00        	<unknown>
    2498: df 0b 00 00  	<unknown>
		...
    24ac: 00 00        	<unknown>
    24ae: 10 00        	<unknown>
    24b0: e6 0b        	<unknown>
		...
    24c6: 10 00        	<unknown>
    24c8: 2a 0c        	<unknown>
		...
    24de: 10 00        	<unknown>
    24e0: f0 0b        	<unknown>
		...
    24f6: 10 00        	<unknown>
    24f8: f8 0b        	<unknown>
		...
    250e: 10 00        	<unknown>
    2510: fe 0b        	<unknown>
		...
    2526: 10 00        	<unknown>
    2528: 04 0c        	<unknown>
		...
    253e: 10 00        	<unknown>
    2540: 0a 0c        	<unknown>
		...
    2556: 10 00        	<unknown>
    2558: 12 0c        	<unknown>
		...
    256e: 10 00        	<unknown>
    2570: 1b 0c 00 00  	sext.w	s8, zero
		...
    2584: 00 00        	<unknown>
    2586: 10 00        	<unknown>
    2588: 22 0c        	<unknown>
		...
    259e: 10 00        	<unknown>
    25a0: 49 0c        	<unknown>
		...
    25b6: 10 00        	<unknown>
    25b8: d3 04 00 00  	fadd.s	fs1, ft0, ft0, rne
		...
    25cc: 00 00        	<unknown>
    25ce: 10 00        	<unknown>
    25d0: 54 0c        	<unknown>
		...
    25e6: 10 00        	<unknown>
    25e8: 60 0c        	<unknown>
		...
    25fe: 10 00        	<unknown>
    2600: f3 04 00 00  	<unknown>
		...
    2614: 00 00        	<unknown>
    2616: 10 00        	<unknown>
    2618: 6b 0c 00 00  	<unknown>
		...
    262c: 00 00        	<unknown>
    262e: 10 00        	<unknown>
    2630: 77 0c 00 00  	<unknown>
		...
    2644: 00 00        	<unknown>
    2646: 10 00        	<unknown>
    2648: 84 0c        	<unknown>
		...
    265e: 10 00        	<unknown>
    2660: 8b 0c 00 00  	<unknown>
		...
    2674: 00 00        	<unknown>
    2676: 10 00        	<unknown>
    2678: 13 05 00 00  	li	a0, 0x0
		...
    268c: 00 00        	<unknown>
    268e: 10 00        	<unknown>
    2690: 96 0c        	<unknown>
		...
    26a6: 10 00        	<unknown>
    26a8: a2 0c        	<unknown>
		...
    26be: 10 00        	<unknown>
    26c0: ad 0c        	<unknown>
		...
    26d6: 10 00        	<unknown>
    26d8: 54 05        	<unknown>
		...
    26ee: 10 00        	<unknown>
    26f0: b8 0c        	<unknown>
		...
    2706: 10 00        	<unknown>
    2708: c8 0c        	<unknown>
		...
    271e: 10 00        	<unknown>
    2720: 7b 05 00 00  	<unknown>
		...
    2734: 00 00        	<unknown>
    2736: 10 00        	<unknown>
    2738: d2 0c        	<unknown>
		...
    274e: 10 00        	<unknown>
    2750: 84 05        	<unknown>
		...
    2766: 10 00        	<unknown>
    2768: dd 0c        	<unknown>
		...
    277e: 10 00        	<unknown>
    2780: e8 0c        	<unknown>
		...
    2796: 10 00        	<unknown>
    2798: f2 0c        	<unknown>
		...
    27ae: 10 00        	<unknown>
    27b0: fd 0c        	<unknown>
		...
    27c6: 10 00        	<unknown>
    27c8: a6 05        	<unknown>
		...
    27de: 10 00        	<unknown>
    27e0: 07 0d 00 00  	<unknown>
		...
    27f4: 00 00        	<unknown>
    27f6: 10 00        	<unknown>
    27f8: 13 0d 00 00  	li	s10, 0x0
		...
    280c: 00 00        	<unknown>
    280e: 10 00        	<unknown>
    2810: cf 05 00 00  	fnmadd.s	fa1, ft0, ft0, ft0, rne
		...
    2824: 00 00        	<unknown>
    2826: 10 00        	<unknown>
    2828: 1e 0d        	<unknown>
		...
    283e: 10 00        	<unknown>
    2840: 2a 0d        	<unknown>
		...
    2856: 10 00        	<unknown>
    2858: ee 05        	<unknown>
		...
    286e: 10 00        	<unknown>
    2870: 36 0d        	<unknown>
		...
    2886: 10 00        	<unknown>
    2888: 42 0d        	<unknown>
		...
    289e: 10 00        	<unknown>
    28a0: 4e 0d        	<unknown>
		...
    28b6: 10 00        	<unknown>
    28b8: 5a 0d        	<unknown>
		...
    28ce: 10 00        	<unknown>
    28d0: 66 0d        	<unknown>
		...
    28e6: 10 00        	<unknown>
    28e8: 6c 0d        	<unknown>
		...
    28fe: 10 00        	<unknown>
    2900: 7a 0d        	<unknown>
		...
    2916: 10 00        	<unknown>
    2918: 81 0d        	<unknown>
		...
    292e: 10 00        	<unknown>
    2930: 8e 0d        	<unknown>
		...
    2946: 10 00        	<unknown>
    2948: 9a 0d        	<unknown>
		...
    295e: 10 00        	<unknown>
    2960: a7 0d 00 00  	<unknown>
		...
    2974: 00 00        	<unknown>
    2976: 10 00        	<unknown>
    2978: ae 0d        	<unknown>
		...
    298e: 10 00        	<unknown>
    2990: bb 0d 00 00  	addw	s11, zero, zero
		...
    29a4: 00 00        	<unknown>
    29a6: 10 00        	<unknown>
    29a8: c8 0d        	<unknown>
		...
    29be: 10 00        	<unknown>
    29c0: d6 0d        	<unknown>
		...
    29d6: 10 00        	<unknown>
    29d8: f9 07        	<unknown>
		...
    29ee: 10 00        	<unknown>
    29f0: e2 0d        	<unknown>
		...
    2a06: 10 00        	<unknown>
    2a08: ee 0d        	<unknown>
		...
    2a1e: 10 00        	<unknown>
    2a20: f9 0d        	<unknown>
		...
    2a36: 10 00        	<unknown>
    2a38: 04 0e        	<unknown>
		...
    2a4e: 10 00        	<unknown>
    2a50: ec 07        	<unknown>
		...
    2a66: 10 00        	<unknown>
    2a68: 0e 0e        	<unknown>
		...
    2a7e: 10 00        	<unknown>
    2a80: 1a 0e        	<unknown>
		...
    2a96: 10 00        	<unknown>
    2a98: 27 0e 00 00  	<unknown>
		...
    2aac: 00 00        	<unknown>
    2aae: 10 00        	<unknown>
    2ab0: 2f 06 00 00  	<unknown>
		...
    2ac4: 00 00        	<unknown>
    2ac6: 10 00        	<unknown>
    2ac8: 34 0e        	<unknown>
		...
    2ade: 10 00        	<unknown>
    2ae0: 45 0e        	<unknown>
		...
    2af6: 10 00        	<unknown>
    2af8: 57 0e 00 00  	<unknown>
		...
    2b0c: 00 00        	<unknown>
    2b0e: 10 00        	<unknown>
    2b10: 62 0e        	<unknown>
		...
    2b26: 10 00        	<unknown>
    2b28: 67 0e 00 00  	jalr	t3, zero <.symtab>
		...
    2b3c: 00 00        	<unknown>
    2b3e: 10 00        	<unknown>
    2b40: 79 0e        	<unknown>
		...
    2b56: 10 00        	<unknown>
    2b58: 89 0e        	<unknown>
		...
    2b6e: 10 00        	<unknown>
    2b70: 94 0e        	<unknown>
		...
    2b86: 10 00        	<unknown>
    2b88: a0 0e        	<unknown>
		...
    2b9e: 10 00        	<unknown>
    2ba0: af 0e 00 00  	<unknown>
		...
    2bb4: 00 00        	<unknown>
    2bb6: 10 00        	<unknown>
    2bb8: bd 0e        	<unknown>
		...
    2bce: 10 00        	<unknown>
    2bd0: 4d 09        	<unknown>
		...
    2be6: 10 00        	<unknown>
    2be8: c7 0e 00 00  	fmsub.s	ft9, ft0, ft0, ft0, rne
		...
    2bfc: 00 00        	<unknown>
    2bfe: 10 00        	<unknown>
    2c00: 56 09        	<unknown>
		...
    2c16: 10 00        	<unknown>
    2c18: d2 0e        	<unknown>
		...
    2c2e: 10 00        	<unknown>
    2c30: 60 09        	<unknown>
		...
    2c46: 10 00        	<unknown>
    2c48: dd 0e        	<unknown>
		...
    2c5e: 10 00        	<unknown>
    2c60: 6f 09 00 00  	jal	s2, 0x2c60 <.symtab+0x2c60>
		...
    2c74: 00 00        	<unknown>
    2c76: 10 00        	<unknown>
    2c78: e7 0e 00 00  	jalr	t4, zero <.symtab>
		...
    2c8c: 00 00        	<unknown>
    2c8e: 10 00        	<unknown>
    2c90: 78 09        	<unknown>
		...
    2ca6: 10 00        	<unknown>
    2ca8: f2 0e        	<unknown>
		...
    2cbe: 10 00        	<unknown>
    2cc0: ff 0e 00 00  	<unknown>
		...
    2cd0: a6 00        	<unknown>
    2cd2: 00 00        	<unknown>
    2cd4: 00 00        	<unknown>
    2cd6: 10 00        	<unknown>
		...
    2ce8: ab 00 00 00  	vx_tex	ra, zero, zero, zero
    2cec: 00 00        	<unknown>
    2cee: 0a 00        	<unknown>
    2cf0: 67 00 00 00  	jr	zero <.symtab>
		...
    2d00: b0 00        	<unknown>
    2d02: 00 00        	<unknown>
    2d04: 00 00        	<unknown>
    2d06: 0a 00        	<unknown>
    2d08: 68 00        	<unknown>
		...
    2d16: 00 00        	<unknown>
    2d18: b5 00        	<unknown>
    2d1a: 00 00        	<unknown>
    2d1c: 00 00        	<unknown>
    2d1e: 0b 00 43 00  	<unknown>
		...
    2d36: 0f 00 00 00  	fence	0, 0
		...
    2d46: 00 00        	<unknown>
    2d48: bb 00 00 00  	addw	ra, zero, zero
    2d4c: 00 00        	<unknown>
    2d4e: 0f 00 00 00  	fence	0, 0
		...
    2d5e: 00 00        	<unknown>
    2d60: c1 00        	<unknown>
    2d62: 00 00        	<unknown>
    2d64: 00 00        	<unknown>
    2d66: 0e 00        	<unknown>
		...
    2d78: e9 00        	<unknown>
    2d7a: 00 00        	<unknown>
    2d7c: 04 00        	<unknown>
    2d7e: f1 ff        	<unknown>
		...
    2d90: 0e 00        	<unknown>
    2d92: 00 00        	<unknown>
    2d94: 00 00        	<unknown>
    2d96: 02 00        	<unknown>
    2d98: cc 09        	<unknown>
    2d9a: 00 80        	<unknown>
    2d9c: 01 00        	<unknown>
		...
    2da6: 00 00        	<unknown>
    2da8: 0e 00        	<unknown>
    2daa: 00 00        	<unknown>
    2dac: 00 00        	<unknown>
    2dae: 02 00        	<unknown>
    2db0: 14 0a        	<unknown>
    2db2: 00 80        	<unknown>
    2db4: 01 00        	<unknown>
		...
    2dbe: 00 00        	<unknown>
    2dc0: 0e 00        	<unknown>
    2dc2: 00 00        	<unknown>
    2dc4: 00 00        	<unknown>
    2dc6: 02 00        	<unknown>
    2dc8: a8 0a        	<unknown>
    2dca: 00 80        	<unknown>
    2dcc: 01 00        	<unknown>
		...
    2dd6: 00 00        	<unknown>
    2dd8: f7 00 00 00  	<unknown>
    2ddc: 04 00        	<unknown>
    2dde: f1 ff        	<unknown>
		...
    2df0: 0e 00        	<unknown>
    2df2: 00 00        	<unknown>
    2df4: 00 00        	<unknown>
    2df6: 02 00        	<unknown>
    2df8: 04 0b        	<unknown>
    2dfa: 00 80        	<unknown>
    2dfc: 01 00        	<unknown>
		...
    2e06: 00 00        	<unknown>
    2e08: 04 01        	<unknown>
    2e0a: 00 00        	<unknown>
    2e0c: 04 00        	<unknown>
    2e0e: f1 ff        	<unknown>
		...
    2e20: 0f 01 00 00  	<unknown>
    2e24: 02 00        	<unknown>
    2e26: 02 00        	<unknown>
    2e28: 1c 0b        	<unknown>
    2e2a: 00 80        	<unknown>
    2e2c: 01 00        	<unknown>
    2e2e: 00 00        	<unknown>
    2e30: 34 00        	<unknown>
    2e32: 00 00        	<unknown>
    2e34: 00 00        	<unknown>
    2e36: 00 00        	<unknown>
    2e38: 0e 00        	<unknown>
    2e3a: 00 00        	<unknown>
    2e3c: 00 00        	<unknown>
    2e3e: 02 00        	<unknown>
    2e40: 1c 0b        	<unknown>
    2e42: 00 80        	<unknown>
    2e44: 01 00        	<unknown>
		...
    2e4e: 00 00        	<unknown>
    2e50: 0e 00        	<unknown>
    2e52: 00 00        	<unknown>
    2e54: 00 00        	<unknown>
    2e56: 02 00        	<unknown>
    2e58: 50 0b        	<unknown>
    2e5a: 00 80        	<unknown>
    2e5c: 01 00        	<unknown>
		...
    2e66: 00 00        	<unknown>
    2e68: 1c 01        	<unknown>
    2e6a: 00 00        	<unknown>
    2e6c: 04 00        	<unknown>
    2e6e: f1 ff        	<unknown>
		...
    2e80: 27 01 00 00  	<unknown>
    2e84: 02 00        	<unknown>
    2e86: 02 00        	<unknown>
    2e88: b0 0b        	<unknown>
    2e8a: 00 80        	<unknown>
    2e8c: 01 00        	<unknown>
    2e8e: 00 00        	<unknown>
    2e90: 28 01        	<unknown>
    2e92: 00 00        	<unknown>
    2e94: 00 00        	<unknown>
    2e96: 00 00        	<unknown>
    2e98: 0e 00        	<unknown>
    2e9a: 00 00        	<unknown>
    2e9c: 00 00        	<unknown>
    2e9e: 02 00        	<unknown>
    2ea0: b0 0b        	<unknown>
    2ea2: 00 80        	<unknown>
    2ea4: 01 00        	<unknown>
		...
    2eae: 00 00        	<unknown>
    2eb0: 37 01 00 00  	lui	sp, 0x0
    2eb4: 02 00        	<unknown>
    2eb6: 02 00        	<unknown>
    2eb8: d8 0c        	<unknown>
    2eba: 00 80        	<unknown>
    2ebc: 01 00        	<unknown>
    2ebe: 00 00        	<unknown>
    2ec0: 64 00        	<unknown>
    2ec2: 00 00        	<unknown>
    2ec4: 00 00        	<unknown>
    2ec6: 00 00        	<unknown>
    2ec8: 0e 00        	<unknown>
    2eca: 00 00        	<unknown>
    2ecc: 00 00        	<unknown>
    2ece: 02 00        	<unknown>
    2ed0: d8 0c        	<unknown>
    2ed2: 00 80        	<unknown>
    2ed4: 01 00        	<unknown>
		...
    2ede: 00 00        	<unknown>
    2ee0: 51 01        	<unknown>
    2ee2: 00 00        	<unknown>
    2ee4: 02 00        	<unknown>
    2ee6: 02 00        	<unknown>
    2ee8: 3c 0d        	<unknown>
    2eea: 00 80        	<unknown>
    2eec: 01 00        	<unknown>
    2eee: 00 00        	<unknown>
    2ef0: 24 00        	<unknown>
    2ef2: 00 00        	<unknown>
    2ef4: 00 00        	<unknown>
    2ef6: 00 00        	<unknown>
    2ef8: 0e 00        	<unknown>
    2efa: 00 00        	<unknown>
    2efc: 00 00        	<unknown>
    2efe: 02 00        	<unknown>
    2f00: 3c 0d        	<unknown>
    2f02: 00 80        	<unknown>
    2f04: 01 00        	<unknown>
		...
    2f0e: 00 00        	<unknown>
    2f10: 66 01        	<unknown>
    2f12: 00 00        	<unknown>
    2f14: 02 00        	<unknown>
    2f16: 02 00        	<unknown>
    2f18: 60 0d        	<unknown>
    2f1a: 00 80        	<unknown>
    2f1c: 01 00        	<unknown>
    2f1e: 00 00        	<unknown>
    2f20: 70 01        	<unknown>
    2f22: 00 00        	<unknown>
    2f24: 00 00        	<unknown>
    2f26: 00 00        	<unknown>
    2f28: 0e 00        	<unknown>
    2f2a: 00 00        	<unknown>
    2f2c: 00 00        	<unknown>
    2f2e: 02 00        	<unknown>
    2f30: 60 0d        	<unknown>
    2f32: 00 80        	<unknown>
    2f34: 01 00        	<unknown>
		...
    2f3e: 00 00        	<unknown>
    2f40: 7c 01        	<unknown>
    2f42: 00 00        	<unknown>
    2f44: 02 00        	<unknown>
    2f46: 02 00        	<unknown>
    2f48: d0 0e        	<unknown>
    2f4a: 00 80        	<unknown>
    2f4c: 01 00        	<unknown>
    2f4e: 00 00        	<unknown>
    2f50: 50 00        	<unknown>
    2f52: 00 00        	<unknown>
    2f54: 00 00        	<unknown>
    2f56: 00 00        	<unknown>
    2f58: 0e 00        	<unknown>
    2f5a: 00 00        	<unknown>
    2f5c: 00 00        	<unknown>
    2f5e: 02 00        	<unknown>
    2f60: d0 0e        	<unknown>
    2f62: 00 80        	<unknown>
    2f64: 01 00        	<unknown>
		...
    2f6e: 00 00        	<unknown>
    2f70: 0e 00        	<unknown>
    2f72: 00 00        	<unknown>
    2f74: 00 00        	<unknown>
    2f76: 02 00        	<unknown>
    2f78: 20 0f        	<unknown>
    2f7a: 00 80        	<unknown>
    2f7c: 01 00        	<unknown>
		...
    2f86: 00 00        	<unknown>
    2f88: 97 01 00 00  	auipc	gp, 0x0
    2f8c: 04 00        	<unknown>
    2f8e: f1 ff        	<unknown>
		...
    2fa0: 0e 00        	<unknown>
    2fa2: 00 00        	<unknown>
    2fa4: 00 00        	<unknown>
    2fa6: 02 00        	<unknown>
    2fa8: b4 13        	<unknown>
    2faa: 00 80        	<unknown>
    2fac: 01 00        	<unknown>
		...
    2fb6: 00 00        	<unknown>
    2fb8: a5 01        	<unknown>
    2fba: 00 00        	<unknown>
    2fbc: 00 00        	<unknown>
    2fbe: 02 00        	<unknown>
    2fc0: e8 13        	<unknown>
    2fc2: 00 80        	<unknown>
    2fc4: 01 00        	<unknown>
		...
    2fce: 00 00        	<unknown>
    2fd0: b0 01        	<unknown>
    2fd2: 00 00        	<unknown>
    2fd4: 00 00        	<unknown>
    2fd6: 02 00        	<unknown>
    2fd8: 00 14        	<unknown>
    2fda: 00 80        	<unknown>
    2fdc: 01 00        	<unknown>
		...
    2fe6: 00 00        	<unknown>
    2fe8: bb 01 00 00  	addw	gp, zero, zero
    2fec: 04 00        	<unknown>
    2fee: f1 ff        	<unknown>
		...
    3000: 0e 00        	<unknown>
    3002: 00 00        	<unknown>
    3004: 00 00        	<unknown>
    3006: 02 00        	<unknown>
    3008: 30 14        	<unknown>
    300a: 00 80        	<unknown>
    300c: 01 00        	<unknown>
		...
    3016: 00 00        	<unknown>
    3018: c5 01        	<unknown>
    301a: 00 00        	<unknown>
    301c: 04 00        	<unknown>
    301e: f1 ff        	<unknown>
		...
    3030: d2 01        	<unknown>
    3032: 00 00        	<unknown>
    3034: 02 00        	<unknown>
    3036: 02 00        	<unknown>
    3038: 3c 15        	<unknown>
    303a: 00 80        	<unknown>
    303c: 01 00        	<unknown>
    303e: 00 00        	<unknown>
    3040: 04 00        	<unknown>
    3042: 00 00        	<unknown>
    3044: 00 00        	<unknown>
    3046: 00 00        	<unknown>
    3048: 0e 00        	<unknown>
    304a: 00 00        	<unknown>
    304c: 00 00        	<unknown>
    304e: 02 00        	<unknown>
    3050: 3c 15        	<unknown>
    3052: 00 80        	<unknown>
    3054: 01 00        	<unknown>
		...
    305e: 00 00        	<unknown>
    3060: dc 01        	<unknown>
    3062: 00 00        	<unknown>
    3064: 02 00        	<unknown>
    3066: 02 00        	<unknown>
    3068: 40 15        	<unknown>
    306a: 00 80        	<unknown>
    306c: 01 00        	<unknown>
    306e: 00 00        	<unknown>
    3070: 3c 01        	<unknown>
    3072: 00 00        	<unknown>
    3074: 00 00        	<unknown>
    3076: 00 00        	<unknown>
    3078: 0e 00        	<unknown>
    307a: 00 00        	<unknown>
    307c: 00 00        	<unknown>
    307e: 02 00        	<unknown>
    3080: 40 15        	<unknown>
    3082: 00 80        	<unknown>
    3084: 01 00        	<unknown>
		...
    308e: 00 00        	<unknown>
    3090: e5 01        	<unknown>
    3092: 00 00        	<unknown>
    3094: 02 00        	<unknown>
    3096: 02 00        	<unknown>
    3098: 7c 16        	<unknown>
    309a: 00 80        	<unknown>
    309c: 01 00        	<unknown>
    309e: 00 00        	<unknown>
    30a0: 0c 04        	<unknown>
    30a2: 00 00        	<unknown>
    30a4: 00 00        	<unknown>
    30a6: 00 00        	<unknown>
    30a8: 0e 00        	<unknown>
    30aa: 00 00        	<unknown>
    30ac: 00 00        	<unknown>
    30ae: 02 00        	<unknown>
    30b0: 7c 16        	<unknown>
    30b2: 00 80        	<unknown>
    30b4: 01 00        	<unknown>
		...
    30be: 00 00        	<unknown>
    30c0: f0 01        	<unknown>
    30c2: 00 00        	<unknown>
    30c4: 02 00        	<unknown>
    30c6: 02 00        	<unknown>
    30c8: 7c 16        	<unknown>
    30ca: 00 80        	<unknown>
    30cc: 01 00        	<unknown>
    30ce: 00 00        	<unknown>
    30d0: 0c 04        	<unknown>
    30d2: 00 00        	<unknown>
    30d4: 00 00        	<unknown>
    30d6: 00 00        	<unknown>
    30d8: 00 02        	<unknown>
    30da: 00 00        	<unknown>
    30dc: 02 00        	<unknown>
    30de: 02 00        	<unknown>
    30e0: 88 1a        	<unknown>
    30e2: 00 80        	<unknown>
    30e4: 01 00        	<unknown>
    30e6: 00 00        	<unknown>
    30e8: 0c 00        	<unknown>
    30ea: 00 00        	<unknown>
    30ec: 00 00        	<unknown>
    30ee: 00 00        	<unknown>
    30f0: 0e 00        	<unknown>
    30f2: 00 00        	<unknown>
    30f4: 00 00        	<unknown>
    30f6: 02 00        	<unknown>
    30f8: 88 1a        	<unknown>
    30fa: 00 80        	<unknown>
    30fc: 01 00        	<unknown>
		...
    3106: 00 00        	<unknown>
    3108: 0a 02        	<unknown>
    310a: 00 00        	<unknown>
    310c: 02 00        	<unknown>
    310e: 02 00        	<unknown>
    3110: 94 1a        	<unknown>
    3112: 00 80        	<unknown>
    3114: 01 00        	<unknown>
    3116: 00 00        	<unknown>
    3118: 50 04        	<unknown>
    311a: 00 00        	<unknown>
    311c: 00 00        	<unknown>
    311e: 00 00        	<unknown>
    3120: 0e 00        	<unknown>
    3122: 00 00        	<unknown>
    3124: 00 00        	<unknown>
    3126: 02 00        	<unknown>
    3128: 94 1a        	<unknown>
    312a: 00 80        	<unknown>
    312c: 01 00        	<unknown>
		...
    3136: 00 00        	<unknown>
    3138: 10 02        	<unknown>
    313a: 00 00        	<unknown>
    313c: 02 00        	<unknown>
    313e: 02 00        	<unknown>
    3140: e4 1e        	<unknown>
    3142: 00 80        	<unknown>
    3144: 01 00        	<unknown>
    3146: 00 00        	<unknown>
    3148: a0 03        	<unknown>
    314a: 00 00        	<unknown>
    314c: 00 00        	<unknown>
    314e: 00 00        	<unknown>
    3150: 16 02        	<unknown>
    3152: 00 00        	<unknown>
    3154: 01 00        	<unknown>
    3156: 03 00 80 36  	lb	zero, 0x368(zero)
    315a: 00 80        	<unknown>
    315c: 01 00        	<unknown>
    315e: 00 00        	<unknown>
    3160: 50 00        	<unknown>
    3162: 00 00        	<unknown>
    3164: 00 00        	<unknown>
    3166: 00 00        	<unknown>
    3168: 0e 00        	<unknown>
    316a: 00 00        	<unknown>
    316c: 00 00        	<unknown>
    316e: 02 00        	<unknown>
    3170: e4 1e        	<unknown>
    3172: 00 80        	<unknown>
    3174: 01 00        	<unknown>
		...
    317e: 00 00        	<unknown>
    3180: 1e 02        	<unknown>
    3182: 00 00        	<unknown>
    3184: 02 00        	<unknown>
    3186: 02 00        	<unknown>
    3188: 84 22        	<unknown>
    318a: 00 80        	<unknown>
    318c: 01 00        	<unknown>
    318e: 00 00        	<unknown>
    3190: 2c 0a        	<unknown>
    3192: 00 00        	<unknown>
    3194: 00 00        	<unknown>
    3196: 00 00        	<unknown>
    3198: 0e 00        	<unknown>
    319a: 00 00        	<unknown>
    319c: 00 00        	<unknown>
    319e: 02 00        	<unknown>
    31a0: 84 22        	<unknown>
    31a2: 00 80        	<unknown>
    31a4: 01 00        	<unknown>
		...
    31ae: 00 00        	<unknown>
    31b0: 0e 00        	<unknown>
    31b2: 00 00        	<unknown>
    31b4: 00 00        	<unknown>
    31b6: 02 00        	<unknown>
    31b8: b0 2c        	<unknown>
    31ba: 00 80        	<unknown>
    31bc: 01 00        	<unknown>
		...
    31c6: 00 00        	<unknown>
    31c8: 29 02        	<unknown>
    31ca: 00 00        	<unknown>
    31cc: 04 00        	<unknown>
    31ce: f1 ff        	<unknown>
		...
    31e0: 6b 00 00 00  	<unknown>
    31e4: 00 00        	<unknown>
    31e6: 02 00        	<unknown>
    31e8: 48 2d        	<unknown>
    31ea: 00 80        	<unknown>
    31ec: 01 00        	<unknown>
		...
    31f6: 00 00        	<unknown>
    31f8: 32 02        	<unknown>
    31fa: 00 00        	<unknown>
    31fc: 00 00        	<unknown>
    31fe: 0a 00        	<unknown>
    3200: 67 00 00 00  	jr	zero <.symtab>
		...
    3210: e4 00        	<unknown>
    3212: 00 00        	<unknown>
    3214: 00 00        	<unknown>
    3216: 0b 00 24 03  	<unknown>
		...
    3226: 00 00        	<unknown>
    3228: 37 02 00 00  	lui	tp, 0x0
    322c: 04 00        	<unknown>
    322e: f1 ff        	<unknown>
		...
    3240: 6b 00 00 00  	<unknown>
    3244: 00 00        	<unknown>
    3246: 02 00        	<unknown>
    3248: 94 32        	<unknown>
    324a: 00 80        	<unknown>
    324c: 01 00        	<unknown>
		...
    3256: 00 00        	<unknown>
    3258: 32 02        	<unknown>
    325a: 00 00        	<unknown>
    325c: 00 00        	<unknown>
    325e: 0a 00        	<unknown>
    3260: 67 00 00 00  	jr	zero <.symtab>
		...
    3270: e4 00        	<unknown>
    3272: 00 00        	<unknown>
    3274: 00 00        	<unknown>
    3276: 0b 00 67 03  	<unknown>
		...
    3286: 00 00        	<unknown>
    3288: 40 02        	<unknown>
    328a: 00 00        	<unknown>
    328c: 04 00        	<unknown>
    328e: f1 ff        	<unknown>
		...
    32a0: 53 02 00 00  	fadd.s	ft4, ft0, ft0, rne
    32a4: 00 00        	<unknown>
    32a6: 0a 00        	<unknown>
    32a8: 67 00 00 00  	jr	zero <.symtab>
		...
    32b8: 59 02        	<unknown>
    32ba: 00 00        	<unknown>
    32bc: 00 00        	<unknown>
    32be: 0b 00 86 00  	<unknown>
		...
    32ce: 00 00        	<unknown>
    32d0: 5f 02 00 00  	<unknown>
    32d4: 00 00        	<unknown>
    32d6: 04 00        	<unknown>
    32d8: 30 37        	<unknown>
    32da: 00 80        	<unknown>
    32dc: 01 00        	<unknown>
		...
    32ea: 00 00        	<unknown>
    32ec: 04 00        	<unknown>
    32ee: f1 ff        	<unknown>
		...
    3300: 65 02        	<unknown>
    3302: 00 00        	<unknown>
    3304: 00 00        	<unknown>
    3306: 05 00        	<unknown>
    3308: 30 47        	<unknown>
    330a: 00 80        	<unknown>
    330c: 01 00        	<unknown>
		...
    3316: 00 00        	<unknown>
    3318: 76 02        	<unknown>
    331a: 00 00        	<unknown>
    331c: 00 00        	<unknown>
    331e: 05 00        	<unknown>
    3320: 30 47        	<unknown>
    3322: 00 80        	<unknown>
    3324: 01 00        	<unknown>
		...
    332e: 00 00        	<unknown>
    3330: 83 02 00 00  	lb	t0, 0x0(zero)
    3334: 00 00        	<unknown>
    3336: 05 00        	<unknown>
    3338: 30 47        	<unknown>
    333a: 00 80        	<unknown>
    333c: 01 00        	<unknown>
		...
    3346: 00 00        	<unknown>
    3348: 96 02        	<unknown>
    334a: 00 00        	<unknown>
    334c: 00 00        	<unknown>
    334e: 04 00        	<unknown>
    3350: 30 47        	<unknown>
    3352: 00 80        	<unknown>
    3354: 01 00        	<unknown>
		...
    335e: 00 00        	<unknown>
    3360: a4 02        	<unknown>
    3362: 00 00        	<unknown>
    3364: 00 00        	<unknown>
    3366: 05 00        	<unknown>
    3368: 30 47        	<unknown>
    336a: 00 80        	<unknown>
    336c: 01 00        	<unknown>
		...
    3376: 00 00        	<unknown>
    3378: b5 02        	<unknown>
    337a: 00 00        	<unknown>
    337c: 00 00        	<unknown>
    337e: f1 ff        	<unknown>
		...
    3390: c3 02 00 00  	fmadd.s	ft5, ft0, ft0, ft0, rne
    3394: 00 00        	<unknown>
    3396: 05 00        	<unknown>
    3398: 30 47        	<unknown>
    339a: 00 80        	<unknown>
    339c: 01 00        	<unknown>
		...
    33a6: 00 00        	<unknown>
    33a8: d7 02 00 00  	<unknown>
    33ac: 01 00        	<unknown>
    33ae: 06 00        	<unknown>
    33b0: 40 47        	<unknown>
    33b2: 00 80        	<unknown>
    33b4: 01 00        	<unknown>
		...
    33be: 00 00        	<unknown>
    33c0: ed 02        	<unknown>
    33c2: 00 00        	<unknown>
    33c4: 00 00        	<unknown>
    33c6: 05 00        	<unknown>
    33c8: 30 47        	<unknown>
    33ca: 00 80        	<unknown>
    33cc: 01 00        	<unknown>
		...
    33d6: 00 00        	<unknown>
    33d8: 00 03        	<unknown>
    33da: 00 00        	<unknown>
    33dc: 00 00        	<unknown>
    33de: 05 00        	<unknown>
    33e0: 30 47        	<unknown>
    33e2: 00 80        	<unknown>
    33e4: 01 00        	<unknown>
		...
    33ee: 00 00        	<unknown>
    33f0: 16 03        	<unknown>
    33f2: 00 00        	<unknown>
    33f4: 16 00        	<unknown>
    33f6: 05 00        	<unknown>
    33f8: 28 0c        	<unknown>
    33fa: 00 00        	<unknown>
    33fc: 00 00        	<unknown>
    33fe: 00 00        	<unknown>
    3400: 0c 00        	<unknown>
    3402: 00 00        	<unknown>
    3404: 00 00        	<unknown>
    3406: 00 00        	<unknown>
    3408: 20 03        	<unknown>
    340a: 00 00        	<unknown>
    340c: 11 00        	<unknown>
    340e: 08 00        	<unknown>
    3410: 18 48        	<unknown>
    3412: 00 80        	<unknown>
    3414: 01 00        	<unknown>
    3416: 00 00        	<unknown>
    3418: 04 00        	<unknown>
    341a: 00 00        	<unknown>
    341c: 00 00        	<unknown>
    341e: 00 00        	<unknown>
    3420: 2c 03        	<unknown>
    3422: 00 00        	<unknown>
    3424: 16 00        	<unknown>
    3426: 05 00        	<unknown>
		...
    3430: 04 00        	<unknown>
    3432: 00 00        	<unknown>
    3434: 00 00        	<unknown>
    3436: 00 00        	<unknown>
    3438: 3a 03        	<unknown>
    343a: 00 00        	<unknown>
    343c: 16 00        	<unknown>
    343e: 05 00        	<unknown>
    3440: 10 00        	<unknown>
    3442: 00 00        	<unknown>
    3444: 00 00        	<unknown>
    3446: 00 00        	<unknown>
    3448: 04 00        	<unknown>
    344a: 00 00        	<unknown>
    344c: 00 00        	<unknown>
    344e: 00 00        	<unknown>
    3450: 46 03        	<unknown>
    3452: 00 00        	<unknown>
    3454: 16 00        	<unknown>
    3456: 05 00        	<unknown>
    3458: 38 0c        	<unknown>
    345a: 00 00        	<unknown>
    345c: 00 00        	<unknown>
    345e: 00 00        	<unknown>
    3460: 0c 00        	<unknown>
    3462: 00 00        	<unknown>
    3464: 00 00        	<unknown>
    3466: 00 00        	<unknown>
    3468: 4f 03 00 00  	fnmadd.s	ft6, ft0, ft0, ft0, rne
    346c: 16 00        	<unknown>
    346e: 05 00        	<unknown>
    3470: 20 00        	<unknown>
    3472: 00 00        	<unknown>
    3474: 00 00        	<unknown>
    3476: 00 00        	<unknown>
    3478: 00 04        	<unknown>
    347a: 00 00        	<unknown>
    347c: 00 00        	<unknown>
    347e: 00 00        	<unknown>
    3480: 92 03        	<unknown>
    3482: 00 00        	<unknown>
    3484: 10 00        	<unknown>
    3486: 07 00 68 47  	<unknown>
    348a: 00 80        	<unknown>
    348c: 01 00        	<unknown>
		...
    3496: 00 00        	<unknown>
    3498: a2 03        	<unknown>
    349a: 00 00        	<unknown>
    349c: 12 00        	<unknown>
    349e: 02 00        	<unknown>
    34a0: 48 2d        	<unknown>
    34a2: 00 80        	<unknown>
    34a4: 01 00        	<unknown>
    34a6: 00 00        	<unknown>
    34a8: 4c 05        	<unknown>
    34aa: 00 00        	<unknown>
    34ac: 00 00        	<unknown>
    34ae: 00 00        	<unknown>
    34b0: a9 03        	<unknown>
    34b2: 00 00        	<unknown>
    34b4: 10 00        	<unknown>
    34b6: f1 ff        	<unknown>
    34b8: 30 4f        	<unknown>
    34ba: 00 80        	<unknown>
    34bc: 01 00        	<unknown>
		...
    34c6: 00 00        	<unknown>
    34c8: ba 03        	<unknown>
    34ca: 00 00        	<unknown>
    34cc: 12 00        	<unknown>
    34ce: 02 00        	<unknown>
    34d0: 20 0f        	<unknown>
    34d2: 00 80        	<unknown>
    34d4: 01 00        	<unknown>
    34d6: 00 00        	<unknown>
    34d8: 94 04        	<unknown>
    34da: 00 00        	<unknown>
    34dc: 00 00        	<unknown>
    34de: 00 00        	<unknown>
    34e0: cb 03 00 00  	fnmsub.s	ft7, ft0, ft0, ft0, rne
    34e4: 16 00        	<unknown>
    34e6: 05 00        	<unknown>
    34e8: 20 04        	<unknown>
    34ea: 00 00        	<unknown>
    34ec: 00 00        	<unknown>
    34ee: 00 00        	<unknown>
    34f0: 00 04        	<unknown>
    34f2: 00 00        	<unknown>
    34f4: 00 00        	<unknown>
    34f6: 00 00        	<unknown>
    34f8: 0f 04 00 00  	<unknown>
    34fc: 16 00        	<unknown>
    34fe: 05 00        	<unknown>
    3500: 0c 00        	<unknown>
    3502: 00 00        	<unknown>
    3504: 00 00        	<unknown>
    3506: 00 00        	<unknown>
    3508: 04 00        	<unknown>
    350a: 00 00        	<unknown>
    350c: 00 00        	<unknown>
    350e: 00 00        	<unknown>
    3510: 1b 04 00 00  	sext.w	s0, zero
    3514: 11 00        	<unknown>
    3516: 08 00        	<unknown>
    3518: 1c 48        	<unknown>
    351a: 00 80        	<unknown>
    351c: 01 00        	<unknown>
    351e: 00 00        	<unknown>
    3520: 04 00        	<unknown>
    3522: 00 00        	<unknown>
    3524: 00 00        	<unknown>
    3526: 00 00        	<unknown>
    3528: 28 04        	<unknown>
    352a: 00 00        	<unknown>
    352c: 12 00        	<unknown>
    352e: 02 00        	<unknown>
    3530: 14 0a        	<unknown>
    3532: 00 80        	<unknown>
    3534: 01 00        	<unknown>
    3536: 00 00        	<unknown>
    3538: 94 00        	<unknown>
    353a: 00 00        	<unknown>
    353c: 00 00        	<unknown>
    353e: 00 00        	<unknown>
    3540: 3a 04        	<unknown>
    3542: 00 00        	<unknown>
    3544: 12 00        	<unknown>
    3546: 02 00        	<unknown>
    3548: 48 09        	<unknown>
    354a: 00 80        	<unknown>
    354c: 01 00        	<unknown>
		...
    3556: 00 00        	<unknown>
    3558: 40 04        	<unknown>
    355a: 00 00        	<unknown>
    355c: 12 00        	<unknown>
    355e: 02 00        	<unknown>
    3560: cc 09        	<unknown>
    3562: 00 80        	<unknown>
    3564: 01 00        	<unknown>
    3566: 00 00        	<unknown>
    3568: 48 00        	<unknown>
    356a: 00 00        	<unknown>
    356c: 00 00        	<unknown>
    356e: 00 00        	<unknown>
    3570: 4b 04 00 00  	fnmsub.s	fs0, ft0, ft0, ft0, rne
    3574: 11 00        	<unknown>
    3576: 09 00        	<unknown>
    3578: 38 48        	<unknown>
    357a: 00 80        	<unknown>
    357c: 01 00        	<unknown>
    357e: 00 00        	<unknown>
    3580: 0c 00        	<unknown>
    3582: 00 00        	<unknown>
    3584: 00 00        	<unknown>
    3586: 00 00        	<unknown>
    3588: 54 04        	<unknown>
    358a: 00 00        	<unknown>
    358c: 11 00        	<unknown>
    358e: 07 00 08 48  	<unknown>
    3592: 00 80        	<unknown>
    3594: 01 00        	<unknown>
    3596: 00 00        	<unknown>
    3598: 08 00        	<unknown>
    359a: 00 00        	<unknown>
    359c: 00 00        	<unknown>
    359e: 00 00        	<unknown>
    35a0: 5e 04        	<unknown>
    35a2: 00 00        	<unknown>
    35a4: 12 00        	<unknown>
    35a6: 02 00        	<unknown>
    35a8: b4 13        	<unknown>
    35aa: 00 80        	<unknown>
    35ac: 01 00        	<unknown>
		...
    35b6: 00 00        	<unknown>
    35b8: 68 04        	<unknown>
    35ba: 00 00        	<unknown>
    35bc: 11 00        	<unknown>
    35be: 08 00        	<unknown>
    35c0: 30 48        	<unknown>
    35c2: 00 80        	<unknown>
    35c4: 01 00        	<unknown>
    35c6: 00 00        	<unknown>
    35c8: 04 00        	<unknown>
    35ca: 00 00        	<unknown>
    35cc: 00 00        	<unknown>
    35ce: 00 00        	<unknown>
    35d0: 7a 04        	<unknown>
    35d2: 00 00        	<unknown>
    35d4: 11 00        	<unknown>
    35d6: 08 00        	<unknown>
    35d8: 20 48        	<unknown>
    35da: 00 80        	<unknown>
    35dc: 01 00        	<unknown>
    35de: 00 00        	<unknown>
    35e0: 04 00        	<unknown>
    35e2: 00 00        	<unknown>
    35e4: 00 00        	<unknown>
    35e6: 00 00        	<unknown>
    35e8: 87 04 00 00  	<unknown>
    35ec: 12 00        	<unknown>
    35ee: 02 00        	<unknown>
    35f0: 50 0b        	<unknown>
    35f2: 00 80        	<unknown>
    35f4: 01 00        	<unknown>
    35f6: 00 00        	<unknown>
    35f8: 60 00        	<unknown>
    35fa: 00 00        	<unknown>
    35fc: 00 00        	<unknown>
    35fe: 00 00        	<unknown>
    3600: 91 04        	<unknown>
    3602: 00 00        	<unknown>
    3604: 12 02        	<unknown>
    3606: 02 00        	<unknown>
    3608: a8 0a        	<unknown>
    360a: 00 80        	<unknown>
    360c: 01 00        	<unknown>
    360e: 00 00        	<unknown>
    3610: 5c 00        	<unknown>
    3612: 00 00        	<unknown>
    3614: 00 00        	<unknown>
    3616: 00 00        	<unknown>
    3618: a1 04        	<unknown>
    361a: 00 00        	<unknown>
    361c: 10 00        	<unknown>
    361e: f1 ff        	<unknown>
		...
    3630: ae 04        	<unknown>
    3632: 00 00        	<unknown>
    3634: 10 00        	<unknown>
    3636: f1 ff        	<unknown>
    3638: 48 0c        	<unknown>
		...
    3646: 00 00        	<unknown>
    3648: ba 04        	<unknown>
    364a: 00 00        	<unknown>
    364c: 16 00        	<unknown>
    364e: 05 00        	<unknown>
    3650: 20 08        	<unknown>
    3652: 00 00        	<unknown>
    3654: 00 00        	<unknown>
    3656: 00 00        	<unknown>
    3658: 00 04        	<unknown>
    365a: 00 00        	<unknown>
    365c: 00 00        	<unknown>
    365e: 00 00        	<unknown>
    3660: f6 04        	<unknown>
    3662: 00 00        	<unknown>
    3664: 22 00        	<unknown>
    3666: 02 00        	<unknown>
    3668: 94 00        	<unknown>
    366a: 00 80        	<unknown>
    366c: 01 00        	<unknown>
    366e: 00 00        	<unknown>
    3670: 08 00        	<unknown>
    3672: 00 00        	<unknown>
    3674: 00 00        	<unknown>
    3676: 00 00        	<unknown>
    3678: 9d 02        	<unknown>
    367a: 00 00        	<unknown>
    367c: 12 00        	<unknown>
    367e: 01 00        	<unknown>
    3680: 00 00        	<unknown>
    3682: 00 80        	<unknown>
    3684: 01 00        	<unknown>
    3686: 00 00        	<unknown>
    3688: 70 00        	<unknown>
    368a: 00 00        	<unknown>
    368c: 00 00        	<unknown>
    368e: 00 00        	<unknown>
    3690: 01 05        	<unknown>
    3692: 00 00        	<unknown>
    3694: 11 00        	<unknown>
    3696: 09 00        	<unknown>
    3698: 48 48        	<unknown>
    369a: 00 80        	<unknown>
    369c: 01 00        	<unknown>
    369e: 00 00        	<unknown>
    36a0: 0c 00        	<unknown>
    36a2: 00 00        	<unknown>
    36a4: 00 00        	<unknown>
    36a6: 00 00        	<unknown>
    36a8: 09 05        	<unknown>
    36aa: 00 00        	<unknown>
    36ac: 10 00        	<unknown>
    36ae: 09 00        	<unknown>
    36b0: 58 48        	<unknown>
    36b2: 00 80        	<unknown>
    36b4: 01 00        	<unknown>
		...
    36be: 00 00        	<unknown>
    36c0: 15 05        	<unknown>
    36c2: 00 00        	<unknown>
    36c4: 11 00        	<unknown>
    36c6: 08 00        	<unknown>
    36c8: 10 48        	<unknown>
    36ca: 00 80        	<unknown>
    36cc: 01 00        	<unknown>
    36ce: 00 00        	<unknown>
    36d0: 04 00        	<unknown>
    36d2: 00 00        	<unknown>
    36d4: 00 00        	<unknown>
    36d6: 00 00        	<unknown>
    36d8: 21 05        	<unknown>
    36da: 00 00        	<unknown>
    36dc: 10 00        	<unknown>
    36de: 08 00        	<unknown>
    36e0: 10 48        	<unknown>
    36e2: 00 80        	<unknown>
    36e4: 01 00        	<unknown>
		...
    36ee: 00 00        	<unknown>
    36f0: 2d 05        	<unknown>
    36f2: 00 00        	<unknown>
    36f4: 12 00        	<unknown>
    36f6: 02 00        	<unknown>
    36f8: 94 32        	<unknown>
    36fa: 00 80        	<unknown>
    36fc: 01 00        	<unknown>
    36fe: 00 00        	<unknown>
    3700: bc 01        	<unknown>
    3702: 00 00        	<unknown>
    3704: 00 00        	<unknown>
    3706: 00 00        	<unknown>
    3708: 34 05        	<unknown>
    370a: 00 00        	<unknown>
    370c: 12 00        	<unknown>
    370e: 02 00        	<unknown>
    3710: e8 00        	<unknown>
    3712: 00 80        	<unknown>
    3714: 01 00        	<unknown>
    3716: 00 00        	<unknown>
    3718: 20 01        	<unknown>
    371a: 00 00        	<unknown>
    371c: 00 00        	<unknown>
    371e: 00 00        	<unknown>
    3720: 39 05        	<unknown>
    3722: 00 00        	<unknown>
    3724: 22 00        	<unknown>
    3726: 02 00        	<unknown>
    3728: e0 2c        	<unknown>
    372a: 00 80        	<unknown>
    372c: 01 00        	<unknown>
    372e: 00 00        	<unknown>
    3730: 04 00        	<unknown>
    3732: 00 00        	<unknown>
    3734: 00 00        	<unknown>
    3736: 00 00        	<unknown>
    3738: 46 05        	<unknown>
    373a: 00 00        	<unknown>
    373c: 16 00        	<unknown>
    373e: 05 00        	<unknown>
    3740: 14 00        	<unknown>
    3742: 00 00        	<unknown>
    3744: 00 00        	<unknown>
    3746: 00 00        	<unknown>
    3748: 04 00        	<unknown>
    374a: 00 00        	<unknown>
    374c: 00 00        	<unknown>
    374e: 00 00        	<unknown>
    3750: 52 05        	<unknown>
    3752: 00 00        	<unknown>
    3754: 16 00        	<unknown>
    3756: 05 00        	<unknown>
    3758: 20 0c        	<unknown>
    375a: 00 00        	<unknown>
    375c: 00 00        	<unknown>
    375e: 00 00        	<unknown>
    3760: 04 00        	<unknown>
    3762: 00 00        	<unknown>
    3764: 00 00        	<unknown>
    3766: 00 00        	<unknown>
    3768: 0b 06 00 00  	<unknown>
    376c: 22 00        	<unknown>
    376e: 02 00        	<unknown>
    3770: e0 2c        	<unknown>
    3772: 00 80        	<unknown>
    3774: 01 00        	<unknown>
    3776: 00 00        	<unknown>
    3778: 04 00        	<unknown>
    377a: 00 00        	<unknown>
    377c: 00 00        	<unknown>
    377e: 00 00        	<unknown>
    3780: 63 05 00 00  	beqz	zero, 0x378a <.symtab+0x378a>
    3784: 12 00        	<unknown>
    3786: 02 00        	<unknown>
    3788: 08 02        	<unknown>
    378a: 00 80        	<unknown>
    378c: 01 00        	<unknown>
    378e: 00 00        	<unknown>
    3790: 08 07        	<unknown>
    3792: 00 00        	<unknown>
    3794: 00 00        	<unknown>
    3796: 00 00        	<unknown>
    3798: 87 05 00 00  	<unknown>
    379c: 11 00        	<unknown>
    379e: 08 00        	<unknown>
    37a0: 28 48        	<unknown>
    37a2: 00 80        	<unknown>
    37a4: 01 00        	<unknown>
    37a6: 00 00        	<unknown>
    37a8: 04 00        	<unknown>
    37aa: 00 00        	<unknown>
    37ac: 00 00        	<unknown>
    37ae: 00 00        	<unknown>
    37b0: 92 05        	<unknown>
    37b2: 00 00        	<unknown>
    37b4: 16 00        	<unknown>
    37b6: 05 00        	<unknown>
    37b8: 08 00        	<unknown>
    37ba: 00 00        	<unknown>
    37bc: 00 00        	<unknown>
    37be: 00 00        	<unknown>
    37c0: 04 00        	<unknown>
    37c2: 00 00        	<unknown>
    37c4: 00 00        	<unknown>
    37c6: 00 00        	<unknown>
    37c8: a0 05        	<unknown>
    37ca: 00 00        	<unknown>
    37cc: 11 00        	<unknown>
    37ce: 08 00        	<unknown>
    37d0: 14 48        	<unknown>
    37d2: 00 80        	<unknown>
    37d4: 01 00        	<unknown>
    37d6: 00 00        	<unknown>
    37d8: 04 00        	<unknown>
    37da: 00 00        	<unknown>
    37dc: 00 00        	<unknown>
    37de: 00 00        	<unknown>
    37e0: ac 05        	<unknown>
    37e2: 00 00        	<unknown>
    37e4: 16 00        	<unknown>
    37e6: 05 00        	<unknown>
    37e8: 04 00        	<unknown>
    37ea: 00 00        	<unknown>
    37ec: 00 00        	<unknown>
    37ee: 00 00        	<unknown>
    37f0: 04 00        	<unknown>
    37f2: 00 00        	<unknown>
    37f4: 00 00        	<unknown>
    37f6: 00 00        	<unknown>
    37f8: ba 05        	<unknown>
    37fa: 00 00        	<unknown>
    37fc: 12 00        	<unknown>
    37fe: 02 00        	<unknown>
    3800: 10 09        	<unknown>
    3802: 00 80        	<unknown>
    3804: 01 00        	<unknown>
    3806: 00 00        	<unknown>
    3808: 38 00        	<unknown>
    380a: 00 00        	<unknown>
    380c: 00 00        	<unknown>
    380e: 00 00        	<unknown>
    3810: e2 05        	<unknown>
    3812: 00 00        	<unknown>
    3814: 10 00        	<unknown>
    3816: f1 ff        	<unknown>
    3818: 00 00        	<unknown>
    381a: 00 80        	<unknown>
    381c: 01 00        	<unknown>
		...
    3826: 00 00        	<unknown>
    3828: ef 05 00 00  	jal	a1, 0x3828 <.symtab+0x3828>
    382c: 11 00        	<unknown>
    382e: 07 00 00 48  	<unknown>
    3832: 00 80        	<unknown>
    3834: 01 00        	<unknown>
    3836: 00 00        	<unknown>
    3838: 08 00        	<unknown>
    383a: 00 00        	<unknown>
    383c: 00 00        	<unknown>
    383e: 00 00        	<unknown>
    3840: 00 06        	<unknown>
    3842: 00 00        	<unknown>
    3844: 22 02        	<unknown>
    3846: 02 00        	<unknown>
    3848: e4 2c        	<unknown>
    384a: 00 80        	<unknown>
    384c: 01 00        	<unknown>
    384e: 00 00        	<unknown>
    3850: 64 00        	<unknown>
    3852: 00 00        	<unknown>
    3854: 00 00        	<unknown>
    3856: 00 00        	<unknown>
    3858: 11 06        	<unknown>
    385a: 00 00        	<unknown>
    385c: 10 00        	<unknown>
    385e: 05 00        	<unknown>
    3860: 30 47        	<unknown>
    3862: 00 80        	<unknown>
    3864: 01 00        	<unknown>
		...
    386e: 00 00        	<unknown>
    3870: 20 06        	<unknown>
    3872: 00 00        	<unknown>
    3874: 10 00        	<unknown>
    3876: 07 00 10 48  	<unknown>
    387a: 00 80        	<unknown>
    387c: 01 00        	<unknown>
		...
    3886: 00 00        	<unknown>
    3888: 71 02        	<unknown>
    388a: 00 00        	<unknown>
    388c: 10 00        	<unknown>
    388e: 09 00        	<unknown>
    3890: 58 48        	<unknown>
    3892: 00 80        	<unknown>
    3894: 01 00        	<unknown>
		...
    389e: 00 00        	<unknown>
    38a0: 9c 04        	<unknown>
    38a2: 00 00        	<unknown>
    38a4: 12 00        	<unknown>
    38a6: 02 00        	<unknown>
    38a8: 70 00        	<unknown>
    38aa: 00 80        	<unknown>
    38ac: 01 00        	<unknown>
    38ae: 00 00        	<unknown>
    38b0: 24 00        	<unknown>
    38b2: 00 00        	<unknown>
    38b4: 00 00        	<unknown>
    38b6: 00 00        	<unknown>
    38b8: 27 06 00 00  	<unknown>
    38bc: 12 00        	<unknown>
    38be: 02 00        	<unknown>
    38c0: 30 14        	<unknown>
    38c2: 00 80        	<unknown>
    38c4: 01 00        	<unknown>
    38c6: 00 00        	<unknown>
    38c8: 0c 01        	<unknown>
    38ca: 00 00        	<unknown>
    38cc: 00 00        	<unknown>
    38ce: 00 00        	<unknown>
    38d0: 34 06        	<unknown>
    38d2: 00 00        	<unknown>
    38d4: 12 00        	<unknown>
    38d6: 02 00        	<unknown>
    38d8: 9c 00        	<unknown>
    38da: 00 80        	<unknown>
    38dc: 01 00        	<unknown>
    38de: 00 00        	<unknown>
    38e0: 4c 00        	<unknown>
    38e2: 00 00        	<unknown>
    38e4: 00 00        	<unknown>
    38e6: 00 00        	<unknown>
    38e8: 67 06 00 00  	jalr	a2, zero <.symtab>
    38ec: 11 00        	<unknown>
    38ee: 08 00        	<unknown>
    38f0: 2c 48        	<unknown>
    38f2: 00 80        	<unknown>
    38f4: 01 00        	<unknown>
    38f6: 00 00        	<unknown>
    38f8: 04 00        	<unknown>
    38fa: 00 00        	<unknown>
    38fc: 00 00        	<unknown>
    38fe: 00 00        	<unknown>
    3900: 7b 06 00 00  	<unknown>
    3904: 12 00        	<unknown>
    3906: 02 00        	<unknown>
    3908: 04 0b        	<unknown>
    390a: 00 80        	<unknown>
    390c: 01 00        	<unknown>
		...
    3916: 00 00        	<unknown>
    3918: 86 06        	<unknown>
    391a: 00 00        	<unknown>
    391c: 12 00        	<unknown>
    391e: 02 00        	<unknown>
    3920: b0 2c        	<unknown>
    3922: 00 80        	<unknown>
    3924: 01 00        	<unknown>
    3926: 00 00        	<unknown>
    3928: 30 00        	<unknown>
    392a: 00 00        	<unknown>
    392c: 00 00        	<unknown>
    392e: 00 00        	<unknown>
    3930: 93 06 00 00  	li	a3, 0x0
    3934: 11 00        	<unknown>
    3936: 08 00        	<unknown>
    3938: 24 48        	<unknown>
    393a: 00 80        	<unknown>
    393c: 01 00        	<unknown>
    393e: 00 00        	<unknown>
    3940: 04 00        	<unknown>
    3942: 00 00        	<unknown>
    3944: 00 00        	<unknown>
    3946: 00 00        	<unknown>

Disassembly of section .strtab:

0000000000000000 <.strtab>:
       0: 00 76        	<unknown>
       2: 78 5f        	<unknown>
       4: 73 74 61 72  	csrrci	s0, 0x726, 0x2
       8: 74 2e        	<unknown>
       a: 53 2e 6f 00  	fadd.s	ft8, ft10, ft6, rdn
       e: 24 78        	<unknown>
      10: 72 76        	<unknown>
      12: 36 34        	<unknown>
      14: 69 32        	<unknown>
      16: 70 31        	<unknown>
      18: 5f 6d 32 70  	<unknown>
      1c: 30 5f        	<unknown>
      1e: 61 32        	<unknown>
      20: 70 31        	<unknown>
      22: 5f 66 32 70  	<unknown>
      26: 32 5f        	<unknown>
      28: 64 32        	<unknown>
      2a: 70 32        	<unknown>
      2c: 5f 7a 69 63  	<unknown>
      30: 73 72 32 70  	csrrci	tp, 0x703, 0x4
      34: 30 5f        	<unknown>
      36: 7a 6d        	<unknown>
      38: 6d 75        	<unknown>
      3a: 6c 31        	<unknown>
      3c: 70 30        	<unknown>
      3e: 00 69        	<unknown>
      40: 6e 69        	<unknown>
      42: 74 5f        	<unknown>
      44: 72 65        	<unknown>
      46: 67 73 5f 61  	<unknown>
      4a: 6c 6c        	<unknown>
      4c: 00 69        	<unknown>
      4e: 6e 69        	<unknown>
      50: 74 5f        	<unknown>
      52: 72 65        	<unknown>
      54: 67 73 00 69  	<unknown>
      58: 6e 69        	<unknown>
      5a: 74 5f        	<unknown>
      5c: 74 6c        	<unknown>
      5e: 73 5f 61 6c  	csrrwi	t5, 0x6c6, 0x2
      62: 6c 00        	<unknown>
      64: 65 78        	<unknown>
      66: 69 74        	<unknown>
      68: 2e 63        	<unknown>
      6a: 00 24        	<unknown>
      6c: 78 2e        	<unknown>
      6e: 30 00        	<unknown>
      70: 24 78        	<unknown>
      72: 2e 31        	<unknown>
      74: 00 24        	<unknown>
      76: 78 2e        	<unknown>
      78: 32 00        	<unknown>
      7a: 24 64        	<unknown>
      7c: 2e 33        	<unknown>
      7e: 00 24        	<unknown>
      80: 64 2e        	<unknown>
      82: 34 00        	<unknown>
      84: 6b 65 72 6e  	<unknown>
      88: 65 6c        	<unknown>
      8a: 5f 77 72 61  	<unknown>
      8e: 70 70        	<unknown>
      90: 65 72        	<unknown>
      92: 2e 63        	<unknown>
      94: 70 70        	<unknown>
      96: 00 24        	<unknown>
      98: 78 2e        	<unknown>
      9a: 33 00 24 64  	<unknown>
      9e: 2e 35        	<unknown>
      a0: 00 24        	<unknown>
      a2: 64 2e        	<unknown>
      a4: 36 00        	<unknown>
      a6: 24 64        	<unknown>
      a8: 2e 37        	<unknown>
      aa: 00 24        	<unknown>
      ac: 64 2e        	<unknown>
      ae: 38 00        	<unknown>
      b0: 24 64        	<unknown>
      b2: 2e 39        	<unknown>
      b4: 00 24        	<unknown>
      b6: 64 2e        	<unknown>
      b8: 31 30        	<unknown>
      ba: 00 24        	<unknown>
      bc: 64 2e        	<unknown>
      be: 31 31        	<unknown>
      c0: 00 24        	<unknown>
      c2: 64 2e        	<unknown>
      c4: 31 32        	<unknown>
      c6: 00 24        	<unknown>
      c8: 64 2e        	<unknown>
      ca: 31 33        	<unknown>
      cc: 00 24        	<unknown>
      ce: 64 2e        	<unknown>
      d0: 31 34        	<unknown>
      d2: 00 24        	<unknown>
      d4: 64 2e        	<unknown>
      d6: 31 35        	<unknown>
      d8: 00 68        	<unknown>
      da: 6f 74 73 70  	jal	s0, 0x37fe0 <.symtab+0x37fe0>
      de: 6f 74 2e 63  	jal	s0, 0xe7710 <.symtab+0xe7710>
      e2: 75 00        	<unknown>
      e4: 24 64        	<unknown>
      e6: 2e 32        	<unknown>
      e8: 00 76        	<unknown>
      ea: 78 5f        	<unknown>
      ec: 73 79 73 63  	csrrci	s2, 0x637, 0x6
      f0: 61 6c        	<unknown>
      f2: 6c 73        	<unknown>
      f4: 2e 63        	<unknown>
      f6: 00 76        	<unknown>
      f8: 78 5f        	<unknown>
      fa: 70 72        	<unknown>
      fc: 69 6e        	<unknown>
      fe: 74 2e        	<unknown>
     100: 53 2e 6f 00  	fadd.s	ft8, ft10, ft6, rdn
     104: 76 78        	<unknown>
     106: 5f 70 72 69  	<unknown>
     10a: 6e 74        	<unknown>
     10c: 2e 63        	<unknown>
     10e: 00 5f        	<unknown>
     110: 5f 76 70 72  	<unknown>
     114: 69 6e        	<unknown>
     116: 74 66        	<unknown>
     118: 5f 63 62 00  	<unknown>
     11c: 76 78        	<unknown>
     11e: 5f 73 70 61  	<unknown>
     122: 77 6e 2e 63  	<unknown>
     126: 00 70        	<unknown>
     128: 72 6f        	<unknown>
     12a: 63 65 73 73  	bltu	t1, s7, 0x854 <.symtab+0x854>
     12e: 5f 74 68 72  	<unknown>
     132: 65 61        	<unknown>
     134: 64 73        	<unknown>
     136: 00 70        	<unknown>
     138: 72 6f        	<unknown>
     13a: 63 65 73 73  	bltu	t1, s7, 0x864 <.symtab+0x864>
     13e: 5f 72 65 6d  	<unknown>
     142: 61 69        	<unknown>
     144: 6e 69        	<unknown>
     146: 6e 67        	<unknown>
     148: 5f 74 68 72  	<unknown>
     14c: 65 61        	<unknown>
     14e: 64 73        	<unknown>
     150: 00 70        	<unknown>
     152: 72 6f        	<unknown>
     154: 63 65 73 73  	bltu	t1, s7, 0x87e <.symtab+0x87e>
     158: 5f 74 68 72  	<unknown>
     15c: 65 61        	<unknown>
     15e: 64 73        	<unknown>
     160: 5f 73 74 75  	<unknown>
     164: 62 00        	<unknown>
     166: 70 72        	<unknown>
     168: 6f 63 65 73  	jal	t1, 0x5689e <.symtab+0x5689e>
     16c: 73 5f 74 68  	csrrwi	t5, 0x687, 0x8
     170: 72 65        	<unknown>
     172: 61 64        	<unknown>
     174: 5f 67 72 6f  	<unknown>
     178: 75 70        	<unknown>
     17a: 73 00 70 72  	<unknown>
     17e: 6f 63 65 73  	jal	t1, 0x568b4 <.symtab+0x568b4>
     182: 73 5f 74 68  	csrrwi	t5, 0x687, 0x8
     186: 72 65        	<unknown>
     188: 61 64        	<unknown>
     18a: 5f 67 72 6f  	<unknown>
     18e: 75 70        	<unknown>
     190: 73 5f 73 74  	csrrwi	t5, mseccfg, 0x6
     194: 75 62        	<unknown>
     196: 00 76        	<unknown>
     198: 78 5f        	<unknown>
     19a: 73 65 72 69  	csrrsi	a0, 0x697, 0x4
     19e: 61 6c        	<unknown>
     1a0: 2e 53        	<unknown>
     1a2: 2e 6f        	<unknown>
     1a4: 00 6c        	<unknown>
     1a6: 61 62        	<unknown>
     1a8: 65 6c        	<unknown>
     1aa: 5f 6c 6f 6f  	<unknown>
     1ae: 70 00        	<unknown>
     1b0: 6c 61        	<unknown>
     1b2: 62 65        	<unknown>
     1b4: 6c 5f        	<unknown>
     1b6: 6a 6f        	<unknown>
     1b8: 69 6e        	<unknown>
     1ba: 00 76        	<unknown>
     1bc: 78 5f        	<unknown>
     1be: 70 65        	<unknown>
     1c0: 72 66        	<unknown>
     1c2: 2e 63        	<unknown>
     1c4: 00 74        	<unknown>
     1c6: 69 6e        	<unknown>
     1c8: 79 70        	<unknown>
     1ca: 72 69        	<unknown>
     1cc: 6e 74        	<unknown>
     1ce: 66 2e        	<unknown>
     1d0: 63 00 5f 6f  	beq	t5, s5, 0x8b0 <.symtab+0x8b0>
     1d4: 75 74        	<unknown>
     1d6: 5f 6e 75 6c  	<unknown>
     1da: 6c 00        	<unknown>
     1dc: 5f 6f 75 74  	<unknown>
     1e0: 5f 72 65 76  	<unknown>
     1e4: 00 5f        	<unknown>
     1e6: 6e 74        	<unknown>
     1e8: 6f 61 5f 6c  	jal	sp, 0xf70ac <.symtab+0xf70ac>
     1ec: 6f 6e 67 00  	jal	t3, 0x761f2 <.symtab+0x761f2>
     1f0: 5f 6e 74 6f  	<unknown>
     1f4: 61 5f        	<unknown>
     1f6: 6c 6f        	<unknown>
     1f8: 6e 67        	<unknown>
     1fa: 5f 6c 6f 6e  	<unknown>
     1fe: 67 00 5f 6f  	jr	0x6f5(t5)
     202: 75 74        	<unknown>
     204: 5f 63 68 61  	<unknown>
     208: 72 00        	<unknown>
     20a: 5f 66 74 6f  	<unknown>
     20e: 61 00        	<unknown>
     210: 5f 65 74 6f  	<unknown>
     214: 61 00        	<unknown>
     216: 70 6f        	<unknown>
     218: 77 31 30 2e  	<unknown>
     21c: 30 00        	<unknown>
     21e: 5f 76 73 6e  	<unknown>
     222: 70 72        	<unknown>
     224: 69 6e        	<unknown>
     226: 74 66        	<unknown>
     228: 00 6d        	<unknown>
     22a: 65 6d        	<unknown>
     22c: 63 70 79 2e  	bgeu	s2, t2, 0x50c <.symtab+0x50c>
     230: 63 00 24 64  	beq	s0, sp, 0x870 <.symtab+0x870>
     234: 2e 31        	<unknown>
     236: 00 6d        	<unknown>
     238: 65 6d        	<unknown>
     23a: 73 65 74 2e  	csrrsi	a0, 0x2e7, 0x8
     23e: 63 00 63 75  	beq	t1, s6, 0x97e <.symtab+0x97e>
     242: 64 61        	<unknown>
     244: 4b 65 72 6e  	<unknown>
     248: 65 6c        	<unknown>
     24a: 49 6d        	<unknown>
     24c: 70 6c        	<unknown>
     24e: 2e 63        	<unknown>
     250: 70 70        	<unknown>
     252: 00 24        	<unknown>
     254: 64 2e        	<unknown>
     256: 34 33        	<unknown>
     258: 00 24        	<unknown>
     25a: 64 2e        	<unknown>
     25c: 34 34        	<unknown>
     25e: 00 24        	<unknown>
     260: 64 2e        	<unknown>
     262: 34 35        	<unknown>
     264: 00 5f        	<unknown>
     266: 5f 66 69 6e  	<unknown>
     26a: 69 5f        	<unknown>
     26c: 61 72        	<unknown>
     26e: 72 61        	<unknown>
     270: 79 5f        	<unknown>
     272: 65 6e        	<unknown>
     274: 64 00        	<unknown>
     276: 5f 5f 74 62  	<unknown>
     27a: 73 73 5f 73  	csrrci	t1, 0x735, 0x1e
     27e: 74 61        	<unknown>
     280: 72 74        	<unknown>
     282: 00 5f        	<unknown>
     284: 5f 66 69 6e  	<unknown>
     288: 69 5f        	<unknown>
     28a: 61 72        	<unknown>
     28c: 72 61        	<unknown>
     28e: 79 5f        	<unknown>
     290: 73 74 61 72  	csrrci	s0, 0x726, 0x2
     294: 74 00        	<unknown>
     296: 5f 5f 74 64  	<unknown>
     29a: 61 74        	<unknown>
     29c: 61 5f        	<unknown>
     29e: 73 74 61 72  	csrrci	s0, 0x726, 0x2
     2a2: 74 00        	<unknown>
     2a4: 5f 5f 69 6e  	<unknown>
     2a8: 69 74        	<unknown>
     2aa: 5f 61 72 72  	<unknown>
     2ae: 61 79        	<unknown>
     2b0: 5f 65 6e 64  	<unknown>
     2b4: 00 5f        	<unknown>
     2b6: 5f 74 62 73  	<unknown>
     2ba: 73 5f 6f 66  	csrrwi	t5, 0x666, 0x1e
     2be: 66 73        	<unknown>
     2c0: 65 74        	<unknown>
     2c2: 00 5f        	<unknown>
     2c4: 5f 70 72 65  	<unknown>
     2c8: 69 6e        	<unknown>
     2ca: 69 74        	<unknown>
     2cc: 5f 61 72 72  	<unknown>
     2d0: 61 79        	<unknown>
     2d2: 5f 65 6e 64  	<unknown>
     2d6: 00 5f        	<unknown>
     2d8: 47 4c 4f 42  	fmsub.d	fs8, ft10, ft4, fs0, rmm
     2dc: 41 4c        	<unknown>
     2de: 5f 4f 46 46  	<unknown>
     2e2: 53 45 54 5f  	<unknown>
     2e6: 54 41        	<unknown>
     2e8: 42 4c        	<unknown>
     2ea: 45 5f        	<unknown>
     2ec: 00 5f        	<unknown>
     2ee: 5f 69 6e 69  	<unknown>
     2f2: 74 5f        	<unknown>
     2f4: 61 72        	<unknown>
     2f6: 72 61        	<unknown>
     2f8: 79 5f        	<unknown>
     2fa: 73 74 61 72  	csrrci	s0, 0x726, 0x2
     2fe: 74 00        	<unknown>
     300: 5f 5f 70 72  	<unknown>
     304: 65 69        	<unknown>
     306: 6e 69        	<unknown>
     308: 74 5f        	<unknown>
     30a: 61 72        	<unknown>
     30c: 72 61        	<unknown>
     30e: 79 5f        	<unknown>
     310: 73 74 61 72  	csrrci	s0, 0x726, 0x2
     314: 74 00        	<unknown>
     316: 74 68        	<unknown>
     318: 72 65        	<unknown>
     31a: 61 64        	<unknown>
     31c: 49 64        	<unknown>
     31e: 78 00        	<unknown>
     320: 67 72 69 64  	<unknown>
     324: 5f 73 69 7a  	<unknown>
     328: 65 5f        	<unknown>
     32a: 7a 00        	<unknown>
     32c: 62 6c        	<unknown>
     32e: 6f 63 6b 5f  	jal	t1, 0xb6924 <.symtab+0xb6924>
     332: 69 6e        	<unknown>
     334: 64 65        	<unknown>
     336: 78 5f        	<unknown>
     338: 78 00        	<unknown>
     33a: 74 68        	<unknown>
     33c: 72 65        	<unknown>
     33e: 61 64        	<unknown>
     340: 5f 69 64 5f  	<unknown>
     344: 79 00        	<unknown>
     346: 62 6c        	<unknown>
     348: 6f 63 6b 49  	jal	t1, 0xb67de <.symtab+0xb67de>
     34c: 64 78        	<unknown>
     34e: 00 77        	<unknown>
     350: 72 61        	<unknown>
     352: 70 70        	<unknown>
     354: 65 72        	<unknown>
     356: 5f 67 6c 6f  	<unknown>
     35a: 62 61        	<unknown>
     35c: 6c 5f        	<unknown>
     35e: 5f 5a 5a 31  	<unknown>
