	.text
	.file	"srad.cu"
	.file	0 "/nethome/cahn45/CuPBoP/examples/srad_v2" "srad.cu" md5 0x8142f7d8513e6c862d338034133f8186
	.file	1 "." "srad.cu"
	.file	2 "/nethome/cahn45/CuPBoP" "cuda-12.1/include/nv/target"
	.file	3 "/nethome/cahn45/CuPBoP" "cuda-12.1/include/driver_types.h"
	.file	4 "/nethome/cahn45/CuPBoP" "cuda-12.1/include/vector_types.h"
	.globl	_Z26__device_stub__srad_cuda_1PfS_S_S_S_S_iif # -- Begin function _Z26__device_stub__srad_cuda_1PfS_S_S_S_S_iif
	.p2align	4, 0x90
	.type	_Z26__device_stub__srad_cuda_1PfS_S_S_S_S_iif,@function
_Z26__device_stub__srad_cuda_1PfS_S_S_S_S_iif: # @_Z26__device_stub__srad_cuda_1PfS_S_S_S_S_iif
.Lfunc_begin0:
	.file	5 "." "srad_kernel.cu"
	.loc	5 16 0                          # ./srad_kernel.cu:16:0
	.cfi_startproc
# %bb.0:                                # %entry
	pushq	%rbp
	.cfi_def_cfa_offset 16
	.cfi_offset %rbp, -16
	movq	%rsp, %rbp
	.cfi_def_cfa_register %rbp
	subq	$224, %rsp
	movl	24(%rbp), %eax
	movl	16(%rbp), %eax
	movq	%rdi, -8(%rbp)
	movq	%rsi, -16(%rbp)
	movq	%rdx, -24(%rbp)
	movq	%rcx, -32(%rbp)
	movq	%r8, -40(%rbp)
	movq	%r9, -48(%rbp)
	movss	%xmm0, -52(%rbp)
.Ltmp0:
	.loc	5 16 1 prologue_end             # ./srad_kernel.cu:16:1
	leaq	-8(%rbp), %rax
	movq	%rax, -208(%rbp)
	leaq	-16(%rbp), %rax
	movq	%rax, -200(%rbp)
	leaq	-24(%rbp), %rax
	movq	%rax, -192(%rbp)
	leaq	-32(%rbp), %rax
	movq	%rax, -184(%rbp)
	leaq	-40(%rbp), %rax
	movq	%rax, -176(%rbp)
	leaq	-48(%rbp), %rax
	movq	%rax, -168(%rbp)
	leaq	16(%rbp), %rax
	movq	%rax, -160(%rbp)
	leaq	24(%rbp), %rax
	movq	%rax, -152(%rbp)
	leaq	-52(%rbp), %rax
	movq	%rax, -144(%rbp)
	leaq	-64(%rbp), %rdi
	leaq	-80(%rbp), %rsi
	leaq	-88(%rbp), %rdx
	leaq	-96(%rbp), %rcx
	callq	__cudaPopCallConfiguration@PLT
	movq	-88(%rbp), %r10
	movq	-96(%rbp), %rax
	movq	-64(%rbp), %rcx
	movq	%rcx, -112(%rbp)
	movl	-56(%rbp), %ecx
	movl	%ecx, -104(%rbp)
	movq	-112(%rbp), %rsi
	movl	-104(%rbp), %edx
	movq	-80(%rbp), %rcx
	movq	%rcx, -128(%rbp)
	movl	-72(%rbp), %ecx
	movl	%ecx, -120(%rbp)
	movq	-128(%rbp), %rcx
	movl	-120(%rbp), %r8d
	leaq	_Z26__device_stub__srad_cuda_1PfS_S_S_S_S_iif(%rip), %rdi
	leaq	-208(%rbp), %r9
	movq	%r10, (%rsp)
	movq	%rax, 8(%rsp)
	callq	cudaLaunchKernel@PLT
# %bb.1:                                # %setup.end
	.loc	5 158 1 epilogue_begin          # ./srad_kernel.cu:158:1
	addq	$224, %rsp
	popq	%rbp
	.cfi_def_cfa %rsp, 8
	retq
.Ltmp1:
.Lfunc_end0:
	.size	_Z26__device_stub__srad_cuda_1PfS_S_S_S_S_iif, .Lfunc_end0-_Z26__device_stub__srad_cuda_1PfS_S_S_S_S_iif
	.cfi_endproc
                                        # -- End function
	.globl	_Z26__device_stub__srad_cuda_2PfS_S_S_S_S_iiff # -- Begin function _Z26__device_stub__srad_cuda_2PfS_S_S_S_S_iiff
	.p2align	4, 0x90
	.type	_Z26__device_stub__srad_cuda_2PfS_S_S_S_S_iiff,@function
_Z26__device_stub__srad_cuda_2PfS_S_S_S_S_iiff: # @_Z26__device_stub__srad_cuda_2PfS_S_S_S_S_iiff
.Lfunc_begin1:
	.loc	5 173 0                         # ./srad_kernel.cu:173:0
	.cfi_startproc
# %bb.0:                                # %entry
	pushq	%rbp
	.cfi_def_cfa_offset 16
	.cfi_offset %rbp, -16
	movq	%rsp, %rbp
	.cfi_def_cfa_register %rbp
	subq	$240, %rsp
	movl	24(%rbp), %eax
	movl	16(%rbp), %eax
	movq	%rdi, -8(%rbp)
	movq	%rsi, -16(%rbp)
	movq	%rdx, -24(%rbp)
	movq	%rcx, -32(%rbp)
	movq	%r8, -40(%rbp)
	movq	%r9, -48(%rbp)
	movss	%xmm0, -52(%rbp)
	movss	%xmm1, -56(%rbp)
.Ltmp2:
	.loc	5 173 1 prologue_end            # ./srad_kernel.cu:173:1
	leaq	-8(%rbp), %rax
	movq	%rax, -224(%rbp)
	leaq	-16(%rbp), %rax
	movq	%rax, -216(%rbp)
	leaq	-24(%rbp), %rax
	movq	%rax, -208(%rbp)
	leaq	-32(%rbp), %rax
	movq	%rax, -200(%rbp)
	leaq	-40(%rbp), %rax
	movq	%rax, -192(%rbp)
	leaq	-48(%rbp), %rax
	movq	%rax, -184(%rbp)
	leaq	16(%rbp), %rax
	movq	%rax, -176(%rbp)
	leaq	24(%rbp), %rax
	movq	%rax, -168(%rbp)
	leaq	-52(%rbp), %rax
	movq	%rax, -160(%rbp)
	leaq	-56(%rbp), %rax
	movq	%rax, -152(%rbp)
	leaq	-72(%rbp), %rdi
	leaq	-88(%rbp), %rsi
	leaq	-96(%rbp), %rdx
	leaq	-104(%rbp), %rcx
	callq	__cudaPopCallConfiguration@PLT
	movq	-96(%rbp), %r10
	movq	-104(%rbp), %rax
	movq	-72(%rbp), %rcx
	movq	%rcx, -120(%rbp)
	movl	-64(%rbp), %ecx
	movl	%ecx, -112(%rbp)
	movq	-120(%rbp), %rsi
	movl	-112(%rbp), %edx
	movq	-88(%rbp), %rcx
	movq	%rcx, -136(%rbp)
	movl	-80(%rbp), %ecx
	movl	%ecx, -128(%rbp)
	movq	-136(%rbp), %rcx
	movl	-128(%rbp), %r8d
	leaq	_Z26__device_stub__srad_cuda_2PfS_S_S_S_S_iiff(%rip), %rdi
	leaq	-224(%rbp), %r9
	movq	%r10, (%rsp)
	movq	%rax, 8(%rsp)
	callq	cudaLaunchKernel@PLT
# %bb.1:                                # %setup.end
	.loc	5 258 1 epilogue_begin          # ./srad_kernel.cu:258:1
	addq	$240, %rsp
	popq	%rbp
	.cfi_def_cfa %rsp, 8
	retq
.Ltmp3:
.Lfunc_end1:
	.size	_Z26__device_stub__srad_cuda_2PfS_S_S_S_S_iiff, .Lfunc_end1-_Z26__device_stub__srad_cuda_2PfS_S_S_S_S_iiff
	.cfi_endproc
                                        # -- End function
	.globl	_Z5usageiPPc                    # -- Begin function _Z5usageiPPc
	.p2align	4, 0x90
	.type	_Z5usageiPPc,@function
_Z5usageiPPc:                           # @_Z5usageiPPc
.Lfunc_begin2:
	.loc	1 15 0                          # ./srad.cu:15:0
	.cfi_startproc
# %bb.0:                                # %entry
	pushq	%rbp
	.cfi_def_cfa_offset 16
	.cfi_offset %rbp, -16
	movq	%rsp, %rbp
	.cfi_def_cfa_register %rbp
	subq	$16, %rsp
	movl	%edi, -4(%rbp)
	movq	%rsi, -16(%rbp)
.Ltmp4:
	.loc	1 16 11 prologue_end            # ./srad.cu:16:11
	movq	stderr@GOTPCREL(%rip), %rax
	movq	(%rax), %rdi
	.loc	1 18 11                         # ./srad.cu:18:11
	movq	-16(%rbp), %rax
	movq	(%rax), %rdx
	.loc	1 16 3                          # ./srad.cu:16:3
	leaq	.L.str(%rip), %rsi
	movb	$0, %al
	callq	fprintf@PLT
	.loc	1 19 11                         # ./srad.cu:19:11
	movq	stderr@GOTPCREL(%rip), %rax
	movq	(%rax), %rdi
	.loc	1 19 3 is_stmt 0                # ./srad.cu:19:3
	leaq	.L.str.1(%rip), %rsi
	movb	$0, %al
	callq	fprintf@PLT
	.loc	1 20 11 is_stmt 1               # ./srad.cu:20:11
	movq	stderr@GOTPCREL(%rip), %rax
	movq	(%rax), %rdi
	.loc	1 20 3 is_stmt 0                # ./srad.cu:20:3
	leaq	.L.str.2(%rip), %rsi
	movb	$0, %al
	callq	fprintf@PLT
	.loc	1 21 11 is_stmt 1               # ./srad.cu:21:11
	movq	stderr@GOTPCREL(%rip), %rax
	movq	(%rax), %rdi
	.loc	1 21 3 is_stmt 0                # ./srad.cu:21:3
	leaq	.L.str.3(%rip), %rsi
	movb	$0, %al
	callq	fprintf@PLT
	.loc	1 22 11 is_stmt 1               # ./srad.cu:22:11
	movq	stderr@GOTPCREL(%rip), %rax
	movq	(%rax), %rdi
	.loc	1 22 3 is_stmt 0                # ./srad.cu:22:3
	leaq	.L.str.4(%rip), %rsi
	movb	$0, %al
	callq	fprintf@PLT
	.loc	1 23 11 is_stmt 1               # ./srad.cu:23:11
	movq	stderr@GOTPCREL(%rip), %rax
	movq	(%rax), %rdi
	.loc	1 23 3 is_stmt 0                # ./srad.cu:23:3
	leaq	.L.str.5(%rip), %rsi
	movb	$0, %al
	callq	fprintf@PLT
	.loc	1 24 11 is_stmt 1               # ./srad.cu:24:11
	movq	stderr@GOTPCREL(%rip), %rax
	movq	(%rax), %rdi
	.loc	1 24 3 is_stmt 0                # ./srad.cu:24:3
	leaq	.L.str.6(%rip), %rsi
	movb	$0, %al
	callq	fprintf@PLT
	.loc	1 25 11 is_stmt 1               # ./srad.cu:25:11
	movq	stderr@GOTPCREL(%rip), %rax
	movq	(%rax), %rdi
	.loc	1 25 3 is_stmt 0                # ./srad.cu:25:3
	leaq	.L.str.7(%rip), %rsi
	movb	$0, %al
	callq	fprintf@PLT
	.loc	1 26 11 is_stmt 1               # ./srad.cu:26:11
	movq	stderr@GOTPCREL(%rip), %rax
	movq	(%rax), %rdi
	.loc	1 26 3 is_stmt 0                # ./srad.cu:26:3
	leaq	.L.str.8(%rip), %rsi
	movb	$0, %al
	callq	fprintf@PLT
	.loc	1 28 3 is_stmt 1                # ./srad.cu:28:3
	movl	$1, %edi
	callq	exit@PLT
.Ltmp5:
.Lfunc_end2:
	.size	_Z5usageiPPc, .Lfunc_end2-_Z5usageiPPc
	.cfi_endproc
                                        # -- End function
	.globl	main                            # -- Begin function main
	.p2align	4, 0x90
	.type	main,@function
main:                                   # @main
.Lfunc_begin3:
	.loc	1 33 0                          # ./srad.cu:33:0
	.cfi_startproc
# %bb.0:                                # %entry
	pushq	%rbp
	.cfi_def_cfa_offset 16
	.cfi_offset %rbp, -16
	movq	%rsp, %rbp
	.cfi_def_cfa_register %rbp
	subq	$16, %rsp
	movl	$0, -4(%rbp)
	movl	%edi, -8(%rbp)
	movq	%rsi, -16(%rbp)
.Ltmp6:
	.loc	1 34 3 prologue_end             # ./srad.cu:34:3
	xorl	%edi, %edi
	callq	cudaSetDevice@PLT
	.loc	1 35 3                          # ./srad.cu:35:3
	leaq	.L.str.9(%rip), %rdi
	movl	$4, %edx
	movl	%edx, %esi
	movb	$0, %al
	callq	printf@PLT
	.loc	1 36 11                         # ./srad.cu:36:11
	movl	-8(%rbp), %edi
	.loc	1 36 17 is_stmt 0               # ./srad.cu:36:17
	movq	-16(%rbp), %rsi
	.loc	1 36 3                          # ./srad.cu:36:3
	callq	_Z7runTestiPPc
	.loc	1 38 3 is_stmt 1                # ./srad.cu:38:3
	xorl	%eax, %eax
	.loc	1 38 3 epilogue_begin is_stmt 0 # ./srad.cu:38:3
	addq	$16, %rsp
	popq	%rbp
	.cfi_def_cfa %rsp, 8
	retq
.Ltmp7:
.Lfunc_end3:
	.size	main, .Lfunc_end3-main
	.cfi_endproc
                                        # -- End function
	.globl	_Z7runTestiPPc                  # -- Begin function _Z7runTestiPPc
	.p2align	4, 0x90
	.type	_Z7runTestiPPc,@function
_Z7runTestiPPc:                         # @_Z7runTestiPPc
.Lfunc_begin4:
	.loc	1 41 0 is_stmt 1                # ./srad.cu:41:0
	.cfi_startproc
# %bb.0:                                # %entry
	pushq	%rbp
	.cfi_def_cfa_offset 16
	.cfi_offset %rbp, -16
	movq	%rsp, %rbp
	.cfi_def_cfa_register %rbp
	subq	$352, %rsp                      # imm = 0x160
	movl	%edi, -4(%rbp)
	movq	%rsi, -16(%rbp)
.Ltmp8:
	.loc	1 42 35 prologue_end            # ./srad.cu:42:35
	movl	$10, -36(%rbp)
	.loc	1 54 3                          # ./srad.cu:54:3
	leaq	.L.str.10(%rip), %rdi
	movb	$0, %al
	callq	printf@PLT
.Ltmp9:
	.loc	1 64 12                         # ./srad.cu:64:12
	cmpl	$9, -4(%rbp)
.Ltmp10:
	.loc	1 64 7 is_stmt 0                # ./srad.cu:64:7
	jne	.LBB4_5
# %bb.1:                                # %if.then
.Ltmp11:
	.loc	1 65 17 is_stmt 1               # ./srad.cu:65:17
	movq	-16(%rbp), %rax
	movq	8(%rax), %rdi
	.loc	1 65 12 is_stmt 0               # ./srad.cu:65:12
	callq	atoi@PLT
	.loc	1 65 10                         # ./srad.cu:65:10
	movl	%eax, -20(%rbp)
	.loc	1 66 17 is_stmt 1               # ./srad.cu:66:17
	movq	-16(%rbp), %rax
	movq	16(%rax), %rdi
	.loc	1 66 12 is_stmt 0               # ./srad.cu:66:12
	callq	atoi@PLT
	.loc	1 66 10                         # ./srad.cu:66:10
	movl	%eax, -24(%rbp)
.Ltmp12:
	.loc	1 67 10 is_stmt 1               # ./srad.cu:67:10
	movl	-20(%rbp), %eax
	.loc	1 67 15 is_stmt 0               # ./srad.cu:67:15
	movl	$16, %ecx
	cltd
	idivl	%ecx
	.loc	1 67 20                         # ./srad.cu:67:20
	cmpl	$0, %edx
	.loc	1 67 26                         # ./srad.cu:67:26
	jne	.LBB4_3
# %bb.2:                                # %lor.lhs.false
	.loc	1 67 30                         # ./srad.cu:67:30
	movl	-24(%rbp), %eax
	.loc	1 67 35                         # ./srad.cu:67:35
	movl	$16, %ecx
	cltd
	idivl	%ecx
	.loc	1 67 40                         # ./srad.cu:67:40
	cmpl	$0, %edx
.Ltmp13:
	.loc	1 67 9                          # ./srad.cu:67:9
	je	.LBB4_4
.LBB4_3:                                # %if.then7
.Ltmp14:
	.loc	1 68 15 is_stmt 1               # ./srad.cu:68:15
	movq	stderr@GOTPCREL(%rip), %rax
	movq	(%rax), %rdi
	.loc	1 68 7 is_stmt 0                # ./srad.cu:68:7
	leaq	.L.str.11(%rip), %rsi
	movb	$0, %al
	callq	fprintf@PLT
	.loc	1 69 7 is_stmt 1                # ./srad.cu:69:7
	movl	$1, %edi
	callq	exit@PLT
.Ltmp15:
.LBB4_4:                                # %if.end
	.loc	1 71 15                         # ./srad.cu:71:15
	movq	-16(%rbp), %rax
	movq	24(%rax), %rdi
	.loc	1 71 10 is_stmt 0               # ./srad.cu:71:10
	callq	atoi@PLT
	.loc	1 71 8                          # ./srad.cu:71:8
	movl	%eax, -140(%rbp)
	.loc	1 72 15 is_stmt 1               # ./srad.cu:72:15
	movq	-16(%rbp), %rax
	movq	32(%rax), %rdi
	.loc	1 72 10 is_stmt 0               # ./srad.cu:72:10
	callq	atoi@PLT
	.loc	1 72 8                          # ./srad.cu:72:8
	movl	%eax, -144(%rbp)
	.loc	1 73 15 is_stmt 1               # ./srad.cu:73:15
	movq	-16(%rbp), %rax
	movq	40(%rax), %rdi
	.loc	1 73 10 is_stmt 0               # ./srad.cu:73:10
	callq	atoi@PLT
	.loc	1 73 8                          # ./srad.cu:73:8
	movl	%eax, -148(%rbp)
	.loc	1 74 15 is_stmt 1               # ./srad.cu:74:15
	movq	-16(%rbp), %rax
	movq	48(%rax), %rdi
	.loc	1 74 10 is_stmt 0               # ./srad.cu:74:10
	callq	atoi@PLT
	.loc	1 74 8                          # ./srad.cu:74:8
	movl	%eax, -152(%rbp)
	.loc	1 75 19 is_stmt 1               # ./srad.cu:75:19
	movq	-16(%rbp), %rax
	movq	56(%rax), %rdi
	.loc	1 75 14 is_stmt 0               # ./srad.cu:75:14
	callq	atof@PLT
	cvtsd2ss	%xmm0, %xmm0
	.loc	1 75 12                         # ./srad.cu:75:12
	movss	%xmm0, -60(%rbp)
	.loc	1 76 18 is_stmt 1               # ./srad.cu:76:18
	movq	-16(%rbp), %rax
	movq	64(%rax), %rdi
	.loc	1 76 13 is_stmt 0               # ./srad.cu:76:13
	callq	atoi@PLT
	.loc	1 76 11                         # ./srad.cu:76:11
	movl	%eax, -36(%rbp)
	.loc	1 78 3 is_stmt 1                # ./srad.cu:78:3
	jmp	.LBB4_6
.Ltmp16:
.LBB4_5:                                # %if.else
	.loc	1 79 11                         # ./srad.cu:79:11
	movl	-4(%rbp), %edi
	.loc	1 79 17 is_stmt 0               # ./srad.cu:79:17
	movq	-16(%rbp), %rsi
	.loc	1 79 5                          # ./srad.cu:79:5
	callq	_Z5usageiPPc
.Ltmp17:
.LBB4_6:                                # %if.end21
	.loc	1 82 12 is_stmt 1               # ./srad.cu:82:12
	movl	-24(%rbp), %eax
	.loc	1 82 17 is_stmt 0               # ./srad.cu:82:17
	imull	-20(%rbp), %eax
	.loc	1 82 10                         # ./srad.cu:82:10
	movl	%eax, -28(%rbp)
	.loc	1 83 13 is_stmt 1               # ./srad.cu:83:13
	movl	-144(%rbp), %eax
	.loc	1 83 16 is_stmt 0               # ./srad.cu:83:16
	subl	-140(%rbp), %eax
	.loc	1 83 21                         # ./srad.cu:83:21
	addl	$1, %eax
	.loc	1 83 29                         # ./srad.cu:83:29
	movl	-152(%rbp), %ecx
	.loc	1 83 32                         # ./srad.cu:83:32
	subl	-148(%rbp), %ecx
	.loc	1 83 37                         # ./srad.cu:83:37
	addl	$1, %ecx
	.loc	1 83 26                         # ./srad.cu:83:26
	imull	%ecx, %eax
	.loc	1 83 10                         # ./srad.cu:83:10
	movl	%eax, -32(%rbp)
	.loc	1 84 34 is_stmt 1               # ./srad.cu:84:34
	movl	-28(%rbp), %esi
	.loc	1 84 42 is_stmt 0               # ./srad.cu:84:42
	movl	-32(%rbp), %edx
	.loc	1 84 3                          # ./srad.cu:84:3
	leaq	.L.str.12(%rip), %rdi
	movb	$0, %al
	callq	printf@PLT
	.loc	1 86 23 is_stmt 1               # ./srad.cu:86:23
	movslq	-28(%rbp), %rdi
	.loc	1 86 30 is_stmt 0               # ./srad.cu:86:30
	shlq	$2, %rdi
	.loc	1 86 16                         # ./srad.cu:86:16
	callq	malloc@PLT
	.loc	1 86 5                          # ./srad.cu:86:5
	movq	%rax, -48(%rbp)
	.loc	1 87 23 is_stmt 1               # ./srad.cu:87:23
	movslq	-28(%rbp), %rdi
	.loc	1 87 30 is_stmt 0               # ./srad.cu:87:30
	shlq	$2, %rdi
	.loc	1 87 16                         # ./srad.cu:87:16
	callq	malloc@PLT
	.loc	1 87 5                          # ./srad.cu:87:5
	movq	%rax, -56(%rbp)
	.loc	1 88 39 is_stmt 1               # ./srad.cu:88:39
	movslq	-28(%rbp), %rdi
	.loc	1 88 37 is_stmt 0               # ./srad.cu:88:37
	shlq	$2, %rdi
	.loc	1 88 16                         # ./srad.cu:88:16
	callq	malloc@PLT
	.loc	1 88 5                          # ./srad.cu:88:5
	movq	%rax, -160(%rbp)
	.loc	1 120 48 is_stmt 1              # ./srad.cu:120:48
	movslq	-28(%rbp), %rsi
	.loc	1 120 46 is_stmt 0              # ./srad.cu:120:46
	shlq	$2, %rsi
	.loc	1 120 3                         # ./srad.cu:120:3
	leaq	-96(%rbp), %rdi
	callq	cudaMalloc@PLT
	.loc	1 121 48 is_stmt 1              # ./srad.cu:121:48
	movslq	-28(%rbp), %rsi
	.loc	1 121 46 is_stmt 0              # ./srad.cu:121:46
	shlq	$2, %rsi
	.loc	1 121 3                         # ./srad.cu:121:3
	leaq	-104(%rbp), %rdi
	callq	cudaMalloc@PLT
	.loc	1 122 45 is_stmt 1              # ./srad.cu:122:45
	movslq	-28(%rbp), %rsi
	.loc	1 122 43 is_stmt 0              # ./srad.cu:122:43
	shlq	$2, %rsi
	.loc	1 122 3                         # ./srad.cu:122:3
	leaq	-112(%rbp), %rdi
	callq	cudaMalloc@PLT
	.loc	1 123 45 is_stmt 1              # ./srad.cu:123:45
	movslq	-28(%rbp), %rsi
	.loc	1 123 43 is_stmt 0              # ./srad.cu:123:43
	shlq	$2, %rsi
	.loc	1 123 3                         # ./srad.cu:123:3
	leaq	-120(%rbp), %rdi
	callq	cudaMalloc@PLT
	.loc	1 124 45 is_stmt 1              # ./srad.cu:124:45
	movslq	-28(%rbp), %rsi
	.loc	1 124 43 is_stmt 0              # ./srad.cu:124:43
	shlq	$2, %rsi
	.loc	1 124 3                         # ./srad.cu:124:3
	leaq	-136(%rbp), %rdi
	callq	cudaMalloc@PLT
	.loc	1 125 45 is_stmt 1              # ./srad.cu:125:45
	movslq	-28(%rbp), %rsi
	.loc	1 125 43 is_stmt 0              # ./srad.cu:125:43
	shlq	$2, %rsi
	.loc	1 125 3                         # ./srad.cu:125:3
	leaq	-128(%rbp), %rdi
	callq	cudaMalloc@PLT
	.loc	1 129 3 is_stmt 1               # ./srad.cu:129:3
	leaq	.L.str.13(%rip), %rdi
	movb	$0, %al
	callq	printf@PLT
	.loc	1 131 17                        # ./srad.cu:131:17
	movq	-48(%rbp), %rdi
	.loc	1 131 20 is_stmt 0              # ./srad.cu:131:20
	movl	-20(%rbp), %esi
	.loc	1 131 26                        # ./srad.cu:131:26
	movl	-24(%rbp), %edx
	.loc	1 131 3                         # ./srad.cu:131:3
	callq	_Z13random_matrixPfii
.Ltmp18:
	.loc	1 133 12 is_stmt 1              # ./srad.cu:133:12
	movl	$0, -164(%rbp)
.LBB4_7:                                # %for.cond
                                        # =>This Inner Loop Header: Depth=1
.Ltmp19:
	.loc	1 133 19 is_stmt 0              # ./srad.cu:133:19
	movl	-164(%rbp), %eax
	.loc	1 133 21                        # ./srad.cu:133:21
	cmpl	-28(%rbp), %eax
.Ltmp20:
	.loc	1 133 3                         # ./srad.cu:133:3
	jge	.LBB4_10
# %bb.8:                                # %for.body
                                        #   in Loop: Header=BB4_7 Depth=1
.Ltmp21:
	.loc	1 134 23 is_stmt 1              # ./srad.cu:134:23
	movq	-48(%rbp), %rax
	movslq	-164(%rbp), %rcx
	movss	(%rax,%rcx,4), %xmm0            # xmm0 = mem[0],zero,zero,zero
	.loc	1 134 19 is_stmt 0              # ./srad.cu:134:19
	callq	_ZSt3expf
	.loc	1 134 5                         # ./srad.cu:134:5
	movq	-56(%rbp), %rax
	movslq	-164(%rbp), %rcx
	.loc	1 134 10                        # ./srad.cu:134:10
	movss	%xmm0, (%rax,%rcx,4)
.Ltmp22:
# %bb.9:                                # %for.inc
                                        #   in Loop: Header=BB4_7 Depth=1
	.loc	1 133 32 is_stmt 1              # ./srad.cu:133:32
	movl	-164(%rbp), %eax
	addl	$1, %eax
	movl	%eax, -164(%rbp)
	.loc	1 133 3 is_stmt 0               # ./srad.cu:133:3
	jmp	.LBB4_7
.Ltmp23:
.LBB4_10:                               # %for.end
	.loc	1 136 3 is_stmt 1               # ./srad.cu:136:3
	leaq	.L.str.14(%rip), %rdi
	movb	$0, %al
	callq	printf@PLT
.Ltmp24:
	.loc	1 137 13                        # ./srad.cu:137:13
	movl	$0, -40(%rbp)
.LBB4_11:                               # %for.cond60
                                        # =>This Loop Header: Depth=1
                                        #     Child Loop BB4_13 Depth 2
                                        #       Child Loop BB4_15 Depth 3
.Ltmp25:
	.loc	1 137 18 is_stmt 0              # ./srad.cu:137:18
	movl	-40(%rbp), %eax
	.loc	1 137 23                        # ./srad.cu:137:23
	cmpl	-36(%rbp), %eax
.Ltmp26:
	.loc	1 137 3                         # ./srad.cu:137:3
	jge	.LBB4_26
# %bb.12:                               # %for.body62
                                        #   in Loop: Header=BB4_11 Depth=1
.Ltmp27:
	.loc	1 138 9 is_stmt 1               # ./srad.cu:138:9
	xorps	%xmm0, %xmm0
	movss	%xmm0, -68(%rbp)
	.loc	1 139 10                        # ./srad.cu:139:10
	xorps	%xmm0, %xmm0
	movss	%xmm0, -72(%rbp)
.Ltmp28:
	.loc	1 140 18                        # ./srad.cu:140:18
	movl	-140(%rbp), %eax
	.loc	1 140 14 is_stmt 0              # ./srad.cu:140:14
	movl	%eax, -168(%rbp)
.LBB4_13:                               # %for.cond63
                                        #   Parent Loop BB4_11 Depth=1
                                        # =>  This Loop Header: Depth=2
                                        #       Child Loop BB4_15 Depth 3
.Ltmp29:
	.loc	1 140 22                        # ./srad.cu:140:22
	movl	-168(%rbp), %eax
	.loc	1 140 24                        # ./srad.cu:140:24
	cmpl	-144(%rbp), %eax
.Ltmp30:
	.loc	1 140 5                         # ./srad.cu:140:5
	ja	.LBB4_20
# %bb.14:                               # %for.body65
                                        #   in Loop: Header=BB4_13 Depth=2
.Ltmp31:
	.loc	1 141 20 is_stmt 1              # ./srad.cu:141:20
	movl	-148(%rbp), %eax
	.loc	1 141 16 is_stmt 0              # ./srad.cu:141:16
	movl	%eax, -172(%rbp)
.LBB4_15:                               # %for.cond66
                                        #   Parent Loop BB4_11 Depth=1
                                        #     Parent Loop BB4_13 Depth=2
                                        # =>    This Inner Loop Header: Depth=3
.Ltmp32:
	.loc	1 141 24                        # ./srad.cu:141:24
	movl	-172(%rbp), %eax
	.loc	1 141 26                        # ./srad.cu:141:26
	cmpl	-152(%rbp), %eax
.Ltmp33:
	.loc	1 141 7                         # ./srad.cu:141:7
	ja	.LBB4_18
# %bb.16:                               # %for.body68
                                        #   in Loop: Header=BB4_15 Depth=3
.Ltmp34:
	.loc	1 142 15 is_stmt 1              # ./srad.cu:142:15
	movq	-56(%rbp), %rax
	.loc	1 142 17 is_stmt 0              # ./srad.cu:142:17
	movl	-168(%rbp), %ecx
	.loc	1 142 19                        # ./srad.cu:142:19
	imull	-24(%rbp), %ecx
	.loc	1 142 26                        # ./srad.cu:142:26
	addl	-172(%rbp), %ecx
	.loc	1 142 15                        # ./srad.cu:142:15
	movslq	%ecx, %rcx
	movss	(%rax,%rcx,4), %xmm0            # xmm0 = mem[0],zero,zero,zero
	.loc	1 142 13                        # ./srad.cu:142:13
	movss	%xmm0, -76(%rbp)
	.loc	1 143 16 is_stmt 1              # ./srad.cu:143:16
	movss	-76(%rbp), %xmm0                # xmm0 = mem[0],zero,zero,zero
	.loc	1 143 13 is_stmt 0              # ./srad.cu:143:13
	addss	-68(%rbp), %xmm0
	movss	%xmm0, -68(%rbp)
	.loc	1 144 17 is_stmt 1              # ./srad.cu:144:17
	movss	-76(%rbp), %xmm0                # xmm0 = mem[0],zero,zero,zero
	.loc	1 144 23 is_stmt 0              # ./srad.cu:144:23
	movss	-76(%rbp), %xmm2                # xmm2 = mem[0],zero,zero,zero
	.loc	1 144 14                        # ./srad.cu:144:14
	movss	-72(%rbp), %xmm1                # xmm1 = mem[0],zero,zero,zero
	mulss	%xmm2, %xmm0
	addss	%xmm1, %xmm0
	movss	%xmm0, -72(%rbp)
.Ltmp35:
# %bb.17:                               # %for.inc75
                                        #   in Loop: Header=BB4_15 Depth=3
	.loc	1 141 34 is_stmt 1              # ./srad.cu:141:34
	movl	-172(%rbp), %eax
	addl	$1, %eax
	movl	%eax, -172(%rbp)
	.loc	1 141 7 is_stmt 0               # ./srad.cu:141:7
	jmp	.LBB4_15
.Ltmp36:
.LBB4_18:                               # %for.end77
                                        #   in Loop: Header=BB4_13 Depth=2
	.loc	1 146 5 is_stmt 1               # ./srad.cu:146:5
	jmp	.LBB4_19
.Ltmp37:
.LBB4_19:                               # %for.inc78
                                        #   in Loop: Header=BB4_13 Depth=2
	.loc	1 140 32                        # ./srad.cu:140:32
	movl	-168(%rbp), %eax
	addl	$1, %eax
	movl	%eax, -168(%rbp)
	.loc	1 140 5 is_stmt 0               # ./srad.cu:140:5
	jmp	.LBB4_13
.Ltmp38:
.LBB4_20:                               # %for.end80
                                        #   in Loop: Header=BB4_11 Depth=1
	.loc	1 147 15 is_stmt 1              # ./srad.cu:147:15
	movss	-68(%rbp), %xmm0                # xmm0 = mem[0],zero,zero,zero
	.loc	1 147 21 is_stmt 0              # ./srad.cu:147:21
	cvtsi2ssl	-32(%rbp), %xmm1
	.loc	1 147 19                        # ./srad.cu:147:19
	divss	%xmm1, %xmm0
	.loc	1 147 13                        # ./srad.cu:147:13
	movss	%xmm0, -80(%rbp)
	.loc	1 148 15 is_stmt 1              # ./srad.cu:148:15
	movss	-72(%rbp), %xmm1                # xmm1 = mem[0],zero,zero,zero
	.loc	1 148 22 is_stmt 0              # ./srad.cu:148:22
	cvtsi2ssl	-32(%rbp), %xmm0
	.loc	1 148 20                        # ./srad.cu:148:20
	divss	%xmm0, %xmm1
	.loc	1 148 32                        # ./srad.cu:148:32
	movss	-80(%rbp), %xmm0                # xmm0 = mem[0],zero,zero,zero
	.loc	1 148 42                        # ./srad.cu:148:42
	movss	-80(%rbp), %xmm2                # xmm2 = mem[0],zero,zero,zero
	.loc	1 148 30                        # ./srad.cu:148:30
	movd	%xmm0, %eax
	xorl	$2147483648, %eax               # imm = 0x80000000
	movd	%eax, %xmm0
	mulss	%xmm2, %xmm0
	addss	%xmm1, %xmm0
	.loc	1 148 12                        # ./srad.cu:148:12
	movss	%xmm0, -84(%rbp)
	.loc	1 149 13 is_stmt 1              # ./srad.cu:149:13
	movss	-84(%rbp), %xmm0                # xmm0 = mem[0],zero,zero,zero
	.loc	1 149 23 is_stmt 0              # ./srad.cu:149:23
	movss	-80(%rbp), %xmm1                # xmm1 = mem[0],zero,zero,zero
	.loc	1 149 31                        # ./srad.cu:149:31
	mulss	-80(%rbp), %xmm1
	.loc	1 149 20                        # ./srad.cu:149:20
	divss	%xmm1, %xmm0
	.loc	1 149 11                        # ./srad.cu:149:11
	movss	%xmm0, -64(%rbp)
	.loc	1 211 19 is_stmt 1              # ./srad.cu:211:19
	movl	-24(%rbp), %eax
	.loc	1 211 24 is_stmt 0              # ./srad.cu:211:24
	movl	$4, %ecx
	cltd
	idivl	%ecx
	.loc	1 211 9                         # ./srad.cu:211:9
	movl	%eax, -176(%rbp)
	.loc	1 212 19 is_stmt 1              # ./srad.cu:212:19
	movl	-20(%rbp), %eax
	.loc	1 212 24 is_stmt 0              # ./srad.cu:212:24
	movl	$4, %ecx
	cltd
	idivl	%ecx
	.loc	1 212 9                         # ./srad.cu:212:9
	movl	%eax, -180(%rbp)
	.loc	1 214 10 is_stmt 1              # ./srad.cu:214:10
	leaq	-192(%rbp), %rdi
	movl	$4, %edx
	movl	$1, %ecx
	movl	%edx, %esi
	callq	_ZN4dim3C2Ejjj
	.loc	1 215 18                        # ./srad.cu:215:18
	movl	-176(%rbp), %esi
	.loc	1 215 27 is_stmt 0              # ./srad.cu:215:27
	movl	-180(%rbp), %edx
	.loc	1 215 10                        # ./srad.cu:215:10
	leaq	-204(%rbp), %rdi
	movl	$1, %ecx
	callq	_ZN4dim3C2Ejjj
	.loc	1 218 16 is_stmt 1              # ./srad.cu:218:16
	movq	-96(%rbp), %rdi
	.loc	1 218 24 is_stmt 0              # ./srad.cu:218:24
	movq	-56(%rbp), %rsi
	.loc	1 218 43                        # ./srad.cu:218:43
	movslq	-28(%rbp), %rdx
	.loc	1 218 41                        # ./srad.cu:218:41
	shlq	$2, %rdx
	.loc	1 218 5                         # ./srad.cu:218:5
	movl	$1, %ecx
	callq	cudaMemcpy@PLT
	.loc	1 221 19 is_stmt 1              # ./srad.cu:221:19
	movq	-204(%rbp), %rax
	movq	%rax, -216(%rbp)
	movl	-196(%rbp), %eax
	movl	%eax, -208(%rbp)
	.loc	1 221 28 is_stmt 0              # ./srad.cu:221:28
	movq	-192(%rbp), %rax
	movq	%rax, -228(%rbp)
	movl	-184(%rbp), %eax
	movl	%eax, -220(%rbp)
	.loc	1 221 16                        # ./srad.cu:221:16
	movq	-216(%rbp), %rax
	movq	%rax, -244(%rbp)
	movl	-208(%rbp), %eax
	movl	%eax, -236(%rbp)
	movq	-244(%rbp), %rdi
	movl	-236(%rbp), %esi
	movq	-228(%rbp), %rax
	movq	%rax, -260(%rbp)
	movl	-220(%rbp), %eax
	movl	%eax, -252(%rbp)
	movq	-260(%rbp), %rdx
	movl	-252(%rbp), %ecx
	xorl	%eax, %eax
	movl	%eax, %r9d
	movq	%r9, %r8
	callq	__cudaPushCallConfiguration@PLT
	cmpl	$0, %eax
	.loc	1 221 5                         # ./srad.cu:221:5
	jne	.LBB4_22
# %bb.21:                               # %kcall.configok
                                        #   in Loop: Header=BB4_11 Depth=1
	.loc	1 221 40                        # ./srad.cu:221:40
	movq	-112(%rbp), %rdi
	.loc	1 221 45                        # ./srad.cu:221:45
	movq	-120(%rbp), %rsi
	.loc	1 221 50                        # ./srad.cu:221:50
	movq	-128(%rbp), %rdx
	.loc	1 221 55                        # ./srad.cu:221:55
	movq	-136(%rbp), %rcx
	.loc	1 221 60                        # ./srad.cu:221:60
	movq	-96(%rbp), %r8
	.loc	1 221 68                        # ./srad.cu:221:68
	movq	-104(%rbp), %r9
	.loc	1 221 76                        # ./srad.cu:221:76
	movl	-24(%rbp), %r10d
	.loc	1 222 40 is_stmt 1              # ./srad.cu:222:40
	movl	-20(%rbp), %eax
	.loc	1 222 46 is_stmt 0              # ./srad.cu:222:46
	movss	-64(%rbp), %xmm0                # xmm0 = mem[0],zero,zero,zero
	.loc	1 221 5 is_stmt 1               # ./srad.cu:221:5
	movl	%r10d, (%rsp)
	movl	%eax, 8(%rsp)
	callq	_Z26__device_stub__srad_cuda_1PfS_S_S_S_S_iif
.LBB4_22:                               # %kcall.end
                                        #   in Loop: Header=BB4_11 Depth=1
	.loc	1 224 19                        # ./srad.cu:224:19
	movq	-204(%rbp), %rax
	movq	%rax, -272(%rbp)
	movl	-196(%rbp), %eax
	movl	%eax, -264(%rbp)
	.loc	1 224 28 is_stmt 0              # ./srad.cu:224:28
	movq	-192(%rbp), %rax
	movq	%rax, -284(%rbp)
	movl	-184(%rbp), %eax
	movl	%eax, -276(%rbp)
	.loc	1 224 16                        # ./srad.cu:224:16
	movq	-272(%rbp), %rax
	movq	%rax, -300(%rbp)
	movl	-264(%rbp), %eax
	movl	%eax, -292(%rbp)
	movq	-300(%rbp), %rdi
	movl	-292(%rbp), %esi
	movq	-284(%rbp), %rax
	movq	%rax, -316(%rbp)
	movl	-276(%rbp), %eax
	movl	%eax, -308(%rbp)
	movq	-316(%rbp), %rdx
	movl	-308(%rbp), %ecx
	xorl	%eax, %eax
	movl	%eax, %r9d
	movq	%r9, %r8
	callq	__cudaPushCallConfiguration@PLT
	cmpl	$0, %eax
	.loc	1 224 5                         # ./srad.cu:224:5
	jne	.LBB4_24
# %bb.23:                               # %kcall.configok98
                                        #   in Loop: Header=BB4_11 Depth=1
	.loc	1 224 40                        # ./srad.cu:224:40
	movq	-112(%rbp), %rdi
	.loc	1 224 45                        # ./srad.cu:224:45
	movq	-120(%rbp), %rsi
	.loc	1 224 50                        # ./srad.cu:224:50
	movq	-128(%rbp), %rdx
	.loc	1 224 55                        # ./srad.cu:224:55
	movq	-136(%rbp), %rcx
	.loc	1 224 60                        # ./srad.cu:224:60
	movq	-96(%rbp), %r8
	.loc	1 224 68                        # ./srad.cu:224:68
	movq	-104(%rbp), %r9
	.loc	1 224 76                        # ./srad.cu:224:76
	movl	-24(%rbp), %r10d
	.loc	1 225 40 is_stmt 1              # ./srad.cu:225:40
	movl	-20(%rbp), %eax
	.loc	1 225 46 is_stmt 0              # ./srad.cu:225:46
	movss	-60(%rbp), %xmm0                # xmm0 = mem[0],zero,zero,zero
	.loc	1 225 54                        # ./srad.cu:225:54
	movss	-64(%rbp), %xmm1                # xmm1 = mem[0],zero,zero,zero
	.loc	1 224 5 is_stmt 1               # ./srad.cu:224:5
	movl	%r10d, (%rsp)
	movl	%eax, 8(%rsp)
	callq	_Z26__device_stub__srad_cuda_2PfS_S_S_S_S_iiff
.LBB4_24:                               # %kcall.end99
                                        #   in Loop: Header=BB4_11 Depth=1
	.loc	1 229 16                        # ./srad.cu:229:16
	movq	-56(%rbp), %rdi
	.loc	1 229 19 is_stmt 0              # ./srad.cu:229:19
	movq	-96(%rbp), %rsi
	.loc	1 229 43                        # ./srad.cu:229:43
	movslq	-28(%rbp), %rdx
	.loc	1 229 41                        # ./srad.cu:229:41
	shlq	$2, %rdx
	.loc	1 229 5                         # ./srad.cu:229:5
	movl	$2, %ecx
	callq	cudaMemcpy@PLT
.Ltmp39:
# %bb.25:                               # %for.inc103
                                        #   in Loop: Header=BB4_11 Depth=1
	.loc	1 137 36 is_stmt 1              # ./srad.cu:137:36
	movl	-40(%rbp), %eax
	addl	$1, %eax
	movl	%eax, -40(%rbp)
	.loc	1 137 3 is_stmt 0               # ./srad.cu:137:3
	jmp	.LBB4_11
.Ltmp40:
.LBB4_26:                               # %for.end105
	.loc	1 234 3 is_stmt 1               # ./srad.cu:234:3
	callq	cudaThreadSynchronize@PLT
	.loc	1 238 3                         # ./srad.cu:238:3
	leaq	.L.str.15(%rip), %rdi
	movb	$0, %al
	callq	printf@PLT
.Ltmp41:
	.loc	1 239 12                        # ./srad.cu:239:12
	movl	$0, -320(%rbp)
.LBB4_27:                               # %for.cond109
                                        # =>This Loop Header: Depth=1
                                        #     Child Loop BB4_29 Depth 2
.Ltmp42:
	.loc	1 239 21 is_stmt 0              # ./srad.cu:239:21
	cmpl	$20, -320(%rbp)
.Ltmp43:
	.loc	1 239 3                         # ./srad.cu:239:3
	jge	.LBB4_34
# %bb.28:                               # %for.body111
                                        #   in Loop: Header=BB4_27 Depth=1
.Ltmp44:
	.loc	1 240 14 is_stmt 1              # ./srad.cu:240:14
	movl	$0, -324(%rbp)
.LBB4_29:                               # %for.cond113
                                        #   Parent Loop BB4_27 Depth=1
                                        # =>  This Inner Loop Header: Depth=2
.Ltmp45:
	.loc	1 240 23 is_stmt 0              # ./srad.cu:240:23
	cmpl	$20, -324(%rbp)
.Ltmp46:
	.loc	1 240 5                         # ./srad.cu:240:5
	jge	.LBB4_32
# %bb.30:                               # %for.body115
                                        #   in Loop: Header=BB4_29 Depth=2
.Ltmp47:
	.loc	1 241 23 is_stmt 1              # ./srad.cu:241:23
	movq	-56(%rbp), %rax
	.loc	1 241 25 is_stmt 0              # ./srad.cu:241:25
	movl	-320(%rbp), %ecx
	.loc	1 241 27                        # ./srad.cu:241:27
	imull	-24(%rbp), %ecx
	.loc	1 241 34                        # ./srad.cu:241:34
	addl	-324(%rbp), %ecx
	.loc	1 241 23                        # ./srad.cu:241:23
	movslq	%ecx, %rcx
	movss	(%rax,%rcx,4), %xmm0            # xmm0 = mem[0],zero,zero,zero
	cvtss2sd	%xmm0, %xmm0
	.loc	1 241 7                         # ./srad.cu:241:7
	leaq	.L.str.16(%rip), %rdi
	movb	$1, %al
	callq	printf@PLT
.Ltmp48:
# %bb.31:                               # %for.inc122
                                        #   in Loop: Header=BB4_29 Depth=2
	.loc	1 240 30 is_stmt 1              # ./srad.cu:240:30
	movl	-324(%rbp), %eax
	addl	$1, %eax
	movl	%eax, -324(%rbp)
	.loc	1 240 5 is_stmt 0               # ./srad.cu:240:5
	jmp	.LBB4_29
.Ltmp49:
.LBB4_32:                               # %for.end124
                                        #   in Loop: Header=BB4_27 Depth=1
	.loc	1 243 5 is_stmt 1               # ./srad.cu:243:5
	leaq	.L.str.17(%rip), %rdi
	movb	$0, %al
	callq	printf@PLT
.Ltmp50:
# %bb.33:                               # %for.inc126
                                        #   in Loop: Header=BB4_27 Depth=1
	.loc	1 239 28                        # ./srad.cu:239:28
	movl	-320(%rbp), %eax
	addl	$1, %eax
	movl	%eax, -320(%rbp)
	.loc	1 239 3 is_stmt 0               # ./srad.cu:239:3
	jmp	.LBB4_27
.Ltmp51:
.LBB4_34:                               # %for.end128
	.loc	1 247 3 is_stmt 1               # ./srad.cu:247:3
	leaq	.L.str.18(%rip), %rdi
	movb	$0, %al
	callq	printf@PLT
	.loc	1 249 8                         # ./srad.cu:249:8
	movq	-48(%rbp), %rdi
	.loc	1 249 3 is_stmt 0               # ./srad.cu:249:3
	callq	free@PLT
	.loc	1 250 8 is_stmt 1               # ./srad.cu:250:8
	movq	-56(%rbp), %rdi
	.loc	1 250 3 is_stmt 0               # ./srad.cu:250:3
	callq	free@PLT
	.loc	1 262 12 is_stmt 1              # ./srad.cu:262:12
	movq	-104(%rbp), %rdi
	.loc	1 262 3 is_stmt 0               # ./srad.cu:262:3
	callq	cudaFree@PLT
	.loc	1 263 12 is_stmt 1              # ./srad.cu:263:12
	movq	-96(%rbp), %rdi
	.loc	1 263 3 is_stmt 0               # ./srad.cu:263:3
	callq	cudaFree@PLT
	.loc	1 264 12 is_stmt 1              # ./srad.cu:264:12
	movq	-112(%rbp), %rdi
	.loc	1 264 3 is_stmt 0               # ./srad.cu:264:3
	callq	cudaFree@PLT
	.loc	1 265 12 is_stmt 1              # ./srad.cu:265:12
	movq	-120(%rbp), %rdi
	.loc	1 265 3 is_stmt 0               # ./srad.cu:265:3
	callq	cudaFree@PLT
	.loc	1 266 12 is_stmt 1              # ./srad.cu:266:12
	movq	-128(%rbp), %rdi
	.loc	1 266 3 is_stmt 0               # ./srad.cu:266:3
	callq	cudaFree@PLT
	.loc	1 267 12 is_stmt 1              # ./srad.cu:267:12
	movq	-136(%rbp), %rdi
	.loc	1 267 3 is_stmt 0               # ./srad.cu:267:3
	callq	cudaFree@PLT
	.loc	1 269 8 is_stmt 1               # ./srad.cu:269:8
	movq	-160(%rbp), %rdi
	.loc	1 269 3 is_stmt 0               # ./srad.cu:269:3
	callq	free@PLT
	.loc	1 270 1 epilogue_begin is_stmt 1 # ./srad.cu:270:1
	addq	$352, %rsp                      # imm = 0x160
	popq	%rbp
	.cfi_def_cfa %rsp, 8
	retq
.Ltmp52:
.Lfunc_end4:
	.size	_Z7runTestiPPc, .Lfunc_end4-_Z7runTestiPPc
	.cfi_endproc
                                        # -- End function
	.globl	_Z13random_matrixPfii           # -- Begin function _Z13random_matrixPfii
	.p2align	4, 0x90
	.type	_Z13random_matrixPfii,@function
_Z13random_matrixPfii:                  # @_Z13random_matrixPfii
.Lfunc_begin5:
	.loc	1 272 0                         # ./srad.cu:272:0
	.cfi_startproc
# %bb.0:                                # %entry
	pushq	%rbp
	.cfi_def_cfa_offset 16
	.cfi_offset %rbp, -16
	movq	%rsp, %rbp
	.cfi_def_cfa_register %rbp
	subq	$32, %rsp
	movq	%rdi, -8(%rbp)
	movl	%esi, -12(%rbp)
	movl	%edx, -16(%rbp)
.Ltmp53:
	.loc	1 274 3 prologue_end            # ./srad.cu:274:3
	movl	$7, %edi
	callq	srand@PLT
.Ltmp54:
	.loc	1 276 12                        # ./srad.cu:276:12
	movl	$0, -20(%rbp)
.LBB5_1:                                # %for.cond
                                        # =>This Loop Header: Depth=1
                                        #     Child Loop BB5_3 Depth 2
.Ltmp55:
	.loc	1 276 19 is_stmt 0              # ./srad.cu:276:19
	movl	-20(%rbp), %eax
	.loc	1 276 21                        # ./srad.cu:276:21
	cmpl	-12(%rbp), %eax
.Ltmp56:
	.loc	1 276 3                         # ./srad.cu:276:3
	jge	.LBB5_8
# %bb.2:                                # %for.body
                                        #   in Loop: Header=BB5_1 Depth=1
.Ltmp57:
	.loc	1 277 14 is_stmt 1              # ./srad.cu:277:14
	movl	$0, -24(%rbp)
.LBB5_3:                                # %for.cond1
                                        #   Parent Loop BB5_1 Depth=1
                                        # =>  This Inner Loop Header: Depth=2
.Ltmp58:
	.loc	1 277 21 is_stmt 0              # ./srad.cu:277:21
	movl	-24(%rbp), %eax
	.loc	1 277 23                        # ./srad.cu:277:23
	cmpl	-16(%rbp), %eax
.Ltmp59:
	.loc	1 277 5                         # ./srad.cu:277:5
	jge	.LBB5_6
# %bb.4:                                # %for.body3
                                        #   in Loop: Header=BB5_3 Depth=2
.Ltmp60:
	.loc	1 279 26 is_stmt 1              # ./srad.cu:279:26
	movl	-20(%rbp), %eax
	.loc	1 279 28 is_stmt 0              # ./srad.cu:279:28
	imull	-16(%rbp), %eax
	.loc	1 279 35                        # ./srad.cu:279:35
	addl	-24(%rbp), %eax
	.loc	1 279 25                        # ./srad.cu:279:25
	cvtsi2ss	%eax, %xmm0
	.loc	1 279 48                        # ./srad.cu:279:48
	movl	-12(%rbp), %eax
	.loc	1 279 52                        # ./srad.cu:279:52
	imull	-16(%rbp), %eax
	.loc	1 279 47                        # ./srad.cu:279:47
	cvtsi2ss	%eax, %xmm1
	.loc	1 279 39                        # ./srad.cu:279:39
	divss	%xmm1, %xmm0
	.loc	1 279 7                         # ./srad.cu:279:7
	movq	-8(%rbp), %rax
	.loc	1 279 9                         # ./srad.cu:279:9
	movl	-20(%rbp), %ecx
	.loc	1 279 11                        # ./srad.cu:279:11
	imull	-16(%rbp), %ecx
	.loc	1 279 18                        # ./srad.cu:279:18
	addl	-24(%rbp), %ecx
	.loc	1 279 7                         # ./srad.cu:279:7
	movslq	%ecx, %rcx
	.loc	1 279 23                        # ./srad.cu:279:23
	movss	%xmm0, (%rax,%rcx,4)
.Ltmp61:
# %bb.5:                                # %for.inc
                                        #   in Loop: Header=BB5_3 Depth=2
	.loc	1 277 32 is_stmt 1              # ./srad.cu:277:32
	movl	-24(%rbp), %eax
	addl	$1, %eax
	movl	%eax, -24(%rbp)
	.loc	1 277 5 is_stmt 0               # ./srad.cu:277:5
	jmp	.LBB5_3
.Ltmp62:
.LBB5_6:                                # %for.end
                                        #   in Loop: Header=BB5_1 Depth=1
	.loc	1 281 3 is_stmt 1               # ./srad.cu:281:3
	jmp	.LBB5_7
.Ltmp63:
.LBB5_7:                                # %for.inc8
                                        #   in Loop: Header=BB5_1 Depth=1
	.loc	1 276 30                        # ./srad.cu:276:30
	movl	-20(%rbp), %eax
	addl	$1, %eax
	movl	%eax, -20(%rbp)
	.loc	1 276 3 is_stmt 0               # ./srad.cu:276:3
	jmp	.LBB5_1
.Ltmp64:
.LBB5_8:                                # %for.end10
	.loc	1 282 1 epilogue_begin is_stmt 1 # ./srad.cu:282:1
	addq	$32, %rsp
	popq	%rbp
	.cfi_def_cfa %rsp, 8
	retq
.Ltmp65:
.Lfunc_end5:
	.size	_Z13random_matrixPfii, .Lfunc_end5-_Z13random_matrixPfii
	.cfi_endproc
                                        # -- End function
	.section	.text._ZSt3expf,"axG",@progbits,_ZSt3expf,comdat
	.weak	_ZSt3expf                       # -- Begin function _ZSt3expf
	.p2align	4, 0x90
	.type	_ZSt3expf,@function
_ZSt3expf:                              # @_ZSt3expf
.Lfunc_begin6:
	.file	6 "/usr/lib/gcc/x86_64-linux-gnu/13/../../../../include/c++/13" "cmath"
	.loc	6 216 0                         # /usr/lib/gcc/x86_64-linux-gnu/13/../../../../include/c++/13/cmath:216:0
	.cfi_startproc
# %bb.0:                                # %entry
	pushq	%rbp
	.cfi_def_cfa_offset 16
	.cfi_offset %rbp, -16
	movq	%rsp, %rbp
	.cfi_def_cfa_register %rbp
	subq	$16, %rsp
	movss	%xmm0, -4(%rbp)
.Ltmp66:
	.loc	6 216 27 prologue_end           # /usr/lib/gcc/x86_64-linux-gnu/13/../../../../include/c++/13/cmath:216:27
	movss	-4(%rbp), %xmm0                 # xmm0 = mem[0],zero,zero,zero
	.loc	6 216 12 is_stmt 0              # /usr/lib/gcc/x86_64-linux-gnu/13/../../../../include/c++/13/cmath:216:12
	callq	expf@PLT
	.loc	6 216 5 epilogue_begin          # /usr/lib/gcc/x86_64-linux-gnu/13/../../../../include/c++/13/cmath:216:5
	addq	$16, %rsp
	popq	%rbp
	.cfi_def_cfa %rsp, 8
	retq
.Ltmp67:
.Lfunc_end6:
	.size	_ZSt3expf, .Lfunc_end6-_ZSt3expf
	.cfi_endproc
                                        # -- End function
	.section	.text._ZN4dim3C2Ejjj,"axG",@progbits,_ZN4dim3C2Ejjj,comdat
	.weak	_ZN4dim3C2Ejjj                  # -- Begin function _ZN4dim3C2Ejjj
	.p2align	4, 0x90
	.type	_ZN4dim3C2Ejjj,@function
_ZN4dim3C2Ejjj:                         # @_ZN4dim3C2Ejjj
.Lfunc_begin7:
	.loc	4 423 0 is_stmt 1               # cuda-12.1/include/vector_types.h:423:0
	.cfi_startproc
# %bb.0:                                # %entry
	pushq	%rbp
	.cfi_def_cfa_offset 16
	.cfi_offset %rbp, -16
	movq	%rsp, %rbp
	.cfi_def_cfa_register %rbp
	movq	%rdi, -8(%rbp)
	movl	%esi, -12(%rbp)
	movl	%edx, -16(%rbp)
	movl	%ecx, -20(%rbp)
	movq	-8(%rbp), %rax
.Ltmp68:
	.loc	4 423 133 prologue_end          # cuda-12.1/include/vector_types.h:423:133
	movl	-12(%rbp), %ecx
	.loc	4 423 131 is_stmt 0             # cuda-12.1/include/vector_types.h:423:131
	movl	%ecx, (%rax)
	.loc	4 423 140                       # cuda-12.1/include/vector_types.h:423:140
	movl	-16(%rbp), %ecx
	.loc	4 423 138                       # cuda-12.1/include/vector_types.h:423:138
	movl	%ecx, 4(%rax)
	.loc	4 423 147                       # cuda-12.1/include/vector_types.h:423:147
	movl	-20(%rbp), %ecx
	.loc	4 423 145                       # cuda-12.1/include/vector_types.h:423:145
	movl	%ecx, 8(%rax)
	.loc	4 423 152 epilogue_begin        # cuda-12.1/include/vector_types.h:423:152
	popq	%rbp
	.cfi_def_cfa %rsp, 8
	retq
.Ltmp69:
.Lfunc_end7:
	.size	_ZN4dim3C2Ejjj, .Lfunc_end7-_ZN4dim3C2Ejjj
	.cfi_endproc
                                        # -- End function
	.text
	.p2align	4, 0x90                         # -- Begin function __cuda_register_globals
	.type	__cuda_register_globals,@function
__cuda_register_globals:                # @__cuda_register_globals
.Lfunc_begin8:
	.cfi_startproc
# %bb.0:                                # %entry
	subq	$40, %rsp
	.cfi_def_cfa_offset 48
	movq	%rdi, 32(%rsp)                  # 8-byte Spill
	leaq	_Z26__device_stub__srad_cuda_1PfS_S_S_S_S_iif(%rip), %rsi
	leaq	.L__unnamed_1(%rip), %rcx
	movl	$4294967295, %r8d               # imm = 0xFFFFFFFF
	xorl	%eax, %eax
	movl	%eax, %r9d
	movq	%rcx, %rdx
	movq	$0, (%rsp)
	movq	$0, 8(%rsp)
	movq	$0, 16(%rsp)
	movq	$0, 24(%rsp)
	callq	__cudaRegisterFunction@PLT
	movq	32(%rsp), %rdi                  # 8-byte Reload
	leaq	_Z26__device_stub__srad_cuda_2PfS_S_S_S_S_iiff(%rip), %rsi
	leaq	.L__unnamed_2(%rip), %rcx
	movl	$4294967295, %r8d               # imm = 0xFFFFFFFF
	xorl	%eax, %eax
	movl	%eax, %r9d
	movq	%rcx, %rdx
	movq	$0, (%rsp)
	movq	$0, 8(%rsp)
	movq	$0, 16(%rsp)
	movq	$0, 24(%rsp)
	callq	__cudaRegisterFunction@PLT
	addq	$40, %rsp
	.cfi_def_cfa_offset 8
	retq
.Lfunc_end8:
	.size	__cuda_register_globals, .Lfunc_end8-__cuda_register_globals
	.cfi_endproc
                                        # -- End function
	.p2align	4, 0x90                         # -- Begin function __cuda_module_ctor
	.type	__cuda_module_ctor,@function
__cuda_module_ctor:                     # @__cuda_module_ctor
.Lfunc_begin9:
	.cfi_startproc
# %bb.0:                                # %entry
	pushq	%rax
	.cfi_def_cfa_offset 16
	leaq	__cuda_fatbin_wrapper(%rip), %rdi
	callq	__cudaRegisterFatBinary@PLT
	movq	%rax, %rdi
	movq	%rdi, (%rsp)                    # 8-byte Spill
	movq	%rdi, __cuda_gpubin_handle(%rip)
	callq	__cuda_register_globals
	movq	(%rsp), %rdi                    # 8-byte Reload
	callq	__cudaRegisterFatBinaryEnd@PLT
	leaq	__cuda_module_dtor(%rip), %rdi
	callq	atexit@PLT
	popq	%rax
	.cfi_def_cfa_offset 8
	retq
.Lfunc_end9:
	.size	__cuda_module_ctor, .Lfunc_end9-__cuda_module_ctor
	.cfi_endproc
                                        # -- End function
	.p2align	4, 0x90                         # -- Begin function __cuda_module_dtor
	.type	__cuda_module_dtor,@function
__cuda_module_dtor:                     # @__cuda_module_dtor
.Lfunc_begin10:
	.cfi_startproc
# %bb.0:                                # %entry
	pushq	%rax
	.cfi_def_cfa_offset 16
	movq	__cuda_gpubin_handle(%rip), %rdi
	callq	__cudaUnregisterFatBinary@PLT
	popq	%rax
	.cfi_def_cfa_offset 8
	retq
.Lfunc_end10:
	.size	__cuda_module_dtor, .Lfunc_end10-__cuda_module_dtor
	.cfi_endproc
                                        # -- End function
	.type	.L.str,@object                  # @.str
	.section	.rodata.str1.1,"aMS",@progbits,1
.L.str:
	.asciz	"Usage: %s <rows> <cols> <y1> <y2> <x1> <x2> <lamda> <no. of iter>\n"
	.size	.L.str, 67

	.type	.L.str.1,@object                # @.str.1
.L.str.1:
	.asciz	"\t<rows>   - number of rows\n"
	.size	.L.str.1, 28

	.type	.L.str.2,@object                # @.str.2
.L.str.2:
	.asciz	"\t<cols>    - number of cols\n"
	.size	.L.str.2, 29

	.type	.L.str.3,@object                # @.str.3
.L.str.3:
	.asciz	"\t<y1> \t - y1 value of the speckle\n"
	.size	.L.str.3, 35

	.type	.L.str.4,@object                # @.str.4
.L.str.4:
	.asciz	"\t<y2>      - y2 value of the speckle\n"
	.size	.L.str.4, 38

	.type	.L.str.5,@object                # @.str.5
.L.str.5:
	.asciz	"\t<x1>       - x1 value of the speckle\n"
	.size	.L.str.5, 39

	.type	.L.str.6,@object                # @.str.6
.L.str.6:
	.asciz	"\t<x2>       - x2 value of the speckle\n"
	.size	.L.str.6, 39

	.type	.L.str.7,@object                # @.str.7
.L.str.7:
	.asciz	"\t<lamda>   - lambda (0,1)\n"
	.size	.L.str.7, 27

	.type	.L.str.8,@object                # @.str.8
.L.str.8:
	.asciz	"\t<no. of iter>   - number of iterations\n"
	.size	.L.str.8, 41

	.type	.L.str.9,@object                # @.str.9
.L.str.9:
	.asciz	"WG size of kernel = %d X %d\n"
	.size	.L.str.9, 29

	.type	.L.str.10,@object               # @.str.10
.L.str.10:
	.asciz	"GPU is on!!!"
	.size	.L.str.10, 13

	.type	.L.str.11,@object               # @.str.11
.L.str.11:
	.asciz	"rows and cols must be multiples of 16\n"
	.size	.L.str.11, 39

	.type	.L.str.12,@object               # @.str.12
.L.str.12:
	.asciz	"size_I, size_R %d %d"
	.size	.L.str.12, 21

	.type	.L.str.13,@object               # @.str.13
.L.str.13:
	.asciz	"Randomizing the input matrix\n"
	.size	.L.str.13, 30

	.type	.L.str.14,@object               # @.str.14
.L.str.14:
	.asciz	"Start the SRAD main loop\n"
	.size	.L.str.14, 26

	.type	.L.str.15,@object               # @.str.15
.L.str.15:
	.asciz	"Printing Output:\n"
	.size	.L.str.15, 18

	.type	.L.str.16,@object               # @.str.16
.L.str.16:
	.asciz	"%.5f "
	.size	.L.str.16, 6

	.type	.L.str.17,@object               # @.str.17
.L.str.17:
	.asciz	"\n"
	.size	.L.str.17, 2

	.type	.L.str.18,@object               # @.str.18
.L.str.18:
	.asciz	"Computation Done\n"
	.size	.L.str.18, 18

	.type	.L__unnamed_1,@object           # @0
.L__unnamed_1:
	.asciz	"_Z11srad_cuda_1PfS_S_S_S_S_iif"
	.size	.L__unnamed_1, 31

	.type	.L__unnamed_2,@object           # @1
.L__unnamed_2:
	.asciz	"_Z11srad_cuda_2PfS_S_S_S_S_iiff"
	.size	.L__unnamed_2, 32

	.type	.L__unnamed_3,@object           # @2
	.section	.nv_fatbin,"a",@progbits
	.p2align	3, 0x0
.L__unnamed_3:
