
kernel.elf:	file format elf64-littleriscv

Disassembly of section .init:

0000000180000000 <_start>:
180000000: f3 22 10 fc 	csrr	t0, nw
180000004: 17 33 00 00 	auipc	t1, 0x3
180000008: 13 03 43 6d 	addi	t1, t1, 0x6d4
18000000c: 0b 90 62 00 	vx_wspawn	t0, t1
180000010: 93 02 f0 ff 	li	t0, -0x1
180000014: 0b 80 02 00 	vx_tmc	t0
180000018: ef 30 80 67 	jal	0x180003690 <init_regs>
18000001c: 93 02 10 00 	li	t0, 0x1
180000020: 0b 80 02 00 	vx_tmc	t0
180000024: f3 22 10 fc 	csrr	t0, nw
180000028: 17 33 00 00 	auipc	t1, 0x3
18000002c: 13 03 43 6c 	addi	t1, t1, 0x6c4
180000030: 0b 90 62 00 	vx_wspawn	t0, t1
180000034: 93 02 f0 ff 	li	t0, -0x1
180000038: 0b 80 02 00 	vx_tmc	t0
18000003c: ef 30 40 6c 	jal	0x180003700 <__init_tls>
180000040: 93 02 10 00 	li	t0, 0x1
180000044: 0b 80 02 00 	vx_tmc	t0
180000048: 17 75 00 00 	auipc	a0, 0x7
18000004c: 13 05 85 73 	addi	a0, a0, 0x738
180000050: 17 76 00 00 	auipc	a2, 0x7
180000054: 13 06 06 77 	addi	a2, a2, 0x770
180000058: 33 06 a6 40 	sub	a2, a2, a0
18000005c: 93 05 00 00 	li	a1, 0x0
180000060: ef 50 50 7c 	jal	0x180006024 <memset>
180000064: ef 30 40 6e 	jal	0x180003748 <__libc_init_array>
180000068: ef 00 80 12 	jal	0x180000190 <main>
18000006c: 6f 00 40 00 	j	0x180000070 <exit>

Disassembly of section .text:

0000000180000070 <exit>:
180000070: 13 01 01 ff 	addi	sp, sp, -0x10
180000074: 23 34 11 00 	sd	ra, 0x8(sp)
180000078: 23 30 81 00 	sd	s0, 0x0(sp)
18000007c: 13 04 05 00 	mv	s0, a0
180000080: ef 30 c0 75 	jal	0x1800037dc <__funcs_on_exit>
180000084: ef 50 10 1f 	jal	0x180005a74 <libc_exit_fini>
180000088: ef 50 90 1e 	jal	0x180005a70 <dummy>
18000008c: 13 05 04 00 	mv	a0, s0
180000090: ef 30 c0 5e 	jal	0x18000367c <_Exit>

0000000180000094 <_Z29cuda_lud_diagonalPfii_wrapperPv>:
180000094: 13 01 01 ff 	addi	sp, sp, -0x10
180000098: 23 34 11 00 	sd	ra, 0x8(sp)
18000009c: 23 30 81 00 	sd	s0, 0x0(sp)
1800000a0: 97 75 00 00 	auipc	a1, 0x7
1800000a4: 83 b5 85 62 	ld	a1, 0x628(a1)
1800000a8: b3 86 45 00 	add	a3, a1, tp
1800000ac: 83 a5 06 00 	lw	a1, 0x0(a3)
1800000b0: 23 20 b2 00 	sw	a1, 0x0(tp)
1800000b4: 03 a6 46 00 	lw	a2, 0x4(a3)
1800000b8: 23 22 c2 00 	sw	a2, 0x4(tp)
1800000bc: 83 a6 86 00 	lw	a3, 0x8(a3)
1800000c0: 13 04 05 00 	mv	s0, a0
1800000c4: 23 24 d2 00 	sw	a3, 0x8(tp)
1800000c8: 17 65 00 00 	auipc	a0, 0x6
1800000cc: 13 05 85 11 	addi	a0, a0, 0x118
1800000d0: ef 30 40 7b 	jal	0x180003884 <vx_printf>
1800000d4: 13 05 04 00 	mv	a0, s0
1800000d8: 83 30 81 00 	ld	ra, 0x8(sp)
1800000dc: 03 34 01 00 	ld	s0, 0x0(sp)
1800000e0: 13 01 01 01 	addi	sp, sp, 0x10
1800000e4: 6f 30 c0 55 	j	0x180003640 <lud_diagonalPfii_wrapper>

00000001800000e8 <_Z30cuda_lud_perimeterPfii_wrapperPv>:
1800000e8: 13 01 01 ff 	addi	sp, sp, -0x10
1800000ec: 23 34 11 00 	sd	ra, 0x8(sp)
1800000f0: 23 30 81 00 	sd	s0, 0x0(sp)
1800000f4: 97 75 00 00 	auipc	a1, 0x7
1800000f8: 83 b5 45 5d 	ld	a1, 0x5d4(a1)
1800000fc: b3 86 45 00 	add	a3, a1, tp
180000100: 83 a5 06 00 	lw	a1, 0x0(a3)
180000104: 23 20 b2 00 	sw	a1, 0x0(tp)
180000108: 03 a6 46 00 	lw	a2, 0x4(a3)
18000010c: 23 22 c2 00 	sw	a2, 0x4(tp)
180000110: 83 a6 86 00 	lw	a3, 0x8(a3)
180000114: 13 04 05 00 	mv	s0, a0
180000118: 23 24 d2 00 	sw	a3, 0x8(tp)
18000011c: 17 65 00 00 	auipc	a0, 0x6
180000120: 13 05 45 0c 	addi	a0, a0, 0xc4
180000124: ef 30 00 76 	jal	0x180003884 <vx_printf>
180000128: 13 05 04 00 	mv	a0, s0
18000012c: 83 30 81 00 	ld	ra, 0x8(sp)
180000130: 03 34 01 00 	ld	s0, 0x0(sp)
180000134: 13 01 01 01 	addi	sp, sp, 0x10
180000138: 6f 30 c0 51 	j	0x180003654 <lud_perimeterPfii_wrapper>

000000018000013c <_Z29cuda_lud_internalPfii_wrapperPv>:
18000013c: 13 01 01 ff 	addi	sp, sp, -0x10
180000140: 23 34 11 00 	sd	ra, 0x8(sp)
180000144: 23 30 81 00 	sd	s0, 0x0(sp)
180000148: 97 75 00 00 	auipc	a1, 0x7
18000014c: 83 b5 05 58 	ld	a1, 0x580(a1)
180000150: b3 86 45 00 	add	a3, a1, tp
180000154: 83 a5 06 00 	lw	a1, 0x0(a3)
180000158: 23 20 b2 00 	sw	a1, 0x0(tp)
18000015c: 03 a6 46 00 	lw	a2, 0x4(a3)
180000160: 23 22 c2 00 	sw	a2, 0x4(tp)
180000164: 83 a6 86 00 	lw	a3, 0x8(a3)
180000168: 13 04 05 00 	mv	s0, a0
18000016c: 23 24 d2 00 	sw	a3, 0x8(tp)
180000170: 17 65 00 00 	auipc	a0, 0x6
180000174: 13 05 05 07 	addi	a0, a0, 0x70
180000178: ef 30 c0 70 	jal	0x180003884 <vx_printf>
18000017c: 13 05 04 00 	mv	a0, s0
180000180: 83 30 81 00 	ld	ra, 0x8(sp)
180000184: 03 34 01 00 	ld	s0, 0x0(sp)
180000188: 13 01 01 01 	addi	sp, sp, 0x10
18000018c: 6f 30 c0 4d 	j	0x180003668 <lud_internalPfii_wrapper>

0000000180000190 <main>:
180000190: 13 01 01 f5 	addi	sp, sp, -0xb0
180000194: 23 34 11 0a 	sd	ra, 0xa8(sp)
180000198: 23 30 81 0a 	sd	s0, 0xa0(sp)
18000019c: 23 3c 91 08 	sd	s1, 0x98(sp)
1800001a0: 23 38 21 09 	sd	s2, 0x90(sp)
1800001a4: 23 34 31 09 	sd	s3, 0x88(sp)
1800001a8: 23 30 41 09 	sd	s4, 0x80(sp)
1800001ac: 23 3c 51 07 	sd	s5, 0x78(sp)
1800001b0: 23 38 61 07 	sd	s6, 0x70(sp)
1800001b4: 23 34 71 07 	sd	s7, 0x68(sp)
1800001b8: 23 30 81 07 	sd	s8, 0x60(sp)
1800001bc: 23 3c 91 05 	sd	s9, 0x58(sp)
1800001c0: 23 38 a1 05 	sd	s10, 0x50(sp)
1800001c4: 23 34 b1 05 	sd	s11, 0x48(sp)
1800001c8: 17 65 00 00 	auipc	a0, 0x6
1800001cc: 13 05 85 03 	addi	a0, a0, 0x38
1800001d0: ef 30 40 6b 	jal	0x180003884 <vx_printf>
1800001d4: f3 24 00 34 	csrr	s1, mscratch
1800001d8: 83 a9 44 04 	lw	s3, 0x44(s1)
1800001dc: 13 89 84 04 	addi	s2, s1, 0x48
1800001e0: 93 99 39 00 	slli	s3, s3, 0x3
1800001e4: 03 a5 04 00 	lw	a0, 0x0(s1)
1800001e8: b3 0b 39 01 	add	s7, s2, s3
1800001ec: 97 75 00 00 	auipc	a1, 0x7
1800001f0: 03 a6 44 00 	lw	a2, 0x4(s1)
1800001f4: 23 aa a5 58 	sw	a0, 0x594(a1)
1800001f8: 17 75 00 00 	auipc	a0, 0x7
1800001fc: 83 a5 84 00 	lw	a1, 0x8(s1)
180000200: 23 26 c5 58 	sw	a2, 0x58c(a0)
180000204: 17 75 00 00 	auipc	a0, 0x7
180000208: 03 a6 84 01 	lw	a2, 0x18(s1)
18000020c: 23 22 b5 58 	sw	a1, 0x584(a0)
180000210: 17 75 00 00 	auipc	a0, 0x7
180000214: 83 a6 c4 01 	lw	a3, 0x1c(s1)
180000218: 23 2e c5 56 	sw	a2, 0x57c(a0)
18000021c: 03 a5 04 02 	lw	a0, 0x20(s1)
180000220: 97 75 00 00 	auipc	a1, 0x7
180000224: 23 a8 d5 56 	sw	a3, 0x570(a1)
180000228: 97 75 00 00 	auipc	a1, 0x7
18000022c: 23 a6 a5 56 	sw	a0, 0x56c(a1)
180000230: 83 b5 0b 00 	ld	a1, 0x0(s7)
180000234: 33 85 c6 02 	mul	a0, a3, a2
180000238: 17 76 00 00 	auipc	a2, 0x7
18000023c: 23 20 a6 56 	sw	a0, 0x560(a2)
180000240: 33 35 b0 00 	snez	a0, a1
180000244: 0b 2c 15 00 	vx_split_n	s8, a0
180000248: 63 0e 05 08 	beqz	a0, 0x1800002e4 <main+0x154>
18000024c: 23 30 21 05 	sd	s2, 0x40(sp)
180000250: 17 65 00 00 	auipc	a0, 0x6
180000254: 13 05 65 fc 	addi	a0, a0, -0x3a
180000258: ef 30 c0 62 	jal	0x180003884 <vx_printf>
18000025c: 03 b5 0b 00 	ld	a0, 0x0(s7)
180000260: 33 35 a0 00 	snez	a0, a0
180000264: 8b 2c 15 00 	vx_split_n	s9, a0
180000268: 63 0a 05 06 	beqz	a0, 0x1800002dc <main+0x14c>
18000026c: 13 09 00 00 	li	s2, 0x0
180000270: 13 0d 00 00 	li	s10, 0x0
180000274: b3 89 99 00 	add	s3, s3, s1
180000278: 93 8d 09 06 	addi	s11, s3, 0x60
18000027c: 73 24 40 cc 	csrr	s0, tmask
180000280: 17 65 00 00 	auipc	a0, 0x6
180000284: 93 09 35 fd 	addi	s3, a0, -0x2d
180000288: 03 ba 0d ff 	ld	s4, -0x10(s11)
18000028c: 83 ba 8d ff 	ld	s5, -0x8(s11)
180000290: 03 bb 0d 00 	ld	s6, 0x0(s11)
180000294: 13 05 0a 00 	mv	a0, s4
180000298: 93 85 0a 00 	mv	a1, s5
18000029c: 13 06 0b 00 	mv	a2, s6
1800002a0: ef 50 90 03 	jal	0x180005ad8 <memcpy>
1800002a4: 13 85 09 00 	mv	a0, s3
1800002a8: 93 05 09 00 	mv	a1, s2
1800002ac: 13 06 0a 00 	mv	a2, s4
1800002b0: 93 86 0a 00 	mv	a3, s5
1800002b4: 13 07 0b 00 	mv	a4, s6
1800002b8: ef 30 c0 5c 	jal	0x180003884 <vx_printf>
1800002bc: 03 b5 0b 00 	ld	a0, 0x0(s7)
1800002c0: 13 0d 1d 00 	addi	s10, s10, 0x1
1800002c4: 93 8d 8d 01 	addi	s11, s11, 0x18
1800002c8: 1b 09 19 00 	addiw	s2, s2, 0x1
1800002cc: 33 35 ad 00 	sltu	a0, s10, a0
1800002d0: 13 45 15 00 	xori	a0, a0, 0x1
1800002d4: 8b 50 85 00 	vx_pred_n	a0, s0
1800002d8: e3 08 05 fa 	beqz	a0, 0x180000288 <main+0xf8>
1800002dc: 0b b0 0c 00 	vx_join	s9
1800002e0: 03 39 01 04 	ld	s2, 0x40(sp)
1800002e4: 0b 30 0c 00 	vx_join	s8
1800002e8: 17 65 00 00 	auipc	a0, 0x6
1800002ec: 13 05 65 fa 	addi	a0, a0, -0x5a
1800002f0: 93 05 80 04 	li	a1, 0x48
1800002f4: 13 06 00 04 	li	a2, 0x40
1800002f8: 93 06 80 00 	li	a3, 0x8
1800002fc: ef 30 80 58 	jal	0x180003884 <vx_printf>
180000300: 17 65 00 00 	auipc	a0, 0x6
180000304: 13 05 a5 fa 	addi	a0, a0, -0x56
180000308: b7 05 18 00 	lui	a1, 0x180
18000030c: 9b 85 f5 ff 	addiw	a1, a1, -0x1
180000310: 93 95 c5 00 	slli	a1, a1, 0xc
180000314: ef 30 00 57 	jal	0x180003884 <vx_printf>
180000318: 83 a5 04 04 	lw	a1, 0x40(s1)
18000031c: 13 95 35 00 	slli	a0, a1, 0x3
180000320: 17 76 00 00 	auipc	a2, 0x7
180000324: 13 04 86 37 	addi	s0, a2, 0x378
180000328: 33 05 a4 00 	add	a0, s0, a0
18000032c: 03 36 05 00 	ld	a2, 0x0(a0)
180000330: 83 a6 04 00 	lw	a3, 0x0(s1)
180000334: 03 a7 44 00 	lw	a4, 0x4(s1)
180000338: 83 a7 84 00 	lw	a5, 0x8(s1)
18000033c: 03 a8 84 01 	lw	a6, 0x18(s1)
180000340: 83 a8 c4 01 	lw	a7, 0x1c(s1)
180000344: 83 a2 04 02 	lw	t0, 0x20(s1)
180000348: 03 b5 84 04 	ld	a0, 0x48(s1)
18000034c: 03 b3 04 05 	ld	t1, 0x50(s1)
180000350: 83 b3 84 05 	ld	t2, 0x58(s1)
180000354: 03 be 04 06 	ld	t3, 0x60(s1)
180000358: 83 be 84 06 	ld	t4, 0x68(s1)
18000035c: 03 bf 04 07 	ld	t5, 0x70(s1)
180000360: 23 38 e1 03 	sd	t5, 0x30(sp)
180000364: 23 34 d1 03 	sd	t4, 0x28(sp)
180000368: 23 30 c1 03 	sd	t3, 0x20(sp)
18000036c: 23 3c 71 00 	sd	t2, 0x18(sp)
180000370: 23 38 61 00 	sd	t1, 0x10(sp)
180000374: 23 34 a1 00 	sd	a0, 0x8(sp)
180000378: 17 65 00 00 	auipc	a0, 0x6
18000037c: 13 05 f5 f3 	addi	a0, a0, -0xc1
180000380: 23 30 51 00 	sd	t0, 0x0(sp)
180000384: ef 30 00 50 	jal	0x180003884 <vx_printf>
180000388: 83 a5 84 03 	lw	a1, 0x38(s1)
18000038c: 17 65 00 00 	auipc	a0, 0x6
180000390: 13 05 b5 fa 	addi	a0, a0, -0x55
180000394: ef 30 00 4f 	jal	0x180003884 <vx_printf>
180000398: 17 65 00 00 	auipc	a0, 0x6
18000039c: 13 05 b5 fa 	addi	a0, a0, -0x55
1800003a0: ef 30 40 4e 	jal	0x180003884 <vx_printf>
1800003a4: 03 a5 04 04 	lw	a0, 0x40(s1)
1800003a8: 13 15 35 00 	slli	a0, a0, 0x3
1800003ac: 33 05 a4 00 	add	a0, s0, a0
1800003b0: 83 36 05 00 	ld	a3, 0x0(a0)
1800003b4: 13 05 30 00 	li	a0, 0x3
1800003b8: 93 85 04 00 	mv	a1, s1
1800003bc: 13 06 00 00 	li	a2, 0x0
1800003c0: 13 07 09 00 	mv	a4, s2
1800003c4: 83 30 81 0a 	ld	ra, 0xa8(sp)
1800003c8: 03 34 01 0a 	ld	s0, 0xa0(sp)
1800003cc: 83 34 81 09 	ld	s1, 0x98(sp)
1800003d0: 03 39 01 09 	ld	s2, 0x90(sp)
1800003d4: 83 39 81 08 	ld	s3, 0x88(sp)
1800003d8: 03 3a 01 08 	ld	s4, 0x80(sp)
1800003dc: 83 3a 81 07 	ld	s5, 0x78(sp)
1800003e0: 03 3b 01 07 	ld	s6, 0x70(sp)
1800003e4: 83 3b 81 06 	ld	s7, 0x68(sp)
1800003e8: 03 3c 01 06 	ld	s8, 0x60(sp)
1800003ec: 83 3c 81 05 	ld	s9, 0x58(sp)
1800003f0: 03 3d 01 05 	ld	s10, 0x50(sp)
1800003f4: 83 3d 81 04 	ld	s11, 0x48(sp)
1800003f8: 13 01 01 0b 	addi	sp, sp, 0xb0
1800003fc: 6f 30 d0 08 	j	0x180003c88 <vx_spawn_threads>

0000000180000400 <_Z12lud_diagonalPfii>:
180000400: 13 01 01 f9 	addi	sp, sp, -0x70
180000404: 23 34 11 06 	sd	ra, 0x68(sp)
180000408: 23 30 81 06 	sd	s0, 0x60(sp)
18000040c: 23 3c 91 04 	sd	s1, 0x58(sp)
180000410: 23 38 21 05 	sd	s2, 0x50(sp)
180000414: 23 34 31 05 	sd	s3, 0x48(sp)
180000418: 23 30 41 05 	sd	s4, 0x40(sp)
18000041c: 23 3c 51 03 	sd	s5, 0x38(sp)
180000420: 23 38 61 03 	sd	s6, 0x30(sp)
180000424: 23 34 71 03 	sd	s7, 0x28(sp)
180000428: 23 30 81 03 	sd	s8, 0x20(sp)
18000042c: 23 3c 91 01 	sd	s9, 0x18(sp)
180000430: 23 38 a1 01 	sd	s10, 0x10(sp)
180000434: 23 34 b1 01 	sd	s11, 0x8(sp)
180000438: 13 04 01 07 	addi	s0, sp, 0x70
18000043c: 97 76 00 00 	auipc	a3, 0x7
180000440: 93 86 c6 35 	addi	a3, a3, 0x35c
180000444: 83 a6 06 00 	lw	a3, 0x0(a3)
180000448: 17 77 00 00 	auipc	a4, 0x7
18000044c: 13 07 47 34 	addi	a4, a4, 0x344
180000450: 03 27 07 00 	lw	a4, 0x0(a4)
180000454: e3 82 06 2e 	beqz	a3, 0x180000f38 <_Z12lud_diagonalPfii+0xb38>
180000458: 6f 00 40 00 	j	0x18000045c <_Z12lud_diagonalPfii+0x5c>
18000045c: 9b 87 15 00 	addiw	a5, a1, 0x1
180000460: bb 87 c7 02 	mulw	a5, a5, a2
180000464: 3b 88 b5 02 	mulw	a6, a1, a1
180000468: bb 88 b7 00 	addw	a7, a5, a1
18000046c: bb 82 b8 00 	addw	t0, a7, a1
180000470: 3b 83 b2 00 	addw	t1, t0, a1
180000474: bb 03 b3 00 	addw	t2, t1, a1
180000478: 3b 8e b3 00 	addw	t3, t2, a1
18000047c: bb 0e be 00 	addw	t4, t3, a1
180000480: 3b 8f be 00 	addw	t5, t4, a1
180000484: bb 0f bf 00 	addw	t6, t5, a1
180000488: bb 84 bf 00 	addw	s1, t6, a1
18000048c: 3b 89 b4 00 	addw	s2, s1, a1
180000490: bb 09 b9 00 	addw	s3, s2, a1
180000494: 3b 8a b9 00 	addw	s4, s3, a1
180000498: bb 0a ba 00 	addw	s5, s4, a1
18000049c: 3b 8b ba 00 	addw	s6, s5, a1
1800004a0: bb 0b bb 00 	addw	s7, s6, a1
1800004a4: 23 38 74 f9 	sd	s7, -0x70(s0)
1800004a8: 13 0c 00 00 	li	s8, 0x0
1800004ac: 6f 00 40 1b 	j	0x180000660 <_Z12lud_diagonalPfii+0x260>
1800004b0: 93 18 68 00 	slli	a7, a6, 0x6
1800004b4: 93 02 82 01 	addi	t0, tp, 0x18
1800004b8: 13 13 28 00 	slli	t1, a6, 0x2
1800004bc: b3 88 68 00 	add	a7, a7, t1
1800004c0: b3 88 12 01 	add	a7, t0, a7
1800004c4: 63 08 08 00 	beqz	a6, 0x1800004d4 <_Z12lud_diagonalPfii+0xd4>
1800004c8: 6f 00 40 00 	j	0x1800004cc <_Z12lud_diagonalPfii+0xcc>
1800004cc: 93 02 00 00 	li	t0, 0x0
1800004d0: 6f 00 80 0e 	j	0x1800005b8 <_Z12lud_diagonalPfii+0x1b8>
1800004d4: 93 02 00 00 	li	t0, 0x0
1800004d8: 6f 00 00 08 	j	0x180000558 <_Z12lud_diagonalPfii+0x158>
1800004dc: 93 87 17 00 	addi	a5, a5, 0x1
1800004e0: 93 02 f0 00 	li	t0, 0xf
1800004e4: 13 88 08 00 	mv	a6, a7
1800004e8: 63 82 58 5e 	beq	a7, t0, 0x180000acc <_Z12lud_diagonalPfii+0x6cc>
1800004ec: 6f f0 5f fc 	j	0x1800004b0 <_Z12lud_diagonalPfii+0xb0>
1800004f0: 3b e3 e2 02 	remw	t1, t0, a4
1800004f4: 13 13 03 02 	slli	t1, t1, 0x20
1800004f8: 13 53 03 02 	srli	t1, t1, 0x20
1800004fc: 63 6c 68 06 	bltu	a6, t1, 0x180000574 <_Z12lud_diagonalPfii+0x174>
180000500: 6f 00 80 04 	j	0x180000548 <_Z12lud_diagonalPfii+0x148>
180000504: 93 9e 68 00 	slli	t4, a7, 0x6
180000508: 13 0f 82 01 	addi	t5, tp, 0x18
18000050c: 93 1f 2e 00 	slli	t6, t3, 0x2
180000510: b3 8e fe 01 	add	t4, t4, t6
180000514: b3 0e df 01 	add	t4, t5, t4
180000518: 07 a7 0e 00 	flw	fa4, 0x0(t4)
18000051c: 93 1e 6e 00 	slli	t4, t3, 0x6
180000520: 93 1f 23 00 	slli	t6, t1, 0x2
180000524: b3 8e fe 01 	add	t4, t4, t6
180000528: b3 0e df 01 	add	t4, t5, t4
18000052c: 87 a6 0e 00 	flw	fa3, 0x0(t4)
180000530: cb 77 d7 78 	fnmsub.s	fa5, fa4, fa3, fa5
180000534: 27 a0 f3 00 	fsw	fa5, 0x0(t2)
180000538: 13 0e 1e 00 	addi	t3, t3, 0x1
18000053c: e3 14 fe fc 	bne	t3, a5, 0x180000504 <_Z12lud_diagonalPfii+0x104>
180000540: 6f 00 40 00 	j	0x180000544 <_Z12lud_diagonalPfii+0x144>
180000544: 6f 00 40 00 	j	0x180000548 <_Z12lud_diagonalPfii+0x148>
180000548: 9b 82 12 00 	addiw	t0, t0, 0x1
18000054c: 1b 83 06 00 	sext.w	t1, a3
180000550: e3 86 62 f8 	beq	t0, t1, 0x1800004dc <_Z12lud_diagonalPfii+0xdc>
180000554: 6f f0 df f9 	j	0x1800004f0 <_Z12lud_diagonalPfii+0xf0>
180000558: 3b e3 e2 02 	remw	t1, t0, a4
18000055c: 63 1c 03 02 	bnez	t1, 0x180000594 <_Z12lud_diagonalPfii+0x194>
180000560: 6f 00 40 00 	j	0x180000564 <_Z12lud_diagonalPfii+0x164>
180000564: 9b 82 12 00 	addiw	t0, t0, 0x1
180000568: 1b 83 06 00 	sext.w	t1, a3
18000056c: 63 80 62 0e 	beq	t0, t1, 0x18000064c <_Z12lud_diagonalPfii+0x24c>
180000570: 6f f0 9f fe 	j	0x180000558 <_Z12lud_diagonalPfii+0x158>
180000574: 93 93 68 00 	slli	t2, a7, 0x6
180000578: 13 0e 82 01 	addi	t3, tp, 0x18
18000057c: b3 03 7e 00 	add	t2, t3, t2
180000580: 13 1e 23 00 	slli	t3, t1, 0x2
180000584: b3 83 c3 01 	add	t2, t2, t3
180000588: 87 a7 03 00 	flw	fa5, 0x0(t2)
18000058c: 13 0e 00 00 	li	t3, 0x0
180000590: 6f f0 5f f7 	j	0x180000504 <_Z12lud_diagonalPfii+0x104>
180000594: 87 a7 08 00 	flw	fa5, 0x0(a7)
180000598: 13 13 03 02 	slli	t1, t1, 0x20
18000059c: 13 53 a3 01 	srli	t1, t1, 0x1a
1800005a0: 93 03 82 01 	addi	t2, tp, 0x18
1800005a4: 33 83 63 00 	add	t1, t2, t1
1800005a8: 07 27 03 00 	flw	fa4, 0x0(t1)
1800005ac: d3 77 f7 18 	fdiv.s	fa5, fa4, fa5
1800005b0: 27 20 f3 00 	fsw	fa5, 0x0(t1)
1800005b4: 6f f0 1f fb 	j	0x180000564 <_Z12lud_diagonalPfii+0x164>
1800005b8: 3b e3 e2 02 	remw	t1, t0, a4
1800005bc: 13 13 03 02 	slli	t1, t1, 0x20
1800005c0: 13 53 03 02 	srli	t1, t1, 0x20
1800005c4: 63 6c 68 04 	bltu	a6, t1, 0x18000061c <_Z12lud_diagonalPfii+0x21c>
1800005c8: 6f 00 40 00 	j	0x1800005cc <_Z12lud_diagonalPfii+0x1cc>
1800005cc: 9b 82 12 00 	addiw	t0, t0, 0x1
1800005d0: 1b 83 06 00 	sext.w	t1, a3
1800005d4: 63 8e 62 06 	beq	t0, t1, 0x180000650 <_Z12lud_diagonalPfii+0x250>
1800005d8: 6f f0 1f fe 	j	0x1800005b8 <_Z12lud_diagonalPfii+0x1b8>
1800005dc: 93 1e 63 00 	slli	t4, t1, 0x6
1800005e0: 13 0f 82 01 	addi	t5, tp, 0x18
1800005e4: 93 1f 2e 00 	slli	t6, t3, 0x2
1800005e8: b3 8e fe 01 	add	t4, t4, t6
1800005ec: b3 0e df 01 	add	t4, t5, t4
1800005f0: 07 a7 0e 00 	flw	fa4, 0x0(t4)
1800005f4: 93 1e 6e 00 	slli	t4, t3, 0x6
1800005f8: 93 1f 28 00 	slli	t6, a6, 0x2
1800005fc: b3 8e fe 01 	add	t4, t4, t6
180000600: b3 0e df 01 	add	t4, t5, t4
180000604: 87 a6 0e 00 	flw	fa3, 0x0(t4)
180000608: cb 77 d7 78 	fnmsub.s	fa5, fa4, fa3, fa5
18000060c: 27 a0 f3 00 	fsw	fa5, 0x0(t2)
180000610: 13 0e 1e 00 	addi	t3, t3, 0x1
180000614: 63 04 0e 03 	beq	t3, a6, 0x18000063c <_Z12lud_diagonalPfii+0x23c>
180000618: 6f f0 5f fc 	j	0x1800005dc <_Z12lud_diagonalPfii+0x1dc>
18000061c: 93 13 63 00 	slli	t2, t1, 0x6
180000620: 13 0e 82 01 	addi	t3, tp, 0x18
180000624: 93 1e 28 00 	slli	t4, a6, 0x2
180000628: 33 0e de 01 	add	t3, t3, t4
18000062c: b3 03 7e 00 	add	t2, t3, t2
180000630: 87 a7 03 00 	flw	fa5, 0x0(t2)
180000634: 13 0e 00 00 	li	t3, 0x0
180000638: 6f f0 5f fa 	j	0x1800005dc <_Z12lud_diagonalPfii+0x1dc>
18000063c: 07 a7 08 00 	flw	fa4, 0x0(a7)
180000640: d3 f7 e7 18 	fdiv.s	fa5, fa5, fa4
180000644: 27 a0 f3 00 	fsw	fa5, 0x0(t2)
180000648: 6f f0 5f f8 	j	0x1800005cc <_Z12lud_diagonalPfii+0x1cc>
18000064c: 6f 00 80 00 	j	0x180000654 <_Z12lud_diagonalPfii+0x254>
180000650: 6f 00 40 00 	j	0x180000654 <_Z12lud_diagonalPfii+0x254>
180000654: 93 08 18 00 	addi	a7, a6, 0x1
180000658: 93 02 00 00 	li	t0, 0x0
18000065c: 6f f0 5f e9 	j	0x1800004f0 <_Z12lud_diagonalPfii+0xf0>
180000660: 3b 6d ec 02 	remw	s10, s8, a4
180000664: 93 1c 0d 02 	slli	s9, s10, 0x20
180000668: 93 dc 0c 02 	srli	s9, s9, 0x20
18000066c: bb 00 fd 00 	addw	ra, s10, a5
180000670: 9b 0d 08 00 	sext.w	s11, a6
180000674: b3 bb b0 01 	sltu	s7, ra, s11
180000678: 8b ad 1b 00 	vx_split_n	s11, s7
18000067c: 63 86 0b 02 	beqz	s7, 0x1800006a8 <_Z12lud_diagonalPfii+0x2a8>
180000680: 6f 00 40 00 	j	0x180000684 <_Z12lud_diagonalPfii+0x284>
180000684: 93 90 00 02 	slli	ra, ra, 0x20
180000688: 93 db e0 01 	srli	s7, ra, 0x1e
18000068c: b3 0b 75 01 	add	s7, a0, s7
180000690: 87 a7 0b 00 	flw	fa5, 0x0(s7)
180000694: 93 9b 2c 00 	slli	s7, s9, 0x2
180000698: 93 00 82 01 	addi	ra, tp, 0x18
18000069c: b3 8b 70 01 	add	s7, ra, s7
1800006a0: 27 a0 fb 00 	fsw	fa5, 0x0(s7)
1800006a4: 6f 00 40 00 	j	0x1800006a8 <_Z12lud_diagonalPfii+0x2a8>
1800006a8: 0b b0 0d 00 	vx_join	s11
1800006ac: 6f 00 40 00 	j	0x1800006b0 <_Z12lud_diagonalPfii+0x2b0>
1800006b0: bb 00 1d 01 	addw	ra, s10, a7
1800006b4: 9b 0b 08 00 	sext.w	s7, a6
1800006b8: b3 bb 70 01 	sltu	s7, ra, s7
1800006bc: 8b ad 1b 00 	vx_split_n	s11, s7
1800006c0: 63 86 0b 02 	beqz	s7, 0x1800006ec <_Z12lud_diagonalPfii+0x2ec>
1800006c4: 6f 00 40 00 	j	0x1800006c8 <_Z12lud_diagonalPfii+0x2c8>
1800006c8: 93 90 00 02 	slli	ra, ra, 0x20
1800006cc: 93 db e0 01 	srli	s7, ra, 0x1e
1800006d0: b3 0b 75 01 	add	s7, a0, s7
1800006d4: 87 a7 0b 00 	flw	fa5, 0x0(s7)
1800006d8: 93 9b 2c 00 	slli	s7, s9, 0x2
1800006dc: 93 00 82 01 	addi	ra, tp, 0x18
1800006e0: b3 8b 70 01 	add	s7, ra, s7
1800006e4: 27 a0 fb 04 	fsw	fa5, 0x40(s7)
1800006e8: 6f 00 40 00 	j	0x1800006ec <_Z12lud_diagonalPfii+0x2ec>
1800006ec: 0b b0 0d 00 	vx_join	s11
1800006f0: 6f 00 40 00 	j	0x1800006f4 <_Z12lud_diagonalPfii+0x2f4>
1800006f4: bb 00 5d 00 	addw	ra, s10, t0
1800006f8: 9b 0b 08 00 	sext.w	s7, a6
1800006fc: b3 bb 70 01 	sltu	s7, ra, s7
180000700: 8b ad 1b 00 	vx_split_n	s11, s7
180000704: 63 86 0b 02 	beqz	s7, 0x180000730 <_Z12lud_diagonalPfii+0x330>
180000708: 6f 00 40 00 	j	0x18000070c <_Z12lud_diagonalPfii+0x30c>
18000070c: 93 90 00 02 	slli	ra, ra, 0x20
180000710: 93 db e0 01 	srli	s7, ra, 0x1e
180000714: b3 0b 75 01 	add	s7, a0, s7
180000718: 87 a7 0b 00 	flw	fa5, 0x0(s7)
18000071c: 93 9b 2c 00 	slli	s7, s9, 0x2
180000720: 93 00 82 01 	addi	ra, tp, 0x18
180000724: b3 8b 70 01 	add	s7, ra, s7
180000728: 27 a0 fb 08 	fsw	fa5, 0x80(s7)
18000072c: 6f 00 40 00 	j	0x180000730 <_Z12lud_diagonalPfii+0x330>
180000730: 0b b0 0d 00 	vx_join	s11
180000734: 6f 00 40 00 	j	0x180000738 <_Z12lud_diagonalPfii+0x338>
180000738: bb 00 6d 00 	addw	ra, s10, t1
18000073c: 9b 0b 08 00 	sext.w	s7, a6
180000740: b3 bb 70 01 	sltu	s7, ra, s7
180000744: 8b ad 1b 00 	vx_split_n	s11, s7
180000748: 63 86 0b 02 	beqz	s7, 0x180000774 <_Z12lud_diagonalPfii+0x374>
18000074c: 6f 00 40 00 	j	0x180000750 <_Z12lud_diagonalPfii+0x350>
180000750: 93 90 00 02 	slli	ra, ra, 0x20
180000754: 93 db e0 01 	srli	s7, ra, 0x1e
180000758: b3 0b 75 01 	add	s7, a0, s7
18000075c: 87 a7 0b 00 	flw	fa5, 0x0(s7)
180000760: 93 9b 2c 00 	slli	s7, s9, 0x2
180000764: 93 00 82 01 	addi	ra, tp, 0x18
180000768: b3 8b 70 01 	add	s7, ra, s7
18000076c: 27 a0 fb 0c 	fsw	fa5, 0xc0(s7)
180000770: 6f 00 40 00 	j	0x180000774 <_Z12lud_diagonalPfii+0x374>
180000774: 0b b0 0d 00 	vx_join	s11
180000778: 6f 00 40 00 	j	0x18000077c <_Z12lud_diagonalPfii+0x37c>
18000077c: bb 00 7d 00 	addw	ra, s10, t2
180000780: 9b 0b 08 00 	sext.w	s7, a6
180000784: b3 bb 70 01 	sltu	s7, ra, s7
180000788: 8b ad 1b 00 	vx_split_n	s11, s7
18000078c: 63 86 0b 02 	beqz	s7, 0x1800007b8 <_Z12lud_diagonalPfii+0x3b8>
180000790: 6f 00 40 00 	j	0x180000794 <_Z12lud_diagonalPfii+0x394>
180000794: 93 90 00 02 	slli	ra, ra, 0x20
180000798: 93 db e0 01 	srli	s7, ra, 0x1e
18000079c: b3 0b 75 01 	add	s7, a0, s7
1800007a0: 87 a7 0b 00 	flw	fa5, 0x0(s7)
1800007a4: 93 9b 2c 00 	slli	s7, s9, 0x2
1800007a8: 93 00 82 01 	addi	ra, tp, 0x18
1800007ac: b3 8b 70 01 	add	s7, ra, s7
1800007b0: 27 a0 fb 10 	fsw	fa5, 0x100(s7)
1800007b4: 6f 00 40 00 	j	0x1800007b8 <_Z12lud_diagonalPfii+0x3b8>
1800007b8: 0b b0 0d 00 	vx_join	s11
1800007bc: 6f 00 40 00 	j	0x1800007c0 <_Z12lud_diagonalPfii+0x3c0>
1800007c0: bb 00 cd 01 	addw	ra, s10, t3
1800007c4: 9b 0b 08 00 	sext.w	s7, a6
1800007c8: b3 bb 70 01 	sltu	s7, ra, s7
1800007cc: 8b ad 1b 00 	vx_split_n	s11, s7
1800007d0: 63 86 0b 02 	beqz	s7, 0x1800007fc <_Z12lud_diagonalPfii+0x3fc>
1800007d4: 6f 00 40 00 	j	0x1800007d8 <_Z12lud_diagonalPfii+0x3d8>
1800007d8: 93 90 00 02 	slli	ra, ra, 0x20
1800007dc: 93 db e0 01 	srli	s7, ra, 0x1e
1800007e0: b3 0b 75 01 	add	s7, a0, s7
1800007e4: 87 a7 0b 00 	flw	fa5, 0x0(s7)
1800007e8: 93 9b 2c 00 	slli	s7, s9, 0x2
1800007ec: 93 00 82 01 	addi	ra, tp, 0x18
1800007f0: b3 8b 70 01 	add	s7, ra, s7
1800007f4: 27 a0 fb 14 	fsw	fa5, 0x140(s7)
1800007f8: 6f 00 40 00 	j	0x1800007fc <_Z12lud_diagonalPfii+0x3fc>
1800007fc: 0b b0 0d 00 	vx_join	s11
180000800: 6f 00 40 00 	j	0x180000804 <_Z12lud_diagonalPfii+0x404>
180000804: bb 00 dd 01 	addw	ra, s10, t4
180000808: 9b 0b 08 00 	sext.w	s7, a6
18000080c: b3 bb 70 01 	sltu	s7, ra, s7
180000810: 8b ad 1b 00 	vx_split_n	s11, s7
180000814: 63 86 0b 02 	beqz	s7, 0x180000840 <_Z12lud_diagonalPfii+0x440>
180000818: 6f 00 40 00 	j	0x18000081c <_Z12lud_diagonalPfii+0x41c>
18000081c: 93 90 00 02 	slli	ra, ra, 0x20
180000820: 93 db e0 01 	srli	s7, ra, 0x1e
180000824: b3 0b 75 01 	add	s7, a0, s7
180000828: 87 a7 0b 00 	flw	fa5, 0x0(s7)
18000082c: 93 9b 2c 00 	slli	s7, s9, 0x2
180000830: 93 00 82 01 	addi	ra, tp, 0x18
180000834: b3 8b 70 01 	add	s7, ra, s7
180000838: 27 a0 fb 18 	fsw	fa5, 0x180(s7)
18000083c: 6f 00 40 00 	j	0x180000840 <_Z12lud_diagonalPfii+0x440>
180000840: 0b b0 0d 00 	vx_join	s11
180000844: 6f 00 40 00 	j	0x180000848 <_Z12lud_diagonalPfii+0x448>
180000848: bb 00 ed 01 	addw	ra, s10, t5
18000084c: 9b 0b 08 00 	sext.w	s7, a6
180000850: b3 bb 70 01 	sltu	s7, ra, s7
180000854: 8b ad 1b 00 	vx_split_n	s11, s7
180000858: 63 86 0b 02 	beqz	s7, 0x180000884 <_Z12lud_diagonalPfii+0x484>
18000085c: 6f 00 40 00 	j	0x180000860 <_Z12lud_diagonalPfii+0x460>
180000860: 93 90 00 02 	slli	ra, ra, 0x20
180000864: 93 db e0 01 	srli	s7, ra, 0x1e
180000868: b3 0b 75 01 	add	s7, a0, s7
18000086c: 87 a7 0b 00 	flw	fa5, 0x0(s7)
180000870: 93 9b 2c 00 	slli	s7, s9, 0x2
180000874: 93 00 82 01 	addi	ra, tp, 0x18
180000878: b3 8b 70 01 	add	s7, ra, s7
18000087c: 27 a0 fb 1c 	fsw	fa5, 0x1c0(s7)
180000880: 6f 00 40 00 	j	0x180000884 <_Z12lud_diagonalPfii+0x484>
180000884: 0b b0 0d 00 	vx_join	s11
180000888: 6f 00 40 00 	j	0x18000088c <_Z12lud_diagonalPfii+0x48c>
18000088c: bb 00 fd 01 	addw	ra, s10, t6
180000890: 9b 0b 08 00 	sext.w	s7, a6
180000894: b3 bb 70 01 	sltu	s7, ra, s7
180000898: 8b ad 1b 00 	vx_split_n	s11, s7
18000089c: 63 86 0b 02 	beqz	s7, 0x1800008c8 <_Z12lud_diagonalPfii+0x4c8>
1800008a0: 6f 00 40 00 	j	0x1800008a4 <_Z12lud_diagonalPfii+0x4a4>
1800008a4: 93 90 00 02 	slli	ra, ra, 0x20
1800008a8: 93 db e0 01 	srli	s7, ra, 0x1e
1800008ac: b3 0b 75 01 	add	s7, a0, s7
1800008b0: 87 a7 0b 00 	flw	fa5, 0x0(s7)
1800008b4: 93 9b 2c 00 	slli	s7, s9, 0x2
1800008b8: 93 00 82 01 	addi	ra, tp, 0x18
1800008bc: b3 8b 70 01 	add	s7, ra, s7
1800008c0: 27 a0 fb 20 	fsw	fa5, 0x200(s7)
1800008c4: 6f 00 40 00 	j	0x1800008c8 <_Z12lud_diagonalPfii+0x4c8>
1800008c8: 0b b0 0d 00 	vx_join	s11
1800008cc: 6f 00 40 00 	j	0x1800008d0 <_Z12lud_diagonalPfii+0x4d0>
1800008d0: bb 00 9d 00 	addw	ra, s10, s1
1800008d4: 9b 0b 08 00 	sext.w	s7, a6
1800008d8: b3 bb 70 01 	sltu	s7, ra, s7
1800008dc: 8b ad 1b 00 	vx_split_n	s11, s7
1800008e0: 63 86 0b 02 	beqz	s7, 0x18000090c <_Z12lud_diagonalPfii+0x50c>
1800008e4: 6f 00 40 00 	j	0x1800008e8 <_Z12lud_diagonalPfii+0x4e8>
1800008e8: 93 90 00 02 	slli	ra, ra, 0x20
1800008ec: 93 db e0 01 	srli	s7, ra, 0x1e
1800008f0: b3 0b 75 01 	add	s7, a0, s7
1800008f4: 87 a7 0b 00 	flw	fa5, 0x0(s7)
1800008f8: 93 9b 2c 00 	slli	s7, s9, 0x2
1800008fc: 93 00 82 01 	addi	ra, tp, 0x18
180000900: b3 8b 70 01 	add	s7, ra, s7
180000904: 27 a0 fb 24 	fsw	fa5, 0x240(s7)
180000908: 6f 00 40 00 	j	0x18000090c <_Z12lud_diagonalPfii+0x50c>
18000090c: 0b b0 0d 00 	vx_join	s11
180000910: 6f 00 40 00 	j	0x180000914 <_Z12lud_diagonalPfii+0x514>
180000914: bb 00 2d 01 	addw	ra, s10, s2
180000918: 9b 0b 08 00 	sext.w	s7, a6
18000091c: b3 bb 70 01 	sltu	s7, ra, s7
180000920: 8b ad 1b 00 	vx_split_n	s11, s7
180000924: 63 86 0b 02 	beqz	s7, 0x180000950 <_Z12lud_diagonalPfii+0x550>
180000928: 6f 00 40 00 	j	0x18000092c <_Z12lud_diagonalPfii+0x52c>
18000092c: 93 90 00 02 	slli	ra, ra, 0x20
180000930: 93 db e0 01 	srli	s7, ra, 0x1e
180000934: b3 0b 75 01 	add	s7, a0, s7
180000938: 87 a7 0b 00 	flw	fa5, 0x0(s7)
18000093c: 93 9b 2c 00 	slli	s7, s9, 0x2
180000940: 93 00 82 01 	addi	ra, tp, 0x18
180000944: b3 8b 70 01 	add	s7, ra, s7
180000948: 27 a0 fb 28 	fsw	fa5, 0x280(s7)
18000094c: 6f 00 40 00 	j	0x180000950 <_Z12lud_diagonalPfii+0x550>
180000950: 0b b0 0d 00 	vx_join	s11
180000954: 6f 00 40 00 	j	0x180000958 <_Z12lud_diagonalPfii+0x558>
180000958: bb 00 3d 01 	addw	ra, s10, s3
18000095c: 9b 0b 08 00 	sext.w	s7, a6
180000960: b3 bb 70 01 	sltu	s7, ra, s7
180000964: 8b ad 1b 00 	vx_split_n	s11, s7
180000968: 63 86 0b 02 	beqz	s7, 0x180000994 <_Z12lud_diagonalPfii+0x594>
18000096c: 6f 00 40 00 	j	0x180000970 <_Z12lud_diagonalPfii+0x570>
180000970: 93 90 00 02 	slli	ra, ra, 0x20
180000974: 93 db e0 01 	srli	s7, ra, 0x1e
180000978: b3 0b 75 01 	add	s7, a0, s7
18000097c: 87 a7 0b 00 	flw	fa5, 0x0(s7)
180000980: 93 9b 2c 00 	slli	s7, s9, 0x2
180000984: 93 00 82 01 	addi	ra, tp, 0x18
180000988: b3 8b 70 01 	add	s7, ra, s7
18000098c: 27 a0 fb 2c 	fsw	fa5, 0x2c0(s7)
180000990: 6f 00 40 00 	j	0x180000994 <_Z12lud_diagonalPfii+0x594>
180000994: 0b b0 0d 00 	vx_join	s11
180000998: 6f 00 40 00 	j	0x18000099c <_Z12lud_diagonalPfii+0x59c>
18000099c: bb 00 4d 01 	addw	ra, s10, s4
1800009a0: 9b 0b 08 00 	sext.w	s7, a6
1800009a4: b3 bb 70 01 	sltu	s7, ra, s7
1800009a8: 8b ad 1b 00 	vx_split_n	s11, s7
1800009ac: 63 86 0b 02 	beqz	s7, 0x1800009d8 <_Z12lud_diagonalPfii+0x5d8>
1800009b0: 6f 00 40 00 	j	0x1800009b4 <_Z12lud_diagonalPfii+0x5b4>
1800009b4: 93 90 00 02 	slli	ra, ra, 0x20
1800009b8: 93 db e0 01 	srli	s7, ra, 0x1e
1800009bc: b3 0b 75 01 	add	s7, a0, s7
1800009c0: 87 a7 0b 00 	flw	fa5, 0x0(s7)
1800009c4: 93 9b 2c 00 	slli	s7, s9, 0x2
1800009c8: 93 00 82 01 	addi	ra, tp, 0x18
1800009cc: b3 8b 70 01 	add	s7, ra, s7
1800009d0: 27 a0 fb 30 	fsw	fa5, 0x300(s7)
1800009d4: 6f 00 40 00 	j	0x1800009d8 <_Z12lud_diagonalPfii+0x5d8>
1800009d8: 0b b0 0d 00 	vx_join	s11
1800009dc: 6f 00 40 00 	j	0x1800009e0 <_Z12lud_diagonalPfii+0x5e0>
1800009e0: bb 00 5d 01 	addw	ra, s10, s5
1800009e4: 9b 0b 08 00 	sext.w	s7, a6
1800009e8: b3 bb 70 01 	sltu	s7, ra, s7
1800009ec: 8b ad 1b 00 	vx_split_n	s11, s7
1800009f0: 63 86 0b 02 	beqz	s7, 0x180000a1c <_Z12lud_diagonalPfii+0x61c>
1800009f4: 6f 00 40 00 	j	0x1800009f8 <_Z12lud_diagonalPfii+0x5f8>
1800009f8: 93 90 00 02 	slli	ra, ra, 0x20
1800009fc: 93 db e0 01 	srli	s7, ra, 0x1e
180000a00: b3 0b 75 01 	add	s7, a0, s7
180000a04: 87 a7 0b 00 	flw	fa5, 0x0(s7)
180000a08: 93 9b 2c 00 	slli	s7, s9, 0x2
180000a0c: 93 00 82 01 	addi	ra, tp, 0x18
180000a10: b3 8b 70 01 	add	s7, ra, s7
180000a14: 27 a0 fb 34 	fsw	fa5, 0x340(s7)
180000a18: 6f 00 40 00 	j	0x180000a1c <_Z12lud_diagonalPfii+0x61c>
180000a1c: 0b b0 0d 00 	vx_join	s11
180000a20: 6f 00 40 00 	j	0x180000a24 <_Z12lud_diagonalPfii+0x624>
180000a24: bb 00 6d 01 	addw	ra, s10, s6
180000a28: 9b 0b 08 00 	sext.w	s7, a6
180000a2c: b3 bb 70 01 	sltu	s7, ra, s7
180000a30: 8b ad 1b 00 	vx_split_n	s11, s7
180000a34: 63 86 0b 02 	beqz	s7, 0x180000a60 <_Z12lud_diagonalPfii+0x660>
180000a38: 6f 00 40 00 	j	0x180000a3c <_Z12lud_diagonalPfii+0x63c>
180000a3c: 93 90 00 02 	slli	ra, ra, 0x20
180000a40: 93 db e0 01 	srli	s7, ra, 0x1e
180000a44: b3 0b 75 01 	add	s7, a0, s7
180000a48: 87 a7 0b 00 	flw	fa5, 0x0(s7)
180000a4c: 93 9b 2c 00 	slli	s7, s9, 0x2
180000a50: 93 00 82 01 	addi	ra, tp, 0x18
180000a54: b3 8b 70 01 	add	s7, ra, s7
180000a58: 27 a0 fb 38 	fsw	fa5, 0x380(s7)
180000a5c: 6f 00 40 00 	j	0x180000a60 <_Z12lud_diagonalPfii+0x660>
180000a60: 0b b0 0d 00 	vx_join	s11
180000a64: 6f 00 40 00 	j	0x180000a68 <_Z12lud_diagonalPfii+0x668>
180000a68: 83 3b 04 f9 	ld	s7, -0x70(s0)
180000a6c: bb 0d 7d 01 	addw	s11, s10, s7
180000a70: 9b 0b 08 00 	sext.w	s7, a6
180000a74: b3 bb 7d 01 	sltu	s7, s11, s7
180000a78: 0b ad 1b 00 	vx_split_n	s10, s7
180000a7c: 63 86 0b 02 	beqz	s7, 0x180000aa8 <_Z12lud_diagonalPfii+0x6a8>
180000a80: 6f 00 40 00 	j	0x180000a84 <_Z12lud_diagonalPfii+0x684>
180000a84: 93 9d 0d 02 	slli	s11, s11, 0x20
180000a88: 93 db ed 01 	srli	s7, s11, 0x1e
180000a8c: b3 0b 75 01 	add	s7, a0, s7
180000a90: 87 a7 0b 00 	flw	fa5, 0x0(s7)
180000a94: 93 9c 2c 00 	slli	s9, s9, 0x2
180000a98: 93 0b 82 01 	addi	s7, tp, 0x18
180000a9c: b3 8b 9b 01 	add	s7, s7, s9
180000aa0: 27 a0 fb 3c 	fsw	fa5, 0x3c0(s7)
180000aa4: 6f 00 40 00 	j	0x180000aa8 <_Z12lud_diagonalPfii+0x6a8>
180000aa8: 0b 30 0d 00 	vx_join	s10
180000aac: 6f 00 40 00 	j	0x180000ab0 <_Z12lud_diagonalPfii+0x6b0>
180000ab0: 1b 0c 1c 00 	addiw	s8, s8, 0x1
180000ab4: 9b 8b 06 00 	sext.w	s7, a3
180000ab8: e3 14 7c bb 	bne	s8, s7, 0x180000660 <_Z12lud_diagonalPfii+0x260>
180000abc: 6f 00 40 00 	j	0x180000ac0 <_Z12lud_diagonalPfii+0x6c0>
180000ac0: 93 07 10 00 	li	a5, 0x1
180000ac4: 13 08 00 00 	li	a6, 0x0
180000ac8: 6f f0 9f 9e 	j	0x1800004b0 <_Z12lud_diagonalPfii+0xb0>
180000acc: 9b 07 16 00 	addiw	a5, a2, 0x1
180000ad0: bb 87 b7 02 	mulw	a5, a5, a1
180000ad4: 3b 86 c7 00 	addw	a2, a5, a2
180000ad8: bb 87 b5 02 	mulw	a5, a1, a1
180000adc: 3b 08 b6 00 	addw	a6, a2, a1
180000ae0: bb 08 b8 00 	addw	a7, a6, a1
180000ae4: bb 82 b8 00 	addw	t0, a7, a1
180000ae8: 3b 83 b2 00 	addw	t1, t0, a1
180000aec: bb 03 b3 00 	addw	t2, t1, a1
180000af0: 3b 8e b3 00 	addw	t3, t2, a1
180000af4: bb 0e be 00 	addw	t4, t3, a1
180000af8: 3b 8f be 00 	addw	t5, t4, a1
180000afc: bb 0f bf 00 	addw	t6, t5, a1
180000b00: bb 84 bf 00 	addw	s1, t6, a1
180000b04: 3b 89 b4 00 	addw	s2, s1, a1
180000b08: bb 09 b9 00 	addw	s3, s2, a1
180000b0c: 3b 8a b9 00 	addw	s4, s3, a1
180000b10: bb 05 ba 00 	addw	a1, s4, a1
180000b14: 93 0a 00 00 	li	s5, 0x0
180000b18: 6f 00 40 00 	j	0x180000b1c <_Z12lud_diagonalPfii+0x71c>
180000b1c: bb eb ea 02 	remw	s7, s5, a4
180000b20: 13 9b 0b 02 	slli	s6, s7, 0x20
180000b24: 13 5b 0b 02 	srli	s6, s6, 0x20
180000b28: bb 8c cb 00 	addw	s9, s7, a2
180000b2c: 1b 8c 07 00 	sext.w	s8, a5
180000b30: 33 bd 8c 01 	sltu	s10, s9, s8
180000b34: 0b 2c 1d 00 	vx_split_n	s8, s10
180000b38: 63 06 0d 02 	beqz	s10, 0x180000b64 <_Z12lud_diagonalPfii+0x764>
180000b3c: 6f 00 40 00 	j	0x180000b40 <_Z12lud_diagonalPfii+0x740>
180000b40: 13 1d 2b 00 	slli	s10, s6, 0x2
180000b44: 93 0d 82 01 	addi	s11, tp, 0x18
180000b48: 33 8d ad 01 	add	s10, s11, s10
180000b4c: 87 27 0d 04 	flw	fa5, 0x40(s10)
180000b50: 93 9c 0c 02 	slli	s9, s9, 0x20
180000b54: 93 dc ec 01 	srli	s9, s9, 0x1e
180000b58: b3 0c 95 01 	add	s9, a0, s9
180000b5c: 27 a0 fc 00 	fsw	fa5, 0x0(s9)
180000b60: 6f 00 40 00 	j	0x180000b64 <_Z12lud_diagonalPfii+0x764>
180000b64: 0b 30 0c 00 	vx_join	s8
180000b68: 6f 00 40 00 	j	0x180000b6c <_Z12lud_diagonalPfii+0x76c>
180000b6c: bb 8c 0b 01 	addw	s9, s7, a6
180000b70: 1b 8c 07 00 	sext.w	s8, a5
180000b74: 33 bd 8c 01 	sltu	s10, s9, s8
180000b78: 0b 2c 1d 00 	vx_split_n	s8, s10
180000b7c: 63 06 0d 02 	beqz	s10, 0x180000ba8 <_Z12lud_diagonalPfii+0x7a8>
180000b80: 6f 00 40 00 	j	0x180000b84 <_Z12lud_diagonalPfii+0x784>
180000b84: 13 1d 2b 00 	slli	s10, s6, 0x2
180000b88: 93 0d 82 01 	addi	s11, tp, 0x18
180000b8c: 33 8d ad 01 	add	s10, s11, s10
180000b90: 87 27 0d 08 	flw	fa5, 0x80(s10)
180000b94: 93 9c 0c 02 	slli	s9, s9, 0x20
180000b98: 93 dc ec 01 	srli	s9, s9, 0x1e
180000b9c: b3 0c 95 01 	add	s9, a0, s9
180000ba0: 27 a0 fc 00 	fsw	fa5, 0x0(s9)
180000ba4: 6f 00 40 00 	j	0x180000ba8 <_Z12lud_diagonalPfii+0x7a8>
180000ba8: 0b 30 0c 00 	vx_join	s8
180000bac: 6f 00 40 00 	j	0x180000bb0 <_Z12lud_diagonalPfii+0x7b0>
180000bb0: bb 8c 1b 01 	addw	s9, s7, a7
180000bb4: 1b 8c 07 00 	sext.w	s8, a5
180000bb8: 33 bd 8c 01 	sltu	s10, s9, s8
180000bbc: 0b 2c 1d 00 	vx_split_n	s8, s10
180000bc0: 63 06 0d 02 	beqz	s10, 0x180000bec <_Z12lud_diagonalPfii+0x7ec>
180000bc4: 6f 00 40 00 	j	0x180000bc8 <_Z12lud_diagonalPfii+0x7c8>
180000bc8: 13 1d 2b 00 	slli	s10, s6, 0x2
180000bcc: 93 0d 82 01 	addi	s11, tp, 0x18
180000bd0: 33 8d ad 01 	add	s10, s11, s10
180000bd4: 87 27 0d 0c 	flw	fa5, 0xc0(s10)
180000bd8: 93 9c 0c 02 	slli	s9, s9, 0x20
180000bdc: 93 dc ec 01 	srli	s9, s9, 0x1e
180000be0: b3 0c 95 01 	add	s9, a0, s9
180000be4: 27 a0 fc 00 	fsw	fa5, 0x0(s9)
180000be8: 6f 00 40 00 	j	0x180000bec <_Z12lud_diagonalPfii+0x7ec>
180000bec: 0b 30 0c 00 	vx_join	s8
180000bf0: 6f 00 40 00 	j	0x180000bf4 <_Z12lud_diagonalPfii+0x7f4>
180000bf4: bb 8c 5b 00 	addw	s9, s7, t0
180000bf8: 1b 8c 07 00 	sext.w	s8, a5
180000bfc: 33 bd 8c 01 	sltu	s10, s9, s8
180000c00: 0b 2c 1d 00 	vx_split_n	s8, s10
180000c04: 63 06 0d 02 	beqz	s10, 0x180000c30 <_Z12lud_diagonalPfii+0x830>
180000c08: 6f 00 40 00 	j	0x180000c0c <_Z12lud_diagonalPfii+0x80c>
180000c0c: 13 1d 2b 00 	slli	s10, s6, 0x2
180000c10: 93 0d 82 01 	addi	s11, tp, 0x18
180000c14: 33 8d ad 01 	add	s10, s11, s10
180000c18: 87 27 0d 10 	flw	fa5, 0x100(s10)
180000c1c: 93 9c 0c 02 	slli	s9, s9, 0x20
180000c20: 93 dc ec 01 	srli	s9, s9, 0x1e
180000c24: b3 0c 95 01 	add	s9, a0, s9
180000c28: 27 a0 fc 00 	fsw	fa5, 0x0(s9)
180000c2c: 6f 00 40 00 	j	0x180000c30 <_Z12lud_diagonalPfii+0x830>
180000c30: 0b 30 0c 00 	vx_join	s8
180000c34: 6f 00 40 00 	j	0x180000c38 <_Z12lud_diagonalPfii+0x838>
180000c38: bb 8c 6b 00 	addw	s9, s7, t1
180000c3c: 1b 8c 07 00 	sext.w	s8, a5
180000c40: 33 bd 8c 01 	sltu	s10, s9, s8
180000c44: 0b 2c 1d 00 	vx_split_n	s8, s10
180000c48: 63 06 0d 02 	beqz	s10, 0x180000c74 <_Z12lud_diagonalPfii+0x874>
180000c4c: 6f 00 40 00 	j	0x180000c50 <_Z12lud_diagonalPfii+0x850>
180000c50: 13 1d 2b 00 	slli	s10, s6, 0x2
180000c54: 93 0d 82 01 	addi	s11, tp, 0x18
180000c58: 33 8d ad 01 	add	s10, s11, s10
180000c5c: 87 27 0d 14 	flw	fa5, 0x140(s10)
180000c60: 93 9c 0c 02 	slli	s9, s9, 0x20
180000c64: 93 dc ec 01 	srli	s9, s9, 0x1e
180000c68: b3 0c 95 01 	add	s9, a0, s9
180000c6c: 27 a0 fc 00 	fsw	fa5, 0x0(s9)
180000c70: 6f 00 40 00 	j	0x180000c74 <_Z12lud_diagonalPfii+0x874>
180000c74: 0b 30 0c 00 	vx_join	s8
180000c78: 6f 00 40 00 	j	0x180000c7c <_Z12lud_diagonalPfii+0x87c>
180000c7c: bb 8c 7b 00 	addw	s9, s7, t2
180000c80: 1b 8c 07 00 	sext.w	s8, a5
180000c84: 33 bd 8c 01 	sltu	s10, s9, s8
180000c88: 0b 2c 1d 00 	vx_split_n	s8, s10
180000c8c: 63 06 0d 02 	beqz	s10, 0x180000cb8 <_Z12lud_diagonalPfii+0x8b8>
180000c90: 6f 00 40 00 	j	0x180000c94 <_Z12lud_diagonalPfii+0x894>
180000c94: 13 1d 2b 00 	slli	s10, s6, 0x2
180000c98: 93 0d 82 01 	addi	s11, tp, 0x18
180000c9c: 33 8d ad 01 	add	s10, s11, s10
180000ca0: 87 27 0d 18 	flw	fa5, 0x180(s10)
180000ca4: 93 9c 0c 02 	slli	s9, s9, 0x20
180000ca8: 93 dc ec 01 	srli	s9, s9, 0x1e
180000cac: b3 0c 95 01 	add	s9, a0, s9
180000cb0: 27 a0 fc 00 	fsw	fa5, 0x0(s9)
180000cb4: 6f 00 40 00 	j	0x180000cb8 <_Z12lud_diagonalPfii+0x8b8>
180000cb8: 0b 30 0c 00 	vx_join	s8
180000cbc: 6f 00 40 00 	j	0x180000cc0 <_Z12lud_diagonalPfii+0x8c0>
180000cc0: bb 8c cb 01 	addw	s9, s7, t3
180000cc4: 1b 8c 07 00 	sext.w	s8, a5
180000cc8: 33 bd 8c 01 	sltu	s10, s9, s8
180000ccc: 0b 2c 1d 00 	vx_split_n	s8, s10
180000cd0: 63 06 0d 02 	beqz	s10, 0x180000cfc <_Z12lud_diagonalPfii+0x8fc>
180000cd4: 6f 00 40 00 	j	0x180000cd8 <_Z12lud_diagonalPfii+0x8d8>
180000cd8: 13 1d 2b 00 	slli	s10, s6, 0x2
180000cdc: 93 0d 82 01 	addi	s11, tp, 0x18
180000ce0: 33 8d ad 01 	add	s10, s11, s10
180000ce4: 87 27 0d 1c 	flw	fa5, 0x1c0(s10)
180000ce8: 93 9c 0c 02 	slli	s9, s9, 0x20
180000cec: 93 dc ec 01 	srli	s9, s9, 0x1e
180000cf0: b3 0c 95 01 	add	s9, a0, s9
180000cf4: 27 a0 fc 00 	fsw	fa5, 0x0(s9)
180000cf8: 6f 00 40 00 	j	0x180000cfc <_Z12lud_diagonalPfii+0x8fc>
180000cfc: 0b 30 0c 00 	vx_join	s8
180000d00: 6f 00 40 00 	j	0x180000d04 <_Z12lud_diagonalPfii+0x904>
180000d04: bb 8c db 01 	addw	s9, s7, t4
180000d08: 1b 8c 07 00 	sext.w	s8, a5
180000d0c: 33 bd 8c 01 	sltu	s10, s9, s8
180000d10: 0b 2c 1d 00 	vx_split_n	s8, s10
180000d14: 63 06 0d 02 	beqz	s10, 0x180000d40 <_Z12lud_diagonalPfii+0x940>
180000d18: 6f 00 40 00 	j	0x180000d1c <_Z12lud_diagonalPfii+0x91c>
180000d1c: 13 1d 2b 00 	slli	s10, s6, 0x2
180000d20: 93 0d 82 01 	addi	s11, tp, 0x18
180000d24: 33 8d ad 01 	add	s10, s11, s10
180000d28: 87 27 0d 20 	flw	fa5, 0x200(s10)
180000d2c: 93 9c 0c 02 	slli	s9, s9, 0x20
180000d30: 93 dc ec 01 	srli	s9, s9, 0x1e
180000d34: b3 0c 95 01 	add	s9, a0, s9
180000d38: 27 a0 fc 00 	fsw	fa5, 0x0(s9)
180000d3c: 6f 00 40 00 	j	0x180000d40 <_Z12lud_diagonalPfii+0x940>
180000d40: 0b 30 0c 00 	vx_join	s8
180000d44: 6f 00 40 00 	j	0x180000d48 <_Z12lud_diagonalPfii+0x948>
180000d48: bb 8c eb 01 	addw	s9, s7, t5
180000d4c: 1b 8c 07 00 	sext.w	s8, a5
180000d50: 33 bd 8c 01 	sltu	s10, s9, s8
180000d54: 0b 2c 1d 00 	vx_split_n	s8, s10
180000d58: 63 06 0d 02 	beqz	s10, 0x180000d84 <_Z12lud_diagonalPfii+0x984>
180000d5c: 6f 00 40 00 	j	0x180000d60 <_Z12lud_diagonalPfii+0x960>
180000d60: 13 1d 2b 00 	slli	s10, s6, 0x2
180000d64: 93 0d 82 01 	addi	s11, tp, 0x18
180000d68: 33 8d ad 01 	add	s10, s11, s10
180000d6c: 87 27 0d 24 	flw	fa5, 0x240(s10)
180000d70: 93 9c 0c 02 	slli	s9, s9, 0x20
180000d74: 93 dc ec 01 	srli	s9, s9, 0x1e
180000d78: b3 0c 95 01 	add	s9, a0, s9
180000d7c: 27 a0 fc 00 	fsw	fa5, 0x0(s9)
180000d80: 6f 00 40 00 	j	0x180000d84 <_Z12lud_diagonalPfii+0x984>
180000d84: 0b 30 0c 00 	vx_join	s8
180000d88: 6f 00 40 00 	j	0x180000d8c <_Z12lud_diagonalPfii+0x98c>
180000d8c: bb 8c fb 01 	addw	s9, s7, t6
180000d90: 1b 8c 07 00 	sext.w	s8, a5
180000d94: 33 bd 8c 01 	sltu	s10, s9, s8
180000d98: 0b 2c 1d 00 	vx_split_n	s8, s10
180000d9c: 63 06 0d 02 	beqz	s10, 0x180000dc8 <_Z12lud_diagonalPfii+0x9c8>
180000da0: 6f 00 40 00 	j	0x180000da4 <_Z12lud_diagonalPfii+0x9a4>
180000da4: 13 1d 2b 00 	slli	s10, s6, 0x2
180000da8: 93 0d 82 01 	addi	s11, tp, 0x18
180000dac: 33 8d ad 01 	add	s10, s11, s10
180000db0: 87 27 0d 28 	flw	fa5, 0x280(s10)
180000db4: 93 9c 0c 02 	slli	s9, s9, 0x20
180000db8: 93 dc ec 01 	srli	s9, s9, 0x1e
180000dbc: b3 0c 95 01 	add	s9, a0, s9
180000dc0: 27 a0 fc 00 	fsw	fa5, 0x0(s9)
180000dc4: 6f 00 40 00 	j	0x180000dc8 <_Z12lud_diagonalPfii+0x9c8>
180000dc8: 0b 30 0c 00 	vx_join	s8
180000dcc: 6f 00 40 00 	j	0x180000dd0 <_Z12lud_diagonalPfii+0x9d0>
180000dd0: bb 8c 9b 00 	addw	s9, s7, s1
180000dd4: 1b 8c 07 00 	sext.w	s8, a5
180000dd8: 33 bd 8c 01 	sltu	s10, s9, s8
180000ddc: 0b 2c 1d 00 	vx_split_n	s8, s10
180000de0: 63 06 0d 02 	beqz	s10, 0x180000e0c <_Z12lud_diagonalPfii+0xa0c>
180000de4: 6f 00 40 00 	j	0x180000de8 <_Z12lud_diagonalPfii+0x9e8>
180000de8: 13 1d 2b 00 	slli	s10, s6, 0x2
180000dec: 93 0d 82 01 	addi	s11, tp, 0x18
180000df0: 33 8d ad 01 	add	s10, s11, s10
180000df4: 87 27 0d 2c 	flw	fa5, 0x2c0(s10)
180000df8: 93 9c 0c 02 	slli	s9, s9, 0x20
180000dfc: 93 dc ec 01 	srli	s9, s9, 0x1e
180000e00: b3 0c 95 01 	add	s9, a0, s9
180000e04: 27 a0 fc 00 	fsw	fa5, 0x0(s9)
180000e08: 6f 00 40 00 	j	0x180000e0c <_Z12lud_diagonalPfii+0xa0c>
180000e0c: 0b 30 0c 00 	vx_join	s8
180000e10: 6f 00 40 00 	j	0x180000e14 <_Z12lud_diagonalPfii+0xa14>
180000e14: bb 8c 2b 01 	addw	s9, s7, s2
180000e18: 1b 8c 07 00 	sext.w	s8, a5
180000e1c: 33 bd 8c 01 	sltu	s10, s9, s8
180000e20: 0b 2c 1d 00 	vx_split_n	s8, s10
180000e24: 63 06 0d 02 	beqz	s10, 0x180000e50 <_Z12lud_diagonalPfii+0xa50>
180000e28: 6f 00 40 00 	j	0x180000e2c <_Z12lud_diagonalPfii+0xa2c>
180000e2c: 13 1d 2b 00 	slli	s10, s6, 0x2
180000e30: 93 0d 82 01 	addi	s11, tp, 0x18
180000e34: 33 8d ad 01 	add	s10, s11, s10
180000e38: 87 27 0d 30 	flw	fa5, 0x300(s10)
180000e3c: 93 9c 0c 02 	slli	s9, s9, 0x20
180000e40: 93 dc ec 01 	srli	s9, s9, 0x1e
180000e44: b3 0c 95 01 	add	s9, a0, s9
180000e48: 27 a0 fc 00 	fsw	fa5, 0x0(s9)
180000e4c: 6f 00 40 00 	j	0x180000e50 <_Z12lud_diagonalPfii+0xa50>
180000e50: 0b 30 0c 00 	vx_join	s8
180000e54: 6f 00 40 00 	j	0x180000e58 <_Z12lud_diagonalPfii+0xa58>
180000e58: bb 8c 3b 01 	addw	s9, s7, s3
180000e5c: 1b 8c 07 00 	sext.w	s8, a5
180000e60: 33 bd 8c 01 	sltu	s10, s9, s8
180000e64: 0b 2c 1d 00 	vx_split_n	s8, s10
180000e68: 63 06 0d 02 	beqz	s10, 0x180000e94 <_Z12lud_diagonalPfii+0xa94>
180000e6c: 6f 00 40 00 	j	0x180000e70 <_Z12lud_diagonalPfii+0xa70>
180000e70: 13 1d 2b 00 	slli	s10, s6, 0x2
180000e74: 93 0d 82 01 	addi	s11, tp, 0x18
180000e78: 33 8d ad 01 	add	s10, s11, s10
180000e7c: 87 27 0d 34 	flw	fa5, 0x340(s10)
180000e80: 93 9c 0c 02 	slli	s9, s9, 0x20
180000e84: 93 dc ec 01 	srli	s9, s9, 0x1e
180000e88: b3 0c 95 01 	add	s9, a0, s9
180000e8c: 27 a0 fc 00 	fsw	fa5, 0x0(s9)
180000e90: 6f 00 40 00 	j	0x180000e94 <_Z12lud_diagonalPfii+0xa94>
180000e94: 0b 30 0c 00 	vx_join	s8
180000e98: 6f 00 40 00 	j	0x180000e9c <_Z12lud_diagonalPfii+0xa9c>
180000e9c: bb 8c 4b 01 	addw	s9, s7, s4
180000ea0: 1b 8c 07 00 	sext.w	s8, a5
180000ea4: 33 bd 8c 01 	sltu	s10, s9, s8
180000ea8: 0b 2c 1d 00 	vx_split_n	s8, s10
180000eac: 63 06 0d 02 	beqz	s10, 0x180000ed8 <_Z12lud_diagonalPfii+0xad8>
180000eb0: 6f 00 40 00 	j	0x180000eb4 <_Z12lud_diagonalPfii+0xab4>
180000eb4: 13 1d 2b 00 	slli	s10, s6, 0x2
180000eb8: 93 0d 82 01 	addi	s11, tp, 0x18
180000ebc: 33 8d ad 01 	add	s10, s11, s10
180000ec0: 87 27 0d 38 	flw	fa5, 0x380(s10)
180000ec4: 93 9c 0c 02 	slli	s9, s9, 0x20
180000ec8: 93 dc ec 01 	srli	s9, s9, 0x1e
180000ecc: b3 0c 95 01 	add	s9, a0, s9
180000ed0: 27 a0 fc 00 	fsw	fa5, 0x0(s9)
180000ed4: 6f 00 40 00 	j	0x180000ed8 <_Z12lud_diagonalPfii+0xad8>
180000ed8: 0b 30 0c 00 	vx_join	s8
180000edc: 6f 00 40 00 	j	0x180000ee0 <_Z12lud_diagonalPfii+0xae0>
180000ee0: 3b 8c bb 00 	addw	s8, s7, a1
180000ee4: 9b 8b 07 00 	sext.w	s7, a5
180000ee8: b3 3c 7c 01 	sltu	s9, s8, s7
180000eec: 8b ab 1c 00 	vx_split_n	s7, s9
180000ef0: 63 86 0c 02 	beqz	s9, 0x180000f1c <_Z12lud_diagonalPfii+0xb1c>
180000ef4: 6f 00 40 00 	j	0x180000ef8 <_Z12lud_diagonalPfii+0xaf8>
180000ef8: 13 1b 2b 00 	slli	s6, s6, 0x2
180000efc: 93 0c 82 01 	addi	s9, tp, 0x18
180000f00: 33 8b 6c 01 	add	s6, s9, s6
180000f04: 87 27 0b 3c 	flw	fa5, 0x3c0(s6)
180000f08: 13 1c 0c 02 	slli	s8, s8, 0x20
180000f0c: 13 5b ec 01 	srli	s6, s8, 0x1e
180000f10: 33 0b 65 01 	add	s6, a0, s6
180000f14: 27 20 fb 00 	fsw	fa5, 0x0(s6)
180000f18: 6f 00 40 00 	j	0x180000f1c <_Z12lud_diagonalPfii+0xb1c>
180000f1c: 0b b0 0b 00 	vx_join	s7
180000f20: 6f 00 40 00 	j	0x180000f24 <_Z12lud_diagonalPfii+0xb24>
180000f24: 9b 8a 1a 00 	addiw	s5, s5, 0x1
180000f28: 1b 8b 06 00 	sext.w	s6, a3
180000f2c: e3 98 6a bf 	bne	s5, s6, 0x180000b1c <_Z12lud_diagonalPfii+0x71c>
180000f30: 6f 00 40 00 	j	0x180000f34 <_Z12lud_diagonalPfii+0xb34>
180000f34: 6f 00 40 00 	j	0x180000f38 <_Z12lud_diagonalPfii+0xb38>
180000f38: 83 30 81 06 	ld	ra, 0x68(sp)
180000f3c: 03 34 01 06 	ld	s0, 0x60(sp)
180000f40: 83 34 81 05 	ld	s1, 0x58(sp)
180000f44: 03 39 01 05 	ld	s2, 0x50(sp)
180000f48: 83 39 81 04 	ld	s3, 0x48(sp)
180000f4c: 03 3a 01 04 	ld	s4, 0x40(sp)
180000f50: 83 3a 81 03 	ld	s5, 0x38(sp)
180000f54: 03 3b 01 03 	ld	s6, 0x30(sp)
180000f58: 83 3b 81 02 	ld	s7, 0x28(sp)
180000f5c: 03 3c 01 02 	ld	s8, 0x20(sp)
180000f60: 83 3c 81 01 	ld	s9, 0x18(sp)
180000f64: 03 3d 01 01 	ld	s10, 0x10(sp)
180000f68: 83 3d 81 00 	ld	s11, 0x8(sp)
180000f6c: 13 01 01 07 	addi	sp, sp, 0x70
180000f70: 67 80 00 00 	ret

0000000180000f74 <_Z13lud_perimeterPfii>:
180000f74: 13 01 01 cd 	addi	sp, sp, -0x330
180000f78: 23 34 11 32 	sd	ra, 0x328(sp)
180000f7c: 23 30 81 32 	sd	s0, 0x320(sp)
180000f80: 23 3c 91 30 	sd	s1, 0x318(sp)
180000f84: 23 38 21 31 	sd	s2, 0x310(sp)
180000f88: 23 34 31 31 	sd	s3, 0x308(sp)
180000f8c: 23 30 41 31 	sd	s4, 0x300(sp)
180000f90: 23 3c 51 2f 	sd	s5, 0x2f8(sp)
180000f94: 23 38 61 2f 	sd	s6, 0x2f0(sp)
180000f98: 23 34 71 2f 	sd	s7, 0x2e8(sp)
180000f9c: 23 30 81 2f 	sd	s8, 0x2e0(sp)
180000fa0: 23 3c 91 2d 	sd	s9, 0x2d8(sp)
180000fa4: 23 38 a1 2d 	sd	s10, 0x2d0(sp)
180000fa8: 23 34 b1 2d 	sd	s11, 0x2c8(sp)
180000fac: 27 30 81 2c 	fsd	fs0, 0x2c0(sp)
180000fb0: 27 3c 91 2a 	fsd	fs1, 0x2b8(sp)
180000fb4: 27 38 21 2b 	fsd	fs2, 0x2b0(sp)
180000fb8: 27 34 31 2b 	fsd	fs3, 0x2a8(sp)
180000fbc: 27 30 41 2b 	fsd	fs4, 0x2a0(sp)
180000fc0: 27 3c 51 29 	fsd	fs5, 0x298(sp)
180000fc4: 27 38 61 29 	fsd	fs6, 0x290(sp)
180000fc8: 27 34 71 29 	fsd	fs7, 0x288(sp)
180000fcc: 27 30 81 29 	fsd	fs8, 0x280(sp)
180000fd0: 27 3c 91 27 	fsd	fs9, 0x278(sp)
180000fd4: 27 38 a1 27 	fsd	fs10, 0x270(sp)
180000fd8: 27 34 b1 27 	fsd	fs11, 0x268(sp)
180000fdc: 13 04 01 33 	addi	s0, sp, 0x330
180000fe0: 97 66 00 00 	auipc	a3, 0x6
180000fe4: 93 86 86 7b 	addi	a3, a3, 0x7b8
180000fe8: 83 a6 06 00 	lw	a3, 0x0(a3)
180000fec: 63 94 06 00 	bnez	a3, 0x180000ff4 <_Z13lud_perimeterPfii+0x80>
180000ff0: 6f 20 00 30 	j	0x1800032f0 <_Z13lud_perimeterPfii+0x237c>
180000ff4: 17 67 00 00 	auipc	a4, 0x6
180000ff8: 13 07 87 79 	addi	a4, a4, 0x798
180000ffc: 83 20 07 00 	lw	ra, 0x0(a4)
180001000: 1b 07 86 00 	addiw	a4, a2, 0x8
180001004: 3b 07 b7 02 	mulw	a4, a4, a1
180001008: bb 07 c7 00 	addw	a5, a4, a2
18000100c: 3b 88 b5 02 	mulw	a6, a1, a1
180001010: 93 08 02 00 	mv	a7, tp
180001014: 1b 07 06 01 	addiw	a4, a2, 0x10
180001018: 23 34 e4 f2 	sd	a4, -0xd8(s0)
18000101c: 1b 87 15 00 	addiw	a4, a1, 0x1
180001020: 3b 03 c7 02 	mulw	t1, a4, a2
180001024: 9b 83 05 00 	sext.w	t2, a1
180001028: 23 38 f4 f2 	sd	a5, -0xd0(s0)
18000102c: b3 87 77 00 	add	a5, a5, t2
180001030: 23 30 f4 f2 	sd	a5, -0xe0(s0)
180001034: b3 87 77 00 	add	a5, a5, t2
180001038: 23 3c f4 f0 	sd	a5, -0xe8(s0)
18000103c: b3 87 77 00 	add	a5, a5, t2
180001040: 23 38 f4 f0 	sd	a5, -0xf0(s0)
180001044: b3 87 77 00 	add	a5, a5, t2
180001048: 23 34 f4 f0 	sd	a5, -0xf8(s0)
18000104c: b3 87 77 00 	add	a5, a5, t2
180001050: 23 30 f4 f0 	sd	a5, -0x100(s0)
180001054: b3 87 77 00 	add	a5, a5, t2
180001058: 23 3c f4 ee 	sd	a5, -0x108(s0)
18000105c: b3 87 77 00 	add	a5, a5, t2
180001060: 23 38 f4 ee 	sd	a5, -0x110(s0)
180001064: 33 07 73 00 	add	a4, t1, t2
180001068: 23 34 e4 ee 	sd	a4, -0x118(s0)
18000106c: 33 07 77 00 	add	a4, a4, t2
180001070: 23 30 e4 ee 	sd	a4, -0x120(s0)
180001074: 33 07 77 00 	add	a4, a4, t2
180001078: 23 3c e4 ec 	sd	a4, -0x128(s0)
18000107c: 33 07 77 00 	add	a4, a4, t2
180001080: 23 38 e4 ec 	sd	a4, -0x130(s0)
180001084: 33 07 77 00 	add	a4, a4, t2
180001088: 23 34 e4 ec 	sd	a4, -0x138(s0)
18000108c: 33 07 77 00 	add	a4, a4, t2
180001090: 23 30 e4 ec 	sd	a4, -0x140(s0)
180001094: 33 07 77 00 	add	a4, a4, t2
180001098: 23 3c e4 ea 	sd	a4, -0x148(s0)
18000109c: 3b 07 b3 00 	addw	a4, t1, a1
1800010a0: 23 38 e4 ea 	sd	a4, -0x150(s0)
1800010a4: 3b 07 b7 00 	addw	a4, a4, a1
1800010a8: 23 34 e4 ea 	sd	a4, -0x158(s0)
1800010ac: 3b 07 b7 00 	addw	a4, a4, a1
1800010b0: 23 30 e4 ea 	sd	a4, -0x160(s0)
1800010b4: bb 09 b7 00 	addw	s3, a4, a1
1800010b8: 3b 8d b9 00 	addw	s10, s3, a1
1800010bc: 3b 0e bd 00 	addw	t3, s10, a1
1800010c0: bb 0e be 00 	addw	t4, t3, a1
1800010c4: 3b 8f be 00 	addw	t5, t4, a1
1800010c8: bb 0f bf 00 	addw	t6, t5, a1
1800010cc: 3b 89 bf 00 	addw	s2, t6, a1
1800010d0: 3b 0a b9 00 	addw	s4, s2, a1
1800010d4: bb 04 ba 00 	addw	s1, s4, a1
1800010d8: bb 87 b4 00 	addw	a5, s1, a1
1800010dc: 3b 87 b7 00 	addw	a4, a5, a1
1800010e0: bb 02 b7 00 	addw	t0, a4, a1
1800010e4: 23 3c 54 e8 	sd	t0, -0x168(s0)
1800010e8: 93 0a 00 00 	li	s5, 0x0
1800010ec: 6f 00 00 39 	j	0x18000147c <_Z13lud_perimeterPfii+0x508>
1800010f0: 17 67 00 00 	auipc	a4, 0x6
1800010f4: 13 07 c7 69 	addi	a4, a4, 0x69c
1800010f8: 03 27 07 00 	lw	a4, 0x0(a4)
1800010fc: 93 07 82 41 	addi	a5, tp, 0x418
180001100: 87 a7 07 04 	flw	fa5, 0x40(a5)
180001104: 27 22 f4 e6 	fsw	fa5, -0x19c(s0)
180001108: 87 a7 07 08 	flw	fa5, 0x80(a5)
18000110c: 27 20 f4 e6 	fsw	fa5, -0x1a0(s0)
180001110: 87 a7 47 08 	flw	fa5, 0x84(a5)
180001114: 27 2e f4 e4 	fsw	fa5, -0x1a4(s0)
180001118: 87 a7 07 0c 	flw	fa5, 0xc0(a5)
18000111c: 27 2c f4 e4 	fsw	fa5, -0x1a8(s0)
180001120: 87 a7 47 0c 	flw	fa5, 0xc4(a5)
180001124: 27 2a f4 e4 	fsw	fa5, -0x1ac(s0)
180001128: 87 a7 87 0c 	flw	fa5, 0xc8(a5)
18000112c: 27 28 f4 e4 	fsw	fa5, -0x1b0(s0)
180001130: 87 a7 07 10 	flw	fa5, 0x100(a5)
180001134: 27 26 f4 e4 	fsw	fa5, -0x1b4(s0)
180001138: 87 a7 47 10 	flw	fa5, 0x104(a5)
18000113c: 27 24 f4 e4 	fsw	fa5, -0x1b8(s0)
180001140: 87 a7 87 10 	flw	fa5, 0x108(a5)
180001144: 27 22 f4 e4 	fsw	fa5, -0x1bc(s0)
180001148: 87 a7 c7 10 	flw	fa5, 0x10c(a5)
18000114c: 27 20 f4 e4 	fsw	fa5, -0x1c0(s0)
180001150: 87 a7 07 14 	flw	fa5, 0x140(a5)
180001154: 27 2e f4 e2 	fsw	fa5, -0x1c4(s0)
180001158: 87 a7 47 14 	flw	fa5, 0x144(a5)
18000115c: 27 2c f4 e2 	fsw	fa5, -0x1c8(s0)
180001160: 87 a7 87 14 	flw	fa5, 0x148(a5)
180001164: 27 2a f4 e2 	fsw	fa5, -0x1cc(s0)
180001168: 87 a7 c7 14 	flw	fa5, 0x14c(a5)
18000116c: 27 28 f4 e2 	fsw	fa5, -0x1d0(s0)
180001170: 87 a7 07 15 	flw	fa5, 0x150(a5)
180001174: 27 26 f4 e2 	fsw	fa5, -0x1d4(s0)
180001178: 87 a7 07 18 	flw	fa5, 0x180(a5)
18000117c: 27 24 f4 e2 	fsw	fa5, -0x1d8(s0)
180001180: 87 a7 47 18 	flw	fa5, 0x184(a5)
180001184: 27 22 f4 e2 	fsw	fa5, -0x1dc(s0)
180001188: 87 a7 87 18 	flw	fa5, 0x188(a5)
18000118c: 27 20 f4 e2 	fsw	fa5, -0x1e0(s0)
180001190: 87 a7 c7 18 	flw	fa5, 0x18c(a5)
180001194: 27 2e f4 e0 	fsw	fa5, -0x1e4(s0)
180001198: 87 a7 07 19 	flw	fa5, 0x190(a5)
18000119c: 27 2c f4 e0 	fsw	fa5, -0x1e8(s0)
1800011a0: 87 a7 47 19 	flw	fa5, 0x194(a5)
1800011a4: 27 2a f4 e0 	fsw	fa5, -0x1ec(s0)
1800011a8: 87 a7 07 1c 	flw	fa5, 0x1c0(a5)
1800011ac: 27 28 f4 e0 	fsw	fa5, -0x1f0(s0)
1800011b0: 87 a7 47 1c 	flw	fa5, 0x1c4(a5)
1800011b4: 27 26 f4 e0 	fsw	fa5, -0x1f4(s0)
1800011b8: 87 a7 87 1c 	flw	fa5, 0x1c8(a5)
1800011bc: 27 24 f4 e0 	fsw	fa5, -0x1f8(s0)
1800011c0: 87 a7 c7 1c 	flw	fa5, 0x1cc(a5)
1800011c4: 27 22 f4 e0 	fsw	fa5, -0x1fc(s0)
1800011c8: 87 a7 07 1d 	flw	fa5, 0x1d0(a5)
1800011cc: 27 20 f4 e0 	fsw	fa5, -0x200(s0)
1800011d0: 87 a7 47 1d 	flw	fa5, 0x1d4(a5)
1800011d4: 27 2e f4 de 	fsw	fa5, -0x204(s0)
1800011d8: 87 a7 87 1d 	flw	fa5, 0x1d8(a5)
1800011dc: 27 2c f4 de 	fsw	fa5, -0x208(s0)
1800011e0: 87 a7 07 20 	flw	fa5, 0x200(a5)
1800011e4: 27 2a f4 de 	fsw	fa5, -0x20c(s0)
1800011e8: 87 a7 47 20 	flw	fa5, 0x204(a5)
1800011ec: 27 28 f4 de 	fsw	fa5, -0x210(s0)
1800011f0: 87 a7 87 20 	flw	fa5, 0x208(a5)
1800011f4: 27 26 f4 de 	fsw	fa5, -0x214(s0)
1800011f8: 87 a7 c7 20 	flw	fa5, 0x20c(a5)
1800011fc: 27 24 f4 de 	fsw	fa5, -0x218(s0)
180001200: 87 a7 07 21 	flw	fa5, 0x210(a5)
180001204: 27 22 f4 de 	fsw	fa5, -0x21c(s0)
180001208: 87 a7 47 21 	flw	fa5, 0x214(a5)
18000120c: 27 20 f4 de 	fsw	fa5, -0x220(s0)
180001210: 87 a7 87 21 	flw	fa5, 0x218(a5)
180001214: 27 2e f4 dc 	fsw	fa5, -0x224(s0)
180001218: 87 a7 c7 21 	flw	fa5, 0x21c(a5)
18000121c: 27 2c f4 dc 	fsw	fa5, -0x228(s0)
180001220: 87 a7 07 24 	flw	fa5, 0x240(a5)
180001224: 27 2a f4 dc 	fsw	fa5, -0x22c(s0)
180001228: 87 a7 47 24 	flw	fa5, 0x244(a5)
18000122c: 27 28 f4 dc 	fsw	fa5, -0x230(s0)
180001230: 87 a7 87 24 	flw	fa5, 0x248(a5)
180001234: 27 26 f4 dc 	fsw	fa5, -0x234(s0)
180001238: 87 a7 c7 24 	flw	fa5, 0x24c(a5)
18000123c: 27 24 f4 dc 	fsw	fa5, -0x238(s0)
180001240: 87 a7 07 25 	flw	fa5, 0x250(a5)
180001244: 27 22 f4 dc 	fsw	fa5, -0x23c(s0)
180001248: 87 a7 47 25 	flw	fa5, 0x254(a5)
18000124c: 27 20 f4 dc 	fsw	fa5, -0x240(s0)
180001250: 87 a7 87 25 	flw	fa5, 0x258(a5)
180001254: 27 2e f4 da 	fsw	fa5, -0x244(s0)
180001258: 87 a7 c7 25 	flw	fa5, 0x25c(a5)
18000125c: 27 2c f4 da 	fsw	fa5, -0x248(s0)
180001260: 87 a7 07 26 	flw	fa5, 0x260(a5)
180001264: 27 2a f4 da 	fsw	fa5, -0x24c(s0)
180001268: 87 a7 07 28 	flw	fa5, 0x280(a5)
18000126c: 27 28 f4 da 	fsw	fa5, -0x250(s0)
180001270: 87 a7 47 28 	flw	fa5, 0x284(a5)
180001274: 27 26 f4 da 	fsw	fa5, -0x254(s0)
180001278: 87 a7 87 28 	flw	fa5, 0x288(a5)
18000127c: 27 24 f4 da 	fsw	fa5, -0x258(s0)
180001280: 87 a7 c7 28 	flw	fa5, 0x28c(a5)
180001284: 27 22 f4 da 	fsw	fa5, -0x25c(s0)
180001288: 87 a7 07 29 	flw	fa5, 0x290(a5)
18000128c: 27 20 f4 da 	fsw	fa5, -0x260(s0)
180001290: 87 a7 47 29 	flw	fa5, 0x294(a5)
180001294: 27 2e f4 d8 	fsw	fa5, -0x264(s0)
180001298: 87 a7 87 29 	flw	fa5, 0x298(a5)
18000129c: 27 2c f4 d8 	fsw	fa5, -0x268(s0)
1800012a0: 87 a7 c7 29 	flw	fa5, 0x29c(a5)
1800012a4: 27 2a f4 d8 	fsw	fa5, -0x26c(s0)
1800012a8: 87 a7 07 2a 	flw	fa5, 0x2a0(a5)
1800012ac: 27 28 f4 d8 	fsw	fa5, -0x270(s0)
1800012b0: 87 a7 47 2a 	flw	fa5, 0x2a4(a5)
1800012b4: 27 26 f4 d8 	fsw	fa5, -0x274(s0)
1800012b8: 87 a7 07 2c 	flw	fa5, 0x2c0(a5)
1800012bc: 27 24 f4 d8 	fsw	fa5, -0x278(s0)
1800012c0: 87 a7 47 2c 	flw	fa5, 0x2c4(a5)
1800012c4: 27 22 f4 d8 	fsw	fa5, -0x27c(s0)
1800012c8: 87 a7 87 2c 	flw	fa5, 0x2c8(a5)
1800012cc: 27 20 f4 d8 	fsw	fa5, -0x280(s0)
1800012d0: 87 a7 c7 2c 	flw	fa5, 0x2cc(a5)
1800012d4: 27 2e f4 d6 	fsw	fa5, -0x284(s0)
1800012d8: 87 a7 07 2d 	flw	fa5, 0x2d0(a5)
1800012dc: 27 2c f4 d6 	fsw	fa5, -0x288(s0)
1800012e0: 87 a7 47 2d 	flw	fa5, 0x2d4(a5)
1800012e4: 27 2a f4 d6 	fsw	fa5, -0x28c(s0)
1800012e8: 87 a7 87 2d 	flw	fa5, 0x2d8(a5)
1800012ec: 27 28 f4 d6 	fsw	fa5, -0x290(s0)
1800012f0: 87 a7 c7 2d 	flw	fa5, 0x2dc(a5)
1800012f4: 27 26 f4 d6 	fsw	fa5, -0x294(s0)
1800012f8: 87 a7 07 2e 	flw	fa5, 0x2e0(a5)
1800012fc: 27 24 f4 d6 	fsw	fa5, -0x298(s0)
180001300: 87 a7 47 2e 	flw	fa5, 0x2e4(a5)
180001304: 27 22 f4 d6 	fsw	fa5, -0x29c(s0)
180001308: 87 a7 87 2e 	flw	fa5, 0x2e8(a5)
18000130c: 27 20 f4 d6 	fsw	fa5, -0x2a0(s0)
180001310: 87 a7 07 30 	flw	fa5, 0x300(a5)
180001314: 27 2e f4 d4 	fsw	fa5, -0x2a4(s0)
180001318: 87 a7 47 30 	flw	fa5, 0x304(a5)
18000131c: 27 2c f4 d4 	fsw	fa5, -0x2a8(s0)
180001320: 87 a7 87 30 	flw	fa5, 0x308(a5)
180001324: 27 2a f4 d4 	fsw	fa5, -0x2ac(s0)
180001328: 87 a7 c7 30 	flw	fa5, 0x30c(a5)
18000132c: 27 28 f4 d4 	fsw	fa5, -0x2b0(s0)
180001330: 87 a7 07 31 	flw	fa5, 0x310(a5)
180001334: 27 26 f4 d4 	fsw	fa5, -0x2b4(s0)
180001338: 87 a7 47 31 	flw	fa5, 0x314(a5)
18000133c: 27 24 f4 d4 	fsw	fa5, -0x2b8(s0)
180001340: 87 a7 87 31 	flw	fa5, 0x318(a5)
180001344: 27 22 f4 d4 	fsw	fa5, -0x2bc(s0)
180001348: 87 a7 c7 31 	flw	fa5, 0x31c(a5)
18000134c: 27 20 f4 d4 	fsw	fa5, -0x2c0(s0)
180001350: 87 a7 07 32 	flw	fa5, 0x320(a5)
180001354: 27 2e f4 d2 	fsw	fa5, -0x2c4(s0)
180001358: 87 a7 47 32 	flw	fa5, 0x324(a5)
18000135c: 27 2c f4 d2 	fsw	fa5, -0x2c8(s0)
180001360: 87 a7 87 32 	flw	fa5, 0x328(a5)
180001364: 27 2a f4 d2 	fsw	fa5, -0x2cc(s0)
180001368: 87 a7 c7 32 	flw	fa5, 0x32c(a5)
18000136c: 27 28 f4 d2 	fsw	fa5, -0x2d0(s0)
180001370: 87 a7 07 34 	flw	fa5, 0x340(a5)
180001374: 27 26 f4 d2 	fsw	fa5, -0x2d4(s0)
180001378: 87 a7 47 34 	flw	fa5, 0x344(a5)
18000137c: 27 24 f4 d2 	fsw	fa5, -0x2d8(s0)
180001380: 87 a7 87 34 	flw	fa5, 0x348(a5)
180001384: 27 22 f4 d2 	fsw	fa5, -0x2dc(s0)
180001388: 87 a7 c7 34 	flw	fa5, 0x34c(a5)
18000138c: 27 20 f4 d2 	fsw	fa5, -0x2e0(s0)
180001390: 87 a7 07 35 	flw	fa5, 0x350(a5)
180001394: 27 2e f4 d0 	fsw	fa5, -0x2e4(s0)
180001398: 87 a7 47 35 	flw	fa5, 0x354(a5)
18000139c: 27 2c f4 d0 	fsw	fa5, -0x2e8(s0)
1800013a0: 87 a7 87 35 	flw	fa5, 0x358(a5)
1800013a4: 27 2a f4 d0 	fsw	fa5, -0x2ec(s0)
1800013a8: 87 a7 c7 35 	flw	fa5, 0x35c(a5)
1800013ac: 27 28 f4 d0 	fsw	fa5, -0x2f0(s0)
1800013b0: 87 a7 07 36 	flw	fa5, 0x360(a5)
1800013b4: 27 26 f4 d0 	fsw	fa5, -0x2f4(s0)
1800013b8: 87 a7 47 36 	flw	fa5, 0x364(a5)
1800013bc: 27 24 f4 d0 	fsw	fa5, -0x2f8(s0)
1800013c0: 87 a7 87 36 	flw	fa5, 0x368(a5)
1800013c4: 27 22 f4 d0 	fsw	fa5, -0x2fc(s0)
1800013c8: 87 a7 c7 36 	flw	fa5, 0x36c(a5)
1800013cc: 27 20 f4 d0 	fsw	fa5, -0x300(s0)
1800013d0: 87 a7 07 37 	flw	fa5, 0x370(a5)
1800013d4: 27 2e f4 ce 	fsw	fa5, -0x304(s0)
1800013d8: 87 a7 07 38 	flw	fa5, 0x380(a5)
1800013dc: 27 2c f4 ce 	fsw	fa5, -0x308(s0)
1800013e0: 87 a7 47 38 	flw	fa5, 0x384(a5)
1800013e4: 27 2a f4 ce 	fsw	fa5, -0x30c(s0)
1800013e8: 87 a7 87 38 	flw	fa5, 0x388(a5)
1800013ec: 27 28 f4 ce 	fsw	fa5, -0x310(s0)
1800013f0: 87 a7 c7 38 	flw	fa5, 0x38c(a5)
1800013f4: 27 26 f4 ce 	fsw	fa5, -0x314(s0)
1800013f8: 87 a7 07 39 	flw	fa5, 0x390(a5)
1800013fc: 27 24 f4 ce 	fsw	fa5, -0x318(s0)
180001400: 87 a7 47 39 	flw	fa5, 0x394(a5)
180001404: 27 22 f4 ce 	fsw	fa5, -0x31c(s0)
180001408: 87 a7 87 39 	flw	fa5, 0x398(a5)
18000140c: 27 20 f4 ce 	fsw	fa5, -0x320(s0)
180001410: 87 a7 c7 39 	flw	fa5, 0x39c(a5)
180001414: 27 2e f4 cc 	fsw	fa5, -0x324(s0)
180001418: 87 a7 07 3a 	flw	fa5, 0x3a0(a5)
18000141c: 27 2c f4 cc 	fsw	fa5, -0x328(s0)
180001420: 87 a7 47 3a 	flw	fa5, 0x3a4(a5)
180001424: 27 2a f4 cc 	fsw	fa5, -0x32c(s0)
180001428: 07 a5 87 3a 	flw	fa0, 0x3a8(a5)
18000142c: 07 a0 c7 3a 	flw	ft0, 0x3ac(a5)
180001430: 87 a0 07 3b 	flw	ft1, 0x3b0(a5)
180001434: 07 a1 47 3b 	flw	ft2, 0x3b4(a5)
180001438: 87 a1 07 3c 	flw	ft3, 0x3c0(a5)
18000143c: 07 a2 47 3c 	flw	ft4, 0x3c4(a5)
180001440: 87 a2 87 3c 	flw	ft5, 0x3c8(a5)
180001444: 07 a3 c7 3c 	flw	ft6, 0x3cc(a5)
180001448: 87 a3 07 3d 	flw	ft7, 0x3d0(a5)
18000144c: 07 a8 47 3d 	flw	fa6, 0x3d4(a5)
180001450: 87 a8 87 3d 	flw	fa7, 0x3d8(a5)
180001454: 07 ae c7 3d 	flw	ft8, 0x3dc(a5)
180001458: 87 ae 07 3e 	flw	ft9, 0x3e0(a5)
18000145c: 07 af 47 3e 	flw	ft10, 0x3e4(a5)
180001460: 87 af 87 3e 	flw	ft11, 0x3e8(a5)
180001464: 07 a4 c7 3e 	flw	fs0, 0x3ec(a5)
180001468: 87 a4 07 3f 	flw	fs1, 0x3f0(a5)
18000146c: 07 a9 47 3f 	flw	fs2, 0x3f4(a5)
180001470: 87 a9 87 3f 	flw	fs3, 0x3f8(a5)
180001474: 93 07 00 00 	li	a5, 0x0
180001478: 6f 00 10 6e 	j	0x180002358 <_Z13lud_perimeterPfii+0x13e4>
18000147c: bb eb 1a 02 	remw	s7, s5, ra
180001480: 13 0b f0 00 	li	s6, 0xf
180001484: 63 6e 7b 79 	bltu	s6, s7, 0x180001c20 <_Z13lud_perimeterPfii+0xcac>
180001488: 6f 00 40 00 	j	0x18000148c <_Z13lud_perimeterPfii+0x518>
18000148c: 1b 8b 0b 00 	sext.w	s6, s7
180001490: b3 0c 63 01 	add	s9, t1, s6
180001494: b3 ad 0c 01 	slt	s11, s9, a6
180001498: 0b ac 1d 00 	vx_split_n	s8, s11
18000149c: 63 84 0d 02 	beqz	s11, 0x1800014c4 <_Z13lud_perimeterPfii+0x550>
1800014a0: 6f 00 40 00 	j	0x1800014a4 <_Z13lud_perimeterPfii+0x530>
1800014a4: 93 9c 2c 00 	slli	s9, s9, 0x2
1800014a8: b3 0c 95 01 	add	s9, a0, s9
1800014ac: 87 a7 0c 00 	flw	fa5, 0x0(s9)
1800014b0: 93 1c 2b 00 	slli	s9, s6, 0x2
1800014b4: 93 0d 82 41 	addi	s11, tp, 0x418
1800014b8: b3 8c 9d 01 	add	s9, s11, s9
1800014bc: 27 a0 fc 00 	fsw	fa5, 0x0(s9)
1800014c0: 6f 00 40 00 	j	0x1800014c4 <_Z13lud_perimeterPfii+0x550>
1800014c4: 0b 30 0c 00 	vx_join	s8
1800014c8: 6f 00 40 00 	j	0x1800014cc <_Z13lud_perimeterPfii+0x558>
1800014cc: 83 3c 84 ee 	ld	s9, -0x118(s0)
1800014d0: b3 8c 6c 01 	add	s9, s9, s6
1800014d4: b3 ad 0c 01 	slt	s11, s9, a6
1800014d8: 0b ac 1d 00 	vx_split_n	s8, s11
1800014dc: 63 84 0d 02 	beqz	s11, 0x180001504 <_Z13lud_perimeterPfii+0x590>
1800014e0: 6f 00 40 00 	j	0x1800014e4 <_Z13lud_perimeterPfii+0x570>
1800014e4: 93 9c 2c 00 	slli	s9, s9, 0x2
1800014e8: b3 0c 95 01 	add	s9, a0, s9
1800014ec: 87 a7 0c 00 	flw	fa5, 0x0(s9)
1800014f0: 93 1c 2b 00 	slli	s9, s6, 0x2
1800014f4: 93 0d 82 41 	addi	s11, tp, 0x418
1800014f8: b3 8c 9d 01 	add	s9, s11, s9
1800014fc: 27 a0 fc 04 	fsw	fa5, 0x40(s9)
180001500: 6f 00 40 00 	j	0x180001504 <_Z13lud_perimeterPfii+0x590>
180001504: 0b 30 0c 00 	vx_join	s8
180001508: 6f 00 40 00 	j	0x18000150c <_Z13lud_perimeterPfii+0x598>
18000150c: 83 3c 04 ee 	ld	s9, -0x120(s0)
180001510: b3 8c 6c 01 	add	s9, s9, s6
180001514: b3 ad 0c 01 	slt	s11, s9, a6
180001518: 0b ac 1d 00 	vx_split_n	s8, s11
18000151c: 63 84 0d 02 	beqz	s11, 0x180001544 <_Z13lud_perimeterPfii+0x5d0>
180001520: 6f 00 40 00 	j	0x180001524 <_Z13lud_perimeterPfii+0x5b0>
180001524: 93 9c 2c 00 	slli	s9, s9, 0x2
180001528: b3 0c 95 01 	add	s9, a0, s9
18000152c: 87 a7 0c 00 	flw	fa5, 0x0(s9)
180001530: 93 1c 2b 00 	slli	s9, s6, 0x2
180001534: 93 0d 82 41 	addi	s11, tp, 0x418
180001538: b3 8c 9d 01 	add	s9, s11, s9
18000153c: 27 a0 fc 08 	fsw	fa5, 0x80(s9)
180001540: 6f 00 40 00 	j	0x180001544 <_Z13lud_perimeterPfii+0x5d0>
180001544: 0b 30 0c 00 	vx_join	s8
180001548: 6f 00 40 00 	j	0x18000154c <_Z13lud_perimeterPfii+0x5d8>
18000154c: 83 3c 84 ed 	ld	s9, -0x128(s0)
180001550: b3 8c 6c 01 	add	s9, s9, s6
180001554: b3 ad 0c 01 	slt	s11, s9, a6
180001558: 0b ac 1d 00 	vx_split_n	s8, s11
18000155c: 63 84 0d 02 	beqz	s11, 0x180001584 <_Z13lud_perimeterPfii+0x610>
180001560: 6f 00 40 00 	j	0x180001564 <_Z13lud_perimeterPfii+0x5f0>
180001564: 93 9c 2c 00 	slli	s9, s9, 0x2
180001568: b3 0c 95 01 	add	s9, a0, s9
18000156c: 87 a7 0c 00 	flw	fa5, 0x0(s9)
180001570: 93 1c 2b 00 	slli	s9, s6, 0x2
180001574: 93 0d 82 41 	addi	s11, tp, 0x418
180001578: b3 8c 9d 01 	add	s9, s11, s9
18000157c: 27 a0 fc 0c 	fsw	fa5, 0xc0(s9)
180001580: 6f 00 40 00 	j	0x180001584 <_Z13lud_perimeterPfii+0x610>
180001584: 0b 30 0c 00 	vx_join	s8
180001588: 6f 00 40 00 	j	0x18000158c <_Z13lud_perimeterPfii+0x618>
18000158c: 83 3c 04 ed 	ld	s9, -0x130(s0)
180001590: b3 8c 6c 01 	add	s9, s9, s6
180001594: b3 ad 0c 01 	slt	s11, s9, a6
180001598: 0b ac 1d 00 	vx_split_n	s8, s11
18000159c: 63 84 0d 02 	beqz	s11, 0x1800015c4 <_Z13lud_perimeterPfii+0x650>
1800015a0: 6f 00 40 00 	j	0x1800015a4 <_Z13lud_perimeterPfii+0x630>
1800015a4: 93 9c 2c 00 	slli	s9, s9, 0x2
1800015a8: b3 0c 95 01 	add	s9, a0, s9
1800015ac: 87 a7 0c 00 	flw	fa5, 0x0(s9)
1800015b0: 93 1c 2b 00 	slli	s9, s6, 0x2
1800015b4: 93 0d 82 41 	addi	s11, tp, 0x418
1800015b8: b3 8c 9d 01 	add	s9, s11, s9
1800015bc: 27 a0 fc 10 	fsw	fa5, 0x100(s9)
1800015c0: 6f 00 40 00 	j	0x1800015c4 <_Z13lud_perimeterPfii+0x650>
1800015c4: 0b 30 0c 00 	vx_join	s8
1800015c8: 6f 00 40 00 	j	0x1800015cc <_Z13lud_perimeterPfii+0x658>
1800015cc: 83 3c 84 ec 	ld	s9, -0x138(s0)
1800015d0: b3 8c 6c 01 	add	s9, s9, s6
1800015d4: b3 ad 0c 01 	slt	s11, s9, a6
1800015d8: 0b ac 1d 00 	vx_split_n	s8, s11
1800015dc: 63 84 0d 02 	beqz	s11, 0x180001604 <_Z13lud_perimeterPfii+0x690>
1800015e0: 6f 00 40 00 	j	0x1800015e4 <_Z13lud_perimeterPfii+0x670>
1800015e4: 93 9c 2c 00 	slli	s9, s9, 0x2
1800015e8: b3 0c 95 01 	add	s9, a0, s9
1800015ec: 87 a7 0c 00 	flw	fa5, 0x0(s9)
1800015f0: 93 1c 2b 00 	slli	s9, s6, 0x2
1800015f4: 93 0d 82 41 	addi	s11, tp, 0x418
1800015f8: b3 8c 9d 01 	add	s9, s11, s9
1800015fc: 27 a0 fc 14 	fsw	fa5, 0x140(s9)
180001600: 6f 00 40 00 	j	0x180001604 <_Z13lud_perimeterPfii+0x690>
180001604: 0b 30 0c 00 	vx_join	s8
180001608: 6f 00 40 00 	j	0x18000160c <_Z13lud_perimeterPfii+0x698>
18000160c: 83 3c 04 ec 	ld	s9, -0x140(s0)
180001610: b3 8c 6c 01 	add	s9, s9, s6
180001614: b3 ad 0c 01 	slt	s11, s9, a6
180001618: 0b ac 1d 00 	vx_split_n	s8, s11
18000161c: 63 84 0d 02 	beqz	s11, 0x180001644 <_Z13lud_perimeterPfii+0x6d0>
180001620: 6f 00 40 00 	j	0x180001624 <_Z13lud_perimeterPfii+0x6b0>
180001624: 93 9c 2c 00 	slli	s9, s9, 0x2
180001628: b3 0c 95 01 	add	s9, a0, s9
18000162c: 87 a7 0c 00 	flw	fa5, 0x0(s9)
180001630: 93 1c 2b 00 	slli	s9, s6, 0x2
180001634: 93 0d 82 41 	addi	s11, tp, 0x418
180001638: b3 8c 9d 01 	add	s9, s11, s9
18000163c: 27 a0 fc 18 	fsw	fa5, 0x180(s9)
180001640: 6f 00 40 00 	j	0x180001644 <_Z13lud_perimeterPfii+0x6d0>
180001644: 0b 30 0c 00 	vx_join	s8
180001648: 6f 00 40 00 	j	0x18000164c <_Z13lud_perimeterPfii+0x6d8>
18000164c: 83 3c 84 eb 	ld	s9, -0x148(s0)
180001650: b3 8c 6c 01 	add	s9, s9, s6
180001654: b3 ad 0c 01 	slt	s11, s9, a6
180001658: 0b ac 1d 00 	vx_split_n	s8, s11
18000165c: 63 84 0d 02 	beqz	s11, 0x180001684 <_Z13lud_perimeterPfii+0x710>
180001660: 6f 00 40 00 	j	0x180001664 <_Z13lud_perimeterPfii+0x6f0>
180001664: 93 9c 2c 00 	slli	s9, s9, 0x2
180001668: b3 0c 95 01 	add	s9, a0, s9
18000166c: 87 a7 0c 00 	flw	fa5, 0x0(s9)
180001670: 93 1c 2b 00 	slli	s9, s6, 0x2
180001674: 93 0d 82 41 	addi	s11, tp, 0x418
180001678: b3 8c 9d 01 	add	s9, s11, s9
18000167c: 27 a0 fc 1c 	fsw	fa5, 0x1c0(s9)
180001680: 6f 00 40 00 	j	0x180001684 <_Z13lud_perimeterPfii+0x710>
180001684: 93 82 00 00 	mv	t0, ra
180001688: 0b 30 0c 00 	vx_join	s8
18000168c: 6f 00 40 00 	j	0x180001690 <_Z13lud_perimeterPfii+0x71c>
180001690: 93 eb 0b 01 	ori	s7, s7, 0x10
180001694: 03 ac 08 00 	lw	s8, 0x0(a7)
180001698: 1b 1c 4c 00 	slliw	s8, s8, 0x4
18000169c: bb 8c 6b 00 	addw	s9, s7, t1
1800016a0: bb 8d 8c 01 	addw	s11, s9, s8
1800016a4: 9b 0c 08 00 	sext.w	s9, a6
1800016a8: b3 b0 9d 01 	sltu	ra, s11, s9
1800016ac: 8b ac 10 00 	vx_split_n	s9, ra
1800016b0: 63 8e 00 02 	beqz	ra, 0x1800016ec <_Z13lud_perimeterPfii+0x778>
1800016b4: 6f 00 40 00 	j	0x1800016b8 <_Z13lud_perimeterPfii+0x744>
1800016b8: 93 9d 0d 02 	slli	s11, s11, 0x20
1800016bc: 13 dc ed 01 	srli	s8, s11, 0x1e
1800016c0: 33 0c 85 01 	add	s8, a0, s8
1800016c4: 87 27 0c 00 	flw	fa5, 0x0(s8)
1800016c8: 13 1c 2b 00 	slli	s8, s6, 0x2
1800016cc: b7 1d 00 00 	lui	s11, 0x1
1800016d0: b3 8d 4d 00 	add	s11, s11, tp
1800016d4: 93 8d 8d 81 	addi	s11, s11, -0x7e8
1800016d8: 33 8c 8d 01 	add	s8, s11, s8
1800016dc: 27 20 fc 00 	fsw	fa5, 0x0(s8)
1800016e0: 03 ac 08 00 	lw	s8, 0x0(a7)
1800016e4: 1b 1c 4c 00 	slliw	s8, s8, 0x4
1800016e8: 6f 00 40 00 	j	0x1800016ec <_Z13lud_perimeterPfii+0x778>
1800016ec: 0b b0 0c 00 	vx_join	s9
1800016f0: 6f 00 40 00 	j	0x1800016f4 <_Z13lud_perimeterPfii+0x780>
1800016f4: 83 3c 04 eb 	ld	s9, -0x150(s0)
1800016f8: bb 8c 9b 01 	addw	s9, s7, s9
1800016fc: bb 8d 8c 01 	addw	s11, s9, s8
180001700: 9b 0c 08 00 	sext.w	s9, a6
180001704: b3 b0 9d 01 	sltu	ra, s11, s9
180001708: 8b ac 10 00 	vx_split_n	s9, ra
18000170c: 63 8e 00 02 	beqz	ra, 0x180001748 <_Z13lud_perimeterPfii+0x7d4>
180001710: 6f 00 40 00 	j	0x180001714 <_Z13lud_perimeterPfii+0x7a0>
180001714: 93 9d 0d 02 	slli	s11, s11, 0x20
180001718: 13 dc ed 01 	srli	s8, s11, 0x1e
18000171c: 33 0c 85 01 	add	s8, a0, s8
180001720: 87 27 0c 00 	flw	fa5, 0x0(s8)
180001724: 13 1c 2b 00 	slli	s8, s6, 0x2
180001728: b7 1d 00 00 	lui	s11, 0x1
18000172c: b3 8d 4d 00 	add	s11, s11, tp
180001730: 93 8d 8d 81 	addi	s11, s11, -0x7e8
180001734: 33 8c 8d 01 	add	s8, s11, s8
180001738: 27 20 fc 04 	fsw	fa5, 0x40(s8)
18000173c: 03 ac 08 00 	lw	s8, 0x0(a7)
180001740: 1b 1c 4c 00 	slliw	s8, s8, 0x4
180001744: 6f 00 40 00 	j	0x180001748 <_Z13lud_perimeterPfii+0x7d4>
180001748: 0b b0 0c 00 	vx_join	s9
18000174c: 6f 00 40 00 	j	0x180001750 <_Z13lud_perimeterPfii+0x7dc>
180001750: 83 3c 84 ea 	ld	s9, -0x158(s0)
180001754: bb 8c 9b 01 	addw	s9, s7, s9
180001758: bb 8d 8c 01 	addw	s11, s9, s8
18000175c: 9b 0c 08 00 	sext.w	s9, a6
180001760: b3 b0 9d 01 	sltu	ra, s11, s9
180001764: 8b ac 10 00 	vx_split_n	s9, ra
180001768: 63 8e 00 02 	beqz	ra, 0x1800017a4 <_Z13lud_perimeterPfii+0x830>
18000176c: 6f 00 40 00 	j	0x180001770 <_Z13lud_perimeterPfii+0x7fc>
180001770: 93 9d 0d 02 	slli	s11, s11, 0x20
180001774: 13 dc ed 01 	srli	s8, s11, 0x1e
180001778: 33 0c 85 01 	add	s8, a0, s8
18000177c: 87 27 0c 00 	flw	fa5, 0x0(s8)
180001780: 13 1c 2b 00 	slli	s8, s6, 0x2
180001784: b7 1d 00 00 	lui	s11, 0x1
180001788: b3 8d 4d 00 	add	s11, s11, tp
18000178c: 93 8d 8d 81 	addi	s11, s11, -0x7e8
180001790: 33 8c 8d 01 	add	s8, s11, s8
180001794: 27 20 fc 08 	fsw	fa5, 0x80(s8)
180001798: 03 ac 08 00 	lw	s8, 0x0(a7)
18000179c: 1b 1c 4c 00 	slliw	s8, s8, 0x4
1800017a0: 6f 00 40 00 	j	0x1800017a4 <_Z13lud_perimeterPfii+0x830>
1800017a4: 0b b0 0c 00 	vx_join	s9
1800017a8: 6f 00 40 00 	j	0x1800017ac <_Z13lud_perimeterPfii+0x838>
1800017ac: 83 3c 04 ea 	ld	s9, -0x160(s0)
1800017b0: bb 8c 9b 01 	addw	s9, s7, s9
1800017b4: bb 8d 8c 01 	addw	s11, s9, s8
1800017b8: 9b 0c 08 00 	sext.w	s9, a6
1800017bc: b3 b0 9d 01 	sltu	ra, s11, s9
1800017c0: 8b ac 10 00 	vx_split_n	s9, ra
1800017c4: 63 8e 00 02 	beqz	ra, 0x180001800 <_Z13lud_perimeterPfii+0x88c>
1800017c8: 6f 00 40 00 	j	0x1800017cc <_Z13lud_perimeterPfii+0x858>
1800017cc: 93 9d 0d 02 	slli	s11, s11, 0x20
1800017d0: 13 dc ed 01 	srli	s8, s11, 0x1e
1800017d4: 33 0c 85 01 	add	s8, a0, s8
1800017d8: 87 27 0c 00 	flw	fa5, 0x0(s8)
1800017dc: 13 1c 2b 00 	slli	s8, s6, 0x2
1800017e0: b7 1d 00 00 	lui	s11, 0x1
1800017e4: b3 8d 4d 00 	add	s11, s11, tp
1800017e8: 93 8d 8d 81 	addi	s11, s11, -0x7e8
1800017ec: 33 8c 8d 01 	add	s8, s11, s8
1800017f0: 27 20 fc 0c 	fsw	fa5, 0xc0(s8)
1800017f4: 03 ac 08 00 	lw	s8, 0x0(a7)
1800017f8: 1b 1c 4c 00 	slliw	s8, s8, 0x4
1800017fc: 6f 00 40 00 	j	0x180001800 <_Z13lud_perimeterPfii+0x88c>
180001800: 0b b0 0c 00 	vx_join	s9
180001804: 6f 00 40 00 	j	0x180001808 <_Z13lud_perimeterPfii+0x894>
180001808: bb 8c 3b 01 	addw	s9, s7, s3
18000180c: bb 8d 8c 01 	addw	s11, s9, s8
180001810: 9b 0c 08 00 	sext.w	s9, a6
180001814: b3 b0 9d 01 	sltu	ra, s11, s9
180001818: 8b ac 10 00 	vx_split_n	s9, ra
18000181c: 63 8e 00 02 	beqz	ra, 0x180001858 <_Z13lud_perimeterPfii+0x8e4>
180001820: 6f 00 40 00 	j	0x180001824 <_Z13lud_perimeterPfii+0x8b0>
180001824: 93 9d 0d 02 	slli	s11, s11, 0x20
180001828: 13 dc ed 01 	srli	s8, s11, 0x1e
18000182c: 33 0c 85 01 	add	s8, a0, s8
180001830: 87 27 0c 00 	flw	fa5, 0x0(s8)
180001834: 13 1c 2b 00 	slli	s8, s6, 0x2
180001838: b7 1d 00 00 	lui	s11, 0x1
18000183c: b3 8d 4d 00 	add	s11, s11, tp
180001840: 93 8d 8d 81 	addi	s11, s11, -0x7e8
180001844: 33 8c 8d 01 	add	s8, s11, s8
180001848: 27 20 fc 10 	fsw	fa5, 0x100(s8)
18000184c: 03 ac 08 00 	lw	s8, 0x0(a7)
180001850: 1b 1c 4c 00 	slliw	s8, s8, 0x4
180001854: 6f 00 40 00 	j	0x180001858 <_Z13lud_perimeterPfii+0x8e4>
180001858: 0b b0 0c 00 	vx_join	s9
18000185c: 6f 00 40 00 	j	0x180001860 <_Z13lud_perimeterPfii+0x8ec>
180001860: bb 8c ab 01 	addw	s9, s7, s10
180001864: bb 8d 8c 01 	addw	s11, s9, s8
180001868: 9b 0c 08 00 	sext.w	s9, a6
18000186c: b3 b0 9d 01 	sltu	ra, s11, s9
180001870: 8b ac 10 00 	vx_split_n	s9, ra
180001874: 63 8e 00 02 	beqz	ra, 0x1800018b0 <_Z13lud_perimeterPfii+0x93c>
180001878: 6f 00 40 00 	j	0x18000187c <_Z13lud_perimeterPfii+0x908>
18000187c: 93 9d 0d 02 	slli	s11, s11, 0x20
180001880: 13 dc ed 01 	srli	s8, s11, 0x1e
180001884: 33 0c 85 01 	add	s8, a0, s8
180001888: 87 27 0c 00 	flw	fa5, 0x0(s8)
18000188c: 13 1c 2b 00 	slli	s8, s6, 0x2
180001890: b7 1d 00 00 	lui	s11, 0x1
180001894: b3 8d 4d 00 	add	s11, s11, tp
180001898: 93 8d 8d 81 	addi	s11, s11, -0x7e8
18000189c: 33 8c 8d 01 	add	s8, s11, s8
1800018a0: 27 20 fc 14 	fsw	fa5, 0x140(s8)
1800018a4: 03 ac 08 00 	lw	s8, 0x0(a7)
1800018a8: 1b 1c 4c 00 	slliw	s8, s8, 0x4
1800018ac: 6f 00 40 00 	j	0x1800018b0 <_Z13lud_perimeterPfii+0x93c>
1800018b0: 0b b0 0c 00 	vx_join	s9
1800018b4: 6f 00 40 00 	j	0x1800018b8 <_Z13lud_perimeterPfii+0x944>
1800018b8: bb 8c cb 01 	addw	s9, s7, t3
1800018bc: bb 8d 8c 01 	addw	s11, s9, s8
1800018c0: 9b 0c 08 00 	sext.w	s9, a6
1800018c4: b3 b0 9d 01 	sltu	ra, s11, s9
1800018c8: 8b ac 10 00 	vx_split_n	s9, ra
1800018cc: 63 8e 00 02 	beqz	ra, 0x180001908 <_Z13lud_perimeterPfii+0x994>
1800018d0: 6f 00 40 00 	j	0x1800018d4 <_Z13lud_perimeterPfii+0x960>
1800018d4: 93 9d 0d 02 	slli	s11, s11, 0x20
1800018d8: 13 dc ed 01 	srli	s8, s11, 0x1e
1800018dc: 33 0c 85 01 	add	s8, a0, s8
1800018e0: 87 27 0c 00 	flw	fa5, 0x0(s8)
1800018e4: 13 1c 2b 00 	slli	s8, s6, 0x2
1800018e8: b7 1d 00 00 	lui	s11, 0x1
1800018ec: b3 8d 4d 00 	add	s11, s11, tp
1800018f0: 93 8d 8d 81 	addi	s11, s11, -0x7e8
1800018f4: 33 8c 8d 01 	add	s8, s11, s8
1800018f8: 27 20 fc 18 	fsw	fa5, 0x180(s8)
1800018fc: 03 ac 08 00 	lw	s8, 0x0(a7)
180001900: 1b 1c 4c 00 	slliw	s8, s8, 0x4
180001904: 6f 00 40 00 	j	0x180001908 <_Z13lud_perimeterPfii+0x994>
180001908: 0b b0 0c 00 	vx_join	s9
18000190c: 6f 00 40 00 	j	0x180001910 <_Z13lud_perimeterPfii+0x99c>
180001910: bb 8c db 01 	addw	s9, s7, t4
180001914: bb 8d 8c 01 	addw	s11, s9, s8
180001918: 9b 0c 08 00 	sext.w	s9, a6
18000191c: b3 b0 9d 01 	sltu	ra, s11, s9
180001920: 8b ac 10 00 	vx_split_n	s9, ra
180001924: 63 8e 00 02 	beqz	ra, 0x180001960 <_Z13lud_perimeterPfii+0x9ec>
180001928: 6f 00 40 00 	j	0x18000192c <_Z13lud_perimeterPfii+0x9b8>
18000192c: 93 9d 0d 02 	slli	s11, s11, 0x20
180001930: 13 dc ed 01 	srli	s8, s11, 0x1e
180001934: 33 0c 85 01 	add	s8, a0, s8
180001938: 87 27 0c 00 	flw	fa5, 0x0(s8)
18000193c: 13 1c 2b 00 	slli	s8, s6, 0x2
180001940: b7 1d 00 00 	lui	s11, 0x1
180001944: b3 8d 4d 00 	add	s11, s11, tp
180001948: 93 8d 8d 81 	addi	s11, s11, -0x7e8
18000194c: 33 8c 8d 01 	add	s8, s11, s8
180001950: 27 20 fc 1c 	fsw	fa5, 0x1c0(s8)
180001954: 03 ac 08 00 	lw	s8, 0x0(a7)
180001958: 1b 1c 4c 00 	slliw	s8, s8, 0x4
18000195c: 6f 00 40 00 	j	0x180001960 <_Z13lud_perimeterPfii+0x9ec>
180001960: 0b b0 0c 00 	vx_join	s9
180001964: 6f 00 40 00 	j	0x180001968 <_Z13lud_perimeterPfii+0x9f4>
180001968: bb 8c eb 01 	addw	s9, s7, t5
18000196c: bb 8d 8c 01 	addw	s11, s9, s8
180001970: 9b 0c 08 00 	sext.w	s9, a6
180001974: b3 b0 9d 01 	sltu	ra, s11, s9
180001978: 8b ac 10 00 	vx_split_n	s9, ra
18000197c: 63 8e 00 02 	beqz	ra, 0x1800019b8 <_Z13lud_perimeterPfii+0xa44>
180001980: 6f 00 40 00 	j	0x180001984 <_Z13lud_perimeterPfii+0xa10>
180001984: 93 9d 0d 02 	slli	s11, s11, 0x20
180001988: 13 dc ed 01 	srli	s8, s11, 0x1e
18000198c: 33 0c 85 01 	add	s8, a0, s8
180001990: 87 27 0c 00 	flw	fa5, 0x0(s8)
180001994: 13 1c 2b 00 	slli	s8, s6, 0x2
180001998: b7 1d 00 00 	lui	s11, 0x1
18000199c: b3 8d 4d 00 	add	s11, s11, tp
1800019a0: 93 8d 8d 81 	addi	s11, s11, -0x7e8
1800019a4: 33 8c 8d 01 	add	s8, s11, s8
1800019a8: 27 20 fc 20 	fsw	fa5, 0x200(s8)
1800019ac: 03 ac 08 00 	lw	s8, 0x0(a7)
1800019b0: 1b 1c 4c 00 	slliw	s8, s8, 0x4
1800019b4: 6f 00 40 00 	j	0x1800019b8 <_Z13lud_perimeterPfii+0xa44>
1800019b8: 0b b0 0c 00 	vx_join	s9
1800019bc: 6f 00 40 00 	j	0x1800019c0 <_Z13lud_perimeterPfii+0xa4c>
1800019c0: bb 8c fb 01 	addw	s9, s7, t6
1800019c4: bb 8d 8c 01 	addw	s11, s9, s8
1800019c8: 9b 0c 08 00 	sext.w	s9, a6
1800019cc: b3 b0 9d 01 	sltu	ra, s11, s9
1800019d0: 8b ac 10 00 	vx_split_n	s9, ra
1800019d4: 63 8e 00 02 	beqz	ra, 0x180001a10 <_Z13lud_perimeterPfii+0xa9c>
1800019d8: 6f 00 40 00 	j	0x1800019dc <_Z13lud_perimeterPfii+0xa68>
1800019dc: 93 9d 0d 02 	slli	s11, s11, 0x20
1800019e0: 13 dc ed 01 	srli	s8, s11, 0x1e
1800019e4: 33 0c 85 01 	add	s8, a0, s8
1800019e8: 87 27 0c 00 	flw	fa5, 0x0(s8)
1800019ec: 13 1c 2b 00 	slli	s8, s6, 0x2
1800019f0: b7 1d 00 00 	lui	s11, 0x1
1800019f4: b3 8d 4d 00 	add	s11, s11, tp
1800019f8: 93 8d 8d 81 	addi	s11, s11, -0x7e8
1800019fc: 33 8c 8d 01 	add	s8, s11, s8
180001a00: 27 20 fc 24 	fsw	fa5, 0x240(s8)
180001a04: 03 ac 08 00 	lw	s8, 0x0(a7)
180001a08: 1b 1c 4c 00 	slliw	s8, s8, 0x4
180001a0c: 6f 00 40 00 	j	0x180001a10 <_Z13lud_perimeterPfii+0xa9c>
180001a10: 0b b0 0c 00 	vx_join	s9
180001a14: 6f 00 40 00 	j	0x180001a18 <_Z13lud_perimeterPfii+0xaa4>
180001a18: bb 8c 2b 01 	addw	s9, s7, s2
180001a1c: bb 8d 8c 01 	addw	s11, s9, s8
180001a20: 9b 0c 08 00 	sext.w	s9, a6
180001a24: b3 b0 9d 01 	sltu	ra, s11, s9
180001a28: 8b ac 10 00 	vx_split_n	s9, ra
180001a2c: 63 8e 00 02 	beqz	ra, 0x180001a68 <_Z13lud_perimeterPfii+0xaf4>
180001a30: 6f 00 40 00 	j	0x180001a34 <_Z13lud_perimeterPfii+0xac0>
180001a34: 93 9d 0d 02 	slli	s11, s11, 0x20
180001a38: 13 dc ed 01 	srli	s8, s11, 0x1e
180001a3c: 33 0c 85 01 	add	s8, a0, s8
180001a40: 87 27 0c 00 	flw	fa5, 0x0(s8)
180001a44: 13 1c 2b 00 	slli	s8, s6, 0x2
180001a48: b7 1d 00 00 	lui	s11, 0x1
180001a4c: b3 8d 4d 00 	add	s11, s11, tp
180001a50: 93 8d 8d 81 	addi	s11, s11, -0x7e8
180001a54: 33 8c 8d 01 	add	s8, s11, s8
180001a58: 27 20 fc 28 	fsw	fa5, 0x280(s8)
180001a5c: 03 ac 08 00 	lw	s8, 0x0(a7)
180001a60: 1b 1c 4c 00 	slliw	s8, s8, 0x4
180001a64: 6f 00 40 00 	j	0x180001a68 <_Z13lud_perimeterPfii+0xaf4>
180001a68: 0b b0 0c 00 	vx_join	s9
180001a6c: 6f 00 40 00 	j	0x180001a70 <_Z13lud_perimeterPfii+0xafc>
180001a70: bb 8c 4b 01 	addw	s9, s7, s4
180001a74: bb 8d 8c 01 	addw	s11, s9, s8
180001a78: 9b 0c 08 00 	sext.w	s9, a6
180001a7c: b3 b0 9d 01 	sltu	ra, s11, s9
180001a80: 8b ac 10 00 	vx_split_n	s9, ra
180001a84: 63 8e 00 02 	beqz	ra, 0x180001ac0 <_Z13lud_perimeterPfii+0xb4c>
180001a88: 6f 00 40 00 	j	0x180001a8c <_Z13lud_perimeterPfii+0xb18>
180001a8c: 93 9d 0d 02 	slli	s11, s11, 0x20
180001a90: 13 dc ed 01 	srli	s8, s11, 0x1e
180001a94: 33 0c 85 01 	add	s8, a0, s8
180001a98: 87 27 0c 00 	flw	fa5, 0x0(s8)
180001a9c: 13 1c 2b 00 	slli	s8, s6, 0x2
180001aa0: b7 1d 00 00 	lui	s11, 0x1
180001aa4: b3 8d 4d 00 	add	s11, s11, tp
180001aa8: 93 8d 8d 81 	addi	s11, s11, -0x7e8
180001aac: 33 8c 8d 01 	add	s8, s11, s8
180001ab0: 27 20 fc 2c 	fsw	fa5, 0x2c0(s8)
180001ab4: 03 ac 08 00 	lw	s8, 0x0(a7)
180001ab8: 1b 1c 4c 00 	slliw	s8, s8, 0x4
180001abc: 6f 00 40 00 	j	0x180001ac0 <_Z13lud_perimeterPfii+0xb4c>
180001ac0: 0b b0 0c 00 	vx_join	s9
180001ac4: 6f 00 40 00 	j	0x180001ac8 <_Z13lud_perimeterPfii+0xb54>
180001ac8: bb 8c 9b 00 	addw	s9, s7, s1
180001acc: bb 8d 8c 01 	addw	s11, s9, s8
180001ad0: 9b 0c 08 00 	sext.w	s9, a6
180001ad4: b3 b0 9d 01 	sltu	ra, s11, s9
180001ad8: 8b ac 10 00 	vx_split_n	s9, ra
180001adc: 63 8e 00 02 	beqz	ra, 0x180001b18 <_Z13lud_perimeterPfii+0xba4>
180001ae0: 6f 00 40 00 	j	0x180001ae4 <_Z13lud_perimeterPfii+0xb70>
180001ae4: 93 9d 0d 02 	slli	s11, s11, 0x20
180001ae8: 13 dc ed 01 	srli	s8, s11, 0x1e
180001aec: 33 0c 85 01 	add	s8, a0, s8
180001af0: 87 27 0c 00 	flw	fa5, 0x0(s8)
180001af4: 13 1c 2b 00 	slli	s8, s6, 0x2
180001af8: b7 1d 00 00 	lui	s11, 0x1
180001afc: b3 8d 4d 00 	add	s11, s11, tp
180001b00: 93 8d 8d 81 	addi	s11, s11, -0x7e8
180001b04: 33 8c 8d 01 	add	s8, s11, s8
180001b08: 27 20 fc 30 	fsw	fa5, 0x300(s8)
180001b0c: 03 ac 08 00 	lw	s8, 0x0(a7)
180001b10: 1b 1c 4c 00 	slliw	s8, s8, 0x4
180001b14: 6f 00 40 00 	j	0x180001b18 <_Z13lud_perimeterPfii+0xba4>
180001b18: 0b b0 0c 00 	vx_join	s9
180001b1c: 6f 00 40 00 	j	0x180001b20 <_Z13lud_perimeterPfii+0xbac>
180001b20: bb 8c fb 00 	addw	s9, s7, a5
180001b24: bb 8d 8c 01 	addw	s11, s9, s8
180001b28: 9b 0c 08 00 	sext.w	s9, a6
180001b2c: b3 b0 9d 01 	sltu	ra, s11, s9
180001b30: 8b ac 10 00 	vx_split_n	s9, ra
180001b34: 63 8e 00 02 	beqz	ra, 0x180001b70 <_Z13lud_perimeterPfii+0xbfc>
180001b38: 6f 00 40 00 	j	0x180001b3c <_Z13lud_perimeterPfii+0xbc8>
180001b3c: 93 9d 0d 02 	slli	s11, s11, 0x20
180001b40: 13 dc ed 01 	srli	s8, s11, 0x1e
180001b44: 33 0c 85 01 	add	s8, a0, s8
180001b48: 87 27 0c 00 	flw	fa5, 0x0(s8)
180001b4c: 13 1c 2b 00 	slli	s8, s6, 0x2
180001b50: b7 1d 00 00 	lui	s11, 0x1
180001b54: b3 8d 4d 00 	add	s11, s11, tp
180001b58: 93 8d 8d 81 	addi	s11, s11, -0x7e8
180001b5c: 33 8c 8d 01 	add	s8, s11, s8
180001b60: 27 20 fc 34 	fsw	fa5, 0x340(s8)
180001b64: 03 ac 08 00 	lw	s8, 0x0(a7)
180001b68: 1b 1c 4c 00 	slliw	s8, s8, 0x4
180001b6c: 6f 00 40 00 	j	0x180001b70 <_Z13lud_perimeterPfii+0xbfc>
180001b70: 0b b0 0c 00 	vx_join	s9
180001b74: 6f 00 40 00 	j	0x180001b78 <_Z13lud_perimeterPfii+0xc04>
180001b78: bb 8c eb 00 	addw	s9, s7, a4
180001b7c: bb 8d 8c 01 	addw	s11, s9, s8
180001b80: 9b 0c 08 00 	sext.w	s9, a6
180001b84: b3 b0 9d 01 	sltu	ra, s11, s9
180001b88: 8b ac 10 00 	vx_split_n	s9, ra
180001b8c: 63 8e 00 02 	beqz	ra, 0x180001bc8 <_Z13lud_perimeterPfii+0xc54>
180001b90: 6f 00 40 00 	j	0x180001b94 <_Z13lud_perimeterPfii+0xc20>
180001b94: 93 9d 0d 02 	slli	s11, s11, 0x20
180001b98: 13 dc ed 01 	srli	s8, s11, 0x1e
180001b9c: 33 0c 85 01 	add	s8, a0, s8
180001ba0: 87 27 0c 00 	flw	fa5, 0x0(s8)
180001ba4: 13 1c 2b 00 	slli	s8, s6, 0x2
180001ba8: b7 1d 00 00 	lui	s11, 0x1
180001bac: b3 8d 4d 00 	add	s11, s11, tp
180001bb0: 93 8d 8d 81 	addi	s11, s11, -0x7e8
180001bb4: 33 8c 8d 01 	add	s8, s11, s8
180001bb8: 27 20 fc 38 	fsw	fa5, 0x380(s8)
180001bbc: 03 ac 08 00 	lw	s8, 0x0(a7)
180001bc0: 1b 1c 4c 00 	slliw	s8, s8, 0x4
180001bc4: 6f 00 40 00 	j	0x180001bc8 <_Z13lud_perimeterPfii+0xc54>
180001bc8: 0b b0 0c 00 	vx_join	s9
180001bcc: 6f 00 40 00 	j	0x180001bd0 <_Z13lud_perimeterPfii+0xc5c>
180001bd0: 83 3c 84 e9 	ld	s9, -0x168(s0)
180001bd4: bb 8b 9b 01 	addw	s7, s7, s9
180001bd8: 3b 8c 8b 01 	addw	s8, s7, s8
180001bdc: 9b 0b 08 00 	sext.w	s7, a6
180001be0: b3 3c 7c 01 	sltu	s9, s8, s7
180001be4: 8b ab 1c 00 	vx_split_n	s7, s9
180001be8: 93 80 02 00 	mv	ra, t0
180001bec: 63 88 0c 6c 	beqz	s9, 0x1800022bc <_Z13lud_perimeterPfii+0x1348>
180001bf0: 6f 00 40 00 	j	0x180001bf4 <_Z13lud_perimeterPfii+0xc80>
180001bf4: 13 1c 0c 02 	slli	s8, s8, 0x20
180001bf8: 13 5c ec 01 	srli	s8, s8, 0x1e
180001bfc: 33 0c 85 01 	add	s8, a0, s8
180001c00: 87 27 0c 00 	flw	fa5, 0x0(s8)
180001c04: 13 1b 2b 00 	slli	s6, s6, 0x2
180001c08: 37 1c 00 00 	lui	s8, 0x1
180001c0c: 33 0c 4c 00 	add	s8, s8, tp
180001c10: 13 0c 8c 81 	addi	s8, s8, -0x7e8
180001c14: 33 0b 6c 01 	add	s6, s8, s6
180001c18: 27 20 fb 3c 	fsw	fa5, 0x3c0(s6)
180001c1c: 6f 00 00 6a 	j	0x1800022bc <_Z13lud_perimeterPfii+0x1348>
180001c20: 1b 8b 0b ff 	addiw	s6, s7, -0x10
180001c24: 03 3c 04 f3 	ld	s8, -0xd0(s0)
180001c28: 33 0c 6c 01 	add	s8, s8, s6
180001c2c: b3 2c 0c 01 	slt	s9, s8, a6
180001c30: 8b ab 1c 00 	vx_split_n	s7, s9
180001c34: 63 84 0c 02 	beqz	s9, 0x180001c5c <_Z13lud_perimeterPfii+0xce8>
180001c38: 6f 00 40 00 	j	0x180001c3c <_Z13lud_perimeterPfii+0xcc8>
180001c3c: 13 1c 2c 00 	slli	s8, s8, 0x2
180001c40: 33 0c 85 01 	add	s8, a0, s8
180001c44: 87 27 0c 00 	flw	fa5, 0x0(s8)
180001c48: 13 1c 2b 00 	slli	s8, s6, 0x2
180001c4c: 93 0c 82 41 	addi	s9, tp, 0x418
180001c50: 33 8c 8c 01 	add	s8, s9, s8
180001c54: 27 20 fc 20 	fsw	fa5, 0x200(s8)
180001c58: 6f 00 40 00 	j	0x180001c5c <_Z13lud_perimeterPfii+0xce8>
180001c5c: 0b b0 0b 00 	vx_join	s7
180001c60: 6f 00 40 00 	j	0x180001c64 <_Z13lud_perimeterPfii+0xcf0>
180001c64: 03 3c 04 f2 	ld	s8, -0xe0(s0)
180001c68: 33 0c 6c 01 	add	s8, s8, s6
180001c6c: b3 2c 0c 01 	slt	s9, s8, a6
180001c70: 8b ab 1c 00 	vx_split_n	s7, s9
180001c74: 63 84 0c 02 	beqz	s9, 0x180001c9c <_Z13lud_perimeterPfii+0xd28>
180001c78: 6f 00 40 00 	j	0x180001c7c <_Z13lud_perimeterPfii+0xd08>
180001c7c: 13 1c 2c 00 	slli	s8, s8, 0x2
180001c80: 33 0c 85 01 	add	s8, a0, s8
180001c84: 87 27 0c 00 	flw	fa5, 0x0(s8)
180001c88: 13 1c 2b 00 	slli	s8, s6, 0x2
180001c8c: 93 0c 82 41 	addi	s9, tp, 0x418
180001c90: 33 8c 8c 01 	add	s8, s9, s8
180001c94: 27 20 fc 24 	fsw	fa5, 0x240(s8)
180001c98: 6f 00 40 00 	j	0x180001c9c <_Z13lud_perimeterPfii+0xd28>
180001c9c: 0b b0 0b 00 	vx_join	s7
180001ca0: 6f 00 40 00 	j	0x180001ca4 <_Z13lud_perimeterPfii+0xd30>
180001ca4: 03 3c 84 f1 	ld	s8, -0xe8(s0)
180001ca8: 33 0c 6c 01 	add	s8, s8, s6
180001cac: b3 2c 0c 01 	slt	s9, s8, a6
180001cb0: 8b ab 1c 00 	vx_split_n	s7, s9
180001cb4: 63 84 0c 02 	beqz	s9, 0x180001cdc <_Z13lud_perimeterPfii+0xd68>
180001cb8: 6f 00 40 00 	j	0x180001cbc <_Z13lud_perimeterPfii+0xd48>
180001cbc: 13 1c 2c 00 	slli	s8, s8, 0x2
180001cc0: 33 0c 85 01 	add	s8, a0, s8
180001cc4: 87 27 0c 00 	flw	fa5, 0x0(s8)
180001cc8: 13 1c 2b 00 	slli	s8, s6, 0x2
180001ccc: 93 0c 82 41 	addi	s9, tp, 0x418
180001cd0: 33 8c 8c 01 	add	s8, s9, s8
180001cd4: 27 20 fc 28 	fsw	fa5, 0x280(s8)
180001cd8: 6f 00 40 00 	j	0x180001cdc <_Z13lud_perimeterPfii+0xd68>
180001cdc: 0b b0 0b 00 	vx_join	s7
180001ce0: 6f 00 40 00 	j	0x180001ce4 <_Z13lud_perimeterPfii+0xd70>
180001ce4: 03 3c 04 f1 	ld	s8, -0xf0(s0)
180001ce8: 33 0c 6c 01 	add	s8, s8, s6
180001cec: b3 2c 0c 01 	slt	s9, s8, a6
180001cf0: 8b ab 1c 00 	vx_split_n	s7, s9
180001cf4: 63 84 0c 02 	beqz	s9, 0x180001d1c <_Z13lud_perimeterPfii+0xda8>
180001cf8: 6f 00 40 00 	j	0x180001cfc <_Z13lud_perimeterPfii+0xd88>
180001cfc: 13 1c 2c 00 	slli	s8, s8, 0x2
180001d00: 33 0c 85 01 	add	s8, a0, s8
180001d04: 87 27 0c 00 	flw	fa5, 0x0(s8)
180001d08: 13 1c 2b 00 	slli	s8, s6, 0x2
180001d0c: 93 0c 82 41 	addi	s9, tp, 0x418
180001d10: 33 8c 8c 01 	add	s8, s9, s8
180001d14: 27 20 fc 2c 	fsw	fa5, 0x2c0(s8)
180001d18: 6f 00 40 00 	j	0x180001d1c <_Z13lud_perimeterPfii+0xda8>
180001d1c: 0b b0 0b 00 	vx_join	s7
180001d20: 6f 00 40 00 	j	0x180001d24 <_Z13lud_perimeterPfii+0xdb0>
180001d24: 03 3c 84 f0 	ld	s8, -0xf8(s0)
180001d28: 33 0c 6c 01 	add	s8, s8, s6
180001d2c: b3 2c 0c 01 	slt	s9, s8, a6
180001d30: 8b ab 1c 00 	vx_split_n	s7, s9
180001d34: 63 84 0c 02 	beqz	s9, 0x180001d5c <_Z13lud_perimeterPfii+0xde8>
180001d38: 6f 00 40 00 	j	0x180001d3c <_Z13lud_perimeterPfii+0xdc8>
180001d3c: 13 1c 2c 00 	slli	s8, s8, 0x2
180001d40: 33 0c 85 01 	add	s8, a0, s8
180001d44: 87 27 0c 00 	flw	fa5, 0x0(s8)
180001d48: 13 1c 2b 00 	slli	s8, s6, 0x2
180001d4c: 93 0c 82 41 	addi	s9, tp, 0x418
180001d50: 33 8c 8c 01 	add	s8, s9, s8
180001d54: 27 20 fc 30 	fsw	fa5, 0x300(s8)
180001d58: 6f 00 40 00 	j	0x180001d5c <_Z13lud_perimeterPfii+0xde8>
180001d5c: 0b b0 0b 00 	vx_join	s7
180001d60: 6f 00 40 00 	j	0x180001d64 <_Z13lud_perimeterPfii+0xdf0>
180001d64: 03 3c 04 f0 	ld	s8, -0x100(s0)
180001d68: 33 0c 6c 01 	add	s8, s8, s6
180001d6c: b3 2c 0c 01 	slt	s9, s8, a6
180001d70: 8b ab 1c 00 	vx_split_n	s7, s9
180001d74: 63 84 0c 02 	beqz	s9, 0x180001d9c <_Z13lud_perimeterPfii+0xe28>
180001d78: 6f 00 40 00 	j	0x180001d7c <_Z13lud_perimeterPfii+0xe08>
180001d7c: 13 1c 2c 00 	slli	s8, s8, 0x2
180001d80: 33 0c 85 01 	add	s8, a0, s8
180001d84: 87 27 0c 00 	flw	fa5, 0x0(s8)
180001d88: 13 1c 2b 00 	slli	s8, s6, 0x2
180001d8c: 93 0c 82 41 	addi	s9, tp, 0x418
180001d90: 33 8c 8c 01 	add	s8, s9, s8
180001d94: 27 20 fc 34 	fsw	fa5, 0x340(s8)
180001d98: 6f 00 40 00 	j	0x180001d9c <_Z13lud_perimeterPfii+0xe28>
180001d9c: 0b b0 0b 00 	vx_join	s7
180001da0: 6f 00 40 00 	j	0x180001da4 <_Z13lud_perimeterPfii+0xe30>
180001da4: 03 3c 84 ef 	ld	s8, -0x108(s0)
180001da8: 33 0c 6c 01 	add	s8, s8, s6
180001dac: b3 2c 0c 01 	slt	s9, s8, a6
180001db0: 8b ab 1c 00 	vx_split_n	s7, s9
180001db4: 63 84 0c 02 	beqz	s9, 0x180001ddc <_Z13lud_perimeterPfii+0xe68>
180001db8: 6f 00 40 00 	j	0x180001dbc <_Z13lud_perimeterPfii+0xe48>
180001dbc: 13 1c 2c 00 	slli	s8, s8, 0x2
180001dc0: 33 0c 85 01 	add	s8, a0, s8
180001dc4: 87 27 0c 00 	flw	fa5, 0x0(s8)
180001dc8: 13 1c 2b 00 	slli	s8, s6, 0x2
180001dcc: 93 0c 82 41 	addi	s9, tp, 0x418
180001dd0: 33 8c 8c 01 	add	s8, s9, s8
180001dd4: 27 20 fc 38 	fsw	fa5, 0x380(s8)
180001dd8: 6f 00 40 00 	j	0x180001ddc <_Z13lud_perimeterPfii+0xe68>
180001ddc: 0b b0 0b 00 	vx_join	s7
180001de0: 6f 00 40 00 	j	0x180001de4 <_Z13lud_perimeterPfii+0xe70>
180001de4: 03 3c 04 ef 	ld	s8, -0x110(s0)
180001de8: 33 0c 6c 01 	add	s8, s8, s6
180001dec: b3 2c 0c 01 	slt	s9, s8, a6
180001df0: 8b ab 1c 00 	vx_split_n	s7, s9
180001df4: 63 84 0c 02 	beqz	s9, 0x180001e1c <_Z13lud_perimeterPfii+0xea8>
180001df8: 6f 00 40 00 	j	0x180001dfc <_Z13lud_perimeterPfii+0xe88>
180001dfc: 13 1c 2c 00 	slli	s8, s8, 0x2
180001e00: 33 0c 85 01 	add	s8, a0, s8
180001e04: 87 27 0c 00 	flw	fa5, 0x0(s8)
180001e08: 13 1c 2b 00 	slli	s8, s6, 0x2
180001e0c: 93 0c 82 41 	addi	s9, tp, 0x418
180001e10: 33 8c 8c 01 	add	s8, s9, s8
180001e14: 27 20 fc 3c 	fsw	fa5, 0x3c0(s8)
180001e18: 6f 00 40 00 	j	0x180001e1c <_Z13lud_perimeterPfii+0xea8>
180001e1c: 0b b0 0b 00 	vx_join	s7
180001e20: 6f 00 40 00 	j	0x180001e24 <_Z13lud_perimeterPfii+0xeb0>
180001e24: 83 ab 08 00 	lw	s7, 0x0(a7)
180001e28: 9b 9b 4b 00 	slliw	s7, s7, 0x4
180001e2c: 83 32 84 f2 	ld	t0, -0xd8(s0)
180001e30: bb 8b 72 01 	addw	s7, t0, s7
180001e34: bb 8b bb 02 	mulw	s7, s7, a1
180001e38: bb 8b cb 00 	addw	s7, s7, a2
180001e3c: b3 8c 6b 01 	add	s9, s7, s6
180001e40: b3 ad 0c 01 	slt	s11, s9, a6
180001e44: 0b ac 1d 00 	vx_split_n	s8, s11
180001e48: 63 88 0d 02 	beqz	s11, 0x180001e78 <_Z13lud_perimeterPfii+0xf04>
180001e4c: 6f 00 40 00 	j	0x180001e50 <_Z13lud_perimeterPfii+0xedc>
180001e50: 93 9c 2c 00 	slli	s9, s9, 0x2
180001e54: b3 0c 95 01 	add	s9, a0, s9
180001e58: 87 a7 0c 00 	flw	fa5, 0x0(s9)
180001e5c: 93 1c 2b 00 	slli	s9, s6, 0x2
180001e60: b7 1d 00 00 	lui	s11, 0x1
180001e64: b3 8d 4d 00 	add	s11, s11, tp
180001e68: 93 8d 8d c1 	addi	s11, s11, -0x3e8
180001e6c: b3 8c 9d 01 	add	s9, s11, s9
180001e70: 27 a0 fc 00 	fsw	fa5, 0x0(s9)
180001e74: 6f 00 40 00 	j	0x180001e78 <_Z13lud_perimeterPfii+0xf04>
180001e78: 0b 30 0c 00 	vx_join	s8
180001e7c: 6f 00 40 00 	j	0x180001e80 <_Z13lud_perimeterPfii+0xf0c>
180001e80: b3 8b 7b 00 	add	s7, s7, t2
180001e84: b3 8c 6b 01 	add	s9, s7, s6
180001e88: b3 ad 0c 01 	slt	s11, s9, a6
180001e8c: 0b ac 1d 00 	vx_split_n	s8, s11
180001e90: 63 88 0d 02 	beqz	s11, 0x180001ec0 <_Z13lud_perimeterPfii+0xf4c>
180001e94: 6f 00 40 00 	j	0x180001e98 <_Z13lud_perimeterPfii+0xf24>
180001e98: 93 9c 2c 00 	slli	s9, s9, 0x2
180001e9c: b3 0c 95 01 	add	s9, a0, s9
180001ea0: 87 a7 0c 00 	flw	fa5, 0x0(s9)
180001ea4: 93 1c 2b 00 	slli	s9, s6, 0x2
180001ea8: b7 1d 00 00 	lui	s11, 0x1
180001eac: b3 8d 4d 00 	add	s11, s11, tp
180001eb0: 93 8d 8d c1 	addi	s11, s11, -0x3e8
180001eb4: b3 8c 9d 01 	add	s9, s11, s9
180001eb8: 27 a0 fc 04 	fsw	fa5, 0x40(s9)
180001ebc: 6f 00 40 00 	j	0x180001ec0 <_Z13lud_perimeterPfii+0xf4c>
180001ec0: 0b 30 0c 00 	vx_join	s8
180001ec4: 6f 00 40 00 	j	0x180001ec8 <_Z13lud_perimeterPfii+0xf54>
180001ec8: b3 8b 7b 00 	add	s7, s7, t2
180001ecc: b3 8c 6b 01 	add	s9, s7, s6
180001ed0: b3 ad 0c 01 	slt	s11, s9, a6
180001ed4: 0b ac 1d 00 	vx_split_n	s8, s11
180001ed8: 63 88 0d 02 	beqz	s11, 0x180001f08 <_Z13lud_perimeterPfii+0xf94>
180001edc: 6f 00 40 00 	j	0x180001ee0 <_Z13lud_perimeterPfii+0xf6c>
180001ee0: 93 9c 2c 00 	slli	s9, s9, 0x2
180001ee4: b3 0c 95 01 	add	s9, a0, s9
180001ee8: 87 a7 0c 00 	flw	fa5, 0x0(s9)
180001eec: 93 1c 2b 00 	slli	s9, s6, 0x2
180001ef0: b7 1d 00 00 	lui	s11, 0x1
180001ef4: b3 8d 4d 00 	add	s11, s11, tp
180001ef8: 93 8d 8d c1 	addi	s11, s11, -0x3e8
180001efc: b3 8c 9d 01 	add	s9, s11, s9
180001f00: 27 a0 fc 08 	fsw	fa5, 0x80(s9)
180001f04: 6f 00 40 00 	j	0x180001f08 <_Z13lud_perimeterPfii+0xf94>
180001f08: 0b 30 0c 00 	vx_join	s8
180001f0c: 6f 00 40 00 	j	0x180001f10 <_Z13lud_perimeterPfii+0xf9c>
180001f10: b3 8b 7b 00 	add	s7, s7, t2
180001f14: b3 8c 6b 01 	add	s9, s7, s6
180001f18: b3 ad 0c 01 	slt	s11, s9, a6
180001f1c: 0b ac 1d 00 	vx_split_n	s8, s11
180001f20: 63 88 0d 02 	beqz	s11, 0x180001f50 <_Z13lud_perimeterPfii+0xfdc>
180001f24: 6f 00 40 00 	j	0x180001f28 <_Z13lud_perimeterPfii+0xfb4>
180001f28: 93 9c 2c 00 	slli	s9, s9, 0x2
180001f2c: b3 0c 95 01 	add	s9, a0, s9
180001f30: 87 a7 0c 00 	flw	fa5, 0x0(s9)
180001f34: 93 1c 2b 00 	slli	s9, s6, 0x2
180001f38: b7 1d 00 00 	lui	s11, 0x1
180001f3c: b3 8d 4d 00 	add	s11, s11, tp
180001f40: 93 8d 8d c1 	addi	s11, s11, -0x3e8
180001f44: b3 8c 9d 01 	add	s9, s11, s9
180001f48: 27 a0 fc 0c 	fsw	fa5, 0xc0(s9)
180001f4c: 6f 00 40 00 	j	0x180001f50 <_Z13lud_perimeterPfii+0xfdc>
180001f50: 0b 30 0c 00 	vx_join	s8
180001f54: 6f 00 40 00 	j	0x180001f58 <_Z13lud_perimeterPfii+0xfe4>
180001f58: b3 8b 7b 00 	add	s7, s7, t2
180001f5c: b3 8c 6b 01 	add	s9, s7, s6
180001f60: b3 ad 0c 01 	slt	s11, s9, a6
180001f64: 0b ac 1d 00 	vx_split_n	s8, s11
180001f68: 63 88 0d 02 	beqz	s11, 0x180001f98 <_Z13lud_perimeterPfii+0x1024>
180001f6c: 6f 00 40 00 	j	0x180001f70 <_Z13lud_perimeterPfii+0xffc>
180001f70: 93 9c 2c 00 	slli	s9, s9, 0x2
180001f74: b3 0c 95 01 	add	s9, a0, s9
180001f78: 87 a7 0c 00 	flw	fa5, 0x0(s9)
180001f7c: 93 1c 2b 00 	slli	s9, s6, 0x2
180001f80: b7 1d 00 00 	lui	s11, 0x1
180001f84: b3 8d 4d 00 	add	s11, s11, tp
180001f88: 93 8d 8d c1 	addi	s11, s11, -0x3e8
180001f8c: b3 8c 9d 01 	add	s9, s11, s9
180001f90: 27 a0 fc 10 	fsw	fa5, 0x100(s9)
180001f94: 6f 00 40 00 	j	0x180001f98 <_Z13lud_perimeterPfii+0x1024>
180001f98: 0b 30 0c 00 	vx_join	s8
180001f9c: 6f 00 40 00 	j	0x180001fa0 <_Z13lud_perimeterPfii+0x102c>
180001fa0: b3 8b 7b 00 	add	s7, s7, t2
180001fa4: b3 8c 6b 01 	add	s9, s7, s6
180001fa8: b3 ad 0c 01 	slt	s11, s9, a6
180001fac: 0b ac 1d 00 	vx_split_n	s8, s11
180001fb0: 63 88 0d 02 	beqz	s11, 0x180001fe0 <_Z13lud_perimeterPfii+0x106c>
180001fb4: 6f 00 40 00 	j	0x180001fb8 <_Z13lud_perimeterPfii+0x1044>
180001fb8: 93 9c 2c 00 	slli	s9, s9, 0x2
180001fbc: b3 0c 95 01 	add	s9, a0, s9
180001fc0: 87 a7 0c 00 	flw	fa5, 0x0(s9)
180001fc4: 93 1c 2b 00 	slli	s9, s6, 0x2
180001fc8: b7 1d 00 00 	lui	s11, 0x1
180001fcc: b3 8d 4d 00 	add	s11, s11, tp
180001fd0: 93 8d 8d c1 	addi	s11, s11, -0x3e8
180001fd4: b3 8c 9d 01 	add	s9, s11, s9
180001fd8: 27 a0 fc 14 	fsw	fa5, 0x140(s9)
180001fdc: 6f 00 40 00 	j	0x180001fe0 <_Z13lud_perimeterPfii+0x106c>
180001fe0: 0b 30 0c 00 	vx_join	s8
180001fe4: 6f 00 40 00 	j	0x180001fe8 <_Z13lud_perimeterPfii+0x1074>
180001fe8: b3 8b 7b 00 	add	s7, s7, t2
180001fec: b3 8c 6b 01 	add	s9, s7, s6
180001ff0: b3 ad 0c 01 	slt	s11, s9, a6
180001ff4: 0b ac 1d 00 	vx_split_n	s8, s11
180001ff8: 63 88 0d 02 	beqz	s11, 0x180002028 <_Z13lud_perimeterPfii+0x10b4>
180001ffc: 6f 00 40 00 	j	0x180002000 <_Z13lud_perimeterPfii+0x108c>
180002000: 93 9c 2c 00 	slli	s9, s9, 0x2
180002004: b3 0c 95 01 	add	s9, a0, s9
180002008: 87 a7 0c 00 	flw	fa5, 0x0(s9)
18000200c: 93 1c 2b 00 	slli	s9, s6, 0x2
180002010: b7 1d 00 00 	lui	s11, 0x1
180002014: b3 8d 4d 00 	add	s11, s11, tp
180002018: 93 8d 8d c1 	addi	s11, s11, -0x3e8
18000201c: b3 8c 9d 01 	add	s9, s11, s9
180002020: 27 a0 fc 18 	fsw	fa5, 0x180(s9)
180002024: 6f 00 40 00 	j	0x180002028 <_Z13lud_perimeterPfii+0x10b4>
180002028: 0b 30 0c 00 	vx_join	s8
18000202c: 6f 00 40 00 	j	0x180002030 <_Z13lud_perimeterPfii+0x10bc>
180002030: b3 8b 7b 00 	add	s7, s7, t2
180002034: b3 8c 6b 01 	add	s9, s7, s6
180002038: b3 ad 0c 01 	slt	s11, s9, a6
18000203c: 0b ac 1d 00 	vx_split_n	s8, s11
180002040: 63 88 0d 02 	beqz	s11, 0x180002070 <_Z13lud_perimeterPfii+0x10fc>
180002044: 6f 00 40 00 	j	0x180002048 <_Z13lud_perimeterPfii+0x10d4>
180002048: 93 9c 2c 00 	slli	s9, s9, 0x2
18000204c: b3 0c 95 01 	add	s9, a0, s9
180002050: 87 a7 0c 00 	flw	fa5, 0x0(s9)
180002054: 93 1c 2b 00 	slli	s9, s6, 0x2
180002058: b7 1d 00 00 	lui	s11, 0x1
18000205c: b3 8d 4d 00 	add	s11, s11, tp
180002060: 93 8d 8d c1 	addi	s11, s11, -0x3e8
180002064: b3 8c 9d 01 	add	s9, s11, s9
180002068: 27 a0 fc 1c 	fsw	fa5, 0x1c0(s9)
18000206c: 6f 00 40 00 	j	0x180002070 <_Z13lud_perimeterPfii+0x10fc>
180002070: 0b 30 0c 00 	vx_join	s8
180002074: 6f 00 40 00 	j	0x180002078 <_Z13lud_perimeterPfii+0x1104>
180002078: b3 8b 7b 00 	add	s7, s7, t2
18000207c: b3 8c 6b 01 	add	s9, s7, s6
180002080: b3 ad 0c 01 	slt	s11, s9, a6
180002084: 0b ac 1d 00 	vx_split_n	s8, s11
180002088: 63 88 0d 02 	beqz	s11, 0x1800020b8 <_Z13lud_perimeterPfii+0x1144>
18000208c: 6f 00 40 00 	j	0x180002090 <_Z13lud_perimeterPfii+0x111c>
180002090: 93 9c 2c 00 	slli	s9, s9, 0x2
180002094: b3 0c 95 01 	add	s9, a0, s9
180002098: 87 a7 0c 00 	flw	fa5, 0x0(s9)
18000209c: 93 1c 2b 00 	slli	s9, s6, 0x2
1800020a0: b7 1d 00 00 	lui	s11, 0x1
1800020a4: b3 8d 4d 00 	add	s11, s11, tp
1800020a8: 93 8d 8d c1 	addi	s11, s11, -0x3e8
1800020ac: b3 8c 9d 01 	add	s9, s11, s9
1800020b0: 27 a0 fc 20 	fsw	fa5, 0x200(s9)
1800020b4: 6f 00 40 00 	j	0x1800020b8 <_Z13lud_perimeterPfii+0x1144>
1800020b8: 0b 30 0c 00 	vx_join	s8
1800020bc: 6f 00 40 00 	j	0x1800020c0 <_Z13lud_perimeterPfii+0x114c>
1800020c0: b3 8b 7b 00 	add	s7, s7, t2
1800020c4: b3 8c 6b 01 	add	s9, s7, s6
1800020c8: b3 ad 0c 01 	slt	s11, s9, a6
1800020cc: 0b ac 1d 00 	vx_split_n	s8, s11
1800020d0: 63 88 0d 02 	beqz	s11, 0x180002100 <_Z13lud_perimeterPfii+0x118c>
1800020d4: 6f 00 40 00 	j	0x1800020d8 <_Z13lud_perimeterPfii+0x1164>
1800020d8: 93 9c 2c 00 	slli	s9, s9, 0x2
1800020dc: b3 0c 95 01 	add	s9, a0, s9
1800020e0: 87 a7 0c 00 	flw	fa5, 0x0(s9)
1800020e4: 93 1c 2b 00 	slli	s9, s6, 0x2
1800020e8: b7 1d 00 00 	lui	s11, 0x1
1800020ec: b3 8d 4d 00 	add	s11, s11, tp
1800020f0: 93 8d 8d c1 	addi	s11, s11, -0x3e8
1800020f4: b3 8c 9d 01 	add	s9, s11, s9
1800020f8: 27 a0 fc 24 	fsw	fa5, 0x240(s9)
1800020fc: 6f 00 40 00 	j	0x180002100 <_Z13lud_perimeterPfii+0x118c>
180002100: 0b 30 0c 00 	vx_join	s8
180002104: 6f 00 40 00 	j	0x180002108 <_Z13lud_perimeterPfii+0x1194>
180002108: b3 8b 7b 00 	add	s7, s7, t2
18000210c: b3 8c 6b 01 	add	s9, s7, s6
180002110: b3 ad 0c 01 	slt	s11, s9, a6
180002114: 0b ac 1d 00 	vx_split_n	s8, s11
180002118: 63 88 0d 02 	beqz	s11, 0x180002148 <_Z13lud_perimeterPfii+0x11d4>
18000211c: 6f 00 40 00 	j	0x180002120 <_Z13lud_perimeterPfii+0x11ac>
180002120: 93 9c 2c 00 	slli	s9, s9, 0x2
180002124: b3 0c 95 01 	add	s9, a0, s9
180002128: 87 a7 0c 00 	flw	fa5, 0x0(s9)
18000212c: 93 1c 2b 00 	slli	s9, s6, 0x2
180002130: b7 1d 00 00 	lui	s11, 0x1
180002134: b3 8d 4d 00 	add	s11, s11, tp
180002138: 93 8d 8d c1 	addi	s11, s11, -0x3e8
18000213c: b3 8c 9d 01 	add	s9, s11, s9
180002140: 27 a0 fc 28 	fsw	fa5, 0x280(s9)
180002144: 6f 00 40 00 	j	0x180002148 <_Z13lud_perimeterPfii+0x11d4>
180002148: 0b 30 0c 00 	vx_join	s8
18000214c: 6f 00 40 00 	j	0x180002150 <_Z13lud_perimeterPfii+0x11dc>
180002150: b3 8b 7b 00 	add	s7, s7, t2
180002154: b3 8c 6b 01 	add	s9, s7, s6
180002158: b3 ad 0c 01 	slt	s11, s9, a6
18000215c: 0b ac 1d 00 	vx_split_n	s8, s11
180002160: 63 88 0d 02 	beqz	s11, 0x180002190 <_Z13lud_perimeterPfii+0x121c>
180002164: 6f 00 40 00 	j	0x180002168 <_Z13lud_perimeterPfii+0x11f4>
180002168: 93 9c 2c 00 	slli	s9, s9, 0x2
18000216c: b3 0c 95 01 	add	s9, a0, s9
180002170: 87 a7 0c 00 	flw	fa5, 0x0(s9)
180002174: 93 1c 2b 00 	slli	s9, s6, 0x2
180002178: b7 1d 00 00 	lui	s11, 0x1
18000217c: b3 8d 4d 00 	add	s11, s11, tp
180002180: 93 8d 8d c1 	addi	s11, s11, -0x3e8
180002184: b3 8c 9d 01 	add	s9, s11, s9
180002188: 27 a0 fc 2c 	fsw	fa5, 0x2c0(s9)
18000218c: 6f 00 40 00 	j	0x180002190 <_Z13lud_perimeterPfii+0x121c>
180002190: 0b 30 0c 00 	vx_join	s8
180002194: 6f 00 40 00 	j	0x180002198 <_Z13lud_perimeterPfii+0x1224>
180002198: b3 8b 7b 00 	add	s7, s7, t2
18000219c: b3 8c 6b 01 	add	s9, s7, s6
1800021a0: b3 ad 0c 01 	slt	s11, s9, a6
1800021a4: 0b ac 1d 00 	vx_split_n	s8, s11
1800021a8: 63 88 0d 02 	beqz	s11, 0x1800021d8 <_Z13lud_perimeterPfii+0x1264>
1800021ac: 6f 00 40 00 	j	0x1800021b0 <_Z13lud_perimeterPfii+0x123c>
1800021b0: 93 9c 2c 00 	slli	s9, s9, 0x2
1800021b4: b3 0c 95 01 	add	s9, a0, s9
1800021b8: 87 a7 0c 00 	flw	fa5, 0x0(s9)
1800021bc: 93 1c 2b 00 	slli	s9, s6, 0x2
1800021c0: b7 1d 00 00 	lui	s11, 0x1
1800021c4: b3 8d 4d 00 	add	s11, s11, tp
1800021c8: 93 8d 8d c1 	addi	s11, s11, -0x3e8
1800021cc: b3 8c 9d 01 	add	s9, s11, s9
1800021d0: 27 a0 fc 30 	fsw	fa5, 0x300(s9)
1800021d4: 6f 00 40 00 	j	0x1800021d8 <_Z13lud_perimeterPfii+0x1264>
1800021d8: 0b 30 0c 00 	vx_join	s8
1800021dc: 6f 00 40 00 	j	0x1800021e0 <_Z13lud_perimeterPfii+0x126c>
1800021e0: b3 8b 7b 00 	add	s7, s7, t2
1800021e4: b3 8c 6b 01 	add	s9, s7, s6
1800021e8: b3 ad 0c 01 	slt	s11, s9, a6
1800021ec: 0b ac 1d 00 	vx_split_n	s8, s11
1800021f0: 63 88 0d 02 	beqz	s11, 0x180002220 <_Z13lud_perimeterPfii+0x12ac>
1800021f4: 6f 00 40 00 	j	0x1800021f8 <_Z13lud_perimeterPfii+0x1284>
1800021f8: 93 9c 2c 00 	slli	s9, s9, 0x2
1800021fc: b3 0c 95 01 	add	s9, a0, s9
180002200: 87 a7 0c 00 	flw	fa5, 0x0(s9)
180002204: 93 1c 2b 00 	slli	s9, s6, 0x2
180002208: b7 1d 00 00 	lui	s11, 0x1
18000220c: b3 8d 4d 00 	add	s11, s11, tp
180002210: 93 8d 8d c1 	addi	s11, s11, -0x3e8
180002214: b3 8c 9d 01 	add	s9, s11, s9
180002218: 27 a0 fc 34 	fsw	fa5, 0x340(s9)
18000221c: 6f 00 40 00 	j	0x180002220 <_Z13lud_perimeterPfii+0x12ac>
180002220: 0b 30 0c 00 	vx_join	s8
180002224: 6f 00 40 00 	j	0x180002228 <_Z13lud_perimeterPfii+0x12b4>
180002228: b3 8b 7b 00 	add	s7, s7, t2
18000222c: b3 8c 6b 01 	add	s9, s7, s6
180002230: b3 ad 0c 01 	slt	s11, s9, a6
180002234: 0b ac 1d 00 	vx_split_n	s8, s11
180002238: 63 88 0d 02 	beqz	s11, 0x180002268 <_Z13lud_perimeterPfii+0x12f4>
18000223c: 6f 00 40 00 	j	0x180002240 <_Z13lud_perimeterPfii+0x12cc>
180002240: 93 9c 2c 00 	slli	s9, s9, 0x2
180002244: b3 0c 95 01 	add	s9, a0, s9
180002248: 87 a7 0c 00 	flw	fa5, 0x0(s9)
18000224c: 93 1c 2b 00 	slli	s9, s6, 0x2
180002250: b7 1d 00 00 	lui	s11, 0x1
180002254: b3 8d 4d 00 	add	s11, s11, tp
180002258: 93 8d 8d c1 	addi	s11, s11, -0x3e8
18000225c: b3 8c 9d 01 	add	s9, s11, s9
180002260: 27 a0 fc 38 	fsw	fa5, 0x380(s9)
180002264: 6f 00 40 00 	j	0x180002268 <_Z13lud_perimeterPfii+0x12f4>
180002268: 0b 30 0c 00 	vx_join	s8
18000226c: 6f 00 40 00 	j	0x180002270 <_Z13lud_perimeterPfii+0x12fc>
180002270: b3 8b 7b 00 	add	s7, s7, t2
180002274: 33 8c 6b 01 	add	s8, s7, s6
180002278: b3 2c 0c 01 	slt	s9, s8, a6
18000227c: 8b ab 1c 00 	vx_split_n	s7, s9
180002280: 63 88 0c 02 	beqz	s9, 0x1800022b0 <_Z13lud_perimeterPfii+0x133c>
180002284: 6f 00 40 00 	j	0x180002288 <_Z13lud_perimeterPfii+0x1314>
180002288: 13 1c 2c 00 	slli	s8, s8, 0x2
18000228c: 33 0c 85 01 	add	s8, a0, s8
180002290: 87 27 0c 00 	flw	fa5, 0x0(s8)
180002294: 13 1b 2b 00 	slli	s6, s6, 0x2
180002298: 37 1c 00 00 	lui	s8, 0x1
18000229c: 33 0c 4c 00 	add	s8, s8, tp
1800022a0: 13 0c 8c c1 	addi	s8, s8, -0x3e8
1800022a4: 33 0b 6c 01 	add	s6, s8, s6
1800022a8: 27 20 fb 3c 	fsw	fa5, 0x3c0(s6)
1800022ac: 6f 00 40 00 	j	0x1800022b0 <_Z13lud_perimeterPfii+0x133c>
1800022b0: 0b b0 0b 00 	vx_join	s7
1800022b4: 6f 00 40 00 	j	0x1800022b8 <_Z13lud_perimeterPfii+0x1344>
1800022b8: 6f 00 00 01 	j	0x1800022c8 <_Z13lud_perimeterPfii+0x1354>
1800022bc: 0b b0 0b 00 	vx_join	s7
1800022c0: 6f 00 40 00 	j	0x1800022c4 <_Z13lud_perimeterPfii+0x1350>
1800022c4: 6f 00 40 00 	j	0x1800022c8 <_Z13lud_perimeterPfii+0x1354>
1800022c8: 9b 8a 1a 00 	addiw	s5, s5, 0x1
1800022cc: 1b 8b 06 00 	sext.w	s6, a3
1800022d0: 63 96 6a 9b 	bne	s5, s6, 0x18000147c <_Z13lud_perimeterPfii+0x508>
1800022d4: 6f e0 df e1 	j	0x1800010f0 <_Z13lud_perimeterPfii+0x17c>
1800022d8: 17 57 00 00 	auipc	a4, 0x5
1800022dc: 13 07 47 4b 	addi	a4, a4, 0x4b4
1800022e0: 03 27 07 00 	lw	a4, 0x0(a4)
1800022e4: 23 38 e4 e8 	sd	a4, -0x170(s0)
1800022e8: 13 07 02 00 	mv	a4, tp
1800022ec: 23 34 e4 e8 	sd	a4, -0x178(s0)
1800022f0: 1b 07 06 01 	addiw	a4, a2, 0x10
1800022f4: 23 30 e4 e8 	sd	a4, -0x180(s0)
1800022f8: bb 88 b5 02 	mulw	a7, a1, a1
1800022fc: 1b 07 16 00 	addiw	a4, a2, 0x1
180002300: 3b 07 b7 02 	mulw	a4, a4, a1
180002304: 3b 07 c7 00 	addw	a4, a4, a2
180002308: 1b 83 05 00 	sext.w	t1, a1
18000230c: 23 3c e4 e6 	sd	a4, -0x188(s0)
180002310: 3b 07 b7 00 	addw	a4, a4, a1
180002314: 23 38 e4 e6 	sd	a4, -0x190(s0)
180002318: 3b 0e b7 00 	addw	t3, a4, a1
18000231c: bb 0e be 00 	addw	t4, t3, a1
180002320: 3b 8f be 00 	addw	t5, t4, a1
180002324: bb 0f bf 00 	addw	t6, t5, a1
180002328: bb 84 bf 00 	addw	s1, t6, a1
18000232c: 3b 89 b4 00 	addw	s2, s1, a1
180002330: bb 09 b9 00 	addw	s3, s2, a1
180002334: 3b 8a b9 00 	addw	s4, s3, a1
180002338: bb 0a ba 00 	addw	s5, s4, a1
18000233c: 3b 8b ba 00 	addw	s6, s5, a1
180002340: bb 0b bb 00 	addw	s7, s6, a1
180002344: 3b 8c bb 00 	addw	s8, s7, a1
180002348: 3b 07 bc 00 	addw	a4, s8, a1
18000234c: 23 34 e4 e6 	sd	a4, -0x198(s0)
180002350: 13 0d 00 00 	li	s10, 0x0
180002354: 6f 00 40 5c 	j	0x180002918 <_Z13lud_perimeterPfii+0x19a4>
180002358: 3b e8 e7 02 	remw	a6, a5, a4
18000235c: 93 08 f0 00 	li	a7, 0xf
180002360: 63 ea 08 4b 	bltu	a7, a6, 0x180002814 <_Z13lud_perimeterPfii+0x18a0>
180002364: 6f 00 40 00 	j	0x180002368 <_Z13lud_perimeterPfii+0x13f4>
180002368: 1b 08 08 00 	sext.w	a6, a6
18000236c: 13 18 28 00 	slli	a6, a6, 0x2
180002370: b7 18 00 00 	lui	a7, 0x1
180002374: b3 88 48 00 	add	a7, a7, tp
180002378: 93 88 88 81 	addi	a7, a7, -0x7e8
18000237c: 33 88 08 01 	add	a6, a7, a6
180002380: 07 2a 08 04 	flw	fs4, 0x40(a6)
180002384: 87 2a 08 00 	flw	fs5, 0x0(a6)
180002388: 87 27 44 e6 	flw	fa5, -0x19c(s0)
18000238c: 4b fa 57 a1 	fnmsub.s	fs4, fa5, fs5, fs4
180002390: 27 20 48 05 	fsw	fs4, 0x40(a6)
180002394: 07 2b 08 08 	flw	fs6, 0x80(a6)
180002398: 87 27 04 e6 	flw	fa5, -0x1a0(s0)
18000239c: 4b fb 57 b1 	fnmsub.s	fs6, fa5, fs5, fs6
1800023a0: 87 27 c4 e5 	flw	fa5, -0x1a4(s0)
1800023a4: 4b fb 47 b1 	fnmsub.s	fs6, fa5, fs4, fs6
1800023a8: 27 20 68 09 	fsw	fs6, 0x80(a6)
1800023ac: 87 2b 08 0c 	flw	fs7, 0xc0(a6)
1800023b0: 87 27 84 e5 	flw	fa5, -0x1a8(s0)
1800023b4: cb fb 57 b9 	fnmsub.s	fs7, fa5, fs5, fs7
1800023b8: 87 27 44 e5 	flw	fa5, -0x1ac(s0)
1800023bc: cb fb 47 b9 	fnmsub.s	fs7, fa5, fs4, fs7
1800023c0: 87 27 04 e5 	flw	fa5, -0x1b0(s0)
1800023c4: cb fb 67 b9 	fnmsub.s	fs7, fa5, fs6, fs7
1800023c8: 27 20 78 0d 	fsw	fs7, 0xc0(a6)
1800023cc: 07 2c 08 10 	flw	fs8, 0x100(a6)
1800023d0: 87 27 c4 e4 	flw	fa5, -0x1b4(s0)
1800023d4: 4b fc 57 c1 	fnmsub.s	fs8, fa5, fs5, fs8
1800023d8: 87 27 84 e4 	flw	fa5, -0x1b8(s0)
1800023dc: 4b fc 47 c1 	fnmsub.s	fs8, fa5, fs4, fs8
1800023e0: 87 27 44 e4 	flw	fa5, -0x1bc(s0)
1800023e4: 4b fc 67 c1 	fnmsub.s	fs8, fa5, fs6, fs8
1800023e8: 87 27 04 e4 	flw	fa5, -0x1c0(s0)
1800023ec: 4b fc 77 c1 	fnmsub.s	fs8, fa5, fs7, fs8
1800023f0: 27 20 88 11 	fsw	fs8, 0x100(a6)
1800023f4: 87 2c 08 14 	flw	fs9, 0x140(a6)
1800023f8: 87 27 c4 e3 	flw	fa5, -0x1c4(s0)
1800023fc: cb fc 57 c9 	fnmsub.s	fs9, fa5, fs5, fs9
180002400: 87 27 84 e3 	flw	fa5, -0x1c8(s0)
180002404: cb fc 47 c9 	fnmsub.s	fs9, fa5, fs4, fs9
180002408: 87 27 44 e3 	flw	fa5, -0x1cc(s0)
18000240c: cb fc 67 c9 	fnmsub.s	fs9, fa5, fs6, fs9
180002410: 87 27 04 e3 	flw	fa5, -0x1d0(s0)
180002414: cb fc 77 c9 	fnmsub.s	fs9, fa5, fs7, fs9
180002418: 87 27 c4 e2 	flw	fa5, -0x1d4(s0)
18000241c: cb fc 87 c9 	fnmsub.s	fs9, fa5, fs8, fs9
180002420: 27 20 98 15 	fsw	fs9, 0x140(a6)
180002424: 07 2d 08 18 	flw	fs10, 0x180(a6)
180002428: 87 27 84 e2 	flw	fa5, -0x1d8(s0)
18000242c: 4b fd 57 d1 	fnmsub.s	fs10, fa5, fs5, fs10
180002430: 87 27 44 e2 	flw	fa5, -0x1dc(s0)
180002434: 4b fd 47 d1 	fnmsub.s	fs10, fa5, fs4, fs10
180002438: 87 27 04 e2 	flw	fa5, -0x1e0(s0)
18000243c: 4b fd 67 d1 	fnmsub.s	fs10, fa5, fs6, fs10
180002440: 87 27 c4 e1 	flw	fa5, -0x1e4(s0)
180002444: 4b fd 77 d1 	fnmsub.s	fs10, fa5, fs7, fs10
180002448: 87 27 84 e1 	flw	fa5, -0x1e8(s0)
18000244c: 4b fd 87 d1 	fnmsub.s	fs10, fa5, fs8, fs10
180002450: 87 27 44 e1 	flw	fa5, -0x1ec(s0)
180002454: 4b fd 97 d1 	fnmsub.s	fs10, fa5, fs9, fs10
180002458: 27 20 a8 19 	fsw	fs10, 0x180(a6)
18000245c: 87 2d 08 1c 	flw	fs11, 0x1c0(a6)
180002460: 87 27 04 e1 	flw	fa5, -0x1f0(s0)
180002464: cb fa 57 d9 	fnmsub.s	fs5, fa5, fs5, fs11
180002468: 87 27 c4 e0 	flw	fa5, -0x1f4(s0)
18000246c: 4b fa 47 a9 	fnmsub.s	fs4, fa5, fs4, fs5
180002470: 87 27 84 e0 	flw	fa5, -0x1f8(s0)
180002474: 4b fa 67 a1 	fnmsub.s	fs4, fa5, fs6, fs4
180002478: 87 27 44 e0 	flw	fa5, -0x1fc(s0)
18000247c: 4b fa 77 a1 	fnmsub.s	fs4, fa5, fs7, fs4
180002480: 87 27 04 e0 	flw	fa5, -0x200(s0)
180002484: 4b fa 87 a1 	fnmsub.s	fs4, fa5, fs8, fs4
180002488: 87 27 c4 df 	flw	fa5, -0x204(s0)
18000248c: 4b fa 97 a1 	fnmsub.s	fs4, fa5, fs9, fs4
180002490: 87 27 84 df 	flw	fa5, -0x208(s0)
180002494: 4b fa a7 a1 	fnmsub.s	fs4, fa5, fs10, fs4
180002498: 27 20 48 1d 	fsw	fs4, 0x1c0(a6)
18000249c: 87 2a 08 20 	flw	fs5, 0x200(a6)
1800024a0: 07 2b 08 00 	flw	fs6, 0x0(a6)
1800024a4: 87 27 44 df 	flw	fa5, -0x20c(s0)
1800024a8: cb fa 67 a9 	fnmsub.s	fs5, fa5, fs6, fs5
1800024ac: 87 2b 08 04 	flw	fs7, 0x40(a6)
1800024b0: 87 27 04 df 	flw	fa5, -0x210(s0)
1800024b4: cb fa 77 a9 	fnmsub.s	fs5, fa5, fs7, fs5
1800024b8: 07 2c 08 08 	flw	fs8, 0x80(a6)
1800024bc: 87 27 c4 de 	flw	fa5, -0x214(s0)
1800024c0: cb fa 87 a9 	fnmsub.s	fs5, fa5, fs8, fs5
1800024c4: 87 2d 08 0c 	flw	fs11, 0xc0(a6)
1800024c8: 87 27 84 de 	flw	fa5, -0x218(s0)
1800024cc: cb fa b7 a9 	fnmsub.s	fs5, fa5, fs11, fs5
1800024d0: 87 27 08 10 	flw	fa5, 0x100(a6)
1800024d4: 07 27 44 de 	flw	fa4, -0x21c(s0)
1800024d8: cb 7a f7 a8 	fnmsub.s	fs5, fa4, fa5, fs5
1800024dc: 07 27 04 de 	flw	fa4, -0x220(s0)
1800024e0: cb 7a 97 a9 	fnmsub.s	fs5, fa4, fs9, fs5
1800024e4: 07 27 c4 dd 	flw	fa4, -0x224(s0)
1800024e8: cb 7a a7 a9 	fnmsub.s	fs5, fa4, fs10, fs5
1800024ec: 07 27 84 dd 	flw	fa4, -0x228(s0)
1800024f0: cb 7a 47 a9 	fnmsub.s	fs5, fa4, fs4, fs5
1800024f4: 27 20 58 21 	fsw	fs5, 0x200(a6)
1800024f8: 87 2c 08 24 	flw	fs9, 0x240(a6)
1800024fc: 07 27 44 dd 	flw	fa4, -0x22c(s0)
180002500: cb 7c 67 c9 	fnmsub.s	fs9, fa4, fs6, fs9
180002504: 07 27 04 dd 	flw	fa4, -0x230(s0)
180002508: cb 7c 77 c9 	fnmsub.s	fs9, fa4, fs7, fs9
18000250c: 07 27 c4 dc 	flw	fa4, -0x234(s0)
180002510: cb 7c 87 c9 	fnmsub.s	fs9, fa4, fs8, fs9
180002514: 07 27 84 dc 	flw	fa4, -0x238(s0)
180002518: cb 7c b7 c9 	fnmsub.s	fs9, fa4, fs11, fs9
18000251c: 07 27 44 dc 	flw	fa4, -0x23c(s0)
180002520: cb 7c f7 c8 	fnmsub.s	fs9, fa4, fa5, fs9
180002524: 07 27 08 14 	flw	fa4, 0x140(a6)
180002528: 87 26 04 dc 	flw	fa3, -0x240(s0)
18000252c: cb fc e6 c8 	fnmsub.s	fs9, fa3, fa4, fs9
180002530: 87 26 c4 db 	flw	fa3, -0x244(s0)
180002534: cb fc a6 c9 	fnmsub.s	fs9, fa3, fs10, fs9
180002538: 87 26 84 db 	flw	fa3, -0x248(s0)
18000253c: 4b fa 46 c9 	fnmsub.s	fs4, fa3, fs4, fs9
180002540: 87 26 44 db 	flw	fa3, -0x24c(s0)
180002544: 4b fa 56 a1 	fnmsub.s	fs4, fa3, fs5, fs4
180002548: 27 20 48 25 	fsw	fs4, 0x240(a6)
18000254c: 87 2c 08 28 	flw	fs9, 0x280(a6)
180002550: 87 26 04 db 	flw	fa3, -0x250(s0)
180002554: 4b fb 66 c9 	fnmsub.s	fs6, fa3, fs6, fs9
180002558: 87 26 c4 da 	flw	fa3, -0x254(s0)
18000255c: 4b fb 76 b1 	fnmsub.s	fs6, fa3, fs7, fs6
180002560: 87 26 84 da 	flw	fa3, -0x258(s0)
180002564: 4b fb 86 b1 	fnmsub.s	fs6, fa3, fs8, fs6
180002568: 87 26 44 da 	flw	fa3, -0x25c(s0)
18000256c: 4b fb b6 b1 	fnmsub.s	fs6, fa3, fs11, fs6
180002570: 87 26 04 da 	flw	fa3, -0x260(s0)
180002574: cb f7 f6 b0 	fnmsub.s	fa5, fa3, fa5, fs6
180002578: 87 26 c4 d9 	flw	fa3, -0x264(s0)
18000257c: cb f7 e6 78 	fnmsub.s	fa5, fa3, fa4, fa5
180002580: 07 2b 08 18 	flw	fs6, 0x180(a6)
180002584: 87 26 84 d9 	flw	fa3, -0x268(s0)
180002588: cb f7 66 79 	fnmsub.s	fa5, fa3, fs6, fa5
18000258c: 87 2b 08 1c 	flw	fs7, 0x1c0(a6)
180002590: 87 26 44 d9 	flw	fa3, -0x26c(s0)
180002594: cb f7 76 79 	fnmsub.s	fa5, fa3, fs7, fa5
180002598: 87 26 04 d9 	flw	fa3, -0x270(s0)
18000259c: cb f7 56 79 	fnmsub.s	fa5, fa3, fs5, fa5
1800025a0: 87 26 c4 d8 	flw	fa3, -0x274(s0)
1800025a4: cb f7 46 79 	fnmsub.s	fa5, fa3, fs4, fa5
1800025a8: 27 20 f8 28 	fsw	fa5, 0x280(a6)
1800025ac: 87 2a 08 2c 	flw	fs5, 0x2c0(a6)
1800025b0: 07 2c 08 00 	flw	fs8, 0x0(a6)
1800025b4: 87 26 84 d8 	flw	fa3, -0x278(s0)
1800025b8: cb fa 86 a9 	fnmsub.s	fs5, fa3, fs8, fs5
1800025bc: 87 2c 08 04 	flw	fs9, 0x40(a6)
1800025c0: 87 26 44 d8 	flw	fa3, -0x27c(s0)
1800025c4: cb fa 96 a9 	fnmsub.s	fs5, fa3, fs9, fs5
1800025c8: 07 2d 08 08 	flw	fs10, 0x80(a6)
1800025cc: 87 26 04 d8 	flw	fa3, -0x280(s0)
1800025d0: cb fa a6 a9 	fnmsub.s	fs5, fa3, fs10, fs5
1800025d4: 87 2d 08 0c 	flw	fs11, 0xc0(a6)
1800025d8: 87 26 c4 d7 	flw	fa3, -0x284(s0)
1800025dc: cb fa b6 a9 	fnmsub.s	fs5, fa3, fs11, fs5
1800025e0: 87 26 08 10 	flw	fa3, 0x100(a6)
1800025e4: 07 26 84 d7 	flw	fa2, -0x288(s0)
1800025e8: cb 7a d6 a8 	fnmsub.s	fs5, fa2, fa3, fs5
1800025ec: 07 26 44 d7 	flw	fa2, -0x28c(s0)
1800025f0: 4b 77 e6 a8 	fnmsub.s	fa4, fa2, fa4, fs5
1800025f4: 07 26 04 d7 	flw	fa2, -0x290(s0)
1800025f8: 4b 77 66 71 	fnmsub.s	fa4, fa2, fs6, fa4
1800025fc: 07 26 c4 d6 	flw	fa2, -0x294(s0)
180002600: 4b 77 76 71 	fnmsub.s	fa4, fa2, fs7, fa4
180002604: 87 2a 08 20 	flw	fs5, 0x200(a6)
180002608: 07 26 84 d6 	flw	fa2, -0x298(s0)
18000260c: 4b 77 56 71 	fnmsub.s	fa4, fa2, fs5, fa4
180002610: 07 26 44 d6 	flw	fa2, -0x29c(s0)
180002614: 4b 77 46 71 	fnmsub.s	fa4, fa2, fs4, fa4
180002618: 07 26 04 d6 	flw	fa2, -0x2a0(s0)
18000261c: 4b 77 f6 70 	fnmsub.s	fa4, fa2, fa5, fa4
180002620: 27 20 e8 2c 	fsw	fa4, 0x2c0(a6)
180002624: 07 2a 08 30 	flw	fs4, 0x300(a6)
180002628: 07 26 c4 d5 	flw	fa2, -0x2a4(s0)
18000262c: 4b 7a 86 a1 	fnmsub.s	fs4, fa2, fs8, fs4
180002630: 07 26 84 d5 	flw	fa2, -0x2a8(s0)
180002634: 4b 7a 96 a1 	fnmsub.s	fs4, fa2, fs9, fs4
180002638: 07 26 44 d5 	flw	fa2, -0x2ac(s0)
18000263c: 4b 7a a6 a1 	fnmsub.s	fs4, fa2, fs10, fs4
180002640: 07 26 04 d5 	flw	fa2, -0x2b0(s0)
180002644: 4b 7a b6 a1 	fnmsub.s	fs4, fa2, fs11, fs4
180002648: 07 26 c4 d4 	flw	fa2, -0x2b4(s0)
18000264c: cb 76 d6 a0 	fnmsub.s	fa3, fa2, fa3, fs4
180002650: 07 2a 08 14 	flw	fs4, 0x140(a6)
180002654: 07 26 84 d4 	flw	fa2, -0x2b8(s0)
180002658: cb 76 46 69 	fnmsub.s	fa3, fa2, fs4, fa3
18000265c: 07 26 44 d4 	flw	fa2, -0x2bc(s0)
180002660: cb 76 66 69 	fnmsub.s	fa3, fa2, fs6, fa3
180002664: 07 26 04 d4 	flw	fa2, -0x2c0(s0)
180002668: cb 76 76 69 	fnmsub.s	fa3, fa2, fs7, fa3
18000266c: 07 26 c4 d3 	flw	fa2, -0x2c4(s0)
180002670: cb 76 56 69 	fnmsub.s	fa3, fa2, fs5, fa3
180002674: 87 2a 08 24 	flw	fs5, 0x240(a6)
180002678: 07 26 84 d3 	flw	fa2, -0x2c8(s0)
18000267c: cb 76 56 69 	fnmsub.s	fa3, fa2, fs5, fa3
180002680: 07 26 44 d3 	flw	fa2, -0x2cc(s0)
180002684: cb 77 f6 68 	fnmsub.s	fa5, fa2, fa5, fa3
180002688: 87 26 04 d3 	flw	fa3, -0x2d0(s0)
18000268c: cb f7 e6 78 	fnmsub.s	fa5, fa3, fa4, fa5
180002690: 27 20 f8 30 	fsw	fa5, 0x300(a6)
180002694: 07 27 08 34 	flw	fa4, 0x340(a6)
180002698: 87 26 08 00 	flw	fa3, 0x0(a6)
18000269c: 07 26 c4 d2 	flw	fa2, -0x2d4(s0)
1800026a0: 4b 77 d6 70 	fnmsub.s	fa4, fa2, fa3, fa4
1800026a4: 07 2b 08 04 	flw	fs6, 0x40(a6)
1800026a8: 07 26 84 d2 	flw	fa2, -0x2d8(s0)
1800026ac: 4b 77 66 71 	fnmsub.s	fa4, fa2, fs6, fa4
1800026b0: 87 2b 08 08 	flw	fs7, 0x80(a6)
1800026b4: 07 26 44 d2 	flw	fa2, -0x2dc(s0)
1800026b8: 4b 77 76 71 	fnmsub.s	fa4, fa2, fs7, fa4
1800026bc: 07 2c 08 0c 	flw	fs8, 0xc0(a6)
1800026c0: 07 26 04 d2 	flw	fa2, -0x2e0(s0)
1800026c4: 4b 77 86 71 	fnmsub.s	fa4, fa2, fs8, fa4
1800026c8: 87 2c 08 10 	flw	fs9, 0x100(a6)
1800026cc: 07 26 c4 d1 	flw	fa2, -0x2e4(s0)
1800026d0: 4b 77 96 71 	fnmsub.s	fa4, fa2, fs9, fa4
1800026d4: 07 26 84 d1 	flw	fa2, -0x2e8(s0)
1800026d8: 4b 77 46 71 	fnmsub.s	fa4, fa2, fs4, fa4
1800026dc: 07 2a 08 18 	flw	fs4, 0x180(a6)
1800026e0: 07 26 44 d1 	flw	fa2, -0x2ec(s0)
1800026e4: 4b 77 46 71 	fnmsub.s	fa4, fa2, fs4, fa4
1800026e8: 07 2d 08 1c 	flw	fs10, 0x1c0(a6)
1800026ec: 07 26 04 d1 	flw	fa2, -0x2f0(s0)
1800026f0: 4b 77 a6 71 	fnmsub.s	fa4, fa2, fs10, fa4
1800026f4: 87 2d 08 20 	flw	fs11, 0x200(a6)
1800026f8: 07 26 c4 d0 	flw	fa2, -0x2f4(s0)
1800026fc: 4b 77 b6 71 	fnmsub.s	fa4, fa2, fs11, fa4
180002700: 07 26 84 d0 	flw	fa2, -0x2f8(s0)
180002704: 4b 77 56 71 	fnmsub.s	fa4, fa2, fs5, fa4
180002708: 87 2a 08 28 	flw	fs5, 0x280(a6)
18000270c: 07 26 44 d0 	flw	fa2, -0x2fc(s0)
180002710: 4b 77 56 71 	fnmsub.s	fa4, fa2, fs5, fa4
180002714: 07 26 08 2c 	flw	fa2, 0x2c0(a6)
180002718: 87 25 04 d0 	flw	fa1, -0x300(s0)
18000271c: 4b f7 c5 70 	fnmsub.s	fa4, fa1, fa2, fa4
180002720: 87 25 c4 cf 	flw	fa1, -0x304(s0)
180002724: cb f7 f5 70 	fnmsub.s	fa5, fa1, fa5, fa4
180002728: 27 20 f8 34 	fsw	fa5, 0x340(a6)
18000272c: 07 27 08 38 	flw	fa4, 0x380(a6)
180002730: 87 25 84 cf 	flw	fa1, -0x308(s0)
180002734: 4b f7 d5 70 	fnmsub.s	fa4, fa1, fa3, fa4
180002738: 87 26 44 cf 	flw	fa3, -0x30c(s0)
18000273c: 4b f7 66 71 	fnmsub.s	fa4, fa3, fs6, fa4
180002740: 87 26 04 cf 	flw	fa3, -0x310(s0)
180002744: 4b f7 76 71 	fnmsub.s	fa4, fa3, fs7, fa4
180002748: 87 26 c4 ce 	flw	fa3, -0x314(s0)
18000274c: 4b f7 86 71 	fnmsub.s	fa4, fa3, fs8, fa4
180002750: 87 26 84 ce 	flw	fa3, -0x318(s0)
180002754: 4b f7 96 71 	fnmsub.s	fa4, fa3, fs9, fa4
180002758: 87 26 08 14 	flw	fa3, 0x140(a6)
18000275c: 87 25 44 ce 	flw	fa1, -0x31c(s0)
180002760: 4b f7 d5 70 	fnmsub.s	fa4, fa1, fa3, fa4
180002764: 87 25 04 ce 	flw	fa1, -0x320(s0)
180002768: 4b f7 45 71 	fnmsub.s	fa4, fa1, fs4, fa4
18000276c: 87 25 c4 cd 	flw	fa1, -0x324(s0)
180002770: 4b f7 a5 71 	fnmsub.s	fa4, fa1, fs10, fa4
180002774: 87 25 84 cd 	flw	fa1, -0x328(s0)
180002778: 4b f7 b5 71 	fnmsub.s	fa4, fa1, fs11, fa4
18000277c: 07 2a 08 24 	flw	fs4, 0x240(a6)
180002780: 87 25 44 cd 	flw	fa1, -0x32c(s0)
180002784: 4b f7 45 71 	fnmsub.s	fa4, fa1, fs4, fa4
180002788: 4b 77 55 71 	fnmsub.s	fa4, fa0, fs5, fa4
18000278c: 4b 77 c0 70 	fnmsub.s	fa4, ft0, fa2, fa4
180002790: 07 26 08 30 	flw	fa2, 0x300(a6)
180002794: 4b f7 c0 70 	fnmsub.s	fa4, ft1, fa2, fa4
180002798: cb 77 f1 70 	fnmsub.s	fa5, ft2, fa5, fa4
18000279c: 27 20 f8 38 	fsw	fa5, 0x380(a6)
1800027a0: 07 27 08 3c 	flw	fa4, 0x3c0(a6)
1800027a4: 87 2a 08 00 	flw	fs5, 0x0(a6)
1800027a8: 4b f7 51 71 	fnmsub.s	fa4, ft3, fs5, fa4
1800027ac: 87 2a 08 04 	flw	fs5, 0x40(a6)
1800027b0: 4b 77 52 71 	fnmsub.s	fa4, ft4, fs5, fa4
1800027b4: 87 2a 08 08 	flw	fs5, 0x80(a6)
1800027b8: 4b f7 52 71 	fnmsub.s	fa4, ft5, fs5, fa4
1800027bc: 87 2a 08 0c 	flw	fs5, 0xc0(a6)
1800027c0: 4b 77 53 71 	fnmsub.s	fa4, ft6, fs5, fa4
1800027c4: 87 2a 08 10 	flw	fs5, 0x100(a6)
1800027c8: 4b f7 53 71 	fnmsub.s	fa4, ft7, fs5, fa4
1800027cc: 4b 77 d8 70 	fnmsub.s	fa4, fa6, fa3, fa4
1800027d0: 87 26 08 18 	flw	fa3, 0x180(a6)
1800027d4: 4b f7 d8 70 	fnmsub.s	fa4, fa7, fa3, fa4
1800027d8: 87 26 08 1c 	flw	fa3, 0x1c0(a6)
1800027dc: 4b 77 de 70 	fnmsub.s	fa4, ft8, fa3, fa4
1800027e0: 87 26 08 20 	flw	fa3, 0x200(a6)
1800027e4: 4b f7 de 70 	fnmsub.s	fa4, ft9, fa3, fa4
1800027e8: 4b 77 4f 71 	fnmsub.s	fa4, ft10, fs4, fa4
1800027ec: 87 26 08 28 	flw	fa3, 0x280(a6)
1800027f0: 4b f7 df 70 	fnmsub.s	fa4, ft11, fa3, fa4
1800027f4: 87 26 08 2c 	flw	fa3, 0x2c0(a6)
1800027f8: 4b 77 d4 70 	fnmsub.s	fa4, fs0, fa3, fa4
1800027fc: 4b f7 c4 70 	fnmsub.s	fa4, fs1, fa2, fa4
180002800: 87 26 08 34 	flw	fa3, 0x340(a6)
180002804: 4b 77 d9 70 	fnmsub.s	fa4, fs2, fa3, fa4
180002808: cb f7 f9 70 	fnmsub.s	fa5, fs3, fa5, fa4
18000280c: 27 20 f8 3c 	fsw	fa5, 0x3c0(a6)
180002810: 6f 00 80 0f 	j	0x180002908 <_Z13lud_perimeterPfii+0x1994>
180002814: 1b 08 08 ff 	addiw	a6, a6, -0x10
180002818: 93 18 68 00 	slli	a7, a6, 0x6
18000281c: b7 12 00 00 	lui	t0, 0x1
180002820: b3 82 42 00 	add	t0, t0, tp
180002824: 93 82 82 c1 	addi	t0, t0, -0x3e8
180002828: b3 88 12 01 	add	a7, t0, a7
18000282c: 93 02 00 00 	li	t0, 0x0
180002830: 6f 00 40 00 	j	0x180002834 <_Z13lud_perimeterPfii+0x18c0>
180002834: 63 98 02 00 	bnez	t0, 0x180002844 <_Z13lud_perimeterPfii+0x18d0>
180002838: 6f 00 40 00 	j	0x18000283c <_Z13lud_perimeterPfii+0x18c8>
18000283c: 07 aa 08 00 	flw	fs4, 0x0(a7)
180002840: 6f 00 c0 07 	j	0x1800028bc <_Z13lud_perimeterPfii+0x1948>
180002844: 13 13 68 00 	slli	t1, a6, 0x6
180002848: b7 13 00 00 	lui	t2, 0x1
18000284c: b3 83 43 00 	add	t2, t2, tp
180002850: 93 83 83 c1 	addi	t2, t2, -0x3e8
180002854: 13 9e 22 00 	slli	t3, t0, 0x2
180002858: 33 03 c3 01 	add	t1, t1, t3
18000285c: 33 83 63 00 	add	t1, t2, t1
180002860: 07 2a 03 00 	flw	fs4, 0x0(t1)
180002864: 93 03 00 00 	li	t2, 0x0
180002868: 6f 00 40 00 	j	0x18000286c <_Z13lud_perimeterPfii+0x18f8>
18000286c: 13 1e 68 00 	slli	t3, a6, 0x6
180002870: b7 1e 00 00 	lui	t4, 0x1
180002874: b3 8e 4e 00 	add	t4, t4, tp
180002878: 93 8e 8e c1 	addi	t4, t4, -0x3e8
18000287c: 13 9f 23 00 	slli	t5, t2, 0x2
180002880: 33 0e ee 01 	add	t3, t3, t5
180002884: 33 8e ce 01 	add	t3, t4, t3
180002888: 87 27 0e 00 	flw	fa5, 0x0(t3)
18000288c: 13 9e 63 00 	slli	t3, t2, 0x6
180002890: 93 0e 82 41 	addi	t4, tp, 0x418
180002894: 13 9f 22 00 	slli	t5, t0, 0x2
180002898: 33 0e ee 01 	add	t3, t3, t5
18000289c: 33 8e ce 01 	add	t3, t4, t3
1800028a0: 07 27 0e 00 	flw	fa4, 0x0(t3)
1800028a4: 4b fa e7 a0 	fnmsub.s	fs4, fa5, fa4, fs4
1800028a8: 27 20 43 01 	fsw	fs4, 0x0(t1)
1800028ac: 93 83 13 00 	addi	t2, t2, 0x1
1800028b0: e3 9e 53 fa 	bne	t2, t0, 0x18000286c <_Z13lud_perimeterPfii+0x18f8>
1800028b4: 6f 00 40 00 	j	0x1800028b8 <_Z13lud_perimeterPfii+0x1944>
1800028b8: 6f 00 40 00 	j	0x1800028bc <_Z13lud_perimeterPfii+0x1948>
1800028bc: 13 93 62 00 	slli	t1, t0, 0x6
1800028c0: 93 03 82 41 	addi	t2, tp, 0x418
1800028c4: 13 9e 22 00 	slli	t3, t0, 0x2
1800028c8: 33 03 c3 01 	add	t1, t1, t3
1800028cc: 33 83 63 00 	add	t1, t2, t1
1800028d0: 87 27 03 00 	flw	fa5, 0x0(t1)
1800028d4: 13 13 68 00 	slli	t1, a6, 0x6
1800028d8: b7 13 00 00 	lui	t2, 0x1
1800028dc: b3 83 43 00 	add	t2, t2, tp
1800028e0: 93 83 83 c1 	addi	t2, t2, -0x3e8
1800028e4: 33 03 c3 01 	add	t1, t1, t3
1800028e8: 33 83 63 00 	add	t1, t2, t1
1800028ec: d3 77 fa 18 	fdiv.s	fa5, fs4, fa5
1800028f0: 27 20 f3 00 	fsw	fa5, 0x0(t1)
1800028f4: 93 82 12 00 	addi	t0, t0, 0x1
1800028f8: 13 03 00 01 	li	t1, 0x10
1800028fc: e3 9c 62 f2 	bne	t0, t1, 0x180002834 <_Z13lud_perimeterPfii+0x18c0>
180002900: 6f 00 40 00 	j	0x180002904 <_Z13lud_perimeterPfii+0x1990>
180002904: 6f 00 40 00 	j	0x180002908 <_Z13lud_perimeterPfii+0x1994>
180002908: 9b 87 17 00 	addiw	a5, a5, 0x1
18000290c: 1b 88 06 00 	sext.w	a6, a3
180002910: e3 84 07 9d 	beq	a5, a6, 0x1800022d8 <_Z13lud_perimeterPfii+0x1364>
180002914: 6f f0 5f a4 	j	0x180002358 <_Z13lud_perimeterPfii+0x13e4>
180002918: 03 37 04 e9 	ld	a4, -0x170(s0)
18000291c: 3b 68 ed 02 	remw	a6, s10, a4
180002920: 93 07 10 00 	li	a5, 0x1
180002924: 93 00 f0 00 	li	ra, 0xf
180002928: 93 0d 00 00 	li	s11, 0x0
18000292c: 63 e6 00 4f 	bltu	ra, a6, 0x180002e18 <_Z13lud_perimeterPfii+0x1ea4>
180002930: 6f 00 40 54 	j	0x180002e74 <_Z13lud_perimeterPfii+0x1f00>
180002934: 0b b0 07 00 	vx_join	a5
180002938: 6f 00 40 00 	j	0x18000293c <_Z13lud_perimeterPfii+0x19c8>
18000293c: 93 07 00 00 	li	a5, 0x0
180002940: 6f 00 40 53 	j	0x180002e74 <_Z13lud_perimeterPfii+0x1f00>
180002944: 03 37 84 e8 	ld	a4, -0x178(s0)
180002948: 03 27 07 00 	lw	a4, 0x0(a4)
18000294c: 9b 1c 47 00 	slliw	s9, a4, 0x4
180002950: 13 67 08 01 	ori	a4, a6, 0x10
180002954: 9b 00 08 00 	sext.w	ra, a6
180002958: 83 37 84 e7 	ld	a5, -0x188(s0)
18000295c: bb 07 f7 00 	addw	a5, a4, a5
180002960: 3b 88 97 01 	addw	a6, a5, s9
180002964: 9b 87 08 00 	sext.w	a5, a7
180002968: b3 32 f8 00 	sltu	t0, a6, a5
18000296c: 8b a7 12 00 	vx_split_n	a5, t0
180002970: 63 82 02 04 	beqz	t0, 0x1800029b4 <_Z13lud_perimeterPfii+0x1a40>
180002974: 6f 00 40 00 	j	0x180002978 <_Z13lud_perimeterPfii+0x1a04>
180002978: 93 92 20 00 	slli	t0, ra, 0x2
18000297c: b7 13 00 00 	lui	t2, 0x1
180002980: b3 83 43 00 	add	t2, t2, tp
180002984: 93 83 83 81 	addi	t2, t2, -0x7e8
180002988: b3 82 53 00 	add	t0, t2, t0
18000298c: 87 a7 02 04 	flw	fa5, 0x40(t0)
180002990: 13 18 08 02 	slli	a6, a6, 0x20
180002994: 13 58 e8 01 	srli	a6, a6, 0x1e
180002998: 33 08 05 01 	add	a6, a0, a6
18000299c: 27 20 f8 00 	fsw	fa5, 0x0(a6)
1800029a0: 6f 00 40 01 	j	0x1800029b4 <_Z13lud_perimeterPfii+0x1a40>
1800029a4: 13 f8 1d 00 	andi	a6, s11, 0x1
1800029a8: 8b 27 08 00 	vx_split	a5, a6
1800029ac: e3 1a 08 10 	bnez	a6, 0x1800032c0 <_Z13lud_perimeterPfii+0x234c>
1800029b0: 6f 00 50 12 	j	0x1800032d4 <_Z13lud_perimeterPfii+0x2360>
1800029b4: 0b b0 07 00 	vx_join	a5
1800029b8: 6f 00 40 00 	j	0x1800029bc <_Z13lud_perimeterPfii+0x1a48>
1800029bc: 83 37 04 e7 	ld	a5, -0x190(s0)
1800029c0: bb 07 f7 00 	addw	a5, a4, a5
1800029c4: 3b 88 97 01 	addw	a6, a5, s9
1800029c8: 9b 87 08 00 	sext.w	a5, a7
1800029cc: b3 32 f8 00 	sltu	t0, a6, a5
1800029d0: 8b a7 12 00 	vx_split_n	a5, t0
1800029d4: 63 8a 02 02 	beqz	t0, 0x180002a08 <_Z13lud_perimeterPfii+0x1a94>
1800029d8: 6f 00 40 00 	j	0x1800029dc <_Z13lud_perimeterPfii+0x1a68>
1800029dc: 93 92 20 00 	slli	t0, ra, 0x2
1800029e0: b7 13 00 00 	lui	t2, 0x1
1800029e4: b3 83 43 00 	add	t2, t2, tp
1800029e8: 93 83 83 81 	addi	t2, t2, -0x7e8
1800029ec: b3 82 53 00 	add	t0, t2, t0
1800029f0: 87 a7 02 08 	flw	fa5, 0x80(t0)
1800029f4: 13 18 08 02 	slli	a6, a6, 0x20
1800029f8: 13 58 e8 01 	srli	a6, a6, 0x1e
1800029fc: 33 08 05 01 	add	a6, a0, a6
180002a00: 27 20 f8 00 	fsw	fa5, 0x0(a6)
180002a04: 6f 00 40 00 	j	0x180002a08 <_Z13lud_perimeterPfii+0x1a94>
180002a08: 0b b0 07 00 	vx_join	a5
180002a0c: 6f 00 40 00 	j	0x180002a10 <_Z13lud_perimeterPfii+0x1a9c>
180002a10: bb 07 c7 01 	addw	a5, a4, t3
180002a14: 3b 88 97 01 	addw	a6, a5, s9
180002a18: 9b 87 08 00 	sext.w	a5, a7
180002a1c: b3 32 f8 00 	sltu	t0, a6, a5
180002a20: 8b a7 12 00 	vx_split_n	a5, t0
180002a24: 63 8a 02 02 	beqz	t0, 0x180002a58 <_Z13lud_perimeterPfii+0x1ae4>
180002a28: 6f 00 40 00 	j	0x180002a2c <_Z13lud_perimeterPfii+0x1ab8>
180002a2c: 93 92 20 00 	slli	t0, ra, 0x2
180002a30: b7 13 00 00 	lui	t2, 0x1
180002a34: b3 83 43 00 	add	t2, t2, tp
180002a38: 93 83 83 81 	addi	t2, t2, -0x7e8
180002a3c: b3 82 53 00 	add	t0, t2, t0
180002a40: 87 a7 02 0c 	flw	fa5, 0xc0(t0)
180002a44: 13 18 08 02 	slli	a6, a6, 0x20
180002a48: 13 58 e8 01 	srli	a6, a6, 0x1e
180002a4c: 33 08 05 01 	add	a6, a0, a6
180002a50: 27 20 f8 00 	fsw	fa5, 0x0(a6)
180002a54: 6f 00 40 00 	j	0x180002a58 <_Z13lud_perimeterPfii+0x1ae4>
180002a58: 0b b0 07 00 	vx_join	a5
180002a5c: 6f 00 40 00 	j	0x180002a60 <_Z13lud_perimeterPfii+0x1aec>
180002a60: bb 07 d7 01 	addw	a5, a4, t4
180002a64: 3b 88 97 01 	addw	a6, a5, s9
180002a68: 9b 87 08 00 	sext.w	a5, a7
180002a6c: b3 32 f8 00 	sltu	t0, a6, a5
180002a70: 8b a7 12 00 	vx_split_n	a5, t0
180002a74: 63 8a 02 02 	beqz	t0, 0x180002aa8 <_Z13lud_perimeterPfii+0x1b34>
180002a78: 6f 00 40 00 	j	0x180002a7c <_Z13lud_perimeterPfii+0x1b08>
180002a7c: 93 92 20 00 	slli	t0, ra, 0x2
180002a80: b7 13 00 00 	lui	t2, 0x1
180002a84: b3 83 43 00 	add	t2, t2, tp
180002a88: 93 83 83 81 	addi	t2, t2, -0x7e8
180002a8c: b3 82 53 00 	add	t0, t2, t0
180002a90: 87 a7 02 10 	flw	fa5, 0x100(t0)
180002a94: 13 18 08 02 	slli	a6, a6, 0x20
180002a98: 13 58 e8 01 	srli	a6, a6, 0x1e
180002a9c: 33 08 05 01 	add	a6, a0, a6
180002aa0: 27 20 f8 00 	fsw	fa5, 0x0(a6)
180002aa4: 6f 00 40 00 	j	0x180002aa8 <_Z13lud_perimeterPfii+0x1b34>
180002aa8: 0b b0 07 00 	vx_join	a5
180002aac: 6f 00 40 00 	j	0x180002ab0 <_Z13lud_perimeterPfii+0x1b3c>
180002ab0: bb 07 e7 01 	addw	a5, a4, t5
180002ab4: 3b 88 97 01 	addw	a6, a5, s9
180002ab8: 9b 87 08 00 	sext.w	a5, a7
180002abc: b3 32 f8 00 	sltu	t0, a6, a5
180002ac0: 8b a7 12 00 	vx_split_n	a5, t0
180002ac4: 63 8a 02 02 	beqz	t0, 0x180002af8 <_Z13lud_perimeterPfii+0x1b84>
180002ac8: 6f 00 40 00 	j	0x180002acc <_Z13lud_perimeterPfii+0x1b58>
180002acc: 93 92 20 00 	slli	t0, ra, 0x2
180002ad0: b7 13 00 00 	lui	t2, 0x1
180002ad4: b3 83 43 00 	add	t2, t2, tp
180002ad8: 93 83 83 81 	addi	t2, t2, -0x7e8
180002adc: b3 82 53 00 	add	t0, t2, t0
180002ae0: 87 a7 02 14 	flw	fa5, 0x140(t0)
180002ae4: 13 18 08 02 	slli	a6, a6, 0x20
180002ae8: 13 58 e8 01 	srli	a6, a6, 0x1e
180002aec: 33 08 05 01 	add	a6, a0, a6
180002af0: 27 20 f8 00 	fsw	fa5, 0x0(a6)
180002af4: 6f 00 40 00 	j	0x180002af8 <_Z13lud_perimeterPfii+0x1b84>
180002af8: 0b b0 07 00 	vx_join	a5
180002afc: 6f 00 40 00 	j	0x180002b00 <_Z13lud_perimeterPfii+0x1b8c>
180002b00: bb 07 f7 01 	addw	a5, a4, t6
180002b04: 3b 88 97 01 	addw	a6, a5, s9
180002b08: 9b 87 08 00 	sext.w	a5, a7
180002b0c: b3 32 f8 00 	sltu	t0, a6, a5
180002b10: 8b a7 12 00 	vx_split_n	a5, t0
180002b14: 63 8a 02 02 	beqz	t0, 0x180002b48 <_Z13lud_perimeterPfii+0x1bd4>
180002b18: 6f 00 40 00 	j	0x180002b1c <_Z13lud_perimeterPfii+0x1ba8>
180002b1c: 93 92 20 00 	slli	t0, ra, 0x2
180002b20: b7 13 00 00 	lui	t2, 0x1
180002b24: b3 83 43 00 	add	t2, t2, tp
180002b28: 93 83 83 81 	addi	t2, t2, -0x7e8
180002b2c: b3 82 53 00 	add	t0, t2, t0
180002b30: 87 a7 02 18 	flw	fa5, 0x180(t0)
180002b34: 13 18 08 02 	slli	a6, a6, 0x20
180002b38: 13 58 e8 01 	srli	a6, a6, 0x1e
180002b3c: 33 08 05 01 	add	a6, a0, a6
180002b40: 27 20 f8 00 	fsw	fa5, 0x0(a6)
180002b44: 6f 00 40 00 	j	0x180002b48 <_Z13lud_perimeterPfii+0x1bd4>
180002b48: 0b b0 07 00 	vx_join	a5
180002b4c: 6f 00 40 00 	j	0x180002b50 <_Z13lud_perimeterPfii+0x1bdc>
180002b50: bb 07 97 00 	addw	a5, a4, s1
180002b54: 3b 88 97 01 	addw	a6, a5, s9
180002b58: 9b 87 08 00 	sext.w	a5, a7
180002b5c: b3 32 f8 00 	sltu	t0, a6, a5
180002b60: 8b a7 12 00 	vx_split_n	a5, t0
180002b64: 63 8a 02 02 	beqz	t0, 0x180002b98 <_Z13lud_perimeterPfii+0x1c24>
180002b68: 6f 00 40 00 	j	0x180002b6c <_Z13lud_perimeterPfii+0x1bf8>
180002b6c: 93 92 20 00 	slli	t0, ra, 0x2
180002b70: b7 13 00 00 	lui	t2, 0x1
180002b74: b3 83 43 00 	add	t2, t2, tp
180002b78: 93 83 83 81 	addi	t2, t2, -0x7e8
180002b7c: b3 82 53 00 	add	t0, t2, t0
180002b80: 87 a7 02 1c 	flw	fa5, 0x1c0(t0)
180002b84: 13 18 08 02 	slli	a6, a6, 0x20
180002b88: 13 58 e8 01 	srli	a6, a6, 0x1e
180002b8c: 33 08 05 01 	add	a6, a0, a6
180002b90: 27 20 f8 00 	fsw	fa5, 0x0(a6)
180002b94: 6f 00 40 00 	j	0x180002b98 <_Z13lud_perimeterPfii+0x1c24>
180002b98: 0b b0 07 00 	vx_join	a5
180002b9c: 6f 00 40 00 	j	0x180002ba0 <_Z13lud_perimeterPfii+0x1c2c>
180002ba0: bb 07 27 01 	addw	a5, a4, s2
180002ba4: 3b 88 97 01 	addw	a6, a5, s9
180002ba8: 9b 87 08 00 	sext.w	a5, a7
180002bac: b3 32 f8 00 	sltu	t0, a6, a5
180002bb0: 8b a7 12 00 	vx_split_n	a5, t0
180002bb4: 63 8a 02 02 	beqz	t0, 0x180002be8 <_Z13lud_perimeterPfii+0x1c74>
180002bb8: 6f 00 40 00 	j	0x180002bbc <_Z13lud_perimeterPfii+0x1c48>
180002bbc: 93 92 20 00 	slli	t0, ra, 0x2
180002bc0: b7 13 00 00 	lui	t2, 0x1
180002bc4: b3 83 43 00 	add	t2, t2, tp
180002bc8: 93 83 83 81 	addi	t2, t2, -0x7e8
180002bcc: b3 82 53 00 	add	t0, t2, t0
180002bd0: 87 a7 02 20 	flw	fa5, 0x200(t0)
180002bd4: 13 18 08 02 	slli	a6, a6, 0x20
180002bd8: 13 58 e8 01 	srli	a6, a6, 0x1e
180002bdc: 33 08 05 01 	add	a6, a0, a6
180002be0: 27 20 f8 00 	fsw	fa5, 0x0(a6)
180002be4: 6f 00 40 00 	j	0x180002be8 <_Z13lud_perimeterPfii+0x1c74>
180002be8: 0b b0 07 00 	vx_join	a5
180002bec: 6f 00 40 00 	j	0x180002bf0 <_Z13lud_perimeterPfii+0x1c7c>
180002bf0: bb 07 37 01 	addw	a5, a4, s3
180002bf4: 3b 88 97 01 	addw	a6, a5, s9
180002bf8: 9b 87 08 00 	sext.w	a5, a7
180002bfc: b3 32 f8 00 	sltu	t0, a6, a5
180002c00: 8b a7 12 00 	vx_split_n	a5, t0
180002c04: 63 8a 02 02 	beqz	t0, 0x180002c38 <_Z13lud_perimeterPfii+0x1cc4>
180002c08: 6f 00 40 00 	j	0x180002c0c <_Z13lud_perimeterPfii+0x1c98>
180002c0c: 93 92 20 00 	slli	t0, ra, 0x2
180002c10: b7 13 00 00 	lui	t2, 0x1
180002c14: b3 83 43 00 	add	t2, t2, tp
180002c18: 93 83 83 81 	addi	t2, t2, -0x7e8
180002c1c: b3 82 53 00 	add	t0, t2, t0
180002c20: 87 a7 02 24 	flw	fa5, 0x240(t0)
180002c24: 13 18 08 02 	slli	a6, a6, 0x20
180002c28: 13 58 e8 01 	srli	a6, a6, 0x1e
180002c2c: 33 08 05 01 	add	a6, a0, a6
180002c30: 27 20 f8 00 	fsw	fa5, 0x0(a6)
180002c34: 6f 00 40 00 	j	0x180002c38 <_Z13lud_perimeterPfii+0x1cc4>
180002c38: 0b b0 07 00 	vx_join	a5
180002c3c: 6f 00 40 00 	j	0x180002c40 <_Z13lud_perimeterPfii+0x1ccc>
180002c40: bb 07 47 01 	addw	a5, a4, s4
180002c44: 3b 88 97 01 	addw	a6, a5, s9
180002c48: 9b 87 08 00 	sext.w	a5, a7
180002c4c: b3 32 f8 00 	sltu	t0, a6, a5
180002c50: 8b a7 12 00 	vx_split_n	a5, t0
180002c54: 63 8a 02 02 	beqz	t0, 0x180002c88 <_Z13lud_perimeterPfii+0x1d14>
180002c58: 6f 00 40 00 	j	0x180002c5c <_Z13lud_perimeterPfii+0x1ce8>
180002c5c: 93 92 20 00 	slli	t0, ra, 0x2
180002c60: b7 13 00 00 	lui	t2, 0x1
180002c64: b3 83 43 00 	add	t2, t2, tp
180002c68: 93 83 83 81 	addi	t2, t2, -0x7e8
180002c6c: b3 82 53 00 	add	t0, t2, t0
180002c70: 87 a7 02 28 	flw	fa5, 0x280(t0)
180002c74: 13 18 08 02 	slli	a6, a6, 0x20
180002c78: 13 58 e8 01 	srli	a6, a6, 0x1e
180002c7c: 33 08 05 01 	add	a6, a0, a6
180002c80: 27 20 f8 00 	fsw	fa5, 0x0(a6)
180002c84: 6f 00 40 00 	j	0x180002c88 <_Z13lud_perimeterPfii+0x1d14>
180002c88: 0b b0 07 00 	vx_join	a5
180002c8c: 6f 00 40 00 	j	0x180002c90 <_Z13lud_perimeterPfii+0x1d1c>
180002c90: bb 07 57 01 	addw	a5, a4, s5
180002c94: 3b 88 97 01 	addw	a6, a5, s9
180002c98: 9b 87 08 00 	sext.w	a5, a7
180002c9c: b3 32 f8 00 	sltu	t0, a6, a5
180002ca0: 8b a7 12 00 	vx_split_n	a5, t0
180002ca4: 63 8a 02 02 	beqz	t0, 0x180002cd8 <_Z13lud_perimeterPfii+0x1d64>
180002ca8: 6f 00 40 00 	j	0x180002cac <_Z13lud_perimeterPfii+0x1d38>
180002cac: 93 92 20 00 	slli	t0, ra, 0x2
180002cb0: b7 13 00 00 	lui	t2, 0x1
180002cb4: b3 83 43 00 	add	t2, t2, tp
180002cb8: 93 83 83 81 	addi	t2, t2, -0x7e8
180002cbc: b3 82 53 00 	add	t0, t2, t0
180002cc0: 87 a7 02 2c 	flw	fa5, 0x2c0(t0)
180002cc4: 13 18 08 02 	slli	a6, a6, 0x20
180002cc8: 13 58 e8 01 	srli	a6, a6, 0x1e
180002ccc: 33 08 05 01 	add	a6, a0, a6
180002cd0: 27 20 f8 00 	fsw	fa5, 0x0(a6)
180002cd4: 6f 00 40 00 	j	0x180002cd8 <_Z13lud_perimeterPfii+0x1d64>
180002cd8: 0b b0 07 00 	vx_join	a5
180002cdc: 6f 00 40 00 	j	0x180002ce0 <_Z13lud_perimeterPfii+0x1d6c>
180002ce0: bb 07 67 01 	addw	a5, a4, s6
180002ce4: 3b 88 97 01 	addw	a6, a5, s9
180002ce8: 9b 87 08 00 	sext.w	a5, a7
180002cec: b3 32 f8 00 	sltu	t0, a6, a5
180002cf0: 8b a7 12 00 	vx_split_n	a5, t0
180002cf4: 63 8a 02 02 	beqz	t0, 0x180002d28 <_Z13lud_perimeterPfii+0x1db4>
180002cf8: 6f 00 40 00 	j	0x180002cfc <_Z13lud_perimeterPfii+0x1d88>
180002cfc: 93 92 20 00 	slli	t0, ra, 0x2
180002d00: b7 13 00 00 	lui	t2, 0x1
180002d04: b3 83 43 00 	add	t2, t2, tp
180002d08: 93 83 83 81 	addi	t2, t2, -0x7e8
180002d0c: b3 82 53 00 	add	t0, t2, t0
180002d10: 87 a7 02 30 	flw	fa5, 0x300(t0)
180002d14: 13 18 08 02 	slli	a6, a6, 0x20
180002d18: 13 58 e8 01 	srli	a6, a6, 0x1e
180002d1c: 33 08 05 01 	add	a6, a0, a6
180002d20: 27 20 f8 00 	fsw	fa5, 0x0(a6)
180002d24: 6f 00 40 00 	j	0x180002d28 <_Z13lud_perimeterPfii+0x1db4>
180002d28: 0b b0 07 00 	vx_join	a5
180002d2c: 6f 00 40 00 	j	0x180002d30 <_Z13lud_perimeterPfii+0x1dbc>
180002d30: bb 07 77 01 	addw	a5, a4, s7
180002d34: 3b 88 97 01 	addw	a6, a5, s9
180002d38: 9b 87 08 00 	sext.w	a5, a7
180002d3c: b3 32 f8 00 	sltu	t0, a6, a5
180002d40: 8b a7 12 00 	vx_split_n	a5, t0
180002d44: 63 8a 02 02 	beqz	t0, 0x180002d78 <_Z13lud_perimeterPfii+0x1e04>
180002d48: 6f 00 40 00 	j	0x180002d4c <_Z13lud_perimeterPfii+0x1dd8>
180002d4c: 93 92 20 00 	slli	t0, ra, 0x2
180002d50: b7 13 00 00 	lui	t2, 0x1
180002d54: b3 83 43 00 	add	t2, t2, tp
180002d58: 93 83 83 81 	addi	t2, t2, -0x7e8
180002d5c: b3 82 53 00 	add	t0, t2, t0
180002d60: 87 a7 02 34 	flw	fa5, 0x340(t0)
180002d64: 13 18 08 02 	slli	a6, a6, 0x20
180002d68: 13 58 e8 01 	srli	a6, a6, 0x1e
180002d6c: 33 08 05 01 	add	a6, a0, a6
180002d70: 27 20 f8 00 	fsw	fa5, 0x0(a6)
180002d74: 6f 00 40 00 	j	0x180002d78 <_Z13lud_perimeterPfii+0x1e04>
180002d78: 0b b0 07 00 	vx_join	a5
180002d7c: 6f 00 40 00 	j	0x180002d80 <_Z13lud_perimeterPfii+0x1e0c>
180002d80: bb 07 87 01 	addw	a5, a4, s8
180002d84: 3b 88 97 01 	addw	a6, a5, s9
180002d88: 9b 87 08 00 	sext.w	a5, a7
180002d8c: b3 32 f8 00 	sltu	t0, a6, a5
180002d90: 8b a7 12 00 	vx_split_n	a5, t0
180002d94: 63 8a 02 02 	beqz	t0, 0x180002dc8 <_Z13lud_perimeterPfii+0x1e54>
180002d98: 6f 00 40 00 	j	0x180002d9c <_Z13lud_perimeterPfii+0x1e28>
180002d9c: 93 92 20 00 	slli	t0, ra, 0x2
180002da0: b7 13 00 00 	lui	t2, 0x1
180002da4: b3 83 43 00 	add	t2, t2, tp
180002da8: 93 83 83 81 	addi	t2, t2, -0x7e8
180002dac: b3 82 53 00 	add	t0, t2, t0
180002db0: 87 a7 02 38 	flw	fa5, 0x380(t0)
180002db4: 13 18 08 02 	slli	a6, a6, 0x20
180002db8: 13 58 e8 01 	srli	a6, a6, 0x1e
180002dbc: 33 08 05 01 	add	a6, a0, a6
180002dc0: 27 20 f8 00 	fsw	fa5, 0x0(a6)
180002dc4: 6f 00 40 00 	j	0x180002dc8 <_Z13lud_perimeterPfii+0x1e54>
180002dc8: 0b b0 07 00 	vx_join	a5
180002dcc: 6f 00 40 00 	j	0x180002dd0 <_Z13lud_perimeterPfii+0x1e5c>
180002dd0: 83 37 84 e6 	ld	a5, -0x198(s0)
180002dd4: 3b 07 f7 00 	addw	a4, a4, a5
180002dd8: bb 07 97 01 	addw	a5, a4, s9
180002ddc: 1b 87 08 00 	sext.w	a4, a7
180002de0: b3 b2 e7 00 	sltu	t0, a5, a4
180002de4: 0b a8 12 00 	vx_split_n	a6, t0
180002de8: 63 86 02 4c 	beqz	t0, 0x1800032b4 <_Z13lud_perimeterPfii+0x2340>
180002dec: 6f 00 40 00 	j	0x180002df0 <_Z13lud_perimeterPfii+0x1e7c>
180002df0: 93 90 20 00 	slli	ra, ra, 0x2
180002df4: 37 17 00 00 	lui	a4, 0x1
180002df8: 33 07 47 00 	add	a4, a4, tp
180002dfc: 13 07 87 81 	addi	a4, a4, -0x7e8
180002e00: 33 07 17 00 	add	a4, a4, ra
180002e04: 93 0c 07 3c 	addi	s9, a4, 0x3c0
180002e08: 13 97 07 02 	slli	a4, a5, 0x20
180002e0c: 13 57 07 02 	srli	a4, a4, 0x20
180002e10: 93 0d 10 00 	li	s11, 0x1
180002e14: 6f 00 00 4a 	j	0x1800032b4 <_Z13lud_perimeterPfii+0x2340>
180002e18: 9b 00 08 ff 	addiw	ra, a6, -0x10
180002e1c: 03 37 84 e8 	ld	a4, -0x178(s0)
180002e20: 03 27 07 00 	lw	a4, 0x0(a4)
180002e24: 1b 17 47 00 	slliw	a4, a4, 0x4
180002e28: 83 37 04 e8 	ld	a5, -0x180(s0)
180002e2c: 3b 87 e7 00 	addw	a4, a5, a4
180002e30: 3b 07 b7 02 	mulw	a4, a4, a1
180002e34: 3b 07 c7 00 	addw	a4, a4, a2
180002e38: b3 0c 17 00 	add	s9, a4, ra
180002e3c: b3 a2 1c 01 	slt	t0, s9, a7
180002e40: 8b a7 12 00 	vx_split_n	a5, t0
180002e44: 63 8e 02 02 	beqz	t0, 0x180002e80 <_Z13lud_perimeterPfii+0x1f0c>
180002e48: 6f 00 40 00 	j	0x180002e4c <_Z13lud_perimeterPfii+0x1ed8>
180002e4c: 93 92 20 00 	slli	t0, ra, 0x2
180002e50: b7 13 00 00 	lui	t2, 0x1
180002e54: b3 83 43 00 	add	t2, t2, tp
180002e58: 93 83 83 c1 	addi	t2, t2, -0x3e8
180002e5c: b3 82 53 00 	add	t0, t2, t0
180002e60: 87 a7 02 00 	flw	fa5, 0x0(t0)
180002e64: 93 9c 2c 00 	slli	s9, s9, 0x2
180002e68: b3 0c 95 01 	add	s9, a0, s9
180002e6c: 27 a0 fc 00 	fsw	fa5, 0x0(s9)
180002e70: 6f 00 00 01 	j	0x180002e80 <_Z13lud_perimeterPfii+0x1f0c>
180002e74: 93 f7 17 00 	andi	a5, a5, 0x1
180002e78: e3 96 07 ac 	bnez	a5, 0x180002944 <_Z13lud_perimeterPfii+0x19d0>
180002e7c: 6f f0 9f b2 	j	0x1800029a4 <_Z13lud_perimeterPfii+0x1a30>
180002e80: 0b b0 07 00 	vx_join	a5
180002e84: 6f 00 40 00 	j	0x180002e88 <_Z13lud_perimeterPfii+0x1f14>
180002e88: 33 07 67 00 	add	a4, a4, t1
180002e8c: b3 0c 17 00 	add	s9, a4, ra
180002e90: b3 a2 1c 01 	slt	t0, s9, a7
180002e94: 8b a7 12 00 	vx_split_n	a5, t0
180002e98: 63 88 02 02 	beqz	t0, 0x180002ec8 <_Z13lud_perimeterPfii+0x1f54>
180002e9c: 6f 00 40 00 	j	0x180002ea0 <_Z13lud_perimeterPfii+0x1f2c>
180002ea0: 93 92 20 00 	slli	t0, ra, 0x2
180002ea4: b7 13 00 00 	lui	t2, 0x1
180002ea8: b3 83 43 00 	add	t2, t2, tp
180002eac: 93 83 83 c1 	addi	t2, t2, -0x3e8
180002eb0: b3 82 53 00 	add	t0, t2, t0
180002eb4: 87 a7 02 04 	flw	fa5, 0x40(t0)
180002eb8: 93 9c 2c 00 	slli	s9, s9, 0x2
180002ebc: b3 0c 95 01 	add	s9, a0, s9
180002ec0: 27 a0 fc 00 	fsw	fa5, 0x0(s9)
180002ec4: 6f 00 40 00 	j	0x180002ec8 <_Z13lud_perimeterPfii+0x1f54>
180002ec8: 0b b0 07 00 	vx_join	a5
180002ecc: 6f 00 40 00 	j	0x180002ed0 <_Z13lud_perimeterPfii+0x1f5c>
180002ed0: 33 07 67 00 	add	a4, a4, t1
180002ed4: b3 0c 17 00 	add	s9, a4, ra
180002ed8: b3 a2 1c 01 	slt	t0, s9, a7
180002edc: 8b a7 12 00 	vx_split_n	a5, t0
180002ee0: 63 88 02 02 	beqz	t0, 0x180002f10 <_Z13lud_perimeterPfii+0x1f9c>
180002ee4: 6f 00 40 00 	j	0x180002ee8 <_Z13lud_perimeterPfii+0x1f74>
180002ee8: 93 92 20 00 	slli	t0, ra, 0x2
180002eec: b7 13 00 00 	lui	t2, 0x1
180002ef0: b3 83 43 00 	add	t2, t2, tp
180002ef4: 93 83 83 c1 	addi	t2, t2, -0x3e8
180002ef8: b3 82 53 00 	add	t0, t2, t0
180002efc: 87 a7 02 08 	flw	fa5, 0x80(t0)
180002f00: 93 9c 2c 00 	slli	s9, s9, 0x2
180002f04: b3 0c 95 01 	add	s9, a0, s9
180002f08: 27 a0 fc 00 	fsw	fa5, 0x0(s9)
180002f0c: 6f 00 40 00 	j	0x180002f10 <_Z13lud_perimeterPfii+0x1f9c>
180002f10: 0b b0 07 00 	vx_join	a5
180002f14: 6f 00 40 00 	j	0x180002f18 <_Z13lud_perimeterPfii+0x1fa4>
180002f18: 33 07 67 00 	add	a4, a4, t1
180002f1c: b3 0c 17 00 	add	s9, a4, ra
180002f20: b3 a2 1c 01 	slt	t0, s9, a7
180002f24: 8b a7 12 00 	vx_split_n	a5, t0
180002f28: 63 88 02 02 	beqz	t0, 0x180002f58 <_Z13lud_perimeterPfii+0x1fe4>
180002f2c: 6f 00 40 00 	j	0x180002f30 <_Z13lud_perimeterPfii+0x1fbc>
180002f30: 93 92 20 00 	slli	t0, ra, 0x2
180002f34: b7 13 00 00 	lui	t2, 0x1
180002f38: b3 83 43 00 	add	t2, t2, tp
180002f3c: 93 83 83 c1 	addi	t2, t2, -0x3e8
180002f40: b3 82 53 00 	add	t0, t2, t0
180002f44: 87 a7 02 0c 	flw	fa5, 0xc0(t0)
180002f48: 93 9c 2c 00 	slli	s9, s9, 0x2
180002f4c: b3 0c 95 01 	add	s9, a0, s9
180002f50: 27 a0 fc 00 	fsw	fa5, 0x0(s9)
180002f54: 6f 00 40 00 	j	0x180002f58 <_Z13lud_perimeterPfii+0x1fe4>
180002f58: 0b b0 07 00 	vx_join	a5
180002f5c: 6f 00 40 00 	j	0x180002f60 <_Z13lud_perimeterPfii+0x1fec>
180002f60: 33 07 67 00 	add	a4, a4, t1
180002f64: b3 0c 17 00 	add	s9, a4, ra
180002f68: b3 a2 1c 01 	slt	t0, s9, a7
180002f6c: 8b a7 12 00 	vx_split_n	a5, t0
180002f70: 63 88 02 02 	beqz	t0, 0x180002fa0 <_Z13lud_perimeterPfii+0x202c>
180002f74: 6f 00 40 00 	j	0x180002f78 <_Z13lud_perimeterPfii+0x2004>
180002f78: 93 92 20 00 	slli	t0, ra, 0x2
180002f7c: b7 13 00 00 	lui	t2, 0x1
180002f80: b3 83 43 00 	add	t2, t2, tp
180002f84: 93 83 83 c1 	addi	t2, t2, -0x3e8
180002f88: b3 82 53 00 	add	t0, t2, t0
180002f8c: 87 a7 02 10 	flw	fa5, 0x100(t0)
180002f90: 93 9c 2c 00 	slli	s9, s9, 0x2
180002f94: b3 0c 95 01 	add	s9, a0, s9
180002f98: 27 a0 fc 00 	fsw	fa5, 0x0(s9)
180002f9c: 6f 00 40 00 	j	0x180002fa0 <_Z13lud_perimeterPfii+0x202c>
180002fa0: 0b b0 07 00 	vx_join	a5
180002fa4: 6f 00 40 00 	j	0x180002fa8 <_Z13lud_perimeterPfii+0x2034>
180002fa8: 33 07 67 00 	add	a4, a4, t1
180002fac: b3 0c 17 00 	add	s9, a4, ra
180002fb0: b3 a2 1c 01 	slt	t0, s9, a7
180002fb4: 8b a7 12 00 	vx_split_n	a5, t0
180002fb8: 63 88 02 02 	beqz	t0, 0x180002fe8 <_Z13lud_perimeterPfii+0x2074>
180002fbc: 6f 00 40 00 	j	0x180002fc0 <_Z13lud_perimeterPfii+0x204c>
180002fc0: 93 92 20 00 	slli	t0, ra, 0x2
180002fc4: b7 13 00 00 	lui	t2, 0x1
180002fc8: b3 83 43 00 	add	t2, t2, tp
180002fcc: 93 83 83 c1 	addi	t2, t2, -0x3e8
180002fd0: b3 82 53 00 	add	t0, t2, t0
180002fd4: 87 a7 02 14 	flw	fa5, 0x140(t0)
180002fd8: 93 9c 2c 00 	slli	s9, s9, 0x2
180002fdc: b3 0c 95 01 	add	s9, a0, s9
180002fe0: 27 a0 fc 00 	fsw	fa5, 0x0(s9)
180002fe4: 6f 00 40 00 	j	0x180002fe8 <_Z13lud_perimeterPfii+0x2074>
180002fe8: 0b b0 07 00 	vx_join	a5
180002fec: 6f 00 40 00 	j	0x180002ff0 <_Z13lud_perimeterPfii+0x207c>
180002ff0: 33 07 67 00 	add	a4, a4, t1
180002ff4: b3 0c 17 00 	add	s9, a4, ra
180002ff8: b3 a2 1c 01 	slt	t0, s9, a7
180002ffc: 8b a7 12 00 	vx_split_n	a5, t0
180003000: 63 88 02 02 	beqz	t0, 0x180003030 <_Z13lud_perimeterPfii+0x20bc>
180003004: 6f 00 40 00 	j	0x180003008 <_Z13lud_perimeterPfii+0x2094>
180003008: 93 92 20 00 	slli	t0, ra, 0x2
18000300c: b7 13 00 00 	lui	t2, 0x1
180003010: b3 83 43 00 	add	t2, t2, tp
180003014: 93 83 83 c1 	addi	t2, t2, -0x3e8
180003018: b3 82 53 00 	add	t0, t2, t0
18000301c: 87 a7 02 18 	flw	fa5, 0x180(t0)
180003020: 93 9c 2c 00 	slli	s9, s9, 0x2
180003024: b3 0c 95 01 	add	s9, a0, s9
180003028: 27 a0 fc 00 	fsw	fa5, 0x0(s9)
18000302c: 6f 00 40 00 	j	0x180003030 <_Z13lud_perimeterPfii+0x20bc>
180003030: 0b b0 07 00 	vx_join	a5
180003034: 6f 00 40 00 	j	0x180003038 <_Z13lud_perimeterPfii+0x20c4>
180003038: 33 07 67 00 	add	a4, a4, t1
18000303c: b3 0c 17 00 	add	s9, a4, ra
180003040: b3 a2 1c 01 	slt	t0, s9, a7
180003044: 8b a7 12 00 	vx_split_n	a5, t0
180003048: 63 88 02 02 	beqz	t0, 0x180003078 <_Z13lud_perimeterPfii+0x2104>
18000304c: 6f 00 40 00 	j	0x180003050 <_Z13lud_perimeterPfii+0x20dc>
180003050: 93 92 20 00 	slli	t0, ra, 0x2
180003054: b7 13 00 00 	lui	t2, 0x1
180003058: b3 83 43 00 	add	t2, t2, tp
18000305c: 93 83 83 c1 	addi	t2, t2, -0x3e8
180003060: b3 82 53 00 	add	t0, t2, t0
180003064: 87 a7 02 1c 	flw	fa5, 0x1c0(t0)
180003068: 93 9c 2c 00 	slli	s9, s9, 0x2
18000306c: b3 0c 95 01 	add	s9, a0, s9
180003070: 27 a0 fc 00 	fsw	fa5, 0x0(s9)
180003074: 6f 00 40 00 	j	0x180003078 <_Z13lud_perimeterPfii+0x2104>
180003078: 0b b0 07 00 	vx_join	a5
18000307c: 6f 00 40 00 	j	0x180003080 <_Z13lud_perimeterPfii+0x210c>
180003080: 33 07 67 00 	add	a4, a4, t1
180003084: b3 0c 17 00 	add	s9, a4, ra
180003088: b3 a2 1c 01 	slt	t0, s9, a7
18000308c: 8b a7 12 00 	vx_split_n	a5, t0
180003090: 63 88 02 02 	beqz	t0, 0x1800030c0 <_Z13lud_perimeterPfii+0x214c>
180003094: 6f 00 40 00 	j	0x180003098 <_Z13lud_perimeterPfii+0x2124>
180003098: 93 92 20 00 	slli	t0, ra, 0x2
18000309c: b7 13 00 00 	lui	t2, 0x1
1800030a0: b3 83 43 00 	add	t2, t2, tp
1800030a4: 93 83 83 c1 	addi	t2, t2, -0x3e8
1800030a8: b3 82 53 00 	add	t0, t2, t0
1800030ac: 87 a7 02 20 	flw	fa5, 0x200(t0)
1800030b0: 93 9c 2c 00 	slli	s9, s9, 0x2
1800030b4: b3 0c 95 01 	add	s9, a0, s9
1800030b8: 27 a0 fc 00 	fsw	fa5, 0x0(s9)
1800030bc: 6f 00 40 00 	j	0x1800030c0 <_Z13lud_perimeterPfii+0x214c>
1800030c0: 0b b0 07 00 	vx_join	a5
1800030c4: 6f 00 40 00 	j	0x1800030c8 <_Z13lud_perimeterPfii+0x2154>
1800030c8: 33 07 67 00 	add	a4, a4, t1
1800030cc: b3 0c 17 00 	add	s9, a4, ra
1800030d0: b3 a2 1c 01 	slt	t0, s9, a7
1800030d4: 8b a7 12 00 	vx_split_n	a5, t0
1800030d8: 63 88 02 02 	beqz	t0, 0x180003108 <_Z13lud_perimeterPfii+0x2194>
1800030dc: 6f 00 40 00 	j	0x1800030e0 <_Z13lud_perimeterPfii+0x216c>
1800030e0: 93 92 20 00 	slli	t0, ra, 0x2
1800030e4: b7 13 00 00 	lui	t2, 0x1
1800030e8: b3 83 43 00 	add	t2, t2, tp
1800030ec: 93 83 83 c1 	addi	t2, t2, -0x3e8
1800030f0: b3 82 53 00 	add	t0, t2, t0
1800030f4: 87 a7 02 24 	flw	fa5, 0x240(t0)
1800030f8: 93 9c 2c 00 	slli	s9, s9, 0x2
1800030fc: b3 0c 95 01 	add	s9, a0, s9
180003100: 27 a0 fc 00 	fsw	fa5, 0x0(s9)
180003104: 6f 00 40 00 	j	0x180003108 <_Z13lud_perimeterPfii+0x2194>
180003108: 0b b0 07 00 	vx_join	a5
18000310c: 6f 00 40 00 	j	0x180003110 <_Z13lud_perimeterPfii+0x219c>
180003110: 33 07 67 00 	add	a4, a4, t1
180003114: b3 0c 17 00 	add	s9, a4, ra
180003118: b3 a2 1c 01 	slt	t0, s9, a7
18000311c: 8b a7 12 00 	vx_split_n	a5, t0
180003120: 63 88 02 02 	beqz	t0, 0x180003150 <_Z13lud_perimeterPfii+0x21dc>
180003124: 6f 00 40 00 	j	0x180003128 <_Z13lud_perimeterPfii+0x21b4>
180003128: 93 92 20 00 	slli	t0, ra, 0x2
18000312c: b7 13 00 00 	lui	t2, 0x1
180003130: b3 83 43 00 	add	t2, t2, tp
180003134: 93 83 83 c1 	addi	t2, t2, -0x3e8
180003138: b3 82 53 00 	add	t0, t2, t0
18000313c: 87 a7 02 28 	flw	fa5, 0x280(t0)
180003140: 93 9c 2c 00 	slli	s9, s9, 0x2
180003144: b3 0c 95 01 	add	s9, a0, s9
180003148: 27 a0 fc 00 	fsw	fa5, 0x0(s9)
18000314c: 6f 00 40 00 	j	0x180003150 <_Z13lud_perimeterPfii+0x21dc>
180003150: 0b b0 07 00 	vx_join	a5
180003154: 6f 00 40 00 	j	0x180003158 <_Z13lud_perimeterPfii+0x21e4>
180003158: 33 07 67 00 	add	a4, a4, t1
18000315c: b3 0c 17 00 	add	s9, a4, ra
180003160: b3 a2 1c 01 	slt	t0, s9, a7
180003164: 8b a7 12 00 	vx_split_n	a5, t0
180003168: 63 88 02 02 	beqz	t0, 0x180003198 <_Z13lud_perimeterPfii+0x2224>
18000316c: 6f 00 40 00 	j	0x180003170 <_Z13lud_perimeterPfii+0x21fc>
180003170: 93 92 20 00 	slli	t0, ra, 0x2
180003174: b7 13 00 00 	lui	t2, 0x1
180003178: b3 83 43 00 	add	t2, t2, tp
18000317c: 93 83 83 c1 	addi	t2, t2, -0x3e8
180003180: b3 82 53 00 	add	t0, t2, t0
180003184: 87 a7 02 2c 	flw	fa5, 0x2c0(t0)
180003188: 93 9c 2c 00 	slli	s9, s9, 0x2
18000318c: b3 0c 95 01 	add	s9, a0, s9
180003190: 27 a0 fc 00 	fsw	fa5, 0x0(s9)
180003194: 6f 00 40 00 	j	0x180003198 <_Z13lud_perimeterPfii+0x2224>
180003198: 0b b0 07 00 	vx_join	a5
18000319c: 6f 00 40 00 	j	0x1800031a0 <_Z13lud_perimeterPfii+0x222c>
1800031a0: 33 07 67 00 	add	a4, a4, t1
1800031a4: b3 0c 17 00 	add	s9, a4, ra
1800031a8: b3 a2 1c 01 	slt	t0, s9, a7
1800031ac: 8b a7 12 00 	vx_split_n	a5, t0
1800031b0: 63 88 02 02 	beqz	t0, 0x1800031e0 <_Z13lud_perimeterPfii+0x226c>
1800031b4: 6f 00 40 00 	j	0x1800031b8 <_Z13lud_perimeterPfii+0x2244>
1800031b8: 93 92 20 00 	slli	t0, ra, 0x2
1800031bc: b7 13 00 00 	lui	t2, 0x1
1800031c0: b3 83 43 00 	add	t2, t2, tp
1800031c4: 93 83 83 c1 	addi	t2, t2, -0x3e8
1800031c8: b3 82 53 00 	add	t0, t2, t0
1800031cc: 87 a7 02 30 	flw	fa5, 0x300(t0)
1800031d0: 93 9c 2c 00 	slli	s9, s9, 0x2
1800031d4: b3 0c 95 01 	add	s9, a0, s9
1800031d8: 27 a0 fc 00 	fsw	fa5, 0x0(s9)
1800031dc: 6f 00 40 00 	j	0x1800031e0 <_Z13lud_perimeterPfii+0x226c>
1800031e0: 0b b0 07 00 	vx_join	a5
1800031e4: 6f 00 40 00 	j	0x1800031e8 <_Z13lud_perimeterPfii+0x2274>
1800031e8: 33 07 67 00 	add	a4, a4, t1
1800031ec: b3 0c 17 00 	add	s9, a4, ra
1800031f0: b3 a2 1c 01 	slt	t0, s9, a7
1800031f4: 8b a7 12 00 	vx_split_n	a5, t0
1800031f8: 63 88 02 02 	beqz	t0, 0x180003228 <_Z13lud_perimeterPfii+0x22b4>
1800031fc: 6f 00 40 00 	j	0x180003200 <_Z13lud_perimeterPfii+0x228c>
180003200: 93 92 20 00 	slli	t0, ra, 0x2
180003204: b7 13 00 00 	lui	t2, 0x1
180003208: b3 83 43 00 	add	t2, t2, tp
18000320c: 93 83 83 c1 	addi	t2, t2, -0x3e8
180003210: b3 82 53 00 	add	t0, t2, t0
180003214: 87 a7 02 34 	flw	fa5, 0x340(t0)
180003218: 93 9c 2c 00 	slli	s9, s9, 0x2
18000321c: b3 0c 95 01 	add	s9, a0, s9
180003220: 27 a0 fc 00 	fsw	fa5, 0x0(s9)
180003224: 6f 00 40 00 	j	0x180003228 <_Z13lud_perimeterPfii+0x22b4>
180003228: 0b b0 07 00 	vx_join	a5
18000322c: 6f 00 40 00 	j	0x180003230 <_Z13lud_perimeterPfii+0x22bc>
180003230: 33 07 67 00 	add	a4, a4, t1
180003234: b3 0c 17 00 	add	s9, a4, ra
180003238: b3 a2 1c 01 	slt	t0, s9, a7
18000323c: 8b a7 12 00 	vx_split_n	a5, t0
180003240: 63 88 02 02 	beqz	t0, 0x180003270 <_Z13lud_perimeterPfii+0x22fc>
180003244: 6f 00 40 00 	j	0x180003248 <_Z13lud_perimeterPfii+0x22d4>
180003248: 93 92 20 00 	slli	t0, ra, 0x2
18000324c: b7 13 00 00 	lui	t2, 0x1
180003250: b3 83 43 00 	add	t2, t2, tp
180003254: 93 83 83 c1 	addi	t2, t2, -0x3e8
180003258: b3 82 53 00 	add	t0, t2, t0
18000325c: 87 a7 02 38 	flw	fa5, 0x380(t0)
180003260: 93 9c 2c 00 	slli	s9, s9, 0x2
180003264: b3 0c 95 01 	add	s9, a0, s9
180003268: 27 a0 fc 00 	fsw	fa5, 0x0(s9)
18000326c: 6f 00 40 00 	j	0x180003270 <_Z13lud_perimeterPfii+0x22fc>
180003270: 0b b0 07 00 	vx_join	a5
180003274: 6f 00 40 00 	j	0x180003278 <_Z13lud_perimeterPfii+0x2304>
180003278: 33 07 67 00 	add	a4, a4, t1
18000327c: 33 07 17 00 	add	a4, a4, ra
180003280: b3 22 17 01 	slt	t0, a4, a7
180003284: 8b a7 12 00 	vx_split_n	a5, t0
180003288: 93 0d 00 00 	li	s11, 0x0
18000328c: 63 84 02 ea 	beqz	t0, 0x180002934 <_Z13lud_perimeterPfii+0x19c0>
180003290: 6f 00 40 00 	j	0x180003294 <_Z13lud_perimeterPfii+0x2320>
180003294: 93 90 20 00 	slli	ra, ra, 0x2
180003298: b7 12 00 00 	lui	t0, 0x1
18000329c: b3 82 42 00 	add	t0, t0, tp
1800032a0: 93 82 82 c1 	addi	t0, t0, -0x3e8
1800032a4: b3 82 12 00 	add	t0, t0, ra
1800032a8: 93 8c 02 3c 	addi	s9, t0, 0x3c0
1800032ac: 93 0d 10 00 	li	s11, 0x1
1800032b0: 6f f0 4f e8 	j	0x180002934 <_Z13lud_perimeterPfii+0x19c0>
1800032b4: 0b 30 08 00 	vx_join	a6
1800032b8: 6f 00 40 00 	j	0x1800032bc <_Z13lud_perimeterPfii+0x2348>
1800032bc: 6f f0 8f ee 	j	0x1800029a4 <_Z13lud_perimeterPfii+0x1a30>
1800032c0: 87 a7 0c 00 	flw	fa5, 0x0(s9)
1800032c4: 13 17 27 00 	slli	a4, a4, 0x2
1800032c8: 33 07 e5 00 	add	a4, a0, a4
1800032cc: 27 20 f7 00 	fsw	fa5, 0x0(a4)
1800032d0: 6f 00 40 00 	j	0x1800032d4 <_Z13lud_perimeterPfii+0x2360>
1800032d4: 0b b0 07 00 	vx_join	a5
1800032d8: 6f 00 40 00 	j	0x1800032dc <_Z13lud_perimeterPfii+0x2368>
1800032dc: 1b 0d 1d 00 	addiw	s10, s10, 0x1
1800032e0: 1b 87 06 00 	sext.w	a4, a3
1800032e4: 63 1a ed e2 	bne	s10, a4, 0x180002918 <_Z13lud_perimeterPfii+0x19a4>
1800032e8: 6f 00 40 00 	j	0x1800032ec <_Z13lud_perimeterPfii+0x2378>
1800032ec: 6f 00 40 00 	j	0x1800032f0 <_Z13lud_perimeterPfii+0x237c>
1800032f0: 83 30 81 32 	ld	ra, 0x328(sp)
1800032f4: 03 34 01 32 	ld	s0, 0x320(sp)
1800032f8: 83 34 81 31 	ld	s1, 0x318(sp)
1800032fc: 03 39 01 31 	ld	s2, 0x310(sp)
180003300: 83 39 81 30 	ld	s3, 0x308(sp)
180003304: 03 3a 01 30 	ld	s4, 0x300(sp)
180003308: 83 3a 81 2f 	ld	s5, 0x2f8(sp)
18000330c: 03 3b 01 2f 	ld	s6, 0x2f0(sp)
180003310: 83 3b 81 2e 	ld	s7, 0x2e8(sp)
180003314: 03 3c 01 2e 	ld	s8, 0x2e0(sp)
180003318: 83 3c 81 2d 	ld	s9, 0x2d8(sp)
18000331c: 03 3d 01 2d 	ld	s10, 0x2d0(sp)
180003320: 83 3d 81 2c 	ld	s11, 0x2c8(sp)
180003324: 07 34 01 2c 	fld	fs0, 0x2c0(sp)
180003328: 87 34 81 2b 	fld	fs1, 0x2b8(sp)
18000332c: 07 39 01 2b 	fld	fs2, 0x2b0(sp)
180003330: 87 39 81 2a 	fld	fs3, 0x2a8(sp)
180003334: 07 3a 01 2a 	fld	fs4, 0x2a0(sp)
180003338: 87 3a 81 29 	fld	fs5, 0x298(sp)
18000333c: 07 3b 01 29 	fld	fs6, 0x290(sp)
180003340: 87 3b 81 28 	fld	fs7, 0x288(sp)
180003344: 07 3c 01 28 	fld	fs8, 0x280(sp)
180003348: 87 3c 81 27 	fld	fs9, 0x278(sp)
18000334c: 07 3d 01 27 	fld	fs10, 0x270(sp)
180003350: 87 3d 81 26 	fld	fs11, 0x268(sp)
180003354: 13 01 01 33 	addi	sp, sp, 0x330
180003358: 67 80 00 00 	ret

000000018000335c <_Z12lud_internalPfii>:
18000335c: 13 01 01 fd 	addi	sp, sp, -0x30
180003360: 23 34 11 02 	sd	ra, 0x28(sp)
180003364: 23 30 81 02 	sd	s0, 0x20(sp)
180003368: 23 3c 91 00 	sd	s1, 0x18(sp)
18000336c: 23 38 21 01 	sd	s2, 0x10(sp)
180003370: 23 34 31 01 	sd	s3, 0x8(sp)
180003374: 23 30 41 01 	sd	s4, 0x0(sp)
180003378: 13 04 01 03 	addi	s0, sp, 0x30
18000337c: 93 09 06 00 	mv	s3, a2
180003380: 93 84 05 00 	mv	s1, a1
180003384: 13 09 05 00 	mv	s2, a0
180003388: 17 45 00 00 	auipc	a0, 0x4
18000338c: 13 05 05 41 	addi	a0, a0, 0x410
180003390: 03 2a 05 00 	lw	s4, 0x0(a0)
180003394: 37 15 00 00 	lui	a0, 0x1
180003398: 33 05 45 00 	add	a0, a0, tp
18000339c: 13 05 85 01 	addi	a0, a0, 0x18
1800033a0: 93 05 00 00 	li	a1, 0x0
1800033a4: 13 06 00 40 	li	a2, 0x400
1800033a8: ef 20 d0 47 	jal	0x180006024 <memset>
1800033ac: 37 15 00 00 	lui	a0, 0x1
1800033b0: 33 05 45 00 	add	a0, a0, tp
1800033b4: 13 05 85 41 	addi	a0, a0, 0x418
1800033b8: 93 05 00 00 	li	a1, 0x0
1800033bc: 13 06 00 40 	li	a2, 0x400
1800033c0: ef 20 50 46 	jal	0x180006024 <memset>
1800033c4: 63 0e 0a 24 	beqz	s4, 0x180003620 <_Z12lud_internalPfii+0x2c4>
1800033c8: 6f 00 40 00 	j	0x1800033cc <_Z12lud_internalPfii+0x70>
1800033cc: 13 06 02 00 	mv	a2, tp
1800033d0: 9b 86 09 01 	addiw	a3, s3, 0x10
1800033d4: 13 07 42 00 	addi	a4, tp, 0x4
1800033d8: 17 45 00 00 	auipc	a0, 0x4
1800033dc: 13 05 45 3b 	addi	a0, a0, 0x3b4
1800033e0: 83 27 05 00 	lw	a5, 0x0(a0)
1800033e4: 3b 88 94 02 	mulw	a6, s1, s1
1800033e8: 93 08 00 00 	li	a7, 0x0
1800033ec: 6f 00 c0 01 	j	0x180003408 <_Z12lud_internalPfii+0xac>
1800033f0: 17 46 00 00 	auipc	a2, 0x4
1800033f4: 13 06 c6 39 	addi	a2, a2, 0x39c
1800033f8: 03 26 06 00 	lw	a2, 0x0(a2)
1800033fc: bb 86 94 02 	mulw	a3, s1, s1
180003400: 13 07 00 00 	li	a4, 0x0
180003404: 6f 00 80 10 	j	0x18000350c <_Z12lud_internalPfii+0x1b0>
180003408: 03 25 06 00 	lw	a0, 0x0(a2)
18000340c: 1b 15 45 00 	slliw	a0, a0, 0x4
180003410: 3b 85 a6 00 	addw	a0, a3, a0
180003414: 83 25 07 00 	lw	a1, 0x0(a4)
180003418: 9b 95 45 00 	slliw	a1, a1, 0x4
18000341c: bb 85 b6 00 	addw	a1, a3, a1
180003420: 3b c3 f8 02 	divw	t1, a7, a5
180003424: bb 02 33 01 	addw	t0, t1, s3
180003428: bb 83 92 02 	mulw	t2, t0, s1
18000342c: bb 02 f3 02 	mulw	t0, t1, a5
180003430: bb 82 58 40 	subw	t0, a7, t0
180003434: bb 83 72 00 	addw	t2, t0, t2
180003438: 3b 8e b3 00 	addw	t3, t2, a1
18000343c: 9b 03 08 00 	sext.w	t2, a6
180003440: b3 3e 7e 00 	sltu	t4, t3, t2
180003444: 8b a3 1e 00 	vx_split_n	t2, t4
180003448: 63 82 0e 04 	beqz	t4, 0x18000348c <_Z12lud_internalPfii+0x130>
18000344c: 6f 00 40 00 	j	0x180003450 <_Z12lud_internalPfii+0xf4>
180003450: 13 1e 0e 02 	slli	t3, t3, 0x20
180003454: 13 5e ee 01 	srli	t3, t3, 0x1e
180003458: 33 0e c9 01 	add	t3, s2, t3
18000345c: 87 27 0e 00 	flw	fa5, 0x0(t3)
180003460: 13 1e 03 02 	slli	t3, t1, 0x20
180003464: 13 5e ae 01 	srli	t3, t3, 0x1a
180003468: b7 1e 00 00 	lui	t4, 0x1
18000346c: b3 8e 4e 00 	add	t4, t4, tp
180003470: 93 8e 8e 01 	addi	t4, t4, 0x18
180003474: 33 8e ce 01 	add	t3, t4, t3
180003478: 93 9e 02 02 	slli	t4, t0, 0x20
18000347c: 93 de ee 01 	srli	t4, t4, 0x1e
180003480: 33 0e de 01 	add	t3, t3, t4
180003484: 27 20 fe 00 	fsw	fa5, 0x0(t3)
180003488: 6f 00 40 00 	j	0x18000348c <_Z12lud_internalPfii+0x130>
18000348c: 0b b0 03 00 	vx_join	t2
180003490: 6f 00 40 00 	j	0x180003494 <_Z12lud_internalPfii+0x138>
180003494: bb 03 65 00 	addw	t2, a0, t1
180003498: bb 83 93 02 	mulw	t2, t2, s1
18000349c: 3b 8e 32 01 	addw	t3, t0, s3
1800034a0: 3b 0e 7e 00 	addw	t3, t3, t2
1800034a4: 9b 03 08 00 	sext.w	t2, a6
1800034a8: b3 3e 7e 00 	sltu	t4, t3, t2
1800034ac: 8b a3 1e 00 	vx_split_n	t2, t4
1800034b0: 63 82 0e 04 	beqz	t4, 0x1800034f4 <_Z12lud_internalPfii+0x198>
1800034b4: 6f 00 40 00 	j	0x1800034b8 <_Z12lud_internalPfii+0x15c>
1800034b8: 13 1e 0e 02 	slli	t3, t3, 0x20
1800034bc: 13 5e ee 01 	srli	t3, t3, 0x1e
1800034c0: 33 0e c9 01 	add	t3, s2, t3
1800034c4: 87 27 0e 00 	flw	fa5, 0x0(t3)
1800034c8: 13 13 03 02 	slli	t1, t1, 0x20
1800034cc: 13 53 a3 01 	srli	t1, t1, 0x1a
1800034d0: 37 1e 00 00 	lui	t3, 0x1
1800034d4: 33 0e 4e 00 	add	t3, t3, tp
1800034d8: 13 0e 8e 41 	addi	t3, t3, 0x418
1800034dc: 33 03 6e 00 	add	t1, t3, t1
1800034e0: 93 92 02 02 	slli	t0, t0, 0x20
1800034e4: 93 d2 e2 01 	srli	t0, t0, 0x1e
1800034e8: b3 02 53 00 	add	t0, t1, t0
1800034ec: 27 a0 f2 00 	fsw	fa5, 0x0(t0)
1800034f0: 6f 00 40 00 	j	0x1800034f4 <_Z12lud_internalPfii+0x198>
1800034f4: 0b b0 03 00 	vx_join	t2
1800034f8: 6f 00 40 00 	j	0x1800034fc <_Z12lud_internalPfii+0x1a0>
1800034fc: 9b 88 18 00 	addiw	a7, a7, 0x1
180003500: 9b 02 0a 00 	sext.w	t0, s4
180003504: e3 86 58 ee 	beq	a7, t0, 0x1800033f0 <_Z12lud_internalPfii+0x94>
180003508: 6f f0 1f f0 	j	0x180003408 <_Z12lud_internalPfii+0xac>
18000350c: bb 47 c7 02 	divw	a5, a4, a2
180003510: 13 98 07 02 	slli	a6, a5, 0x20
180003514: 13 58 08 02 	srli	a6, a6, 0x20
180003518: d3 07 00 f0 	fmv.w.x	fa5, zero
18000351c: 93 08 00 00 	li	a7, 0x0
180003520: 6f 00 40 00 	j	0x180003524 <_Z12lud_internalPfii+0x1c8>
180003524: 93 12 68 00 	slli	t0, a6, 0x6
180003528: 37 13 00 00 	lui	t1, 0x1
18000352c: 33 03 43 00 	add	t1, t1, tp
180003530: 13 03 83 41 	addi	t1, t1, 0x418
180003534: 93 93 28 00 	slli	t2, a7, 0x2
180003538: b3 82 72 00 	add	t0, t0, t2
18000353c: b3 02 53 00 	add	t0, t1, t0
180003540: 07 a7 02 00 	flw	fa4, 0x0(t0)
180003544: d3 06 07 42 	fcvt.d.s	fa3, fa4
180003548: 97 42 00 00 	auipc	t0, 0x4
18000354c: 93 82 02 23 	addi	t0, t0, 0x230
180003550: 07 b6 02 00 	fld	fa2, 0x0(t0)
180003554: d3 12 d6 a2 	flt.d	t0, fa2, fa3
180003558: 63 8a 02 04 	beqz	t0, 0x1800035ac <_Z12lud_internalPfii+0x250>
18000355c: 6f 00 40 00 	j	0x180003560 <_Z12lud_internalPfii+0x204>
180003560: bb 62 c7 02 	remw	t0, a4, a2
180003564: 13 93 68 00 	slli	t1, a7, 0x6
180003568: b7 13 00 00 	lui	t2, 0x1
18000356c: b3 83 43 00 	add	t2, t2, tp
180003570: 93 83 83 01 	addi	t2, t2, 0x18
180003574: 33 83 63 00 	add	t1, t2, t1
180003578: 93 92 02 02 	slli	t0, t0, 0x20
18000357c: 93 d2 e2 01 	srli	t0, t0, 0x1e
180003580: b3 02 53 00 	add	t0, t1, t0
180003584: 87 a6 02 00 	flw	fa3, 0x0(t0)
180003588: 53 86 06 42 	fcvt.d.s	fa2, fa3
18000358c: 97 42 00 00 	auipc	t0, 0x4
180003590: 93 82 c2 1e 	addi	t0, t0, 0x1ec
180003594: 87 b5 02 00 	fld	fa1, 0x0(t0)
180003598: d3 92 c5 a2 	flt.d	t0, fa1, fa2
18000359c: 63 88 02 00 	beqz	t0, 0x1800035ac <_Z12lud_internalPfii+0x250>
1800035a0: 6f 00 40 00 	j	0x1800035a4 <_Z12lud_internalPfii+0x248>
1800035a4: c3 77 d7 78 	fmadd.s	fa5, fa4, fa3, fa5
1800035a8: 6f 00 40 00 	j	0x1800035ac <_Z12lud_internalPfii+0x250>
1800035ac: 93 88 18 00 	addi	a7, a7, 0x1
1800035b0: 93 02 00 01 	li	t0, 0x10
1800035b4: e3 98 58 f6 	bne	a7, t0, 0x180003524 <_Z12lud_internalPfii+0x1c8>
1800035b8: 6f 00 40 00 	j	0x1800035bc <_Z12lud_internalPfii+0x260>
1800035bc: 3b 88 a7 00 	addw	a6, a5, a0
1800035c0: 3b 08 98 02 	mulw	a6, a6, s1
1800035c4: bb 87 c7 02 	mulw	a5, a5, a2
1800035c8: bb 07 f7 40 	subw	a5, a4, a5
1800035cc: bb 87 b7 00 	addw	a5, a5, a1
1800035d0: 3b 88 07 01 	addw	a6, a5, a6
1800035d4: 9b 87 06 00 	sext.w	a5, a3
1800035d8: b3 38 f8 00 	sltu	a7, a6, a5
1800035dc: 8b a7 18 00 	vx_split_n	a5, a7
1800035e0: 63 82 08 02 	beqz	a7, 0x180003604 <_Z12lud_internalPfii+0x2a8>
1800035e4: 6f 00 40 00 	j	0x1800035e8 <_Z12lud_internalPfii+0x28c>
1800035e8: 13 18 08 02 	slli	a6, a6, 0x20
1800035ec: 13 58 e8 01 	srli	a6, a6, 0x1e
1800035f0: 33 08 09 01 	add	a6, s2, a6
1800035f4: 07 27 08 00 	flw	fa4, 0x0(a6)
1800035f8: d3 77 f7 08 	fsub.s	fa5, fa4, fa5
1800035fc: 27 20 f8 00 	fsw	fa5, 0x0(a6)
180003600: 6f 00 40 00 	j	0x180003604 <_Z12lud_internalPfii+0x2a8>
180003604: 0b b0 07 00 	vx_join	a5
180003608: 6f 00 40 00 	j	0x18000360c <_Z12lud_internalPfii+0x2b0>
18000360c: 1b 07 17 00 	addiw	a4, a4, 0x1
180003610: 9b 07 0a 00 	sext.w	a5, s4
180003614: e3 1c f7 ee 	bne	a4, a5, 0x18000350c <_Z12lud_internalPfii+0x1b0>
180003618: 6f 00 40 00 	j	0x18000361c <_Z12lud_internalPfii+0x2c0>
18000361c: 6f 00 40 00 	j	0x180003620 <_Z12lud_internalPfii+0x2c4>
180003620: 83 30 81 02 	ld	ra, 0x28(sp)
180003624: 03 34 01 02 	ld	s0, 0x20(sp)
180003628: 83 34 81 01 	ld	s1, 0x18(sp)
18000362c: 03 39 01 01 	ld	s2, 0x10(sp)
180003630: 83 39 81 00 	ld	s3, 0x8(sp)
180003634: 03 3a 01 00 	ld	s4, 0x0(sp)
180003638: 13 01 01 03 	addi	sp, sp, 0x30
18000363c: 67 80 00 00 	ret

0000000180003640 <lud_diagonalPfii_wrapper>:
180003640: 83 36 05 00 	ld	a3, 0x0(a0)
180003644: 03 26 05 01 	lw	a2, 0x10(a0)
180003648: 83 25 85 00 	lw	a1, 0x8(a0)
18000364c: 13 85 06 00 	mv	a0, a3
180003650: 6f c0 1f db 	j	0x180000400 <_Z12lud_diagonalPfii>

0000000180003654 <lud_perimeterPfii_wrapper>:
180003654: 83 36 05 00 	ld	a3, 0x0(a0)
180003658: 03 26 05 01 	lw	a2, 0x10(a0)
18000365c: 83 25 85 00 	lw	a1, 0x8(a0)
180003660: 13 85 06 00 	mv	a0, a3
180003664: 6f d0 1f 91 	j	0x180000f74 <_Z13lud_perimeterPfii>

0000000180003668 <lud_internalPfii_wrapper>:
180003668: 83 36 05 00 	ld	a3, 0x0(a0)
18000366c: 03 26 05 01 	lw	a2, 0x10(a0)
180003670: 83 25 85 00 	lw	a1, 0x8(a0)
180003674: 13 85 06 00 	mv	a0, a3
180003678: 6f f0 5f ce 	j	0x18000335c <_Z12lud_internalPfii>

000000018000367c <_Exit>:
18000367c: ef 00 50 34 	jal	0x1800041c0 <vx_perf_dump>
180003680: 93 02 80 08 	li	t0, 0x88
180003684: 23 a0 a2 00 	sw	a0, 0x0(t0)
180003688: 0f 00 f0 0f 	fence
18000368c: 0b 00 00 00 	vx_tmc	zero

0000000180003690 <init_regs>:
180003690: 97 51 00 00 	auipc	gp, 0x5
180003694: 93 81 81 80 	addi	gp, gp, -0x7f8
180003698: 93 02 10 00 	li	t0, 0x1
18000369c: 93 92 02 02 	slli	t0, t0, 0x20
1800036a0: 37 01 01 00 	lui	sp, 0x10
1800036a4: 1b 01 f1 ff 	addiw	sp, sp, -0x1
1800036a8: 13 11 01 01 	slli	sp, sp, 0x10
1800036ac: 33 61 51 00 	or	sp, sp, t0
1800036b0: f3 22 40 f1 	csrr	t0, mhartid
1800036b4: 13 93 d2 00 	slli	t1, t0, 0xd
1800036b8: 33 01 61 40 	sub	sp, sp, t1
1800036bc: 37 23 00 00 	lui	t1, 0x2
1800036c0: 13 03 03 84 	addi	t1, t1, -0x7c0
1800036c4: b3 82 62 02 	mul	t0, t0, t1
1800036c8: 17 42 00 00 	auipc	tp, 0x4
1800036cc: 13 02 82 0f 	addi	tp, tp, 0xf8
1800036d0: 33 02 52 00 	add	tp, tp, t0
1800036d4: 67 80 00 00 	ret

00000001800036d8 <init_regs_all>:
1800036d8: 93 02 f0 ff 	li	t0, -0x1
1800036dc: 0b 80 02 00 	vx_tmc	t0
1800036e0: ef f0 1f fb 	jal	0x180003690 <init_regs>
1800036e4: 0b 00 00 00 	vx_tmc	zero
1800036e8: 67 80 00 00 	ret

00000001800036ec <init_tls_all>:
1800036ec: 93 02 f0 ff 	li	t0, -0x1
1800036f0: 0b 80 02 00 	vx_tmc	t0
1800036f4: ef 00 c0 00 	jal	0x180003700 <__init_tls>
1800036f8: 0b 00 00 00 	vx_tmc	zero
1800036fc: 67 80 00 00 	ret

0000000180003700 <__init_tls>:
180003700: 13 01 01 ff 	addi	sp, sp, -0x10
180003704: 13 06 00 00 	li	a2, 0x0
180003708: 97 45 00 00 	auipc	a1, 0x4
18000370c: 93 85 05 f9 	addi	a1, a1, -0x70
180003710: 13 05 02 00 	mv	a0, tp
180003714: 23 30 81 00 	sd	s0, 0x0(sp)
180003718: 23 34 11 00 	sd	ra, 0x8(sp)
18000371c: 13 04 02 00 	mv	s0, tp
180003720: ef 20 80 3b 	jal	0x180005ad8 <memcpy>
180003724: 13 05 00 00 	li	a0, 0x0
180003728: 33 05 a4 00 	add	a0, s0, a0
18000372c: 03 34 01 00 	ld	s0, 0x0(sp)
180003730: 83 30 81 00 	ld	ra, 0x8(sp)
180003734: 37 26 00 00 	lui	a2, 0x2
180003738: 13 06 06 84 	addi	a2, a2, -0x7c0
18000373c: 93 05 00 00 	li	a1, 0x0
180003740: 13 01 01 01 	addi	sp, sp, 0x10
180003744: 6f 20 10 0e 	j	0x180006024 <memset>

0000000180003748 <__libc_init_array>:
180003748: 13 01 01 fe 	addi	sp, sp, -0x20
18000374c: 23 38 81 00 	sd	s0, 0x10(sp)
180003750: 23 30 21 01 	sd	s2, 0x0(sp)
180003754: 97 47 00 00 	auipc	a5, 0x4
180003758: 93 87 47 f4 	addi	a5, a5, -0xbc
18000375c: 17 44 00 00 	auipc	s0, 0x4
180003760: 13 04 c4 f3 	addi	s0, s0, -0xc4
180003764: 23 3c 11 00 	sd	ra, 0x18(sp)
180003768: 23 34 91 00 	sd	s1, 0x8(sp)
18000376c: 33 89 87 40 	sub	s2, a5, s0
180003770: 63 80 87 02 	beq	a5, s0, 0x180003790 <__libc_init_array+0x48>
180003774: 13 59 39 40 	srai	s2, s2, 0x3
180003778: 93 04 00 00 	li	s1, 0x0
18000377c: 83 37 04 00 	ld	a5, 0x0(s0)
180003780: 93 84 14 00 	addi	s1, s1, 0x1
180003784: 13 04 84 00 	addi	s0, s0, 0x8
180003788: e7 80 07 00 	jalr	a5
18000378c: e3 e8 24 ff 	bltu	s1, s2, 0x18000377c <__libc_init_array+0x34>
180003790: 97 47 00 00 	auipc	a5, 0x4
180003794: 93 87 87 f0 	addi	a5, a5, -0xf8
180003798: 17 44 00 00 	auipc	s0, 0x4
18000379c: 13 04 04 f0 	addi	s0, s0, -0x100
1800037a0: 33 89 87 40 	sub	s2, a5, s0
1800037a4: 13 59 39 40 	srai	s2, s2, 0x3
1800037a8: 63 8e 87 00 	beq	a5, s0, 0x1800037c4 <__libc_init_array+0x7c>
1800037ac: 93 04 00 00 	li	s1, 0x0
1800037b0: 83 37 04 00 	ld	a5, 0x0(s0)
1800037b4: 93 84 14 00 	addi	s1, s1, 0x1
1800037b8: 13 04 84 00 	addi	s0, s0, 0x8
1800037bc: e7 80 07 00 	jalr	a5
1800037c0: e3 e8 24 ff 	bltu	s1, s2, 0x1800037b0 <__libc_init_array+0x68>
1800037c4: 83 30 81 01 	ld	ra, 0x18(sp)
1800037c8: 03 34 01 01 	ld	s0, 0x10(sp)
1800037cc: 83 34 81 00 	ld	s1, 0x8(sp)
1800037d0: 03 39 01 00 	ld	s2, 0x0(sp)
1800037d4: 13 01 01 02 	addi	sp, sp, 0x20
1800037d8: 67 80 00 00 	ret

00000001800037dc <__funcs_on_exit>:
1800037dc: 13 01 01 fe 	addi	sp, sp, -0x20
1800037e0: 23 38 81 00 	sd	s0, 0x10(sp)
1800037e4: 97 47 00 00 	auipc	a5, 0x4
1800037e8: 93 87 47 eb 	addi	a5, a5, -0x14c
1800037ec: 17 44 00 00 	auipc	s0, 0x4
1800037f0: 13 04 c4 ea 	addi	s0, s0, -0x154
1800037f4: 33 04 f4 40 	sub	s0, s0, a5
1800037f8: 23 34 91 00 	sd	s1, 0x8(sp)
1800037fc: 23 3c 11 00 	sd	ra, 0x18(sp)
180003800: 93 54 34 40 	srai	s1, s0, 0x3
180003804: 63 80 04 02 	beqz	s1, 0x180003824 <__funcs_on_exit+0x48>
180003808: 13 04 84 ff 	addi	s0, s0, -0x8
18000380c: 33 04 f4 00 	add	s0, s0, a5
180003810: 83 37 04 00 	ld	a5, 0x0(s0)
180003814: 93 84 f4 ff 	addi	s1, s1, -0x1
180003818: 13 04 84 ff 	addi	s0, s0, -0x8
18000381c: e7 80 07 00 	jalr	a5
180003820: e3 98 04 fe 	bnez	s1, 0x180003810 <__funcs_on_exit+0x34>
180003824: 83 30 81 01 	ld	ra, 0x18(sp)
180003828: 03 34 01 01 	ld	s0, 0x10(sp)
18000382c: 83 34 81 00 	ld	s1, 0x8(sp)
180003830: 13 01 01 02 	addi	sp, sp, 0x20
180003834: 67 80 00 00 	ret

0000000180003838 <vx_putchar>:
180003838: f3 22 40 f1 	csrr	t0, mhartid
18000383c: 93 f2 f2 03 	andi	t0, t0, 0x3f
180003840: 13 03 00 04 	li	t1, 0x40
180003844: b3 82 62 00 	add	t0, t0, t1
180003848: 23 80 a2 00 	sb	a0, 0x0(t0)
18000384c: 67 80 00 00 	ret

0000000180003850 <__vprintf_cb>:
180003850: 83 37 85 00 	ld	a5, 0x8(a0)
180003854: 13 01 01 ff 	addi	sp, sp, -0x10
180003858: 23 30 81 00 	sd	s0, 0x0(sp)
18000385c: 83 b5 07 00 	ld	a1, 0x0(a5)
180003860: 13 04 05 00 	mv	s0, a0
180003864: 03 35 05 00 	ld	a0, 0x0(a0)
180003868: 23 34 11 00 	sd	ra, 0x8(sp)
18000386c: ef 20 40 1d 	jal	0x180005a40 <tiny_vprintf>
180003870: 83 30 81 00 	ld	ra, 0x8(sp)
180003874: 23 28 a4 00 	sw	a0, 0x10(s0)
180003878: 03 34 01 00 	ld	s0, 0x0(sp)
18000387c: 13 01 01 01 	addi	sp, sp, 0x10
180003880: 67 80 00 00 	ret

0000000180003884 <vx_printf>:
180003884: 13 01 01 f8 	addi	sp, sp, -0x80
180003888: 23 34 f1 06 	sd	a5, 0x68(sp)
18000388c: 93 07 81 04 	addi	a5, sp, 0x48
180003890: 13 03 05 00 	mv	t1, a0
180003894: 23 34 b1 04 	sd	a1, 0x48(sp)
180003898: 23 34 f1 00 	sd	a5, 0x8(sp)
18000389c: 23 38 f1 00 	sd	a5, 0x10(sp)
1800038a0: 17 05 00 00 	auipc	a0, 0x0
1800038a4: 13 05 05 fb 	addi	a0, a0, -0x50
1800038a8: 93 07 01 01 	addi	a5, sp, 0x10
1800038ac: 93 05 81 01 	addi	a1, sp, 0x18
1800038b0: 23 3c 11 02 	sd	ra, 0x38(sp)
1800038b4: 23 38 c1 04 	sd	a2, 0x50(sp)
1800038b8: 23 3c d1 04 	sd	a3, 0x58(sp)
1800038bc: 23 30 e1 06 	sd	a4, 0x60(sp)
1800038c0: 23 38 01 07 	sd	a6, 0x70(sp)
1800038c4: 23 3c 11 07 	sd	a7, 0x78(sp)
1800038c8: 23 3c 61 00 	sd	t1, 0x18(sp)
1800038cc: 23 30 f1 02 	sd	a5, 0x20(sp)
1800038d0: ef 00 50 07 	jal	0x180004144 <vx_serial>
1800038d4: 83 30 81 03 	ld	ra, 0x38(sp)
1800038d8: 03 25 81 02 	lw	a0, 0x28(sp)
1800038dc: 13 01 01 08 	addi	sp, sp, 0x80
1800038e0: 67 80 00 00 	ret

00000001800038e4 <process_threads>:
1800038e4: 13 01 01 fb 	addi	sp, sp, -0x50
1800038e8: 23 34 11 04 	sd	ra, 0x48(sp)
1800038ec: 23 30 81 04 	sd	s0, 0x40(sp)
1800038f0: 23 3c 91 02 	sd	s1, 0x38(sp)
1800038f4: 23 38 21 03 	sd	s2, 0x30(sp)
1800038f8: 23 34 31 03 	sd	s3, 0x28(sp)
1800038fc: 23 30 41 03 	sd	s4, 0x20(sp)
180003900: 23 3c 51 01 	sd	s5, 0x18(sp)
180003904: 23 38 61 01 	sd	s6, 0x10(sp)
180003908: 23 34 71 01 	sd	s7, 0x8(sp)
18000390c: 23 30 81 01 	sd	s8, 0x0(sp)
180003910: f3 26 00 34 	csrr	a3, mscratch
180003914: 73 25 00 fc 	csrr	a0, nt
180003918: 1b 0a 05 00 	sext.w	s4, a0
18000391c: 73 26 10 cc 	csrr	a2, wid
180003920: 9b 08 06 00 	sext.w	a7, a2
180003924: f3 25 00 cc 	csrr	a1, tid
180003928: 03 a8 86 01 	lw	a6, 0x18(a3)
18000392c: 83 a7 c6 01 	lw	a5, 0x1c(a3)
180003930: 13 03 06 00 	mv	t1, a2
180003934: 3b 07 c8 02 	mulw	a4, a6, a2
180003938: 63 e4 f8 00 	bltu	a7, a5, 0x180003940 <process_threads+0x5c>
18000393c: 13 83 07 00 	mv	t1, a5
180003940: 3b 07 67 00 	addw	a4, a4, t1
180003944: b3 b4 f8 00 	sltu	s1, a7, a5
180003948: bb 84 04 01 	addw	s1, s1, a6
18000394c: 03 a8 06 01 	lw	a6, 0x10(a3)
180003950: 37 26 00 00 	lui	a2, 0x2
180003954: 33 06 46 00 	add	a2, a2, tp
180003958: 23 30 06 82 	sd	zero, -0x7e0(a2)
18000395c: bb 07 a7 02 	mulw	a5, a4, a0
180003960: 3b 87 05 01 	addw	a4, a1, a6
180003964: b7 25 00 00 	lui	a1, 0x2
180003968: b3 85 45 00 	add	a1, a1, tp
18000396c: 13 08 06 82 	addi	a6, a2, -0x7e0
180003970: 23 ac 05 80 	sw	zero, -0x7e8(a1)
180003974: 23 24 08 00 	sw	zero, 0x8(a6)
180003978: 83 ba 06 00 	ld	s5, 0x0(a3)
18000397c: 03 bb 86 00 	ld	s6, 0x8(a3)
180003980: bb 84 a4 02 	mulw	s1, s1, a0
180003984: 3b 84 e7 00 	addw	s0, a5, a4
180003988: bb 84 84 00 	addw	s1, s1, s0
18000398c: 63 70 94 06 	bgeu	s0, s1, 0x1800039ec <process_threads+0x108>
180003990: 37 29 00 00 	lui	s2, 0x2
180003994: 33 09 49 00 	add	s2, s2, tp
180003998: 93 09 f0 ff 	li	s3, -0x1
18000399c: 17 4c 00 00 	auipc	s8, 0x4
1800039a0: 13 0c 4c e1 	addi	s8, s8, -0x1ec
1800039a4: 93 d9 09 02 	srli	s3, s3, 0x20
1800039a8: 93 0b 09 83 	addi	s7, s2, -0x7d0
1800039ac: 83 27 0c 00 	lw	a5, 0x0(s8)
1800039b0: 03 26 4c 00 	lw	a2, 0x4(s8)
1800039b4: 13 05 0b 00 	mv	a0, s6
1800039b8: 3b 57 f4 02 	divuw	a4, s0, a5
1800039bc: bb 86 c7 02 	mulw	a3, a5, a2
1800039c0: 3b 77 c7 02 	remuw	a4, a4, a2
1800039c4: bb 77 f4 02 	remuw	a5, s0, a5
1800039c8: 13 17 07 02 	slli	a4, a4, 0x20
1800039cc: bb 56 d4 02 	divuw	a3, s0, a3
1800039d0: b3 f7 f9 00 	and	a5, s3, a5
1800039d4: b3 e7 e7 00 	or	a5, a5, a4
1800039d8: 3b 04 8a 00 	addw	s0, s4, s0
1800039dc: 23 38 f9 82 	sd	a5, -0x7d0(s2)
1800039e0: 23 a4 db 00 	sw	a3, 0x8(s7)
1800039e4: e7 80 0a 00 	jalr	s5
1800039e8: e3 62 94 fc 	bltu	s0, s1, 0x1800039ac <process_threads+0xc8>
1800039ec: 83 30 81 04 	ld	ra, 0x48(sp)
1800039f0: 03 34 01 04 	ld	s0, 0x40(sp)
1800039f4: 83 34 81 03 	ld	s1, 0x38(sp)
1800039f8: 03 39 01 03 	ld	s2, 0x30(sp)
1800039fc: 83 39 81 02 	ld	s3, 0x28(sp)
180003a00: 03 3a 01 02 	ld	s4, 0x20(sp)
180003a04: 83 3a 81 01 	ld	s5, 0x18(sp)
180003a08: 03 3b 01 01 	ld	s6, 0x10(sp)
180003a0c: 83 3b 81 00 	ld	s7, 0x8(sp)
180003a10: 03 3c 01 00 	ld	s8, 0x0(sp)
180003a14: 13 01 01 05 	addi	sp, sp, 0x50
180003a18: 67 80 00 00 	ret

0000000180003a1c <process_threads_stub>:
180003a1c: 13 01 01 ff 	addi	sp, sp, -0x10
180003a20: 23 34 11 00 	sd	ra, 0x8(sp)
180003a24: 93 07 f0 ff 	li	a5, -0x1
180003a28: 0b 80 07 00 	vx_tmc	a5
180003a2c: ef f0 9f eb 	jal	0x1800038e4 <process_threads>
180003a30: 0b 00 00 00 	vx_tmc	zero
180003a34: 83 30 81 00 	ld	ra, 0x8(sp)
180003a38: 13 01 01 01 	addi	sp, sp, 0x10
180003a3c: 67 80 00 00 	ret

0000000180003a40 <process_thread_groups>:
180003a40: 13 01 01 fb 	addi	sp, sp, -0x50
180003a44: 23 34 11 04 	sd	ra, 0x48(sp)
180003a48: 23 30 81 04 	sd	s0, 0x40(sp)
180003a4c: 23 3c 91 02 	sd	s1, 0x38(sp)
180003a50: 23 38 21 03 	sd	s2, 0x30(sp)
180003a54: 23 34 31 03 	sd	s3, 0x28(sp)
180003a58: 23 30 41 03 	sd	s4, 0x20(sp)
180003a5c: 23 3c 51 01 	sd	s5, 0x18(sp)
180003a60: 23 38 61 01 	sd	s6, 0x10(sp)
180003a64: 23 34 71 01 	sd	s7, 0x8(sp)
180003a68: 23 30 81 01 	sd	s8, 0x0(sp)
180003a6c: f3 26 00 34 	csrr	a3, mscratch
180003a70: 73 2f 00 fc 	csrr	t5, nt
180003a74: 73 26 10 cc 	csrr	a2, wid
180003a78: 1b 05 06 00 	sext.w	a0, a2
180003a7c: f3 2e 00 cc 	csrr	t4, tid
180003a80: 83 a8 c6 01 	lw	a7, 0x1c(a3)
180003a84: 97 45 00 00 	auipc	a1, 0x4
180003a88: 93 85 c5 d1 	addi	a1, a1, -0x2e4
180003a8c: 83 a4 86 01 	lw	s1, 0x18(a3)
180003a90: bb 77 16 03 	remuw	a5, a2, a7
180003a94: 03 a7 05 00 	lw	a4, 0x0(a1)
180003a98: 03 ae 45 00 	lw	t3, 0x4(a1)
180003a9c: 83 a5 46 01 	lw	a1, 0x14(a3)
180003aa0: b3 34 95 00 	sltu	s1, a0, s1
180003aa4: 83 ba 06 00 	ld	s5, 0x0(a3)
180003aa8: 03 aa 06 02 	lw	s4, 0x20(a3)
180003aac: 03 bb 86 00 	ld	s6, 0x8(a3)
180003ab0: bb 84 b4 00 	addw	s1, s1, a1
180003ab4: 83 a5 06 01 	lw	a1, 0x10(a3)
180003ab8: 13 09 f0 ff 	li	s2, -0x1
180003abc: 13 59 09 02 	srli	s2, s2, 0x20
180003ac0: 37 25 00 00 	lui	a0, 0x2
180003ac4: 33 05 45 00 	add	a0, a0, tp
180003ac8: 37 28 00 00 	lui	a6, 0x2
180003acc: 33 08 48 00 	add	a6, a6, tp
180003ad0: 13 03 05 82 	addi	t1, a0, -0x7e0
180003ad4: bb 87 e7 03 	mulw	a5, a5, t5
180003ad8: bb 87 d7 01 	addw	a5, a5, t4
180003adc: bb d6 e7 02 	divuw	a3, a5, a4
180003ae0: bb 0e c7 03 	mulw	t4, a4, t3
180003ae4: bb f6 c6 03 	remuw	a3, a3, t3
180003ae8: 3b f7 e7 02 	remuw	a4, a5, a4
180003aec: 93 96 06 02 	slli	a3, a3, 0x20
180003af0: 3b 56 16 03 	divuw	a2, a2, a7
180003af4: 33 77 e9 00 	and	a4, s2, a4
180003af8: 33 67 d7 00 	or	a4, a4, a3
180003afc: 23 30 e5 82 	sd	a4, -0x7e0(a0)
180003b00: bb d7 d7 03 	divuw	a5, a5, t4
180003b04: 3b 04 b6 00 	addw	s0, a2, a1
180003b08: 23 2c c8 80 	sw	a2, -0x7e8(a6)
180003b0c: bb 84 44 03 	mulw	s1, s1, s4
180003b10: 23 24 f3 00 	sw	a5, 0x8(t1)
180003b14: bb 84 84 00 	addw	s1, s1, s0
180003b18: 63 7c 94 04 	bgeu	s0, s1, 0x180003b70 <process_thread_groups+0x130>
180003b1c: b7 29 00 00 	lui	s3, 0x2
180003b20: b3 89 49 00 	add	s3, s3, tp
180003b24: 17 4c 00 00 	auipc	s8, 0x4
180003b28: 13 0c cc c8 	addi	s8, s8, -0x374
180003b2c: 93 8b 09 83 	addi	s7, s3, -0x7d0
180003b30: 83 27 0c 00 	lw	a5, 0x0(s8)
180003b34: 03 26 4c 00 	lw	a2, 0x4(s8)
180003b38: 13 05 0b 00 	mv	a0, s6
180003b3c: 3b 57 f4 02 	divuw	a4, s0, a5
180003b40: bb 86 c7 02 	mulw	a3, a5, a2
180003b44: 3b 77 c7 02 	remuw	a4, a4, a2
180003b48: bb 77 f4 02 	remuw	a5, s0, a5
180003b4c: 13 17 07 02 	slli	a4, a4, 0x20
180003b50: bb 56 d4 02 	divuw	a3, s0, a3
180003b54: b3 77 f9 00 	and	a5, s2, a5
180003b58: b3 e7 e7 00 	or	a5, a5, a4
180003b5c: 3b 04 8a 00 	addw	s0, s4, s0
180003b60: 23 b8 f9 82 	sd	a5, -0x7d0(s3)
180003b64: 23 a4 db 00 	sw	a3, 0x8(s7)
180003b68: e7 80 0a 00 	jalr	s5
180003b6c: e3 62 94 fc 	bltu	s0, s1, 0x180003b30 <process_thread_groups+0xf0>
180003b70: 83 30 81 04 	ld	ra, 0x48(sp)
180003b74: 03 34 01 04 	ld	s0, 0x40(sp)
180003b78: 83 34 81 03 	ld	s1, 0x38(sp)
180003b7c: 03 39 01 03 	ld	s2, 0x30(sp)
180003b80: 83 39 81 02 	ld	s3, 0x28(sp)
180003b84: 03 3a 01 02 	ld	s4, 0x20(sp)
180003b88: 83 3a 81 01 	ld	s5, 0x18(sp)
180003b8c: 03 3b 01 01 	ld	s6, 0x10(sp)
180003b90: 83 3b 81 00 	ld	s7, 0x8(sp)
180003b94: 03 3c 01 00 	ld	s8, 0x0(sp)
180003b98: 13 01 01 05 	addi	sp, sp, 0x50
180003b9c: 67 80 00 00 	ret

0000000180003ba0 <process_thread_groups_stub>:
180003ba0: 13 01 01 ff 	addi	sp, sp, -0x10
180003ba4: 23 34 11 00 	sd	ra, 0x8(sp)
180003ba8: 73 27 00 34 	csrr	a4, mscratch
180003bac: 83 27 c7 01 	lw	a5, 0x1c(a4)
180003bb0: 03 26 47 02 	lw	a2, 0x24(a4)
180003bb4: 73 27 10 cc 	csrr	a4, wid
180003bb8: 3b 77 f7 02 	remuw	a4, a4, a5
180003bbc: 9b 87 f7 ff 	addiw	a5, a5, -0x1
180003bc0: 9b 06 06 00 	sext.w	a3, a2
180003bc4: 63 84 e7 00 	beq	a5, a4, 0x180003bcc <process_thread_groups_stub+0x2c>
180003bc8: 93 06 f0 ff 	li	a3, -0x1
180003bcc: 0b 80 06 00 	vx_tmc	a3
180003bd0: ef f0 1f e7 	jal	0x180003a40 <process_thread_groups>
180003bd4: f3 27 10 cc 	csrr	a5, wid
180003bd8: 9b 87 07 00 	sext.w	a5, a5
180003bdc: 93 b7 17 00 	seqz	a5, a5
180003be0: 0b 80 07 00 	vx_tmc	a5
180003be4: 83 30 81 00 	ld	ra, 0x8(sp)
180003be8: 13 01 01 01 	addi	sp, sp, 0x10
180003bec: 67 80 00 00 	ret

0000000180003bf0 <process_remaining_threads>:
180003bf0: 13 01 01 fe 	addi	sp, sp, -0x20
180003bf4: 23 3c 11 00 	sd	ra, 0x18(sp)
180003bf8: 23 38 81 00 	sd	s0, 0x10(sp)
180003bfc: 23 34 91 00 	sd	s1, 0x8(sp)
180003c00: f3 24 00 34 	csrr	s1, mscratch
180003c04: 73 24 00 cc 	csrr	s0, tid
180003c08: 83 a7 44 01 	lw	a5, 0x14(s1)
180003c0c: 9b 05 04 00 	sext.w	a1, s0
180003c10: 17 25 00 00 	auipc	a0, 0x2
180003c14: 13 05 85 74 	addi	a0, a0, 0x748
180003c18: 3b 06 f4 00 	addw	a2, s0, a5
180003c1c: 13 04 06 00 	mv	s0, a2
180003c20: ef f0 5f c6 	jal	0x180003884 <vx_printf>
180003c24: 17 47 00 00 	auipc	a4, 0x4
180003c28: 13 07 c7 b8 	addi	a4, a4, -0x474
180003c2c: 83 27 07 00 	lw	a5, 0x0(a4)
180003c30: 03 26 47 00 	lw	a2, 0x4(a4)
180003c34: b7 26 00 00 	lui	a3, 0x2
180003c38: 3b 57 f4 02 	divuw	a4, s0, a5
180003c3c: b3 86 46 00 	add	a3, a3, tp
180003c40: 13 88 06 83 	addi	a6, a3, -0x7d0
180003c44: 83 b5 04 00 	ld	a1, 0x0(s1)
180003c48: 03 b5 84 00 	ld	a0, 0x8(s1)
180003c4c: 83 30 81 01 	ld	ra, 0x18(sp)
180003c50: 83 34 81 00 	ld	s1, 0x8(sp)
180003c54: bb 88 c7 02 	mulw	a7, a5, a2
180003c58: bb 77 f4 02 	remuw	a5, s0, a5
180003c5c: 3b 77 c7 02 	remuw	a4, a4, a2
180003c60: 93 97 07 02 	slli	a5, a5, 0x20
180003c64: 93 d7 07 02 	srli	a5, a5, 0x20
180003c68: 3b 54 14 03 	divuw	s0, s0, a7
180003c6c: 13 17 07 02 	slli	a4, a4, 0x20
180003c70: b3 e7 e7 00 	or	a5, a5, a4
180003c74: 23 b8 f6 82 	sd	a5, -0x7d0(a3)
180003c78: 23 24 88 00 	sw	s0, 0x8(a6)
180003c7c: 03 34 01 01 	ld	s0, 0x10(sp)
180003c80: 13 01 01 02 	addi	sp, sp, 0x20
180003c84: 67 80 05 00 	jr	a1

0000000180003c88 <vx_spawn_threads>:
180003c88: 13 01 01 f9 	addi	sp, sp, -0x70
180003c8c: 23 3c 91 04 	sd	s1, 0x58(sp)
180003c90: 23 38 21 05 	sd	s2, 0x50(sp)
180003c94: 23 34 11 06 	sd	ra, 0x68(sp)
180003c98: 23 30 81 06 	sd	s0, 0x60(sp)
180003c9c: 23 34 31 05 	sd	s3, 0x48(sp)
180003ca0: 23 30 41 05 	sd	s4, 0x40(sp)
180003ca4: 23 3c 51 03 	sd	s5, 0x38(sp)
180003ca8: 23 38 61 03 	sd	s6, 0x30(sp)
180003cac: 13 89 06 00 	mv	s2, a3
180003cb0: 93 04 07 00 	mv	s1, a4
180003cb4: 63 82 05 2c 	beqz	a1, 0x180003f78 <vx_spawn_threads+0x2f0>
180003cb8: 63 04 06 18 	beqz	a2, 0x180003e40 <vx_spawn_threads+0x1b8>
180003cbc: 63 16 05 30 	bnez	a0, 0x180003fc8 <vx_spawn_threads+0x340>
180003cc0: 93 07 10 00 	li	a5, 0x1
180003cc4: 17 43 00 00 	auipc	t1, 0x4
180003cc8: 13 03 c3 ae 	addi	t1, t1, -0x514
180003ccc: 97 48 00 00 	auipc	a7, 0x4
180003cd0: 93 88 48 ad 	addi	a7, a7, -0x52c
180003cd4: 23 20 f3 00 	sw	a5, 0x0(t1)
180003cd8: 23 a0 f8 00 	sw	a5, 0x0(a7)
180003cdc: 13 08 10 00 	li	a6, 0x1
180003ce0: 13 07 10 00 	li	a4, 0x1
180003ce4: 23 22 e3 00 	sw	a4, 0x4(t1)
180003ce8: 23 a2 e8 00 	sw	a4, 0x4(a7)
180003cec: 13 05 10 00 	li	a0, 0x1
180003cf0: 23 24 e3 00 	sw	a4, 0x8(t1)
180003cf4: 23 a4 a8 00 	sw	a0, 0x8(a7)
180003cf8: f3 2e 20 fc 	csrr	t4, nw
180003cfc: f3 25 10 fc 	csrr	a1, nw
180003d00: 1b 8e 05 00 	sext.w	t3, a1
180003d04: 73 25 00 fc 	csrr	a0, nt
180003d08: 73 23 20 cc 	csrr	t1, cid
180003d0c: 3b 86 a5 02 	mulw	a2, a1, a0
180003d10: 9b 08 03 00 	sext.w	a7, t1
180003d14: 63 68 f6 40 	bltu	a2, a5, 0x180004124 <vx_spawn_threads+0x49c>
180003d18: 93 06 10 00 	li	a3, 0x1
180003d1c: 63 fc f6 16 	bgeu	a3, a5, 0x180003e94 <vx_spawn_threads+0x20c>
180003d20: 3b f6 a7 02 	remuw	a2, a5, a0
180003d24: 13 07 f0 ff 	li	a4, -0x1
180003d28: bb d6 a7 02 	divuw	a3, a5, a0
180003d2c: 63 0a 06 00 	beqz	a2, 0x180003d40 <vx_spawn_threads+0xb8>
180003d30: 13 07 10 00 	li	a4, 0x1
180003d34: 3b 17 c7 00 	sllw	a4, a4, a2
180003d38: 1b 07 f7 ff 	addiw	a4, a4, -0x1
180003d3c: 9b 86 16 00 	addiw	a3, a3, 0x1
180003d40: 1b 85 f5 ff 	addiw	a0, a1, -0x1
180003d44: 1b 86 0e 00 	sext.w	a2, t4
180003d48: bb 87 06 03 	mulw	a5, a3, a6
180003d4c: bb 87 a7 00 	addw	a5, a5, a0
180003d50: 3b d5 b7 02 	divuw	a0, a5, a1
180003d54: 93 07 05 00 	mv	a5, a0
180003d58: 63 74 a6 00 	bgeu	a2, a0, 0x180003d60 <vx_spawn_threads+0xd8>
180003d5c: 93 87 0e 00 	mv	a5, t4
180003d60: 1b 86 07 00 	sext.w	a2, a5
180003d64: 63 f8 c8 0a 	bgeu	a7, a2, 0x180003e14 <vx_spawn_threads+0x18c>
180003d68: 3b 7f f8 02 	remuw	t5, a6, a5
180003d6c: 3b 56 f8 02 	divuw	a2, a6, a5
180003d70: 13 05 0f 00 	mv	a0, t5
180003d74: 63 f4 e8 01 	bgeu	a7, t5, 0x180003d7c <vx_spawn_threads+0xf4>
180003d78: 1b 06 16 00 	addiw	a2, a2, 0x1
180003d7c: 13 17 07 02 	slli	a4, a4, 0x20
180003d80: bb d5 d5 02 	divuw	a1, a1, a3
180003d84: bb 8e c6 02 	mulw	t4, a3, a2
180003d88: 13 98 05 02 	slli	a6, a1, 0x20
180003d8c: 13 58 08 02 	srli	a6, a6, 0x20
180003d90: 33 68 e8 00 	or	a6, a6, a4
180003d94: 93 87 0e 00 	mv	a5, t4
180003d98: 63 66 de 29 	bltu	t3, t4, 0x180004024 <vx_spawn_threads+0x39c>
180003d9c: 13 07 00 00 	li	a4, 0x0
180003da0: 13 0e 10 00 	li	t3, 0x1
180003da4: 23 34 21 01 	sd	s2, 0x8(sp)
180003da8: 23 38 91 00 	sd	s1, 0x10(sp)
180003dac: bb 07 66 02 	mulw	a5, a2, t1
180003db0: 63 f4 e8 01 	bgeu	a7, t5, 0x180003db8 <vx_spawn_threads+0x130>
180003db4: 13 05 03 00 	mv	a0, t1
180003db8: 13 06 f0 ff 	li	a2, -0x1
180003dbc: 13 56 06 02 	srli	a2, a2, 0x20
180003dc0: bb 87 a7 00 	addw	a5, a5, a0
180003dc4: 93 15 0e 02 	slli	a1, t3, 0x20
180003dc8: b3 77 f6 00 	and	a5, a2, a5
180003dcc: 13 95 06 02 	slli	a0, a3, 0x20
180003dd0: 33 77 c7 00 	and	a4, a4, a2
180003dd4: b3 e7 b7 00 	or	a5, a5, a1
180003dd8: 33 67 a7 00 	or	a4, a4, a0
180003ddc: 23 3c f1 00 	sd	a5, 0x18(sp)
180003de0: 23 30 e1 02 	sd	a4, 0x20(sp)
180003de4: 23 34 01 03 	sd	a6, 0x28(sp)
180003de8: 93 07 81 00 	addi	a5, sp, 0x8
180003dec: 73 90 07 34 	csrw	mscratch, a5
180003df0: 97 47 00 00 	auipc	a5, 0x4
180003df4: 23 a6 d7 9a 	sw	a3, -0x654(a5)
180003df8: 97 07 00 00 	auipc	a5, 0x0
180003dfc: 93 87 87 da 	addi	a5, a5, -0x258
180003e00: 0b 90 fe 00 	vx_wspawn	t4, a5
180003e04: ef f0 df d9 	jal	0x180003ba0 <process_thread_groups_stub>
180003e08: 93 07 10 00 	li	a5, 0x1
180003e0c: 13 07 00 00 	li	a4, 0x0
180003e10: 0b 90 e7 00 	vx_wspawn	a5, a4
180003e14: 13 05 00 00 	li	a0, 0x0
180003e18: 83 30 81 06 	ld	ra, 0x68(sp)
180003e1c: 03 34 01 06 	ld	s0, 0x60(sp)
180003e20: 83 34 81 05 	ld	s1, 0x58(sp)
180003e24: 03 39 01 05 	ld	s2, 0x50(sp)
180003e28: 83 39 81 04 	ld	s3, 0x48(sp)
180003e2c: 03 3a 01 04 	ld	s4, 0x40(sp)
180003e30: 83 3a 81 03 	ld	s5, 0x38(sp)
180003e34: 03 3b 01 03 	ld	s6, 0x30(sp)
180003e38: 13 01 01 07 	addi	sp, sp, 0x70
180003e3c: 67 80 00 00 	ret
180003e40: 63 0e 05 1e 	beqz	a0, 0x18000403c <vx_spawn_threads+0x3b4>
180003e44: 03 a8 05 00 	lw	a6, 0x0(a1)
180003e48: 17 43 00 00 	auipc	t1, 0x4
180003e4c: 13 03 83 96 	addi	t1, t1, -0x698
180003e50: 97 48 00 00 	auipc	a7, 0x4
180003e54: 93 88 08 95 	addi	a7, a7, -0x6b0
180003e58: 93 07 10 00 	li	a5, 0x1
180003e5c: 23 20 03 01 	sw	a6, 0x0(t1)
180003e60: 23 a0 f8 00 	sw	a5, 0x0(a7)
180003e64: 63 0c f5 1e 	beq	a0, a5, 0x18000405c <vx_spawn_threads+0x3d4>
180003e68: 03 a7 45 00 	lw	a4, 0x4(a1)
180003e6c: 93 06 20 00 	li	a3, 0x2
180003e70: 23 a2 f8 00 	sw	a5, 0x4(a7)
180003e74: 23 22 e3 00 	sw	a4, 0x4(t1)
180003e78: 3b 08 e8 02 	mulw	a6, a6, a4
180003e7c: 63 00 d5 2a 	beq	a0, a3, 0x18000411c <vx_spawn_threads+0x494>
180003e80: 03 a7 85 00 	lw	a4, 0x8(a1)
180003e84: 3b 08 e8 02 	mulw	a6, a6, a4
180003e88: 13 05 10 00 	li	a0, 0x1
180003e8c: 93 07 10 00 	li	a5, 0x1
180003e90: 6f f0 1f e6 	j	0x180003cf0 <vx_spawn_threads+0x68>
180003e94: 9b 07 f8 ff 	addiw	a5, a6, -0x1
180003e98: bb 87 c7 00 	addw	a5, a5, a2
180003e9c: bb d6 c7 02 	divuw	a3, a5, a2
180003ea0: 17 47 00 00 	auipc	a4, 0x4
180003ea4: 23 2e 07 8e 	sw	zero, -0x704(a4)
180003ea8: 1b 87 0e 00 	sext.w	a4, t4
180003eac: 93 87 06 00 	mv	a5, a3
180003eb0: 63 74 d7 00 	bgeu	a4, a3, 0x180003eb8 <vx_spawn_threads+0x230>
180003eb4: 93 87 0e 00 	mv	a5, t4
180003eb8: 1b 87 07 00 	sext.w	a4, a5
180003ebc: e3 fc e8 f4 	bgeu	a7, a4, 0x180003e14 <vx_spawn_threads+0x18c>
180003ec0: 3b 5a f8 02 	divuw	s4, a6, a5
180003ec4: 93 0a 10 00 	li	s5, 0x1
180003ec8: 3b 5b aa 02 	divuw	s6, s4, a0
180003ecc: bb 79 aa 02 	remuw	s3, s4, a0
180003ed0: 13 07 0b 00 	mv	a4, s6
180003ed4: 3b 78 f8 02 	remuw	a6, a6, a5
180003ed8: 3b 05 65 03 	mulw	a0, a0, s6
180003edc: 63 70 6e 03 	bgeu	t3, s6, 0x180003efc <vx_spawn_threads+0x274>
180003ee0: 13 0b 0e 00 	mv	s6, t3
180003ee4: bb 5a b7 02 	divuw	s5, a4, a1
180003ee8: 3b 77 b7 02 	remuw	a4, a4, a1
180003eec: 93 9a 0a 02 	slli	s5, s5, 0x20
180003ef0: 93 da 0a 02 	srli	s5, s5, 0x20
180003ef4: 13 17 07 02 	slli	a4, a4, 0x20
180003ef8: b3 ea ea 00 	or	s5, s5, a4
180003efc: 9b 07 08 00 	sext.w	a5, a6
180003f00: 3b 0a 43 03 	mulw	s4, t1, s4
180003f04: 63 e8 f8 12 	bltu	a7, a5, 0x180004034 <vx_spawn_threads+0x3ac>
180003f08: bb 05 0a 01 	addw	a1, s4, a6
180003f0c: 3b 06 b5 00 	addw	a2, a0, a1
180003f10: 17 25 00 00 	auipc	a0, 0x2
180003f14: 13 05 85 49 	addi	a0, a0, 0x498
180003f18: 13 8a 05 00 	mv	s4, a1
180003f1c: 13 04 06 00 	mv	s0, a2
180003f20: ef f0 5f 96 	jal	0x180003884 <vx_printf>
180003f24: 93 07 81 00 	addi	a5, sp, 0x8
180003f28: 23 34 21 01 	sd	s2, 0x8(sp)
180003f2c: 23 38 91 00 	sd	s1, 0x10(sp)
180003f30: 23 2c 41 01 	sw	s4, 0x18(sp)
180003f34: 23 2e 81 00 	sw	s0, 0x1c(sp)
180003f38: 23 30 51 03 	sd	s5, 0x20(sp)
180003f3c: 73 90 07 34 	csrw	mscratch, a5
180003f40: 63 14 0b 16 	bnez	s6, 0x1800040a8 <vx_spawn_threads+0x420>
180003f44: 93 85 09 00 	mv	a1, s3
180003f48: 17 25 00 00 	auipc	a0, 0x2
180003f4c: 13 05 05 49 	addi	a0, a0, 0x490
180003f50: ef f0 5f 93 	jal	0x180003884 <vx_printf>
180003f54: e3 8a 09 ea 	beqz	s3, 0x180003e08 <vx_spawn_threads+0x180>
180003f58: 93 07 10 00 	li	a5, 0x1
180003f5c: bb 97 37 01 	sllw	a5, a5, s3
180003f60: 9b 87 f7 ff 	addiw	a5, a5, -0x1
180003f64: 0b 80 07 00 	vx_tmc	a5
180003f68: ef f0 9f c8 	jal	0x180003bf0 <process_remaining_threads>
180003f6c: 13 05 10 00 	li	a0, 0x1
180003f70: 0b 00 05 00 	vx_tmc	a0
180003f74: 6f f0 5f e9 	j	0x180003e08 <vx_spawn_threads+0x180>
180003f78: 63 0a 06 14 	beqz	a2, 0x1800040cc <vx_spawn_threads+0x444>
180003f7c: 63 0a 05 0e 	beqz	a0, 0x180004070 <vx_spawn_threads+0x3e8>
180003f80: 83 27 06 00 	lw	a5, 0x0(a2)
180003f84: 17 43 00 00 	auipc	t1, 0x4
180003f88: 13 03 c3 82 	addi	t1, t1, -0x7d4
180003f8c: 13 07 10 00 	li	a4, 0x1
180003f90: 97 48 00 00 	auipc	a7, 0x4
180003f94: 93 88 08 81 	addi	a7, a7, -0x7f0
180003f98: 23 20 e3 00 	sw	a4, 0x0(t1)
180003f9c: 23 a0 f8 00 	sw	a5, 0x0(a7)
180003fa0: 63 08 e5 16 	beq	a0, a4, 0x180004110 <vx_spawn_threads+0x488>
180003fa4: 83 26 46 00 	lw	a3, 0x4(a2)
180003fa8: 93 05 20 00 	li	a1, 0x2
180003fac: 23 22 e3 00 	sw	a4, 0x4(t1)
180003fb0: 23 a2 d8 00 	sw	a3, 0x4(a7)
180003fb4: bb 87 d7 02 	mulw	a5, a5, a3
180003fb8: 63 02 b5 18 	beq	a0, a1, 0x18000413c <vx_spawn_threads+0x4b4>
180003fbc: 03 25 86 00 	lw	a0, 0x8(a2)
180003fc0: bb 87 a7 02 	mulw	a5, a5, a0
180003fc4: 6f 00 80 0d 	j	0x18000409c <vx_spawn_threads+0x414>
180003fc8: 03 a8 05 00 	lw	a6, 0x0(a1)
180003fcc: 83 27 06 00 	lw	a5, 0x0(a2)
180003fd0: 17 33 00 00 	auipc	t1, 0x3
180003fd4: 13 03 03 7e 	addi	t1, t1, 0x7e0
180003fd8: 97 38 00 00 	auipc	a7, 0x3
180003fdc: 93 88 88 7c 	addi	a7, a7, 0x7c8
180003fe0: 23 20 03 01 	sw	a6, 0x0(t1)
180003fe4: 23 a0 f8 00 	sw	a5, 0x0(a7)
180003fe8: 13 07 10 00 	li	a4, 0x1
180003fec: e3 0a e5 ce 	beq	a0, a4, 0x180003ce0 <vx_spawn_threads+0x58>
180003ff0: 83 a6 45 00 	lw	a3, 0x4(a1)
180003ff4: 03 27 46 00 	lw	a4, 0x4(a2)
180003ff8: 93 0e 20 00 	li	t4, 0x2
180003ffc: 23 22 d3 00 	sw	a3, 0x4(t1)
180004000: 23 a2 e8 00 	sw	a4, 0x4(a7)
180004004: 3b 08 d8 02 	mulw	a6, a6, a3
180004008: bb 87 e7 02 	mulw	a5, a5, a4
18000400c: 63 0c d5 0f 	beq	a0, t4, 0x180004104 <vx_spawn_threads+0x47c>
180004010: 03 a7 85 00 	lw	a4, 0x8(a1)
180004014: 03 25 86 00 	lw	a0, 0x8(a2)
180004018: 3b 08 e8 02 	mulw	a6, a6, a4
18000401c: bb 87 a7 02 	mulw	a5, a5, a0
180004020: 6f f0 1f cd 	j	0x180003cf0 <vx_spawn_threads+0x68>
180004024: bb 8e b6 02 	mulw	t4, a3, a1
180004028: 3b de d7 03 	divuw	t3, a5, t4
18000402c: 3b f7 d7 03 	remuw	a4, a5, t4
180004030: 6f f0 5f d7 	j	0x180003da4 <vx_spawn_threads+0x11c>
180004034: 13 08 03 00 	mv	a6, t1
180004038: 6f f0 1f ed 	j	0x180003f08 <vx_spawn_threads+0x280>
18000403c: 93 07 10 00 	li	a5, 0x1
180004040: 17 33 00 00 	auipc	t1, 0x3
180004044: 13 03 03 77 	addi	t1, t1, 0x770
180004048: 97 38 00 00 	auipc	a7, 0x3
18000404c: 93 88 88 75 	addi	a7, a7, 0x758
180004050: 23 20 f3 00 	sw	a5, 0x0(t1)
180004054: 23 a0 f8 00 	sw	a5, 0x0(a7)
180004058: 13 08 10 00 	li	a6, 0x1
18000405c: 93 07 10 00 	li	a5, 0x1
180004060: 23 22 f3 00 	sw	a5, 0x4(t1)
180004064: 23 a2 f8 00 	sw	a5, 0x4(a7)
180004068: 13 07 10 00 	li	a4, 0x1
18000406c: 6f f0 df e1 	j	0x180003e88 <vx_spawn_threads+0x200>
180004070: 93 07 10 00 	li	a5, 0x1
180004074: 93 97 07 02 	slli	a5, a5, 0x20
180004078: 93 87 17 00 	addi	a5, a5, 0x1
18000407c: 17 33 00 00 	auipc	t1, 0x3
180004080: 13 03 43 73 	addi	t1, t1, 0x734
180004084: 97 38 00 00 	auipc	a7, 0x3
180004088: 93 88 c8 71 	addi	a7, a7, 0x71c
18000408c: 23 30 f3 00 	sd	a5, 0x0(t1)
180004090: 23 b0 f8 00 	sd	a5, 0x0(a7)
180004094: 13 05 10 00 	li	a0, 0x1
180004098: 93 07 10 00 	li	a5, 0x1
18000409c: 13 07 10 00 	li	a4, 0x1
1800040a0: 13 08 10 00 	li	a6, 0x1
1800040a4: 6f f0 df c4 	j	0x180003cf0 <vx_spawn_threads+0x68>
1800040a8: 97 07 00 00 	auipc	a5, 0x0
1800040ac: 93 87 47 97 	addi	a5, a5, -0x68c
1800040b0: 0b 10 fb 00 	vx_wspawn	s6, a5
1800040b4: 93 07 f0 ff 	li	a5, -0x1
1800040b8: 0b 80 07 00 	vx_tmc	a5
1800040bc: ef f0 9f 82 	jal	0x1800038e4 <process_threads>
1800040c0: 13 05 10 00 	li	a0, 0x1
1800040c4: 0b 00 05 00 	vx_tmc	a0
1800040c8: 6f f0 df e7 	j	0x180003f44 <vx_spawn_threads+0x2bc>
1800040cc: 93 07 10 00 	li	a5, 0x1
1800040d0: 93 97 07 02 	slli	a5, a5, 0x20
1800040d4: 93 87 17 00 	addi	a5, a5, 0x1
1800040d8: 17 33 00 00 	auipc	t1, 0x3
1800040dc: 13 03 83 6d 	addi	t1, t1, 0x6d8
1800040e0: 97 38 00 00 	auipc	a7, 0x3
1800040e4: 93 88 08 6c 	addi	a7, a7, 0x6c0
1800040e8: 23 30 f3 00 	sd	a5, 0x0(t1)
1800040ec: 23 b0 f8 00 	sd	a5, 0x0(a7)
1800040f0: 13 07 10 00 	li	a4, 0x1
1800040f4: 13 05 10 00 	li	a0, 0x1
1800040f8: 13 08 10 00 	li	a6, 0x1
1800040fc: 93 07 10 00 	li	a5, 0x1
180004100: 6f f0 1f bf 	j	0x180003cf0 <vx_spawn_threads+0x68>
180004104: 13 07 10 00 	li	a4, 0x1
180004108: 13 05 10 00 	li	a0, 0x1
18000410c: 6f f0 5f be 	j	0x180003cf0 <vx_spawn_threads+0x68>
180004110: 23 22 a3 00 	sw	a0, 0x4(t1)
180004114: 23 a2 a8 00 	sw	a0, 0x4(a7)
180004118: 6f f0 5f f8 	j	0x18000409c <vx_spawn_threads+0x414>
18000411c: 13 07 10 00 	li	a4, 0x1
180004120: 6f f0 9f d6 	j	0x180003e88 <vx_spawn_threads+0x200>
180004124: 93 85 07 00 	mv	a1, a5
180004128: 17 25 00 00 	auipc	a0, 0x2
18000412c: 13 05 05 25 	addi	a0, a0, 0x250
180004130: ef f0 4f f5 	jal	0x180003884 <vx_printf>
180004134: 13 05 f0 ff 	li	a0, -0x1
180004138: 6f f0 1f ce 	j	0x180003e18 <vx_spawn_threads+0x190>
18000413c: 13 05 10 00 	li	a0, 0x1
180004140: 6f f0 df f5 	j	0x18000409c <vx_spawn_threads+0x414>

0000000180004144 <vx_serial>:
180004144: 13 01 81 fc 	addi	sp, sp, -0x38
180004148: 23 38 11 02 	sd	ra, 0x30(sp)
18000414c: 23 34 51 03 	sd	s5, 0x28(sp)
180004150: 23 30 41 03 	sd	s4, 0x20(sp)
180004154: 23 3c 31 01 	sd	s3, 0x18(sp)
180004158: 23 38 21 01 	sd	s2, 0x10(sp)
18000415c: 23 34 91 00 	sd	s1, 0x8(sp)
180004160: 23 30 81 00 	sd	s0, 0x0(sp)
180004164: 13 0a 05 00 	mv	s4, a0
180004168: 93 89 05 00 	mv	s3, a1
18000416c: 73 29 00 fc 	csrr	s2, nt
180004170: f3 24 00 cc 	csrr	s1, tid
180004174: 13 04 00 00 	li	s0, 0x0

0000000180004178 <label_loop>:
180004178: b3 02 94 40 	sub	t0, s0, s1
18000417c: 13 b3 12 00 	seqz	t1, t0
180004180: 8b 2a 03 00 	vx_split	s5, t1
180004184: 63 96 02 00 	bnez	t0, 0x180004190 <label_join>
180004188: 13 85 09 00 	mv	a0, s3
18000418c: e7 00 0a 00 	jalr	s4

0000000180004190 <label_join>:
180004190: 0b b0 0a 00 	vx_join	s5
180004194: 13 04 14 00 	addi	s0, s0, 0x1
180004198: e3 40 24 ff 	blt	s0, s2, 0x180004178 <label_loop>
18000419c: 83 30 01 03 	ld	ra, 0x30(sp)
1800041a0: 83 3a 81 02 	ld	s5, 0x28(sp)
1800041a4: 03 3a 01 02 	ld	s4, 0x20(sp)
1800041a8: 83 39 81 01 	ld	s3, 0x18(sp)
1800041ac: 03 39 01 01 	ld	s2, 0x10(sp)
1800041b0: 83 34 81 00 	ld	s1, 0x8(sp)
1800041b4: 03 34 01 00 	ld	s0, 0x0(sp)
1800041b8: 13 01 81 03 	addi	sp, sp, 0x38
1800041bc: 67 80 00 00 	ret

00000001800041c0 <vx_perf_dump>:
1800041c0: 73 27 20 cc 	csrr	a4, cid
1800041c4: 1b 07 07 00 	sext.w	a4, a4
1800041c8: 13 17 87 00 	slli	a4, a4, 0x8
1800041cc: 93 07 07 08 	addi	a5, a4, 0x80
1800041d0: f3 26 00 b0 	csrr	a3, mcycle
1800041d4: 23 30 d7 08 	sd	a3, 0x80(a4)
1800041d8: 73 27 20 b0 	csrr	a4, minstret
1800041dc: 23 b8 e7 00 	sd	a4, 0x10(a5)
1800041e0: 73 27 30 b0 	csrr	a4, mhpmcounter3
1800041e4: 23 bc e7 00 	sd	a4, 0x18(a5)
1800041e8: 73 27 40 b0 	csrr	a4, mhpmcounter4
1800041ec: 23 b0 e7 02 	sd	a4, 0x20(a5)
1800041f0: 73 27 50 b0 	csrr	a4, mhpmcounter5
1800041f4: 23 b4 e7 02 	sd	a4, 0x28(a5)
1800041f8: 73 27 60 b0 	csrr	a4, mhpmcounter6
1800041fc: 23 b8 e7 02 	sd	a4, 0x30(a5)
180004200: 73 27 70 b0 	csrr	a4, mhpmcounter7
180004204: 23 bc e7 02 	sd	a4, 0x38(a5)
180004208: 73 27 80 b0 	csrr	a4, mhpmcounter8
18000420c: 23 b0 e7 04 	sd	a4, 0x40(a5)
180004210: 73 27 90 b0 	csrr	a4, mhpmcounter9
180004214: 23 b4 e7 04 	sd	a4, 0x48(a5)
180004218: 73 27 a0 b0 	csrr	a4, mhpmcounter10
18000421c: 23 b8 e7 04 	sd	a4, 0x50(a5)
180004220: 73 27 b0 b0 	csrr	a4, mhpmcounter11
180004224: 23 bc e7 04 	sd	a4, 0x58(a5)
180004228: 73 27 c0 b0 	csrr	a4, mhpmcounter12
18000422c: 23 b0 e7 06 	sd	a4, 0x60(a5)
180004230: 73 27 d0 b0 	csrr	a4, mhpmcounter13
180004234: 23 b4 e7 06 	sd	a4, 0x68(a5)
180004238: 73 27 e0 b0 	csrr	a4, mhpmcounter14
18000423c: 23 b8 e7 06 	sd	a4, 0x70(a5)
180004240: 73 27 f0 b0 	csrr	a4, mhpmcounter15
180004244: 23 bc e7 06 	sd	a4, 0x78(a5)
180004248: 73 27 00 b1 	csrr	a4, mhpmcounter16
18000424c: 23 b0 e7 08 	sd	a4, 0x80(a5)
180004250: 73 27 10 b1 	csrr	a4, mhpmcounter17
180004254: 23 b4 e7 08 	sd	a4, 0x88(a5)
180004258: 73 27 20 b1 	csrr	a4, mhpmcounter18
18000425c: 23 b8 e7 08 	sd	a4, 0x90(a5)
180004260: 73 27 30 b1 	csrr	a4, mhpmcounter19
180004264: 23 bc e7 08 	sd	a4, 0x98(a5)
180004268: 73 27 40 b1 	csrr	a4, mhpmcounter20
18000426c: 23 b0 e7 0a 	sd	a4, 0xa0(a5)
180004270: 73 27 50 b1 	csrr	a4, mhpmcounter21
180004274: 23 b4 e7 0a 	sd	a4, 0xa8(a5)
180004278: 73 27 60 b1 	csrr	a4, mhpmcounter22
18000427c: 23 b8 e7 0a 	sd	a4, 0xb0(a5)
180004280: 73 27 70 b1 	csrr	a4, mhpmcounter23
180004284: 23 bc e7 0a 	sd	a4, 0xb8(a5)
180004288: 73 27 80 b1 	csrr	a4, mhpmcounter24
18000428c: 23 b0 e7 0c 	sd	a4, 0xc0(a5)
180004290: 73 27 90 b1 	csrr	a4, mhpmcounter25
180004294: 23 b4 e7 0c 	sd	a4, 0xc8(a5)
180004298: 73 27 a0 b1 	csrr	a4, mhpmcounter26
18000429c: 23 b8 e7 0c 	sd	a4, 0xd0(a5)
1800042a0: 73 27 b0 b1 	csrr	a4, mhpmcounter27
1800042a4: 23 bc e7 0c 	sd	a4, 0xd8(a5)
1800042a8: 73 27 c0 b1 	csrr	a4, mhpmcounter28
1800042ac: 23 b0 e7 0e 	sd	a4, 0xe0(a5)
1800042b0: 73 27 d0 b1 	csrr	a4, mhpmcounter29
1800042b4: 23 b4 e7 0e 	sd	a4, 0xe8(a5)
1800042b8: 73 27 e0 b1 	csrr	a4, mhpmcounter30
1800042bc: 23 b8 e7 0e 	sd	a4, 0xf0(a5)
1800042c0: 73 27 f0 b1 	csrr	a4, mhpmcounter31
1800042c4: 23 bc e7 0e 	sd	a4, 0xf8(a5)
1800042c8: 67 80 00 00 	ret

00000001800042cc <_out_null>:
1800042cc: 67 80 00 00 	ret

00000001800042d0 <_out_rev>:
1800042d0: 13 01 01 fa 	addi	sp, sp, -0x60
1800042d4: 23 34 91 04 	sd	s1, 0x48(sp)
1800042d8: 23 30 21 05 	sd	s2, 0x40(sp)
1800042dc: 23 3c 31 03 	sd	s3, 0x38(sp)
1800042e0: 23 38 41 03 	sd	s4, 0x30(sp)
1800042e4: 23 34 51 03 	sd	s5, 0x28(sp)
1800042e8: 23 30 61 03 	sd	s6, 0x20(sp)
1800042ec: 93 0a 06 00 	mv	s5, a2
1800042f0: 23 38 81 01 	sd	s8, 0x10(sp)
1800042f4: 23 34 91 01 	sd	s9, 0x8(sp)
1800042f8: 23 30 a1 01 	sd	s10, 0x0(sp)
1800042fc: 23 3c 11 04 	sd	ra, 0x58(sp)
180004300: 23 38 81 04 	sd	s0, 0x50(sp)
180004304: 23 3c 71 01 	sd	s7, 0x18(sp)
180004308: 13 f6 38 00 	andi	a2, a7, 0x3
18000430c: 93 8c 08 00 	mv	s9, a7
180004310: 13 09 05 00 	mv	s2, a0
180004314: 93 89 05 00 	mv	s3, a1
180004318: 13 8a 06 00 	mv	s4, a3
18000431c: 13 0b 07 00 	mv	s6, a4
180004320: 13 8d 07 00 	mv	s10, a5
180004324: 13 0c 08 00 	mv	s8, a6
180004328: 93 84 0a 00 	mv	s1, s5
18000432c: 63 1c 06 02 	bnez	a2, 0x180004364 <_out_rev+0x94>
180004330: 93 17 08 02 	slli	a5, a6, 0x20
180004334: 93 d7 07 02 	srli	a5, a5, 0x20
180004338: b3 84 a7 41 	sub	s1, a5, s10
18000433c: b3 84 54 01 	add	s1, s1, s5
180004340: 13 84 0a 00 	mv	s0, s5
180004344: 63 70 fd 0c 	bgeu	s10, a5, 0x180004404 <_out_rev+0x134>
180004348: 13 06 04 00 	mv	a2, s0
18000434c: 93 06 0a 00 	mv	a3, s4
180004350: 13 04 14 00 	addi	s0, s0, 0x1
180004354: 93 85 09 00 	mv	a1, s3
180004358: 13 05 00 02 	li	a0, 0x20
18000435c: e7 00 09 00 	jalr	s2
180004360: e3 14 94 fe 	bne	s0, s1, 0x180004348 <_out_rev+0x78>
180004364: 33 04 ab 01 	add	s0, s6, s10
180004368: b3 0b 94 00 	add	s7, s0, s1
18000436c: 63 02 0d 02 	beqz	s10, 0x180004390 <_out_rev+0xc0>
180004370: 03 45 f4 ff 	lbu	a0, -0x1(s0)
180004374: 33 86 8b 40 	sub	a2, s7, s0
180004378: 93 06 0a 00 	mv	a3, s4
18000437c: 13 04 f4 ff 	addi	s0, s0, -0x1
180004380: 93 85 09 00 	mv	a1, s3
180004384: e7 00 09 00 	jalr	s2
180004388: e3 14 8b fe 	bne	s6, s0, 0x180004370 <_out_rev+0xa0>
18000438c: b3 84 a4 01 	add	s1, s1, s10
180004390: 93 fc 2c 00 	andi	s9, s9, 0x2
180004394: 63 8a 0c 02 	beqz	s9, 0x1800043c8 <_out_rev+0xf8>
180004398: 13 1c 0c 02 	slli	s8, s8, 0x20
18000439c: b3 8a 54 41 	sub	s5, s1, s5
1800043a0: 13 5c 0c 02 	srli	s8, s8, 0x20
1800043a4: 63 f2 8a 03 	bgeu	s5, s8, 0x1800043c8 <_out_rev+0xf8>
1800043a8: 13 86 04 00 	mv	a2, s1
1800043ac: 93 8a 1a 00 	addi	s5, s5, 0x1
1800043b0: 93 06 0a 00 	mv	a3, s4
1800043b4: 93 85 09 00 	mv	a1, s3
1800043b8: 13 05 00 02 	li	a0, 0x20
1800043bc: 93 84 14 00 	addi	s1, s1, 0x1
1800043c0: e7 00 09 00 	jalr	s2
1800043c4: e3 e2 8a ff 	bltu	s5, s8, 0x1800043a8 <_out_rev+0xd8>
1800043c8: 83 30 81 05 	ld	ra, 0x58(sp)
1800043cc: 03 34 01 05 	ld	s0, 0x50(sp)
1800043d0: 03 39 01 04 	ld	s2, 0x40(sp)
1800043d4: 83 39 81 03 	ld	s3, 0x38(sp)
1800043d8: 03 3a 01 03 	ld	s4, 0x30(sp)
1800043dc: 83 3a 81 02 	ld	s5, 0x28(sp)
1800043e0: 03 3b 01 02 	ld	s6, 0x20(sp)
1800043e4: 83 3b 81 01 	ld	s7, 0x18(sp)
1800043e8: 03 3c 01 01 	ld	s8, 0x10(sp)
1800043ec: 83 3c 81 00 	ld	s9, 0x8(sp)
1800043f0: 03 3d 01 00 	ld	s10, 0x0(sp)
1800043f4: 13 85 04 00 	mv	a0, s1
1800043f8: 83 34 81 04 	ld	s1, 0x48(sp)
1800043fc: 13 01 01 06 	addi	sp, sp, 0x60
180004400: 67 80 00 00 	ret
180004404: 93 84 0a 00 	mv	s1, s5
180004408: 6f f0 df f5 	j	0x180004364 <_out_rev+0x94>

000000018000440c <_ntoa_long_long>:
18000440c: 13 01 01 fb 	addi	sp, sp, -0x50
180004410: 23 30 81 04 	sd	s0, 0x40(sp)
180004414: 03 24 81 05 	lw	s0, 0x58(sp)
180004418: 23 3c 91 02 	sd	s1, 0x38(sp)
18000441c: 23 38 21 03 	sd	s2, 0x30(sp)
180004420: 23 34 31 03 	sd	s3, 0x28(sp)
180004424: 23 34 11 04 	sd	ra, 0x48(sp)
180004428: 93 0e 08 00 	mv	t4, a6
18000442c: 13 0e 07 00 	mv	t3, a4
180004430: 03 28 01 05 	lw	a6, 0x50(sp)
180004434: 93 84 07 00 	mv	s1, a5
180004438: 93 79 04 40 	andi	s3, s0, 0x400
18000443c: 13 79 04 01 	andi	s2, s0, 0x10
180004440: 63 1a 07 00 	bnez	a4, 0x180004454 <_ntoa_long_long+0x48>
180004444: 13 09 04 00 	mv	s2, s0
180004448: 13 74 f4 fe 	andi	s0, s0, -0x11
18000444c: 63 9e 09 0a 	bnez	s3, 0x180004508 <_ntoa_long_long+0xfc>
180004450: 13 09 00 00 	li	s2, 0x0
180004454: 93 77 04 02 	andi	a5, s0, 0x20
180004458: 93 02 10 06 	li	t0, 0x61
18000445c: 63 9c 07 12 	bnez	a5, 0x180004594 <_ntoa_long_long+0x188>
180004460: 93 07 00 00 	li	a5, 0x0
180004464: 13 07 01 00 	mv	a4, sp
180004468: 93 03 90 00 	li	t2, 0x9
18000446c: 9b 82 62 ff 	addiw	t0, t0, -0xa
180004470: 93 00 00 02 	li	ra, 0x20
180004474: 6f 00 c0 00 	j	0x180004480 <_ntoa_long_long+0x74>
180004478: 63 8c 17 02 	beq	a5, ra, 0x1800044b0 <_ntoa_long_long+0xa4>
18000447c: 13 0e 03 00 	mv	t3, t1
180004480: 33 7f de 03 	remu	t5, t3, t4
180004484: 13 73 ff 0f 	andi	t1, t5, 0xff
180004488: 9b 0f 03 03 	addiw	t6, t1, 0x30
18000448c: 3b 83 62 00 	addw	t1, t0, t1
180004490: 13 73 f3 0f 	andi	t1, t1, 0xff
180004494: 63 e4 e3 01 	bltu	t2, t5, 0x18000449c <_ntoa_long_long+0x90>
180004498: 13 f3 ff 0f 	andi	t1, t6, 0xff
18000449c: 93 87 17 00 	addi	a5, a5, 0x1
1800044a0: 33 0f f7 00 	add	t5, a4, a5
1800044a4: a3 0f 6f fe 	sb	t1, -0x1(t5)
1800044a8: 33 53 de 03 	divu	t1, t3, t4
1800044ac: e3 76 de fd 	bgeu	t3, t4, 0x180004478 <_ntoa_long_long+0x6c>
1800044b0: 13 73 24 00 	andi	t1, s0, 0x2
1800044b4: 9b 83 0e 00 	sext.w	t2, t4
1800044b8: 63 02 03 06 	beqz	t1, 0x18000451c <_ntoa_long_long+0x110>
1800044bc: 63 00 09 12 	beqz	s2, 0x1800045dc <_ntoa_long_long+0x1d0>
1800044c0: 63 9e 09 16 	bnez	s3, 0x18000463c <_ntoa_long_long+0x230>
1800044c4: 63 9c 07 0c 	bnez	a5, 0x18000459c <_ntoa_long_long+0x190>
1800044c8: 93 07 00 01 	li	a5, 0x10
1800044cc: 63 80 fe 2c 	beq	t4, a5, 0x18000478c <_ntoa_long_long+0x380>
1800044d0: 93 07 20 00 	li	a5, 0x2
1800044d4: 63 86 f3 2c 	beq	t2, a5, 0x1800047a0 <_ntoa_long_long+0x394>
1800044d8: 93 07 00 03 	li	a5, 0x30
1800044dc: 23 00 f1 00 	sb	a5, 0x0(sp)
1800044e0: 13 0e 10 00 	li	t3, 0x1
1800044e4: 63 9e 04 18 	bnez	s1, 0x180004680 <_ntoa_long_long+0x274>
1800044e8: 93 77 44 00 	andi	a5, s0, 0x4
1800044ec: 63 86 07 22 	beqz	a5, 0x180004718 <_ntoa_long_long+0x30c>
1800044f0: 93 07 0e 02 	addi	a5, t3, 0x20
1800044f4: b3 88 27 00 	add	a7, a5, sp
1800044f8: 13 03 b0 02 	li	t1, 0x2b
1800044fc: 93 07 1e 00 	addi	a5, t3, 0x1
180004500: 23 80 68 fe 	sb	t1, -0x20(a7)
180004504: 6f 00 40 0e 	j	0x1800045e8 <_ntoa_long_long+0x1dc>
180004508: 13 79 29 00 	andi	s2, s2, 0x2
18000450c: 63 16 09 18 	bnez	s2, 0x180004698 <_ntoa_long_long+0x28c>
180004510: 9b 83 0e 00 	sext.w	t2, t4
180004514: 93 07 00 00 	li	a5, 0x0
180004518: 13 07 01 00 	mv	a4, sp
18000451c: 13 9e 08 02 	slli	t3, a7, 0x20
180004520: 13 5e 0e 02 	srli	t3, t3, 0x20
180004524: 63 14 08 0e 	bnez	a6, 0x18000460c <_ntoa_long_long+0x200>
180004528: e3 fa c7 f9 	bgeu	a5, t3, 0x1800044bc <_ntoa_long_long+0xb0>
18000452c: 13 03 00 02 	li	t1, 0x20
180004530: 93 72 14 00 	andi	t0, s0, 0x1
180004534: 63 8e 67 26 	beq	a5, t1, 0x1800047b0 <_ntoa_long_long+0x3a4>
180004538: 13 0f 00 03 	li	t5, 0x30
18000453c: 93 0f 00 02 	li	t6, 0x20
180004540: 6f 00 80 00 	j	0x180004548 <_ntoa_long_long+0x13c>
180004544: 63 8e f7 11 	beq	a5, t6, 0x180004660 <_ntoa_long_long+0x254>
180004548: 93 87 17 00 	addi	a5, a5, 0x1
18000454c: 33 03 f7 00 	add	t1, a4, a5
180004550: a3 0f e3 ff 	sb	t5, -0x1(t1)
180004554: e3 e8 c7 ff 	bltu	a5, t3, 0x180004544 <_ntoa_long_long+0x138>
180004558: e3 82 02 f6 	beqz	t0, 0x1800044bc <_ntoa_long_long+0xb0>
18000455c: 13 1f 08 02 	slli	t5, a6, 0x20
180004560: 13 5f 0f 02 	srli	t5, t5, 0x20
180004564: e3 fc e7 f5 	bgeu	a5, t5, 0x1800044bc <_ntoa_long_long+0xb0>
180004568: 13 03 00 02 	li	t1, 0x20
18000456c: 93 0f 00 03 	li	t6, 0x30
180004570: 93 02 00 02 	li	t0, 0x20
180004574: 63 96 67 00 	bne	a5, t1, 0x180004580 <_ntoa_long_long+0x174>
180004578: 6f 00 00 0f 	j	0x180004668 <_ntoa_long_long+0x25c>
18000457c: 63 8a 57 18 	beq	a5, t0, 0x180004710 <_ntoa_long_long+0x304>
180004580: 93 87 17 00 	addi	a5, a5, 0x1
180004584: 33 03 f7 00 	add	t1, a4, a5
180004588: a3 0f f3 ff 	sb	t6, -0x1(t1)
18000458c: e3 98 e7 ff 	bne	a5, t5, 0x18000457c <_ntoa_long_long+0x170>
180004590: 6f f0 df f2 	j	0x1800044bc <_ntoa_long_long+0xb0>
180004594: 93 02 10 04 	li	t0, 0x41
180004598: 6f f0 9f ec 	j	0x180004460 <_ntoa_long_long+0x54>
18000459c: 13 9e 08 02 	slli	t3, a7, 0x20
1800045a0: 13 5e 0e 02 	srli	t3, t3, 0x20
1800045a4: 63 08 fe 00 	beq	t3, a5, 0x1800045b4 <_ntoa_long_long+0x1a8>
1800045a8: 93 18 08 02 	slli	a7, a6, 0x20
1800045ac: 93 d8 08 02 	srli	a7, a7, 0x20
1800045b0: 63 96 f8 08 	bne	a7, a5, 0x18000463c <_ntoa_long_long+0x230>
1800045b4: 93 88 f7 ff 	addi	a7, a5, -0x1
1800045b8: 63 82 08 1a 	beqz	a7, 0x18000475c <_ntoa_long_long+0x350>
1800045bc: 13 03 00 01 	li	t1, 0x10
1800045c0: 63 8e 6e 1e 	beq	t4, t1, 0x1800047bc <_ntoa_long_long+0x3b0>
1800045c4: 13 03 20 00 	li	t1, 0x2
1800045c8: 63 86 63 12 	beq	t2, t1, 0x1800046f4 <_ntoa_long_long+0x2e8>
1800045cc: 93 88 08 02 	addi	a7, a7, 0x20
1800045d0: b3 88 28 00 	add	a7, a7, sp
1800045d4: 13 03 00 03 	li	t1, 0x30
1800045d8: 23 80 68 fe 	sb	t1, -0x20(a7)
1800045dc: 93 08 00 02 	li	a7, 0x20
1800045e0: 13 8e 07 00 	mv	t3, a5
1800045e4: e3 90 17 f1 	bne	a5, a7, 0x1800044e4 <_ntoa_long_long+0xd8>
1800045e8: 93 08 04 00 	mv	a7, s0
1800045ec: ef f0 5f ce 	jal	0x1800042d0 <_out_rev>
1800045f0: 83 30 81 04 	ld	ra, 0x48(sp)
1800045f4: 03 34 01 04 	ld	s0, 0x40(sp)
1800045f8: 83 34 81 03 	ld	s1, 0x38(sp)
1800045fc: 03 39 01 03 	ld	s2, 0x30(sp)
180004600: 83 39 81 02 	ld	s3, 0x28(sp)
180004604: 13 01 01 05 	addi	sp, sp, 0x50
180004608: 67 80 00 00 	ret
18000460c: 93 72 14 00 	andi	t0, s0, 0x1
180004610: 13 03 04 00 	mv	t1, s0
180004614: 63 88 02 08 	beqz	t0, 0x1800046a4 <_ntoa_long_long+0x298>
180004618: 63 98 04 0e 	bnez	s1, 0x180004708 <_ntoa_long_long+0x2fc>
18000461c: 13 73 c3 00 	andi	t1, t1, 0xc
180004620: 63 14 03 0e 	bnez	t1, 0x180004708 <_ntoa_long_long+0x2fc>
180004624: e3 fc c7 f3 	bgeu	a5, t3, 0x18000455c <_ntoa_long_long+0x150>
180004628: 13 03 00 02 	li	t1, 0x20
18000462c: e3 96 67 f0 	bne	a5, t1, 0x180004538 <_ntoa_long_long+0x12c>
180004630: 63 ec 07 03 	bltu	a5, a6, 0x180004668 <_ntoa_long_long+0x25c>
180004634: e3 0a 09 fa 	beqz	s2, 0x1800045e8 <_ntoa_long_long+0x1dc>
180004638: e3 86 09 e8 	beqz	s3, 0x1800044c4 <_ntoa_long_long+0xb8>
18000463c: 93 08 00 01 	li	a7, 0x10
180004640: 63 8e 1e 07 	beq	t4, a7, 0x1800046bc <_ntoa_long_long+0x2b0>
180004644: 93 08 20 00 	li	a7, 0x2
180004648: 63 8e 13 09 	beq	t2, a7, 0x1800046e4 <_ntoa_long_long+0x2d8>
18000464c: 93 08 00 02 	li	a7, 0x20
180004650: e3 8c 17 f9 	beq	a5, a7, 0x1800045e8 <_ntoa_long_long+0x1dc>
180004654: 93 88 07 00 	mv	a7, a5
180004658: 93 87 17 00 	addi	a5, a5, 0x1
18000465c: 6f f0 1f f7 	j	0x1800045cc <_ntoa_long_long+0x1c0>
180004660: 63 82 02 1a 	beqz	t0, 0x180004804 <_ntoa_long_long+0x3f8>
180004664: 63 f6 07 0b 	bgeu	a5, a6, 0x180004710 <_ntoa_long_long+0x304>
180004668: 93 07 00 02 	li	a5, 0x20
18000466c: e3 0e 09 f6 	beqz	s2, 0x1800045e8 <_ntoa_long_long+0x1dc>
180004670: 63 90 09 18 	bnez	s3, 0x1800047f0 <_ntoa_long_long+0x3e4>
180004674: e3 1a fe f2 	bne	t3, a5, 0x1800045a8 <_ntoa_long_long+0x19c>
180004678: 93 08 f0 01 	li	a7, 0x1f
18000467c: 6f f0 1f f4 	j	0x1800045bc <_ntoa_long_long+0x1b0>
180004680: 93 07 0e 02 	addi	a5, t3, 0x20
180004684: b3 88 27 00 	add	a7, a5, sp
180004688: 13 03 d0 02 	li	t1, 0x2d
18000468c: 93 07 1e 00 	addi	a5, t3, 0x1
180004690: 23 80 68 fe 	sb	t1, -0x20(a7)
180004694: 6f f0 5f f5 	j	0x1800045e8 <_ntoa_long_long+0x1dc>
180004698: 13 07 01 00 	mv	a4, sp
18000469c: e3 86 04 e4 	beqz	s1, 0x1800044e8 <_ntoa_long_long+0xdc>
1800046a0: 6f f0 1f fe 	j	0x180004680 <_ntoa_long_long+0x274>
1800046a4: e3 fc c7 e1 	bgeu	a5, t3, 0x1800044bc <_ntoa_long_long+0xb0>
1800046a8: 13 03 00 02 	li	t1, 0x20
1800046ac: e3 96 67 e8 	bne	a5, t1, 0x180004538 <_ntoa_long_long+0x12c>
1800046b0: e3 0c 09 f2 	beqz	s2, 0x1800045e8 <_ntoa_long_long+0x1dc>
1800046b4: e3 94 09 f8 	bnez	s3, 0x18000463c <_ntoa_long_long+0x230>
1800046b8: 6f f0 df ee 	j	0x1800045a4 <_ntoa_long_long+0x198>
1800046bc: 93 78 04 02 	andi	a7, s0, 0x20
1800046c0: 63 8e 08 06 	beqz	a7, 0x18000473c <_ntoa_long_long+0x330>
1800046c4: 93 08 00 02 	li	a7, 0x20
1800046c8: e3 80 17 f3 	beq	a5, a7, 0x1800045e8 <_ntoa_long_long+0x1dc>
1800046cc: 93 88 07 02 	addi	a7, a5, 0x20
1800046d0: b3 88 28 00 	add	a7, a7, sp
1800046d4: 13 03 80 05 	li	t1, 0x58
1800046d8: 23 80 68 fe 	sb	t1, -0x20(a7)
1800046dc: 93 87 17 00 	addi	a5, a5, 0x1
1800046e0: 6f f0 df f6 	j	0x18000464c <_ntoa_long_long+0x240>
1800046e4: 93 08 00 02 	li	a7, 0x20
1800046e8: e3 80 17 f1 	beq	a5, a7, 0x1800045e8 <_ntoa_long_long+0x1dc>
1800046ec: 93 88 07 00 	mv	a7, a5
1800046f0: 93 87 17 00 	addi	a5, a5, 0x1
1800046f4: 93 88 08 02 	addi	a7, a7, 0x20
1800046f8: b3 88 28 00 	add	a7, a7, sp
1800046fc: 13 03 20 06 	li	t1, 0x62
180004700: 23 80 68 fe 	sb	t1, -0x20(a7)
180004704: 6f f0 9f f4 	j	0x18000464c <_ntoa_long_long+0x240>
180004708: 1b 08 f8 ff 	addiw	a6, a6, -0x1
18000470c: 6f f0 9f f1 	j	0x180004624 <_ntoa_long_long+0x218>
180004710: 93 07 00 02 	li	a5, 0x20
180004714: 6f f0 df f9 	j	0x1800046b0 <_ntoa_long_long+0x2a4>
180004718: 93 78 84 00 	andi	a7, s0, 0x8
18000471c: 93 07 0e 00 	mv	a5, t3
180004720: e3 84 08 ec 	beqz	a7, 0x1800045e8 <_ntoa_long_long+0x1dc>
180004724: 93 08 0e 02 	addi	a7, t3, 0x20
180004728: 33 8e 28 00 	add	t3, a7, sp
18000472c: 93 08 00 02 	li	a7, 0x20
180004730: 93 87 17 00 	addi	a5, a5, 0x1
180004734: 23 00 1e ff 	sb	a7, -0x20(t3)
180004738: 6f f0 1f eb 	j	0x1800045e8 <_ntoa_long_long+0x1dc>
18000473c: 93 08 00 02 	li	a7, 0x20
180004740: e3 84 17 eb 	beq	a5, a7, 0x1800045e8 <_ntoa_long_long+0x1dc>
180004744: 93 88 07 02 	addi	a7, a5, 0x20
180004748: b3 88 28 00 	add	a7, a7, sp
18000474c: 13 03 80 07 	li	t1, 0x78
180004750: 23 80 68 fe 	sb	t1, -0x20(a7)
180004754: 93 87 17 00 	addi	a5, a5, 0x1
180004758: 6f f0 5f ef 	j	0x18000464c <_ntoa_long_long+0x240>
18000475c: 93 07 00 01 	li	a5, 0x10
180004760: e3 98 fe d6 	bne	t4, a5, 0x1800044d0 <_ntoa_long_long+0xc4>
180004764: 93 78 04 02 	andi	a7, s0, 0x20
180004768: 93 07 80 07 	li	a5, 0x78
18000476c: 63 84 08 00 	beqz	a7, 0x180004774 <_ntoa_long_long+0x368>
180004770: 93 07 80 05 	li	a5, 0x58
180004774: 23 00 f1 00 	sb	a5, 0x0(sp)
180004778: 93 07 00 03 	li	a5, 0x30
18000477c: a3 00 f1 00 	sb	a5, 0x1(sp)
180004780: 13 0e 20 00 	li	t3, 0x2
180004784: e3 82 04 d6 	beqz	s1, 0x1800044e8 <_ntoa_long_long+0xdc>
180004788: 6f f0 9f ef 	j	0x180004680 <_ntoa_long_long+0x274>
18000478c: 93 77 04 02 	andi	a5, s0, 0x20
180004790: 63 8c 07 00 	beqz	a5, 0x1800047a8 <_ntoa_long_long+0x39c>
180004794: 93 07 80 05 	li	a5, 0x58
180004798: 23 00 f1 00 	sb	a5, 0x0(sp)
18000479c: 6f f0 df fd 	j	0x180004778 <_ntoa_long_long+0x36c>
1800047a0: 93 07 20 06 	li	a5, 0x62
1800047a4: 6f f0 1f fd 	j	0x180004774 <_ntoa_long_long+0x368>
1800047a8: 93 07 80 07 	li	a5, 0x78
1800047ac: 6f f0 9f fc 	j	0x180004774 <_ntoa_long_long+0x368>
1800047b0: e3 80 02 f0 	beqz	t0, 0x1800046b0 <_ntoa_long_long+0x2a4>
1800047b4: e3 12 09 e8 	bnez	s2, 0x180004638 <_ntoa_long_long+0x22c>
1800047b8: 6f f0 1f e3 	j	0x1800045e8 <_ntoa_long_long+0x1dc>
1800047bc: 93 87 e7 ff 	addi	a5, a5, -0x2
1800047c0: 93 87 07 02 	addi	a5, a5, 0x20
1800047c4: 13 73 04 02 	andi	t1, s0, 0x20
1800047c8: b3 87 27 00 	add	a5, a5, sp
1800047cc: 63 1a 03 00 	bnez	t1, 0x1800047e0 <_ntoa_long_long+0x3d4>
1800047d0: 13 03 80 07 	li	t1, 0x78
1800047d4: 23 80 67 fe 	sb	t1, -0x20(a5)
1800047d8: 93 87 08 00 	mv	a5, a7
1800047dc: 6f f0 9f e7 	j	0x180004654 <_ntoa_long_long+0x248>
1800047e0: 13 03 80 05 	li	t1, 0x58
1800047e4: 23 80 67 fe 	sb	t1, -0x20(a5)
1800047e8: 93 87 08 00 	mv	a5, a7
1800047ec: 6f f0 9f e6 	j	0x180004654 <_ntoa_long_long+0x248>
1800047f0: 93 08 00 01 	li	a7, 0x10
1800047f4: e3 84 1e ed 	beq	t4, a7, 0x1800046bc <_ntoa_long_long+0x2b0>
1800047f8: 93 08 20 00 	li	a7, 0x2
1800047fc: e3 98 13 e5 	bne	t2, a7, 0x18000464c <_ntoa_long_long+0x240>
180004800: 6f f0 9f de 	j	0x1800045e8 <_ntoa_long_long+0x1dc>
180004804: e3 02 09 de 	beqz	s2, 0x1800045e8 <_ntoa_long_long+0x1dc>
180004808: e3 94 09 fe 	bnez	s3, 0x1800047f0 <_ntoa_long_long+0x3e4>
18000480c: e3 9e f8 d8 	bne	a7, a5, 0x1800045a8 <_ntoa_long_long+0x19c>
180004810: 93 08 f0 01 	li	a7, 0x1f
180004814: 6f f0 9f da 	j	0x1800045bc <_ntoa_long_long+0x1b0>

0000000180004818 <_out_char>:
180004818: 63 14 05 00 	bnez	a0, 0x180004820 <_out_char+0x8>
18000481c: 67 80 00 00 	ret
180004820: 6f f0 8f 81 	j	0x180003838 <vx_putchar>

0000000180004824 <_ftoa>:
180004824: 53 23 a5 a2 	feq.d	t1, fa0, fa0
180004828: 93 08 08 00 	mv	a7, a6
18000482c: 63 00 03 20 	beqz	t1, 0x180004a2c <_ftoa+0x208>
180004830: 17 38 00 00 	auipc	a6, 0x3
180004834: 87 37 08 ec 	fld	fa5, -0x140(a6)
180004838: 53 18 f5 a2 	flt.d	a6, fa0, fa5
18000483c: 63 12 08 26 	bnez	a6, 0x180004aa0 <_ftoa+0x27c>
180004840: 13 01 01 fc 	addi	sp, sp, -0x40
180004844: 23 34 91 02 	sd	s1, 0x28(sp)
180004848: 93 84 06 00 	mv	s1, a3
18000484c: 97 36 00 00 	auipc	a3, 0x3
180004850: 87 b7 c6 ea 	fld	fa5, -0x154(a3)
180004854: d3 96 a7 a2 	flt.d	a3, fa5, fa0
180004858: 23 38 81 02 	sd	s0, 0x30(sp)
18000485c: 23 3c 11 02 	sd	ra, 0x38(sp)
180004860: 23 30 21 03 	sd	s2, 0x20(sp)
180004864: 93 02 05 00 	mv	t0, a0
180004868: 93 83 05 00 	mv	t2, a1
18000486c: 13 04 06 00 	mv	s0, a2
180004870: 63 9c 06 16 	bnez	a3, 0x1800049e8 <_ftoa+0x1c4>
180004874: 97 36 00 00 	auipc	a3, 0x3
180004878: 87 b7 c6 e6 	fld	fa5, -0x194(a3)
18000487c: d3 96 a7 a2 	flt.d	a3, fa5, fa0
180004880: 63 9a 06 1e 	bnez	a3, 0x180004a74 <_ftoa+0x250>
180004884: 97 36 00 00 	auipc	a3, 0x3
180004888: 07 b7 c6 e7 	fld	fa4, -0x184(a3)
18000488c: d3 16 e5 a2 	flt.d	a3, fa0, fa4
180004890: 63 92 06 1e 	bnez	a3, 0x180004a74 <_ftoa+0x250>
180004894: 53 07 00 f2 	fmv.d.x	fa4, zero
180004898: 93 05 00 00 	li	a1, 0x0
18000489c: d3 16 e5 a2 	flt.d	a3, fa0, fa4
1800048a0: 63 94 06 1c 	bnez	a3, 0x180004a68 <_ftoa+0x244>
1800048a4: 93 f6 08 40 	andi	a3, a7, 0x400
1800048a8: 63 8c 06 18 	beqz	a3, 0x180004a40 <_ftoa+0x21c>
1800048ac: 93 06 90 00 	li	a3, 0x9
1800048b0: 63 fa e6 38 	bgeu	a3, a4, 0x180004c44 <_ftoa+0x420>
1800048b4: 1b 03 77 ff 	addiw	t1, a4, -0x9
1800048b8: 13 13 03 02 	slli	t1, t1, 0x20
1800048bc: 13 53 03 02 	srli	t1, t1, 0x20
1800048c0: 13 0e 00 00 	li	t3, 0x0
1800048c4: 13 0f 01 00 	mv	t5, sp
1800048c8: 13 06 00 03 	li	a2, 0x30
1800048cc: 93 06 00 02 	li	a3, 0x20
1800048d0: 13 0e 1e 00 	addi	t3, t3, 0x1
1800048d4: b3 0e cf 01 	add	t4, t5, t3
1800048d8: a3 8f ce fe 	sb	a2, -0x1(t4)
1800048dc: bb 0f c7 41 	subw	t6, a4, t3
1800048e0: 63 08 de 2c 	beq	t3, a3, 0x180004bb0 <_ftoa+0x38c>
1800048e4: e3 16 6e fe 	bne	t3, t1, 0x1800048d0 <_ftoa+0xac>
1800048e8: 53 87 f7 22 	fmv.d	fa4, fa5
1800048ec: d3 16 05 c2 	fcvt.w.d	a3, fa0, rtz
1800048f0: 17 37 00 00 	auipc	a4, 0x3
1800048f4: 87 36 87 e1 	fld	fa3, -0x1e8(a4)
1800048f8: d3 87 06 d2 	fcvt.d.w	fa5, a3
1800048fc: 1b 8e 06 00 	sext.w	t3, a3
180004900: d3 77 f5 0a 	fsub.d	fa5, fa0, fa5
180004904: d3 f7 e7 12 	fmul.d	fa5, fa5, fa4
180004908: 53 97 37 c2 	fcvt.lu.d	a4, fa5, rtz
18000490c: 53 76 37 d2 	fcvt.d.lu	fa2, a4
180004910: d3 f7 c7 0a 	fsub.d	fa5, fa5, fa2
180004914: 53 96 f6 a2 	flt.d	a2, fa3, fa5
180004918: 63 0e 06 22 	beqz	a2, 0x180004b54 <_ftoa+0x330>
18000491c: 13 07 17 00 	addi	a4, a4, 0x1
180004920: d3 77 37 d2 	fcvt.d.lu	fa5, a4
180004924: 53 06 f7 a2 	fle.d	a2, fa4, fa5
180004928: 63 06 06 00 	beqz	a2, 0x180004934 <_ftoa+0x110>
18000492c: 1b 8e 16 00 	addiw	t3, a3, 0x1
180004930: 13 07 00 00 	li	a4, 0x0
180004934: 63 9a 0f 1c 	bnez	t6, 0x180004b08 <_ftoa+0x2e4>
180004938: d3 07 0e d2 	fcvt.d.w	fa5, t3
18000493c: 53 75 f5 0a 	fsub.d	fa0, fa0, fa5
180004940: 53 17 d5 a2 	flt.d	a4, fa0, fa3
180004944: 63 06 07 00 	beqz	a4, 0x180004950 <_ftoa+0x12c>
180004948: 53 97 a6 a2 	flt.d	a4, fa3, fa0
18000494c: 63 08 07 00 	beqz	a4, 0x18000495c <_ftoa+0x138>
180004950: 13 77 1e 00 	andi	a4, t3, 0x1
180004954: 63 04 07 00 	beqz	a4, 0x18000495c <_ftoa+0x138>
180004958: 1b 0e 1e 00 	addiw	t3, t3, 0x1
18000495c: 13 06 00 02 	li	a2, 0x20
180004960: 13 07 a0 00 	li	a4, 0xa
180004964: 63 08 c3 14 	beq	t1, a2, 0x180004ab4 <_ftoa+0x290>
180004968: bb 6e ee 02 	remw	t4, t3, a4
18000496c: 13 03 13 00 	addi	t1, t1, 0x1
180004970: b3 06 6f 00 	add	a3, t5, t1
180004974: 3b 4e ee 02 	divw	t3, t3, a4
180004978: 9b 8e 0e 03 	addiw	t4, t4, 0x30
18000497c: a3 8f d6 ff 	sb	t4, -0x1(a3)
180004980: e3 12 0e fe 	bnez	t3, 0x180004964 <_ftoa+0x140>
180004984: 13 f7 38 00 	andi	a4, a7, 0x3
180004988: 93 06 10 00 	li	a3, 0x1
18000498c: 63 00 d7 2e 	beq	a4, a3, 0x180004c6c <_ftoa+0x448>
180004990: 13 07 00 02 	li	a4, 0x20
180004994: 63 0e e3 00 	beq	t1, a4, 0x1800049b0 <_ftoa+0x18c>
180004998: 63 86 05 22 	beqz	a1, 0x180004bc4 <_ftoa+0x3a0>
18000499c: 13 07 03 02 	addi	a4, t1, 0x20
1800049a0: 33 07 27 00 	add	a4, a4, sp
1800049a4: 93 06 d0 02 	li	a3, 0x2d
1800049a8: 23 00 d7 fe 	sb	a3, -0x20(a4)
1800049ac: 13 03 13 00 	addi	t1, t1, 0x1
1800049b0: 13 88 07 00 	mv	a6, a5
1800049b4: 93 86 04 00 	mv	a3, s1
1800049b8: 13 06 04 00 	mv	a2, s0
1800049bc: 93 07 03 00 	mv	a5, t1
1800049c0: 13 07 0f 00 	mv	a4, t5
1800049c4: 93 85 03 00 	mv	a1, t2
1800049c8: 13 85 02 00 	mv	a0, t0
1800049cc: ef f0 5f 90 	jal	0x1800042d0 <_out_rev>
1800049d0: 83 30 81 03 	ld	ra, 0x38(sp)
1800049d4: 03 34 01 03 	ld	s0, 0x30(sp)
1800049d8: 83 34 81 02 	ld	s1, 0x28(sp)
1800049dc: 03 39 01 02 	ld	s2, 0x20(sp)
1800049e0: 13 01 01 04 	addi	sp, sp, 0x40
1800049e4: 67 80 00 00 	ret
1800049e8: 13 f7 48 00 	andi	a4, a7, 0x4
1800049ec: 63 16 07 06 	bnez	a4, 0x180004a58 <_ftoa+0x234>
1800049f0: 17 27 00 00 	auipc	a4, 0x2
1800049f4: 13 07 87 a0 	addi	a4, a4, -0x5f8
1800049f8: 93 06 30 00 	li	a3, 0x3
1800049fc: 13 06 04 00 	mv	a2, s0
180004a00: 03 34 01 03 	ld	s0, 0x30(sp)
180004a04: 83 30 81 03 	ld	ra, 0x38(sp)
180004a08: 03 39 01 02 	ld	s2, 0x20(sp)
180004a0c: 13 88 07 00 	mv	a6, a5
180004a10: 93 87 06 00 	mv	a5, a3
180004a14: 93 86 04 00 	mv	a3, s1
180004a18: 83 34 81 02 	ld	s1, 0x28(sp)
180004a1c: 93 85 03 00 	mv	a1, t2
180004a20: 13 85 02 00 	mv	a0, t0
180004a24: 13 01 01 04 	addi	sp, sp, 0x40
180004a28: 6f f0 9f 8a 	j	0x1800042d0 <_out_rev>
180004a2c: 13 88 07 00 	mv	a6, a5
180004a30: 17 27 00 00 	auipc	a4, 0x2
180004a34: 13 07 07 9d 	addi	a4, a4, -0x630
180004a38: 93 07 30 00 	li	a5, 0x3
180004a3c: 6f f0 5f 89 	j	0x1800042d0 <_out_rev>
180004a40: 17 37 00 00 	auipc	a4, 0x3
180004a44: 07 37 87 ca 	fld	fa4, -0x358(a4)
180004a48: 93 0f 60 00 	li	t6, 0x6
180004a4c: 13 03 00 00 	li	t1, 0x0
180004a50: 13 0f 01 00 	mv	t5, sp
180004a54: 6f f0 9f e9 	j	0x1800048ec <_ftoa+0xc8>
180004a58: 17 27 00 00 	auipc	a4, 0x2
180004a5c: 13 07 87 99 	addi	a4, a4, -0x668
180004a60: 93 06 40 00 	li	a3, 0x4
180004a64: 6f f0 9f f9 	j	0x1800049fc <_ftoa+0x1d8>
180004a68: 53 75 a7 0a 	fsub.d	fa0, fa4, fa0
180004a6c: 93 05 10 00 	li	a1, 0x1
180004a70: 6f f0 5f e3 	j	0x1800048a4 <_ftoa+0x80>
180004a74: 13 06 04 00 	mv	a2, s0
180004a78: 03 34 01 03 	ld	s0, 0x30(sp)
180004a7c: 83 30 81 03 	ld	ra, 0x38(sp)
180004a80: 03 39 01 02 	ld	s2, 0x20(sp)
180004a84: 93 86 04 00 	mv	a3, s1
180004a88: 83 34 81 02 	ld	s1, 0x28(sp)
180004a8c: 13 88 08 00 	mv	a6, a7
180004a90: 93 85 03 00 	mv	a1, t2
180004a94: 13 85 02 00 	mv	a0, t0
180004a98: 13 01 01 04 	addi	sp, sp, 0x40
180004a9c: 6f 00 80 1d 	j	0x180004c74 <_etoa>
180004aa0: 13 88 07 00 	mv	a6, a5
180004aa4: 17 27 00 00 	auipc	a4, 0x2
180004aa8: 13 07 47 96 	addi	a4, a4, -0x69c
180004aac: 93 07 40 00 	li	a5, 0x4
180004ab0: 6f f0 1f 82 	j	0x1800042d0 <_out_rev>
180004ab4: 13 f7 38 00 	andi	a4, a7, 0x3
180004ab8: 93 06 10 00 	li	a3, 0x1
180004abc: e3 1a d7 ee 	bne	a4, a3, 0x1800049b0 <_ftoa+0x18c>
180004ac0: e3 88 07 ee 	beqz	a5, 0x1800049b0 <_ftoa+0x18c>
180004ac4: 63 96 05 16 	bnez	a1, 0x180004c30 <_ftoa+0x40c>
180004ac8: 13 f7 c8 00 	andi	a4, a7, 0xc
180004acc: 63 12 07 16 	bnez	a4, 0x180004c30 <_ftoa+0x40c>
180004ad0: 13 96 07 02 	slli	a2, a5, 0x20
180004ad4: 13 56 06 02 	srli	a2, a2, 0x20
180004ad8: 63 72 c3 0e 	bgeu	t1, a2, 0x180004bbc <_ftoa+0x398>
180004adc: 13 07 00 02 	li	a4, 0x20
180004ae0: 93 06 00 03 	li	a3, 0x30
180004ae4: 13 05 00 02 	li	a0, 0x20
180004ae8: 63 0c e3 00 	beq	t1, a4, 0x180004b00 <_ftoa+0x2dc>
180004aec: 13 03 13 00 	addi	t1, t1, 0x1
180004af0: 33 07 6f 00 	add	a4, t5, t1
180004af4: a3 0f d7 fe 	sb	a3, -0x1(a4)
180004af8: e3 0c c3 e8 	beq	t1, a2, 0x180004990 <_ftoa+0x16c>
180004afc: e3 18 a3 fe 	bne	t1, a0, 0x180004aec <_ftoa+0x2c8>
180004b00: 13 03 00 02 	li	t1, 0x20
180004b04: 6f f0 df ea 	j	0x1800049b0 <_ftoa+0x18c>
180004b08: 9b 80 0f fe 	addiw	ra, t6, -0x20
180004b0c: bb 80 60 00 	addw	ra, ra, t1
180004b10: 13 06 a0 00 	li	a2, 0xa
180004b14: 13 09 90 00 	li	s2, 0x9
180004b18: 6f 00 80 02 	j	0x180004b40 <_ftoa+0x31c>
180004b1c: b3 76 c7 02 	remu	a3, a4, a2
180004b20: 1b 88 ff ff 	addiw	a6, t6, -0x1
180004b24: 9b 86 06 03 	addiw	a3, a3, 0x30
180004b28: a3 0f d5 fe 	sb	a3, -0x1(a0)
180004b2c: b3 56 c7 02 	divu	a3, a4, a2
180004b30: 63 7c e9 02 	bgeu	s2, a4, 0x180004b68 <_ftoa+0x344>
180004b34: 93 0f 08 00 	mv	t6, a6
180004b38: 13 83 0e 00 	mv	t1, t4
180004b3c: 13 87 06 00 	mv	a4, a3
180004b40: 93 0e 13 00 	addi	t4, t1, 0x1
180004b44: 33 05 df 01 	add	a0, t5, t4
180004b48: e3 9a 1f fc 	bne	t6, ra, 0x180004b1c <_ftoa+0x2f8>
180004b4c: 13 03 00 02 	li	t1, 0x20
180004b50: 6f f0 df e0 	j	0x18000495c <_ftoa+0x138>
180004b54: d3 96 d7 a2 	flt.d	a3, fa5, fa3
180004b58: e3 9e 06 dc 	bnez	a3, 0x180004934 <_ftoa+0x110>
180004b5c: 63 12 07 0c 	bnez	a4, 0x180004c20 <_ftoa+0x3fc>
180004b60: 13 07 17 00 	addi	a4, a4, 0x1
180004b64: 6f f0 1f dd 	j	0x180004934 <_ftoa+0x110>
180004b68: 13 07 00 02 	li	a4, 0x20
180004b6c: e3 80 ee fe 	beq	t4, a4, 0x180004b4c <_ftoa+0x328>
180004b70: 9b 8f ef ff 	addiw	t6, t6, -0x2
180004b74: 63 0c 08 06 	beqz	a6, 0x180004bec <_ftoa+0x3c8>
180004b78: 93 9f 0f 02 	slli	t6, t6, 0x20
180004b7c: 13 03 23 00 	addi	t1, t1, 0x2
180004b80: 93 df 0f 02 	srli	t6, t6, 0x20
180004b84: 33 03 f3 01 	add	t1, t1, t6
180004b88: 13 06 00 03 	li	a2, 0x30
180004b8c: 93 06 00 02 	li	a3, 0x20
180004b90: 6f 00 80 00 	j	0x180004b98 <_ftoa+0x374>
180004b94: 63 8e 6e 04 	beq	t4, t1, 0x180004bf0 <_ftoa+0x3cc>
180004b98: 93 8e 1e 00 	addi	t4, t4, 0x1
180004b9c: 33 07 df 01 	add	a4, t5, t4
180004ba0: a3 0f c7 fe 	sb	a2, -0x1(a4)
180004ba4: e3 98 de fe 	bne	t4, a3, 0x180004b94 <_ftoa+0x370>
180004ba8: 13 03 00 02 	li	t1, 0x20
180004bac: 6f f0 1f db 	j	0x18000495c <_ftoa+0x138>
180004bb0: 53 87 f7 22 	fmv.d	fa4, fa5
180004bb4: 13 03 00 02 	li	t1, 0x20
180004bb8: 6f f0 5f d3 	j	0x1800048ec <_ftoa+0xc8>
180004bbc: 13 07 00 02 	li	a4, 0x20
180004bc0: e3 08 e3 de 	beq	t1, a4, 0x1800049b0 <_ftoa+0x18c>
180004bc4: 13 f7 48 00 	andi	a4, a7, 0x4
180004bc8: 63 10 07 04 	bnez	a4, 0x180004c08 <_ftoa+0x3e4>
180004bcc: 13 f7 88 00 	andi	a4, a7, 0x8
180004bd0: e3 00 07 de 	beqz	a4, 0x1800049b0 <_ftoa+0x18c>
180004bd4: 13 07 03 02 	addi	a4, t1, 0x20
180004bd8: 33 07 27 00 	add	a4, a4, sp
180004bdc: 93 06 00 02 	li	a3, 0x20
180004be0: 23 00 d7 fe 	sb	a3, -0x20(a4)
180004be4: 13 03 13 00 	addi	t1, t1, 0x1
180004be8: 6f f0 9f dc 	j	0x1800049b0 <_ftoa+0x18c>
180004bec: 13 83 0e 00 	mv	t1, t4
180004bf0: 13 07 03 02 	addi	a4, t1, 0x20
180004bf4: 33 07 27 00 	add	a4, a4, sp
180004bf8: 93 06 e0 02 	li	a3, 0x2e
180004bfc: 13 03 13 00 	addi	t1, t1, 0x1
180004c00: 23 00 d7 fe 	sb	a3, -0x20(a4)
180004c04: 6f f0 9f d5 	j	0x18000495c <_ftoa+0x138>
180004c08: 13 07 03 02 	addi	a4, t1, 0x20
180004c0c: 33 07 27 00 	add	a4, a4, sp
180004c10: 93 06 b0 02 	li	a3, 0x2b
180004c14: 23 00 d7 fe 	sb	a3, -0x20(a4)
180004c18: 13 03 13 00 	addi	t1, t1, 0x1
180004c1c: 6f f0 5f d9 	j	0x1800049b0 <_ftoa+0x18c>
180004c20: 93 76 17 00 	andi	a3, a4, 0x1
180004c24: e3 88 06 d0 	beqz	a3, 0x180004934 <_ftoa+0x110>
180004c28: 13 07 17 00 	addi	a4, a4, 0x1
180004c2c: 6f f0 9f d0 	j	0x180004934 <_ftoa+0x110>
180004c30: 9b 87 f7 ff 	addiw	a5, a5, -0x1
180004c34: 13 96 07 02 	slli	a2, a5, 0x20
180004c38: 13 56 06 02 	srli	a2, a2, 0x20
180004c3c: e3 60 c3 ea 	bltu	t1, a2, 0x180004adc <_ftoa+0x2b8>
180004c40: 6f f0 1f d5 	j	0x180004990 <_ftoa+0x16c>
180004c44: 93 16 07 02 	slli	a3, a4, 0x20
180004c48: 13 d6 d6 01 	srli	a2, a3, 0x1d
180004c4c: 97 26 00 00 	auipc	a3, 0x2
180004c50: 93 86 46 96 	addi	a3, a3, -0x69c
180004c54: b3 86 c6 00 	add	a3, a3, a2
180004c58: 07 b7 06 00 	fld	fa4, 0x0(a3)
180004c5c: 93 0f 07 00 	mv	t6, a4
180004c60: 13 03 00 00 	li	t1, 0x0
180004c64: 13 0f 01 00 	mv	t5, sp
180004c68: 6f f0 5f c8 	j	0x1800048ec <_ftoa+0xc8>
180004c6c: e3 82 07 d2 	beqz	a5, 0x180004990 <_ftoa+0x16c>
180004c70: 6f f0 5f e5 	j	0x180004ac4 <_ftoa+0x2a0>

0000000180004c74 <_etoa>:
180004c74: d3 28 a5 a2 	feq.d	a7, fa0, fa0
180004c78: 13 01 01 f9 	addi	sp, sp, -0x70
180004c7c: 23 30 81 06 	sd	s0, 0x60(sp)
180004c80: 23 38 21 05 	sd	s2, 0x50(sp)
180004c84: 23 34 31 05 	sd	s3, 0x48(sp)
180004c88: 23 30 41 05 	sd	s4, 0x40(sp)
180004c8c: 23 3c 51 03 	sd	s5, 0x38(sp)
180004c90: 23 38 61 03 	sd	s6, 0x30(sp)
180004c94: 23 34 11 06 	sd	ra, 0x68(sp)
180004c98: 23 3c 91 04 	sd	s1, 0x58(sp)
180004c9c: 23 34 71 03 	sd	s7, 0x28(sp)
180004ca0: 23 30 81 03 	sd	s8, 0x20(sp)
180004ca4: 23 3c 91 01 	sd	s9, 0x18(sp)
180004ca8: 13 0a 05 00 	mv	s4, a0
180004cac: 93 8a 05 00 	mv	s5, a1
180004cb0: 13 09 06 00 	mv	s2, a2
180004cb4: 13 8b 06 00 	mv	s6, a3
180004cb8: 93 89 07 00 	mv	s3, a5
180004cbc: 13 04 08 00 	mv	s0, a6
180004cc0: 63 84 08 2e 	beqz	a7, 0x180004fa8 <_etoa+0x334>
180004cc4: 97 37 00 00 	auipc	a5, 0x3
180004cc8: 87 b7 47 a3 	fld	fa5, -0x5cc(a5)
180004ccc: d3 97 a7 a2 	flt.d	a5, fa5, fa0
180004cd0: 63 9c 07 2c 	bnez	a5, 0x180004fa8 <_etoa+0x334>
180004cd4: 97 37 00 00 	auipc	a5, 0x3
180004cd8: 87 b7 c7 a1 	fld	fa5, -0x5e4(a5)
180004cdc: d3 17 f5 a2 	flt.d	a5, fa0, fa5
180004ce0: 63 94 07 2c 	bnez	a5, 0x180004fa8 <_etoa+0x334>
180004ce4: d3 07 00 f2 	fmv.d.x	fa5, zero
180004ce8: d3 06 05 e2 	fmv.x.d	a3, fa0
180004cec: d3 17 f5 a2 	flt.d	a5, fa0, fa5
180004cf0: 63 86 07 00 	beqz	a5, 0x180004cfc <_etoa+0x88>
180004cf4: d3 17 a5 22 	fneg.d	fa5, fa0
180004cf8: d3 86 07 e2 	fmv.x.d	a3, fa5
180004cfc: 93 75 04 40 	andi	a1, s0, 0x400
180004d00: 63 94 05 00 	bnez	a1, 0x180004d08 <_etoa+0x94>
180004d04: 13 07 60 00 	li	a4, 0x6
180004d08: 93 d7 46 03 	srli	a5, a3, 0x34
180004d0c: 93 f7 f7 7f 	andi	a5, a5, 0x7ff
180004d10: 17 36 00 00 	auipc	a2, 0x3
180004d14: 87 36 06 a0 	fld	fa3, -0x600(a2)
180004d18: 17 36 00 00 	auipc	a2, 0x3
180004d1c: 07 37 06 a0 	fld	fa4, -0x600(a2)
180004d20: 9b 87 17 c0 	addiw	a5, a5, -0x3ff
180004d24: 53 86 07 d2 	fcvt.d.w	fa2, a5
180004d28: 13 06 f0 3f 	li	a2, 0x3ff
180004d2c: 93 97 c6 00 	slli	a5, a3, 0xc
180004d30: 13 16 46 03 	slli	a2, a2, 0x34
180004d34: 93 d7 c7 00 	srli	a5, a5, 0xc
180004d38: b3 e7 c7 00 	or	a5, a5, a2
180004d3c: 43 76 d6 72 	fmadd.d	fa2, fa2, fa3, fa4
180004d40: 53 87 07 f2 	fmv.d.x	fa4, a5
180004d44: 17 36 00 00 	auipc	a2, 0x3
180004d48: 87 37 c6 9d 	fld	fa5, -0x624(a2)
180004d4c: 97 37 00 00 	auipc	a5, 0x3
180004d50: 87 b5 c7 9d 	fld	fa1, -0x624(a5)
180004d54: d3 77 f7 0a 	fsub.d	fa5, fa4, fa5
180004d58: 97 37 00 00 	auipc	a5, 0x3
180004d5c: 87 b6 87 9d 	fld	fa3, -0x628(a5)
180004d60: 97 37 00 00 	auipc	a5, 0x3
180004d64: 07 b2 87 9a 	fld	ft4, -0x658(a5)
180004d68: 97 37 00 00 	auipc	a5, 0x3
180004d6c: 87 b1 07 9d 	fld	ft3, -0x630(a5)
180004d70: 97 37 00 00 	auipc	a5, 0x3
180004d74: 07 b1 07 9d 	fld	ft2, -0x630(a5)
180004d78: 97 37 00 00 	auipc	a5, 0x3
180004d7c: 07 b7 07 9d 	fld	fa4, -0x630(a5)
180004d80: 97 37 00 00 	auipc	a5, 0x3
180004d84: 87 b0 87 9d 	fld	ft1, -0x628(a5)
180004d88: c3 f7 b7 62 	fmadd.d	fa5, fa5, fa1, fa2
180004d8c: 97 37 00 00 	auipc	a5, 0x3
180004d90: 07 b0 c7 9d 	fld	ft0, -0x624(a5)
180004d94: 97 37 00 00 	auipc	a5, 0x3
180004d98: 87 b5 c7 9b 	fld	fa1, -0x644(a5)
180004d9c: 97 37 00 00 	auipc	a5, 0x3
180004da0: 07 b6 47 9c 	fld	fa2, -0x63c(a5)
180004da4: 53 96 07 c2 	fcvt.w.d	a2, fa5, rtz
180004da8: d3 07 06 d2 	fcvt.d.w	fa5, a2
180004dac: 1b 0c 06 00 	sext.w	s8, a2
180004db0: c3 f6 d7 22 	fmadd.d	fa3, fa5, fa3, ft4
180004db4: d3 97 06 c2 	fcvt.w.d	a5, fa3, rtz
180004db8: d3 86 07 d2 	fcvt.d.w	fa3, a5
180004dbc: 9b 87 f7 3f 	addiw	a5, a5, 0x3ff
180004dc0: 93 97 47 03 	slli	a5, a5, 0x34
180004dc4: d3 f6 36 12 	fmul.d	fa3, fa3, ft3
180004dc8: c7 f7 27 6a 	fmsub.d	fa5, fa5, ft2, fa3
180004dcc: d3 f6 f7 12 	fmul.d	fa3, fa5, fa5
180004dd0: 53 76 f6 0a 	fsub.d	fa2, fa2, fa5
180004dd4: d3 f7 f7 02 	fadd.d	fa5, fa5, fa5
180004dd8: 53 f7 e6 1a 	fdiv.d	fa4, fa3, fa4
180004ddc: 53 77 b7 02 	fadd.d	fa4, fa4, fa1
180004de0: 53 f7 e6 1a 	fdiv.d	fa4, fa3, fa4
180004de4: 53 77 17 02 	fadd.d	fa4, fa4, ft1
180004de8: d3 f6 e6 1a 	fdiv.d	fa3, fa3, fa4
180004dec: 53 87 07 f2 	fmv.d.x	fa4, a5
180004df0: d3 f6 c6 02 	fadd.d	fa3, fa3, fa2
180004df4: d3 f7 d7 1a 	fdiv.d	fa5, fa5, fa3
180004df8: d3 f7 07 02 	fadd.d	fa5, fa5, ft0
180004dfc: d3 f7 e7 12 	fmul.d	fa5, fa5, fa4
180004e00: 53 87 06 f2 	fmv.d.x	fa4, a3
180004e04: d3 17 f7 a2 	flt.d	a5, fa4, fa5
180004e08: 63 86 07 00 	beqz	a5, 0x180004e14 <_etoa+0x1a0>
180004e0c: d3 f7 b7 1a 	fdiv.d	fa5, fa5, fa1
180004e10: 1b 0c f6 ff 	addiw	s8, a2, -0x1
180004e14: 9b 0c 3c 06 	addiw	s9, s8, 0x63
180004e18: 93 57 b4 00 	srli	a5, s0, 0xb
180004e1c: 13 06 60 0c 	li	a2, 0xc6
180004e20: b3 3c 96 01 	sltu	s9, a2, s9
180004e24: 93 f7 17 00 	andi	a5, a5, 0x1
180004e28: 93 8c 4c 00 	addi	s9, s9, 0x4
180004e2c: 63 84 07 04 	beqz	a5, 0x180004e74 <_etoa+0x200>
180004e30: d3 86 06 f2 	fmv.d.x	fa3, a3
180004e34: 97 37 00 00 	auipc	a5, 0x3
180004e38: 07 b7 c7 93 	fld	fa4, -0x6c4(a5)
180004e3c: d3 07 d7 a2 	fle.d	a5, fa4, fa3
180004e40: 63 82 07 1c 	beqz	a5, 0x180005004 <_etoa+0x390>
180004e44: 97 37 00 00 	auipc	a5, 0x3
180004e48: 07 b7 47 8a 	fld	fa4, -0x75c(a5)
180004e4c: d3 97 e6 a2 	flt.d	a5, fa3, fa4
180004e50: 63 8a 07 1a 	beqz	a5, 0x180005004 <_etoa+0x390>
180004e54: 9b 07 07 00 	sext.w	a5, a4
180004e58: 13 07 00 00 	li	a4, 0x0
180004e5c: 63 56 fc 00 	bge	s8, a5, 0x180004e68 <_etoa+0x1f4>
180004e60: bb 87 87 41 	subw	a5, a5, s8
180004e64: 1b 87 f7 ff 	addiw	a4, a5, -0x1
180004e68: 13 64 04 40 	ori	s0, s0, 0x400
180004e6c: 93 0c 00 00 	li	s9, 0x0
180004e70: 13 0c 00 00 	li	s8, 0x0
180004e74: 93 07 00 00 	li	a5, 0x0
180004e78: 63 f4 3c 01 	bgeu	s9, s3, 0x180004e80 <_etoa+0x20c>
180004e7c: bb 87 99 41 	subw	a5, s3, s9
180004e80: 93 7b 24 00 	andi	s7, s0, 0x2
180004e84: 63 88 0b 00 	beqz	s7, 0x180004e94 <_etoa+0x220>
180004e88: 13 b6 1c 00 	seqz	a2, s9
180004e8c: 33 06 c0 40 	neg	a2, a2
180004e90: b3 f7 c7 00 	and	a5, a5, a2
180004e94: 63 10 0c 16 	bnez	s8, 0x180004ff4 <_etoa+0x380>
180004e98: d3 07 00 f2 	fmv.d.x	fa5, zero
180004e9c: 53 16 f5 a2 	flt.d	a2, fa0, fa5
180004ea0: 63 08 06 00 	beqz	a2, 0x180004eb0 <_etoa+0x23c>
180004ea4: d3 87 06 f2 	fmv.d.x	fa5, a3
180004ea8: d3 97 f7 22 	fneg.d	fa5, fa5
180004eac: d3 86 07 e2 	fmv.x.d	a3, fa5
180004eb0: 53 85 06 f2 	fmv.d.x	fa0, a3
180004eb4: 37 f8 ff ff 	lui	a6, 0xfffff
180004eb8: 13 08 f8 7f 	addi	a6, a6, 0x7ff
180004ebc: 33 78 04 01 	and	a6, s0, a6
180004ec0: 93 06 0b 00 	mv	a3, s6
180004ec4: 13 06 09 00 	mv	a2, s2
180004ec8: 93 85 0a 00 	mv	a1, s5
180004ecc: 13 05 0a 00 	mv	a0, s4
180004ed0: ef f0 5f 95 	jal	0x180004824 <_ftoa>
180004ed4: 93 04 05 00 	mv	s1, a0
180004ed8: 63 8c 0c 08 	beqz	s9, 0x180004f70 <_etoa+0x2fc>
180004edc: 13 74 04 02 	andi	s0, s0, 0x20
180004ee0: 13 05 50 06 	li	a0, 0x65
180004ee4: 63 04 04 00 	beqz	s0, 0x180004eec <_etoa+0x278>
180004ee8: 13 05 50 04 	li	a0, 0x45
180004eec: 13 86 04 00 	mv	a2, s1
180004ef0: 93 06 0b 00 	mv	a3, s6
180004ef4: 93 85 0a 00 	mv	a1, s5
180004ef8: e7 00 0a 00 	jalr	s4
180004efc: 1b 57 fc 41 	sraiw	a4, s8, 0x1f
180004f00: b3 46 ec 00 	xor	a3, s8, a4
180004f04: 9b 87 fc ff 	addiw	a5, s9, -0x1
180004f08: 93 05 50 00 	li	a1, 0x5
180004f0c: 13 86 14 00 	addi	a2, s1, 0x1
180004f10: 23 34 b1 00 	sd	a1, 0x8(sp)
180004f14: 23 30 f1 00 	sd	a5, 0x0(sp)
180004f18: 3b 87 e6 40 	subw	a4, a3, a4
180004f1c: 93 08 00 00 	li	a7, 0x0
180004f20: 13 08 a0 00 	li	a6, 0xa
180004f24: 9b 57 fc 01 	srliw	a5, s8, 0x1f
180004f28: 93 06 0b 00 	mv	a3, s6
180004f2c: 93 85 0a 00 	mv	a1, s5
180004f30: 13 05 0a 00 	mv	a0, s4
180004f34: ef f0 8f cd 	jal	0x18000440c <_ntoa_long_long>
180004f38: 93 04 05 00 	mv	s1, a0
180004f3c: 63 8a 0b 02 	beqz	s7, 0x180004f70 <_etoa+0x2fc>
180004f40: 93 99 09 02 	slli	s3, s3, 0x20
180004f44: 33 09 25 41 	sub	s2, a0, s2
180004f48: 93 d9 09 02 	srli	s3, s3, 0x20
180004f4c: 63 72 39 03 	bgeu	s2, s3, 0x180004f70 <_etoa+0x2fc>
180004f50: 13 86 04 00 	mv	a2, s1
180004f54: 13 09 19 00 	addi	s2, s2, 0x1
180004f58: 93 06 0b 00 	mv	a3, s6
180004f5c: 93 85 0a 00 	mv	a1, s5
180004f60: 13 05 00 02 	li	a0, 0x20
180004f64: 93 84 14 00 	addi	s1, s1, 0x1
180004f68: e7 00 0a 00 	jalr	s4
180004f6c: e3 62 39 ff 	bltu	s2, s3, 0x180004f50 <_etoa+0x2dc>
180004f70: 83 30 81 06 	ld	ra, 0x68(sp)
180004f74: 03 34 01 06 	ld	s0, 0x60(sp)
180004f78: 03 39 01 05 	ld	s2, 0x50(sp)
180004f7c: 83 39 81 04 	ld	s3, 0x48(sp)
180004f80: 03 3a 01 04 	ld	s4, 0x40(sp)
180004f84: 83 3a 81 03 	ld	s5, 0x38(sp)
180004f88: 03 3b 01 03 	ld	s6, 0x30(sp)
180004f8c: 83 3b 81 02 	ld	s7, 0x28(sp)
180004f90: 03 3c 01 02 	ld	s8, 0x20(sp)
180004f94: 83 3c 81 01 	ld	s9, 0x18(sp)
180004f98: 13 85 04 00 	mv	a0, s1
180004f9c: 83 34 81 05 	ld	s1, 0x58(sp)
180004fa0: 13 01 01 07 	addi	sp, sp, 0x70
180004fa4: 67 80 00 00 	ret
180004fa8: 13 08 04 00 	mv	a6, s0
180004fac: 03 34 01 06 	ld	s0, 0x60(sp)
180004fb0: 83 30 81 06 	ld	ra, 0x68(sp)
180004fb4: 83 34 81 05 	ld	s1, 0x58(sp)
180004fb8: 83 3b 81 02 	ld	s7, 0x28(sp)
180004fbc: 03 3c 01 02 	ld	s8, 0x20(sp)
180004fc0: 83 3c 81 01 	ld	s9, 0x18(sp)
180004fc4: 93 87 09 00 	mv	a5, s3
180004fc8: 93 06 0b 00 	mv	a3, s6
180004fcc: 83 39 81 04 	ld	s3, 0x48(sp)
180004fd0: 03 3b 01 03 	ld	s6, 0x30(sp)
180004fd4: 13 06 09 00 	mv	a2, s2
180004fd8: 93 85 0a 00 	mv	a1, s5
180004fdc: 03 39 01 05 	ld	s2, 0x50(sp)
180004fe0: 83 3a 81 03 	ld	s5, 0x38(sp)
180004fe4: 13 05 0a 00 	mv	a0, s4
180004fe8: 03 3a 01 04 	ld	s4, 0x40(sp)
180004fec: 13 01 01 07 	addi	sp, sp, 0x70
180004ff0: 6f f0 5f 83 	j	0x180004824 <_ftoa>
180004ff4: 53 87 06 f2 	fmv.d.x	fa4, a3
180004ff8: d3 77 f7 1a 	fdiv.d	fa5, fa4, fa5
180004ffc: d3 86 07 e2 	fmv.x.d	a3, fa5
180005000: 6f f0 9f e9 	j	0x180004e98 <_etoa+0x224>
180005004: e3 08 07 e6 	beqz	a4, 0x180004e74 <_etoa+0x200>
180005008: e3 86 05 e6 	beqz	a1, 0x180004e74 <_etoa+0x200>
18000500c: 1b 07 f7 ff 	addiw	a4, a4, -0x1
180005010: 6f f0 5f e6 	j	0x180004e74 <_etoa+0x200>

0000000180005014 <_vsnprintf>:
180005014: 13 01 01 f6 	addi	sp, sp, -0xa0
180005018: 23 34 91 08 	sd	s1, 0x88(sp)
18000501c: 23 30 21 09 	sd	s2, 0x80(sp)
180005020: 23 3c 31 07 	sd	s3, 0x78(sp)
180005024: 23 34 51 07 	sd	s5, 0x68(sp)
180005028: 23 38 81 05 	sd	s8, 0x50(sp)
18000502c: 23 3c 11 08 	sd	ra, 0x98(sp)
180005030: 23 38 81 08 	sd	s0, 0x90(sp)
180005034: 23 38 41 07 	sd	s4, 0x70(sp)
180005038: 23 30 61 07 	sd	s6, 0x60(sp)
18000503c: 23 3c 71 05 	sd	s7, 0x58(sp)
180005040: 23 34 91 05 	sd	s9, 0x48(sp)
180005044: 23 30 a1 05 	sd	s10, 0x40(sp)
180005048: 23 3c b1 03 	sd	s11, 0x38(sp)
18000504c: 13 89 05 00 	mv	s2, a1
180005050: 93 04 06 00 	mv	s1, a2
180005054: 93 8a 06 00 	mv	s5, a3
180005058: 13 0c 07 00 	mv	s8, a4
18000505c: 97 f9 ff ff 	auipc	s3, 0xfffff
180005060: 93 89 09 27 	addi	s3, s3, 0x270
180005064: 63 84 05 00 	beqz	a1, 0x18000506c <_vsnprintf+0x58>
180005068: 93 09 05 00 	mv	s3, a0
18000506c: 03 c5 0a 00 	lbu	a0, 0x0(s5)
180005070: 93 0b 00 00 	li	s7, 0x0
180005074: 63 0e 05 6a 	beqz	a0, 0x180005730 <_vsnprintf+0x71c>
180005078: b7 97 00 00 	lui	a5, 0x9
18000507c: 93 87 17 04 	addi	a5, a5, 0x41
180005080: 13 0a 50 02 	li	s4, 0x25
180005084: 17 1b 00 00 	auipc	s6, 0x1
180005088: 13 0b cb 38 	addi	s6, s6, 0x38c
18000508c: 23 3c f1 00 	sd	a5, 0x18(sp)
180005090: 6f 00 00 02 	j	0x1800050b0 <_vsnprintf+0x9c>
180005094: 13 86 0b 00 	mv	a2, s7
180005098: 93 86 04 00 	mv	a3, s1
18000509c: 93 05 09 00 	mv	a1, s2
1800050a0: 93 8b 1b 00 	addi	s7, s7, 0x1
1800050a4: e7 80 09 00 	jalr	s3
1800050a8: 03 c5 0a 00 	lbu	a0, 0x0(s5)
1800050ac: 63 06 05 1a 	beqz	a0, 0x180005258 <_vsnprintf+0x244>
1800050b0: 93 8a 1a 00 	addi	s5, s5, 0x1
1800050b4: e3 10 45 ff 	bne	a0, s4, 0x180005094 <_vsnprintf+0x80>
1800050b8: 13 04 00 00 	li	s0, 0x0
1800050bc: 13 07 00 01 	li	a4, 0x10
1800050c0: 03 c5 0a 00 	lbu	a0, 0x0(s5)
1800050c4: 93 86 1a 00 	addi	a3, s5, 0x1
1800050c8: 9b 07 05 fe 	addiw	a5, a0, -0x20
1800050cc: 93 f7 f7 0f 	andi	a5, a5, 0xff
1800050d0: 63 6c f7 00 	bltu	a4, a5, 0x1800050e8 <_vsnprintf+0xd4>
1800050d4: 93 97 27 00 	slli	a5, a5, 0x2
1800050d8: b3 87 67 01 	add	a5, a5, s6
1800050dc: 83 a7 07 00 	lw	a5, 0x0(a5)
1800050e0: b3 87 67 01 	add	a5, a5, s6
1800050e4: 67 80 07 00 	jr	a5
1800050e8: 9b 07 05 fd 	addiw	a5, a0, -0x30
1800050ec: 93 f7 f7 0f 	andi	a5, a5, 0xff
1800050f0: 13 07 90 00 	li	a4, 0x9
1800050f4: 63 72 f7 1c 	bgeu	a4, a5, 0x1800052b8 <_vsnprintf+0x2a4>
1800050f8: 13 07 a0 02 	li	a4, 0x2a
1800050fc: 93 0d 00 00 	li	s11, 0x0
180005100: 63 06 e5 22 	beq	a0, a4, 0x18000532c <_vsnprintf+0x318>
180005104: 13 07 e0 02 	li	a4, 0x2e
180005108: 93 0c 00 00 	li	s9, 0x0
18000510c: 63 06 e5 1e 	beq	a0, a4, 0x1800052f8 <_vsnprintf+0x2e4>
180005110: 1b 06 85 f9 	addiw	a2, a0, -0x68
180005114: 13 76 f6 0f 	andi	a2, a2, 0xff
180005118: 13 07 20 01 	li	a4, 0x12
18000511c: 63 60 c7 08 	bltu	a4, a2, 0x18000519c <_vsnprintf+0x188>
180005120: 97 17 00 00 	auipc	a5, 0x1
180005124: 93 87 47 33 	addi	a5, a5, 0x334
180005128: 13 16 26 00 	slli	a2, a2, 0x2
18000512c: 33 06 f6 00 	add	a2, a2, a5
180005130: 03 27 06 00 	lw	a4, 0x0(a2)
180005134: 33 07 f7 00 	add	a4, a4, a5
180005138: 67 00 07 00 	jr	a4
18000513c: 13 64 14 00 	ori	s0, s0, 0x1
180005140: 1b 04 04 00 	sext.w	s0, s0
180005144: 93 8a 06 00 	mv	s5, a3
180005148: 6f f0 9f f7 	j	0x1800050c0 <_vsnprintf+0xac>
18000514c: 13 64 24 00 	ori	s0, s0, 0x2
180005150: 1b 04 04 00 	sext.w	s0, s0
180005154: 93 8a 06 00 	mv	s5, a3
180005158: 6f f0 9f f6 	j	0x1800050c0 <_vsnprintf+0xac>
18000515c: 13 64 44 00 	ori	s0, s0, 0x4
180005160: 1b 04 04 00 	sext.w	s0, s0
180005164: 93 8a 06 00 	mv	s5, a3
180005168: 6f f0 9f f5 	j	0x1800050c0 <_vsnprintf+0xac>
18000516c: 13 64 04 01 	ori	s0, s0, 0x10
180005170: 1b 04 04 00 	sext.w	s0, s0
180005174: 93 8a 06 00 	mv	s5, a3
180005178: 6f f0 9f f4 	j	0x1800050c0 <_vsnprintf+0xac>
18000517c: 13 64 84 00 	ori	s0, s0, 0x8
180005180: 1b 04 04 00 	sext.w	s0, s0
180005184: 93 8a 06 00 	mv	s5, a3
180005188: 6f f0 9f f3 	j	0x1800050c0 <_vsnprintf+0xac>
18000518c: 03 c5 1a 00 	lbu	a0, 0x1(s5)
180005190: 13 64 04 10 	ori	s0, s0, 0x100
180005194: 1b 04 04 00 	sext.w	s0, s0
180005198: 93 86 16 00 	addi	a3, a3, 0x1
18000519c: 13 07 70 06 	li	a4, 0x67
1800051a0: 93 8a 06 00 	mv	s5, a3
1800051a4: 63 6c a7 02 	bltu	a4, a0, 0x1800051dc <_vsnprintf+0x1c8>
1800051a8: 13 07 40 02 	li	a4, 0x24
1800051ac: e3 74 a7 ee 	bgeu	a4, a0, 0x180005094 <_vsnprintf+0x80>
1800051b0: 1b 07 b5 fd 	addiw	a4, a0, -0x25
1800051b4: 13 77 f7 0f 	andi	a4, a4, 0xff
1800051b8: 93 06 20 04 	li	a3, 0x42
1800051bc: e3 ec e6 ec 	bltu	a3, a4, 0x180005094 <_vsnprintf+0x80>
1800051c0: 97 17 00 00 	auipc	a5, 0x1
1800051c4: 93 87 07 2e 	addi	a5, a5, 0x2e0
1800051c8: 13 17 27 00 	slli	a4, a4, 0x2
1800051cc: 33 07 f7 00 	add	a4, a4, a5
1800051d0: 03 27 07 00 	lw	a4, 0x0(a4)
1800051d4: 33 07 f7 00 	add	a4, a4, a5
1800051d8: 67 00 07 00 	jr	a4
1800051dc: 1b 07 75 f9 	addiw	a4, a0, -0x69
1800051e0: 13 77 f7 0f 	andi	a4, a4, 0xff
1800051e4: 93 06 f0 00 	li	a3, 0xf
1800051e8: e3 e6 e6 ea 	bltu	a3, a4, 0x180005094 <_vsnprintf+0x80>
1800051ec: 83 37 81 01 	ld	a5, 0x18(sp)
1800051f0: 93 06 10 00 	li	a3, 0x1
1800051f4: b3 96 e6 00 	sll	a3, a3, a4
1800051f8: b3 f6 f6 00 	and	a3, a3, a5
1800051fc: 63 92 06 4e 	bnez	a3, 0x1800056e0 <_vsnprintf+0x6cc>
180005200: 93 06 a0 00 	li	a3, 0xa
180005204: 63 00 d7 2a 	beq	a4, a3, 0x1800054a4 <_vsnprintf+0x490>
180005208: 93 07 70 00 	li	a5, 0x7
18000520c: e3 14 f7 e8 	bne	a4, a5, 0x180005094 <_vsnprintf+0x80>
180005210: 93 67 14 02 	ori	a5, s0, 0x21
180005214: 03 37 0c 00 	ld	a4, 0x0(s8)
180005218: 9b 87 07 00 	sext.w	a5, a5
18000521c: 23 34 f1 00 	sd	a5, 0x8(sp)
180005220: 93 07 00 01 	li	a5, 0x10
180005224: 13 86 0b 00 	mv	a2, s7
180005228: 23 30 f1 00 	sd	a5, 0x0(sp)
18000522c: 93 88 0c 00 	mv	a7, s9
180005230: 13 08 00 01 	li	a6, 0x10
180005234: 93 07 00 00 	li	a5, 0x0
180005238: 93 86 04 00 	mv	a3, s1
18000523c: 93 05 09 00 	mv	a1, s2
180005240: 13 85 09 00 	mv	a0, s3
180005244: ef f0 8f 9c 	jal	0x18000440c <_ntoa_long_long>
180005248: 93 0b 05 00 	mv	s7, a0
18000524c: 03 c5 0a 00 	lbu	a0, 0x0(s5)
180005250: 13 0c 8c 00 	addi	s8, s8, 0x8
180005254: e3 1e 05 e4 	bnez	a0, 0x1800050b0 <_vsnprintf+0x9c>
180005258: 1b 84 0b 00 	sext.w	s0, s7
18000525c: 63 e4 9b 00 	bltu	s7, s1, 0x180005264 <_vsnprintf+0x250>
180005260: 93 8b f4 ff 	addi	s7, s1, -0x1
180005264: 93 86 04 00 	mv	a3, s1
180005268: 13 86 0b 00 	mv	a2, s7
18000526c: 93 05 09 00 	mv	a1, s2
180005270: 13 05 00 00 	li	a0, 0x0
180005274: e7 80 09 00 	jalr	s3
180005278: 83 30 81 09 	ld	ra, 0x98(sp)
18000527c: 13 05 04 00 	mv	a0, s0
180005280: 03 34 01 09 	ld	s0, 0x90(sp)
180005284: 83 34 81 08 	ld	s1, 0x88(sp)
180005288: 03 39 01 08 	ld	s2, 0x80(sp)
18000528c: 83 39 81 07 	ld	s3, 0x78(sp)
180005290: 03 3a 01 07 	ld	s4, 0x70(sp)
180005294: 83 3a 81 06 	ld	s5, 0x68(sp)
180005298: 03 3b 01 06 	ld	s6, 0x60(sp)
18000529c: 83 3b 81 05 	ld	s7, 0x58(sp)
1800052a0: 03 3c 01 05 	ld	s8, 0x50(sp)
1800052a4: 83 3c 81 04 	ld	s9, 0x48(sp)
1800052a8: 03 3d 01 04 	ld	s10, 0x40(sp)
1800052ac: 83 3d 81 03 	ld	s11, 0x38(sp)
1800052b0: 13 01 01 0a 	addi	sp, sp, 0xa0
1800052b4: 67 80 00 00 	ret
1800052b8: 93 0d 00 00 	li	s11, 0x0
1800052bc: 13 06 90 00 	li	a2, 0x9
1800052c0: 1b 97 2d 00 	slliw	a4, s11, 0x2
1800052c4: 3b 07 b7 01 	addw	a4, a4, s11
1800052c8: 1b 17 17 00 	slliw	a4, a4, 0x1
1800052cc: 3b 07 a7 00 	addw	a4, a4, a0
1800052d0: 03 c5 06 00 	lbu	a0, 0x0(a3)
1800052d4: 9b 0d 07 fd 	addiw	s11, a4, -0x30
1800052d8: 93 8a 06 00 	mv	s5, a3
1800052dc: 1b 07 05 fd 	addiw	a4, a0, -0x30
1800052e0: 13 77 f7 0f 	andi	a4, a4, 0xff
1800052e4: 93 86 16 00 	addi	a3, a3, 0x1
1800052e8: e3 7c e6 fc 	bgeu	a2, a4, 0x1800052c0 <_vsnprintf+0x2ac>
1800052ec: 13 07 e0 02 	li	a4, 0x2e
1800052f0: 93 0c 00 00 	li	s9, 0x0
1800052f4: e3 1e e5 e0 	bne	a0, a4, 0x180005110 <_vsnprintf+0xfc>
1800052f8: 03 c5 1a 00 	lbu	a0, 0x1(s5)
1800052fc: 13 64 04 40 	ori	s0, s0, 0x400
180005300: 93 05 90 00 	li	a1, 0x9
180005304: 1b 07 05 fd 	addiw	a4, a0, -0x30
180005308: 13 77 f7 0f 	andi	a4, a4, 0xff
18000530c: 13 86 06 00 	mv	a2, a3
180005310: 1b 04 04 00 	sext.w	s0, s0
180005314: 63 f0 e5 24 	bgeu	a1, a4, 0x180005554 <_vsnprintf+0x540>
180005318: 13 07 a0 02 	li	a4, 0x2a
18000531c: 63 08 e5 26 	beq	a0, a4, 0x18000558c <_vsnprintf+0x578>
180005320: 93 8a 06 00 	mv	s5, a3
180005324: 93 86 16 00 	addi	a3, a3, 0x1
180005328: 6f f0 9f de 	j	0x180005110 <_vsnprintf+0xfc>
18000532c: 03 27 0c 00 	lw	a4, 0x0(s8)
180005330: 13 0c 8c 00 	addi	s8, s8, 0x8
180005334: 9b 0d 07 00 	sext.w	s11, a4
180005338: 63 4a 07 00 	bltz	a4, 0x18000534c <_vsnprintf+0x338>
18000533c: 03 c5 1a 00 	lbu	a0, 0x1(s5)
180005340: 93 8a 06 00 	mv	s5, a3
180005344: 93 86 16 00 	addi	a3, a3, 0x1
180005348: 6f f0 df db 	j	0x180005104 <_vsnprintf+0xf0>
18000534c: 13 64 24 00 	ori	s0, s0, 0x2
180005350: 03 c5 1a 00 	lbu	a0, 0x1(s5)
180005354: 1b 04 04 00 	sext.w	s0, s0
180005358: 93 8a 06 00 	mv	s5, a3
18000535c: bb 0d e0 40 	negw	s11, a4
180005360: 93 86 16 00 	addi	a3, a3, 0x1
180005364: 6f f0 1f da 	j	0x180005104 <_vsnprintf+0xf0>
180005368: 13 07 70 06 	li	a4, 0x67
18000536c: 63 0e e5 30 	beq	a0, a4, 0x180005688 <_vsnprintf+0x674>
180005370: 13 07 70 04 	li	a4, 0x47
180005374: 63 06 e5 38 	beq	a0, a4, 0x180005700 <_vsnprintf+0x6ec>
180005378: 13 07 50 04 	li	a4, 0x45
18000537c: 63 0a e5 38 	beq	a0, a4, 0x180005710 <_vsnprintf+0x6fc>
180005380: 07 35 0c 00 	fld	fa0, 0x0(s8)
180005384: 13 86 0b 00 	mv	a2, s7
180005388: 13 08 04 00 	mv	a6, s0
18000538c: 93 87 0d 00 	mv	a5, s11
180005390: 13 87 0c 00 	mv	a4, s9
180005394: 93 86 04 00 	mv	a3, s1
180005398: 93 05 09 00 	mv	a1, s2
18000539c: 13 85 09 00 	mv	a0, s3
1800053a0: ef f0 5f 8d 	jal	0x180004c74 <_etoa>
1800053a4: 13 0c 8c 00 	addi	s8, s8, 0x8
1800053a8: 93 0b 05 00 	mv	s7, a0
1800053ac: 6f f0 df cf 	j	0x1800050a8 <_vsnprintf+0x94>
1800053b0: 03 c5 1a 00 	lbu	a0, 0x1(s5)
1800053b4: 13 07 c0 06 	li	a4, 0x6c
1800053b8: e3 1c e5 dc 	bne	a0, a4, 0x180005190 <_vsnprintf+0x17c>
1800053bc: 13 64 04 30 	ori	s0, s0, 0x300
1800053c0: 03 c5 2a 00 	lbu	a0, 0x2(s5)
1800053c4: 1b 04 04 00 	sext.w	s0, s0
1800053c8: 93 86 3a 00 	addi	a3, s5, 0x3
1800053cc: 6f f0 1f dd 	j	0x18000519c <_vsnprintf+0x188>
1800053d0: 03 c5 1a 00 	lbu	a0, 0x1(s5)
1800053d4: 13 07 80 06 	li	a4, 0x68
1800053d8: 63 02 e5 34 	beq	a0, a4, 0x18000571c <_vsnprintf+0x708>
1800053dc: 13 64 04 08 	ori	s0, s0, 0x80
1800053e0: 1b 04 04 00 	sext.w	s0, s0
1800053e4: 93 86 16 00 	addi	a3, a3, 0x1
1800053e8: 6f f0 5f db 	j	0x18000519c <_vsnprintf+0x188>
1800053ec: 13 07 60 04 	li	a4, 0x46
1800053f0: 63 06 e5 28 	beq	a0, a4, 0x18000567c <_vsnprintf+0x668>
1800053f4: 07 35 0c 00 	fld	fa0, 0x0(s8)
1800053f8: 13 86 0b 00 	mv	a2, s7
1800053fc: 13 08 04 00 	mv	a6, s0
180005400: 93 87 0d 00 	mv	a5, s11
180005404: 13 87 0c 00 	mv	a4, s9
180005408: 93 86 04 00 	mv	a3, s1
18000540c: 93 05 09 00 	mv	a1, s2
180005410: 13 85 09 00 	mv	a0, s3
180005414: ef f0 0f c1 	jal	0x180004824 <_ftoa>
180005418: 13 0c 8c 00 	addi	s8, s8, 0x8
18000541c: 93 0b 05 00 	mv	s7, a0
180005420: 6f f0 9f c8 	j	0x1800050a8 <_vsnprintf+0x94>
180005424: 13 78 24 00 	andi	a6, s0, 0x2
180005428: 13 0d 8c 00 	addi	s10, s8, 0x8
18000542c: 93 8c 1b 00 	addi	s9, s7, 0x1
180005430: 63 0c 08 30 	beqz	a6, 0x180005748 <_vsnprintf+0x734>
180005434: 03 45 0c 00 	lbu	a0, 0x0(s8)
180005438: 93 86 04 00 	mv	a3, s1
18000543c: 13 86 0b 00 	mv	a2, s7
180005440: 93 05 09 00 	mv	a1, s2
180005444: e7 80 09 00 	jalr	s3
180005448: 13 07 10 00 	li	a4, 0x1
18000544c: 63 76 b7 3d 	bgeu	a4, s11, 0x180005818 <_vsnprintf+0x804>
180005450: 9b 87 ed ff 	addiw	a5, s11, -0x2
180005454: 93 97 07 02 	slli	a5, a5, 0x20
180005458: 93 8e 2b 00 	addi	t4, s7, 0x2
18000545c: 93 d7 07 02 	srli	a5, a5, 0x20
180005460: b3 8b fe 00 	add	s7, t4, a5
180005464: 13 86 0c 00 	mv	a2, s9
180005468: 93 86 04 00 	mv	a3, s1
18000546c: 93 8c 1c 00 	addi	s9, s9, 0x1
180005470: 93 05 09 00 	mv	a1, s2
180005474: 13 05 00 02 	li	a0, 0x20
180005478: e7 80 09 00 	jalr	s3
18000547c: e3 94 7c ff 	bne	s9, s7, 0x180005464 <_vsnprintf+0x450>
180005480: 13 0c 0d 00 	mv	s8, s10
180005484: 6f f0 5f c2 	j	0x1800050a8 <_vsnprintf+0x94>
180005488: 13 86 0b 00 	mv	a2, s7
18000548c: 93 86 04 00 	mv	a3, s1
180005490: 93 05 09 00 	mv	a1, s2
180005494: 13 05 50 02 	li	a0, 0x25
180005498: 93 8b 1b 00 	addi	s7, s7, 0x1
18000549c: e7 80 09 00 	jalr	s3
1800054a0: 6f f0 9f c0 	j	0x1800050a8 <_vsnprintf+0x94>
1800054a4: 83 37 0c 00 	ld	a5, 0x0(s8)
1800054a8: 93 06 f0 ff 	li	a3, -0x1
1800054ac: 23 38 f1 00 	sd	a5, 0x10(sp)
1800054b0: 93 07 8c 00 	addi	a5, s8, 0x8
1800054b4: 23 34 f1 02 	sd	a5, 0x28(sp)
1800054b8: 63 9c 0c 0e 	bnez	s9, 0x1800055b0 <_vsnprintf+0x59c>
1800054bc: 03 3d 01 01 	ld	s10, 0x10(sp)
1800054c0: 03 45 0d 00 	lbu	a0, 0x0(s10)
1800054c4: 63 0e 05 4e 	beqz	a0, 0x1800059c0 <_vsnprintf+0x9ac>
1800054c8: b3 06 dd 00 	add	a3, s10, a3
1800054cc: 6f 00 80 00 	j	0x1800054d4 <_vsnprintf+0x4c0>
1800054d0: 63 08 dd 00 	beq	s10, a3, 0x1800054e0 <_vsnprintf+0x4cc>
1800054d4: 03 47 1d 00 	lbu	a4, 0x1(s10)
1800054d8: 13 0d 1d 00 	addi	s10, s10, 0x1
1800054dc: e3 1a 07 fe 	bnez	a4, 0x1800054d0 <_vsnprintf+0x4bc>
1800054e0: 83 37 01 01 	ld	a5, 0x10(sp)
1800054e4: 3b 0d fd 40 	subw	s10, s10, a5
1800054e8: 93 77 04 40 	andi	a5, s0, 0x400
1800054ec: 23 30 f1 02 	sd	a5, 0x20(sp)
1800054f0: 63 8a 07 00 	beqz	a5, 0x180005504 <_vsnprintf+0x4f0>
1800054f4: 13 87 0c 00 	mv	a4, s9
1800054f8: 63 74 9d 01 	bgeu	s10, s9, 0x180005500 <_vsnprintf+0x4ec>
1800054fc: 13 07 0d 00 	mv	a4, s10
180005500: 1b 0d 07 00 	sext.w	s10, a4
180005504: 13 74 24 00 	andi	s0, s0, 0x2
180005508: 63 0e 04 28 	beqz	s0, 0x1800057a4 <_vsnprintf+0x790>
18000550c: 63 08 05 18 	beqz	a0, 0x18000569c <_vsnprintf+0x688>
180005510: 83 37 01 02 	ld	a5, 0x20(sp)
180005514: 63 94 07 0a 	bnez	a5, 0x1800055bc <_vsnprintf+0x5a8>
180005518: 13 8c 0b 00 	mv	s8, s7
18000551c: 13 06 0c 00 	mv	a2, s8
180005520: 93 86 04 00 	mv	a3, s1
180005524: 93 05 09 00 	mv	a1, s2
180005528: e7 80 09 00 	jalr	s3
18000552c: 83 37 01 01 	ld	a5, 0x10(sp)
180005530: 13 0c 1c 00 	addi	s8, s8, 0x1
180005534: b3 06 7c 41 	sub	a3, s8, s7
180005538: b3 86 d7 00 	add	a3, a5, a3
18000553c: 03 c5 06 00 	lbu	a0, 0x0(a3)
180005540: e3 1e 05 fc 	bnez	a0, 0x18000551c <_vsnprintf+0x508>
180005544: 93 0b 0c 00 	mv	s7, s8
180005548: 63 1a 04 14 	bnez	s0, 0x18000569c <_vsnprintf+0x688>
18000554c: 03 3c 81 02 	ld	s8, 0x28(sp)
180005550: 6f f0 9f b5 	j	0x1800050a8 <_vsnprintf+0x94>
180005554: 93 06 90 00 	li	a3, 0x9
180005558: 1b 97 2c 00 	slliw	a4, s9, 0x2
18000555c: 3b 07 97 01 	addw	a4, a4, s9
180005560: 13 06 16 00 	addi	a2, a2, 0x1
180005564: 1b 17 17 00 	slliw	a4, a4, 0x1
180005568: 3b 07 a7 00 	addw	a4, a4, a0
18000556c: 03 45 06 00 	lbu	a0, 0x0(a2)
180005570: 9b 0c 07 fd 	addiw	s9, a4, -0x30
180005574: 1b 07 05 fd 	addiw	a4, a0, -0x30
180005578: 13 77 f7 0f 	andi	a4, a4, 0xff
18000557c: e3 fe e6 fc 	bgeu	a3, a4, 0x180005558 <_vsnprintf+0x544>
180005580: 93 0a 06 00 	mv	s5, a2
180005584: 93 06 16 00 	addi	a3, a2, 0x1
180005588: 6f f0 9f b8 	j	0x180005110 <_vsnprintf+0xfc>
18000558c: 03 27 0c 00 	lw	a4, 0x0(s8)
180005590: 03 c5 2a 00 	lbu	a0, 0x2(s5)
180005594: 93 8a 2a 00 	addi	s5, s5, 0x2
180005598: 93 48 f7 ff 	not	a7, a4
18000559c: 93 d8 f8 43 	srai	a7, a7, 0x3f
1800055a0: b3 fc e8 00 	and	s9, a7, a4
1800055a4: 13 0c 8c 00 	addi	s8, s8, 0x8
1800055a8: 93 86 1a 00 	addi	a3, s5, 0x1
1800055ac: 6f f0 5f b6 	j	0x180005110 <_vsnprintf+0xfc>
1800055b0: 93 96 0c 02 	slli	a3, s9, 0x20
1800055b4: 93 d6 06 02 	srli	a3, a3, 0x20
1800055b8: 6f f0 5f f0 	j	0x1800054bc <_vsnprintf+0x4a8>
1800055bc: 93 98 0c 02 	slli	a7, s9, 0x20
1800055c0: 93 d8 08 02 	srli	a7, a7, 0x20
1800055c4: b3 8c 78 01 	add	s9, a7, s7
1800055c8: 13 86 0b 00 	mv	a2, s7
1800055cc: 63 88 cc 16 	beq	s9, a2, 0x18000573c <_vsnprintf+0x728>
1800055d0: 93 86 04 00 	mv	a3, s1
1800055d4: 93 05 09 00 	mv	a1, s2
1800055d8: 13 0c 16 00 	addi	s8, a2, 0x1
1800055dc: e7 80 09 00 	jalr	s3
1800055e0: 83 37 01 01 	ld	a5, 0x10(sp)
1800055e4: b3 06 7c 41 	sub	a3, s8, s7
1800055e8: b3 86 d7 00 	add	a3, a5, a3
1800055ec: 03 c5 06 00 	lbu	a0, 0x0(a3)
1800055f0: e3 0a 05 f4 	beqz	a0, 0x180005544 <_vsnprintf+0x530>
1800055f4: 13 06 0c 00 	mv	a2, s8
1800055f8: 6f f0 5f fd 	j	0x1800055cc <_vsnprintf+0x5b8>
1800055fc: 13 07 20 06 	li	a4, 0x62
180005600: 63 04 e5 26 	beq	a0, a4, 0x180005868 <_vsnprintf+0x854>
180005604: 13 07 80 05 	li	a4, 0x58
180005608: 63 0c e5 2a 	beq	a0, a4, 0x1800058c0 <_vsnprintf+0x8ac>
18000560c: 13 77 04 40 	andi	a4, s0, 0x400
180005610: 63 14 07 1e 	bnez	a4, 0x1800057f8 <_vsnprintf+0x7e4>
180005614: 93 76 f4 fe 	andi	a3, s0, -0x11
180005618: 9b 86 06 00 	sext.w	a3, a3
18000561c: 13 f7 06 20 	andi	a4, a3, 0x200
180005620: 13 04 8c 00 	addi	s0, s8, 0x8
180005624: 13 86 06 00 	mv	a2, a3
180005628: 63 1e 07 1e 	bnez	a4, 0x180005824 <_vsnprintf+0x810>
18000562c: 13 f7 06 10 	andi	a4, a3, 0x100
180005630: 63 18 07 2e 	bnez	a4, 0x180005920 <_vsnprintf+0x90c>
180005634: 13 77 06 04 	andi	a4, a2, 0x40
180005638: 83 27 0c 00 	lw	a5, 0x0(s8)
18000563c: 63 08 07 30 	beqz	a4, 0x18000594c <_vsnprintf+0x938>
180005640: 93 f7 f7 0f 	andi	a5, a5, 0xff
180005644: 13 87 07 00 	mv	a4, a5
180005648: 13 86 0b 00 	mv	a2, s7
18000564c: 23 34 d1 00 	sd	a3, 0x8(sp)
180005650: 23 30 b1 01 	sd	s11, 0x0(sp)
180005654: 93 88 0c 00 	mv	a7, s9
180005658: 13 08 a0 00 	li	a6, 0xa
18000565c: 9b d7 f7 01 	srliw	a5, a5, 0x1f
180005660: 93 86 04 00 	mv	a3, s1
180005664: 93 05 09 00 	mv	a1, s2
180005668: 13 85 09 00 	mv	a0, s3
18000566c: ef e0 1f da 	jal	0x18000440c <_ntoa_long_long>
180005670: 93 0b 05 00 	mv	s7, a0
180005674: 13 0c 04 00 	mv	s8, s0
180005678: 6f f0 1f a3 	j	0x1800050a8 <_vsnprintf+0x94>
18000567c: 13 64 04 02 	ori	s0, s0, 0x20
180005680: 1b 04 04 00 	sext.w	s0, s0
180005684: 6f f0 1f d7 	j	0x1800053f4 <_vsnprintf+0x3e0>
180005688: 37 17 00 00 	lui	a4, 0x1
18000568c: 13 07 07 80 	addi	a4, a4, -0x800
180005690: 33 67 e4 00 	or	a4, s0, a4
180005694: 1b 04 07 00 	sext.w	s0, a4
180005698: 6f f0 9f ce 	j	0x180005380 <_vsnprintf+0x36c>
18000569c: 13 84 0b 00 	mv	s0, s7
1800056a0: e3 76 bd eb 	bgeu	s10, s11, 0x18000554c <_vsnprintf+0x538>
1800056a4: 9b 87 fd ff 	addiw	a5, s11, -0x1
1800056a8: bb 87 a7 41 	subw	a5, a5, s10
1800056ac: 93 97 07 02 	slli	a5, a5, 0x20
1800056b0: 93 d7 07 02 	srli	a5, a5, 0x20
1800056b4: 93 8e 1b 00 	addi	t4, s7, 0x1
1800056b8: b3 8b d7 01 	add	s7, a5, t4
1800056bc: 13 06 04 00 	mv	a2, s0
1800056c0: 93 86 04 00 	mv	a3, s1
1800056c4: 13 04 14 00 	addi	s0, s0, 0x1
1800056c8: 93 05 09 00 	mv	a1, s2
1800056cc: 13 05 00 02 	li	a0, 0x20
1800056d0: e7 80 09 00 	jalr	s3
1800056d4: e3 14 74 ff 	bne	s0, s7, 0x1800056bc <_vsnprintf+0x6a8>
1800056d8: 03 3c 81 02 	ld	s8, 0x28(sp)
1800056dc: 6f f0 df 9c 	j	0x1800050a8 <_vsnprintf+0x94>
1800056e0: 13 07 80 07 	li	a4, 0x78
1800056e4: 63 1a e5 20 	bne	a0, a4, 0x1800058f8 <_vsnprintf+0x8e4>
1800056e8: 13 77 04 40 	andi	a4, s0, 0x400
1800056ec: 63 0c 07 2e 	beqz	a4, 0x1800059e4 <_vsnprintf+0x9d0>
1800056f0: 93 76 24 ff 	andi	a3, s0, -0xe
1800056f4: 9b 86 06 00 	sext.w	a3, a3
1800056f8: 13 08 00 01 	li	a6, 0x10
1800056fc: 6f 00 00 18 	j	0x18000587c <_vsnprintf+0x868>
180005700: 37 17 00 00 	lui	a4, 0x1
180005704: 13 07 07 80 	addi	a4, a4, -0x800
180005708: 33 67 e4 00 	or	a4, s0, a4
18000570c: 1b 04 07 00 	sext.w	s0, a4
180005710: 13 64 04 02 	ori	s0, s0, 0x20
180005714: 1b 04 04 00 	sext.w	s0, s0
180005718: 6f f0 9f c6 	j	0x180005380 <_vsnprintf+0x36c>
18000571c: 13 64 04 0c 	ori	s0, s0, 0xc0
180005720: 03 c5 2a 00 	lbu	a0, 0x2(s5)
180005724: 1b 04 04 00 	sext.w	s0, s0
180005728: 93 86 3a 00 	addi	a3, s5, 0x3
18000572c: 6f f0 1f a7 	j	0x18000519c <_vsnprintf+0x188>
180005730: 13 04 00 00 	li	s0, 0x0
180005734: e3 e8 9b b2 	bltu	s7, s1, 0x180005264 <_vsnprintf+0x250>
180005738: 6f f0 9f b2 	j	0x180005260 <_vsnprintf+0x24c>
18000573c: 93 8b 0c 00 	mv	s7, s9
180005740: e3 06 04 e0 	beqz	s0, 0x18000554c <_vsnprintf+0x538>
180005744: 6f f0 9f f5 	j	0x18000569c <_vsnprintf+0x688>
180005748: 13 07 10 00 	li	a4, 0x1
18000574c: 63 7c b7 0b 	bgeu	a4, s11, 0x180005804 <_vsnprintf+0x7f0>
180005750: 9b 87 ed ff 	addiw	a5, s11, -0x2
180005754: 13 94 07 02 	slli	s0, a5, 0x20
180005758: 13 54 04 02 	srli	s0, s0, 0x20
18000575c: b3 0c 94 01 	add	s9, s0, s9
180005760: 93 8d 0b 00 	mv	s11, s7
180005764: 13 86 0d 00 	mv	a2, s11
180005768: 93 86 04 00 	mv	a3, s1
18000576c: 93 8d 1d 00 	addi	s11, s11, 0x1
180005770: 93 05 09 00 	mv	a1, s2
180005774: 13 05 00 02 	li	a0, 0x20
180005778: e7 80 09 00 	jalr	s3
18000577c: e3 94 9d ff 	bne	s11, s9, 0x180005764 <_vsnprintf+0x750>
180005780: 03 45 0c 00 	lbu	a0, 0x0(s8)
180005784: 93 8e 2b 00 	addi	t4, s7, 0x2
180005788: 93 86 04 00 	mv	a3, s1
18000578c: 13 86 0d 00 	mv	a2, s11
180005790: 93 05 09 00 	mv	a1, s2
180005794: b3 8b 8e 00 	add	s7, t4, s0
180005798: 13 0c 0d 00 	mv	s8, s10
18000579c: e7 80 09 00 	jalr	s3
1800057a0: 6f f0 9f 90 	j	0x1800050a8 <_vsnprintf+0x94>
1800057a4: 63 76 bd 23 	bgeu	s10, s11, 0x1800059d0 <_vsnprintf+0x9bc>
1800057a8: 1b 87 fd ff 	addiw	a4, s11, -0x1
1800057ac: 3b 0d a7 41 	subw	s10, a4, s10
1800057b0: 13 1d 0d 02 	slli	s10, s10, 0x20
1800057b4: 13 5d 0d 02 	srli	s10, s10, 0x20
1800057b8: 13 8c 1b 00 	addi	s8, s7, 0x1
1800057bc: 33 0d 8d 01 	add	s10, s10, s8
1800057c0: 6f 00 80 00 	j	0x1800057c8 <_vsnprintf+0x7b4>
1800057c4: 13 0c 1c 00 	addi	s8, s8, 0x1
1800057c8: 13 86 0b 00 	mv	a2, s7
1800057cc: 93 86 04 00 	mv	a3, s1
1800057d0: 93 05 09 00 	mv	a1, s2
1800057d4: 13 05 00 02 	li	a0, 0x20
1800057d8: 93 0b 0c 00 	mv	s7, s8
1800057dc: e7 80 09 00 	jalr	s3
1800057e0: e3 12 ac ff 	bne	s8, s10, 0x1800057c4 <_vsnprintf+0x7b0>
1800057e4: 83 37 01 01 	ld	a5, 0x10(sp)
1800057e8: 1b 8d 1d 00 	addiw	s10, s11, 0x1
1800057ec: 03 c5 07 00 	lbu	a0, 0x0(a5)
1800057f0: e3 10 05 d2 	bnez	a0, 0x180005510 <_vsnprintf+0x4fc>
1800057f4: 6f f0 9f d5 	j	0x18000554c <_vsnprintf+0x538>
1800057f8: 93 76 e4 fe 	andi	a3, s0, -0x12
1800057fc: 9b 86 06 00 	sext.w	a3, a3
180005800: 6f f0 df e1 	j	0x18000561c <_vsnprintf+0x608>
180005804: 03 45 0c 00 	lbu	a0, 0x0(s8)
180005808: 93 86 04 00 	mv	a3, s1
18000580c: 13 86 0b 00 	mv	a2, s7
180005810: 93 05 09 00 	mv	a1, s2
180005814: e7 80 09 00 	jalr	s3
180005818: 93 8b 0c 00 	mv	s7, s9
18000581c: 13 0c 0d 00 	mv	s8, s10
180005820: 6f f0 9f 88 	j	0x1800050a8 <_vsnprintf+0x94>
180005824: 83 37 0c 00 	ld	a5, 0x0(s8)
180005828: 23 34 d1 00 	sd	a3, 0x8(sp)
18000582c: 13 86 0b 00 	mv	a2, s7
180005830: 13 d7 f7 43 	srai	a4, a5, 0x3f
180005834: b3 46 f7 00 	xor	a3, a4, a5
180005838: 23 30 b1 01 	sd	s11, 0x0(sp)
18000583c: 93 88 0c 00 	mv	a7, s9
180005840: 13 08 a0 00 	li	a6, 0xa
180005844: 93 d7 f7 03 	srli	a5, a5, 0x3f
180005848: 33 87 e6 40 	sub	a4, a3, a4
18000584c: 93 86 04 00 	mv	a3, s1
180005850: 93 05 09 00 	mv	a1, s2
180005854: 13 85 09 00 	mv	a0, s3
180005858: ef e0 5f bb 	jal	0x18000440c <_ntoa_long_long>
18000585c: 93 0b 05 00 	mv	s7, a0
180005860: 13 0c 04 00 	mv	s8, s0
180005864: 6f f0 5f 84 	j	0x1800050a8 <_vsnprintf+0x94>
180005868: 13 77 04 40 	andi	a4, s0, 0x400
18000586c: 63 0a 07 12 	beqz	a4, 0x1800059a0 <_vsnprintf+0x98c>
180005870: 93 76 24 ff 	andi	a3, s0, -0xe
180005874: 9b 86 06 00 	sext.w	a3, a3
180005878: 13 08 20 00 	li	a6, 0x2
18000587c: 13 f7 06 20 	andi	a4, a3, 0x200
180005880: 13 04 8c 00 	addi	s0, s8, 0x8
180005884: 13 86 06 00 	mv	a2, a3
180005888: 63 1a 07 04 	bnez	a4, 0x1800058dc <_vsnprintf+0x8c8>
18000588c: 13 f7 06 10 	andi	a4, a3, 0x100
180005890: 63 1a 07 0e 	bnez	a4, 0x180005984 <_vsnprintf+0x970>
180005894: 13 77 06 04 	andi	a4, a2, 0x40
180005898: 63 0e 07 0c 	beqz	a4, 0x180005974 <_vsnprintf+0x960>
18000589c: 03 47 0c 00 	lbu	a4, 0x0(s8)
1800058a0: 13 17 07 02 	slli	a4, a4, 0x20
1800058a4: 13 86 0b 00 	mv	a2, s7
1800058a8: 23 34 d1 00 	sd	a3, 0x8(sp)
1800058ac: 23 30 b1 01 	sd	s11, 0x0(sp)
1800058b0: 93 88 0c 00 	mv	a7, s9
1800058b4: 93 07 00 00 	li	a5, 0x0
1800058b8: 13 57 07 02 	srli	a4, a4, 0x20
1800058bc: 6f f0 5f da 	j	0x180005660 <_vsnprintf+0x64c>
1800058c0: 13 77 04 40 	andi	a4, s0, 0x400
1800058c4: 63 0c 07 10 	beqz	a4, 0x1800059dc <_vsnprintf+0x9c8>
1800058c8: 93 76 24 ff 	andi	a3, s0, -0xe
1800058cc: 9b 86 06 00 	sext.w	a3, a3
1800058d0: 93 e6 06 02 	ori	a3, a3, 0x20
1800058d4: 13 08 00 01 	li	a6, 0x10
1800058d8: 6f f0 5f fa 	j	0x18000587c <_vsnprintf+0x868>
1800058dc: 03 37 0c 00 	ld	a4, 0x0(s8)
1800058e0: 13 86 0b 00 	mv	a2, s7
1800058e4: 23 34 d1 00 	sd	a3, 0x8(sp)
1800058e8: 23 30 b1 01 	sd	s11, 0x0(sp)
1800058ec: 93 88 0c 00 	mv	a7, s9
1800058f0: 93 07 00 00 	li	a5, 0x0
1800058f4: 6f f0 9f f5 	j	0x18000584c <_vsnprintf+0x838>
1800058f8: 13 07 f0 06 	li	a4, 0x6f
1800058fc: 63 1c e5 0e 	bne	a0, a4, 0x1800059f4 <_vsnprintf+0x9e0>
180005900: 93 76 34 ff 	andi	a3, s0, -0xd
180005904: 13 77 04 40 	andi	a4, s0, 0x400
180005908: 13 08 80 00 	li	a6, 0x8
18000590c: 9b 86 06 00 	sext.w	a3, a3
180005910: e3 06 07 f6 	beqz	a4, 0x18000587c <_vsnprintf+0x868>
180005914: 93 76 24 ff 	andi	a3, s0, -0xe
180005918: 9b 86 06 00 	sext.w	a3, a3
18000591c: 6f f0 1f f6 	j	0x18000587c <_vsnprintf+0x868>
180005920: 83 37 0c 00 	ld	a5, 0x0(s8)
180005924: 23 34 d1 00 	sd	a3, 0x8(sp)
180005928: 13 86 0b 00 	mv	a2, s7
18000592c: 13 d7 f7 43 	srai	a4, a5, 0x3f
180005930: b3 46 f7 00 	xor	a3, a4, a5
180005934: 23 30 b1 01 	sd	s11, 0x0(sp)
180005938: 93 88 0c 00 	mv	a7, s9
18000593c: 13 08 a0 00 	li	a6, 0xa
180005940: 93 d7 f7 03 	srli	a5, a5, 0x3f
180005944: 33 87 e6 40 	sub	a4, a3, a4
180005948: 6f f0 9f d1 	j	0x180005660 <_vsnprintf+0x64c>
18000594c: 13 76 06 08 	andi	a2, a2, 0x80
180005950: 63 00 06 06 	beqz	a2, 0x1800059b0 <_vsnprintf+0x99c>
180005954: 9b 97 07 01 	slliw	a5, a5, 0x10
180005958: 9b d7 07 41 	sraiw	a5, a5, 0x10
18000595c: 1b d6 f7 40 	sraiw	a2, a5, 0xf
180005960: 33 c7 c7 00 	xor	a4, a5, a2
180005964: 3b 07 c7 40 	subw	a4, a4, a2
180005968: 13 17 07 03 	slli	a4, a4, 0x30
18000596c: 13 57 07 03 	srli	a4, a4, 0x30
180005970: 6f f0 9f cd 	j	0x180005648 <_vsnprintf+0x634>
180005974: 13 76 06 08 	andi	a2, a2, 0x80
180005978: 63 08 06 04 	beqz	a2, 0x1800059c8 <_vsnprintf+0x9b4>
18000597c: 03 57 0c 00 	lhu	a4, 0x0(s8)
180005980: 6f f0 1f f2 	j	0x1800058a0 <_vsnprintf+0x88c>
180005984: 03 37 0c 00 	ld	a4, 0x0(s8)
180005988: 13 86 0b 00 	mv	a2, s7
18000598c: 23 34 d1 00 	sd	a3, 0x8(sp)
180005990: 23 30 b1 01 	sd	s11, 0x0(sp)
180005994: 93 88 0c 00 	mv	a7, s9
180005998: 93 07 00 00 	li	a5, 0x0
18000599c: 6f f0 5f cc 	j	0x180005660 <_vsnprintf+0x64c>
1800059a0: 93 76 34 ff 	andi	a3, s0, -0xd
1800059a4: 9b 86 06 00 	sext.w	a3, a3
1800059a8: 13 08 20 00 	li	a6, 0x2
1800059ac: 6f f0 1f ed 	j	0x18000587c <_vsnprintf+0x868>
1800059b0: 1b d6 f7 41 	sraiw	a2, a5, 0x1f
1800059b4: 33 c7 c7 00 	xor	a4, a5, a2
1800059b8: 3b 07 c7 40 	subw	a4, a4, a2
1800059bc: 6f f0 df c8 	j	0x180005648 <_vsnprintf+0x634>
1800059c0: 13 0d 00 00 	li	s10, 0x0
1800059c4: 6f f0 5f b2 	j	0x1800054e8 <_vsnprintf+0x4d4>
1800059c8: 03 27 0c 00 	lw	a4, 0x0(s8)
1800059cc: 6f f0 5f ed 	j	0x1800058a0 <_vsnprintf+0x88c>
1800059d0: 1b 0d 1d 00 	addiw	s10, s10, 0x1
1800059d4: e3 1e 05 b2 	bnez	a0, 0x180005510 <_vsnprintf+0x4fc>
1800059d8: 6f f0 5f b7 	j	0x18000554c <_vsnprintf+0x538>
1800059dc: 13 64 04 02 	ori	s0, s0, 0x20
1800059e0: 1b 04 04 00 	sext.w	s0, s0
1800059e4: 93 76 34 ff 	andi	a3, s0, -0xd
1800059e8: 9b 86 06 00 	sext.w	a3, a3
1800059ec: 13 08 00 01 	li	a6, 0x10
1800059f0: 6f f0 df e8 	j	0x18000587c <_vsnprintf+0x868>
1800059f4: 93 76 f4 fe 	andi	a3, s0, -0x11
1800059f8: 13 06 90 06 	li	a2, 0x69
1800059fc: 13 07 04 00 	mv	a4, s0
180005a00: 9b 86 06 00 	sext.w	a3, a3
180005a04: 63 1c c5 00 	bne	a0, a2, 0x180005a1c <_vsnprintf+0xa08>
180005a08: 13 78 04 40 	andi	a6, s0, 0x400
180005a0c: e3 08 08 c0 	beqz	a6, 0x18000561c <_vsnprintf+0x608>
180005a10: 13 77 e7 fe 	andi	a4, a4, -0x12
180005a14: 9b 06 07 00 	sext.w	a3, a4
180005a18: 6f f0 5f c0 	j	0x18000561c <_vsnprintf+0x608>
180005a1c: 13 78 04 40 	andi	a6, s0, 0x400
180005a20: 63 08 08 00 	beqz	a6, 0x180005a30 <_vsnprintf+0xa1c>
180005a24: 13 84 06 00 	mv	s0, a3
180005a28: 13 08 a0 00 	li	a6, 0xa
180005a2c: 6f f0 9f ee 	j	0x180005914 <_vsnprintf+0x900>
180005a30: 13 77 37 fe 	andi	a4, a4, -0x1d
180005a34: 9b 06 07 00 	sext.w	a3, a4
180005a38: 13 08 a0 00 	li	a6, 0xa
180005a3c: 6f f0 1f e4 	j	0x18000587c <_vsnprintf+0x868>

0000000180005a40 <tiny_vprintf>:
180005a40: 13 01 01 fe 	addi	sp, sp, -0x20
180005a44: 93 06 05 00 	mv	a3, a0
180005a48: 13 87 05 00 	mv	a4, a1
180005a4c: 13 06 f0 ff 	li	a2, -0x1
180005a50: 93 05 81 00 	addi	a1, sp, 0x8
180005a54: 17 f5 ff ff 	auipc	a0, 0xfffff
180005a58: 13 05 45 dc 	addi	a0, a0, -0x23c
180005a5c: 23 3c 11 00 	sd	ra, 0x18(sp)
180005a60: ef f0 4f db 	jal	0x180005014 <_vsnprintf>
180005a64: 83 30 81 01 	ld	ra, 0x18(sp)
180005a68: 13 01 01 02 	addi	sp, sp, 0x20
180005a6c: 67 80 00 00 	ret

0000000180005a70 <dummy>:
180005a70: 67 80 00 00 	ret

0000000180005a74 <libc_exit_fini>:
180005a74: 13 01 01 fe 	addi	sp, sp, -0x20
180005a78: 23 3c 11 00 	sd	ra, 0x18(sp)
180005a7c: 23 38 81 00 	sd	s0, 0x10(sp)
180005a80: 23 34 91 00 	sd	s1, 0x8(sp)
180005a84: 23 30 21 01 	sd	s2, 0x0(sp)
180005a88: 17 25 00 00 	auipc	a0, 0x2
180005a8c: 03 34 85 c4 	ld	s0, -0x3b8(a0)
180005a90: 17 25 00 00 	auipc	a0, 0x2
180005a94: 83 34 85 c4 	ld	s1, -0x3b8(a0)
180005a98: 1b 05 04 00 	sext.w	a0, s0
180005a9c: 9b 84 04 00 	sext.w	s1, s1
180005aa0: 63 f0 a4 02 	bgeu	s1, a0, 0x180005ac0 <libc_exit_fini+0x4c>
180005aa4: 13 15 04 02 	slli	a0, s0, 0x20
180005aa8: 13 55 05 02 	srli	a0, a0, 0x20
180005aac: 83 35 85 ff 	ld	a1, -0x8(a0)
180005ab0: 1b 09 85 ff 	addiw	s2, a0, -0x8
180005ab4: e7 80 05 00 	jalr	a1
180005ab8: 13 04 84 ff 	addi	s0, s0, -0x8
180005abc: e3 e4 24 ff 	bltu	s1, s2, 0x180005aa4 <libc_exit_fini+0x30>
180005ac0: 83 30 81 01 	ld	ra, 0x18(sp)
180005ac4: 03 34 01 01 	ld	s0, 0x10(sp)
180005ac8: 83 34 81 00 	ld	s1, 0x8(sp)
180005acc: 03 39 01 00 	ld	s2, 0x0(sp)
180005ad0: 13 01 01 02 	addi	sp, sp, 0x20
180005ad4: 6f f0 df f9 	j	0x180005a70 <dummy>

0000000180005ad8 <memcpy>:
180005ad8: 13 01 01 fe 	addi	sp, sp, -0x20
180005adc: 23 3c 81 00 	sd	s0, 0x18(sp)
180005ae0: 23 38 91 00 	sd	s1, 0x10(sp)
180005ae4: 23 34 21 01 	sd	s2, 0x8(sp)
180005ae8: 23 30 31 01 	sd	s3, 0x0(sp)
180005aec: 93 f6 35 00 	andi	a3, a1, 0x3
180005af0: b3 36 d0 00 	snez	a3, a3
180005af4: 33 37 c0 00 	snez	a4, a2
180005af8: b3 f7 e6 00 	and	a5, a3, a4
180005afc: 0b a7 17 00 	vx_split_n	a4, a5
180005b00: 93 06 05 00 	mv	a3, a0
180005b04: 63 8c 07 04 	beqz	a5, 0x180005b5c <memcpy+0x84>
180005b08: 93 87 15 00 	addi	a5, a1, 0x1
180005b0c: 73 28 40 cc 	csrr	a6, tmask
180005b10: 93 82 05 00 	mv	t0, a1
180005b14: 13 03 05 00 	mv	t1, a0
180005b18: 93 08 06 00 	mv	a7, a2
180005b1c: 03 c6 02 00 	lbu	a2, 0x0(t0)
180005b20: 93 85 12 00 	addi	a1, t0, 0x1
180005b24: 93 06 13 00 	addi	a3, t1, 0x1
180005b28: 23 00 c3 00 	sb	a2, 0x0(t1)
180005b2c: 1b 86 f8 ff 	addiw	a2, a7, -0x1
180005b30: 93 f2 37 00 	andi	t0, a5, 0x3
180005b34: 93 b2 12 00 	seqz	t0, t0
180005b38: 93 88 f8 ff 	addi	a7, a7, -0x1
180005b3c: 93 b8 18 00 	seqz	a7, a7
180005b40: b3 e3 12 01 	or	t2, t0, a7
180005b44: 93 87 17 00 	addi	a5, a5, 0x1
180005b48: 8b d0 03 01 	vx_pred_n	t2, a6
180005b4c: 93 82 05 00 	mv	t0, a1
180005b50: 13 83 06 00 	mv	t1, a3
180005b54: 93 08 06 00 	mv	a7, a2
180005b58: e3 82 03 fc 	beqz	t2, 0x180005b1c <memcpy+0x44>
180005b5c: 0b 30 07 00 	vx_join	a4
180005b60: 13 08 00 00 	li	a6, 0x0
180005b64: 93 fe 36 00 	andi	t4, a3, 0x3
180005b68: 33 33 d0 01 	snez	t1, t4
180005b6c: 0b 27 13 00 	vx_split_n	a4, t1
180005b70: 93 02 10 00 	li	t0, 0x1
180005b74: 63 08 03 38 	beqz	t1, 0x180005f04 <memcpy+0x42c>
180005b78: 93 37 06 02 	sltiu	a5, a2, 0x20
180005b7c: 13 c3 17 00 	xori	t1, a5, 0x1
180005b80: 8b 22 13 00 	vx_split_n	t0, t1
180005b84: 93 88 05 00 	mv	a7, a1
180005b88: 93 87 06 00 	mv	a5, a3
180005b8c: 13 08 06 00 	mv	a6, a2
180005b90: 63 0a 03 1e 	beqz	t1, 0x180005d84 <memcpy+0x2ac>
180005b94: 03 a3 05 00 	lw	t1, 0x0(a1)
180005b98: 93 a7 3e 00 	slti	a5, t4, 0x3
180005b9c: 13 ce 17 00 	xori	t3, a5, 0x1
180005ba0: 8b 23 1e 00 	vx_split_n	t2, t3
180005ba4: 13 0f 10 00 	li	t5, 0x1
180005ba8: 63 06 0e 08 	beqz	t3, 0x180005c34 <memcpy+0x15c>
180005bac: 93 87 16 00 	addi	a5, a3, 0x1
180005bb0: 23 80 66 00 	sb	t1, 0x0(a3)
180005bb4: 13 08 f6 ff 	addi	a6, a2, -0x1
180005bb8: 93 88 05 01 	addi	a7, a1, 0x10
180005bbc: 73 2e 40 cc 	csrr	t3, tmask
180005bc0: 13 0f 03 00 	mv	t5, t1
180005bc4: 83 af 48 ff 	lw	t6, -0xc(a7)
180005bc8: 1b 5f 8f 00 	srliw	t5, t5, 0x8
180005bcc: 13 94 8f 01 	slli	s0, t6, 0x18
180005bd0: 83 a4 88 ff 	lw	s1, -0x8(a7)
180005bd4: 33 6f e4 01 	or	t5, s0, t5
180005bd8: 23 a0 e7 01 	sw	t5, 0x0(a5)
180005bdc: 1b df 8f 00 	srliw	t5, t6, 0x8
180005be0: 93 9f 84 01 	slli	t6, s1, 0x18
180005be4: 03 a4 c8 ff 	lw	s0, -0x4(a7)
180005be8: 33 ef ef 01 	or	t5, t6, t5
180005bec: 23 a2 e7 01 	sw	t5, 0x4(a5)
180005bf0: 9b df 84 00 	srliw	t6, s1, 0x8
180005bf4: 93 14 84 01 	slli	s1, s0, 0x18
180005bf8: 03 af 08 00 	lw	t5, 0x0(a7)
180005bfc: b3 ef f4 01 	or	t6, s1, t6
180005c00: 23 a4 f7 01 	sw	t6, 0x8(a5)
180005c04: 9b 5f 84 00 	srliw	t6, s0, 0x8
180005c08: 13 14 8f 01 	slli	s0, t5, 0x18
180005c0c: b3 6f f4 01 	or	t6, s0, t6
180005c10: 23 a6 f7 01 	sw	t6, 0xc(a5)
180005c14: 93 87 07 01 	addi	a5, a5, 0x10
180005c18: 1b 08 08 ff 	addiw	a6, a6, -0x10
180005c1c: 93 88 08 01 	addi	a7, a7, 0x10
180005c20: 93 3f 38 01 	sltiu	t6, a6, 0x13
180005c24: 8b d0 cf 01 	vx_pred_n	t6, t3
180005c28: e3 8e 0f f8 	beqz	t6, 0x180005bc4 <memcpy+0xec>
180005c2c: 13 0f 00 00 	li	t5, 0x0
180005c30: 93 88 18 ff 	addi	a7, a7, -0xf
180005c34: 13 8e 05 01 	addi	t3, a1, 0x10
180005c38: 0b b0 03 00 	vx_join	t2
180005c3c: 8b 23 1f 00 	vx_split_n	t2, t5
180005c40: 63 00 0f 14 	beqz	t5, 0x180005d80 <memcpy+0x2a8>
180005c44: 93 8e ee ff 	addi	t4, t4, -0x2
180005c48: 33 34 d0 01 	snez	s0, t4
180005c4c: 0b 2f 14 00 	vx_split_n	t5, s0
180005c50: 93 0f 10 00 	li	t6, 0x1
180005c54: 93 5e 83 00 	srli	t4, t1, 0x8
180005c58: 63 0c 04 08 	beqz	s0, 0x180005cf0 <memcpy+0x218>
180005c5c: 23 80 66 00 	sb	t1, 0x0(a3)
180005c60: a3 80 d6 01 	sb	t4, 0x1(a3)
180005c64: 13 58 03 01 	srli	a6, t1, 0x10
180005c68: 93 87 36 00 	addi	a5, a3, 0x3
180005c6c: 23 81 06 01 	sb	a6, 0x2(a3)
180005c70: 13 08 d6 ff 	addi	a6, a2, -0x3
180005c74: 93 88 05 01 	addi	a7, a1, 0x10
180005c78: f3 2f 40 cc 	csrr	t6, tmask
180005c7c: 13 04 03 00 	mv	s0, t1
180005c80: 83 a4 48 ff 	lw	s1, -0xc(a7)
180005c84: 1b 54 84 01 	srliw	s0, s0, 0x18
180005c88: 13 99 84 00 	slli	s2, s1, 0x8
180005c8c: 83 a9 88 ff 	lw	s3, -0x8(a7)
180005c90: 33 64 89 00 	or	s0, s2, s0
180005c94: 23 a0 87 00 	sw	s0, 0x0(a5)
180005c98: 1b d4 84 01 	srliw	s0, s1, 0x18
180005c9c: 93 94 89 00 	slli	s1, s3, 0x8
180005ca0: 03 a9 c8 ff 	lw	s2, -0x4(a7)
180005ca4: 33 e4 84 00 	or	s0, s1, s0
180005ca8: 23 a2 87 00 	sw	s0, 0x4(a5)
180005cac: 9b d4 89 01 	srliw	s1, s3, 0x18
180005cb0: 93 19 89 00 	slli	s3, s2, 0x8
180005cb4: 03 a4 08 00 	lw	s0, 0x0(a7)
180005cb8: b3 e4 99 00 	or	s1, s3, s1
180005cbc: 23 a4 97 00 	sw	s1, 0x8(a5)
180005cc0: 9b 54 89 01 	srliw	s1, s2, 0x18
180005cc4: 13 19 84 00 	slli	s2, s0, 0x8
180005cc8: b3 64 99 00 	or	s1, s2, s1
180005ccc: 23 a6 97 00 	sw	s1, 0xc(a5)
180005cd0: 93 87 07 01 	addi	a5, a5, 0x10
180005cd4: 1b 08 08 ff 	addiw	a6, a6, -0x10
180005cd8: 93 88 08 01 	addi	a7, a7, 0x10
180005cdc: 93 34 18 01 	sltiu	s1, a6, 0x11
180005ce0: 8b d0 f4 01 	vx_pred_n	s1, t6
180005ce4: e3 8e 04 f8 	beqz	s1, 0x180005c80 <memcpy+0x1a8>
180005ce8: 93 0f 00 00 	li	t6, 0x0
180005cec: 93 88 38 ff 	addi	a7, a7, -0xd
180005cf0: 0b 30 0f 00 	vx_join	t5
180005cf4: 0b af 1f 00 	vx_split_n	t5, t6
180005cf8: 63 82 0f 08 	beqz	t6, 0x180005d7c <memcpy+0x2a4>
180005cfc: 23 80 66 00 	sb	t1, 0x0(a3)
180005d00: 93 87 26 00 	addi	a5, a3, 0x2
180005d04: a3 80 d6 01 	sb	t4, 0x1(a3)
180005d08: 13 08 e6 ff 	addi	a6, a2, -0x2
180005d0c: f3 28 40 cc 	csrr	a7, tmask
180005d10: 83 2e 4e ff 	lw	t4, -0xc(t3)
180005d14: 1b 53 03 01 	srliw	t1, t1, 0x10
180005d18: 93 9f 0e 01 	slli	t6, t4, 0x10
180005d1c: 03 24 8e ff 	lw	s0, -0x8(t3)
180005d20: 33 e3 6f 00 	or	t1, t6, t1
180005d24: 23 a0 67 00 	sw	t1, 0x0(a5)
180005d28: 1b d3 0e 01 	srliw	t1, t4, 0x10
180005d2c: 93 1e 04 01 	slli	t4, s0, 0x10
180005d30: 83 2f ce ff 	lw	t6, -0x4(t3)
180005d34: 33 e3 6e 00 	or	t1, t4, t1
180005d38: 23 a2 67 00 	sw	t1, 0x4(a5)
180005d3c: 9b 5e 04 01 	srliw	t4, s0, 0x10
180005d40: 13 94 0f 01 	slli	s0, t6, 0x10
180005d44: 03 23 0e 00 	lw	t1, 0x0(t3)
180005d48: b3 6e d4 01 	or	t4, s0, t4
180005d4c: 23 a4 d7 01 	sw	t4, 0x8(a5)
180005d50: 9b de 0f 01 	srliw	t4, t6, 0x10
180005d54: 93 1f 03 01 	slli	t6, t1, 0x10
180005d58: b3 ee df 01 	or	t4, t6, t4
180005d5c: 23 a6 d7 01 	sw	t4, 0xc(a5)
180005d60: 93 87 07 01 	addi	a5, a5, 0x10
180005d64: 1b 08 08 ff 	addiw	a6, a6, -0x10
180005d68: 13 0e 0e 01 	addi	t3, t3, 0x10
180005d6c: 93 3e 28 01 	sltiu	t4, a6, 0x12
180005d70: 8b d0 1e 01 	vx_pred_n	t4, a7
180005d74: e3 8e 0e f8 	beqz	t4, 0x180005d10 <memcpy+0x238>
180005d78: 93 08 2e ff 	addi	a7, t3, -0xe
180005d7c: 0b 30 0f 00 	vx_join	t5
180005d80: 0b b0 03 00 	vx_join	t2
180005d84: 0b b0 02 00 	vx_join	t0
180005d88: 9b 02 08 00 	sext.w	t0, a6
180005d8c: 93 b2 02 01 	sltiu	t0, t0, 0x10
180005d90: 13 c3 12 00 	xori	t1, t0, 0x1
180005d94: 8b 22 13 00 	vx_split_n	t0, t1
180005d98: 63 08 03 08 	beqz	t1, 0x180005e28 <memcpy+0x350>
180005d9c: 03 c3 08 00 	lbu	t1, 0x0(a7)
180005da0: 83 c3 18 00 	lbu	t2, 0x1(a7)
180005da4: 03 ce 28 00 	lbu	t3, 0x2(a7)
180005da8: 23 80 67 00 	sb	t1, 0x0(a5)
180005dac: a3 80 77 00 	sb	t2, 0x1(a5)
180005db0: 03 c3 38 00 	lbu	t1, 0x3(a7)
180005db4: 23 81 c7 01 	sb	t3, 0x2(a5)
180005db8: 83 c3 48 00 	lbu	t2, 0x4(a7)
180005dbc: 03 ce 58 00 	lbu	t3, 0x5(a7)
180005dc0: a3 81 67 00 	sb	t1, 0x3(a5)
180005dc4: 03 c3 68 00 	lbu	t1, 0x6(a7)
180005dc8: 23 82 77 00 	sb	t2, 0x4(a5)
180005dcc: a3 82 c7 01 	sb	t3, 0x5(a5)
180005dd0: 83 c3 78 00 	lbu	t2, 0x7(a7)
180005dd4: 23 83 67 00 	sb	t1, 0x6(a5)
180005dd8: 03 c3 88 00 	lbu	t1, 0x8(a7)
180005ddc: 03 ce 98 00 	lbu	t3, 0x9(a7)
180005de0: a3 83 77 00 	sb	t2, 0x7(a5)
180005de4: 83 c3 a8 00 	lbu	t2, 0xa(a7)
180005de8: 23 84 67 00 	sb	t1, 0x8(a5)
180005dec: a3 84 c7 01 	sb	t3, 0x9(a5)
180005df0: 03 c3 b8 00 	lbu	t1, 0xb(a7)
180005df4: 23 85 77 00 	sb	t2, 0xa(a5)
180005df8: 83 c3 c8 00 	lbu	t2, 0xc(a7)
180005dfc: 03 ce d8 00 	lbu	t3, 0xd(a7)
180005e00: a3 85 67 00 	sb	t1, 0xb(a5)
180005e04: 03 c3 e8 00 	lbu	t1, 0xe(a7)
180005e08: 23 86 77 00 	sb	t2, 0xc(a5)
180005e0c: a3 86 c7 01 	sb	t3, 0xd(a5)
180005e10: 83 c3 f8 00 	lbu	t2, 0xf(a7)
180005e14: 23 87 67 00 	sb	t1, 0xe(a5)
180005e18: 93 88 08 01 	addi	a7, a7, 0x10
180005e1c: 13 83 07 01 	addi	t1, a5, 0x10
180005e20: a3 87 77 00 	sb	t2, 0xf(a5)
180005e24: 93 07 03 00 	mv	a5, t1
180005e28: 0b b0 02 00 	vx_join	t0
180005e2c: 93 12 c8 03 	slli	t0, a6, 0x3c
180005e30: 13 d3 f2 03 	srli	t1, t0, 0x3f
180005e34: 8b 22 13 00 	vx_split_n	t0, t1
180005e38: 63 08 03 04 	beqz	t1, 0x180005e88 <memcpy+0x3b0>
180005e3c: 03 c3 08 00 	lbu	t1, 0x0(a7)
180005e40: 83 c3 18 00 	lbu	t2, 0x1(a7)
180005e44: 03 ce 28 00 	lbu	t3, 0x2(a7)
180005e48: 23 80 67 00 	sb	t1, 0x0(a5)
180005e4c: a3 80 77 00 	sb	t2, 0x1(a5)
180005e50: 03 c3 38 00 	lbu	t1, 0x3(a7)
180005e54: 23 81 c7 01 	sb	t3, 0x2(a5)
180005e58: 83 c3 48 00 	lbu	t2, 0x4(a7)
180005e5c: 03 ce 58 00 	lbu	t3, 0x5(a7)
180005e60: a3 81 67 00 	sb	t1, 0x3(a5)
180005e64: 03 c3 68 00 	lbu	t1, 0x6(a7)
180005e68: 23 82 77 00 	sb	t2, 0x4(a5)
180005e6c: a3 82 c7 01 	sb	t3, 0x5(a5)
180005e70: 83 c3 78 00 	lbu	t2, 0x7(a7)
180005e74: 23 83 67 00 	sb	t1, 0x6(a5)
180005e78: 93 88 88 00 	addi	a7, a7, 0x8
180005e7c: 13 83 87 00 	addi	t1, a5, 0x8
180005e80: a3 83 77 00 	sb	t2, 0x7(a5)
180005e84: 93 07 03 00 	mv	a5, t1
180005e88: 0b b0 02 00 	vx_join	t0
180005e8c: 93 12 d8 03 	slli	t0, a6, 0x3d
180005e90: 13 d3 f2 03 	srli	t1, t0, 0x3f
180005e94: 8b 22 13 00 	vx_split_n	t0, t1
180005e98: 63 08 03 02 	beqz	t1, 0x180005ec8 <memcpy+0x3f0>
180005e9c: 03 c3 08 00 	lbu	t1, 0x0(a7)
180005ea0: 83 c3 18 00 	lbu	t2, 0x1(a7)
180005ea4: 03 ce 28 00 	lbu	t3, 0x2(a7)
180005ea8: 23 80 67 00 	sb	t1, 0x0(a5)
180005eac: a3 80 77 00 	sb	t2, 0x1(a5)
180005eb0: 03 c3 38 00 	lbu	t1, 0x3(a7)
180005eb4: 23 81 c7 01 	sb	t3, 0x2(a5)
180005eb8: 93 88 48 00 	addi	a7, a7, 0x4
180005ebc: 93 83 47 00 	addi	t2, a5, 0x4
180005ec0: a3 81 67 00 	sb	t1, 0x3(a5)
180005ec4: 93 87 03 00 	mv	a5, t2
180005ec8: 0b b0 02 00 	vx_join	t0
180005ecc: 93 12 e8 03 	slli	t0, a6, 0x3e
180005ed0: 13 d3 f2 03 	srli	t1, t0, 0x3f
180005ed4: 8b 22 13 00 	vx_split_n	t0, t1
180005ed8: 63 00 03 02 	beqz	t1, 0x180005ef8 <memcpy+0x420>
180005edc: 03 c3 08 00 	lbu	t1, 0x0(a7)
180005ee0: 83 c3 18 00 	lbu	t2, 0x1(a7)
180005ee4: 23 80 67 00 	sb	t1, 0x0(a5)
180005ee8: 13 83 27 00 	addi	t1, a5, 0x2
180005eec: 93 88 28 00 	addi	a7, a7, 0x2
180005ef0: a3 80 77 00 	sb	t2, 0x1(a5)
180005ef4: 93 07 03 00 	mv	a5, t1
180005ef8: 0b b0 02 00 	vx_join	t0
180005efc: 93 02 00 00 	li	t0, 0x0
180005f00: 13 78 18 00 	andi	a6, a6, 0x1
180005f04: 0b 30 07 00 	vx_join	a4
180005f08: 0b a7 12 00 	vx_split_n	a4, t0
180005f0c: 63 84 02 0e 	beqz	t0, 0x180005ff4 <memcpy+0x51c>
180005f10: 93 37 06 01 	sltiu	a5, a2, 0x10
180005f14: 13 c8 17 00 	xori	a6, a5, 0x1
180005f18: 8b 27 18 00 	vx_split_n	a5, a6
180005f1c: 63 00 08 04 	beqz	a6, 0x180005f5c <memcpy+0x484>
180005f20: 73 28 40 cc 	csrr	a6, tmask
180005f24: 83 a8 05 00 	lw	a7, 0x0(a1)
180005f28: 83 a2 45 00 	lw	t0, 0x4(a1)
180005f2c: 03 a3 85 00 	lw	t1, 0x8(a1)
180005f30: 83 a3 c5 00 	lw	t2, 0xc(a1)
180005f34: 23 a0 16 01 	sw	a7, 0x0(a3)
180005f38: 23 a2 56 00 	sw	t0, 0x4(a3)
180005f3c: 23 a4 66 00 	sw	t1, 0x8(a3)
180005f40: 23 a6 76 00 	sw	t2, 0xc(a3)
180005f44: 93 85 05 01 	addi	a1, a1, 0x10
180005f48: 93 86 06 01 	addi	a3, a3, 0x10
180005f4c: 1b 06 06 ff 	addiw	a2, a2, -0x10
180005f50: 93 38 06 01 	sltiu	a7, a2, 0x10
180005f54: 8b d0 08 01 	vx_pred_n	a7, a6
180005f58: e3 86 08 fc 	beqz	a7, 0x180005f24 <memcpy+0x44c>
180005f5c: 0b b0 07 00 	vx_join	a5
180005f60: 93 37 86 00 	sltiu	a5, a2, 0x8
180005f64: 13 c8 17 00 	xori	a6, a5, 0x1
180005f68: 8b 27 18 00 	vx_split_n	a5, a6
180005f6c: 63 00 08 02 	beqz	a6, 0x180005f8c <memcpy+0x4b4>
180005f70: 03 a8 05 00 	lw	a6, 0x0(a1)
180005f74: 83 a8 45 00 	lw	a7, 0x4(a1)
180005f78: 93 85 85 00 	addi	a1, a1, 0x8
180005f7c: 23 a0 06 01 	sw	a6, 0x0(a3)
180005f80: 13 88 86 00 	addi	a6, a3, 0x8
180005f84: 23 a2 16 01 	sw	a7, 0x4(a3)
180005f88: 93 06 08 00 	mv	a3, a6
180005f8c: 0b b0 07 00 	vx_join	a5
180005f90: 93 17 d6 03 	slli	a5, a2, 0x3d
180005f94: 13 d8 f7 03 	srli	a6, a5, 0x3f
180005f98: 8b 27 18 00 	vx_split_n	a5, a6
180005f9c: 63 0c 08 00 	beqz	a6, 0x180005fb4 <memcpy+0x4dc>
180005fa0: 03 a8 05 00 	lw	a6, 0x0(a1)
180005fa4: 93 85 45 00 	addi	a1, a1, 0x4
180005fa8: 93 88 46 00 	addi	a7, a3, 0x4
180005fac: 23 a0 06 01 	sw	a6, 0x0(a3)
180005fb0: 93 86 08 00 	mv	a3, a7
180005fb4: 0b b0 07 00 	vx_join	a5
180005fb8: 93 17 e6 03 	slli	a5, a2, 0x3e
180005fbc: 13 d8 f7 03 	srli	a6, a5, 0x3f
180005fc0: 8b 27 18 00 	vx_split_n	a5, a6
180005fc4: 63 00 08 02 	beqz	a6, 0x180005fe4 <memcpy+0x50c>
180005fc8: 03 c8 05 00 	lbu	a6, 0x0(a1)
180005fcc: 83 c8 15 00 	lbu	a7, 0x1(a1)
180005fd0: 23 80 06 01 	sb	a6, 0x0(a3)
180005fd4: 13 88 26 00 	addi	a6, a3, 0x2
180005fd8: 93 85 25 00 	addi	a1, a1, 0x2
180005fdc: a3 80 16 01 	sb	a7, 0x1(a3)
180005fe0: 93 06 08 00 	mv	a3, a6
180005fe4: 0b b0 07 00 	vx_join	a5
180005fe8: 13 78 16 00 	andi	a6, a2, 0x1
180005fec: 93 88 05 00 	mv	a7, a1
180005ff0: 93 87 06 00 	mv	a5, a3
180005ff4: 0b 30 07 00 	vx_join	a4
180005ff8: 8b 25 18 00 	vx_split_n	a1, a6
180005ffc: 63 06 08 00 	beqz	a6, 0x180006008 <memcpy+0x530>
180006000: 03 c6 08 00 	lbu	a2, 0x0(a7)
180006004: 23 80 c7 00 	sb	a2, 0x0(a5)
180006008: 0b b0 05 00 	vx_join	a1
18000600c: 03 34 81 01 	ld	s0, 0x18(sp)
180006010: 83 34 01 01 	ld	s1, 0x10(sp)
180006014: 03 39 81 00 	ld	s2, 0x8(sp)
180006018: 83 39 01 00 	ld	s3, 0x0(sp)
18000601c: 13 01 01 02 	addi	sp, sp, 0x20
180006020: 67 80 00 00 	ret

0000000180006024 <memset>:
180006024: 33 37 c0 00 	snez	a4, a2
180006028: 8b 26 17 00 	vx_split_n	a3, a4
18000602c: 63 06 07 1a 	beqz	a4, 0x1800061d8 <memset+0x1b4>
180006030: 23 00 b5 00 	sb	a1, 0x0(a0)
180006034: 13 07 f6 ff 	addi	a4, a2, -0x1
180006038: 13 17 07 02 	slli	a4, a4, 0x20
18000603c: 13 57 07 02 	srli	a4, a4, 0x20
180006040: 33 07 e5 00 	add	a4, a0, a4
180006044: 23 00 b7 00 	sb	a1, 0x0(a4)
180006048: 13 37 36 00 	sltiu	a4, a2, 0x3
18000604c: 93 47 17 00 	xori	a5, a4, 0x1
180006050: 0b a7 17 00 	vx_split_n	a4, a5
180006054: 63 80 07 18 	beqz	a5, 0x1800061d4 <memset+0x1b0>
180006058: a3 00 b5 00 	sb	a1, 0x1(a0)
18000605c: 23 01 b5 00 	sb	a1, 0x2(a0)
180006060: 93 07 e6 ff 	addi	a5, a2, -0x2
180006064: 93 97 07 02 	slli	a5, a5, 0x20
180006068: 93 d7 07 02 	srli	a5, a5, 0x20
18000606c: b3 07 f5 00 	add	a5, a0, a5
180006070: 23 80 b7 00 	sb	a1, 0x0(a5)
180006074: 93 07 d6 ff 	addi	a5, a2, -0x3
180006078: 93 97 07 02 	slli	a5, a5, 0x20
18000607c: 93 d7 07 02 	srli	a5, a5, 0x20
180006080: b3 07 f5 00 	add	a5, a0, a5
180006084: 23 80 b7 00 	sb	a1, 0x0(a5)
180006088: 93 37 76 00 	sltiu	a5, a2, 0x7
18000608c: 13 c8 17 00 	xori	a6, a5, 0x1
180006090: 8b 27 18 00 	vx_split_n	a5, a6
180006094: 63 0e 08 12 	beqz	a6, 0x1800061d0 <memset+0x1ac>
180006098: a3 01 b5 00 	sb	a1, 0x3(a0)
18000609c: 13 08 c6 ff 	addi	a6, a2, -0x4
1800060a0: 13 18 08 02 	slli	a6, a6, 0x20
1800060a4: 13 58 08 02 	srli	a6, a6, 0x20
1800060a8: 33 08 05 01 	add	a6, a0, a6
1800060ac: 23 00 b8 00 	sb	a1, 0x0(a6)
1800060b0: 13 38 96 00 	sltiu	a6, a2, 0x9
1800060b4: 93 48 18 00 	xori	a7, a6, 0x1
1800060b8: 0b a8 18 00 	vx_split_n	a6, a7
1800060bc: 63 88 08 10 	beqz	a7, 0x1800061cc <memset+0x1a8>
1800060c0: bb 08 a0 40 	negw	a7, a0
1800060c4: 93 f8 38 00 	andi	a7, a7, 0x3
1800060c8: b3 02 15 01 	add	t0, a0, a7
1800060cc: 3b 06 16 41 	subw	a2, a2, a7
1800060d0: 13 73 c6 ff 	andi	t1, a2, -0x4
1800060d4: 93 95 85 03 	slli	a1, a1, 0x38
1800060d8: b7 13 10 10 	lui	t2, 0x10101
1800060dc: 93 93 43 00 	slli	t2, t2, 0x4
1800060e0: 93 83 03 10 	addi	t2, t2, 0x100
1800060e4: b3 b3 75 02 	mulhu	t2, a1, t2
1800060e8: 23 a0 72 00 	sw	t2, 0x0(t0)
1800060ec: 9b 55 26 00 	srliw	a1, a2, 0x2
1800060f0: 93 95 25 00 	slli	a1, a1, 0x2
1800060f4: 33 8e b2 00 	add	t3, t0, a1
1800060f8: 23 2e 7e fe 	sw	t2, -0x4(t3)
1800060fc: 93 35 93 00 	sltiu	a1, t1, 0x9
180006100: 13 c6 15 00 	xori	a2, a1, 0x1
180006104: 8b 25 16 00 	vx_split_n	a1, a2
180006108: 63 00 06 0c 	beqz	a2, 0x1800061c8 <memset+0x1a4>
18000610c: 23 a2 72 00 	sw	t2, 0x4(t0)
180006110: 23 a4 72 00 	sw	t2, 0x8(t0)
180006114: 23 2a 7e fe 	sw	t2, -0xc(t3)
180006118: 23 2c 7e fe 	sw	t2, -0x8(t3)
18000611c: 13 36 93 01 	sltiu	a2, t1, 0x19
180006120: 93 4e 16 00 	xori	t4, a2, 0x1
180006124: 0b a6 1e 00 	vx_split_n	a2, t4
180006128: 63 8e 0e 08 	beqz	t4, 0x1800061c4 <memset+0x1a0>
18000612c: 23 a6 72 00 	sw	t2, 0xc(t0)
180006130: 23 a8 72 00 	sw	t2, 0x10(t0)
180006134: 23 aa 72 00 	sw	t2, 0x14(t0)
180006138: 23 ac 72 00 	sw	t2, 0x18(t0)
18000613c: 23 22 7e fe 	sw	t2, -0x1c(t3)
180006140: 23 24 7e fe 	sw	t2, -0x18(t3)
180006144: 23 26 7e fe 	sw	t2, -0x14(t3)
180006148: 23 28 7e fe 	sw	t2, -0x10(t3)
18000614c: 93 fe 42 00 	andi	t4, t0, 0x4
180006150: 13 8f 8e 01 	addi	t5, t4, 0x18
180006154: 3b 0e e3 41 	subw	t3, t1, t5
180006158: 13 3e 0e 02 	sltiu	t3, t3, 0x20
18000615c: 93 4f 1e 00 	xori	t6, t3, 0x1
180006160: 0b ae 1f 00 	vx_split_n	t3, t6
180006164: 63 8e 0f 04 	beqz	t6, 0x1800061c0 <memset+0x19c>
180006168: 93 93 03 02 	slli	t2, t2, 0x20
18000616c: 93 df 03 02 	srli	t6, t2, 0x20
180006170: b3 e3 f3 01 	or	t2, t2, t6
180006174: b3 82 e2 01 	add	t0, t0, t5
180006178: 3b 03 d3 41 	subw	t1, t1, t4
18000617c: 13 03 83 fc 	addi	t1, t1, -0x38
180006180: 1b 53 53 00 	srliw	t1, t1, 0x5
180006184: 13 13 53 00 	slli	t1, t1, 0x5
180006188: b3 e8 1e 01 	or	a7, t4, a7
18000618c: b3 68 13 01 	or	a7, t1, a7
180006190: b3 88 a8 00 	add	a7, a7, a0
180006194: 93 88 88 03 	addi	a7, a7, 0x38
180006198: 73 23 40 cc 	csrr	t1, tmask
18000619c: 23 b0 72 00 	sd	t2, 0x0(t0)
1800061a0: 23 b4 72 00 	sd	t2, 0x8(t0)
1800061a4: 23 b8 72 00 	sd	t2, 0x10(t0)
1800061a8: 23 bc 72 00 	sd	t2, 0x18(t0)
1800061ac: 93 82 02 02 	addi	t0, t0, 0x20
1800061b0: b3 ce 12 01 	xor	t4, t0, a7
1800061b4: 93 be 1e 00 	seqz	t4, t4
1800061b8: 8b d0 6e 00 	vx_pred_n	t4, t1
1800061bc: e3 80 0e fe 	beqz	t4, 0x18000619c <memset+0x178>
1800061c0: 0b 30 0e 00 	vx_join	t3
1800061c4: 0b 30 06 00 	vx_join	a2
1800061c8: 0b b0 05 00 	vx_join	a1
1800061cc: 0b 30 08 00 	vx_join	a6
1800061d0: 0b b0 07 00 	vx_join	a5
1800061d4: 0b 30 07 00 	vx_join	a4
1800061d8: 0b b0 06 00 	vx_join	a3
1800061dc: 67 80 00 00 	ret

Disassembly of section .rodata:

00000001800061e0 <.rodata>:
1800061e0: 6b 65 72 6e 	<unknown>
1800061e4: 65 6c       	<unknown>
1800061e6: 5f 77 61 72 	<unknown>
1800061ea: 70 70       	<unknown>
1800061ec: 65 72       	<unknown>
1800061ee: 3a 20       	<unknown>
1800061f0: 67 72 6f 75 	<unknown>
1800061f4: 70 3d       	<unknown>
1800061f6: 28 25       	<unknown>
1800061f8: 64 2c       	<unknown>
1800061fa: 20 25       	<unknown>
1800061fc: 64 29       	<unknown>
1800061fe: 0a 00       	<unknown>
180006200: 6b 65 72 6e 	<unknown>
180006204: 65 6c       	<unknown>
180006206: 5f 77 72 61 	<unknown>
18000620a: 70 70       	<unknown>
18000620c: 65 72       	<unknown>
18000620e: 3a 20       	<unknown>
180006210: 6d 61       	<unknown>
180006212: 69 6e       	<unknown>
180006214: 0a 00       	<unknown>
180006216: 43 48 45 43 	fmadd.d	fa6, fa0, fs4, fs0, rmm
18000621a: 4b 3a 20 63 	fnmsub.d	fs4, ft0, fs2, fa2, rup
18000621e: 75 64       	<unknown>
180006220: 61 6d       	<unknown>
180006222: 65 6d       	<unknown>
180006224: 63 70 79 74 	bgeu	s2, t2, 0x180006964 <STARTUP_ADDR+0x6964>
180006228: 6f 73 79 6d 	jal	t1, 0x18009e0fe <_end+0x9693e>
18000622c: 62 6f       	<unknown>
18000622e: 6c 2c       	<unknown>
180006230: 20 6e       	<unknown>
180006232: 75 6d       	<unknown>
180006234: 62 65       	<unknown>
180006236: 72 20       	<unknown>
180006238: 6f 66 20 63 	jal	a2, 0x18000c86a <_end+0x50aa>
18000623c: 75 64       	<unknown>
18000623e: 61 6d       	<unknown>
180006240: 65 6d       	<unknown>
180006242: 63 70 79 74 	bgeu	s2, t2, 0x180006982 <STARTUP_ADDR+0x6982>
180006246: 6f 73 79 6d 	jal	t1, 0x18009e11c <_end+0x9695c>
18000624a: 62 6f       	<unknown>
18000624c: 6c 3d       	<unknown>
18000624e: 25 64       	<unknown>
180006250: 20 0a       	<unknown>
180006252: 00 6d       	<unknown>
180006254: 65 6d       	<unknown>
180006256: 63 70 79 5f 	bgeu	s2, s7, 0x180006836 <STARTUP_ADDR+0x6836>
18000625a: 73 79 6d 62 	csrrci	s2, 0x626, 0x1a
18000625e: 6f 6c 5b 25 	jal	s8, 0x1800bccb2 <_end+0xb54f2>
180006262: 64 5d       	<unknown>
180006264: 3a 20       	<unknown>
180006266: 64 73       	<unknown>
180006268: 74 5f       	<unknown>
18000626a: 61 64       	<unknown>
18000626c: 64 72       	<unknown>
18000626e: 3d 30       	<unknown>
180006270: 78 25       	<unknown>
180006272: 70 2c       	<unknown>
180006274: 20 73       	<unknown>
180006276: 72 63       	<unknown>
180006278: 5f 61 64 64 	<unknown>
18000627c: 72 3d       	<unknown>
18000627e: 30 78       	<unknown>
180006280: 25 70       	<unknown>
180006282: 2c 20       	<unknown>
180006284: 73 69 7a 65 	csrrsi	s2, 0x657, 0x14
180006288: 3d 25       	<unknown>
18000628a: 6c 75       	<unknown>
18000628c: 0a 00       	<unknown>
18000628e: 73 69 7a 65 	csrrsi	s2, 0x657, 0x14
180006292: 6f 66 20 65 	jal	a2, 0x18000c8e4 <_end+0x5124>
180006296: 76 65       	<unknown>
180006298: 72 79       	<unknown>
18000629a: 74 68       	<unknown>
18000629c: 69 6e       	<unknown>
18000629e: 67 20 25 64 	<unknown>
1800062a2: 20 25       	<unknown>
1800062a4: 64 20       	<unknown>
1800062a6: 25 64       	<unknown>
1800062a8: 0a 00       	<unknown>
1800062aa: 62 61       	<unknown>
1800062ac: 73 65 3a 20 	csrrsi	a0, 0x203, 0x14
1800062b0: 30 78       	<unknown>
1800062b2: 25 6c       	<unknown>
1800062b4: 78 0a       	<unknown>
1800062b6: 00 6b       	<unknown>
1800062b8: 65 72       	<unknown>
1800062ba: 6e 65       	<unknown>
1800062bc: 6c 23       	<unknown>
1800062be: 25 64       	<unknown>
1800062c0: 20 28       	<unknown>
1800062c2: 63 61 6c 6c 	bltu	s8, t1, 0x180006984 <STARTUP_ADDR+0x6984>
1800062c6: 62 61       	<unknown>
1800062c8: 63 6b 3a 30 	bltu	s4, gp, 0x1800065de <pow10.0+0x2e>
1800062cc: 78 25       	<unknown>
1800062ce: 6c 78       	<unknown>
1800062d0: 29 3a       	<unknown>
1800062d2: 20 67       	<unknown>
1800062d4: 72 69       	<unknown>
1800062d6: 64 44       	<unknown>
1800062d8: 69 6d       	<unknown>
1800062da: 3d 28       	<unknown>
1800062dc: 25 64       	<unknown>
1800062de: 2c 20       	<unknown>
1800062e0: 25 64       	<unknown>
1800062e2: 2c 20       	<unknown>
1800062e4: 25 64       	<unknown>
1800062e6: 29 2c       	<unknown>
1800062e8: 20 62       	<unknown>
1800062ea: 6c 6f       	<unknown>
1800062ec: 63 6b 44 69 	bltu	s0, s4, 0x180006982 <STARTUP_ADDR+0x6982>
1800062f0: 6d 3d       	<unknown>
1800062f2: 28 25       	<unknown>
1800062f4: 64 2c       	<unknown>
1800062f6: 20 25       	<unknown>
1800062f8: 64 2c       	<unknown>
1800062fa: 20 25       	<unknown>
1800062fc: 64 29       	<unknown>
1800062fe: 2c 20       	<unknown>
180006300: 61 72       	<unknown>
180006302: 67 73 3d 28 	<unknown>
180006306: 30 78       	<unknown>
180006308: 25 6c       	<unknown>
18000630a: 6c 78       	<unknown>
18000630c: 2c 20       	<unknown>
18000630e: 30 78       	<unknown>
180006310: 25 6c       	<unknown>
180006312: 6c 78       	<unknown>
180006314: 2c 20       	<unknown>
180006316: 30 78       	<unknown>
180006318: 25 6c       	<unknown>
18000631a: 6c 78       	<unknown>
18000631c: 2c 20       	<unknown>
18000631e: 30 78       	<unknown>
180006320: 25 6c       	<unknown>
180006322: 6c 78       	<unknown>
180006324: 2c 20       	<unknown>
180006326: 30 78       	<unknown>
180006328: 25 6c       	<unknown>
18000632a: 6c 78       	<unknown>
18000632c: 2c 20       	<unknown>
18000632e: 30 78       	<unknown>
180006330: 25 6c       	<unknown>
180006332: 6c 78       	<unknown>
180006334: 29 0a       	<unknown>
180006336: 00 77       	<unknown>
180006338: 6f 72 6b 64 	jal	tp, 0x1800bd97e <_end+0xb61be>
18000633c: 69 6d       	<unknown>
18000633e: 3d 25       	<unknown>
180006340: 64 0a       	<unknown>
180006342: 00 65       	<unknown>
180006344: 78 65       	<unknown>
180006346: 63 75 74 65 	bgeu	s0, s7, 0x180006990 <STARTUP_ADDR+0x6990>
18000634a: 20 73       	<unknown>
18000634c: 6f 6d 65 74 	jal	s10, 0x18005ca92 <_end+0x552d2>
180006350: 68 69       	<unknown>
180006352: 6e 67       	<unknown>
180006354: 0a 00       	<unknown>
180006356: 00 00       	<unknown>
180006358: 74 68       	<unknown>
18000635a: 72 65       	<unknown>
18000635c: 61 64       	<unknown>
18000635e: 5f 69 64 3a 	<unknown>
180006362: 20 25       	<unknown>
180006364: 64 2c       	<unknown>
180006366: 20 74       	<unknown>
180006368: 61 73       	<unknown>
18000636a: 6b 5f 69 64 	<unknown>
18000636e: 3a 20       	<unknown>
180006370: 25 64       	<unknown>
180006372: 0a 00       	<unknown>
180006374: 00 00       	<unknown>
180006376: 00 00       	<unknown>
180006378: 65 72       	<unknown>
18000637a: 72 6f       	<unknown>
18000637c: 72 3a       	<unknown>
18000637e: 20 67       	<unknown>
180006380: 72 6f       	<unknown>
180006382: 75 70       	<unknown>
180006384: 5f 73 69 7a 	<unknown>
180006388: 65 20       	<unknown>
18000638a: 3e 20       	<unknown>
18000638c: 74 68       	<unknown>
18000638e: 72 65       	<unknown>
180006390: 61 64       	<unknown>
180006392: 73 5f 70 65 	csrrwi	t5, 0x657, 0x0
180006396: 72 5f       	<unknown>
180006398: 63 6f 72 65 	bltu	tp, s7, 0x1800069f6 <STARTUP_ADDR+0x69f6>
18000639c: 20 28       	<unknown>
18000639e: 25 64       	<unknown>
1800063a0: 2c 25       	<unknown>
1800063a2: 64 29       	<unknown>
1800063a4: 0a 00       	<unknown>
1800063a6: 00 00       	<unknown>
1800063a8: 61 6c       	<unknown>
1800063aa: 6c 5f       	<unknown>
1800063ac: 74 61       	<unknown>
1800063ae: 73 6b 73 5f 	csrrsi	s6, 0x5f7, 0x6
1800063b2: 6f 66 66 73 	jal	a2, 0x18006cae8 <_end+0x65328>
1800063b6: 65 74       	<unknown>
1800063b8: 3a 20       	<unknown>
1800063ba: 25 64       	<unknown>
1800063bc: 2c 20       	<unknown>
1800063be: 72 65       	<unknown>
1800063c0: 6d 61       	<unknown>
1800063c2: 69 6e       	<unknown>
1800063c4: 5f 74 61 73 	<unknown>
1800063c8: 6b 73 5f 6f 	<unknown>
1800063cc: 66 66       	<unknown>
1800063ce: 73 65 74 3a 	csrrsi	a0, 0x3a7, 0x8
1800063d2: 20 25       	<unknown>
1800063d4: 64 0a       	<unknown>
1800063d6: 00 00       	<unknown>
1800063d8: 72 65       	<unknown>
1800063da: 6d 61       	<unknown>
1800063dc: 69 6e       	<unknown>
1800063de: 69 6e       	<unknown>
1800063e0: 67 20 74 61 	<unknown>
1800063e4: 73 6b 73 3a 	csrrsi	s6, 0x3a7, 0x6
1800063e8: 20 25       	<unknown>
1800063ea: 64 0a       	<unknown>
1800063ec: 00 00       	<unknown>
1800063ee: 00 00       	<unknown>
1800063f0: 66 6e       	<unknown>
1800063f2: 69 2b       	<unknown>
1800063f4: 00 00       	<unknown>
1800063f6: 00 00       	<unknown>
1800063f8: 66 6e       	<unknown>
1800063fa: 69 00       	<unknown>
1800063fc: 00 00       	<unknown>
1800063fe: 00 00       	<unknown>
180006400: 6e 61       	<unknown>
180006402: 6e 00       	<unknown>
180006404: 00 00       	<unknown>
180006406: 00 00       	<unknown>
180006408: 66 6e       	<unknown>
18000640a: 69 2d       	<unknown>
18000640c: 00 00       	<unknown>
18000640e: 00 00       	<unknown>
180006410: 6c ed       	<unknown>
180006412: ff ff d8 ec 	<unknown>
180006416: ff ff d8 ec 	<unknown>
18000641a: ff ff 5c ed 	<unknown>
18000641e: ff ff d8 ec 	<unknown>
180006422: ff ff d8 ec 	<unknown>
180006426: ff ff d8 ec 	<unknown>
18000642a: ff ff d8 ec 	<unknown>
18000642e: ff ff d8 ec 	<unknown>
180006432: ff ff d8 ec 	<unknown>
180006436: ff ff d8 ec 	<unknown>
18000643a: ff ff 4c ed 	<unknown>
18000643e: ff ff d8 ec 	<unknown>
180006442: ff ff 3c ed 	<unknown>
180006446: ff ff d8 ec 	<unknown>
18000644a: ff ff d8 ec 	<unknown>
18000644e: ff ff 2c ed 	<unknown>
180006452: ff ff 7c ef 	<unknown>
180006456: ff ff 48 ed 	<unknown>
18000645a: ff ff 38 ed 	<unknown>
18000645e: ff ff 48 ed 	<unknown>
180006462: ff ff 5c ef 	<unknown>
180006466: ff ff 48 ed 	<unknown>
18000646a: ff ff 48 ed 	<unknown>
18000646e: ff ff 48 ed 	<unknown>
180006472: ff ff 48 ed 	<unknown>
180006476: ff ff 48 ed 	<unknown>
18000647a: ff ff 48 ed 	<unknown>
18000647e: ff ff 48 ed 	<unknown>
180006482: ff ff 38 ed 	<unknown>
180006486: ff ff 48 ed 	<unknown>
18000648a: ff ff 48 ed 	<unknown>
18000648e: ff ff 48 ed 	<unknown>
180006492: ff ff 48 ed 	<unknown>
180006496: ff ff 48 ed 	<unknown>
18000649a: ff ff 38 ed 	<unknown>
18000649e: ff ff e8 ef 	<unknown>
1800064a2: ff ff f4 eb 	<unknown>
1800064a6: ff ff f4 eb 	<unknown>
1800064aa: ff ff f4 eb 	<unknown>
1800064ae: ff ff f4 eb 	<unknown>
1800064b2: ff ff f4 eb 	<unknown>
1800064b6: ff ff f4 eb 	<unknown>
1800064ba: ff ff f4 eb 	<unknown>
1800064be: ff ff f4 eb 	<unknown>
1800064c2: ff ff f4 eb 	<unknown>
1800064c6: ff ff f4 eb 	<unknown>
1800064ca: ff ff f4 eb 	<unknown>
1800064ce: ff ff f4 eb 	<unknown>
1800064d2: ff ff f4 eb 	<unknown>
1800064d6: ff ff f4 eb 	<unknown>
1800064da: ff ff f4 eb 	<unknown>
1800064de: ff ff f4 eb 	<unknown>
1800064e2: ff ff f4 eb 	<unknown>
1800064e6: ff ff f4 eb 	<unknown>
1800064ea: ff ff f4 eb 	<unknown>
1800064ee: ff ff f4 eb 	<unknown>
1800064f2: ff ff f4 eb 	<unknown>
1800064f6: ff ff f4 eb 	<unknown>
1800064fa: ff ff f4 eb 	<unknown>
1800064fe: ff ff f4 eb 	<unknown>
180006502: ff ff f4 eb 	<unknown>
180006506: ff ff f4 eb 	<unknown>
18000650a: ff ff f4 eb 	<unknown>
18000650e: ff ff f4 eb 	<unknown>
180006512: ff ff f4 eb 	<unknown>
180006516: ff ff f4 eb 	<unknown>
18000651a: ff ff f4 eb 	<unknown>
18000651e: ff ff c8 ee 	<unknown>
180006522: ff ff 4c ef 	<unknown>
180006526: ff ff c8 ee 	<unknown>
18000652a: ff ff f4 eb 	<unknown>
18000652e: ff ff f4 eb 	<unknown>
180006532: ff ff f4 eb 	<unknown>
180006536: ff ff f4 eb 	<unknown>
18000653a: ff ff f4 eb 	<unknown>
18000653e: ff ff f4 eb 	<unknown>
180006542: ff ff f4 eb 	<unknown>
180006546: ff ff f4 eb 	<unknown>
18000654a: ff ff f4 eb 	<unknown>
18000654e: ff ff f4 eb 	<unknown>
180006552: ff ff f4 eb 	<unknown>
180006556: ff ff f4 eb 	<unknown>
18000655a: ff ff f4 eb 	<unknown>
18000655e: ff ff f4 eb 	<unknown>
180006562: ff ff f4 eb 	<unknown>
180006566: ff ff f4 eb 	<unknown>
18000656a: ff ff 5c f1 	<unknown>
18000656e: ff ff f4 eb 	<unknown>
180006572: ff ff f4 eb 	<unknown>
180006576: ff ff f4 eb 	<unknown>
18000657a: ff ff f4 eb 	<unknown>
18000657e: ff ff f4 eb 	<unknown>
180006582: ff ff f4 eb 	<unknown>
180006586: ff ff f4 eb 	<unknown>
18000658a: ff ff f4 eb 	<unknown>
18000658e: ff ff f4 eb 	<unknown>
180006592: ff ff 5c f1 	<unknown>
180006596: ff ff 84 ef 	<unknown>
18000659a: ff ff 5c f1 	<unknown>
18000659e: ff ff c8 ee 	<unknown>
1800065a2: ff ff 4c ef 	<unknown>
1800065a6: ff ff c8 ee 	<unknown>
1800065aa: ff ff 00 00 	<unknown>
1800065ae: 00 00       	<unknown>

00000001800065b0 <pow10.0>:
1800065b0: 00 00       	<unknown>
1800065b2: 00 00       	<unknown>
1800065b4: 00 00       	<unknown>
1800065b6: f0 3f       	<unknown>
1800065b8: 00 00       	<unknown>
1800065ba: 00 00       	<unknown>
1800065bc: 00 00       	<unknown>
1800065be: 24 40       	<unknown>
1800065c0: 00 00       	<unknown>
1800065c2: 00 00       	<unknown>
1800065c4: 00 00       	<unknown>
1800065c6: 59 40       	<unknown>
1800065c8: 00 00       	<unknown>
1800065ca: 00 00       	<unknown>
1800065cc: 00 40       	<unknown>
1800065ce: 8f 40 00 00 	<unknown>
1800065d2: 00 00       	<unknown>
1800065d4: 00 88       	<unknown>
1800065d6: c3 40 00 00 	fmadd.s	ft1, ft0, ft0, ft0, rmm
1800065da: 00 00       	<unknown>
1800065dc: 00 6a       	<unknown>
1800065de: f8 40       	<unknown>
1800065e0: 00 00       	<unknown>
1800065e2: 00 00       	<unknown>
1800065e4: 80 84       	<unknown>
1800065e6: 2e 41       	<unknown>
1800065e8: 00 00       	<unknown>
1800065ea: 00 00       	<unknown>
1800065ec: d0 12       	<unknown>
1800065ee: 63 41 00 00 	bltz	zero, 0x1800065f0 <pow10.0+0x40>
1800065f2: 00 00       	<unknown>
1800065f4: 84 d7       	<unknown>
1800065f6: 97 41 00 00 	auipc	gp, 0x4
1800065fa: 00 00       	<unknown>
1800065fc: 65 cd       	<unknown>
1800065fe: cd 41       	<unknown>

Disassembly of section .eh_frame:

0000000180006600 <.eh_frame>:
180006600: 10 00       	<unknown>
180006602: 00 00       	<unknown>
180006604: 00 00       	<unknown>
180006606: 00 00       	<unknown>
180006608: 01 7a       	<unknown>
18000660a: 52 00       	<unknown>
18000660c: 01 78       	<unknown>
18000660e: 01 01       	<unknown>
180006610: 1b 0c 02 00 	sext.w	s8, tp
180006614: 18 00       	<unknown>
180006616: 00 00       	<unknown>
180006618: 18 00       	<unknown>
18000661a: 00 00       	<unknown>
18000661c: 78 9a       	<unknown>
18000661e: ff ff 54 00 	<unknown>
180006622: 00 00       	<unknown>
180006624: 00 44       	<unknown>
180006626: 0e 10       	<unknown>
180006628: 48 81       	<unknown>
18000662a: 01 88       	<unknown>
18000662c: 02 00       	<unknown>
18000662e: 00 00       	<unknown>
180006630: 18 00       	<unknown>
180006632: 00 00       	<unknown>
180006634: 34 00       	<unknown>
180006636: 00 00       	<unknown>
180006638: b0 9a       	<unknown>
18000663a: ff ff 54 00 	<unknown>
18000663e: 00 00       	<unknown>
180006640: 00 44       	<unknown>
180006642: 0e 10       	<unknown>
180006644: 48 81       	<unknown>
180006646: 01 88       	<unknown>
180006648: 02 00       	<unknown>
18000664a: 00 00       	<unknown>
18000664c: 18 00       	<unknown>
18000664e: 00 00       	<unknown>
180006650: 50 00       	<unknown>
180006652: 00 00       	<unknown>
180006654: e8 9a       	<unknown>
180006656: ff ff 54 00 	<unknown>
18000665a: 00 00       	<unknown>
18000665c: 00 44       	<unknown>
18000665e: 0e 10       	<unknown>
180006660: 48 81       	<unknown>
180006662: 01 88       	<unknown>
180006664: 02 00       	<unknown>
180006666: 00 00       	<unknown>
180006668: 2c 00       	<unknown>
18000666a: 00 00       	<unknown>
18000666c: 6c 00       	<unknown>
18000666e: 00 00       	<unknown>
180006670: 20 9b       	<unknown>
180006672: ff ff 70 02 	<unknown>
180006676: 00 00       	<unknown>
180006678: 00 44       	<unknown>
18000667a: 0e b0       	<unknown>
18000667c: 01 74       	<unknown>
18000667e: 81 01       	<unknown>
180006680: 88 02       	<unknown>
180006682: 89 03       	<unknown>
180006684: 92 04       	<unknown>
180006686: 93 05 94 06 	addi	a1, s0, 0x69
18000668a: 95 07       	<unknown>
18000668c: 96 08       	<unknown>
18000668e: 97 09 98 0a 	auipc	s3, 0xa980
180006692: 99 0b       	<unknown>
180006694: 9a 0c       	<unknown>
180006696: 9b          	<unknown>
180006697: 0d          	<unknown>

Disassembly of section .tbss:

0000000180007698 <__tbss_start>:
...

Disassembly of section .data:

0000000180007698 <callbacks>:
180007698: 94 00       	<unknown>
18000769a: 00 80       	<unknown>
18000769c: 01 00       	<unknown>
18000769e: 00 00       	<unknown>
1800076a0: e8 00       	<unknown>
1800076a2: 00 80       	<unknown>
1800076a4: 01 00       	<unknown>
1800076a6: 00 00       	<unknown>
1800076a8: 3c 01       	<unknown>
1800076aa: 00 80       	<unknown>
1800076ac: 01 00       	<unknown>
1800076ae: 00 00       	<unknown>

Disassembly of section .got:

00000001800076b0 <.got>:
1800076b0: ff ff ff ff 	<unknown>
1800076b4: ff ff ff ff 	<unknown>
		...

00000001800076c0 <_GLOBAL_OFFSET_TABLE_>:
		...
1800076c8: 30 18       	<unknown>
1800076ca: 00 00       	<unknown>
1800076cc: 00 00       	<unknown>
1800076ce: 00 00       	<unknown>
1800076d0: 98 76       	<unknown>
1800076d2: 00 80       	<unknown>
1800076d4: 01 00       	<unknown>
1800076d6: 00 00       	<unknown>
1800076d8: 98 76       	<unknown>
1800076da: 00 80       	<unknown>
1800076dc: 01 00       	<unknown>
1800076de: 00 00       	<unknown>

Disassembly of section .sdata:

00000001800076e0 <__SDATA_BEGIN__>:
1800076e0: 00 00       	<unknown>
1800076e2: 00 00       	<unknown>
1800076e4: 65 cd       	<unknown>
1800076e6: cd 41       	<unknown>
1800076e8: 00 00       	<unknown>
1800076ea: 00 00       	<unknown>
1800076ec: 80 84       	<unknown>
1800076ee: 2e 41       	<unknown>
1800076f0: ff ff ff ff 	<unknown>
1800076f4: ff ff ef ff 	<unknown>
1800076f8: ff ff ff ff 	<unknown>
1800076fc: ff ff ef 7f 	<unknown>
180007700: 00 00       	<unknown>
180007702: 00 00       	<unknown>
180007704: 65 cd       	<unknown>
180007706: cd c1       	<unknown>
180007708: 00 00       	<unknown>
18000770a: 00 00       	<unknown>
18000770c: 00 00       	<unknown>
18000770e: e0 3f       	<unknown>
180007710: fb 79 9f 50 	<unknown>
180007714: 13 44 d3 3f 	xori	s0, t1, 0x3fd
180007718: b3 c8 60 8b 	<unknown>
18000771c: 28 8a       	<unknown>
18000771e: c6 3f       	<unknown>
180007720: 00 00       	<unknown>
180007722: 00 00       	<unknown>
180007724: 00 00       	<unknown>
180007726: f8 3f       	<unknown>
180007728: 61 43       	<unknown>
18000772a: 6f 63 a7 87 	jal	t1, 0x17ff7d7a4 <__tbss_size+0x17ff7bf64>
18000772e: d2 3f       	<unknown>
180007730: 71 a3       	<unknown>
180007732: 79 09       	<unknown>
180007734: 4f 93 0a 40 	fnmadd.s	ft6, fs5, ft0, fs0, rtz
180007738: ef 39 fa fe 	jal	s3, 0x17ffab726 <__tbss_size+0x17ffa9ee6>
18000773c: 42 2e       	<unknown>
18000773e: e6 3f       	<unknown>
180007740: 16 55       	<unknown>
180007742: b5 bb       	<unknown>
180007744: b1 6b       	<unknown>
180007746: 02 40       	<unknown>
180007748: 00 00       	<unknown>
18000774a: 00 00       	<unknown>
18000774c: 00 00       	<unknown>
18000774e: 2c 40       	<unknown>
180007750: 00 00       	<unknown>
180007752: 00 00       	<unknown>
180007754: 00 00       	<unknown>
180007756: 24 40       	<unknown>
180007758: 00 00       	<unknown>
18000775a: 00 00       	<unknown>
18000775c: 00 00       	<unknown>
18000775e: 18 40       	<unknown>
180007760: 00 00       	<unknown>
180007762: 00 00       	<unknown>
180007764: 00 00       	<unknown>
180007766: 00 40       	<unknown>
180007768: 00 00       	<unknown>
18000776a: 00 00       	<unknown>
18000776c: 00 00       	<unknown>
18000776e: f0 3f       	<unknown>
180007770: 2d 43       	<unknown>
180007772: 1c eb       	<unknown>
180007774: e2 36       	<unknown>
180007776: 1a 3f       	<unknown>
180007778: fc a9       	<unknown>
18000777a: f1 d2       	<unknown>
18000777c: 4d 62       	<unknown>
18000777e: 50 3f       	<unknown>

Disassembly of section .sbss:

0000000180007780 <grid_size_x>:
...

0000000180007784 <grid_size_y>:
...

0000000180007788 <grid_size_z>:
...

000000018000778c <block_size_x>:
...

0000000180007790 <block_size_y>:
...

0000000180007794 <block_size_z>:
...

0000000180007798 <block_size>:
...

000000018000779c <__warps_per_group>:
...

Disassembly of section .bss:

00000001800077a0 <blockDim>:
...

00000001800077b0 <gridDim>:
...

Disassembly of section .comment:

0000000000000000 <.comment>:
       0: 63 6c 61 6e  	bltu	sp, t1, 0x6f8 <.comment+0x6f8>
       4: 67 20 76 65  	<unknown>
       8: 72 73        	<unknown>
       a: 69 6f        	<unknown>
       c: 6e 20        	<unknown>
       e: 31 38        	<unknown>
      10: 2e 31        	<unknown>
      12: 2e 37        	<unknown>
      14: 20 28        	<unknown>
      16: 68 74        	<unknown>
      18: 74 70        	<unknown>
      1a: 73 3a 2f 2f  	csrrc	s4, 0x2f2, t5
      1e: 67 69 74 68  	<unknown>
      22: 75 62        	<unknown>
      24: 2e 63        	<unknown>
      26: 6f 6d 2f 76  	jal	s10, 0xf6788 <.comment+0xf6788>
      2a: 6f 72 74 65  	jal	tp, 0x47e80 <.comment+0x47e80>
      2e: 78 67        	<unknown>
      30: 70 67        	<unknown>
      32: 70 75        	<unknown>
      34: 2f 6c 6c 76  	<unknown>
      38: 6d 2e        	<unknown>
      3a: 67 69 74 20  	<unknown>
      3e: 35 32        	<unknown>
      40: 31 32        	<unknown>
      42: 62 31        	<unknown>
      44: 30 31        	<unknown>
      46: 36 30        	<unknown>
      48: 65 36        	<unknown>
      4a: 33 63 39 61  	<unknown>
      4e: 39 38        	<unknown>
      50: 38 33        	<unknown>
      52: 63 33 66 62  	<unknown>
      56: 38 62        	<unknown>
      58: 30 38        	<unknown>
      5a: 64 30        	<unknown>
      5c: 31 35        	<unknown>
      5e: 62 36        	<unknown>
      60: 36 37        	<unknown>
      62: 64 64        	<unknown>
      64: 61 62        	<unknown>
      66: 29 00        	<unknown>
      68: 63 6c 61 6e  	bltu	sp, t1, 0x760 <.comment+0x760>
      6c: 67 20 76 65  	<unknown>
      70: 72 73        	<unknown>
      72: 69 6f        	<unknown>
      74: 6e 20        	<unknown>
      76: 33 2e 38 2e  	<unknown>
      7a: 30 20        	<unknown>
      7c: 28 74        	<unknown>
      7e: 61 67        	<unknown>
      80: 73 2f 52 45  	csrrs	t5, 0x455, tp
      84: 4c 45        	<unknown>
      86: 41 53        	<unknown>
      88: 45 5f        	<unknown>
      8a: 33 38 30 2f  	<unknown>
      8e: 66 69        	<unknown>
      90: 6e 61        	<unknown>
      92: 6c 29        	<unknown>
      94: 00 47        	<unknown>
      96: 43 43 3a 20  	fmadd.s	ft6, fs4, ft3, ft4, rmm
      9a: 28 67        	<unknown>
      9c: 32 65        	<unknown>
      9e: 65 35        	<unknown>
      a0: 65 34        	<unknown>
      a2: 33 30 30 31  	<unknown>
      a6: 38 2d        	<unknown>
      a8: 64 69        	<unknown>
      aa: 72 74        	<unknown>
      ac: 79 29        	<unknown>
      ae: 20 31        	<unknown>
      b0: 32 2e        	<unknown>
      b2: 32 2e        	<unknown>
      b4: 30 00        	<unknown>
      b6: 63 6c 61 6e  	bltu	sp, t1, 0x7ae <.comment+0x7ae>
      ba: 67 20 76 65  	<unknown>
      be: 72 73        	<unknown>
      c0: 69 6f        	<unknown>
      c2: 6e 20        	<unknown>
      c4: 31 38        	<unknown>
      c6: 2e 31        	<unknown>
      c8: 2e 36        	<unknown>
      ca: 20 28        	<unknown>
      cc: 68 74        	<unknown>
      ce: 74 70        	<unknown>
      d0: 73 3a 2f 2f  	csrrc	s4, 0x2f2, t5
      d4: 67 69 74 68  	<unknown>
      d8: 75 62        	<unknown>
      da: 2e 63        	<unknown>
      dc: 6f 6d 2f 6c  	jal	s10, 0xf679e <.comment+0xf679e>
      e0: 6c 76        	<unknown>
      e2: 6d 2f        	<unknown>
      e4: 6c 6c        	<unknown>
      e6: 76 6d        	<unknown>
      e8: 2d 70        	<unknown>
      ea: 72 6f        	<unknown>
      ec: 6a 65        	<unknown>
      ee: 63 74 2e 67  	bgeu	t3, s2, 0x756 <.comment+0x756>
      f2: 69 74        	<unknown>
      f4: 20 31        	<unknown>
      f6: 64 36        	<unknown>
      f8: 31 62        	<unknown>
      fa: 34 30        	<unknown>
      fc: 34 34        	<unknown>
      fe: 64 64        	<unknown>
     100: 64 64        	<unknown>
     102: 61 36        	<unknown>
     104: 35 65        	<unknown>
     106: 39 38        	<unknown>
     108: 65 37        	<unknown>
     10a: 39 32        	<unknown>
     10c: 38 66        	<unknown>
     10e: 64 33        	<unknown>
     110: 39 35        	<unknown>
     112: 65 36        	<unknown>
     114: 61 39        	<unknown>
     116: 35 31        	<unknown>
     118: 63 35 61 38  	<unknown>
     11c: 66 29        	<unknown>
     11e: 00           	<unknown>

Disassembly of section .riscv.attributes:

0000000000000000 <.riscv.attributes>:
       0: 41 4f        	<unknown>
       2: 00 00        	<unknown>
       4: 00 72        	<unknown>
       6: 69 73        	<unknown>
       8: 63 76 00 01  	bgeu	zero, a6, 0x14 <.comment+0x14>
       c: 45 00        	<unknown>
       e: 00 00        	<unknown>
      10: 04 10        	<unknown>
      12: 05 72        	<unknown>
      14: 76 36        	<unknown>
      16: 34 69        	<unknown>
      18: 32 70        	<unknown>
      1a: 31 5f        	<unknown>
      1c: 6d 32        	<unknown>
      1e: 70 30        	<unknown>
      20: 5f 61 32 70  	<unknown>
      24: 31 5f        	<unknown>
      26: 66 32        	<unknown>
      28: 70 32        	<unknown>
      2a: 5f 64 32 70  	<unknown>
      2e: 32 5f        	<unknown>
      30: 7a 69        	<unknown>
      32: 63 6f 6e 64  	bltu	t3, t1, 0x690 <.comment+0x690>
      36: 31 70        	<unknown>
      38: 30 5f        	<unknown>
      3a: 7a 69        	<unknown>
      3c: 63 73 72 32  	bgeu	tp, t2, 0x362 <.comment+0x362>
      40: 70 30        	<unknown>
      42: 5f 7a 6d 6d  	<unknown>
      46: 75 6c        	<unknown>
      48: 31 70        	<unknown>
      4a: 30 00        	<unknown>
      4c: 08 01        	<unknown>
      4e: 0a 0b        	<unknown>

Disassembly of section .debug_info:

0000000000000000 <.debug_info>:
       0: 64 29        	<unknown>
       2: 00 00        	<unknown>
       4: 02 00        	<unknown>
       6: 00 00        	<unknown>
       8: 00 00        	<unknown>
       a: 08 01        	<unknown>
       c: 00 00        	<unknown>
       e: 00 00        	<unknown>
      10: 1a 00        	<unknown>
      12: 68 00        	<unknown>
      14: 00 00        	<unknown>
      16: 00 00        	<unknown>
      18: 00 00        	<unknown>
      1a: 6f 00 00 00  	j	0x1a <.debug_info+0x1a>
      1e: 02 03        	<unknown>
      20: 93 00 00 00  	li	ra, 0x0
      24: 2b 00 00 00  	vx_tex	zero, zero, zero, zero
      28: 01 13        	<unknown>
      2a: 00 04        	<unknown>
      2c: 3d 00        	<unknown>
      2e: 00 00        	<unknown>
      30: 05 44        	<unknown>
      32: 00 00        	<unknown>
      34: 00 10        	<unknown>
      36: 05 44        	<unknown>
      38: 00 00        	<unknown>
      3a: 00 10        	<unknown>
      3c: 00 06        	<unknown>
      3e: 9a 00        	<unknown>
      40: 00 00        	<unknown>
      42: 04 04        	<unknown>
      44: 07 a0 00 00  	flw	ft0, 0x0(ra)
      48: 00 08        	<unknown>
      4a: 07 02 03 b4  	<unknown>
      4e: 00 00        	<unknown>
      50: 00 2b        	<unknown>
      52: 00 00        	<unknown>
      54: 00 01        	<unknown>
      56: 3e 03        	<unknown>
      58: b8 00        	<unknown>
      5a: 00 00        	<unknown>
      5c: 2b 00 00 00  	vx_tex	zero, zero, zero, zero
      60: 01 3f        	<unknown>
      62: 03 c1 00 00  	lbu	sp, 0x0(ra)
      66: 00 2b        	<unknown>
      68: 00 00        	<unknown>
      6a: 00 01        	<unknown>
      6c: 40 00        	<unknown>
      6e: 02 03        	<unknown>
      70: b8 00        	<unknown>
      72: 00 00        	<unknown>
      74: 2b 00 00 00  	vx_tex	zero, zero, zero, zero
      78: 01 b2        	<unknown>
      7a: 03 c1 00 00  	lbu	sp, 0x0(ra)
      7e: 00 2b        	<unknown>
      80: 00 00        	<unknown>
      82: 00 01        	<unknown>
      84: b3 00 08 70  	<unknown>
      88: 0b 00 00 08  	<unknown>
      8c: ca 00        	<unknown>
      8e: 00 00        	<unknown>
      90: 08 d1        	<unknown>
      92: 00 00        	<unknown>
      94: 00 09        	<unknown>
      96: 38 01        	<unknown>
      98: 00 00        	<unknown>
      9a: 08 02        	<unknown>
      9c: 58 0a        	<unknown>
      9e: d8 00        	<unknown>
      a0: 00 00        	<unknown>
      a2: 23 0a de 00  	sb	a3, 0x14(t3)
      a6: 00 00        	<unknown>
      a8: 25 0a        	<unknown>
      aa: e4 00        	<unknown>
      ac: 00 00        	<unknown>
      ae: 32 0a        	<unknown>
      b0: ea 00        	<unknown>
      b2: 00 00        	<unknown>
      b4: 34 0a        	<unknown>
      b6: f0 00        	<unknown>
      b8: 00 00        	<unknown>
      ba: 35 0a        	<unknown>
      bc: f6 00        	<unknown>
      be: 00 00        	<unknown>
      c0: 3c 0a        	<unknown>
      c2: fc 00        	<unknown>
      c4: 00 00        	<unknown>
      c6: 3d 0a        	<unknown>
      c8: 02 01        	<unknown>
      ca: 00 00        	<unknown>
      cc: 3e 0a        	<unknown>
      ce: 08 01        	<unknown>
      d0: 00 00        	<unknown>
      d2: 46 0a        	<unknown>
      d4: 0e 01        	<unknown>
      d6: 00 00        	<unknown>
      d8: 48 0a        	<unknown>
      da: 14 01        	<unknown>
      dc: 00 00        	<unknown>
      de: 4b 0a 1a 01  	fnmsub.s	fs4, fs4, fa7, ft0, rne
      e2: 00 00        	<unknown>
      e4: 50 0a        	<unknown>
      e6: 20 01        	<unknown>
      e8: 00 00        	<unknown>
      ea: 56 0a        	<unknown>
      ec: 26 01        	<unknown>
      ee: 00 00        	<unknown>
      f0: 57 0a 2c 01  	<unknown>
      f4: 00 00        	<unknown>
      f6: 59 0a        	<unknown>
      f8: 32 01        	<unknown>
      fa: 00 00        	<unknown>
      fc: 5a 00        	<unknown>
      fe: 0b 05 6a 01  	<unknown>
     102: 00 00        	<unknown>
     104: 08 02        	<unknown>
     106: 51 0c        	<unknown>
     108: 44 01        	<unknown>
     10a: 00 00        	<unknown>
     10c: 2b 01 00 00  	vx_tex	sp, zero, zero, zero
     110: 02 52        	<unknown>
     112: 02 23        	<unknown>
     114: 00 0d        	<unknown>
     116: 6a 01        	<unknown>
     118: 00 00        	<unknown>
     11a: 02 54        	<unknown>
     11c: 01 01        	<unknown>
     11e: 0e 8a        	<unknown>
     120: 01 00        	<unknown>
     122: 00 01        	<unknown>
     124: 0f 2b 01 00  	<unknown>
     128: 00 00        	<unknown>
     12a: 00 10        	<unknown>
     12c: 83 01 00 00  	lb	gp, 0x0(zero)
     130: 5f 01 00 00  	<unknown>
     134: 02 32        	<unknown>
     136: 11 fe        	<unknown>
     138: 0e 00        	<unknown>
     13a: 00 32        	<unknown>
     13c: 0f 00 00 02  	fence	r, 0
     140: 8e fe        	<unknown>
     142: 00 00        	<unknown>
     144: 00 01        	<unknown>
     146: 01 0f        	<unknown>
     148: 95 00        	<unknown>
     14a: 00 00        	<unknown>
     14c: 00 11        	<unknown>
     14e: 3d 0f        	<unknown>
     150: 00 00        	<unknown>
     152: 6e 0f        	<unknown>
     154: 00 00        	<unknown>
     156: 02 93        	<unknown>
     158: fe 00        	<unknown>
     15a: 00 00        	<unknown>
     15c: 01 01        	<unknown>
     15e: 0f 95 00 00  	<unknown>
     162: 00 00        	<unknown>
     164: 00 12        	<unknown>
     166: 02 ab        	<unknown>
     168: fe 00        	<unknown>
     16a: 00 00        	<unknown>
     16c: 12 02        	<unknown>
     16e: ac 95        	<unknown>
     170: 00 00        	<unknown>
     172: 00 12        	<unknown>
     174: 02 ca        	<unknown>
     176: 36 01        	<unknown>
     178: 00 00        	<unknown>
     17a: 12 02        	<unknown>
     17c: cb 4d 01 00  	fnmsub.s	fs11, ft2, ft0, ft0, rmm
     180: 00 00        	<unknown>
     182: 00 06        	<unknown>
     184: 4c 01        	<unknown>
     186: 00 00        	<unknown>
     188: 07 08 13 fe  	<unknown>
     18c: 00 00        	<unknown>
     18e: 00 14        	<unknown>
     190: 05 b5        	<unknown>
     192: 02 00        	<unknown>
     194: 00 0c        	<unknown>
     196: 03 a2 01 15  	lw	tp, 0x150(gp)
     19a: f2 01        	<unknown>
     19c: 00 00        	<unknown>
     19e: 16 02        	<unknown>
     1a0: 00 00        	<unknown>
     1a2: 03 a4 01 02  	lw	s0, 0x20(gp)
     1a6: 23 00 15 39  	sb	a7, 0x380(a0)
     1aa: 02 00        	<unknown>
     1ac: 00 16        	<unknown>
     1ae: 02 00        	<unknown>
     1b0: 00 03        	<unknown>
     1b2: a4 01        	<unknown>
     1b4: 02 23        	<unknown>
     1b6: 04 15        	<unknown>
     1b8: 80 02        	<unknown>
     1ba: 00 00        	<unknown>
     1bc: 16 02        	<unknown>
     1be: 00 00        	<unknown>
     1c0: 03 a4 01 02  	lw	s0, 0x20(gp)
     1c4: 23 08 16 b5  	sb	a7, -0x4b0(a2)
     1c8: 02 00        	<unknown>
     1ca: 00 03        	<unknown>
     1cc: a7 01 01 01  	<unknown>
     1d0: 0e 1d        	<unknown>
     1d2: 02 00        	<unknown>
     1d4: 00 01        	<unknown>
     1d6: 0f 16 02 00  	<unknown>
     1da: 00 0f        	<unknown>
     1dc: 16 02        	<unknown>
     1de: 00 00        	<unknown>
     1e0: 0f 16 02 00  	<unknown>
     1e4: 00 00        	<unknown>
     1e6: 16 b5        	<unknown>
     1e8: 02 00        	<unknown>
     1ea: 00 03        	<unknown>
     1ec: a8 01        	<unknown>
     1ee: 01 01        	<unknown>
     1f0: 0e 1d        	<unknown>
     1f2: 02 00        	<unknown>
     1f4: 00 01        	<unknown>
     1f6: 0f 22 02 00  	<unknown>
     1fa: 00 00        	<unknown>
     1fc: 17 8a 01 00  	auipc	s4, 0x18
     200: 00 9e        	<unknown>
     202: 01 00        	<unknown>
     204: 00 03        	<unknown>
     206: a9 01        	<unknown>
     208: 22 02        	<unknown>
     20a: 00 00        	<unknown>
     20c: 01 01        	<unknown>
     20e: 0e 62        	<unknown>
     210: 02 00        	<unknown>
     212: 00 01        	<unknown>
     214: 00 00        	<unknown>
     216: 06 7d        	<unknown>
     218: 01 00        	<unknown>
     21a: 00 07        	<unknown>
     21c: 04 13        	<unknown>
     21e: 8f 01 00 00  	<unknown>
     222: 18 2e        	<unknown>
     224: 02 00        	<unknown>
     226: 00 a7        	<unknown>
     228: 01 00        	<unknown>
     22a: 00 03        	<unknown>
     22c: 80 01        	<unknown>
     22e: 0b 05 a7 01  	<unknown>
     232: 00 00        	<unknown>
     234: 0c 03        	<unknown>
     236: c0 0c        	<unknown>
     238: f2 01        	<unknown>
     23a: 00 00        	<unknown>
     23c: 16 02        	<unknown>
     23e: 00 00        	<unknown>
     240: 03 c2 02 23  	lbu	tp, 0x230(t0)
     244: 00 0c        	<unknown>
     246: 39 02        	<unknown>
     248: 00 00        	<unknown>
     24a: 16 02        	<unknown>
     24c: 00 00        	<unknown>
     24e: 03 c2 02 23  	lbu	tp, 0x230(t0)
     252: 04 0c        	<unknown>
     254: 80 02        	<unknown>
     256: 00 00        	<unknown>
     258: 16 02        	<unknown>
     25a: 00 00        	<unknown>
     25c: 03 c2 02 23  	lbu	tp, 0x230(t0)
     260: 08 00        	<unknown>
     262: 13 67 02 00  	ori	a4, tp, 0x0
     266: 00 19        	<unknown>
     268: 8f 01 00 00  	<unknown>
     26c: 0b 04 e5 02  	<unknown>
     270: 00 00        	<unknown>
     272: 01 04        	<unknown>
     274: 34 1a        	<unknown>
     276: ad 01        	<unknown>
     278: 00 00        	<unknown>
     27a: e2 01        	<unknown>
     27c: 00 00        	<unknown>
     27e: 04 35        	<unknown>
     280: 16 02        	<unknown>
     282: 00 00        	<unknown>
     284: 01 01        	<unknown>
     286: 1a f4        	<unknown>
     288: 01 00        	<unknown>
     28a: 00 29        	<unknown>
     28c: 02 00        	<unknown>
     28e: 00 04        	<unknown>
     290: 36 16        	<unknown>
     292: 02 00        	<unknown>
     294: 00 01        	<unknown>
     296: 01 1a        	<unknown>
     298: 3b 02 00 00  	addw	tp, zero, zero
     29c: 70 02        	<unknown>
     29e: 00 00        	<unknown>
     2a0: 04 37        	<unknown>
     2a2: 16 02        	<unknown>
     2a4: 00 00        	<unknown>
     2a6: 01 01        	<unknown>
     2a8: 11 82        	<unknown>
     2aa: 02 00        	<unknown>
     2ac: 00 ac        	<unknown>
     2ae: 02 00        	<unknown>
     2b0: 00 04        	<unknown>
     2b2: 3a 8f        	<unknown>
     2b4: 01 00        	<unknown>
     2b6: 00 01        	<unknown>
     2b8: 01 0e        	<unknown>
     2ba: 33 03 00 00  	add	t1, zero, zero
     2be: 01 00        	<unknown>
     2c0: 11 ba        	<unknown>
     2c2: 02 00        	<unknown>
     2c4: 00 9e        	<unknown>
     2c6: 01 00        	<unknown>
     2c8: 00 04        	<unknown>
     2ca: 3b 2e 02 00  	<unknown>
     2ce: 00 01        	<unknown>
     2d0: 01 0e        	<unknown>
     2d2: 33 03 00 00  	add	t1, zero, zero
     2d6: 01 00        	<unknown>
     2d8: 1b e5 02 00  	<unknown>
     2dc: 00 04        	<unknown>
     2de: 3e 01        	<unknown>
     2e0: 01 03        	<unknown>
     2e2: 0e 3d        	<unknown>
     2e4: 03 00 00 01  	lb	zero, 0x10(zero)
     2e8: 00 1b        	<unknown>
     2ea: e5 02        	<unknown>
     2ec: 00 00        	<unknown>
     2ee: 04 3e        	<unknown>
     2f0: 01 01        	<unknown>
     2f2: 03 0e 3d 03  	lb	t3, 0x33(s10)
     2f6: 00 00        	<unknown>
     2f8: 01 0f        	<unknown>
     2fa: 42 03        	<unknown>
     2fc: 00 00        	<unknown>
     2fe: 00 1c        	<unknown>
     300: 00 03        	<unknown>
     302: 00 00        	<unknown>
     304: 28 03        	<unknown>
     306: 00 00        	<unknown>
     308: 04 3e        	<unknown>
     30a: 01 01        	<unknown>
     30c: 03 0e 33 03  	lb	t3, 0x33(t1)
     310: 00 00        	<unknown>
     312: 01 0f        	<unknown>
     314: 42 03        	<unknown>
     316: 00 00        	<unknown>
     318: 00 1d        	<unknown>
     31a: 32 03        	<unknown>
     31c: 00 00        	<unknown>
     31e: 57 03 00 00  	<unknown>
     322: 04 3e        	<unknown>
     324: 47 03 00 00  	fmsub.s	ft6, ft0, ft0, ft0, rne
     328: 01 01        	<unknown>
     32a: 03 0e 33 03  	lb	t3, 0x33(t1)
     32e: 00 00        	<unknown>
     330: 01 00        	<unknown>
     332: 00 13        	<unknown>
     334: 38 03        	<unknown>
     336: 00 00        	<unknown>
     338: 19 6c        	<unknown>
     33a: 02 00        	<unknown>
     33c: 00 13        	<unknown>
     33e: 6c 02        	<unknown>
     340: 00 00        	<unknown>
     342: 1e 38        	<unknown>
     344: 03 00 00 13  	lb	zero, 0x130(zero)
     348: 6c 02        	<unknown>
     34a: 00 00        	<unknown>
     34c: 0b 04 50 04  	<unknown>
     350: 00 00        	<unknown>
     352: 01 04        	<unknown>
     354: 41 1a        	<unknown>
     356: 61 03        	<unknown>
     358: 00 00        	<unknown>
     35a: e2 01        	<unknown>
     35c: 00 00        	<unknown>
     35e: 04 42        	<unknown>
     360: 16 02        	<unknown>
     362: 00 00        	<unknown>
     364: 01 01        	<unknown>
     366: 1a 95        	<unknown>
     368: 03 00 00 29  	lb	zero, 0x290(zero)
     36c: 02 00        	<unknown>
     36e: 00 04        	<unknown>
     370: 43 16 02 00  	fmadd.s	fa2, ft4, ft0, ft0, rtz
     374: 00 01        	<unknown>
     376: 01 1a        	<unknown>
     378: c9 03        	<unknown>
     37a: 00 00        	<unknown>
     37c: 70 02        	<unknown>
     37e: 00 00        	<unknown>
     380: 04 44        	<unknown>
     382: 16 02        	<unknown>
     384: 00 00        	<unknown>
     386: 01 01        	<unknown>
     388: 11 fd        	<unknown>
     38a: 03 00 00 ac  	lb	zero, -0x540(zero)
     38e: 02 00        	<unknown>
     390: 00 04        	<unknown>
     392: 47 8f 01 00  	fmsub.s	ft10, ft3, ft0, ft0, rne
     396: 00 01        	<unknown>
     398: 01 0e        	<unknown>
     39a: 13 04 00 00  	li	s0, 0x0
     39e: 01 00        	<unknown>
     3a0: 11 26        	<unknown>
     3a2: 04 00        	<unknown>
     3a4: 00 9e        	<unknown>
     3a6: 01 00        	<unknown>
     3a8: 00 04        	<unknown>
     3aa: 48 2e        	<unknown>
     3ac: 02 00        	<unknown>
     3ae: 00 01        	<unknown>
     3b0: 01 0e        	<unknown>
     3b2: 13 04 00 00  	li	s0, 0x0
     3b6: 01 00        	<unknown>
     3b8: 1b 50 04 00  	srliw	zero, s0, 0x0
     3bc: 00 04        	<unknown>
     3be: 4b 01 01 03  	fnmsub.d	ft2, ft2, fa6, ft0, rne
     3c2: 0e 1d        	<unknown>
     3c4: 04 00        	<unknown>
     3c6: 00 01        	<unknown>
     3c8: 00 1b        	<unknown>
     3ca: 50 04        	<unknown>
     3cc: 00 00        	<unknown>
     3ce: 04 4b        	<unknown>
     3d0: 01 01        	<unknown>
     3d2: 03 0e 1d 04  	lb	t3, 0x41(s10)
     3d6: 00 00        	<unknown>
     3d8: 01 0f        	<unknown>
     3da: 22 04        	<unknown>
     3dc: 00 00        	<unknown>
     3de: 00 1c        	<unknown>
     3e0: 6a 04        	<unknown>
     3e2: 00 00        	<unknown>
     3e4: 28 03        	<unknown>
     3e6: 00 00        	<unknown>
     3e8: 04 4b        	<unknown>
     3ea: 01 01        	<unknown>
     3ec: 03 0e 13 04  	lb	t3, 0x41(t1)
     3f0: 00 00        	<unknown>
     3f2: 01 0f        	<unknown>
     3f4: 22 04        	<unknown>
     3f6: 00 00        	<unknown>
     3f8: 00 1d        	<unknown>
     3fa: 91 04        	<unknown>
     3fc: 00 00        	<unknown>
     3fe: 57 03 00 00  	<unknown>
     402: 04 4b        	<unknown>
     404: 27 04 00 00  	<unknown>
     408: 01 01        	<unknown>
     40a: 03 0e 13 04  	lb	t3, 0x41(t1)
     40e: 00 00        	<unknown>
     410: 01 00        	<unknown>
     412: 00 13        	<unknown>
     414: 18 04        	<unknown>
     416: 00 00        	<unknown>
     418: 19 4c        	<unknown>
     41a: 03 00 00 13  	lb	zero, 0x130(zero)
     41e: 4c 03        	<unknown>
     420: 00 00        	<unknown>
     422: 1e 18        	<unknown>
     424: 04 00        	<unknown>
     426: 00 13        	<unknown>
     428: 4c 03        	<unknown>
     42a: 00 00        	<unknown>
     42c: 08 b5        	<unknown>
     42e: 04 00        	<unknown>
     430: 00 12        	<unknown>
     432: 05 c8        	<unknown>
     434: 2e 0d        	<unknown>
     436: 00 00        	<unknown>
     438: 12 05        	<unknown>
     43a: c9 4b        	<unknown>
     43c: 0d 00        	<unknown>
     43e: 00 12        	<unknown>
     440: 05 ca        	<unknown>
     442: 61 0d        	<unknown>
     444: 00 00        	<unknown>
     446: 12 05        	<unknown>
     448: cb 77 0d 00  	fnmsub.s	fa5, fs10, ft0, ft0
     44c: 00 12        	<unknown>
     44e: 05 cc        	<unknown>
     450: 8d 0d        	<unknown>
     452: 00 00        	<unknown>
     454: 12 05        	<unknown>
     456: cd a3        	<unknown>
     458: 0d 00        	<unknown>
     45a: 00 12        	<unknown>
     45c: 05 ce        	<unknown>
     45e: b9 0d        	<unknown>
     460: 00 00        	<unknown>
     462: 12 05        	<unknown>
     464: cf d4 0d 00  	<unknown>
     468: 00 12        	<unknown>
     46a: 05 d0        	<unknown>
     46c: ea 0d        	<unknown>
     46e: 00 00        	<unknown>
     470: 12 05        	<unknown>
     472: d1 00        	<unknown>
     474: 0e 00        	<unknown>
     476: 00 12        	<unknown>
     478: 05 d2        	<unknown>
     47a: 16 0e        	<unknown>
     47c: 00 00        	<unknown>
     47e: 12 05        	<unknown>
     480: d3 31 0e 00  	fadd.s	ft3, ft8, ft0, rup
     484: 00 12        	<unknown>
     486: 05 d4        	<unknown>
     488: 47 0e 00 00  	fmsub.s	ft8, ft0, ft0, ft0, rne
     48c: 12 05        	<unknown>
     48e: d5 5d        	<unknown>
     490: 0e 00        	<unknown>
     492: 00 12        	<unknown>
     494: 05 d6        	<unknown>
     496: 73 0e 00 00  	<unknown>
     49a: 12 05        	<unknown>
     49c: d7 89 0e 00  	<unknown>
     4a0: 00 12        	<unknown>
     4a2: 05 d8        	<unknown>
     4a4: 9f 0e 00 00  	<unknown>
     4a8: 12 05        	<unknown>
     4aa: d9 b5        	<unknown>
     4ac: 0e 00        	<unknown>
     4ae: 00 12        	<unknown>
     4b0: 05 da        	<unknown>
     4b2: cb 0e 00 00  	fnmsub.s	ft9, ft0, ft0, ft0, rne
     4b6: 12 05        	<unknown>
     4b8: db e1 0e 00  	<unknown>
     4bc: 00 12        	<unknown>
     4be: 05 dc        	<unknown>
     4c0: fc 0e        	<unknown>
     4c2: 00 00        	<unknown>
     4c4: 12 05        	<unknown>
     4c6: dd 12        	<unknown>
     4c8: 0f 00 00 12  	<unknown>
     4cc: 05 de        	<unknown>
     4ce: 32 0f        	<unknown>
     4d0: 00 00        	<unknown>
     4d2: 12 05        	<unknown>
     4d4: df 4d 0f 00  	<unknown>
     4d8: 00 12        	<unknown>
     4da: 05 e0        	<unknown>
     4dc: 68 0f        	<unknown>
     4de: 00 00        	<unknown>
     4e0: 12 05        	<unknown>
     4e2: e1 83        	<unknown>
     4e4: 0f 00 00 12  	<unknown>
     4e8: 05 e2        	<unknown>
     4ea: 99 0f        	<unknown>
     4ec: 00 00        	<unknown>
     4ee: 12 05        	<unknown>
     4f0: e3 b9 0f 00  	<unknown>
     4f4: 00 12        	<unknown>
     4f6: 05 e4        	<unknown>
     4f8: d4 0f        	<unknown>
     4fa: 00 00        	<unknown>
     4fc: 12 05        	<unknown>
     4fe: e5 ea        	<unknown>
     500: 0f 00 00 12  	<unknown>
     504: 05 e6        	<unknown>
     506: 07 10 00 00  	<unknown>
     50a: 12 05        	<unknown>
     50c: e7 22 10 00  	<unknown>
     510: 00 12        	<unknown>
     512: 05 e8        	<unknown>
     514: 3d 10        	<unknown>
     516: 00 00        	<unknown>
     518: 12 05        	<unknown>
     51a: e9 53        	<unknown>
     51c: 10 00        	<unknown>
     51e: 00 12        	<unknown>
     520: 05 ea        	<unknown>
     522: 6e 10        	<unknown>
     524: 00 00        	<unknown>
     526: 12 05        	<unknown>
     528: eb 89 10 00  	<unknown>
     52c: 00 12        	<unknown>
     52e: 05 ec        	<unknown>
     530: a4 10        	<unknown>
     532: 00 00        	<unknown>
     534: 12 05        	<unknown>
     536: ed ba        	<unknown>
     538: 10 00        	<unknown>
     53a: 00 12        	<unknown>
     53c: 05 ee        	<unknown>
     53e: d0 10        	<unknown>
     540: 00 00        	<unknown>
     542: 12 05        	<unknown>
     544: ef eb 10 00  	jal	s7, 0xed44 <.debug_info+0xed44>
     548: 00 12        	<unknown>
     54a: 05 f0        	<unknown>
     54c: 08 11        	<unknown>
     54e: 00 00        	<unknown>
     550: 12 05        	<unknown>
     552: f1 23        	<unknown>
     554: 11 00        	<unknown>
     556: 00 12        	<unknown>
     558: 05 f2        	<unknown>
     55a: 39 11        	<unknown>
     55c: 00 00        	<unknown>
     55e: 12 05        	<unknown>
     560: f3 56 11 00  	fsflagsi	a3, 0x2
     564: 00 12        	<unknown>
     566: 05 f4        	<unknown>
     568: 6c 11        	<unknown>
     56a: 00 00        	<unknown>
     56c: 12 05        	<unknown>
     56e: f5 82        	<unknown>
     570: 11 00        	<unknown>
     572: 00 12        	<unknown>
     574: 05 f6        	<unknown>
     576: 98 11        	<unknown>
     578: 00 00        	<unknown>
     57a: 12 05        	<unknown>
     57c: f7 ae 11 00  	<unknown>
     580: 00 12        	<unknown>
     582: 05 f8        	<unknown>
     584: c4 11        	<unknown>
     586: 00 00        	<unknown>
     588: 12 05        	<unknown>
     58a: f9 da        	<unknown>
     58c: 11 00        	<unknown>
     58e: 00 12        	<unknown>
     590: 05 fa        	<unknown>
     592: f0 11        	<unknown>
     594: 00 00        	<unknown>
     596: 12 05        	<unknown>
     598: fb 06 12 00  	<unknown>
     59c: 00 12        	<unknown>
     59e: 05 fc        	<unknown>
     5a0: 1c 12        	<unknown>
     5a2: 00 00        	<unknown>
     5a4: 12 05        	<unknown>
     5a6: fd 3c        	<unknown>
     5a8: 12 00        	<unknown>
     5aa: 00 12        	<unknown>
     5ac: 05 fe        	<unknown>
     5ae: 6a 12        	<unknown>
     5b0: 00 00        	<unknown>
     5b2: 12 05        	<unknown>
     5b4: ff 80 12 00  	<unknown>
     5b8: 00 1f        	<unknown>
     5ba: 05 00        	<unknown>
     5bc: 01 96        	<unknown>
     5be: 12 00        	<unknown>
     5c0: 00 1f        	<unknown>
     5c2: 05 01        	<unknown>
     5c4: 01 b1        	<unknown>
     5c6: 12 00        	<unknown>
     5c8: 00 1f        	<unknown>
     5ca: 05 02        	<unknown>
     5cc: 01 cc        	<unknown>
     5ce: 12 00        	<unknown>
     5d0: 00 1f        	<unknown>
     5d2: 05 03        	<unknown>
     5d4: 01 e7        	<unknown>
     5d6: 12 00        	<unknown>
     5d8: 00 1f        	<unknown>
     5da: 05 04        	<unknown>
     5dc: 01 07        	<unknown>
     5de: 13 00 00 1f  	li	zero, 0x1f0
     5e2: 05 05        	<unknown>
     5e4: 01 1d        	<unknown>
     5e6: 13 00 00 1f  	li	zero, 0x1f0
     5ea: 05 06        	<unknown>
     5ec: 01 33        	<unknown>
     5ee: 13 00 00 1f  	li	zero, 0x1f0
     5f2: 05 07        	<unknown>
     5f4: 01 4e        	<unknown>
     5f6: 13 00 00 1f  	li	zero, 0x1f0
     5fa: 05 08        	<unknown>
     5fc: 01 69        	<unknown>
     5fe: 13 00 00 1f  	li	zero, 0x1f0
     602: 05 09        	<unknown>
     604: 01 7f        	<unknown>
     606: 13 00 00 1f  	li	zero, 0x1f0
     60a: 05 0a        	<unknown>
     60c: 01 95        	<unknown>
     60e: 13 00 00 1f  	li	zero, 0x1f0
     612: 05 0b        	<unknown>
     614: 01 ab        	<unknown>
     616: 13 00 00 1f  	li	zero, 0x1f0
     61a: 05 0c        	<unknown>
     61c: 01 c1        	<unknown>
     61e: 13 00 00 1f  	li	zero, 0x1f0
     622: 05 0d        	<unknown>
     624: 01 d7        	<unknown>
     626: 13 00 00 1f  	li	zero, 0x1f0
     62a: 05 0e        	<unknown>
     62c: 01 ed        	<unknown>
     62e: 13 00 00 1f  	li	zero, 0x1f0
     632: 05 0f        	<unknown>
     634: 01 03        	<unknown>
     636: 14 00        	<unknown>
     638: 00 12        	<unknown>
     63a: 07 34 19 14  	fld	fs0, 0x141(s2)
     63e: 00 00        	<unknown>
     640: 12 09        	<unknown>
     642: 55 2d        	<unknown>
     644: 14 00        	<unknown>
     646: 00 12        	<unknown>
     648: 09 68        	<unknown>
     64a: 40 14        	<unknown>
     64c: 00 00        	<unknown>
     64e: 12 09        	<unknown>
     650: 7b 53 14 00  	<unknown>
     654: 00 12        	<unknown>
     656: 09 8e        	<unknown>
     658: 66 14        	<unknown>
     65a: 00 00        	<unknown>
     65c: 12 09        	<unknown>
     65e: 9a 7e        	<unknown>
     660: 14 00        	<unknown>
     662: 00 12        	<unknown>
     664: 09 ad        	<unknown>
     666: 91 14        	<unknown>
     668: 00 00        	<unknown>
     66a: 12 09        	<unknown>
     66c: c0 a4        	<unknown>
     66e: 14 00        	<unknown>
     670: 00 12        	<unknown>
     672: 09 d3        	<unknown>
     674: b7 14 00 00  	lui	s1, 0x1
     678: 12 09        	<unknown>
     67a: e6 ca        	<unknown>
     67c: 14 00        	<unknown>
     67e: 00 12        	<unknown>
     680: 09 f9        	<unknown>
     682: dd 14        	<unknown>
     684: 00 00        	<unknown>
     686: 1f 09 0c 01  	<unknown>
     68a: f0 14        	<unknown>
     68c: 00 00        	<unknown>
     68e: 1f 09 18 01  	<unknown>
     692: 08 15        	<unknown>
     694: 00 00        	<unknown>
     696: 1f 09 2b 01  	<unknown>
     69a: 20 15        	<unknown>
     69c: 00 00        	<unknown>
     69e: 1f 09 3e 01  	<unknown>
     6a2: 38 15        	<unknown>
     6a4: 00 00        	<unknown>
     6a6: 1f 09 51 01  	<unknown>
     6aa: 4b 15 00 00  	fnmsub.s	fa0, ft0, ft0, ft0, rtz
     6ae: 1f 09 64 01  	<unknown>
     6b2: 5e 15        	<unknown>
     6b4: 00 00        	<unknown>
     6b6: 1f 09 70 01  	<unknown>
     6ba: 7b 15 00 00  	<unknown>
     6be: 1f 09 8c 01  	<unknown>
     6c2: 93 15 00 00  	slli	a1, zero, 0x0
     6c6: 1f 09 9f 01  	<unknown>
     6ca: a6 15        	<unknown>
     6cc: 00 00        	<unknown>
     6ce: 1f 09 b2 01  	<unknown>
     6d2: b9 15        	<unknown>
     6d4: 00 00        	<unknown>
     6d6: 1f 09 c5 01  	<unknown>
     6da: cc 15        	<unknown>
     6dc: 00 00        	<unknown>
     6de: 1f 09 d8 01  	<unknown>
     6e2: df 15 00 00  	<unknown>
     6e6: 1f 09 59 07  	<unknown>
     6ea: f2 15        	<unknown>
     6ec: 00 00        	<unknown>
     6ee: 1f 09 5a 07  	<unknown>
     6f2: fd 15        	<unknown>
     6f4: 00 00        	<unknown>
     6f6: 1f 09 5d 07  	<unknown>
     6fa: 08 16        	<unknown>
     6fc: 00 00        	<unknown>
     6fe: 1f 09 5e 07  	<unknown>
     702: 1b 16 00 00  	slliw	a2, zero, 0x0
     706: 1f 09 5f 07  	<unknown>
     70a: 2e 16        	<unknown>
     70c: 00 00        	<unknown>
     70e: 1f 09 61 07  	<unknown>
     712: 48 16        	<unknown>
     714: 00 00        	<unknown>
     716: 1f 09 62 07  	<unknown>
     71a: 5b 16 00 00  	<unknown>
     71e: 1f 09 63 07  	<unknown>
     722: 6e 16        	<unknown>
     724: 00 00        	<unknown>
     726: 1f 09 65 07  	<unknown>
     72a: 81 16        	<unknown>
     72c: 00 00        	<unknown>
     72e: 1f 09 66 07  	<unknown>
     732: 94 16        	<unknown>
     734: 00 00        	<unknown>
     736: 1f 09 67 07  	<unknown>
     73a: a7 16 00 00  	<unknown>
     73e: 1f 09 69 07  	<unknown>
     742: ba 16        	<unknown>
     744: 00 00        	<unknown>
     746: 1f 09 6a 07  	<unknown>
     74a: cd 16        	<unknown>
     74c: 00 00        	<unknown>
     74e: 1f 09 6b 07  	<unknown>
     752: e0 16        	<unknown>
     754: 00 00        	<unknown>
     756: 1f 09 6d 07  	<unknown>
     75a: f3 16 00 00  	csrrw	a3, 0x0, zero
     75e: 1f 09 6e 07  	<unknown>
     762: 0b 17 00 00  	<unknown>
     766: 1f 09 6f 07  	<unknown>
     76a: 23 17 00 00  	sh	zero, 0xe(zero)
     76e: 1f 09 71 07  	<unknown>
     772: 3b 17 00 00  	sllw	a4, zero, zero
     776: 1f 09 72 07  	<unknown>
     77a: 4e 17        	<unknown>
     77c: 00 00        	<unknown>
     77e: 1f 09 73 07  	<unknown>
     782: 61 17        	<unknown>
     784: 00 00        	<unknown>
     786: 1f 09 75 07  	<unknown>
     78a: 74 17        	<unknown>
     78c: 00 00        	<unknown>
     78e: 1f 09 76 07  	<unknown>
     792: 87 17 00 00  	<unknown>
     796: 1f 09 77 07  	<unknown>
     79a: 9a 17        	<unknown>
     79c: 00 00        	<unknown>
     79e: 1f 09 79 07  	<unknown>
     7a2: ad 17        	<unknown>
     7a4: 00 00        	<unknown>
     7a6: 1f 09 7a 07  	<unknown>
     7aa: c0 17        	<unknown>
     7ac: 00 00        	<unknown>
     7ae: 1f 09 7b 07  	<unknown>
     7b2: d3 17 00 00  	fadd.s	fa5, ft0, ft0, rtz
     7b6: 1f 09 7d 07  	<unknown>
     7ba: e6 17        	<unknown>
     7bc: 00 00        	<unknown>
     7be: 1f 09 7e 07  	<unknown>
     7c2: f9 17        	<unknown>
     7c4: 00 00        	<unknown>
     7c6: 1f 09 7f 07  	<unknown>
     7ca: 0c 18        	<unknown>
     7cc: 00 00        	<unknown>
     7ce: 1f 09 81 07  	<unknown>
     7d2: 1f 18 00 00  	<unknown>
     7d6: 1f 09 82 07  	<unknown>
     7da: 38 18        	<unknown>
     7dc: 00 00        	<unknown>
     7de: 1f 09 83 07  	<unknown>
     7e2: 51 18        	<unknown>
     7e4: 00 00        	<unknown>
     7e6: 1f 09 85 07  	<unknown>
     7ea: 6a 18        	<unknown>
     7ec: 00 00        	<unknown>
     7ee: 1f 09 86 07  	<unknown>
     7f2: 88 18        	<unknown>
     7f4: 00 00        	<unknown>
     7f6: 1f 09 87 07  	<unknown>
     7fa: a6 18        	<unknown>
     7fc: 00 00        	<unknown>
     7fe: 1f 09 89 07  	<unknown>
     802: c4 18        	<unknown>
     804: 00 00        	<unknown>
     806: 1f 09 8a 07  	<unknown>
     80a: dd 18        	<unknown>
     80c: 00 00        	<unknown>
     80e: 1f 09 8b 07  	<unknown>
     812: f6 18        	<unknown>
     814: 00 00        	<unknown>
     816: 1f 09 8d 07  	<unknown>
     81a: 0f 19 00 00  	<unknown>
     81e: 1f 09 8e 07  	<unknown>
     822: 28 19        	<unknown>
     824: 00 00        	<unknown>
     826: 1f 09 8f 07  	<unknown>
     82a: 41 19        	<unknown>
     82c: 00 00        	<unknown>
     82e: 1f 09 91 07  	<unknown>
     832: 5a 19        	<unknown>
     834: 00 00        	<unknown>
     836: 1f 09 92 07  	<unknown>
     83a: 72 19        	<unknown>
     83c: 00 00        	<unknown>
     83e: 1f 09 93 07  	<unknown>
     842: 8a 19        	<unknown>
     844: 00 00        	<unknown>
     846: 1f 09 95 07  	<unknown>
     84a: a2 19        	<unknown>
     84c: 00 00        	<unknown>
     84e: 1f 09 96 07  	<unknown>
     852: b6 19        	<unknown>
     854: 00 00        	<unknown>
     856: 1f 09 97 07  	<unknown>
     85a: ca 19        	<unknown>
     85c: 00 00        	<unknown>
     85e: 1f 09 99 07  	<unknown>
     862: de 19        	<unknown>
     864: 00 00        	<unknown>
     866: 1f 09 9a 07  	<unknown>
     86a: f1 19        	<unknown>
     86c: 00 00        	<unknown>
     86e: 1f 09 9b 07  	<unknown>
     872: 04 1a        	<unknown>
     874: 00 00        	<unknown>
     876: 1f 09 9e 07  	<unknown>
     87a: 17 1a 00 00  	auipc	s4, 0x1
     87e: 1f 09 9f 07  	<unknown>
     882: 2b 1a 00 00  	<unknown>
     886: 1f 09 a0 07  	<unknown>
     88a: 3f 1a 00 00  	<unknown>
     88e: 1f 09 a2 07  	<unknown>
     892: 53 1a 00 00  	fadd.s	fs4, ft0, ft0, rtz
     896: 1f 09 a3 07  	<unknown>
     89a: 67 1a 00 00  	<unknown>
     89e: 1f 09 a4 07  	<unknown>
     8a2: 7b 1a 00 00  	<unknown>
     8a6: 1f 09 a7 07  	<unknown>
     8aa: 8f 1a 00 00  	<unknown>
     8ae: 1f 09 a8 07  	<unknown>
     8b2: a2 1a        	<unknown>
     8b4: 00 00        	<unknown>
     8b6: 1f 09 a9 07  	<unknown>
     8ba: b5 1a        	<unknown>
     8bc: 00 00        	<unknown>
     8be: 1f 09 ab 07  	<unknown>
     8c2: c8 1a        	<unknown>
     8c4: 00 00        	<unknown>
     8c6: 1f 09 ac 07  	<unknown>
     8ca: db 1a 00 00  	<unknown>
     8ce: 1f 09 ad 07  	<unknown>
     8d2: ee 1a        	<unknown>
     8d4: 00 00        	<unknown>
     8d6: 1f 09 af 07  	<unknown>
     8da: 01 1b        	<unknown>
     8dc: 00 00        	<unknown>
     8de: 1f 09 b0 07  	<unknown>
     8e2: 14 1b        	<unknown>
     8e4: 00 00        	<unknown>
     8e6: 1f 09 b1 07  	<unknown>
     8ea: 27 1b 00 00  	<unknown>
     8ee: 1f 09 b3 07  	<unknown>
     8f2: 3a 1b        	<unknown>
     8f4: 00 00        	<unknown>
     8f6: 1f 09 b4 07  	<unknown>
     8fa: 4e 1b        	<unknown>
     8fc: 00 00        	<unknown>
     8fe: 1f 09 b5 07  	<unknown>
     902: 62 1b        	<unknown>
     904: 00 00        	<unknown>
     906: 1f 09 b7 07  	<unknown>
     90a: 76 1b        	<unknown>
     90c: 00 00        	<unknown>
     90e: 1f 09 b8 07  	<unknown>
     912: 8a 1b        	<unknown>
     914: 00 00        	<unknown>
     916: 1f 09 b9 07  	<unknown>
     91a: 9e 1b        	<unknown>
     91c: 00 00        	<unknown>
     91e: 1f 09 bb 07  	<unknown>
     922: b2 1b        	<unknown>
     924: 00 00        	<unknown>
     926: 1f 09 bc 07  	<unknown>
     92a: c5 1b        	<unknown>
     92c: 00 00        	<unknown>
     92e: 1f 09 bd 07  	<unknown>
     932: d8 1b        	<unknown>
     934: 00 00        	<unknown>
     936: 1f 09 bf 07  	<unknown>
     93a: eb 1b 00 00  	<unknown>
     93e: 1f 09 c0 07  	<unknown>
     942: ff 1b 00 00  	<unknown>
     946: 1f 09 c1 07  	<unknown>
     94a: 13 1c 00 00  	slli	s8, zero, 0x0
     94e: 1f 09 c3 07  	<unknown>
     952: 27 1c 00 00  	<unknown>
     956: 1f 09 c4 07  	<unknown>
     95a: 40 1c        	<unknown>
     95c: 00 00        	<unknown>
     95e: 1f 09 c5 07  	<unknown>
     962: 59 1c        	<unknown>
     964: 00 00        	<unknown>
     966: 1f 09 c7 07  	<unknown>
     96a: 72 1c        	<unknown>
     96c: 00 00        	<unknown>
     96e: 1f 09 c8 07  	<unknown>
     972: 8b 1c 00 00  	<unknown>
     976: 1f 09 c9 07  	<unknown>
     97a: a4 1c        	<unknown>
     97c: 00 00        	<unknown>
     97e: 1f 09 cb 07  	<unknown>
     982: bd 1c        	<unknown>
     984: 00 00        	<unknown>
     986: 1f 09 cc 07  	<unknown>
     98a: d6 1c        	<unknown>
     98c: 00 00        	<unknown>
     98e: 1f 09 cd 07  	<unknown>
     992: ef 1c 00 00  	jal	s9, 0x1992 <.debug_info+0x1992>
     996: 1f 09 cf 07  	<unknown>
     99a: 08 1d        	<unknown>
     99c: 00 00        	<unknown>
     99e: 1f 09 d0 07  	<unknown>
     9a2: 26 1d        	<unknown>
     9a4: 00 00        	<unknown>
     9a6: 1f 09 d1 07  	<unknown>
     9aa: 44 1d        	<unknown>
     9ac: 00 00        	<unknown>
     9ae: 1f 09 d3 07  	<unknown>
     9b2: 62 1d        	<unknown>
     9b4: 00 00        	<unknown>
     9b6: 1f 09 d4 07  	<unknown>
     9ba: 76 1d        	<unknown>
     9bc: 00 00        	<unknown>
     9be: 1f 09 d5 07  	<unknown>
     9c2: 8a 1d        	<unknown>
     9c4: 00 00        	<unknown>
     9c6: 1f 09 d7 07  	<unknown>
     9ca: 9e 1d        	<unknown>
     9cc: 00 00        	<unknown>
     9ce: 1f 09 d8 07  	<unknown>
     9d2: b2 1d        	<unknown>
     9d4: 00 00        	<unknown>
     9d6: 1f 09 d9 07  	<unknown>
     9da: c6 1d        	<unknown>
     9dc: 00 00        	<unknown>
     9de: 1f 09 db 07  	<unknown>
     9e2: da 1d        	<unknown>
     9e4: 00 00        	<unknown>
     9e6: 1f 09 dc 07  	<unknown>
     9ea: f3 1d 00 00  	csrrw	s11, 0x0, zero
     9ee: 1f 09 dd 07  	<unknown>
     9f2: 0c 1e        	<unknown>
     9f4: 00 00        	<unknown>
     9f6: 1f 09 df 07  	<unknown>
     9fa: 25 1e        	<unknown>
     9fc: 00 00        	<unknown>
     9fe: 1f 09 e0 07  	<unknown>
     a02: 3e 1e        	<unknown>
     a04: 00 00        	<unknown>
     a06: 1f 09 e1 07  	<unknown>
     a0a: 57 1e 00 00  	<unknown>
     a0e: 1f 09 e3 07  	<unknown>
     a12: 70 1e        	<unknown>
     a14: 00 00        	<unknown>
     a16: 1f 09 e4 07  	<unknown>
     a1a: 83 1e 00 00  	lh	t4, 0x0(zero)
     a1e: 1f 09 e5 07  	<unknown>
     a22: 96 1e        	<unknown>
     a24: 00 00        	<unknown>
     a26: 1f 09 e7 07  	<unknown>
     a2a: a9 1e        	<unknown>
     a2c: 00 00        	<unknown>
     a2e: 1f 09 e8 07  	<unknown>
     a32: bd 1e        	<unknown>
     a34: 00 00        	<unknown>
     a36: 1f 09 e9 07  	<unknown>
     a3a: d1 1e        	<unknown>
     a3c: 00 00        	<unknown>
     a3e: 12 0b        	<unknown>
     a40: 83 e5 1e 00  	lwu	a1, 0x1(t4)
     a44: 00 12        	<unknown>
     a46: 0b 84 f2 1e  	<unknown>
     a4a: 00 00        	<unknown>
     a4c: 12 0b        	<unknown>
     a4e: 86 1f        	<unknown>
     a50: 1f 00 00 12  	<unknown>
     a54: 0b 8a 2a 1f  	<unknown>
     a58: 00 00        	<unknown>
     a5a: 12 0b        	<unknown>
     a5c: 8d 44        	<unknown>
     a5e: 1f 00 00 12  	<unknown>
     a62: 0b 90 58 1f  	<unknown>
     a66: 00 00        	<unknown>
     a68: 12 0b        	<unknown>
     a6a: 91 6b        	<unknown>
     a6c: 1f 00 00 12  	<unknown>
     a70: 0b 92 7e 1f  	<unknown>
     a74: 00 00        	<unknown>
     a76: 12 0b        	<unknown>
     a78: 93 91 1f 00  	slli	gp, t6, 0x1
     a7c: 00 12        	<unknown>
     a7e: 0b 94 f3 1f  	<unknown>
     a82: 00 00        	<unknown>
     a84: 12 0b        	<unknown>
     a86: 95 0c        	<unknown>
     a88: 20 00        	<unknown>
     a8a: 00 12        	<unknown>
     a8c: 0b 96 25 20  	<unknown>
     a90: 00 00        	<unknown>
     a92: 12 0b        	<unknown>
     a94: 97 36 20 00  	auipc	a3, 0x203
     a98: 00 12        	<unknown>
     a9a: 0b 98 46 20  	<unknown>
     a9e: 00 00        	<unknown>
     aa0: 12 0b        	<unknown>
     aa2: 99 5f        	<unknown>
     aa4: 20 00        	<unknown>
     aa6: 00 12        	<unknown>
     aa8: 0b 9a 73 20  	<unknown>
     aac: 00 00        	<unknown>
     aae: 12 0b        	<unknown>
     ab0: 9b 8c 20 00  	addiw	s9, ra, 0x2
     ab4: 00 12        	<unknown>
     ab6: 0b 9d a0 20  	<unknown>
     aba: 00 00        	<unknown>
     abc: 12 0b        	<unknown>
     abe: 9e b9        	<unknown>
     ac0: 20 00        	<unknown>
     ac2: 00 12        	<unknown>
     ac4: 0b 9f e3 20  	<unknown>
     ac8: 00 00        	<unknown>
     aca: 12 0b        	<unknown>
     acc: a1 01        	<unknown>
     ace: 21 00        	<unknown>
     ad0: 00 12        	<unknown>
     ad2: 0b a4 20 21  	<unknown>
     ad6: 00 00        	<unknown>
     ad8: 12 0b        	<unknown>
     ada: a7 31 21 00  	fsd	ft2, 0x3(sp)
     ade: 00 12        	<unknown>
     ae0: 0b a8 3f 21  	<unknown>
     ae4: 00 00        	<unknown>
     ae6: 12 0b        	<unknown>
     ae8: a9 58        	<unknown>
     aea: 21 00        	<unknown>
     aec: 00 12        	<unknown>
     aee: 0b aa 68 21  	<unknown>
     af2: 00 00        	<unknown>
     af4: 12 0b        	<unknown>
     af6: ab 85 21 00  	vx_tex	a1, gp, sp, zero
     afa: 00 12        	<unknown>
     afc: 0b ac a2 21  	<unknown>
     b00: 00 00        	<unknown>
     b02: 12 0b        	<unknown>
     b04: ad bf        	<unknown>
     b06: 21 00        	<unknown>
     b08: 00 12        	<unknown>
     b0a: 0b af d3 21  	<unknown>
     b0e: 00 00        	<unknown>
     b10: 12 0b        	<unknown>
     b12: b0 fb        	<unknown>
     b14: 21 00        	<unknown>
     b16: 00 12        	<unknown>
     b18: 0b f4 75 22  	<unknown>
     b1c: 00 00        	<unknown>
     b1e: 12 0b        	<unknown>
     b20: f6 a2        	<unknown>
     b22: 22 00        	<unknown>
     b24: 00 12        	<unknown>
     b26: 0b f8 b3 22  	<unknown>
     b2a: 00 00        	<unknown>
     b2c: 12 0b        	<unknown>
     b2e: f9 58        	<unknown>
     b30: 22 00        	<unknown>
     b32: 00 12        	<unknown>
     b34: 0b fa c7 22  	<unknown>
     b38: 00 00        	<unknown>
     b3a: 12 0b        	<unknown>
     b3c: fc e0        	<unknown>
     b3e: 22 00        	<unknown>
     b40: 00 12        	<unknown>
     b42: 0b fd 2d 23  	<unknown>
     b46: 00 00        	<unknown>
     b48: 12 0b        	<unknown>
     b4a: fe f3        	<unknown>
     b4c: 22 00        	<unknown>
     b4e: 00 12        	<unknown>
     b50: 0b ff 10 23  	<unknown>
     b54: 00 00        	<unknown>
     b56: 1f 0b 00 01  	<unknown>
     b5a: 45 23        	<unknown>
     b5c: 00 00        	<unknown>
     b5e: 11 32        	<unknown>
     b60: 0c 00        	<unknown>
     b62: 00 c9        	<unknown>
     b64: 05 00        	<unknown>
     b66: 00 07        	<unknown>
     b68: 4f 41 16 00  	fnmadd.s	ft2, fa2, ft1, ft0, rmm
     b6c: 00 01        	<unknown>
     b6e: 01 0f        	<unknown>
     b70: 41 16        	<unknown>
     b72: 00 00        	<unknown>
     b74: 00 1f        	<unknown>
     b76: 0f bb 01 44  	<unknown>
     b7a: 24 00        	<unknown>
     b7c: 00 1f        	<unknown>
     b7e: 0f bc 01 5a  	<unknown>
     b82: 24 00        	<unknown>
     b84: 00 1f        	<unknown>
     b86: 0f bd 01 70  	<unknown>
     b8a: 24 00        	<unknown>
     b8c: 00 1f        	<unknown>
     b8e: 0f be 01 86  	<unknown>
     b92: 24 00        	<unknown>
     b94: 00 1f        	<unknown>
     b96: 0f bf 01 9c  	<unknown>
     b9a: 24 00        	<unknown>
     b9c: 00 1f        	<unknown>
     b9e: 0f c0 01 b7  	<unknown>
     ba2: 24 00        	<unknown>
     ba4: 00 1f        	<unknown>
     ba6: 0f c1 01 cd  	<unknown>
     baa: 24 00        	<unknown>
     bac: 00 1f        	<unknown>
     bae: 0f c2 01 e3  	<unknown>
     bb2: 24 00        	<unknown>
     bb4: 00 1f        	<unknown>
     bb6: 0f c3 01 f9  	<unknown>
     bba: 24 00        	<unknown>
     bbc: 00 1f        	<unknown>
     bbe: 0f c4 01 0f  	<unknown>
     bc2: 25 00        	<unknown>
     bc4: 00 1f        	<unknown>
     bc6: 0f c5 01 2a  	<unknown>
     bca: 25 00        	<unknown>
     bcc: 00 1f        	<unknown>
     bce: 0f c6 01 40  	<unknown>
     bd2: 25 00        	<unknown>
     bd4: 00 1f        	<unknown>
     bd6: 0f c7 01 56  	<unknown>
     bda: 25 00        	<unknown>
     bdc: 00 1f        	<unknown>
     bde: 0f c8 01 6c  	<unknown>
     be2: 25 00        	<unknown>
     be4: 00 1f        	<unknown>
     be6: 0f c9 01 82  	<unknown>
     bea: 25 00        	<unknown>
     bec: 00 1f        	<unknown>
     bee: 0f ca 01 98  	<unknown>
     bf2: 25 00        	<unknown>
     bf4: 00 1f        	<unknown>
     bf6: 0f cb 01 ae  	<unknown>
     bfa: 25 00        	<unknown>
     bfc: 00 1f        	<unknown>
     bfe: 0f cc 01 c4  	<unknown>
     c02: 25 00        	<unknown>
     c04: 00 1f        	<unknown>
     c06: 0f cd 01 da  	<unknown>
     c0a: 25 00        	<unknown>
     c0c: 00 1f        	<unknown>
     c0e: 0f ce 01 f5  	<unknown>
     c12: 25 00        	<unknown>
     c14: 00 1f        	<unknown>
     c16: 0f cf 01 0b  	<unknown>
     c1a: 26 00        	<unknown>
     c1c: 00 1f        	<unknown>
     c1e: 0f d0 01 2b  	<unknown>
     c22: 26 00        	<unknown>
     c24: 00 1f        	<unknown>
     c26: 0f d1 01 46  	<unknown>
     c2a: 26 00        	<unknown>
     c2c: 00 1f        	<unknown>
     c2e: 0f d2 01 61  	<unknown>
     c32: 26 00        	<unknown>
     c34: 00 1f        	<unknown>
     c36: 0f d3 01 7c  	<unknown>
     c3a: 26 00        	<unknown>
     c3c: 00 1f        	<unknown>
     c3e: 0f d4 01 97  	<unknown>
     c42: 26 00        	<unknown>
     c44: 00 1f        	<unknown>
     c46: 0f d5 01 b2  	<unknown>
     c4a: 26 00        	<unknown>
     c4c: 00 1f        	<unknown>
     c4e: 0f d6 01 c8  	<unknown>
     c52: 26 00        	<unknown>
     c54: 00 1f        	<unknown>
     c56: 0f d7 01 e3  	<unknown>
     c5a: 26 00        	<unknown>
     c5c: 00 1f        	<unknown>
     c5e: 0f d8 01 f9  	<unknown>
     c62: 26 00        	<unknown>
     c64: 00 1f        	<unknown>
     c66: 0f d9 01 0f  	<unknown>
     c6a: 27 00 00 1f  	<unknown>
     c6e: 0f da 01 25  	<unknown>
     c72: 27 00 00 1f  	<unknown>
     c76: 0f db 01 3b  	<unknown>
     c7a: 27 00 00 1f  	<unknown>
     c7e: 0f dc 01 51  	<unknown>
     c82: 27 00 00 1f  	<unknown>
     c86: 0f dd 01 67  	<unknown>
     c8a: 27 00 00 1f  	<unknown>
     c8e: 0f de 01 7d  	<unknown>
     c92: 27 00 00 1f  	<unknown>
     c96: 0f df 01 93  	<unknown>
     c9a: 27 00 00 1f  	<unknown>
     c9e: 0f e0 01 a9  	<unknown>
     ca2: 27 00 00 1f  	<unknown>
     ca6: 0f e1 01 bf  	<unknown>
     caa: 27 00 00 1f  	<unknown>
     cae: 0f e2 01 da  	<unknown>
     cb2: 27 00 00 1f  	<unknown>
     cb6: 0f e3 01 f0  	<unknown>
     cba: 27 00 00 1f  	<unknown>
     cbe: 0f e4 01 0b  	<unknown>
     cc2: 28 00        	<unknown>
     cc4: 00 1f        	<unknown>
     cc6: 0f e5 01 26  	<unknown>
     cca: 28 00        	<unknown>
     ccc: 00 1f        	<unknown>
     cce: 0f e6 01 41  	<unknown>
     cd2: 28 00        	<unknown>
     cd4: 00 1f        	<unknown>
     cd6: 0f e7 01 61  	<unknown>
     cda: 28 00        	<unknown>
     cdc: 00 1f        	<unknown>
     cde: 0f e8 01 78  	<unknown>
     ce2: 28 00        	<unknown>
     ce4: 00 1f        	<unknown>
     ce6: 0f e9 01 8e  	<unknown>
     cea: 28 00        	<unknown>
     cec: 00 1f        	<unknown>
     cee: 0f ea 01 aa  	<unknown>
     cf2: 28 00        	<unknown>
     cf4: 00 1f        	<unknown>
     cf6: 0f eb 01 c6  	<unknown>
     cfa: 28 00        	<unknown>
     cfc: 00 1f        	<unknown>
     cfe: 0f ec 01 dd  	<unknown>
     d02: 28 00        	<unknown>
     d04: 00 1f        	<unknown>
     d06: 0f ed 01 f4  	<unknown>
     d0a: 28 00        	<unknown>
     d0c: 00 1f        	<unknown>
     d0e: 0f ee 01 0b  	<unknown>
     d12: 29 00        	<unknown>
     d14: 00 1f        	<unknown>
     d16: 0f ef 01 22  	<unknown>
     d1a: 29 00        	<unknown>
     d1c: 00 1f        	<unknown>
     d1e: 0f f0 01 39  	<unknown>
     d22: 29 00        	<unknown>
     d24: 00 1f        	<unknown>
     d26: 0f f1 01 50  	<unknown>
     d2a: 29 00        	<unknown>
     d2c: 00 00        	<unknown>
     d2e: 20 b9        	<unknown>
     d30: 04 00        	<unknown>
     d32: 00 c9        	<unknown>
     d34: 05 00        	<unknown>
     d36: 00 05        	<unknown>
     d38: 1e 44        	<unknown>
     d3a: 0d 00        	<unknown>
     d3c: 00 01        	<unknown>
     d3e: 0f 44 0d 00  	<unknown>
     d42: 00 00        	<unknown>
     d44: 06 86        	<unknown>
     d46: 01 00        	<unknown>
     d48: 00 05        	<unknown>
     d4a: 04 20        	<unknown>
     d4c: c2 04        	<unknown>
     d4e: 00 00        	<unknown>
     d50: cc 04        	<unknown>
     d52: 00 00        	<unknown>
     d54: 05 20        	<unknown>
     d56: 3d 00        	<unknown>
     d58: 00 00        	<unknown>
     d5a: 01 0f        	<unknown>
     d5c: 3d 00        	<unknown>
     d5e: 00 00        	<unknown>
     d60: 00 20        	<unknown>
     d62: d1 04        	<unknown>
     d64: 00 00        	<unknown>
     d66: dc 04        	<unknown>
     d68: 00 00        	<unknown>
     d6a: 05 22        	<unknown>
     d6c: 3d 00        	<unknown>
     d6e: 00 00        	<unknown>
     d70: 01 0f        	<unknown>
     d72: 3d 00        	<unknown>
     d74: 00 00        	<unknown>
     d76: 00 20        	<unknown>
     d78: e2 04        	<unknown>
     d7a: 00 00        	<unknown>
     d7c: ec 04        	<unknown>
     d7e: 00 00        	<unknown>
     d80: 05 24        	<unknown>
     d82: 3d 00        	<unknown>
     d84: 00 00        	<unknown>
     d86: 01 0f        	<unknown>
     d88: 3d 00        	<unknown>
     d8a: 00 00        	<unknown>
     d8c: 00 20        	<unknown>
     d8e: f1 04        	<unknown>
     d90: 00 00        	<unknown>
     d92: fc 04        	<unknown>
     d94: 00 00        	<unknown>
     d96: 05 26        	<unknown>
     d98: 3d 00        	<unknown>
     d9a: 00 00        	<unknown>
     d9c: 01 0f        	<unknown>
     d9e: 3d 00        	<unknown>
     da0: 00 00        	<unknown>
     da2: 00 20        	<unknown>
     da4: 02 05        	<unknown>
     da6: 00 00        	<unknown>
     da8: 0c 05        	<unknown>
     daa: 00 00        	<unknown>
     dac: 05 2a        	<unknown>
     dae: 3d 00        	<unknown>
     db0: 00 00        	<unknown>
     db2: 01 0f        	<unknown>
     db4: 3d 00        	<unknown>
     db6: 00 00        	<unknown>
     db8: 00 20        	<unknown>
     dba: 11 05        	<unknown>
     dbc: 00 00        	<unknown>
     dbe: 1d 05        	<unknown>
     dc0: 00 00        	<unknown>
     dc2: 05 28        	<unknown>
     dc4: 3d 00        	<unknown>
     dc6: 00 00        	<unknown>
     dc8: 01 0f        	<unknown>
     dca: 3d 00        	<unknown>
     dcc: 00 00        	<unknown>
     dce: 0f 3d 00 00  	<unknown>
     dd2: 00 00        	<unknown>
     dd4: 20 23        	<unknown>
     dd6: 05 00        	<unknown>
     dd8: 00 2e        	<unknown>
     dda: 05 00        	<unknown>
     ddc: 00 05        	<unknown>
     dde: 2c 3d        	<unknown>
     de0: 00 00        	<unknown>
     de2: 00 01        	<unknown>
     de4: 0f 3d 00 00  	<unknown>
     de8: 00 00        	<unknown>
     dea: 20 34        	<unknown>
     dec: 05 00        	<unknown>
     dee: 00 3e        	<unknown>
     df0: 05 00        	<unknown>
     df2: 00 05        	<unknown>
     df4: 2e 3d        	<unknown>
     df6: 00 00        	<unknown>
     df8: 00 01        	<unknown>
     dfa: 0f 3d 00 00  	<unknown>
     dfe: 00 00        	<unknown>
     e00: 20 43        	<unknown>
     e02: 05 00        	<unknown>
     e04: 00 4d        	<unknown>
     e06: 05 00        	<unknown>
     e08: 00 05        	<unknown>
     e0a: 30 3d        	<unknown>
     e0c: 00 00        	<unknown>
     e0e: 00 01        	<unknown>
     e10: 0f 3d 00 00  	<unknown>
     e14: 00 00        	<unknown>
     e16: 20 52        	<unknown>
     e18: 05 00        	<unknown>
     e1a: 00 61        	<unknown>
     e1c: 05 00        	<unknown>
     e1e: 00 05        	<unknown>
     e20: 32 3d        	<unknown>
     e22: 00 00        	<unknown>
     e24: 00 01        	<unknown>
     e26: 0f 3d 00 00  	<unknown>
     e2a: 00 0f        	<unknown>
     e2c: 3d 00        	<unknown>
     e2e: 00 00        	<unknown>
     e30: 00 20        	<unknown>
     e32: 6a 05        	<unknown>
     e34: 00 00        	<unknown>
     e36: cd 04        	<unknown>
     e38: 00 00        	<unknown>
     e3a: 05 34        	<unknown>
     e3c: 3d 00        	<unknown>
     e3e: 00 00        	<unknown>
     e40: 01 0f        	<unknown>
     e42: 3d 00        	<unknown>
     e44: 00 00        	<unknown>
     e46: 00 20        	<unknown>
     e48: 73 05 00 00  	<unknown>
     e4c: dd 04        	<unknown>
     e4e: 00 00        	<unknown>
     e50: 05 36        	<unknown>
     e52: 3d 00        	<unknown>
     e54: 00 00        	<unknown>
     e56: 01 0f        	<unknown>
     e58: 3d 00        	<unknown>
     e5a: 00 00        	<unknown>
     e5c: 00 20        	<unknown>
     e5e: 7d 05        	<unknown>
     e60: 00 00        	<unknown>
     e62: b2 0a        	<unknown>
     e64: 00 00        	<unknown>
     e66: 05 3a        	<unknown>
     e68: 3d 00        	<unknown>
     e6a: 00 00        	<unknown>
     e6c: 01 0f        	<unknown>
     e6e: 3d 00        	<unknown>
     e70: 00 00        	<unknown>
     e72: 00 20        	<unknown>
     e74: 86 05        	<unknown>
     e76: 00 00        	<unknown>
     e78: 90 05        	<unknown>
     e7a: 00 00        	<unknown>
     e7c: 05 38        	<unknown>
     e7e: 3d 00        	<unknown>
     e80: 00 00        	<unknown>
     e82: 01 0f        	<unknown>
     e84: 3d 00        	<unknown>
     e86: 00 00        	<unknown>
     e88: 00 20        	<unknown>
     e8a: 95 05        	<unknown>
     e8c: 00 00        	<unknown>
     e8e: a0 07        	<unknown>
     e90: 00 00        	<unknown>
     e92: 05 3e        	<unknown>
     e94: 3d 00        	<unknown>
     e96: 00 00        	<unknown>
     e98: 01 0f        	<unknown>
     e9a: 3d 00        	<unknown>
     e9c: 00 00        	<unknown>
     e9e: 00 20        	<unknown>
     ea0: 9e 05        	<unknown>
     ea2: 00 00        	<unknown>
     ea4: a8 05        	<unknown>
     ea6: 00 00        	<unknown>
     ea8: 05 3c        	<unknown>
     eaa: 3d 00        	<unknown>
     eac: 00 00        	<unknown>
     eae: 01 0f        	<unknown>
     eb0: 3d 00        	<unknown>
     eb2: 00 00        	<unknown>
     eb4: 00 20        	<unknown>
     eb6: ad 05        	<unknown>
     eb8: 00 00        	<unknown>
     eba: b8 05        	<unknown>
     ebc: 00 00        	<unknown>
     ebe: 05 40        	<unknown>
     ec0: 3d 00        	<unknown>
     ec2: 00 00        	<unknown>
     ec4: 01 0f        	<unknown>
     ec6: 3d 00        	<unknown>
     ec8: 00 00        	<unknown>
     eca: 00 20        	<unknown>
     ecc: be 05        	<unknown>
     ece: 00 00        	<unknown>
     ed0: c8 05        	<unknown>
     ed2: 00 00        	<unknown>
     ed4: 05 42        	<unknown>
     ed6: 3d 00        	<unknown>
     ed8: 00 00        	<unknown>
     eda: 01 0f        	<unknown>
     edc: 3d 00        	<unknown>
     ede: 00 00        	<unknown>
     ee0: 00 20        	<unknown>
     ee2: cd 05        	<unknown>
     ee4: 00 00        	<unknown>
     ee6: d8 05        	<unknown>
     ee8: 00 00        	<unknown>
     eea: 05 44        	<unknown>
     eec: 3d 00        	<unknown>
     eee: 00 00        	<unknown>
     ef0: 01 0f        	<unknown>
     ef2: 3d 00        	<unknown>
     ef4: 00 00        	<unknown>
     ef6: 0f 3d 00 00  	<unknown>
     efa: 00 00        	<unknown>
     efc: 20 dd        	<unknown>
     efe: 05 00        	<unknown>
     f00: 00 e8        	<unknown>
     f02: 05 00        	<unknown>
     f04: 00 05        	<unknown>
     f06: 46 3d        	<unknown>
     f08: 00 00        	<unknown>
     f0a: 00 01        	<unknown>
     f0c: 0f 3d 00 00  	<unknown>
     f10: 00 00        	<unknown>
     f12: 20 ee        	<unknown>
     f14: 05 00        	<unknown>
     f16: 00 f9        	<unknown>
     f18: 05 00        	<unknown>
     f1a: 00 05        	<unknown>
     f1c: 48 3d        	<unknown>
     f1e: 00 00        	<unknown>
     f20: 00 01        	<unknown>
     f22: 0f 3d 00 00  	<unknown>
     f26: 00 0f        	<unknown>
     f28: 3d 00        	<unknown>
     f2a: 00 00        	<unknown>
     f2c: 0f 3d 00 00  	<unknown>
     f30: 00 00        	<unknown>
     f32: 20 fd        	<unknown>
     f34: 05 00        	<unknown>
     f36: 00 08        	<unknown>
     f38: 06 00        	<unknown>
     f3a: 00 05        	<unknown>
     f3c: 4a 3d        	<unknown>
     f3e: 00 00        	<unknown>
     f40: 00 01        	<unknown>
     f42: 0f 3d 00 00  	<unknown>
     f46: 00 0f        	<unknown>
     f48: 3d 00        	<unknown>
     f4a: 00 00        	<unknown>
     f4c: 00 20        	<unknown>
     f4e: 0d 06        	<unknown>
     f50: 00 00        	<unknown>
     f52: 18 06        	<unknown>
     f54: 00 00        	<unknown>
     f56: 05 4c        	<unknown>
     f58: 3d 00        	<unknown>
     f5a: 00 00        	<unknown>
     f5c: 01 0f        	<unknown>
     f5e: 3d 00        	<unknown>
     f60: 00 00        	<unknown>
     f62: 0f 3d 00 00  	<unknown>
     f66: 00 00        	<unknown>
     f68: 20 1d        	<unknown>
     f6a: 06 00        	<unknown>
     f6c: 00 28        	<unknown>
     f6e: 06 00        	<unknown>
     f70: 00 05        	<unknown>
     f72: 4e 3d        	<unknown>
     f74: 00 00        	<unknown>
     f76: 00 01        	<unknown>
     f78: 0f 3d 00 00  	<unknown>
     f7c: 00 0f        	<unknown>
     f7e: 3d 00        	<unknown>
     f80: 00 00        	<unknown>
     f82: 00 20        	<unknown>
     f84: 2d 06        	<unknown>
     f86: 00 00        	<unknown>
     f88: 3e 06        	<unknown>
     f8a: 00 00        	<unknown>
     f8c: 05 50        	<unknown>
     f8e: 44 0d        	<unknown>
     f90: 00 00        	<unknown>
     f92: 01 0f        	<unknown>
     f94: 3d 00        	<unknown>
     f96: 00 00        	<unknown>
     f98: 00 20        	<unknown>
     f9a: 49 06        	<unknown>
     f9c: 00 00        	<unknown>
     f9e: 56 06        	<unknown>
     fa0: 00 00        	<unknown>
     fa2: 05 52        	<unknown>
     fa4: 3d 00        	<unknown>
     fa6: 00 00        	<unknown>
     fa8: 01 0f        	<unknown>
     faa: 3d 00        	<unknown>
     fac: 00 00        	<unknown>
     fae: 0f b4 0f 00  	<unknown>
     fb2: 00 00        	<unknown>
     fb4: 13 44 0d 00  	xori	s0, s10, 0x0
     fb8: 00 20        	<unknown>
     fba: 5c 06        	<unknown>
     fbc: 00 00        	<unknown>
     fbe: 68 06        	<unknown>
     fc0: 00 00        	<unknown>
     fc2: 05 54        	<unknown>
     fc4: 3d 00        	<unknown>
     fc6: 00 00        	<unknown>
     fc8: 01 0f        	<unknown>
     fca: 3d 00        	<unknown>
     fcc: 00 00        	<unknown>
     fce: 0f 3d 00 00  	<unknown>
     fd2: 00 00        	<unknown>
     fd4: 20 6e        	<unknown>
     fd6: 06 00        	<unknown>
     fd8: 00 79        	<unknown>
     fda: 06 00        	<unknown>
     fdc: 00 05        	<unknown>
     fde: 56 44        	<unknown>
     fe0: 0d 00        	<unknown>
     fe2: 00 01        	<unknown>
     fe4: 0f 3d 00 00  	<unknown>
     fe8: 00 00        	<unknown>
     fea: 20 7f        	<unknown>
     fec: 06 00        	<unknown>
     fee: 00 8d        	<unknown>
     ff0: 06 00        	<unknown>
     ff2: 00 05        	<unknown>
     ff4: 5b 00 10 00  	<unknown>
     ff8: 00 01        	<unknown>
     ffa: 0f 3d 00 00  	<unknown>
     ffe: 00 00        	<unknown>
    1000: 06 96        	<unknown>
    1002: 06 00        	<unknown>
    1004: 00 02        	<unknown>
    1006: 01 20        	<unknown>
    1008: 9b 06 00 00  	sext.w	a3, zero
    100c: ab 06 00 00  	vx_tex	a3, zero, zero, zero
    1010: 05 5f        	<unknown>
    1012: 00 10        	<unknown>
    1014: 00 00        	<unknown>
    1016: 01 0f        	<unknown>
    1018: 3d 00        	<unknown>
    101a: 00 00        	<unknown>
    101c: 0f 3d 00 00  	<unknown>
    1020: 00 00        	<unknown>
    1022: 20 b5        	<unknown>
    1024: 06 00        	<unknown>
    1026: 00 cb        	<unknown>
    1028: 06 00        	<unknown>
    102a: 00 05        	<unknown>
    102c: 5e 00        	<unknown>
    102e: 10 00        	<unknown>
    1030: 00 01        	<unknown>
    1032: 0f 3d 00 00  	<unknown>
    1036: 00 0f        	<unknown>
    1038: 3d 00        	<unknown>
    103a: 00 00        	<unknown>
    103c: 00 20        	<unknown>
    103e: da 06        	<unknown>
    1040: 00 00        	<unknown>
    1042: e5 06        	<unknown>
    1044: 00 00        	<unknown>
    1046: 05 64        	<unknown>
    1048: 00 10        	<unknown>
    104a: 00 00        	<unknown>
    104c: 01 0f        	<unknown>
    104e: 3d 00        	<unknown>
    1050: 00 00        	<unknown>
    1052: 00 20        	<unknown>
    1054: eb 06 00 00  	<unknown>
    1058: f8 06        	<unknown>
    105a: 00 00        	<unknown>
    105c: 05 68        	<unknown>
    105e: 00 10        	<unknown>
    1060: 00 00        	<unknown>
    1062: 01 0f        	<unknown>
    1064: 3d 00        	<unknown>
    1066: 00 00        	<unknown>
    1068: 0f 3d 00 00  	<unknown>
    106c: 00 00        	<unknown>
    106e: 20 ff        	<unknown>
    1070: 06 00        	<unknown>
    1072: 00 12        	<unknown>
    1074: 07 00 00 05  	<unknown>
    1078: 67 00 10 00  	jr	0x1(zero) <.debug_info+0x1>
    107c: 00 01        	<unknown>
    107e: 0f 3d 00 00  	<unknown>
    1082: 00 0f        	<unknown>
    1084: 3d 00        	<unknown>
    1086: 00 00        	<unknown>
    1088: 00 20        	<unknown>
    108a: 1e 07        	<unknown>
    108c: 00 00        	<unknown>
    108e: 33 07 00 00  	add	a4, zero, zero
    1092: 05 6a        	<unknown>
    1094: 00 10        	<unknown>
    1096: 00 00        	<unknown>
    1098: 01 0f        	<unknown>
    109a: 3d 00        	<unknown>
    109c: 00 00        	<unknown>
    109e: 0f 3d 00 00  	<unknown>
    10a2: 00 00        	<unknown>
    10a4: 20 41        	<unknown>
    10a6: 07 00 00 4c  	<unknown>
    10aa: 07 00 00 05  	<unknown>
    10ae: 6f 00 10 00  	j	0x18ae <.debug_info+0x18ae>
    10b2: 00 01        	<unknown>
    10b4: 0f 3d 00 00  	<unknown>
    10b8: 00 00        	<unknown>
    10ba: 20 52        	<unknown>
    10bc: 07 00 00 60  	<unknown>
    10c0: 07 00 00 05  	<unknown>
    10c4: 71 00        	<unknown>
    10c6: 10 00        	<unknown>
    10c8: 00 01        	<unknown>
    10ca: 0f 3d 00 00  	<unknown>
    10ce: 00 00        	<unknown>
    10d0: 20 69        	<unknown>
    10d2: 07 00 00 7c  	<unknown>
    10d6: 07 00 00 05  	<unknown>
    10da: 73 00 10 00  	ebreak
    10de: 00 01        	<unknown>
    10e0: 0f 3d 00 00  	<unknown>
    10e4: 00 0f        	<unknown>
    10e6: 3d 00        	<unknown>
    10e8: 00 00        	<unknown>
    10ea: 00 20        	<unknown>
    10ec: 88 07        	<unknown>
    10ee: 00 00        	<unknown>
    10f0: c3 07 00 00  	fmadd.s	fa5, ft0, ft0, ft0, rne
    10f4: 05 74        	<unknown>
    10f6: 01 11        	<unknown>
    10f8: 00 00        	<unknown>
    10fa: 01 0f        	<unknown>
    10fc: 01 11        	<unknown>
    10fe: 00 00        	<unknown>
    1100: 00 06        	<unknown>
    1102: 46 0b        	<unknown>
    1104: 00 00        	<unknown>
    1106: 05 08        	<unknown>
    1108: 20 92        	<unknown>
    110a: 07 00 00 9e  	<unknown>
    110e: 07 00 00 05  	<unknown>
    1112: 76 3d        	<unknown>
    1114: 00 00        	<unknown>
    1116: 00 01        	<unknown>
    1118: 0f 3d 00 00  	<unknown>
    111c: 00 0f        	<unknown>
    111e: 44 0d        	<unknown>
    1120: 00 00        	<unknown>
    1122: 00 20        	<unknown>
    1124: a4 07        	<unknown>
    1126: 00 00        	<unknown>
    1128: b0 07        	<unknown>
    112a: 00 00        	<unknown>
    112c: 05 78        	<unknown>
    112e: 3d 00        	<unknown>
    1130: 00 00        	<unknown>
    1132: 01 0f        	<unknown>
    1134: 3d 00        	<unknown>
    1136: 00 00        	<unknown>
    1138: 00 20        	<unknown>
    113a: b7 07 00 00  	lui	a5, 0x0
    113e: c2 07        	<unknown>
    1140: 00 00        	<unknown>
    1142: 05 79        	<unknown>
    1144: 4f 11 00 00  	fnmadd.s	ft2, ft0, ft0, ft0, rtz
    1148: 01 0f        	<unknown>
    114a: 4f 11 00 00  	fnmadd.s	ft2, ft0, ft0, ft0, rtz
    114e: 00 06        	<unknown>
    1150: 55 01        	<unknown>
    1152: 00 00        	<unknown>
    1154: 05 08        	<unknown>
    1156: 20 c8        	<unknown>
    1158: 07 00 00 d4  	<unknown>
    115c: 07 00 00 05  	<unknown>
    1160: 7b 4f 11 00  	<unknown>
    1164: 00 01        	<unknown>
    1166: 0f 3d 00 00  	<unknown>
    116a: 00 00        	<unknown>
    116c: 20 db        	<unknown>
    116e: 07 00 00 e4  	<unknown>
    1172: 07 00 00 05  	<unknown>
    1176: 85 3d        	<unknown>
    1178: 00 00        	<unknown>
    117a: 00 01        	<unknown>
    117c: 0f 3d 00 00  	<unknown>
    1180: 00 00        	<unknown>
    1182: 20 e8        	<unknown>
    1184: 07 00 00 f3  	<unknown>
    1188: 07 00 00 05  	<unknown>
    118c: 7d 3d        	<unknown>
    118e: 00 00        	<unknown>
    1190: 00 01        	<unknown>
    1192: 0f 3d 00 00  	<unknown>
    1196: 00 00        	<unknown>
    1198: 20 f9        	<unknown>
    119a: 07 00 00 04  	<unknown>
    119e: 08 00        	<unknown>
    11a0: 00 05        	<unknown>
    11a2: 7f 3d 00 00  	<unknown>
    11a6: 00 01        	<unknown>
    11a8: 0f 3d 00 00  	<unknown>
    11ac: 00 00        	<unknown>
    11ae: 20 0a        	<unknown>
    11b0: 08 00        	<unknown>
    11b2: 00 14        	<unknown>
    11b4: 08 00        	<unknown>
    11b6: 00 05        	<unknown>
    11b8: 81 3d        	<unknown>
    11ba: 00 00        	<unknown>
    11bc: 00 01        	<unknown>
    11be: 0f 3d 00 00  	<unknown>
    11c2: 00 00        	<unknown>
    11c4: 20 19        	<unknown>
    11c6: 08 00        	<unknown>
    11c8: 00 7a        	<unknown>
    11ca: 06 00        	<unknown>
    11cc: 00 05        	<unknown>
    11ce: 83 3d 00 00  	ld	s11, 0x0(zero)
    11d2: 00 01        	<unknown>
    11d4: 0f 3d 00 00  	<unknown>
    11d8: 00 00        	<unknown>
    11da: 20 23        	<unknown>
    11dc: 08 00        	<unknown>
    11de: 00 d5        	<unknown>
    11e0: 07 00 00 05  	<unknown>
    11e4: 87 01 11 00  	<unknown>
    11e8: 00 01        	<unknown>
    11ea: 0f 3d 00 00  	<unknown>
    11ee: 00 00        	<unknown>
    11f0: 20 2e        	<unknown>
    11f2: 08 00        	<unknown>
    11f4: 00 48        	<unknown>
    11f6: 08 00        	<unknown>
    11f8: 00 05        	<unknown>
    11fa: 89 01        	<unknown>
    11fc: 11 00        	<unknown>
    11fe: 00 01        	<unknown>
    1200: 0f 3d 00 00  	<unknown>
    1204: 00 00        	<unknown>
    1206: 20 3a        	<unknown>
    1208: 08 00        	<unknown>
    120a: 00 47        	<unknown>
    120c: 08 00        	<unknown>
    120e: 00 05        	<unknown>
    1210: 8a 4f        	<unknown>
    1212: 11 00        	<unknown>
    1214: 00 01        	<unknown>
    1216: 0f 3d 00 00  	<unknown>
    121a: 00 00        	<unknown>
    121c: 20 4f        	<unknown>
    121e: 08 00        	<unknown>
    1220: 00 5a        	<unknown>
    1222: 0d 00        	<unknown>
    1224: 00 05        	<unknown>
    1226: 8c 3d        	<unknown>
    1228: 00 00        	<unknown>
    122a: 00 01        	<unknown>
    122c: 0f 3d 00 00  	<unknown>
    1230: 00 0f        	<unknown>
    1232: 37 12 00 00  	lui	tp, 0x1
    1236: 00 13        	<unknown>
    1238: 3d 00        	<unknown>
    123a: 00 00        	<unknown>
    123c: 20 5b        	<unknown>
    123e: 08 00        	<unknown>
    1240: 00 4e        	<unknown>
    1242: 07 00 00 05  	<unknown>
    1246: 8d 52        	<unknown>
    1248: 12 00        	<unknown>
    124a: 00 01        	<unknown>
    124c: 0f 59 12 00  	<unknown>
    1250: 00 00        	<unknown>
    1252: 06 b2        	<unknown>
    1254: 09 00        	<unknown>
    1256: 00 04        	<unknown>
    1258: 08 13        	<unknown>
    125a: 5e 12        	<unknown>
    125c: 00 00        	<unknown>
    125e: 19 63        	<unknown>
    1260: 12 00        	<unknown>
    1262: 00 06        	<unknown>
    1264: 66 08        	<unknown>
    1266: 00 00        	<unknown>
    1268: 06 01        	<unknown>
    126a: 20 6b        	<unknown>
    126c: 08 00        	<unknown>
    126e: 00 47        	<unknown>
    1270: 07 00 00 05  	<unknown>
    1274: 8e 3d        	<unknown>
    1276: 00 00        	<unknown>
    1278: 00 01        	<unknown>
    127a: 0f 59 12 00  	<unknown>
    127e: 00 00        	<unknown>
    1280: 20 77        	<unknown>
    1282: 08 00        	<unknown>
    1284: 00 86        	<unknown>
    1286: 08 00        	<unknown>
    1288: 00 05        	<unknown>
    128a: 90 3d        	<unknown>
    128c: 00 00        	<unknown>
    128e: 00 01        	<unknown>
    1290: 0f 3d 00 00  	<unknown>
    1294: 00 00        	<unknown>
    1296: 20 90        	<unknown>
    1298: 08 00        	<unknown>
    129a: 00 a0        	<unknown>
    129c: 08 00        	<unknown>
    129e: 00 05        	<unknown>
    12a0: 92 3d        	<unknown>
    12a2: 00 00        	<unknown>
    12a4: 00 01        	<unknown>
    12a6: 0f 3d 00 00  	<unknown>
    12aa: 00 0f        	<unknown>
    12ac: 3d 00        	<unknown>
    12ae: 00 00        	<unknown>
    12b0: 00 20        	<unknown>
    12b2: aa 08        	<unknown>
    12b4: 00 00        	<unknown>
    12b6: b4 08        	<unknown>
    12b8: 00 00        	<unknown>
    12ba: 05 96        	<unknown>
    12bc: 3d 00        	<unknown>
    12be: 00 00        	<unknown>
    12c0: 01 0f        	<unknown>
    12c2: 3d 00        	<unknown>
    12c4: 00 00        	<unknown>
    12c6: 0f 44 0d 00  	<unknown>
    12ca: 00 00        	<unknown>
    12cc: 20 b8        	<unknown>
    12ce: 08 00        	<unknown>
    12d0: 00 c8        	<unknown>
    12d2: 08 00        	<unknown>
    12d4: 00 05        	<unknown>
    12d6: 98 3d        	<unknown>
    12d8: 00 00        	<unknown>
    12da: 00 01        	<unknown>
    12dc: 0f 3d 00 00  	<unknown>
    12e0: 00 0f        	<unknown>
    12e2: 3d 00        	<unknown>
    12e4: 00 00        	<unknown>
    12e6: 00 20        	<unknown>
    12e8: d2 08        	<unknown>
    12ea: 00 00        	<unknown>
    12ec: e1 08        	<unknown>
    12ee: 00 00        	<unknown>
    12f0: 05 9a        	<unknown>
    12f2: 3d 00        	<unknown>
    12f4: 00 00        	<unknown>
    12f6: 01 0f        	<unknown>
    12f8: 3d 00        	<unknown>
    12fa: 00 00        	<unknown>
    12fc: 0f 3d 00 00  	<unknown>
    1300: 00 0f        	<unknown>
    1302: b4 0f        	<unknown>
    1304: 00 00        	<unknown>
    1306: 00 20        	<unknown>
    1308: e8 08        	<unknown>
    130a: 00 00        	<unknown>
    130c: d6 07        	<unknown>
    130e: 00 00        	<unknown>
    1310: 05 9c        	<unknown>
    1312: 3d 00        	<unknown>
    1314: 00 00        	<unknown>
    1316: 01 0f        	<unknown>
    1318: 3d 00        	<unknown>
    131a: 00 00        	<unknown>
    131c: 00 20        	<unknown>
    131e: f2 08        	<unknown>
    1320: 00 00        	<unknown>
    1322: 49 08        	<unknown>
    1324: 00 00        	<unknown>
    1326: 05 9e        	<unknown>
    1328: 3d 00        	<unknown>
    132a: 00 00        	<unknown>
    132c: 01 0f        	<unknown>
    132e: 3d 00        	<unknown>
    1330: 00 00        	<unknown>
    1332: 00 20        	<unknown>
    1334: fd 08        	<unknown>
    1336: 00 00        	<unknown>
    1338: 0b 09 00 00  	<unknown>
    133c: 05 a0        	<unknown>
    133e: 3d 00        	<unknown>
    1340: 00 00        	<unknown>
    1342: 01 0f        	<unknown>
    1344: 3d 00        	<unknown>
    1346: 00 00        	<unknown>
    1348: 0f 01 11 00  	<unknown>
    134c: 00 00        	<unknown>
    134e: 20 13        	<unknown>
    1350: 09 00        	<unknown>
    1352: 00 20        	<unknown>
    1354: 09 00        	<unknown>
    1356: 00 05        	<unknown>
    1358: a2 3d        	<unknown>
    135a: 00 00        	<unknown>
    135c: 00 01        	<unknown>
    135e: 0f 3d 00 00  	<unknown>
    1362: 00 0f        	<unknown>
    1364: 44 0d        	<unknown>
    1366: 00 00        	<unknown>
    1368: 00 20        	<unknown>
    136a: 27 09 00 00  	<unknown>
    136e: 34 09        	<unknown>
    1370: 00 00        	<unknown>
    1372: 05 a7        	<unknown>
    1374: 00 10        	<unknown>
    1376: 00 00        	<unknown>
    1378: 01 0f        	<unknown>
    137a: 3d 00        	<unknown>
    137c: 00 00        	<unknown>
    137e: 00 20        	<unknown>
    1380: 3c 09        	<unknown>
    1382: 00 00        	<unknown>
    1384: ed 04        	<unknown>
    1386: 00 00        	<unknown>
    1388: 05 a9        	<unknown>
    138a: 3d 00        	<unknown>
    138c: 00 00        	<unknown>
    138e: 01 0f        	<unknown>
    1390: 3d 00        	<unknown>
    1392: 00 00        	<unknown>
    1394: 00 20        	<unknown>
    1396: 45 09        	<unknown>
    1398: 00 00        	<unknown>
    139a: fd 04        	<unknown>
    139c: 00 00        	<unknown>
    139e: 05 ab        	<unknown>
    13a0: 3d 00        	<unknown>
    13a2: 00 00        	<unknown>
    13a4: 01 0f        	<unknown>
    13a6: 3d 00        	<unknown>
    13a8: 00 00        	<unknown>
    13aa: 00 20        	<unknown>
    13ac: 4f 09 00 00  	fnmadd.s	fs2, ft0, ft0, ft0, rne
    13b0: 59 09        	<unknown>
    13b2: 00 00        	<unknown>
    13b4: 05 ad        	<unknown>
    13b6: 3d 00        	<unknown>
    13b8: 00 00        	<unknown>
    13ba: 01 0f        	<unknown>
    13bc: 3d 00        	<unknown>
    13be: 00 00        	<unknown>
    13c0: 00 20        	<unknown>
    13c2: 5e 09        	<unknown>
    13c4: 00 00        	<unknown>
    13c6: 0d 05        	<unknown>
    13c8: 00 00        	<unknown>
    13ca: 05 af        	<unknown>
    13cc: 3d 00        	<unknown>
    13ce: 00 00        	<unknown>
    13d0: 01 0f        	<unknown>
    13d2: 3d 00        	<unknown>
    13d4: 00 00        	<unknown>
    13d6: 00 20        	<unknown>
    13d8: 67 09 00 00  	jalr	s2, zero <.debug_info>
    13dc: 2f 05 00 00  	<unknown>
    13e0: 05 b1        	<unknown>
    13e2: 3d 00        	<unknown>
    13e4: 00 00        	<unknown>
    13e6: 01 0f        	<unknown>
    13e8: 3d 00        	<unknown>
    13ea: 00 00        	<unknown>
    13ec: 00 20        	<unknown>
    13ee: 71 09        	<unknown>
    13f0: 00 00        	<unknown>
    13f2: 7d 09        	<unknown>
    13f4: 00 00        	<unknown>
    13f6: 05 b3        	<unknown>
    13f8: 3d 00        	<unknown>
    13fa: 00 00        	<unknown>
    13fc: 01 0f        	<unknown>
    13fe: 3d 00        	<unknown>
    1400: 00 00        	<unknown>
    1402: 00 20        	<unknown>
    1404: 84 09        	<unknown>
    1406: 00 00        	<unknown>
    1408: 8f 09 00 00  	<unknown>
    140c: 05 b5        	<unknown>
    140e: 3d 00        	<unknown>
    1410: 00 00        	<unknown>
    1412: 01 0f        	<unknown>
    1414: 3d 00        	<unknown>
    1416: 00 00        	<unknown>
    1418: 00 21        	<unknown>
    141a: c9 05        	<unknown>
    141c: 00 00        	<unknown>
    141e: 06 48        	<unknown>
    1420: 03 44 0d 00  	lbu	s0, 0x0(s10)
    1424: 00 01        	<unknown>
    1426: 01 0f        	<unknown>
    1428: 44 0d        	<unknown>
    142a: 00 00        	<unknown>
    142c: 00 22        	<unknown>
    142e: cc 04        	<unknown>
    1430: 00 00        	<unknown>
    1432: 08 35        	<unknown>
    1434: 52 12        	<unknown>
    1436: 00 00        	<unknown>
    1438: 01 01        	<unknown>
    143a: 0f 52 12 00  	<unknown>
    143e: 00 00        	<unknown>
    1440: 22 ec        	<unknown>
    1442: 04 00        	<unknown>
    1444: 00 08        	<unknown>
    1446: 37 52 12 00  	lui	tp, 0x125
    144a: 00 01        	<unknown>
    144c: 01 0f        	<unknown>
    144e: 52 12        	<unknown>
    1450: 00 00        	<unknown>
    1452: 00 22        	<unknown>
    1454: 0c 05        	<unknown>
    1456: 00 00        	<unknown>
    1458: 08 39        	<unknown>
    145a: 52 12        	<unknown>
    145c: 00 00        	<unknown>
    145e: 01 01        	<unknown>
    1460: 0f 52 12 00  	<unknown>
    1464: 00 00        	<unknown>
    1466: 22 1d        	<unknown>
    1468: 05 00        	<unknown>
    146a: 00 08        	<unknown>
    146c: 3b 52 12 00  	srlw	tp, tp, ra
    1470: 00 01        	<unknown>
    1472: 01 0f        	<unknown>
    1474: 52 12        	<unknown>
    1476: 00 00        	<unknown>
    1478: 0f 52 12 00  	<unknown>
    147c: 00 00        	<unknown>
    147e: 22 4d        	<unknown>
    1480: 05 00        	<unknown>
    1482: 00 08        	<unknown>
    1484: 9f 52 12 00  	<unknown>
    1488: 00 01        	<unknown>
    148a: 01 0f        	<unknown>
    148c: 52 12        	<unknown>
    148e: 00 00        	<unknown>
    1490: 00 22        	<unknown>
    1492: cd 04        	<unknown>
    1494: 00 00        	<unknown>
    1496: 08 3e        	<unknown>
    1498: 52 12        	<unknown>
    149a: 00 00        	<unknown>
    149c: 01 01        	<unknown>
    149e: 0f 52 12 00  	<unknown>
    14a2: 00 00        	<unknown>
    14a4: 22 dd        	<unknown>
    14a6: 04 00        	<unknown>
    14a8: 00 08        	<unknown>
    14aa: 47 52 12 00  	<unknown>
    14ae: 00 01        	<unknown>
    14b0: 01 0f        	<unknown>
    14b2: 52 12        	<unknown>
    14b4: 00 00        	<unknown>
    14b6: 00 22        	<unknown>
    14b8: a0 07        	<unknown>
    14ba: 00 00        	<unknown>
    14bc: 08 5f        	<unknown>
    14be: 52 12        	<unknown>
    14c0: 00 00        	<unknown>
    14c2: 01 01        	<unknown>
    14c4: 0f 52 12 00  	<unknown>
    14c8: 00 00        	<unknown>
    14ca: 22 c8        	<unknown>
    14cc: 05 00        	<unknown>
    14ce: 00 08        	<unknown>
    14d0: a2 52        	<unknown>
    14d2: 12 00        	<unknown>
    14d4: 00 01        	<unknown>
    14d6: 01 0f        	<unknown>
    14d8: 52 12        	<unknown>
    14da: 00 00        	<unknown>
    14dc: 00 22        	<unknown>
    14de: e8 05        	<unknown>
    14e0: 00 00        	<unknown>
    14e2: 08 a5        	<unknown>
    14e4: 52 12        	<unknown>
    14e6: 00 00        	<unknown>
    14e8: 01 01        	<unknown>
    14ea: 0f 52 12 00  	<unknown>
    14ee: 00 00        	<unknown>
    14f0: 22 28        	<unknown>
    14f2: 06 00        	<unknown>
    14f4: 00 08        	<unknown>
    14f6: a8 52        	<unknown>
    14f8: 12 00        	<unknown>
    14fa: 00 01        	<unknown>
    14fc: 01 0f        	<unknown>
    14fe: 52 12        	<unknown>
    1500: 00 00        	<unknown>
    1502: 0f 52 12 00  	<unknown>
    1506: 00 00        	<unknown>
    1508: 22 56        	<unknown>
    150a: 06 00        	<unknown>
    150c: 00 08        	<unknown>
    150e: 62 52        	<unknown>
    1510: 12 00        	<unknown>
    1512: 00 01        	<unknown>
    1514: 01 0f        	<unknown>
    1516: 52 12        	<unknown>
    1518: 00 00        	<unknown>
    151a: 0f b4 0f 00  	<unknown>
    151e: 00 00        	<unknown>
    1520: 22 9e        	<unknown>
    1522: 07 00 00 08  	<unknown>
    1526: 65 52        	<unknown>
    1528: 12 00        	<unknown>
    152a: 00 01        	<unknown>
    152c: 01 0f        	<unknown>
    152e: 52 12        	<unknown>
    1530: 00 00        	<unknown>
    1532: 0f 44 0d 00  	<unknown>
    1536: 00 00        	<unknown>
    1538: 22 e4        	<unknown>
    153a: 07 00 00 08  	<unknown>
    153e: 68 52        	<unknown>
    1540: 12 00        	<unknown>
    1542: 00 01        	<unknown>
    1544: 01 0f        	<unknown>
    1546: 52 12        	<unknown>
    1548: 00 00        	<unknown>
    154a: 00 22        	<unknown>
    154c: f3 07 00 00  	<unknown>
    1550: 08 6b        	<unknown>
    1552: 52 12        	<unknown>
    1554: 00 00        	<unknown>
    1556: 01 01        	<unknown>
    1558: 0f 52 12 00  	<unknown>
    155c: 00 00        	<unknown>
    155e: 22 5a        	<unknown>
    1560: 0d 00        	<unknown>
    1562: 00 08        	<unknown>
    1564: 6e 52        	<unknown>
    1566: 12 00        	<unknown>
    1568: 00 01        	<unknown>
    156a: 01 0f        	<unknown>
    156c: 52 12        	<unknown>
    156e: 00 00        	<unknown>
    1570: 0f 76 15 00  	<unknown>
    1574: 00 00        	<unknown>
    1576: 13 52 12 00  	srli	tp, tp, 0x1
    157a: 00 22        	<unknown>
    157c: b4 08        	<unknown>
    157e: 00 00        	<unknown>
    1580: 08 8c        	<unknown>
    1582: 52 12        	<unknown>
    1584: 00 00        	<unknown>
    1586: 01 01        	<unknown>
    1588: 0f 52 12 00  	<unknown>
    158c: 00 0f        	<unknown>
    158e: 52 12        	<unknown>
    1590: 00 00        	<unknown>
    1592: 00 22        	<unknown>
    1594: ed 04        	<unknown>
    1596: 00 00        	<unknown>
    1598: 08 40        	<unknown>
    159a: 52 12        	<unknown>
    159c: 00 00        	<unknown>
    159e: 01 01        	<unknown>
    15a0: 0f 52 12 00  	<unknown>
    15a4: 00 00        	<unknown>
    15a6: 22 fd        	<unknown>
    15a8: 04 00        	<unknown>
    15aa: 00 08        	<unknown>
    15ac: 49 52        	<unknown>
    15ae: 12 00        	<unknown>
    15b0: 00 01        	<unknown>
    15b2: 01 0f        	<unknown>
    15b4: 52 12        	<unknown>
    15b6: 00 00        	<unknown>
    15b8: 00 22        	<unknown>
    15ba: 59 09        	<unknown>
    15bc: 00 00        	<unknown>
    15be: 08 8f        	<unknown>
    15c0: 52 12        	<unknown>
    15c2: 00 00        	<unknown>
    15c4: 01 01        	<unknown>
    15c6: 0f 52 12 00  	<unknown>
    15ca: 00 00        	<unknown>
    15cc: 22 0d        	<unknown>
    15ce: 05 00        	<unknown>
    15d0: 00 08        	<unknown>
    15d2: 42 52        	<unknown>
    15d4: 12 00        	<unknown>
    15d6: 00 01        	<unknown>
    15d8: 01 0f        	<unknown>
    15da: 52 12        	<unknown>
    15dc: 00 00        	<unknown>
    15de: 00 22        	<unknown>
    15e0: 2f 05 00 00  	<unknown>
    15e4: 08 4b        	<unknown>
    15e6: 52 12        	<unknown>
    15e8: 00 00        	<unknown>
    15ea: 01 01        	<unknown>
    15ec: 0f 52 12 00  	<unknown>
    15f0: 00 00        	<unknown>
    15f2: 10 52        	<unknown>
    15f4: 12 00        	<unknown>
    15f6: 00 95        	<unknown>
    15f8: 09 00        	<unknown>
    15fa: 00 0a        	<unknown>
    15fc: 96 10        	<unknown>
    15fe: 3d 00        	<unknown>
    1600: 00 00        	<unknown>
    1602: 9e 09        	<unknown>
    1604: 00 00        	<unknown>
    1606: 0a 95        	<unknown>
    1608: 22 dc        	<unknown>
    160a: 04 00        	<unknown>
    160c: 00 08        	<unknown>
    160e: 55 52        	<unknown>
    1610: 12 00        	<unknown>
    1612: 00 01        	<unknown>
    1614: 01 0f        	<unknown>
    1616: 52 12        	<unknown>
    1618: 00 00        	<unknown>
    161a: 00 22        	<unknown>
    161c: d5 04        	<unknown>
    161e: 00 00        	<unknown>
    1620: 08 55        	<unknown>
    1622: 3d 00        	<unknown>
    1624: 00 00        	<unknown>
    1626: 01 01        	<unknown>
    1628: 0f 3d 00 00  	<unknown>
    162c: 00 00        	<unknown>
    162e: 22 a6        	<unknown>
    1630: 09 00        	<unknown>
    1632: 00 08        	<unknown>
    1634: 55 41        	<unknown>
    1636: 16 00        	<unknown>
    1638: 00 01        	<unknown>
    163a: 01 0f        	<unknown>
    163c: 41 16        	<unknown>
    163e: 00 00        	<unknown>
    1640: 00 06        	<unknown>
    1642: ad 09        	<unknown>
    1644: 00 00        	<unknown>
    1646: 04 08        	<unknown>
    1648: 22 fc        	<unknown>
    164a: 04 00        	<unknown>
    164c: 00 08        	<unknown>
    164e: 57 52 12 00  	<unknown>
    1652: 00 01        	<unknown>
    1654: 01 0f        	<unknown>
    1656: 52 12        	<unknown>
    1658: 00 00        	<unknown>
    165a: 00 22        	<unknown>
    165c: f5 04        	<unknown>
    165e: 00 00        	<unknown>
    1660: 08 57        	<unknown>
    1662: 3d 00        	<unknown>
    1664: 00 00        	<unknown>
    1666: 01 01        	<unknown>
    1668: 0f 3d 00 00  	<unknown>
    166c: 00 00        	<unknown>
    166e: 22 b9        	<unknown>
    1670: 09 00        	<unknown>
    1672: 00 08        	<unknown>
    1674: 57 41 16 00  	<unknown>
    1678: 00 01        	<unknown>
    167a: 01 0f        	<unknown>
    167c: 41 16        	<unknown>
    167e: 00 00        	<unknown>
    1680: 00 22        	<unknown>
    1682: 2e 05        	<unknown>
    1684: 00 00        	<unknown>
    1686: 08 59        	<unknown>
    1688: 52 12        	<unknown>
    168a: 00 00        	<unknown>
    168c: 01 01        	<unknown>
    168e: 0f 52 12 00  	<unknown>
    1692: 00 00        	<unknown>
    1694: 22 27        	<unknown>
    1696: 05 00        	<unknown>
    1698: 00 08        	<unknown>
    169a: 59 3d        	<unknown>
    169c: 00 00        	<unknown>
    169e: 00 01        	<unknown>
    16a0: 01 0f        	<unknown>
    16a2: 3d 00        	<unknown>
    16a4: 00 00        	<unknown>
    16a6: 00 22        	<unknown>
    16a8: c0 09        	<unknown>
    16aa: 00 00        	<unknown>
    16ac: 08 59        	<unknown>
    16ae: 41 16        	<unknown>
    16b0: 00 00        	<unknown>
    16b2: 01 01        	<unknown>
    16b4: 0f 41 16 00  	<unknown>
    16b8: 00 00        	<unknown>
    16ba: 22 3e        	<unknown>
    16bc: 05 00        	<unknown>
    16be: 00 08        	<unknown>
    16c0: 98 52        	<unknown>
    16c2: 12 00        	<unknown>
    16c4: 00 01        	<unknown>
    16c6: 01 0f        	<unknown>
    16c8: 52 12        	<unknown>
    16ca: 00 00        	<unknown>
    16cc: 00 22        	<unknown>
    16ce: 38 05        	<unknown>
    16d0: 00 00        	<unknown>
    16d2: 08 98        	<unknown>
    16d4: 3d 00        	<unknown>
    16d6: 00 00        	<unknown>
    16d8: 01 01        	<unknown>
    16da: 0f 3d 00 00  	<unknown>
    16de: 00 00        	<unknown>
    16e0: 22 c7        	<unknown>
    16e2: 09 00        	<unknown>
    16e4: 00 08        	<unknown>
    16e6: 98 41        	<unknown>
    16e8: 16 00        	<unknown>
    16ea: 00 01        	<unknown>
    16ec: 01 0f        	<unknown>
    16ee: 41 16        	<unknown>
    16f0: 00 00        	<unknown>
    16f2: 00 22        	<unknown>
    16f4: 61 05        	<unknown>
    16f6: 00 00        	<unknown>
    16f8: 08 c4        	<unknown>
    16fa: 52 12        	<unknown>
    16fc: 00 00        	<unknown>
    16fe: 01 01        	<unknown>
    1700: 0f 52 12 00  	<unknown>
    1704: 00 0f        	<unknown>
    1706: 52 12        	<unknown>
    1708: 00 00        	<unknown>
    170a: 00 22        	<unknown>
    170c: cd 09        	<unknown>
    170e: 00 00        	<unknown>
    1710: 08 c4        	<unknown>
    1712: 3d 00        	<unknown>
    1714: 00 00        	<unknown>
    1716: 01 01        	<unknown>
    1718: 0f 3d 00 00  	<unknown>
    171c: 00 0f        	<unknown>
    171e: 3d 00        	<unknown>
    1720: 00 00        	<unknown>
    1722: 00 22        	<unknown>
    1724: d7 09 00 00  	<unknown>
    1728: 08 c4        	<unknown>
    172a: 41 16        	<unknown>
    172c: 00 00        	<unknown>
    172e: 01 01        	<unknown>
    1730: 0f 41 16 00  	<unknown>
    1734: 00 0f        	<unknown>
    1736: 41 16        	<unknown>
    1738: 00 00        	<unknown>
    173a: 00 22        	<unknown>
    173c: b2 0a        	<unknown>
    173e: 00 00        	<unknown>
    1740: 08 e4        	<unknown>
    1742: 52 12        	<unknown>
    1744: 00 00        	<unknown>
    1746: 01 01        	<unknown>
    1748: 0f 52 12 00  	<unknown>
    174c: 00 00        	<unknown>
    174e: 22 81        	<unknown>
    1750: 05 00        	<unknown>
    1752: 00 08        	<unknown>
    1754: e4 3d        	<unknown>
    1756: 00 00        	<unknown>
    1758: 00 01        	<unknown>
    175a: 01 0f        	<unknown>
    175c: 3d 00        	<unknown>
    175e: 00 00        	<unknown>
    1760: 00 22        	<unknown>
    1762: e1 09        	<unknown>
    1764: 00 00        	<unknown>
    1766: 08 e4        	<unknown>
    1768: 41 16        	<unknown>
    176a: 00 00        	<unknown>
    176c: 01 01        	<unknown>
    176e: 0f 41 16 00  	<unknown>
    1772: 00 00        	<unknown>
    1774: 22 90        	<unknown>
    1776: 05 00        	<unknown>
    1778: 00 08        	<unknown>
    177a: e5 52        	<unknown>
    177c: 12 00        	<unknown>
    177e: 00 01        	<unknown>
    1780: 01 0f        	<unknown>
    1782: 52 12        	<unknown>
    1784: 00 00        	<unknown>
    1786: 00 22        	<unknown>
    1788: 8a 05        	<unknown>
    178a: 00 00        	<unknown>
    178c: 08 e5        	<unknown>
    178e: 3d 00        	<unknown>
    1790: 00 00        	<unknown>
    1792: 01 01        	<unknown>
    1794: 0f 3d 00 00  	<unknown>
    1798: 00 00        	<unknown>
    179a: 22 e6        	<unknown>
    179c: 09 00        	<unknown>
    179e: 00 08        	<unknown>
    17a0: e5 41        	<unknown>
    17a2: 16 00        	<unknown>
    17a4: 00 01        	<unknown>
    17a6: 01 0f        	<unknown>
    17a8: 41 16        	<unknown>
    17aa: 00 00        	<unknown>
    17ac: 00 22        	<unknown>
    17ae: a8 05        	<unknown>
    17b0: 00 00        	<unknown>
    17b2: 08 82        	<unknown>
    17b4: 52 12        	<unknown>
    17b6: 00 00        	<unknown>
    17b8: 01 01        	<unknown>
    17ba: 0f 52 12 00  	<unknown>
    17be: 00 00        	<unknown>
    17c0: 22 a2        	<unknown>
    17c2: 05 00        	<unknown>
    17c4: 00 08        	<unknown>
    17c6: 82 3d        	<unknown>
    17c8: 00 00        	<unknown>
    17ca: 00 01        	<unknown>
    17cc: 01 0f        	<unknown>
    17ce: 3d 00        	<unknown>
    17d0: 00 00        	<unknown>
    17d2: 00 22        	<unknown>
    17d4: ec 09        	<unknown>
    17d6: 00 00        	<unknown>
    17d8: 08 82        	<unknown>
    17da: 41 16        	<unknown>
    17dc: 00 00        	<unknown>
    17de: 01 01        	<unknown>
    17e0: 0f 41 16 00  	<unknown>
    17e4: 00 00        	<unknown>
    17e6: 22 b8        	<unknown>
    17e8: 05 00        	<unknown>
    17ea: 00 08        	<unknown>
    17ec: 77 52 12 00  	<unknown>
    17f0: 00 01        	<unknown>
    17f2: 01 0f        	<unknown>
    17f4: 52 12        	<unknown>
    17f6: 00 00        	<unknown>
    17f8: 00 22        	<unknown>
    17fa: b1 05        	<unknown>
    17fc: 00 00        	<unknown>
    17fe: 08 77        	<unknown>
    1800: 3d 00        	<unknown>
    1802: 00 00        	<unknown>
    1804: 01 01        	<unknown>
    1806: 0f 3d 00 00  	<unknown>
    180a: 00 00        	<unknown>
    180c: 22 f2        	<unknown>
    180e: 09 00        	<unknown>
    1810: 00 08        	<unknown>
    1812: 77 41 16 00  	<unknown>
    1816: 00 01        	<unknown>
    1818: 01 0f        	<unknown>
    181a: 41 16        	<unknown>
    181c: 00 00        	<unknown>
    181e: 00 21        	<unknown>
    1820: d8 05        	<unknown>
    1822: 00 00        	<unknown>
    1824: 08 46        	<unknown>
    1826: 01 52        	<unknown>
    1828: 12 00        	<unknown>
    182a: 00 01        	<unknown>
    182c: 01 0f        	<unknown>
    182e: 52 12        	<unknown>
    1830: 00 00        	<unknown>
    1832: 0f 52 12 00  	<unknown>
    1836: 00 00        	<unknown>
    1838: 21 f9        	<unknown>
    183a: 09 00        	<unknown>
    183c: 00 08        	<unknown>
    183e: 46 01        	<unknown>
    1840: 3d 00        	<unknown>
    1842: 00 00        	<unknown>
    1844: 01 01        	<unknown>
    1846: 0f 3d 00 00  	<unknown>
    184a: 00 0f        	<unknown>
    184c: 3d 00        	<unknown>
    184e: 00 00        	<unknown>
    1850: 00 21        	<unknown>
    1852: ff 09 00 00  	<unknown>
    1856: 08 46        	<unknown>
    1858: 01 41        	<unknown>
    185a: 16 00        	<unknown>
    185c: 00 01        	<unknown>
    185e: 01 0f        	<unknown>
    1860: 41 16        	<unknown>
    1862: 00 00        	<unknown>
    1864: 0f 41 16 00  	<unknown>
    1868: 00 00        	<unknown>
    186a: 21 f9        	<unknown>
    186c: 05 00        	<unknown>
    186e: 00 08        	<unknown>
    1870: 4f 01 52 12  	fnmadd.d	ft2, ft4, ft5, ft2, rne
    1874: 00 00        	<unknown>
    1876: 01 01        	<unknown>
    1878: 0f 52 12 00  	<unknown>
    187c: 00 0f        	<unknown>
    187e: 52 12        	<unknown>
    1880: 00 00        	<unknown>
    1882: 0f 52 12 00  	<unknown>
    1886: 00 00        	<unknown>
    1888: 21 05        	<unknown>
    188a: 0a 00        	<unknown>
    188c: 00 08        	<unknown>
    188e: 4f 01 3d 00  	fnmadd.s	ft2, fs10, ft3, ft0, rne
    1892: 00 00        	<unknown>
    1894: 01 01        	<unknown>
    1896: 0f 3d 00 00  	<unknown>
    189a: 00 0f        	<unknown>
    189c: 3d 00        	<unknown>
    189e: 00 00        	<unknown>
    18a0: 0f 3d 00 00  	<unknown>
    18a4: 00 00        	<unknown>
    18a6: 21 0a        	<unknown>
    18a8: 0a 00        	<unknown>
    18aa: 00 08        	<unknown>
    18ac: 4f 01 41 16  	<unknown>
    18b0: 00 00        	<unknown>
    18b2: 01 01        	<unknown>
    18b4: 0f 41 16 00  	<unknown>
    18b8: 00 0f        	<unknown>
    18ba: 41 16        	<unknown>
    18bc: 00 00        	<unknown>
    18be: 0f 41 16 00  	<unknown>
    18c2: 00 00        	<unknown>
    18c4: 21 08        	<unknown>
    18c6: 06 00        	<unknown>
    18c8: 00 08        	<unknown>
    18ca: 49 01        	<unknown>
    18cc: 52 12        	<unknown>
    18ce: 00 00        	<unknown>
    18d0: 01 01        	<unknown>
    18d2: 0f 52 12 00  	<unknown>
    18d6: 00 0f        	<unknown>
    18d8: 52 12        	<unknown>
    18da: 00 00        	<unknown>
    18dc: 00 21        	<unknown>
    18de: 0f 0a 00 00  	<unknown>
    18e2: 08 49        	<unknown>
    18e4: 01 3d        	<unknown>
    18e6: 00 00        	<unknown>
    18e8: 00 01        	<unknown>
    18ea: 01 0f        	<unknown>
    18ec: 3d 00        	<unknown>
    18ee: 00 00        	<unknown>
    18f0: 0f 3d 00 00  	<unknown>
    18f4: 00 00        	<unknown>
    18f6: 21 15        	<unknown>
    18f8: 0a 00        	<unknown>
    18fa: 00 08        	<unknown>
    18fc: 49 01        	<unknown>
    18fe: 41 16        	<unknown>
    1900: 00 00        	<unknown>
    1902: 01 01        	<unknown>
    1904: 0f 41 16 00  	<unknown>
    1908: 00 0f        	<unknown>
    190a: 41 16        	<unknown>
    190c: 00 00        	<unknown>
    190e: 00 21        	<unknown>
    1910: 18 06        	<unknown>
    1912: 00 00        	<unknown>
    1914: 08 4c        	<unknown>
    1916: 01 52        	<unknown>
    1918: 12 00        	<unknown>
    191a: 00 01        	<unknown>
    191c: 01 0f        	<unknown>
    191e: 52 12        	<unknown>
    1920: 00 00        	<unknown>
    1922: 0f 52 12 00  	<unknown>
    1926: 00 00        	<unknown>
    1928: 21 1b        	<unknown>
    192a: 0a 00        	<unknown>
    192c: 00 08        	<unknown>
    192e: 4c 01        	<unknown>
    1930: 3d 00        	<unknown>
    1932: 00 00        	<unknown>
    1934: 01 01        	<unknown>
    1936: 0f 3d 00 00  	<unknown>
    193a: 00 0f        	<unknown>
    193c: 3d 00        	<unknown>
    193e: 00 00        	<unknown>
    1940: 00 21        	<unknown>
    1942: 21 0a        	<unknown>
    1944: 00 00        	<unknown>
    1946: 08 4c        	<unknown>
    1948: 01 41        	<unknown>
    194a: 16 00        	<unknown>
    194c: 00 01        	<unknown>
    194e: 01 0f        	<unknown>
    1950: 41 16        	<unknown>
    1952: 00 00        	<unknown>
    1954: 0f 41 16 00  	<unknown>
    1958: 00 00        	<unknown>
    195a: 22 68        	<unknown>
    195c: 06 00        	<unknown>
    195e: 00 08        	<unknown>
    1960: 93 52 12 00  	srli	t0, tp, 0x1
    1964: 00 01        	<unknown>
    1966: 01 0f        	<unknown>
    1968: 52 12        	<unknown>
    196a: 00 00        	<unknown>
    196c: 0f 52 12 00  	<unknown>
    1970: 00 00        	<unknown>
    1972: 22 27        	<unknown>
    1974: 0a 00        	<unknown>
    1976: 00 08        	<unknown>
    1978: 93 3d 00 00  	sltiu	s11, zero, 0x0
    197c: 00 01        	<unknown>
    197e: 01 0f        	<unknown>
    1980: 3d 00        	<unknown>
    1982: 00 00        	<unknown>
    1984: 0f 3d 00 00  	<unknown>
    1988: 00 00        	<unknown>
    198a: 22 2e        	<unknown>
    198c: 0a 00        	<unknown>
    198e: 00 08        	<unknown>
    1990: 93 41 16 00  	xori	gp, a2, 0x1
    1994: 00 01        	<unknown>
    1996: 01 0f        	<unknown>
    1998: 41 16        	<unknown>
    199a: 00 00        	<unknown>
    199c: 0f 41 16 00  	<unknown>
    19a0: 00 00        	<unknown>
    19a2: 21 79        	<unknown>
    19a4: 06 00        	<unknown>
    19a6: 00 08        	<unknown>
    19a8: 18 01        	<unknown>
    19aa: 44 0d        	<unknown>
    19ac: 00 00        	<unknown>
    19ae: 01 01        	<unknown>
    19b0: 0f 52 12 00  	<unknown>
    19b4: 00 00        	<unknown>
    19b6: 21 72        	<unknown>
    19b8: 06 00        	<unknown>
    19ba: 00 08        	<unknown>
    19bc: 18 01        	<unknown>
    19be: 44 0d        	<unknown>
    19c0: 00 00        	<unknown>
    19c2: 01 01        	<unknown>
    19c4: 0f 3d 00 00  	<unknown>
    19c8: 00 00        	<unknown>
    19ca: 21 35        	<unknown>
    19cc: 0a 00        	<unknown>
    19ce: 00 08        	<unknown>
    19d0: 18 01        	<unknown>
    19d2: 44 0d        	<unknown>
    19d4: 00 00        	<unknown>
    19d6: 01 01        	<unknown>
    19d8: 0f 41 16 00  	<unknown>
    19dc: 00 00        	<unknown>
    19de: 22 b0        	<unknown>
    19e0: 07 00 00 08  	<unknown>
    19e4: e6 52        	<unknown>
    19e6: 12 00        	<unknown>
    19e8: 00 01        	<unknown>
    19ea: 01 0f        	<unknown>
    19ec: 52 12        	<unknown>
    19ee: 00 00        	<unknown>
    19f0: 00 22        	<unknown>
    19f2: a8 07        	<unknown>
    19f4: 00 00        	<unknown>
    19f6: 08 e6        	<unknown>
    19f8: 3d 00        	<unknown>
    19fa: 00 00        	<unknown>
    19fc: 01 01        	<unknown>
    19fe: 0f 3d 00 00  	<unknown>
    1a02: 00 00        	<unknown>
    1a04: 22 3c        	<unknown>
    1a06: 0a 00        	<unknown>
    1a08: 00 08        	<unknown>
    1a0a: e6 41        	<unknown>
    1a0c: 16 00        	<unknown>
    1a0e: 00 01        	<unknown>
    1a10: 01 0f        	<unknown>
    1a12: 41 16        	<unknown>
    1a14: 00 00        	<unknown>
    1a16: 00 21        	<unknown>
    1a18: d4 07        	<unknown>
    1a1a: 00 00        	<unknown>
    1a1c: 08 3c        	<unknown>
    1a1e: 01 4f        	<unknown>
    1a20: 11 00        	<unknown>
    1a22: 00 01        	<unknown>
    1a24: 01 0f        	<unknown>
    1a26: 52 12        	<unknown>
    1a28: 00 00        	<unknown>
    1a2a: 00 21        	<unknown>
    1a2c: cc 07        	<unknown>
    1a2e: 00 00        	<unknown>
    1a30: 08 3c        	<unknown>
    1a32: 01 4f        	<unknown>
    1a34: 11 00        	<unknown>
    1a36: 00 01        	<unknown>
    1a38: 01 0f        	<unknown>
    1a3a: 3d 00        	<unknown>
    1a3c: 00 00        	<unknown>
    1a3e: 00 21        	<unknown>
    1a40: 44 0a        	<unknown>
    1a42: 00 00        	<unknown>
    1a44: 08 3c        	<unknown>
    1a46: 01 4f        	<unknown>
    1a48: 11 00        	<unknown>
    1a4a: 00 01        	<unknown>
    1a4c: 01 0f        	<unknown>
    1a4e: 41 16        	<unknown>
    1a50: 00 00        	<unknown>
    1a52: 00 21        	<unknown>
    1a54: 47 08 00 00  	fmsub.s	fa6, ft0, ft0, ft0, rne
    1a58: 08 42        	<unknown>
    1a5a: 01 4f        	<unknown>
    1a5c: 11 00        	<unknown>
    1a5e: 00 01        	<unknown>
    1a60: 01 0f        	<unknown>
    1a62: 52 12        	<unknown>
    1a64: 00 00        	<unknown>
    1a66: 00 21        	<unknown>
    1a68: 3e 08        	<unknown>
    1a6a: 00 00        	<unknown>
    1a6c: 08 42        	<unknown>
    1a6e: 01 4f        	<unknown>
    1a70: 11 00        	<unknown>
    1a72: 00 01        	<unknown>
    1a74: 01 0f        	<unknown>
    1a76: 3d 00        	<unknown>
    1a78: 00 00        	<unknown>
    1a7a: 00 21        	<unknown>
    1a7c: 4c 0a        	<unknown>
    1a7e: 00 00        	<unknown>
    1a80: 08 42        	<unknown>
    1a82: 01 4f        	<unknown>
    1a84: 11 00        	<unknown>
    1a86: 00 01        	<unknown>
    1a88: 01 0f        	<unknown>
    1a8a: 41 16        	<unknown>
    1a8c: 00 00        	<unknown>
    1a8e: 00 22        	<unknown>
    1a90: 04 08        	<unknown>
    1a92: 00 00        	<unknown>
    1a94: 08 7a        	<unknown>
    1a96: 52 12        	<unknown>
    1a98: 00 00        	<unknown>
    1a9a: 01 01        	<unknown>
    1a9c: 0f 52 12 00  	<unknown>
    1aa0: 00 00        	<unknown>
    1aa2: 22 fd        	<unknown>
    1aa4: 07 00 00 08  	<unknown>
    1aa8: 7a 3d        	<unknown>
    1aaa: 00 00        	<unknown>
    1aac: 00 01        	<unknown>
    1aae: 01 0f        	<unknown>
    1ab0: 3d 00        	<unknown>
    1ab2: 00 00        	<unknown>
    1ab4: 00 22        	<unknown>
    1ab6: 55 0a        	<unknown>
    1ab8: 00 00        	<unknown>
    1aba: 08 7a        	<unknown>
    1abc: 41 16        	<unknown>
    1abe: 00 00        	<unknown>
    1ac0: 01 01        	<unknown>
    1ac2: 0f 41 16 00  	<unknown>
    1ac6: 00 00        	<unknown>
    1ac8: 22 14        	<unknown>
    1aca: 08 00        	<unknown>
    1acc: 00 08        	<unknown>
    1ace: 85 52        	<unknown>
    1ad0: 12 00        	<unknown>
    1ad2: 00 01        	<unknown>
    1ad4: 01 0f        	<unknown>
    1ad6: 52 12        	<unknown>
    1ad8: 00 00        	<unknown>
    1ada: 00 22        	<unknown>
    1adc: 0e 08        	<unknown>
    1ade: 00 00        	<unknown>
    1ae0: 08 85        	<unknown>
    1ae2: 3d 00        	<unknown>
    1ae4: 00 00        	<unknown>
    1ae6: 01 01        	<unknown>
    1ae8: 0f 3d 00 00  	<unknown>
    1aec: 00 00        	<unknown>
    1aee: 22 5c        	<unknown>
    1af0: 0a 00        	<unknown>
    1af2: 00 08        	<unknown>
    1af4: 85 41        	<unknown>
    1af6: 16 00        	<unknown>
    1af8: 00 01        	<unknown>
    1afa: 01 0f        	<unknown>
    1afc: 41 16        	<unknown>
    1afe: 00 00        	<unknown>
    1b00: 00 22        	<unknown>
    1b02: 7a 06        	<unknown>
    1b04: 00 00        	<unknown>
    1b06: 08 7d        	<unknown>
    1b08: 52 12        	<unknown>
    1b0a: 00 00        	<unknown>
    1b0c: 01 01        	<unknown>
    1b0e: 0f 52 12 00  	<unknown>
    1b12: 00 00        	<unknown>
    1b14: 22 1d        	<unknown>
    1b16: 08 00        	<unknown>
    1b18: 00 08        	<unknown>
    1b1a: 7d 3d        	<unknown>
    1b1c: 00 00        	<unknown>
    1b1e: 00 01        	<unknown>
    1b20: 01 0f        	<unknown>
    1b22: 3d 00        	<unknown>
    1b24: 00 00        	<unknown>
    1b26: 00 22        	<unknown>
    1b28: 36 0a        	<unknown>
    1b2a: 00 00        	<unknown>
    1b2c: 08 7d        	<unknown>
    1b2e: 41 16        	<unknown>
    1b30: 00 00        	<unknown>
    1b32: 01 01        	<unknown>
    1b34: 0f 41 16 00  	<unknown>
    1b38: 00 00        	<unknown>
    1b3a: 21 d5        	<unknown>
    1b3c: 07 00 00 08  	<unknown>
    1b40: 3a 01        	<unknown>
    1b42: 01 11        	<unknown>
    1b44: 00 00        	<unknown>
    1b46: 01 01        	<unknown>
    1b48: 0f 52 12 00  	<unknown>
    1b4c: 00 00        	<unknown>
    1b4e: 21 27        	<unknown>
    1b50: 08 00        	<unknown>
    1b52: 00 08        	<unknown>
    1b54: 3a 01        	<unknown>
    1b56: 01 11        	<unknown>
    1b58: 00 00        	<unknown>
    1b5a: 01 01        	<unknown>
    1b5c: 0f 3d 00 00  	<unknown>
    1b60: 00 00        	<unknown>
    1b62: 21 45        	<unknown>
    1b64: 0a 00        	<unknown>
    1b66: 00 08        	<unknown>
    1b68: 3a 01        	<unknown>
    1b6a: 01 11        	<unknown>
    1b6c: 00 00        	<unknown>
    1b6e: 01 01        	<unknown>
    1b70: 0f 41 16 00  	<unknown>
    1b74: 00 00        	<unknown>
    1b76: 21 48        	<unknown>
    1b78: 08 00        	<unknown>
    1b7a: 00 08        	<unknown>
    1b7c: 40 01        	<unknown>
    1b7e: 01 11        	<unknown>
    1b80: 00 00        	<unknown>
    1b82: 01 01        	<unknown>
    1b84: 0f 52 12 00  	<unknown>
    1b88: 00 00        	<unknown>
    1b8a: 21 32        	<unknown>
    1b8c: 08 00        	<unknown>
    1b8e: 00 08        	<unknown>
    1b90: 40 01        	<unknown>
    1b92: 01 11        	<unknown>
    1b94: 00 00        	<unknown>
    1b96: 01 01        	<unknown>
    1b98: 0f 3d 00 00  	<unknown>
    1b9c: 00 00        	<unknown>
    1b9e: 21 4d        	<unknown>
    1ba0: 0a 00        	<unknown>
    1ba2: 00 08        	<unknown>
    1ba4: 40 01        	<unknown>
    1ba6: 01 11        	<unknown>
    1ba8: 00 00        	<unknown>
    1baa: 01 01        	<unknown>
    1bac: 0f 41 16 00  	<unknown>
    1bb0: 00 00        	<unknown>
    1bb2: 22 4e        	<unknown>
    1bb4: 07 00 00 08  	<unknown>
    1bb8: c9 52        	<unknown>
    1bba: 12 00        	<unknown>
    1bbc: 00 01        	<unknown>
    1bbe: 01 0f        	<unknown>
    1bc0: 59 12        	<unknown>
    1bc2: 00 00        	<unknown>
    1bc4: 00 22        	<unknown>
    1bc6: 47 07 00 00  	fmsub.s	fa4, ft0, ft0, ft0, rne
    1bca: 08 c9        	<unknown>
    1bcc: 3d 00        	<unknown>
    1bce: 00 00        	<unknown>
    1bd0: 01 01        	<unknown>
    1bd2: 0f 59 12 00  	<unknown>
    1bd6: 00 00        	<unknown>
    1bd8: 22 62        	<unknown>
    1bda: 0a 00        	<unknown>
    1bdc: 00 08        	<unknown>
    1bde: c9 41        	<unknown>
    1be0: 16 00        	<unknown>
    1be2: 00 01        	<unknown>
    1be4: 01 0f        	<unknown>
    1be6: 59 12        	<unknown>
    1be8: 00 00        	<unknown>
    1bea: 00 21        	<unknown>
    1bec: 86 08        	<unknown>
    1bee: 00 00        	<unknown>
    1bf0: 08 26        	<unknown>
    1bf2: 01 52        	<unknown>
    1bf4: 12 00        	<unknown>
    1bf6: 00 01        	<unknown>
    1bf8: 01 0f        	<unknown>
    1bfa: 52 12        	<unknown>
    1bfc: 00 00        	<unknown>
    1bfe: 00 21        	<unknown>
    1c00: 7b 08 00 00  	<unknown>
    1c04: 08 26        	<unknown>
    1c06: 01 3d        	<unknown>
    1c08: 00 00        	<unknown>
    1c0a: 00 01        	<unknown>
    1c0c: 01 0f        	<unknown>
    1c0e: 3d 00        	<unknown>
    1c10: 00 00        	<unknown>
    1c12: 00 21        	<unknown>
    1c14: 67 0a 00 00  	jalr	s4, zero <.debug_info>
    1c18: 08 26        	<unknown>
    1c1a: 01 41        	<unknown>
    1c1c: 16 00        	<unknown>
    1c1e: 00 01        	<unknown>
    1c20: 01 0f        	<unknown>
    1c22: 41 16        	<unknown>
    1c24: 00 00        	<unknown>
    1c26: 00 21        	<unknown>
    1c28: a0 08        	<unknown>
    1c2a: 00 00        	<unknown>
    1c2c: 08 03        	<unknown>
    1c2e: 01 52        	<unknown>
    1c30: 12 00        	<unknown>
    1c32: 00 01        	<unknown>
    1c34: 01 0f        	<unknown>
    1c36: 52 12        	<unknown>
    1c38: 00 00        	<unknown>
    1c3a: 0f 52 12 00  	<unknown>
    1c3e: 00 00        	<unknown>
    1c40: 21 72        	<unknown>
    1c42: 0a 00        	<unknown>
    1c44: 00 08        	<unknown>
    1c46: 03 01 3d 00  	lb	sp, 0x3(s10)
    1c4a: 00 00        	<unknown>
    1c4c: 01 01        	<unknown>
    1c4e: 0f 3d 00 00  	<unknown>
    1c52: 00 0f        	<unknown>
    1c54: 3d 00        	<unknown>
    1c56: 00 00        	<unknown>
    1c58: 00 21        	<unknown>
    1c5a: 7d 0a        	<unknown>
    1c5c: 00 00        	<unknown>
    1c5e: 08 03        	<unknown>
    1c60: 01 41        	<unknown>
    1c62: 16 00        	<unknown>
    1c64: 00 01        	<unknown>
    1c66: 01 0f        	<unknown>
    1c68: 41 16        	<unknown>
    1c6a: 00 00        	<unknown>
    1c6c: 0f 41 16 00  	<unknown>
    1c70: 00 00        	<unknown>
    1c72: 21 88        	<unknown>
    1c74: 0a 00        	<unknown>
    1c76: 00 08        	<unknown>
    1c78: 05 01        	<unknown>
    1c7a: 52 12        	<unknown>
    1c7c: 00 00        	<unknown>
    1c7e: 01 01        	<unknown>
    1c80: 0f 52 12 00  	<unknown>
    1c84: 00 0f        	<unknown>
    1c86: 41 16        	<unknown>
    1c88: 00 00        	<unknown>
    1c8a: 00 21        	<unknown>
    1c8c: 93 0a 00 00  	li	s5, 0x0
    1c90: 08 05        	<unknown>
    1c92: 01 3d        	<unknown>
    1c94: 00 00        	<unknown>
    1c96: 00 01        	<unknown>
    1c98: 01 0f        	<unknown>
    1c9a: 3d 00        	<unknown>
    1c9c: 00 00        	<unknown>
    1c9e: 0f 41 16 00  	<unknown>
    1ca2: 00 00        	<unknown>
    1ca4: 21 9f        	<unknown>
    1ca6: 0a 00        	<unknown>
    1ca8: 00 08        	<unknown>
    1caa: 05 01        	<unknown>
    1cac: 41 16        	<unknown>
    1cae: 00 00        	<unknown>
    1cb0: 01 01        	<unknown>
    1cb2: 0f 41 16 00  	<unknown>
    1cb6: 00 0f        	<unknown>
    1cb8: 41 16        	<unknown>
    1cba: 00 00        	<unknown>
    1cbc: 00 21        	<unknown>
    1cbe: c8 08        	<unknown>
    1cc0: 00 00        	<unknown>
    1cc2: 08 10        	<unknown>
    1cc4: 01 52        	<unknown>
    1cc6: 12 00        	<unknown>
    1cc8: 00 01        	<unknown>
    1cca: 01 0f        	<unknown>
    1ccc: 52 12        	<unknown>
    1cce: 00 00        	<unknown>
    1cd0: 0f 52 12 00  	<unknown>
    1cd4: 00 00        	<unknown>
    1cd6: 21 ab        	<unknown>
    1cd8: 0a 00        	<unknown>
    1cda: 00 08        	<unknown>
    1cdc: 10 01        	<unknown>
    1cde: 3d 00        	<unknown>
    1ce0: 00 00        	<unknown>
    1ce2: 01 01        	<unknown>
    1ce4: 0f 3d 00 00  	<unknown>
    1ce8: 00 0f        	<unknown>
    1cea: 3d 00        	<unknown>
    1cec: 00 00        	<unknown>
    1cee: 00 21        	<unknown>
    1cf0: b6 0a        	<unknown>
    1cf2: 00 00        	<unknown>
    1cf4: 08 10        	<unknown>
    1cf6: 01 41        	<unknown>
    1cf8: 16 00        	<unknown>
    1cfa: 00 01        	<unknown>
    1cfc: 01 0f        	<unknown>
    1cfe: 41 16        	<unknown>
    1d00: 00 00        	<unknown>
    1d02: 0f 41 16 00  	<unknown>
    1d06: 00 00        	<unknown>
    1d08: 21 e1        	<unknown>
    1d0a: 08 00        	<unknown>
    1d0c: 00 08        	<unknown>
    1d0e: 33 01 52 12  	<unknown>
    1d12: 00 00        	<unknown>
    1d14: 01 01        	<unknown>
    1d16: 0f 52 12 00  	<unknown>
    1d1a: 00 0f        	<unknown>
    1d1c: 52 12        	<unknown>
    1d1e: 00 00        	<unknown>
    1d20: 0f b4 0f 00  	<unknown>
    1d24: 00 00        	<unknown>
    1d26: 21 c1        	<unknown>
    1d28: 0a 00        	<unknown>
    1d2a: 00 08        	<unknown>
    1d2c: 33 01 3d 00  	add	sp, s10, gp
    1d30: 00 00        	<unknown>
    1d32: 01 01        	<unknown>
    1d34: 0f 3d 00 00  	<unknown>
    1d38: 00 0f        	<unknown>
    1d3a: 3d 00        	<unknown>
    1d3c: 00 00        	<unknown>
    1d3e: 0f b4 0f 00  	<unknown>
    1d42: 00 00        	<unknown>
    1d44: 21 c9        	<unknown>
    1d46: 0a 00        	<unknown>
    1d48: 00 08        	<unknown>
    1d4a: 33 01 41 16  	<unknown>
    1d4e: 00 00        	<unknown>
    1d50: 01 01        	<unknown>
    1d52: 0f 41 16 00  	<unknown>
    1d56: 00 0f        	<unknown>
    1d58: 41 16        	<unknown>
    1d5a: 00 00        	<unknown>
    1d5c: 0f b4 0f 00  	<unknown>
    1d60: 00 00        	<unknown>
    1d62: 21 d6        	<unknown>
    1d64: 07 00 00 08  	<unknown>
    1d68: 00 01        	<unknown>
    1d6a: 52 12        	<unknown>
    1d6c: 00 00        	<unknown>
    1d6e: 01 01        	<unknown>
    1d70: 0f 52 12 00  	<unknown>
    1d74: 00 00        	<unknown>
    1d76: 21 ec        	<unknown>
    1d78: 08 00        	<unknown>
    1d7a: 00 08        	<unknown>
    1d7c: 00 01        	<unknown>
    1d7e: 3d 00        	<unknown>
    1d80: 00 00        	<unknown>
    1d82: 01 01        	<unknown>
    1d84: 0f 3d 00 00  	<unknown>
    1d88: 00 00        	<unknown>
    1d8a: 21 46        	<unknown>
    1d8c: 0a 00        	<unknown>
    1d8e: 00 08        	<unknown>
    1d90: 00 01        	<unknown>
    1d92: 41 16        	<unknown>
    1d94: 00 00        	<unknown>
    1d96: 01 01        	<unknown>
    1d98: 0f 41 16 00  	<unknown>
    1d9c: 00 00        	<unknown>
    1d9e: 21 49        	<unknown>
    1da0: 08 00        	<unknown>
    1da2: 00 08        	<unknown>
    1da4: 2a 01        	<unknown>
    1da6: 52 12        	<unknown>
    1da8: 00 00        	<unknown>
    1daa: 01 01        	<unknown>
    1dac: 0f 52 12 00  	<unknown>
    1db0: 00 00        	<unknown>
    1db2: 21 f6        	<unknown>
    1db4: 08 00        	<unknown>
    1db6: 00 08        	<unknown>
    1db8: 2a 01        	<unknown>
    1dba: 3d 00        	<unknown>
    1dbc: 00 00        	<unknown>
    1dbe: 01 01        	<unknown>
    1dc0: 0f 3d 00 00  	<unknown>
    1dc4: 00 00        	<unknown>
    1dc6: 21 4e        	<unknown>
    1dc8: 0a 00        	<unknown>
    1dca: 00 08        	<unknown>
    1dcc: 2a 01        	<unknown>
    1dce: 41 16        	<unknown>
    1dd0: 00 00        	<unknown>
    1dd2: 01 01        	<unknown>
    1dd4: 0f 41 16 00  	<unknown>
    1dd8: 00 00        	<unknown>
    1dda: 21 0b        	<unknown>
    1ddc: 09 00        	<unknown>
    1dde: 00 08        	<unknown>
    1de0: 22 01        	<unknown>
    1de2: 52 12        	<unknown>
    1de4: 00 00        	<unknown>
    1de6: 01 01        	<unknown>
    1de8: 0f 52 12 00  	<unknown>
    1dec: 00 0f        	<unknown>
    1dee: 01 11        	<unknown>
    1df0: 00 00        	<unknown>
    1df2: 00 21        	<unknown>
    1df4: d1 0a        	<unknown>
    1df6: 00 00        	<unknown>
    1df8: 08 22        	<unknown>
    1dfa: 01 3d        	<unknown>
    1dfc: 00 00        	<unknown>
    1dfe: 00 01        	<unknown>
    1e00: 01 0f        	<unknown>
    1e02: 3d 00        	<unknown>
    1e04: 00 00        	<unknown>
    1e06: 0f 01 11 00  	<unknown>
    1e0a: 00 00        	<unknown>
    1e0c: 21 da        	<unknown>
    1e0e: 0a 00        	<unknown>
    1e10: 00 08        	<unknown>
    1e12: 22 01        	<unknown>
    1e14: 41 16        	<unknown>
    1e16: 00 00        	<unknown>
    1e18: 01 01        	<unknown>
    1e1a: 0f 41 16 00  	<unknown>
    1e1e: 00 0f        	<unknown>
    1e20: 01 11        	<unknown>
    1e22: 00 00        	<unknown>
    1e24: 00 21        	<unknown>
    1e26: 20 09        	<unknown>
    1e28: 00 00        	<unknown>
    1e2a: 08 14        	<unknown>
    1e2c: 01 52        	<unknown>
    1e2e: 12 00        	<unknown>
    1e30: 00 01        	<unknown>
    1e32: 01 0f        	<unknown>
    1e34: 52 12        	<unknown>
    1e36: 00 00        	<unknown>
    1e38: 0f 44 0d 00  	<unknown>
    1e3c: 00 00        	<unknown>
    1e3e: 21 e3        	<unknown>
    1e40: 0a 00        	<unknown>
    1e42: 00 08        	<unknown>
    1e44: 14 01        	<unknown>
    1e46: 3d 00        	<unknown>
    1e48: 00 00        	<unknown>
    1e4a: 01 01        	<unknown>
    1e4c: 0f 3d 00 00  	<unknown>
    1e50: 00 0f        	<unknown>
    1e52: 44 0d        	<unknown>
    1e54: 00 00        	<unknown>
    1e56: 00 21        	<unknown>
    1e58: eb 0a 00 00  	<unknown>
    1e5c: 08 14        	<unknown>
    1e5e: 01 41        	<unknown>
    1e60: 16 00        	<unknown>
    1e62: 00 01        	<unknown>
    1e64: 01 0f        	<unknown>
    1e66: 41 16        	<unknown>
    1e68: 00 00        	<unknown>
    1e6a: 0f 44 0d 00  	<unknown>
    1e6e: 00 00        	<unknown>
    1e70: 22 7d        	<unknown>
    1e72: 09 00        	<unknown>
    1e74: 00 08        	<unknown>
    1e76: eb 52 12 00  	<unknown>
    1e7a: 00 01        	<unknown>
    1e7c: 01 0f        	<unknown>
    1e7e: 52 12        	<unknown>
    1e80: 00 00        	<unknown>
    1e82: 00 22        	<unknown>
    1e84: 75 09        	<unknown>
    1e86: 00 00        	<unknown>
    1e88: 08 eb        	<unknown>
    1e8a: 3d 00        	<unknown>
    1e8c: 00 00        	<unknown>
    1e8e: 01 01        	<unknown>
    1e90: 0f 3d 00 00  	<unknown>
    1e94: 00 00        	<unknown>
    1e96: 22 f3        	<unknown>
    1e98: 0a 00        	<unknown>
    1e9a: 00 08        	<unknown>
    1e9c: eb 41 16 00  	<unknown>
    1ea0: 00 01        	<unknown>
    1ea2: 01 0f        	<unknown>
    1ea4: 41 16        	<unknown>
    1ea6: 00 00        	<unknown>
    1ea8: 00 21        	<unknown>
    1eaa: 8f 09 00 00  	<unknown>
    1eae: 08 2e        	<unknown>
    1eb0: 01 52        	<unknown>
    1eb2: 12 00        	<unknown>
    1eb4: 00 01        	<unknown>
    1eb6: 01 0f        	<unknown>
    1eb8: 52 12        	<unknown>
    1eba: 00 00        	<unknown>
    1ebc: 00 21        	<unknown>
    1ebe: 88 09        	<unknown>
    1ec0: 00 00        	<unknown>
    1ec2: 08 2e        	<unknown>
    1ec4: 01 3d        	<unknown>
    1ec6: 00 00        	<unknown>
    1ec8: 00 01        	<unknown>
    1eca: 01 0f        	<unknown>
    1ecc: 3d 00        	<unknown>
    1ece: 00 00        	<unknown>
    1ed0: 00 21        	<unknown>
    1ed2: fb 0a 00 00  	<unknown>
    1ed6: 08 2e        	<unknown>
    1ed8: 01 41        	<unknown>
    1eda: 16 00        	<unknown>
    1edc: 00 01        	<unknown>
    1ede: 01 0f        	<unknown>
    1ee0: 41 16        	<unknown>
    1ee2: 00 00        	<unknown>
    1ee4: 00 10        	<unknown>
    1ee6: f0 1e        	<unknown>
    1ee8: 00 00        	<unknown>
    1eea: e5 0b        	<unknown>
    1eec: 00 00        	<unknown>
    1eee: 06 3e        	<unknown>
    1ef0: 23 01 10 fd  	sb	a7, -0x3e(zero)
    1ef4: 1e 00        	<unknown>
    1ef6: 00 e4        	<unknown>
    1ef8: 0b 00 00 06  	<unknown>
    1efc: 46 24        	<unknown>
    1efe: 05 10        	<unknown>
    1f00: 06 42        	<unknown>
    1f02: 0c 02        	<unknown>
    1f04: 0b 00 00 01  	<unknown>
    1f08: 11 00        	<unknown>
    1f0a: 00 06        	<unknown>
    1f0c: 44 02        	<unknown>
    1f0e: 23 00 0c 07  	sb	a6, 0x60(s8)
    1f12: 0b 00 00 01  	<unknown>
    1f16: 11 00        	<unknown>
    1f18: 00 06        	<unknown>
    1f1a: 45 02        	<unknown>
    1f1c: 23 08 00 25  	sb	a6, 0x250(zero)
    1f20: 0b 0b 00 00  	<unknown>
    1f24: 06 4f        	<unknown>
    1f26: 02 01        	<unknown>
    1f28: 01 01        	<unknown>
    1f2a: 21 11        	<unknown>
    1f2c: 0b 00 00 06  	<unknown>
    1f30: 53 02 44 0d  	<unknown>
    1f34: 00 00        	<unknown>
    1f36: 01 01        	<unknown>
    1f38: 0f 3e 1f 00  	<unknown>
    1f3c: 00 00        	<unknown>
    1f3e: 13 43 1f 00  	xori	t1, t5, 0x1
    1f42: 00 26        	<unknown>
    1f44: 21 18        	<unknown>
    1f46: 0b 00 00 06  	<unknown>
    1f4a: 58 02        	<unknown>
    1f4c: 44 0d        	<unknown>
    1f4e: 00 00        	<unknown>
    1f50: 01 01        	<unknown>
    1f52: 0f 3e 1f 00  	<unknown>
    1f56: 00 00        	<unknown>
    1f58: 22 26        	<unknown>
    1f5a: 0b 00 00 06  	<unknown>
    1f5e: 65 52        	<unknown>
    1f60: 12 00        	<unknown>
    1f62: 00 01        	<unknown>
    1f64: 01 0f        	<unknown>
    1f66: 59 12        	<unknown>
    1f68: 00 00        	<unknown>
    1f6a: 00 22        	<unknown>
    1f6c: 2b 0b 00 00  	vx_tex	s6, zero, zero, zero
    1f70: 06 68        	<unknown>
    1f72: 44 0d        	<unknown>
    1f74: 00 00        	<unknown>
    1f76: 01 01        	<unknown>
    1f78: 0f 59 12 00  	<unknown>
    1f7c: 00 00        	<unknown>
    1f7e: 22 30        	<unknown>
    1f80: 0b 00 00 06  	<unknown>
    1f84: 6b 01 11 00  	<unknown>
    1f88: 00 01        	<unknown>
    1f8a: 01 0f        	<unknown>
    1f8c: 59 12        	<unknown>
    1f8e: 00 00        	<unknown>
    1f90: 00 21        	<unknown>
    1f92: 35 0b        	<unknown>
    1f94: 00 00        	<unknown>
    1f96: 06 34        	<unknown>
    1f98: 03 b9 1f 00  	ld	s2, 0x1(t6)
    1f9c: 00 01        	<unknown>
    1f9e: 01 0f        	<unknown>
    1fa0: ba 1f        	<unknown>
    1fa2: 00 00        	<unknown>
    1fa4: 0f ba 1f 00  	<unknown>
    1fa8: 00 0f        	<unknown>
    1faa: c0 1f        	<unknown>
    1fac: 00 00        	<unknown>
    1fae: 0f c0 1f 00  	<unknown>
    1fb2: 00 0f        	<unknown>
    1fb4: d2 1f        	<unknown>
    1fb6: 00 00        	<unknown>
    1fb8: 00 27        	<unknown>
    1fba: 13 bf 1f 00  	seqz	t5, t6
    1fbe: 00 28        	<unknown>
    1fc0: 10 cb        	<unknown>
    1fc2: 1f 00 00 4b  	<unknown>
    1fc6: 0b 00 00 0c  	<unknown>
    1fca: 12 06        	<unknown>
    1fcc: 3d 0b        	<unknown>
    1fce: 00 00        	<unknown>
    1fd0: 07 08 18 de  	<unknown>
    1fd4: 1f 00 00 52  	<unknown>
    1fd8: 0b 00 00 06  	<unknown>
    1fdc: 28 03        	<unknown>
    1fde: 13 e3 1f 00  	ori	t1, t6, 0x1
    1fe2: 00 29        	<unknown>
    1fe4: 44 0d        	<unknown>
    1fe6: 00 00        	<unknown>
    1fe8: 0f ba 1f 00  	<unknown>
    1fec: 00 0f        	<unknown>
    1fee: ba 1f        	<unknown>
    1ff0: 00 00        	<unknown>
    1ff2: 00 21        	<unknown>
    1ff4: 60 0b        	<unknown>
    1ff6: 00 00        	<unknown>
    1ff8: 06 1e        	<unknown>
    1ffa: 02 b9        	<unknown>
    1ffc: 1f 00 00 01  	<unknown>
    2000: 01 0f        	<unknown>
    2002: c0 1f        	<unknown>
    2004: 00 00        	<unknown>
    2006: 0f c0 1f 00  	<unknown>
    200a: 00 00        	<unknown>
    200c: 21 f3        	<unknown>
    200e: 0b 00 00 06  	<unknown>
    2012: 54 03        	<unknown>
    2014: e5 1e        	<unknown>
    2016: 00 00        	<unknown>
    2018: 01 01        	<unknown>
    201a: 0f 44 0d 00  	<unknown>
    201e: 00 0f        	<unknown>
    2020: 44 0d        	<unknown>
    2022: 00 00        	<unknown>
    2024: 00 2a        	<unknown>
    2026: 21 0b        	<unknown>
    2028: 00 00        	<unknown>
    202a: 06 69        	<unknown>
    202c: 02 01        	<unknown>
    202e: 01 01        	<unknown>
    2030: 0f 44 0d 00  	<unknown>
    2034: 00 00        	<unknown>
    2036: 16 67        	<unknown>
    2038: 0b 00 00 06  	<unknown>
    203c: 35 02        	<unknown>
    203e: 01 01        	<unknown>
    2040: 0f b9 1f 00  	<unknown>
    2044: 00 00        	<unknown>
    2046: 21 6c        	<unknown>
    2048: 0b 00 00 06  	<unknown>
    204c: 7a 02        	<unknown>
    204e: 5a 20        	<unknown>
    2050: 00 00        	<unknown>
    2052: 01 01        	<unknown>
    2054: 0f 59 12 00  	<unknown>
    2058: 00 00        	<unknown>
    205a: 13 63 12 00  	ori	t1, tp, 0x1
    205e: 00 21        	<unknown>
    2060: c3 07 00 00  	fmadd.s	fa5, ft0, ft0, ft0, rne
    2064: 06 49        	<unknown>
    2066: 03 01 11 00  	lb	sp, 0x1(sp)
    206a: 00 01        	<unknown>
    206c: 01 0f        	<unknown>
    206e: 01 11        	<unknown>
    2070: 00 00        	<unknown>
    2072: 00 21        	<unknown>
    2074: f2 0b        	<unknown>
    2076: 00 00        	<unknown>
    2078: 06 56        	<unknown>
    207a: 03 f2 1e 00  	<unknown>
    207e: 00 01        	<unknown>
    2080: 01 0f        	<unknown>
    2082: 01 11        	<unknown>
    2084: 00 00        	<unknown>
    2086: 0f 01 11 00  	<unknown>
    208a: 00 00        	<unknown>
    208c: 21 73        	<unknown>
    208e: 0b 00 00 06  	<unknown>
    2092: 1b 02 b9 1f  	addiw	tp, s2, 0x1fb
    2096: 00 00        	<unknown>
    2098: 01 01        	<unknown>
    209a: 0f c0 1f 00  	<unknown>
    209e: 00 00        	<unknown>
    20a0: 21 7a        	<unknown>
    20a2: 0b 00 00 06  	<unknown>
    20a6: 9a 03        	<unknown>
    20a8: 44 0d        	<unknown>
    20aa: 00 00        	<unknown>
    20ac: 01 01        	<unknown>
    20ae: 0f 59 12 00  	<unknown>
    20b2: 00 0f        	<unknown>
    20b4: c0 1f        	<unknown>
    20b6: 00 00        	<unknown>
    20b8: 00 21        	<unknown>
    20ba: 80 0b        	<unknown>
    20bc: 00 00        	<unknown>
    20be: 06 a5        	<unknown>
    20c0: 03 c0 1f 00  	lbu	zero, 0x1(t6)
    20c4: 00 01        	<unknown>
    20c6: 01 0f        	<unknown>
    20c8: d7 20 00 00  	<unknown>
    20cc: 0f 59 12 00  	<unknown>
    20d0: 00 0f        	<unknown>
    20d2: c0 1f        	<unknown>
    20d4: 00 00        	<unknown>
    20d6: 00 13        	<unknown>
    20d8: dc 20        	<unknown>
    20da: 00 00        	<unknown>
    20dc: 06 89        	<unknown>
    20de: 0b 00 00 05  	<unknown>
    20e2: 04 21        	<unknown>
    20e4: 91 0b        	<unknown>
    20e6: 00 00        	<unknown>
    20e8: 06 9d        	<unknown>
    20ea: 03 44 0d 00  	lbu	s0, 0x0(s10)
    20ee: 00 01        	<unknown>
    20f0: 01 0f        	<unknown>
    20f2: d7 20 00 00  	<unknown>
    20f6: 0f 59 12 00  	<unknown>
    20fa: 00 0f        	<unknown>
    20fc: c0 1f        	<unknown>
    20fe: 00 00        	<unknown>
    2100: 00 16        	<unknown>
    2102: 98 0b        	<unknown>
    2104: 00 00        	<unknown>
    2106: 06 3e        	<unknown>
    2108: 03 01 01 0f  	lb	sp, 0xf0(sp)
    210c: b9 1f        	<unknown>
    210e: 00 00        	<unknown>
    2110: 0f c0 1f 00  	<unknown>
    2114: 00 0f        	<unknown>
    2116: c0 1f        	<unknown>
    2118: 00 00        	<unknown>
    211a: 0f d2 1f 00  	<unknown>
    211e: 00 00        	<unknown>
    2120: 2a 1b        	<unknown>
    2122: 0b 00 00 06  	<unknown>
    2126: 6f 02 01 01  	jal	tp, 0x12136 <.debug_info+0x12136>
    212a: 01 0f        	<unknown>
    212c: 44 0d        	<unknown>
    212e: 00 00        	<unknown>
    2130: 00 2b        	<unknown>
    2132: a7 0b 00 00  	<unknown>
    2136: 06 c5        	<unknown>
    2138: 01 44        	<unknown>
    213a: 0d 00        	<unknown>
    213c: 00 01        	<unknown>
    213e: 01 21        	<unknown>
    2140: 9e 0b        	<unknown>
    2142: 00 00        	<unknown>
    2144: 06 26        	<unknown>
    2146: 02 b9        	<unknown>
    2148: 1f 00 00 01  	<unknown>
    214c: 01 0f        	<unknown>
    214e: b9 1f        	<unknown>
    2150: 00 00        	<unknown>
    2152: 0f c0 1f 00  	<unknown>
    2156: 00 00        	<unknown>
    2158: 16 a6        	<unknown>
    215a: 0b 00 00 06  	<unknown>
    215e: c7 01 01 01  	fmsub.s	ft3, ft2, fa6, ft0, rne
    2162: 0f 16 02 00  	<unknown>
    2166: 00 00        	<unknown>
    2168: 22 ac        	<unknown>
    216a: 0b 00 00 06  	<unknown>
    216e: 75 52        	<unknown>
    2170: 12 00        	<unknown>
    2172: 00 01        	<unknown>
    2174: 01 0f        	<unknown>
    2176: 59 12        	<unknown>
    2178: 00 00        	<unknown>
    217a: 0f 80 21 00  	<unknown>
    217e: 00 00        	<unknown>
    2180: 13 5a 20 00  	srli	s4, zero, 0x2
    2184: 00 22        	<unknown>
    2186: b3 0b 00 00  	add	s7, zero, zero
    218a: 06 b0        	<unknown>
    218c: 01 11        	<unknown>
    218e: 00 00        	<unknown>
    2190: 01 01        	<unknown>
    2192: 0f 59 12 00  	<unknown>
    2196: 00 0f        	<unknown>
    2198: 80 21        	<unknown>
    219a: 00 00        	<unknown>
    219c: 0f 44 0d 00  	<unknown>
    21a0: 00 00        	<unknown>
    21a2: 22 ba        	<unknown>
    21a4: 0b 00 00 06  	<unknown>
    21a8: b4 cb        	<unknown>
    21aa: 1f 00 00 01  	<unknown>
    21ae: 01 0f        	<unknown>
    21b0: 59 12        	<unknown>
    21b2: 00 00        	<unknown>
    21b4: 0f 80 21 00  	<unknown>
    21b8: 00 0f        	<unknown>
    21ba: 44 0d        	<unknown>
    21bc: 00 00        	<unknown>
    21be: 00 21        	<unknown>
    21c0: c2 0b        	<unknown>
    21c2: 00 00        	<unknown>
    21c4: 06 10        	<unknown>
    21c6: 03 44 0d 00  	lbu	s0, 0x0(s10)
    21ca: 00 01        	<unknown>
    21cc: 01 0f        	<unknown>
    21ce: 59 12        	<unknown>
    21d0: 00 00        	<unknown>
    21d2: 00 21        	<unknown>
    21d4: c9 0b        	<unknown>
    21d6: 00 00        	<unknown>
    21d8: 06 a8        	<unknown>
    21da: 03 c0 1f 00  	lbu	zero, 0x1(t6)
    21de: 00 01        	<unknown>
    21e0: 01 0f        	<unknown>
    21e2: 5a 20        	<unknown>
    21e4: 00 00        	<unknown>
    21e6: 0f f1 21 00  	<unknown>
    21ea: 00 0f        	<unknown>
    21ec: c0 1f        	<unknown>
    21ee: 00 00        	<unknown>
    21f0: 00 13        	<unknown>
    21f2: f6 21        	<unknown>
    21f4: 00 00        	<unknown>
    21f6: 19 dc        	<unknown>
    21f8: 20 00        	<unknown>
    21fa: 00 21        	<unknown>
    21fc: d2 0b        	<unknown>
    21fe: 00 00        	<unknown>
    2200: 06 a1        	<unknown>
    2202: 03 44 0d 00  	lbu	s0, 0x0(s10)
    2206: 00 01        	<unknown>
    2208: 01 0f        	<unknown>
    220a: 5a 20        	<unknown>
    220c: 00 00        	<unknown>
    220e: 0f dc 20 00  	<unknown>
    2212: 00 00        	<unknown>
    2214: 08 d9        	<unknown>
    2216: 0b 00 00 12  	<unknown>
    221a: 0b cc 75 22  	<unknown>
    221e: 00 00        	<unknown>
    2220: 12 0b        	<unknown>
    2222: d2 a2        	<unknown>
    2224: 22 00        	<unknown>
    2226: 00 12        	<unknown>
    2228: 0b d6 b3 22  	<unknown>
    222c: 00 00        	<unknown>
    222e: 12 0b        	<unknown>
    2230: dc c7        	<unknown>
    2232: 22 00        	<unknown>
    2234: 00 12        	<unknown>
    2236: 0b e7 e0 22  	<unknown>
    223a: 00 00        	<unknown>
    223c: 12 0b        	<unknown>
    223e: e8 f3        	<unknown>
    2240: 22 00        	<unknown>
    2242: 00 12        	<unknown>
    2244: 0b e9 10 23  	<unknown>
    2248: 00 00        	<unknown>
    224a: 12 0b        	<unknown>
    224c: eb 2d 23 00  	<unknown>
    2250: 00 12        	<unknown>
    2252: 0b ec 45 23  	<unknown>
    2256: 00 00        	<unknown>
    2258: 11 1d        	<unknown>
    225a: 0c 00        	<unknown>
    225c: 00 f3        	<unknown>
    225e: 0b 00 00 0b  	<unknown>
    2262: d9 75        	<unknown>
    2264: 22 00        	<unknown>
    2266: 00 01        	<unknown>
    2268: 01 0f        	<unknown>
    226a: 4f 11 00 00  	fnmadd.s	ft2, ft0, ft0, ft0, rtz
    226e: 0f 4f 11 00  	<unknown>
    2272: 00 00        	<unknown>
    2274: 00 10        	<unknown>
    2276: 80 22        	<unknown>
    2278: 00 00        	<unknown>
    227a: e3 0b 00 00  	beqz	zero, 0x2a90 <.debug_info+0x2a90>
    227e: 06 50        	<unknown>
    2280: 24 05        	<unknown>
    2282: 10 06        	<unknown>
    2284: 4c 0c        	<unknown>
    2286: 02 0b        	<unknown>
    2288: 00 00        	<unknown>
    228a: 4f 11 00 00  	fnmadd.s	ft2, ft0, ft0, ft0, rtz
    228e: 06 4e        	<unknown>
    2290: 02 23        	<unknown>
    2292: 00 0c        	<unknown>
    2294: 07 0b 00 00  	<unknown>
    2298: 4f 11 00 00  	fnmadd.s	ft2, ft0, ft0, ft0, rtz
    229c: 06 4f        	<unknown>
    229e: 02 23        	<unknown>
    22a0: 08 00        	<unknown>
    22a2: 2a eb        	<unknown>
    22a4: 0b 00 00 06  	<unknown>
    22a8: 75 02        	<unknown>
    22aa: 01 01        	<unknown>
    22ac: 01 0f        	<unknown>
    22ae: 44 0d        	<unknown>
    22b0: 00 00        	<unknown>
    22b2: 00 21        	<unknown>
    22b4: c2 07        	<unknown>
    22b6: 00 00        	<unknown>
    22b8: 06 4c        	<unknown>
    22ba: 03 4f 11 00  	lbu	t5, 0x1(sp)
    22be: 00 01        	<unknown>
    22c0: 01 0f        	<unknown>
    22c2: 4f 11 00 00  	fnmadd.s	ft2, ft0, ft0, ft0, rtz
    22c6: 00 21        	<unknown>
    22c8: f1 0b        	<unknown>
    22ca: 00 00        	<unknown>
    22cc: 06 5a        	<unknown>
    22ce: 03 75 22 00  	<unknown>
    22d2: 00 01        	<unknown>
    22d4: 01 0f        	<unknown>
    22d6: 4f 11 00 00  	fnmadd.s	ft2, ft0, ft0, ft0, rtz
    22da: 0f 4f 11 00  	<unknown>
    22de: 00 00        	<unknown>
    22e0: 22 f7        	<unknown>
    22e2: 0b 00 00 06  	<unknown>
    22e6: 70 4f        	<unknown>
    22e8: 11 00        	<unknown>
    22ea: 00 01        	<unknown>
    22ec: 01 0f        	<unknown>
    22ee: 59 12        	<unknown>
    22f0: 00 00        	<unknown>
    22f2: 00 22        	<unknown>
    22f4: fd 0b        	<unknown>
    22f6: 00 00        	<unknown>
    22f8: 06 c8        	<unknown>
    22fa: 4f 11 00 00  	fnmadd.s	ft2, ft0, ft0, ft0, rtz
    22fe: 01 01        	<unknown>
    2300: 0f 59 12 00  	<unknown>
    2304: 00 0f        	<unknown>
    2306: 80 21        	<unknown>
    2308: 00 00        	<unknown>
    230a: 0f 44 0d 00  	<unknown>
    230e: 00 00        	<unknown>
    2310: 22 05        	<unknown>
    2312: 0c 00        	<unknown>
    2314: 00 06        	<unknown>
    2316: cd 83        	<unknown>
    2318: 01 00        	<unknown>
    231a: 00 01        	<unknown>
    231c: 01 0f        	<unknown>
    231e: 59 12        	<unknown>
    2320: 00 00        	<unknown>
    2322: 0f 80 21 00  	<unknown>
    2326: 00 0f        	<unknown>
    2328: 44 0d        	<unknown>
    232a: 00 00        	<unknown>
    232c: 00 22        	<unknown>
    232e: 0e 0c        	<unknown>
    2330: 00 00        	<unknown>
    2332: 06 7b        	<unknown>
    2334: 3d 00        	<unknown>
    2336: 00 00        	<unknown>
    2338: 01 01        	<unknown>
    233a: 0f 59 12 00  	<unknown>
    233e: 00 0f        	<unknown>
    2340: 80 21        	<unknown>
    2342: 00 00        	<unknown>
    2344: 00 22        	<unknown>
    2346: 15 0c        	<unknown>
    2348: 00 00        	<unknown>
    234a: 06 7e        	<unknown>
    234c: 41 16        	<unknown>
    234e: 00 00        	<unknown>
    2350: 01 01        	<unknown>
    2352: 0f 59 12 00  	<unknown>
    2356: 00 0f        	<unknown>
    2358: 80 21        	<unknown>
    235a: 00 00        	<unknown>
    235c: 00 12        	<unknown>
    235e: 0d 26        	<unknown>
    2360: 1f 1f 00 00  	<unknown>
    2364: 12 0d        	<unknown>
    2366: 27 2a 1f 00  	fsw	ft1, 0x14(t5)
    236a: 00 12        	<unknown>
    236c: 0d 28        	<unknown>
    236e: 25 20        	<unknown>
    2370: 00 00        	<unknown>
    2372: 12 0d        	<unknown>
    2374: 2b 44 1f 00  	<unknown>
    2378: 00 12        	<unknown>
    237a: 0d 2e        	<unknown>
    237c: 20 21        	<unknown>
    237e: 00 00        	<unknown>
    2380: 12 0d        	<unknown>
    2382: 31 a2        	<unknown>
    2384: 22 00        	<unknown>
    2386: 00 12        	<unknown>
    2388: 0d 36        	<unknown>
    238a: e5 1e        	<unknown>
    238c: 00 00        	<unknown>
    238e: 12 0d        	<unknown>
    2390: 37 f2 1e 00  	lui	tp, 0x1ef
    2394: 00 12        	<unknown>
    2396: 0d 39        	<unknown>
    2398: 5e 0b        	<unknown>
    239a: 00 00        	<unknown>
    239c: 12 0d        	<unknown>
    239e: 3a 58        	<unknown>
    23a0: 1f 00 00 12  	<unknown>
    23a4: 0d 3b        	<unknown>
    23a6: 6b 1f 00 00  	<unknown>
    23aa: 12 0d        	<unknown>
    23ac: 3c 7e        	<unknown>
    23ae: 1f 00 00 12  	<unknown>
    23b2: 0d 3d        	<unknown>
    23b4: 91 1f        	<unknown>
    23b6: 00 00        	<unknown>
    23b8: 12 0d        	<unknown>
    23ba: 3e f3        	<unknown>
    23bc: 1f 00 00 12  	<unknown>
    23c0: 0d 3f        	<unknown>
    23c2: 58 22        	<unknown>
    23c4: 00 00        	<unknown>
    23c6: 12 0d        	<unknown>
    23c8: 40 36        	<unknown>
    23ca: 20 00        	<unknown>
    23cc: 00 12        	<unknown>
    23ce: 0d 41        	<unknown>
    23d0: 46 20        	<unknown>
    23d2: 00 00        	<unknown>
    23d4: 12 0d        	<unknown>
    23d6: 42 5f        	<unknown>
    23d8: 20 00        	<unknown>
    23da: 00 12        	<unknown>
    23dc: 0d 43        	<unknown>
    23de: 73 20 00 00  	csrr	zero, 0x0
    23e2: 12 0d        	<unknown>
    23e4: 44 8c        	<unknown>
    23e6: 20 00        	<unknown>
    23e8: 00 12        	<unknown>
    23ea: 0d 46        	<unknown>
    23ec: a0 20        	<unknown>
    23ee: 00 00        	<unknown>
    23f0: 12 0d        	<unknown>
    23f2: 47 b9 20 00  	fmsub.s	fs2, ft1, ft2, ft0, rup
    23f6: 00 12        	<unknown>
    23f8: 0d 48        	<unknown>
    23fa: e3 20 00 00  	<unknown>
    23fe: 12 0d        	<unknown>
    2400: 4a 01        	<unknown>
    2402: 21 00        	<unknown>
    2404: 00 12        	<unknown>
    2406: 0d 4b        	<unknown>
    2408: 31 21        	<unknown>
    240a: 00 00        	<unknown>
    240c: 12 0d        	<unknown>
    240e: 4c 3f        	<unknown>
    2410: 21 00        	<unknown>
    2412: 00 12        	<unknown>
    2414: 0d 4d        	<unknown>
    2416: 58 21        	<unknown>
    2418: 00 00        	<unknown>
    241a: 12 0d        	<unknown>
    241c: 4e 68        	<unknown>
    241e: 21 00        	<unknown>
    2420: 00 12        	<unknown>
    2422: 0d 4f        	<unknown>
    2424: 85 21        	<unknown>
    2426: 00 00        	<unknown>
    2428: 12 0d        	<unknown>
    242a: 50 a2        	<unknown>
    242c: 21 00        	<unknown>
    242e: 00 12        	<unknown>
    2430: 0d 51        	<unknown>
    2432: bf 21 00 00  	<unknown>
    2436: 12 0d        	<unknown>
    2438: 53 d3 21 00  	<unknown>
    243c: 00 12        	<unknown>
    243e: 0d 54        	<unknown>
    2440: fb 21 00 00  	<unknown>
    2444: 20 3c        	<unknown>
    2446: 0c 00        	<unknown>
    2448: 00 c6        	<unknown>
    244a: 04 00        	<unknown>
    244c: 00 0e        	<unknown>
    244e: 3b 3d 00 00  	<unknown>
    2452: 00 01        	<unknown>
    2454: 0f 3d 00 00  	<unknown>
    2458: 00 00        	<unknown>
    245a: 20 47        	<unknown>
    245c: 0c 00        	<unknown>
    245e: 00 d5        	<unknown>
    2460: 04 00        	<unknown>
    2462: 00 0e        	<unknown>
    2464: 3d 3d        	<unknown>
    2466: 00 00        	<unknown>
    2468: 00 01        	<unknown>
    246a: 0f 3d 00 00  	<unknown>
    246e: 00 00        	<unknown>
    2470: 20 53        	<unknown>
    2472: 0c 00        	<unknown>
    2474: 00 e6        	<unknown>
    2476: 04 00        	<unknown>
    2478: 00 0e        	<unknown>
    247a: 3f 3d 00 00  	<unknown>
    247e: 00 01        	<unknown>
    2480: 0f 3d 00 00  	<unknown>
    2484: 00 00        	<unknown>
    2486: 20 5e        	<unknown>
    2488: 0c 00        	<unknown>
    248a: 00 f5        	<unknown>
    248c: 04 00        	<unknown>
    248e: 00 0e        	<unknown>
    2490: 41 3d        	<unknown>
    2492: 00 00        	<unknown>
    2494: 00 01        	<unknown>
    2496: 0f 3d 00 00  	<unknown>
    249a: 00 00        	<unknown>
    249c: 20 6a        	<unknown>
    249e: 0c 00        	<unknown>
    24a0: 00 77        	<unknown>
    24a2: 0c 00        	<unknown>
    24a4: 00 0e        	<unknown>
    24a6: 44 3d        	<unknown>
    24a8: 00 00        	<unknown>
    24aa: 00 01        	<unknown>
    24ac: 0f 3d 00 00  	<unknown>
    24b0: 00 0f        	<unknown>
    24b2: 3d 00        	<unknown>
    24b4: 00 00        	<unknown>
    24b6: 00 20        	<unknown>
    24b8: 7e 0c        	<unknown>
    24ba: 00 00        	<unknown>
    24bc: 06 05        	<unknown>
    24be: 00 00        	<unknown>
    24c0: 0e 45        	<unknown>
    24c2: 3d 00        	<unknown>
    24c4: 00 00        	<unknown>
    24c6: 01 0f        	<unknown>
    24c8: 3d 00        	<unknown>
    24ca: 00 00        	<unknown>
    24cc: 00 20        	<unknown>
    24ce: 89 0c        	<unknown>
    24d0: 00 00        	<unknown>
    24d2: 27 05 00 00  	<unknown>
    24d6: 0e 47        	<unknown>
    24d8: 3d 00        	<unknown>
    24da: 00 00        	<unknown>
    24dc: 01 0f        	<unknown>
    24de: 3d 00        	<unknown>
    24e0: 00 00        	<unknown>
    24e2: 00 20        	<unknown>
    24e4: 95 0c        	<unknown>
    24e6: 00 00        	<unknown>
    24e8: 38 05        	<unknown>
    24ea: 00 00        	<unknown>
    24ec: 0e 49        	<unknown>
    24ee: 3d 00        	<unknown>
    24f0: 00 00        	<unknown>
    24f2: 01 0f        	<unknown>
    24f4: 3d 00        	<unknown>
    24f6: 00 00        	<unknown>
    24f8: 00 20        	<unknown>
    24fa: a0 0c        	<unknown>
    24fc: 00 00        	<unknown>
    24fe: 47 05 00 00  	fmsub.s	fa0, ft0, ft0, ft0, rne
    2502: 0e 4b        	<unknown>
    2504: 3d 00        	<unknown>
    2506: 00 00        	<unknown>
    2508: 01 0f        	<unknown>
    250a: 3d 00        	<unknown>
    250c: 00 00        	<unknown>
    250e: 00 20        	<unknown>
    2510: ab 0c 00 00  	vx_tex	s9, zero, zero, zero
    2514: cd 09        	<unknown>
    2516: 00 00        	<unknown>
    2518: 0e 4f        	<unknown>
    251a: 3d 00        	<unknown>
    251c: 00 00        	<unknown>
    251e: 01 0f        	<unknown>
    2520: 3d 00        	<unknown>
    2522: 00 00        	<unknown>
    2524: 0f 3d 00 00  	<unknown>
    2528: 00 00        	<unknown>
    252a: 20 bb        	<unknown>
    252c: 0c 00        	<unknown>
    252e: 00 6e        	<unknown>
    2530: 05 00        	<unknown>
    2532: 00 0e        	<unknown>
    2534: 53 3d 00 00  	fadd.s	fs10, ft0, ft0, rup
    2538: 00 01        	<unknown>
    253a: 0f 3d 00 00  	<unknown>
    253e: 00 00        	<unknown>
    2540: 20 c5        	<unknown>
    2542: 0c 00        	<unknown>
    2544: 00 77        	<unknown>
    2546: 05 00        	<unknown>
    2548: 00 0e        	<unknown>
    254a: 57 3d 00 00  	<unknown>
    254e: 00 01        	<unknown>
    2550: 0f 3d 00 00  	<unknown>
    2554: 00 00        	<unknown>
    2556: 20 d0        	<unknown>
    2558: 0c 00        	<unknown>
    255a: 00 8a        	<unknown>
    255c: 05 00        	<unknown>
    255e: 00 0e        	<unknown>
    2560: 60 3d        	<unknown>
    2562: 00 00        	<unknown>
    2564: 00 01        	<unknown>
    2566: 0f 3d 00 00  	<unknown>
    256a: 00 00        	<unknown>
    256c: 20 db        	<unknown>
    256e: 0c 00        	<unknown>
    2570: 00 81        	<unknown>
    2572: 05 00        	<unknown>
    2574: 00 0e        	<unknown>
    2576: 65 3d        	<unknown>
    2578: 00 00        	<unknown>
    257a: 00 01        	<unknown>
    257c: 0f 3d 00 00  	<unknown>
    2580: 00 00        	<unknown>
    2582: 20 e5        	<unknown>
    2584: 0c 00        	<unknown>
    2586: 00 a2        	<unknown>
    2588: 05 00        	<unknown>
    258a: 00 0e        	<unknown>
    258c: 6c 3d        	<unknown>
    258e: 00 00        	<unknown>
    2590: 00 01        	<unknown>
    2592: 0f 3d 00 00  	<unknown>
    2596: 00 00        	<unknown>
    2598: 20 f0        	<unknown>
    259a: 0c 00        	<unknown>
    259c: 00 99        	<unknown>
    259e: 05 00        	<unknown>
    25a0: 00 0e        	<unknown>
    25a2: 6d 3d        	<unknown>
    25a4: 00 00        	<unknown>
    25a6: 00 01        	<unknown>
    25a8: 0f 3d 00 00  	<unknown>
    25ac: 00 00        	<unknown>
    25ae: 20 fa        	<unknown>
    25b0: 0c 00        	<unknown>
    25b2: 00 b1        	<unknown>
    25b4: 05 00        	<unknown>
    25b6: 00 0e        	<unknown>
    25b8: 6f 3d 00 00  	jal	s10, 0x55b8 <.debug_info+0x55b8>
    25bc: 00 01        	<unknown>
    25be: 0f 3d 00 00  	<unknown>
    25c2: 00 00        	<unknown>
    25c4: 20 06        	<unknown>
    25c6: 0d 00        	<unknown>
    25c8: 00 c2        	<unknown>
    25ca: 05 00        	<unknown>
    25cc: 00 0e        	<unknown>
    25ce: 70 3d        	<unknown>
    25d0: 00 00        	<unknown>
    25d2: 00 01        	<unknown>
    25d4: 0f 3d 00 00  	<unknown>
    25d8: 00 00        	<unknown>
    25da: 20 11        	<unknown>
    25dc: 0d 00        	<unknown>
    25de: 00 f9        	<unknown>
    25e0: 09 00        	<unknown>
    25e2: 00 0e        	<unknown>
    25e4: 72 3d        	<unknown>
    25e6: 00 00        	<unknown>
    25e8: 00 01        	<unknown>
    25ea: 0f 3d 00 00  	<unknown>
    25ee: 00 0f        	<unknown>
    25f0: 3d 00        	<unknown>
    25f2: 00 00        	<unknown>
    25f4: 00 20        	<unknown>
    25f6: 1d 0d        	<unknown>
    25f8: 00 00        	<unknown>
    25fa: e1 05        	<unknown>
    25fc: 00 00        	<unknown>
    25fe: 0e 7c        	<unknown>
    2600: 3d 00        	<unknown>
    2602: 00 00        	<unknown>
    2604: 01 0f        	<unknown>
    2606: 3d 00        	<unknown>
    2608: 00 00        	<unknown>
    260a: 00 20        	<unknown>
    260c: 29 0d        	<unknown>
    260e: 00 00        	<unknown>
    2610: 05 0a        	<unknown>
    2612: 00 00        	<unknown>
    2614: 0e 80        	<unknown>
    2616: 3d 00        	<unknown>
    2618: 00 00        	<unknown>
    261a: 01 0f        	<unknown>
    261c: 3d 00        	<unknown>
    261e: 00 00        	<unknown>
    2620: 0f 3d 00 00  	<unknown>
    2624: 00 0f        	<unknown>
    2626: 3d 00        	<unknown>
    2628: 00 00        	<unknown>
    262a: 00 20        	<unknown>
    262c: 35 0d        	<unknown>
    262e: 00 00        	<unknown>
    2630: 0f 0a 00 00  	<unknown>
    2634: 0e 84        	<unknown>
    2636: 3d 00        	<unknown>
    2638: 00 00        	<unknown>
    263a: 01 0f        	<unknown>
    263c: 3d 00        	<unknown>
    263e: 00 00        	<unknown>
    2640: 0f 3d 00 00  	<unknown>
    2644: 00 00        	<unknown>
    2646: 20 41        	<unknown>
    2648: 0d 00        	<unknown>
    264a: 00 1b        	<unknown>
    264c: 0a 00        	<unknown>
    264e: 00 0e        	<unknown>
    2650: 86 3d        	<unknown>
    2652: 00 00        	<unknown>
    2654: 00 01        	<unknown>
    2656: 0f 3d 00 00  	<unknown>
    265a: 00 0f        	<unknown>
    265c: 3d 00        	<unknown>
    265e: 00 00        	<unknown>
    2660: 00 20        	<unknown>
    2662: 4d 0d        	<unknown>
    2664: 00 00        	<unknown>
    2666: 59 0d        	<unknown>
    2668: 00 00        	<unknown>
    266a: 0e 88        	<unknown>
    266c: 3d 00        	<unknown>
    266e: 00 00        	<unknown>
    2670: 01 0f        	<unknown>
    2672: 3d 00        	<unknown>
    2674: 00 00        	<unknown>
    2676: 0f 3d 00 00  	<unknown>
    267a: 00 00        	<unknown>
    267c: 20 5f        	<unknown>
    267e: 0d 00        	<unknown>
    2680: 00 6d        	<unknown>
    2682: 0d 00        	<unknown>
    2684: 00 0e        	<unknown>
    2686: 8a 3d        	<unknown>
    2688: 00 00        	<unknown>
    268a: 00 01        	<unknown>
    268c: 0f 3d 00 00  	<unknown>
    2690: 00 0f        	<unknown>
    2692: b4 0f        	<unknown>
    2694: 00 00        	<unknown>
    2696: 00 20        	<unknown>
    2698: 74 0d        	<unknown>
    269a: 00 00        	<unknown>
    269c: 27 0a 00 00  	<unknown>
    26a0: 0e 8c        	<unknown>
    26a2: 3d 00        	<unknown>
    26a4: 00 00        	<unknown>
    26a6: 01 0f        	<unknown>
    26a8: 3d 00        	<unknown>
    26aa: 00 00        	<unknown>
    26ac: 0f 3d 00 00  	<unknown>
    26b0: 00 00        	<unknown>
    26b2: 20 81        	<unknown>
    26b4: 0d 00        	<unknown>
    26b6: 00 72        	<unknown>
    26b8: 06 00        	<unknown>
    26ba: 00 0e        	<unknown>
    26bc: 8e 44        	<unknown>
    26be: 0d 00        	<unknown>
    26c0: 00 01        	<unknown>
    26c2: 0f 3d 00 00  	<unknown>
    26c6: 00 00        	<unknown>
    26c8: 20 8d        	<unknown>
    26ca: 0d 00        	<unknown>
    26cc: 00 9a        	<unknown>
    26ce: 0d 00        	<unknown>
    26d0: 00 0e        	<unknown>
    26d2: 9b 3d 00 00  	<unknown>
    26d6: 00 01        	<unknown>
    26d8: 0f 3d 00 00  	<unknown>
    26dc: 00 0f        	<unknown>
    26de: 44 0d        	<unknown>
    26e0: 00 00        	<unknown>
    26e2: 00 20        	<unknown>
    26e4: a1 0d        	<unknown>
    26e6: 00 00        	<unknown>
    26e8: a8 07        	<unknown>
    26ea: 00 00        	<unknown>
    26ec: 0e 9d        	<unknown>
    26ee: 3d 00        	<unknown>
    26f0: 00 00        	<unknown>
    26f2: 01 0f        	<unknown>
    26f4: 3d 00        	<unknown>
    26f6: 00 00        	<unknown>
    26f8: 00 20        	<unknown>
    26fa: ae 0d        	<unknown>
    26fc: 00 00        	<unknown>
    26fe: cc 07        	<unknown>
    2700: 00 00        	<unknown>
    2702: 0e a6        	<unknown>
    2704: 4f 11 00 00  	fnmadd.s	ft2, ft0, ft0, ft0, rtz
    2708: 01 0f        	<unknown>
    270a: 3d 00        	<unknown>
    270c: 00 00        	<unknown>
    270e: 00 20        	<unknown>
    2710: bb 0d 00 00  	addw	s11, zero, zero
    2714: 3e 08        	<unknown>
    2716: 00 00        	<unknown>
    2718: 0e a8        	<unknown>
    271a: 4f 11 00 00  	fnmadd.s	ft2, ft0, ft0, ft0, rtz
    271e: 01 0f        	<unknown>
    2720: 3d 00        	<unknown>
    2722: 00 00        	<unknown>
    2724: 00 20        	<unknown>
    2726: c9 0d        	<unknown>
    2728: 00 00        	<unknown>
    272a: ec 07        	<unknown>
    272c: 00 00        	<unknown>
    272e: 0e ad        	<unknown>
    2730: 3d 00        	<unknown>
    2732: 00 00        	<unknown>
    2734: 01 0f        	<unknown>
    2736: 3d 00        	<unknown>
    2738: 00 00        	<unknown>
    273a: 00 20        	<unknown>
    273c: d5 0d        	<unknown>
    273e: 00 00        	<unknown>
    2740: fd 07        	<unknown>
    2742: 00 00        	<unknown>
    2744: 0e af        	<unknown>
    2746: 3d 00        	<unknown>
    2748: 00 00        	<unknown>
    274a: 01 0f        	<unknown>
    274c: 3d 00        	<unknown>
    274e: 00 00        	<unknown>
    2750: 00 20        	<unknown>
    2752: e1 0d        	<unknown>
    2754: 00 00        	<unknown>
    2756: 0e 08        	<unknown>
    2758: 00 00        	<unknown>
    275a: 0e b1        	<unknown>
    275c: 3d 00        	<unknown>
    275e: 00 00        	<unknown>
    2760: 01 0f        	<unknown>
    2762: 3d 00        	<unknown>
    2764: 00 00        	<unknown>
    2766: 00 20        	<unknown>
    2768: ec 0d        	<unknown>
    276a: 00 00        	<unknown>
    276c: 1d 08        	<unknown>
    276e: 00 00        	<unknown>
    2770: 0e b5        	<unknown>
    2772: 3d 00        	<unknown>
    2774: 00 00        	<unknown>
    2776: 01 0f        	<unknown>
    2778: 3d 00        	<unknown>
    277a: 00 00        	<unknown>
    277c: 00 20        	<unknown>
    277e: f7 0d 00 00  	<unknown>
    2782: df 07 00 00  	<unknown>
    2786: 0e b6        	<unknown>
    2788: 3d 00        	<unknown>
    278a: 00 00        	<unknown>
    278c: 01 0f        	<unknown>
    278e: 3d 00        	<unknown>
    2790: 00 00        	<unknown>
    2792: 00 20        	<unknown>
    2794: 01 0e        	<unknown>
    2796: 00 00        	<unknown>
    2798: 27 08 00 00  	<unknown>
    279c: 0e bb        	<unknown>
    279e: 01 11        	<unknown>
    27a0: 00 00        	<unknown>
    27a2: 01 0f        	<unknown>
    27a4: 3d 00        	<unknown>
    27a6: 00 00        	<unknown>
    27a8: 00 20        	<unknown>
    27aa: 0d 0e        	<unknown>
    27ac: 00 00        	<unknown>
    27ae: 32 08        	<unknown>
    27b0: 00 00        	<unknown>
    27b2: 0e bd        	<unknown>
    27b4: 01 11        	<unknown>
    27b6: 00 00        	<unknown>
    27b8: 01 0f        	<unknown>
    27ba: 3d 00        	<unknown>
    27bc: 00 00        	<unknown>
    27be: 00 20        	<unknown>
    27c0: 1a 0e        	<unknown>
    27c2: 00 00        	<unknown>
    27c4: 22 06        	<unknown>
    27c6: 00 00        	<unknown>
    27c8: 0e c7        	<unknown>
    27ca: 3d 00        	<unknown>
    27cc: 00 00        	<unknown>
    27ce: 01 0f        	<unknown>
    27d0: 3d 00        	<unknown>
    27d2: 00 00        	<unknown>
    27d4: 0f 37 12 00  	<unknown>
    27d8: 00 00        	<unknown>
    27da: 20 27        	<unknown>
    27dc: 0e 00        	<unknown>
    27de: 00 7b        	<unknown>
    27e0: 08 00        	<unknown>
    27e2: 00 0e        	<unknown>
    27e4: c9 3d        	<unknown>
    27e6: 00 00        	<unknown>
    27e8: 00 01        	<unknown>
    27ea: 0f 3d 00 00  	<unknown>
    27ee: 00 00        	<unknown>
    27f0: 20 38        	<unknown>
    27f2: 0e 00        	<unknown>
    27f4: 00 72        	<unknown>
    27f6: 0a 00        	<unknown>
    27f8: 00 0e        	<unknown>
    27fa: cd 3d        	<unknown>
    27fc: 00 00        	<unknown>
    27fe: 00 01        	<unknown>
    2800: 0f 3d 00 00  	<unknown>
    2804: 00 0f        	<unknown>
    2806: 3d 00        	<unknown>
    2808: 00 00        	<unknown>
    280a: 00 20        	<unknown>
    280c: 4a 0e        	<unknown>
    280e: 00 00        	<unknown>
    2810: 55 0e        	<unknown>
    2812: 00 00        	<unknown>
    2814: 0e e7        	<unknown>
    2816: 3d 00        	<unknown>
    2818: 00 00        	<unknown>
    281a: 01 0f        	<unknown>
    281c: 3d 00        	<unknown>
    281e: 00 00        	<unknown>
    2820: 0f 3d 00 00  	<unknown>
    2824: 00 00        	<unknown>
    2826: 20 5a        	<unknown>
    2828: 0e 00        	<unknown>
    282a: 00 ab        	<unknown>
    282c: 0a 00        	<unknown>
    282e: 00 0e        	<unknown>
    2830: ef 3d 00 00  	jal	s11, 0x5830 <.debug_info+0x5830>
    2834: 00 01        	<unknown>
    2836: 0f 3d 00 00  	<unknown>
    283a: 00 0f        	<unknown>
    283c: 3d 00        	<unknown>
    283e: 00 00        	<unknown>
    2840: 00 20        	<unknown>
    2842: 6c 0e        	<unknown>
    2844: 00 00        	<unknown>
    2846: c1 0a        	<unknown>
    2848: 00 00        	<unknown>
    284a: 0e f5        	<unknown>
    284c: 3d 00        	<unknown>
    284e: 00 00        	<unknown>
    2850: 01 0f        	<unknown>
    2852: 3d 00        	<unknown>
    2854: 00 00        	<unknown>
    2856: 0f 3d 00 00  	<unknown>
    285a: 00 0f        	<unknown>
    285c: b4 0f        	<unknown>
    285e: 00 00        	<unknown>
    2860: 00 2c        	<unknown>
    2862: 7c 0e        	<unknown>
    2864: 00 00        	<unknown>
    2866: ec 08        	<unknown>
    2868: 00 00        	<unknown>
    286a: 0e 00        	<unknown>
    286c: 01 3d        	<unknown>
    286e: 00 00        	<unknown>
    2870: 00 01        	<unknown>
    2872: 0f 3d 00 00  	<unknown>
    2876: 00 00        	<unknown>
    2878: 20 87        	<unknown>
    287a: 0e 00        	<unknown>
    287c: 00 f6        	<unknown>
    287e: 08 00        	<unknown>
    2880: 00 0e        	<unknown>
    2882: aa 3d        	<unknown>
    2884: 00 00        	<unknown>
    2886: 00 01        	<unknown>
    2888: 0f 3d 00 00  	<unknown>
    288c: 00 00        	<unknown>
    288e: 2c 93        	<unknown>
    2890: 0e 00        	<unknown>
    2892: 00 d1        	<unknown>
    2894: 0a 00        	<unknown>
    2896: 00 0e        	<unknown>
    2898: 1e 01        	<unknown>
    289a: 3d 00        	<unknown>
    289c: 00 00        	<unknown>
    289e: 01 0f        	<unknown>
    28a0: 3d 00        	<unknown>
    28a2: 00 00        	<unknown>
    28a4: 0f 01 11 00  	<unknown>
    28a8: 00 00        	<unknown>
    28aa: 2c a2        	<unknown>
    28ac: 0e 00        	<unknown>
    28ae: 00 e3        	<unknown>
    28b0: 0a 00        	<unknown>
    28b2: 00 0e        	<unknown>
    28b4: 16 01        	<unknown>
    28b6: 3d 00        	<unknown>
    28b8: 00 00        	<unknown>
    28ba: 01 0f        	<unknown>
    28bc: 3d 00        	<unknown>
    28be: 00 00        	<unknown>
    28c0: 0f 44 0d 00  	<unknown>
    28c4: 00 00        	<unknown>
    28c6: 2c b0        	<unknown>
    28c8: 0e 00        	<unknown>
    28ca: 00 40        	<unknown>
    28cc: 09 00        	<unknown>
    28ce: 00 0e        	<unknown>
    28d0: 32 01        	<unknown>
    28d2: 3d 00        	<unknown>
    28d4: 00 00        	<unknown>
    28d6: 01 0f        	<unknown>
    28d8: 3d 00        	<unknown>
    28da: 00 00        	<unknown>
    28dc: 00 2c        	<unknown>
    28de: ba 0e        	<unknown>
    28e0: 00 00        	<unknown>
    28e2: 49 09        	<unknown>
    28e4: 00 00        	<unknown>
    28e6: 0e 36        	<unknown>
    28e8: 01 3d        	<unknown>
    28ea: 00 00        	<unknown>
    28ec: 00 01        	<unknown>
    28ee: 0f 3d 00 00  	<unknown>
    28f2: 00 00        	<unknown>
    28f4: 2c c5        	<unknown>
    28f6: 0e 00        	<unknown>
    28f8: 00 53        	<unknown>
    28fa: 09 00        	<unknown>
    28fc: 00 0e        	<unknown>
    28fe: 3a 01        	<unknown>
    2900: 3d 00        	<unknown>
    2902: 00 00        	<unknown>
    2904: 01 0f        	<unknown>
    2906: 3d 00        	<unknown>
    2908: 00 00        	<unknown>
    290a: 00 2c        	<unknown>
    290c: d0 0e        	<unknown>
    290e: 00 00        	<unknown>
    2910: 62 09        	<unknown>
    2912: 00 00        	<unknown>
    2914: 0e 3c        	<unknown>
    2916: 01 3d        	<unknown>
    2918: 00 00        	<unknown>
    291a: 00 01        	<unknown>
    291c: 0f 3d 00 00  	<unknown>
    2920: 00 00        	<unknown>
    2922: 2c da        	<unknown>
    2924: 0e 00        	<unknown>
    2926: 00 6b        	<unknown>
    2928: 09 00        	<unknown>
    292a: 00 0e        	<unknown>
    292c: 3e 01        	<unknown>
    292e: 3d 00        	<unknown>
    2930: 00 00        	<unknown>
    2932: 01 0f        	<unknown>
    2934: 3d 00        	<unknown>
    2936: 00 00        	<unknown>
    2938: 00 2c        	<unknown>
    293a: e5 0e        	<unknown>
    293c: 00 00        	<unknown>
    293e: 75 09        	<unknown>
    2940: 00 00        	<unknown>
    2942: 0e 40        	<unknown>
    2944: 01 3d        	<unknown>
    2946: 00 00        	<unknown>
    2948: 00 01        	<unknown>
    294a: 0f 3d 00 00  	<unknown>
    294e: 00 00        	<unknown>
    2950: 2c f2        	<unknown>
    2952: 0e 00        	<unknown>
    2954: 00 88        	<unknown>
    2956: 09 00        	<unknown>
    2958: 00 0e        	<unknown>
    295a: 42 01        	<unknown>
    295c: 3d 00        	<unknown>
    295e: 00 00        	<unknown>
    2960: 01 0f        	<unknown>
    2962: 3d 00        	<unknown>
    2964: 00 00        	<unknown>
    2966: 00 00        	<unknown>

Disassembly of section .debug_abbrev:

0000000000000000 <.debug_abbrev>:
       0: 01 11        	<unknown>
       2: 01 25        	<unknown>
       4: 0e 13        	<unknown>
       6: 05 03        	<unknown>
       8: 0e 10        	<unknown>
       a: 06 1b        	<unknown>
       c: 0e 00        	<unknown>
       e: 00 02        	<unknown>
      10: 2e 01        	<unknown>
      12: 00 00        	<unknown>
      14: 03 34 00 03  	ld	s0, 0x30(zero)
      18: 0e 49        	<unknown>
      1a: 13 3a 0b 3b  	sltiu	s4, s6, 0x3b0
      1e: 0b 00 00 04  	<unknown>
      22: 01 01        	<unknown>
      24: 49 13        	<unknown>
      26: 00 00        	<unknown>
      28: 05 21        	<unknown>
      2a: 00 49        	<unknown>
      2c: 13 37 0b 00  	sltiu	a4, s6, 0x0
      30: 00 06        	<unknown>
      32: 24 00        	<unknown>
      34: 03 0e 3e 0b  	lb	t3, 0xb3(t3)
      38: 0b 0b 00 00  	<unknown>
      3c: 07 24 00 03  	flw	fs0, 0x30(zero)
      40: 0e 0b        	<unknown>
      42: 0b 3e 0b 00  	<unknown>
      46: 00 08        	<unknown>
      48: 39 01        	<unknown>
      4a: 03 0e 00 00  	lb	t3, 0x0(zero)
      4e: 09 04        	<unknown>
      50: 01 03        	<unknown>
      52: 0e 0b        	<unknown>
      54: 0b 3a 0b 3b  	<unknown>
      58: 0b 00 00 0a  	<unknown>
      5c: 28 00        	<unknown>
      5e: 03 0e 1c 0f  	lb	t3, 0xf1(s8)
      62: 00 00        	<unknown>
      64: 0b 13 01 36  	<unknown>
      68: 0b 03 0e 0b  	<unknown>
      6c: 0b 3a 0b 3b  	<unknown>
      70: 0b 00 00 0c  	<unknown>
      74: 0d 00        	<unknown>
      76: 03 0e 49 13  	lb	t3, 0x134(s2)
      7a: 3a 0b        	<unknown>
      7c: 3b 0b 38 0a  	<unknown>
      80: 00 00        	<unknown>
      82: 0d 2e        	<unknown>
      84: 01 03        	<unknown>
      86: 0e 3a        	<unknown>
      88: 0b 3b 0b 3c  	<unknown>
      8c: 0c 3f        	<unknown>
      8e: 0c 00        	<unknown>
      90: 00 0e        	<unknown>
      92: 05 00        	<unknown>
      94: 49 13        	<unknown>
      96: 34 0c        	<unknown>
      98: 00 00        	<unknown>
      9a: 0f 05 00 49  	<unknown>
      9e: 13 00 00 10  	li	zero, 0x100
      a2: 16 00        	<unknown>
      a4: 49 13        	<unknown>
      a6: 03 0e 3a 0b  	lb	t3, 0xb3(s4)
      aa: 3b 0b 00 00  	addw	s6, zero, zero
      ae: 11 2e        	<unknown>
      b0: 01 87        	<unknown>
      b2: 40 0e        	<unknown>
      b4: 03 0e 3a 0b  	lb	t3, 0xb3(s4)
      b8: 3b 0b 49 13  	<unknown>
      bc: 3c 0c        	<unknown>
      be: 3f 0c 00 00  	<unknown>
      c2: 12 08        	<unknown>
      c4: 00 3a        	<unknown>
      c6: 0b 3b 0b 18  	<unknown>
      ca: 13 00 00 13  	li	zero, 0x130
      ce: 0f 00 49 13  	<unknown>
      d2: 00 00        	<unknown>
      d4: 14 13        	<unknown>
      d6: 01 36        	<unknown>
      d8: 0b 03 0e 0b  	<unknown>
      dc: 0b 3a 0b 3b  	<unknown>
      e0: 05 00        	<unknown>
      e2: 00 15        	<unknown>
      e4: 0d 00        	<unknown>
      e6: 03 0e 49 13  	lb	t3, 0x134(s2)
      ea: 3a 0b        	<unknown>
      ec: 3b 05 38 0a  	<unknown>
      f0: 00 00        	<unknown>
      f2: 16 2e        	<unknown>
      f4: 01 03        	<unknown>
      f6: 0e 3a        	<unknown>
      f8: 0b 3b 05 3c  	<unknown>
      fc: 0c 3f        	<unknown>
      fe: 0c 00        	<unknown>
     100: 00 17        	<unknown>
     102: 2e 01        	<unknown>
     104: 87 40 0e 03  	<unknown>
     108: 0e 3a        	<unknown>
     10a: 0b 3b 05 49  	<unknown>
     10e: 13 3c 0c 3f  	sltiu	s8, s8, 0x3f0
     112: 0c 00        	<unknown>
     114: 00 18        	<unknown>
     116: 16 00        	<unknown>
     118: 49 13        	<unknown>
     11a: 03 0e 3a 0b  	lb	t3, 0xb3(s4)
     11e: 3b 05 00 00  	addw	a0, zero, zero
     122: 19 26        	<unknown>
     124: 00 49        	<unknown>
     126: 13 00 00 1a  	li	zero, 0x1a0
     12a: 2e 00        	<unknown>
     12c: 87 40 0e 03  	<unknown>
     130: 0e 3a        	<unknown>
     132: 0b 3b 0b 49  	<unknown>
     136: 13 3c 0c 3f  	sltiu	s8, s8, 0x3f0
     13a: 0c 00        	<unknown>
     13c: 00 1b        	<unknown>
     13e: 2e 01        	<unknown>
     140: 03 0e 3a 0b  	lb	t3, 0xb3(s4)
     144: 3b 0b 3c 0c  	<unknown>
     148: 3f 0c 32 0b  	<unknown>
     14c: 00 00        	<unknown>
     14e: 1c 2e        	<unknown>
     150: 01 87        	<unknown>
     152: 40 0e        	<unknown>
     154: 03 0e 3a 0b  	lb	t3, 0xb3(s4)
     158: 3b 0b 3c 0c  	<unknown>
     15c: 3f 0c 32 0b  	<unknown>
     160: 00 00        	<unknown>
     162: 1d 2e        	<unknown>
     164: 01 87        	<unknown>
     166: 40 0e        	<unknown>
     168: 03 0e 3a 0b  	lb	t3, 0xb3(s4)
     16c: 3b 0b 49 13  	<unknown>
     170: 3c 0c        	<unknown>
     172: 3f 0c 32 0b  	<unknown>
     176: 00 00        	<unknown>
     178: 1e 10        	<unknown>
     17a: 00 49        	<unknown>
     17c: 13 00 00 1f  	li	zero, 0x1f0
     180: 08 00        	<unknown>
     182: 3a 0b        	<unknown>
     184: 3b 05 18 13  	<unknown>
     188: 00 00        	<unknown>
     18a: 20 2e        	<unknown>
     18c: 01 87        	<unknown>
     18e: 40 0e        	<unknown>
     190: 03 0e 3a 0b  	lb	t3, 0xb3(s4)
     194: 3b 0b 49 13  	<unknown>
     198: 3c 0c        	<unknown>
     19a: 00 00        	<unknown>
     19c: 21 2e        	<unknown>
     19e: 01 03        	<unknown>
     1a0: 0e 3a        	<unknown>
     1a2: 0b 3b 05 49  	<unknown>
     1a6: 13 3c 0c 3f  	sltiu	s8, s8, 0x3f0
     1aa: 0c 00        	<unknown>
     1ac: 00 22        	<unknown>
     1ae: 2e 01        	<unknown>
     1b0: 03 0e 3a 0b  	lb	t3, 0xb3(s4)
     1b4: 3b 0b 49 13  	<unknown>
     1b8: 3c 0c        	<unknown>
     1ba: 3f 0c 00 00  	<unknown>
     1be: 23 13 00 3c  	sh	zero, 0x3c6(zero)
     1c2: 0c 00        	<unknown>
     1c4: 00 24        	<unknown>
     1c6: 13 01 36 0b  	addi	sp, a2, 0xb3
     1ca: 0b 0b 3a 0b  	<unknown>
     1ce: 3b 0b 00 00  	addw	s6, zero, zero
     1d2: 25 2e        	<unknown>
     1d4: 00 03        	<unknown>
     1d6: 0e 3a        	<unknown>
     1d8: 0b 3b 05 3c  	<unknown>
     1dc: 0c 3f        	<unknown>
     1de: 0c 87        	<unknown>
     1e0: 01 0c        	<unknown>
     1e2: 00 00        	<unknown>
     1e4: 26 15        	<unknown>
     1e6: 00 00        	<unknown>
     1e8: 00 27        	<unknown>
     1ea: 0f 00 00 00  	fence	0, 0
     1ee: 28 26        	<unknown>
     1f0: 00 00        	<unknown>
     1f2: 00 29        	<unknown>
     1f4: 15 01        	<unknown>
     1f6: 49 13        	<unknown>
     1f8: 00 00        	<unknown>
     1fa: 2a 2e        	<unknown>
     1fc: 01 03        	<unknown>
     1fe: 0e 3a        	<unknown>
     200: 0b 3b 05 3c  	<unknown>
     204: 0c 3f        	<unknown>
     206: 0c 87        	<unknown>
     208: 01 0c        	<unknown>
     20a: 00 00        	<unknown>
     20c: 2b 2e 00 03  	<unknown>
     210: 0e 3a        	<unknown>
     212: 0b 3b 05 49  	<unknown>
     216: 13 3c 0c 3f  	sltiu	s8, s8, 0x3f0
     21a: 0c 00        	<unknown>
     21c: 00 2c        	<unknown>
     21e: 2e 01        	<unknown>
     220: 87 40 0e 03  	<unknown>
     224: 0e 3a        	<unknown>
     226: 0b 3b 05 49  	<unknown>
     22a: 13 3c 0c 00  	sltiu	s8, s8, 0x0
     22e: 00 00        	<unknown>

Disassembly of section .debug_line:

0000000000000000 <.debug_line>:
       0: 1a 03        	<unknown>
       2: 00 00        	<unknown>
       4: 02 00        	<unknown>
       6: 14 03        	<unknown>
       8: 00 00        	<unknown>
       a: 01 01        	<unknown>
       c: fb 0e 0d 00  	<unknown>
      10: 01 01        	<unknown>
      12: 01 01        	<unknown>
      14: 00 00        	<unknown>
      16: 00 01        	<unknown>
      18: 00 00        	<unknown>
      1a: 01 2e        	<unknown>
      1c: 2f 63 75 64  	<unknown>
      20: 61 00        	<unknown>
      22: 2f 6e 65 74  	<unknown>
      26: 68 6f        	<unknown>
      28: 6d 65        	<unknown>
      2a: 2f 63 61 68  	<unknown>
      2e: 6e 34        	<unknown>
      30: 35 2f        	<unknown>
      32: 43 75 50 42  	fmadd.d	fa0, ft0, ft5, fs0
      36: 6f 50 00 2f  	j	0x5326 <.debug_info+0x5326>
      3a: 6e 65        	<unknown>
      3c: 74 68        	<unknown>
      3e: 6f 6d 65 2f  	jal	s10, 0x56334 <.debug_info+0x56334>
      42: 63 61 68 6e  	bltu	a6, t1, 0x724 <.debug_info+0x724>
      46: 34 35        	<unknown>
      48: 00 2f        	<unknown>
      4a: 75 73        	<unknown>
      4c: 72 2f        	<unknown>
      4e: 69 6e        	<unknown>
      50: 63 6c 75 64  	bltu	a0, t2, 0x6a8 <.debug_info+0x6a8>
      54: 65 00        	<unknown>
      56: 2f 75 73 72  	<unknown>
      5a: 2f 6c 69 62  	<unknown>
      5e: 2f 67 63 63  	<unknown>
      62: 2f 78 38 36  	<unknown>
      66: 5f 36 34 2d  	<unknown>
      6a: 6c 69        	<unknown>
      6c: 6e 75        	<unknown>
      6e: 78 2d        	<unknown>
      70: 67 6e 75 2f  	<unknown>
      74: 31 33        	<unknown>
      76: 2f 2e 2e 2f  	<unknown>
      7a: 2e 2e        	<unknown>
      7c: 2f 2e 2e 2f  	<unknown>
      80: 2e 2e        	<unknown>
      82: 2f 69 6e 63  	<unknown>
      86: 6c 75        	<unknown>
      88: 64 65        	<unknown>
      8a: 2f 63 2b 2b  	<unknown>
      8e: 2f 31 33 2f  	<unknown>
      92: 62 69        	<unknown>
      94: 74 73        	<unknown>
      96: 00 2f        	<unknown>
      98: 75 73        	<unknown>
      9a: 72 2f        	<unknown>
      9c: 69 6e        	<unknown>
      9e: 63 6c 75 64  	bltu	a0, t2, 0x6f6 <.debug_info+0x6f6>
      a2: 65 2f        	<unknown>
      a4: 78 38        	<unknown>
      a6: 36 5f        	<unknown>
      a8: 36 34        	<unknown>
      aa: 2d 6c        	<unknown>
      ac: 69 6e        	<unknown>
      ae: 75 78        	<unknown>
      b0: 2d 67        	<unknown>
      b2: 6e 75        	<unknown>
      b4: 2f 62 69 74  	<unknown>
      b8: 73 00 2f 75  	<unknown>
      bc: 73 72 2f 6c  	csrrci	tp, 0x6c2, 0x1e
      c0: 69 62        	<unknown>
      c2: 2f 67 63 63  	<unknown>
      c6: 2f 78 38 36  	<unknown>
      ca: 5f 36 34 2d  	<unknown>
      ce: 6c 69        	<unknown>
      d0: 6e 75        	<unknown>
      d2: 78 2d        	<unknown>
      d4: 67 6e 75 2f  	<unknown>
      d8: 31 33        	<unknown>
      da: 2f 2e 2e 2f  	<unknown>
      de: 2e 2e        	<unknown>
      e0: 2f 2e 2e 2f  	<unknown>
      e4: 2e 2e        	<unknown>
      e6: 2f 69 6e 63  	<unknown>
      ea: 6c 75        	<unknown>
      ec: 64 65        	<unknown>
      ee: 2f 63 2b 2b  	<unknown>
      f2: 2f 31 33 00  	amoadd.d	sp, gp, (t1)
      f6: 00 6c        	<unknown>
      f8: 75 64        	<unknown>
      fa: 5f 6b 65 72  	<unknown>
      fe: 6e 65        	<unknown>
     100: 6c 2e        	<unknown>
     102: 63 75 00 01  	bgeu	zero, a6, 0x10c <.debug_info+0x10c>
     106: 00 00        	<unknown>
     108: 63 75 64 61  	bgeu	s0, s6, 0x712 <.debug_info+0x712>
     10c: 2d 31        	<unknown>
     10e: 32 2e        	<unknown>
     110: 31 2f        	<unknown>
     112: 69 6e        	<unknown>
     114: 63 6c 75 64  	bltu	a0, t2, 0x76c <.debug_info+0x76c>
     118: 65 2f        	<unknown>
     11a: 6e 76        	<unknown>
     11c: 2f 74 61 72  	<unknown>
     120: 67 65 74 00  	<unknown>
     124: 02 00        	<unknown>
     126: 00 63        	<unknown>
     128: 75 64        	<unknown>
     12a: 61 2d        	<unknown>
     12c: 31 32        	<unknown>
     12e: 2e 31        	<unknown>
     130: 2f 69 6e 63  	<unknown>
     134: 6c 75        	<unknown>
     136: 64 65        	<unknown>
     138: 2f 76 65 63  	<unknown>
     13c: 74 6f        	<unknown>
     13e: 72 5f        	<unknown>
     140: 74 79        	<unknown>
     142: 70 65        	<unknown>
     144: 73 2e 68 00  	csrrs	t3, 0x6, a6
     148: 02 00        	<unknown>
     14a: 00 6c        	<unknown>
     14c: 6c 76        	<unknown>
     14e: 6d 2d        	<unknown>
     150: 76 6f        	<unknown>
     152: 72 74        	<unknown>
     154: 65 78        	<unknown>
     156: 2d 77        	<unknown>
     158: 69 74        	<unknown>
     15a: 68 2d        	<unknown>
     15c: 63 75 64 61  	bgeu	s0, s6, 0x766 <.debug_info+0x766>
     160: 2d 62        	<unknown>
     162: 75 69        	<unknown>
     164: 6c 64        	<unknown>
     166: 2f 6c 69 62  	<unknown>
     16a: 2f 63 6c 61  	<unknown>
     16e: 6e 67        	<unknown>
     170: 2f 31 38 2f  	<unknown>
     174: 69 6e        	<unknown>
     176: 63 6c 75 64  	bltu	a0, t2, 0x7ce <.debug_info+0x7ce>
     17a: 65 2f        	<unknown>
     17c: 5f 5f 63 6c  	<unknown>
     180: 61 6e        	<unknown>
     182: 67 5f 63 75  	<unknown>
     186: 64 61        	<unknown>
     188: 5f 62 75 69  	<unknown>
     18c: 6c 74        	<unknown>
     18e: 69 6e        	<unknown>
     190: 5f 76 61 72  	<unknown>
     194: 73 2e 68 00  	csrrs	t3, 0x6, a6
     198: 03 00 00 6c  	lb	zero, 0x6c0(zero)
     19c: 6c 76        	<unknown>
     19e: 6d 2d        	<unknown>
     1a0: 76 6f        	<unknown>
     1a2: 72 74        	<unknown>
     1a4: 65 78        	<unknown>
     1a6: 2d 77        	<unknown>
     1a8: 69 74        	<unknown>
     1aa: 68 2d        	<unknown>
     1ac: 63 75 64 61  	bgeu	s0, s6, 0x7b6 <.debug_info+0x7b6>
     1b0: 2d 62        	<unknown>
     1b2: 75 69        	<unknown>
     1b4: 6c 64        	<unknown>
     1b6: 2f 6c 69 62  	<unknown>
     1ba: 2f 63 6c 61  	<unknown>
     1be: 6e 67        	<unknown>
     1c0: 2f 31 38 2f  	<unknown>
     1c4: 69 6e        	<unknown>
     1c6: 63 6c 75 64  	bltu	a0, t2, 0x81e <.debug_info+0x81e>
     1ca: 65 2f        	<unknown>
     1cc: 5f 5f 63 6c  	<unknown>
     1d0: 61 6e        	<unknown>
     1d2: 67 5f 63 75  	<unknown>
     1d6: 64 61        	<unknown>
     1d8: 5f 6d 61 74  	<unknown>
     1dc: 68 5f        	<unknown>
     1de: 66 6f        	<unknown>
     1e0: 72 77        	<unknown>
     1e2: 61 72        	<unknown>
     1e4: 64 5f        	<unknown>
     1e6: 64 65        	<unknown>
     1e8: 63 6c 61 72  	bltu	sp, t1, 0x920 <.debug_info+0x920>
     1ec: 65 73        	<unknown>
     1ee: 2e 68        	<unknown>
     1f0: 00 03        	<unknown>
     1f2: 00 00        	<unknown>
     1f4: 73 74 64 6c  	csrrci	s0, 0x6c6, 0x8
     1f8: 69 62        	<unknown>
     1fa: 2e 68        	<unknown>
     1fc: 00 04        	<unknown>
     1fe: 00 00        	<unknown>
     200: 73 74 64 5f  	csrrci	s0, 0x5f6, 0x8
     204: 61 62        	<unknown>
     206: 73 2e 68 00  	csrrs	t3, 0x6, a6
     20a: 05 00        	<unknown>
     20c: 00 6d        	<unknown>
     20e: 61 74        	<unknown>
     210: 68 63        	<unknown>
     212: 61 6c        	<unknown>
     214: 6c 73        	<unknown>
     216: 2e 68        	<unknown>
     218: 00 06        	<unknown>
     21a: 00 00        	<unknown>
     21c: 63 6d 61 74  	bltu	sp, t1, 0x976 <.debug_info+0x976>
     220: 68 00        	<unknown>
     222: 07 00 00 6d  	<unknown>
     226: 61 74        	<unknown>
     228: 68 2e        	<unknown>
     22a: 68 00        	<unknown>
     22c: 04 00        	<unknown>
     22e: 00 63        	<unknown>
     230: 73 74 64 6c  	csrrci	s0, 0x6c6, 0x8
     234: 69 62        	<unknown>
     236: 00 07        	<unknown>
     238: 00 00        	<unknown>
     23a: 6c 6c        	<unknown>
     23c: 76 6d        	<unknown>
     23e: 2d 76        	<unknown>
     240: 6f 72 74 65  	jal	tp, 0x48096 <.debug_info+0x48096>
     244: 78 2d        	<unknown>
     246: 77 69 74 68  	<unknown>
     24a: 2d 63        	<unknown>
     24c: 75 64        	<unknown>
     24e: 61 2d        	<unknown>
     250: 62 75        	<unknown>
     252: 69 6c        	<unknown>
     254: 64 2f        	<unknown>
     256: 6c 69        	<unknown>
     258: 62 2f        	<unknown>
     25a: 63 6c 61 6e  	bltu	sp, t1, 0x952 <.debug_info+0x952>
     25e: 67 2f 31 38  	<unknown>
     262: 2f 69 6e 63  	<unknown>
     266: 6c 75        	<unknown>
     268: 64 65        	<unknown>
     26a: 2f 5f 5f 73  	<unknown>
     26e: 74 64        	<unknown>
     270: 64 65        	<unknown>
     272: 66 5f        	<unknown>
     274: 73 69 7a 65  	csrrsi	s2, 0x657, 0x14
     278: 5f 74 2e 68  	<unknown>
     27c: 00 03        	<unknown>
     27e: 00 00        	<unknown>
     280: 73 74 64 6c  	csrrci	s0, 0x6c6, 0x8
     284: 69 62        	<unknown>
     286: 2e 68        	<unknown>
     288: 00 07        	<unknown>
     28a: 00 00        	<unknown>
     28c: 6c 6c        	<unknown>
     28e: 76 6d        	<unknown>
     290: 2d 76        	<unknown>
     292: 6f 72 74 65  	jal	tp, 0x480e8 <.debug_info+0x480e8>
     296: 78 2d        	<unknown>
     298: 77 69 74 68  	<unknown>
     29c: 2d 63        	<unknown>
     29e: 75 64        	<unknown>
     2a0: 61 2d        	<unknown>
     2a2: 62 75        	<unknown>
     2a4: 69 6c        	<unknown>
     2a6: 64 2f        	<unknown>
     2a8: 6c 69        	<unknown>
     2aa: 62 2f        	<unknown>
     2ac: 63 6c 61 6e  	bltu	sp, t1, 0x9a4 <.debug_info+0x9a4>
     2b0: 67 2f 31 38  	<unknown>
     2b4: 2f 69 6e 63  	<unknown>
     2b8: 6c 75        	<unknown>
     2ba: 64 65        	<unknown>
     2bc: 2f 5f 5f 63  	<unknown>
     2c0: 6c 61        	<unknown>
     2c2: 6e 67        	<unknown>
     2c4: 5f 63 75 64  	<unknown>
     2c8: 61 5f        	<unknown>
     2ca: 6d 61        	<unknown>
     2cc: 74 68        	<unknown>
     2ce: 2e 68        	<unknown>
     2d0: 00 03        	<unknown>
     2d2: 00 00        	<unknown>
     2d4: 6c 6c        	<unknown>
     2d6: 76 6d        	<unknown>
     2d8: 2d 76        	<unknown>
     2da: 6f 72 74 65  	jal	tp, 0x48130 <.debug_info+0x48130>
     2de: 78 2d        	<unknown>
     2e0: 77 69 74 68  	<unknown>
     2e4: 2d 63        	<unknown>
     2e6: 75 64        	<unknown>
     2e8: 61 2d        	<unknown>
     2ea: 62 75        	<unknown>
     2ec: 69 6c        	<unknown>
     2ee: 64 2f        	<unknown>
     2f0: 6c 69        	<unknown>
     2f2: 62 2f        	<unknown>
     2f4: 63 6c 61 6e  	bltu	sp, t1, 0x9ec <.debug_info+0x9ec>
     2f8: 67 2f 31 38  	<unknown>
     2fc: 2f 69 6e 63  	<unknown>
     300: 6c 75        	<unknown>
     302: 64 65        	<unknown>
     304: 2f 5f 5f 63  	<unknown>
     308: 6c 61        	<unknown>
     30a: 6e 67        	<unknown>
     30c: 5f 63 75 64  	<unknown>
     310: 61 5f        	<unknown>
     312: 63 6d 61 74  	bltu	sp, t1, 0xa6c <.debug_info+0xa6c>
     316: 68 2e        	<unknown>
     318: 68 00        	<unknown>
     31a: 03 00 00 00  	lb	zero, 0x0(zero)

Disassembly of section .debug_frame:

0000000000000000 <.debug_frame>:
       0: 0c 00        	<unknown>
       2: 00 00        	<unknown>
       4: ff ff ff ff  	<unknown>
       8: 01 00        	<unknown>
       a: 01 78        	<unknown>
       c: 01 0c        	<unknown>
       e: 02 00        	<unknown>
      10: 3c 00        	<unknown>
      12: 00 00        	<unknown>
      14: 00 00        	<unknown>
      16: 00 00        	<unknown>
      18: 00 04        	<unknown>
      1a: 00 80        	<unknown>
      1c: 01 00        	<unknown>
      1e: 00 00        	<unknown>
      20: 74 0b        	<unknown>
      22: 00 00        	<unknown>
      24: 00 00        	<unknown>
      26: 00 00        	<unknown>
      28: 44 0e        	<unknown>
      2a: 70 74        	<unknown>
      2c: 81 01        	<unknown>
      2e: 88 02        	<unknown>
      30: 89 03        	<unknown>
      32: 92 04        	<unknown>
      34: 93 05 94 06  	addi	a1, s0, 0x69
      38: 95 07        	<unknown>
      3a: 96 08        	<unknown>
      3c: 97 09 98 0a  	auipc	s3, 0xa980
      40: 99 0b        	<unknown>
      42: 9a 0c        	<unknown>
      44: 9b 0d 44 0c  	addiw	s11, s0, 0xc4
      48: 08 00        	<unknown>
      4a: 00 00        	<unknown>
      4c: 00 00        	<unknown>
      4e: 00 00        	<unknown>
      50: 54 00        	<unknown>
      52: 00 00        	<unknown>
      54: 00 00        	<unknown>
      56: 00 00        	<unknown>
      58: 74 0f        	<unknown>
      5a: 00 80        	<unknown>
      5c: 01 00        	<unknown>
      5e: 00 00        	<unknown>
      60: e8 23        	<unknown>
      62: 00 00        	<unknown>
      64: 00 00        	<unknown>
      66: 00 00        	<unknown>
      68: 44 0e        	<unknown>
      6a: b0 06        	<unknown>
      6c: 02 64        	<unknown>
      6e: 81 01        	<unknown>
      70: 88 02        	<unknown>
      72: 89 03        	<unknown>
      74: 92 04        	<unknown>
      76: 93 05 94 06  	addi	a1, s0, 0x69
      7a: 95 07        	<unknown>
      7c: 96 08        	<unknown>
      7e: 97 09 98 0a  	auipc	s3, 0xa980
      82: 99 0b        	<unknown>
      84: 9a 0c        	<unknown>
      86: 9b 0d a8 0e  	addiw	s11, a6, 0xea
      8a: a9 0f        	<unknown>
      8c: b2 10        	<unknown>
      8e: b3 11 b4 12  	<unknown>
      92: b5 13        	<unknown>
      94: b6 14        	<unknown>
      96: b7 15 b8 16  	lui	a1, 0x16b81
      9a: b9 17        	<unknown>
      9c: ba 18        	<unknown>
      9e: bb 19 44 0c  	<unknown>
      a2: 08 00        	<unknown>
      a4: 00 00        	<unknown>
      a6: 00 00        	<unknown>
      a8: 2c 00        	<unknown>
      aa: 00 00        	<unknown>
      ac: 00 00        	<unknown>
      ae: 00 00        	<unknown>
      b0: 5c 33        	<unknown>
      b2: 00 80        	<unknown>
      b4: 01 00        	<unknown>
      b6: 00 00        	<unknown>
      b8: e4 02        	<unknown>
      ba: 00 00        	<unknown>
      bc: 00 00        	<unknown>
      be: 00 00        	<unknown>
      c0: 44 0e        	<unknown>
      c2: 30 58        	<unknown>
      c4: 81 01        	<unknown>
      c6: 88 02        	<unknown>
      c8: 89 03        	<unknown>
      ca: 92 04        	<unknown>
      cc: 93 05 94 06  	addi	a1, s0, 0x69
      d0: 44 0c        	<unknown>
      d2: 08 00        	<unknown>
      d4: 00 00        	<unknown>
      d6: 00 00        	<unknown>
      d8: 14 00        	<unknown>
      da: 00 00        	<unknown>
      dc: 00 00        	<unknown>
      de: 00 00        	<unknown>
      e0: 40 36        	<unknown>
      e2: 00 80        	<unknown>
      e4: 01 00        	<unknown>
      e6: 00 00        	<unknown>
      e8: 14 00        	<unknown>
      ea: 00 00        	<unknown>
      ec: 00 00        	<unknown>
      ee: 00 00        	<unknown>
      f0: 14 00        	<unknown>
      f2: 00 00        	<unknown>
      f4: 00 00        	<unknown>
      f6: 00 00        	<unknown>
      f8: 54 36        	<unknown>
      fa: 00 80        	<unknown>
      fc: 01 00        	<unknown>
      fe: 00 00        	<unknown>
     100: 14 00        	<unknown>
     102: 00 00        	<unknown>
     104: 00 00        	<unknown>
     106: 00 00        	<unknown>
     108: 14 00        	<unknown>
     10a: 00 00        	<unknown>
     10c: 00 00        	<unknown>
     10e: 00 00        	<unknown>
     110: 68 36        	<unknown>
     112: 00 80        	<unknown>
     114: 01 00        	<unknown>
     116: 00 00        	<unknown>
     118: 14 00        	<unknown>
     11a: 00 00        	<unknown>
     11c: 00 00        	<unknown>
     11e: 00 00        	<unknown>

Disassembly of section .debug_str:

0000000000000000 <.debug_str>:
       0: 63 6c 61 6e  	bltu	sp, t1, 0x6f8 <.debug_info+0x6f8>
       4: 67 20 76 65  	<unknown>
       8: 72 73        	<unknown>
       a: 69 6f        	<unknown>
       c: 6e 20        	<unknown>
       e: 31 38        	<unknown>
      10: 2e 31        	<unknown>
      12: 2e 37        	<unknown>
      14: 20 28        	<unknown>
      16: 68 74        	<unknown>
      18: 74 70        	<unknown>
      1a: 73 3a 2f 2f  	csrrc	s4, 0x2f2, t5
      1e: 67 69 74 68  	<unknown>
      22: 75 62        	<unknown>
      24: 2e 63        	<unknown>
      26: 6f 6d 2f 76  	jal	s10, 0xf6788 <.debug_info+0xf6788>
      2a: 6f 72 74 65  	jal	tp, 0x47e80 <.debug_info+0x47e80>
      2e: 78 67        	<unknown>
      30: 70 67        	<unknown>
      32: 70 75        	<unknown>
      34: 2f 6c 6c 76  	<unknown>
      38: 6d 2e        	<unknown>
      3a: 67 69 74 20  	<unknown>
      3e: 35 32        	<unknown>
      40: 31 32        	<unknown>
      42: 62 31        	<unknown>
      44: 30 31        	<unknown>
      46: 36 30        	<unknown>
      48: 65 36        	<unknown>
      4a: 33 63 39 61  	<unknown>
      4e: 39 38        	<unknown>
      50: 38 33        	<unknown>
      52: 63 33 66 62  	<unknown>
      56: 38 62        	<unknown>
      58: 30 38        	<unknown>
      5a: 64 30        	<unknown>
      5c: 31 35        	<unknown>
      5e: 62 36        	<unknown>
      60: 36 37        	<unknown>
      62: 64 64        	<unknown>
      64: 61 62        	<unknown>
      66: 29 00        	<unknown>
      68: 6c 75        	<unknown>
      6a: 64 2e        	<unknown>
      6c: 63 75 00 2f  	bgeu	zero, a6, 0x356 <.debug_info+0x356>
      70: 6e 65        	<unknown>
      72: 74 68        	<unknown>
      74: 6f 6d 65 2f  	jal	s10, 0x5636a <.debug_info+0x5636a>
      78: 63 61 68 6e  	bltu	a6, t1, 0x75a <.debug_info+0x75a>
      7c: 34 35        	<unknown>
      7e: 2f 43 75 50  	<unknown>
      82: 42 6f        	<unknown>
      84: 50 2f        	<unknown>
      86: 65 78        	<unknown>
      88: 61 6d        	<unknown>
      8a: 70 6c        	<unknown>
      8c: 65 73        	<unknown>
      8e: 2f 6c 75 64  	<unknown>
      92: 00 73        	<unknown>
      94: 68 61        	<unknown>
      96: 64 6f        	<unknown>
      98: 77 00 66 6c  	<unknown>
      9c: 6f 61 74 00  	jal	sp, 0x468a2 <.debug_info+0x468a2>
      a0: 5f 5f 41 52  	<unknown>
      a4: 52 41        	<unknown>
      a6: 59 5f        	<unknown>
      a8: 53 49 5a 45  	<unknown>
      ac: 5f 54 59 50  	<unknown>
      b0: 45 5f        	<unknown>
      b2: 5f 00 64 69  	<unknown>
      b6: 61 00        	<unknown>
      b8: 70 65        	<unknown>
      ba: 72 69        	<unknown>
      bc: 5f 72 6f 77  	<unknown>
      c0: 00 70        	<unknown>
      c2: 65 72        	<unknown>
      c4: 69 5f        	<unknown>
      c6: 63 6f 6c 00  	bltu	s8, t1, 0xe4 <.debug_info+0xe4>
      ca: 74 61        	<unknown>
      cc: 72 67        	<unknown>
      ce: 65 74        	<unknown>
      d0: 00 64        	<unknown>
      d2: 65 74        	<unknown>
      d4: 61 69        	<unknown>
      d6: 6c 00        	<unknown>
      d8: 73 6d 5f 33  	csrrsi	s10, mhpmevent21, 0x1e
      dc: 35 00        	<unknown>
      de: 73 6d 5f 33  	csrrsi	s10, mhpmevent21, 0x1e
      e2: 37 00 73 6d  	lui	zero, 0x6d730
      e6: 5f 35 30 00  	<unknown>
      ea: 73 6d 5f 35  	csrrsi	s10, 0x355, 0x1e
      ee: 32 00        	<unknown>
      f0: 73 6d 5f 35  	csrrsi	s10, 0x355, 0x1e
      f4: 33 00 73 6d  	<unknown>
      f8: 5f 36 30 00  	<unknown>
      fc: 73 6d 5f 36  	csrrsi	s10, 0x365, 0x1e
     100: 31 00        	<unknown>
     102: 73 6d 5f 36  	csrrsi	s10, 0x365, 0x1e
     106: 32 00        	<unknown>
     108: 73 6d 5f 37  	csrrsi	s10, 0x375, 0x1e
     10c: 30 00        	<unknown>
     10e: 73 6d 5f 37  	csrrsi	s10, 0x375, 0x1e
     112: 32 00        	<unknown>
     114: 73 6d 5f 37  	csrrsi	s10, 0x375, 0x1e
     118: 35 00        	<unknown>
     11a: 73 6d 5f 38  	csrrsi	s10, 0x385, 0x1e
     11e: 30 00        	<unknown>
     120: 73 6d 5f 38  	csrrsi	s10, 0x385, 0x1e
     124: 36 00        	<unknown>
     126: 73 6d 5f 38  	csrrsi	s10, 0x385, 0x1e
     12a: 37 00 73 6d  	lui	zero, 0x6d730
     12e: 5f 38 39 00  	<unknown>
     132: 73 6d 5f 39  	csrrsi	s10, 0x395, 0x1e
     136: 30 00        	<unknown>
     138: 73 6d 5f 73  	csrrsi	s10, 0x735, 0x1e
     13c: 65 6c        	<unknown>
     13e: 65 63        	<unknown>
     140: 74 6f        	<unknown>
     142: 72 00        	<unknown>
     144: 74 61        	<unknown>
     146: 72 67        	<unknown>
     148: 65 74        	<unknown>
     14a: 73 00 75 6e  	<unknown>
     14e: 73 69 67 6e  	csrrsi	s2, 0x6e6, 0xe
     152: 65 64        	<unknown>
     154: 20 6c        	<unknown>
     156: 6f 6e 67 20  	jal	t3, 0x7635c <.debug_info+0x7635c>
     15a: 6c 6f        	<unknown>
     15c: 6e 67        	<unknown>
     15e: 00 62        	<unknown>
     160: 61 73        	<unknown>
     162: 65 5f        	<unknown>
     164: 69 6e        	<unknown>
     166: 74 5f        	<unknown>
     168: 74 00        	<unknown>
     16a: 74 61        	<unknown>
     16c: 72 67        	<unknown>
     16e: 65 74        	<unknown>
     170: 5f 64 65 73  	<unknown>
     174: 63 72 69 70  	bgeu	s2, t1, 0x878 <.debug_info+0x878>
     178: 74 69        	<unknown>
     17a: 6f 6e 00 75  	jal	t3, 0x68ca <.debug_info+0x68ca>
     17e: 6e 73        	<unknown>
     180: 69 67        	<unknown>
     182: 6e 65        	<unknown>
     184: 64 20        	<unknown>
     186: 69 6e        	<unknown>
     188: 74 00        	<unknown>
     18a: 5f 5a 4e 4b  	<unknown>
     18e: 34 64        	<unknown>
     190: 69 6d        	<unknown>
     192: 33 63 76 35  	<unknown>
     196: 75 69        	<unknown>
     198: 6e 74        	<unknown>
     19a: 33 45 76 00  	xor	a0, a2, t2
     19e: 6f 70 65 72  	j	0x578c4 <.debug_info+0x578c4>
     1a2: 61 74        	<unknown>
     1a4: 6f 72 20 75  	jal	tp, 0x78f6 <.debug_info+0x78f6>
     1a8: 69 6e        	<unknown>
     1aa: 74 33        	<unknown>
     1ac: 00 5f        	<unknown>
     1ae: 5a 4e        	<unknown>
     1b0: 32 36        	<unknown>
     1b2: 5f 5f 63 75  	<unknown>
     1b6: 64 61        	<unknown>
     1b8: 5f 62 75 69  	<unknown>
     1bc: 6c 74        	<unknown>
     1be: 69 6e        	<unknown>
     1c0: 5f 74 68 72  	<unknown>
     1c4: 65 61        	<unknown>
     1c6: 64 49        	<unknown>
     1c8: 64 78        	<unknown>
     1ca: 5f 74 31 37  	<unknown>
     1ce: 5f 5f 66 65  	<unknown>
     1d2: 74 63        	<unknown>
     1d4: 68 5f        	<unknown>
     1d6: 62 75        	<unknown>
     1d8: 69 6c        	<unknown>
     1da: 74 69        	<unknown>
     1dc: 6e 5f        	<unknown>
     1de: 78 45        	<unknown>
     1e0: 76 00        	<unknown>
     1e2: 5f 5f 66 65  	<unknown>
     1e6: 74 63        	<unknown>
     1e8: 68 5f        	<unknown>
     1ea: 62 75        	<unknown>
     1ec: 69 6c        	<unknown>
     1ee: 74 69        	<unknown>
     1f0: 6e 5f        	<unknown>
     1f2: 78 00        	<unknown>
     1f4: 5f 5a 4e 32  	<unknown>
     1f8: 36 5f        	<unknown>
     1fa: 5f 63 75 64  	<unknown>
     1fe: 61 5f        	<unknown>
     200: 62 75        	<unknown>
     202: 69 6c        	<unknown>
     204: 74 69        	<unknown>
     206: 6e 5f        	<unknown>
     208: 74 68        	<unknown>
     20a: 72 65        	<unknown>
     20c: 61 64        	<unknown>
     20e: 49 64        	<unknown>
     210: 78 5f        	<unknown>
     212: 74 31        	<unknown>
     214: 37 5f 5f 66  	lui	t5, 0x665f5
     218: 65 74        	<unknown>
     21a: 63 68 5f 62  	bltu	t5, t0, 0x84a <.debug_info+0x84a>
     21e: 75 69        	<unknown>
     220: 6c 74        	<unknown>
     222: 69 6e        	<unknown>
     224: 5f 79 45 76  	<unknown>
     228: 00 5f        	<unknown>
     22a: 5f 66 65 74  	<unknown>
     22e: 63 68 5f 62  	bltu	t5, t0, 0x85e <.debug_info+0x85e>
     232: 75 69        	<unknown>
     234: 6c 74        	<unknown>
     236: 69 6e        	<unknown>
     238: 5f 79 00 5f  	<unknown>
     23c: 5a 4e        	<unknown>
     23e: 32 36        	<unknown>
     240: 5f 5f 63 75  	<unknown>
     244: 64 61        	<unknown>
     246: 5f 62 75 69  	<unknown>
     24a: 6c 74        	<unknown>
     24c: 69 6e        	<unknown>
     24e: 5f 74 68 72  	<unknown>
     252: 65 61        	<unknown>
     254: 64 49        	<unknown>
     256: 64 78        	<unknown>
     258: 5f 74 31 37  	<unknown>
     25c: 5f 5f 66 65  	<unknown>
     260: 74 63        	<unknown>
     262: 68 5f        	<unknown>
     264: 62 75        	<unknown>
     266: 69 6c        	<unknown>
     268: 74 69        	<unknown>
     26a: 6e 5f        	<unknown>
     26c: 7a 45        	<unknown>
     26e: 76 00        	<unknown>
     270: 5f 5f 66 65  	<unknown>
     274: 74 63        	<unknown>
     276: 68 5f        	<unknown>
     278: 62 75        	<unknown>
     27a: 69 6c        	<unknown>
     27c: 74 69        	<unknown>
     27e: 6e 5f        	<unknown>
     280: 7a 00        	<unknown>
     282: 5f 5a 4e 4b  	<unknown>
     286: 32 36        	<unknown>
     288: 5f 5f 63 75  	<unknown>
     28c: 64 61        	<unknown>
     28e: 5f 62 75 69  	<unknown>
     292: 6c 74        	<unknown>
     294: 69 6e        	<unknown>
     296: 5f 74 68 72  	<unknown>
     29a: 65 61        	<unknown>
     29c: 64 49        	<unknown>
     29e: 64 78        	<unknown>
     2a0: 5f 74 63 76  	<unknown>
     2a4: 34 64        	<unknown>
     2a6: 69 6d        	<unknown>
     2a8: 33 45 76 00  	xor	a0, a2, t2
     2ac: 6f 70 65 72  	j	0x579d2 <.debug_info+0x579d2>
     2b0: 61 74        	<unknown>
     2b2: 6f 72 20 64  	jal	tp, 0x78f4 <.debug_info+0x78f4>
     2b6: 69 6d        	<unknown>
     2b8: 33 00 5f 5a  	<unknown>
     2bc: 4e 4b        	<unknown>
     2be: 32 36        	<unknown>
     2c0: 5f 5f 63 75  	<unknown>
     2c4: 64 61        	<unknown>
     2c6: 5f 62 75 69  	<unknown>
     2ca: 6c 74        	<unknown>
     2cc: 69 6e        	<unknown>
     2ce: 5f 74 68 72  	<unknown>
     2d2: 65 61        	<unknown>
     2d4: 64 49        	<unknown>
     2d6: 64 78        	<unknown>
     2d8: 5f 74 63 76  	<unknown>
     2dc: 35 75        	<unknown>
     2de: 69 6e        	<unknown>
     2e0: 74 33        	<unknown>
     2e2: 45 76        	<unknown>
     2e4: 00 5f        	<unknown>
     2e6: 5f 63 75 64  	<unknown>
     2ea: 61 5f        	<unknown>
     2ec: 62 75        	<unknown>
     2ee: 69 6c        	<unknown>
     2f0: 74 69        	<unknown>
     2f2: 6e 5f        	<unknown>
     2f4: 74 68        	<unknown>
     2f6: 72 65        	<unknown>
     2f8: 61 64        	<unknown>
     2fa: 49 64        	<unknown>
     2fc: 78 5f        	<unknown>
     2fe: 74 00        	<unknown>
     300: 5f 5a 4e 4b  	<unknown>
     304: 32 36        	<unknown>
     306: 5f 5f 63 75  	<unknown>
     30a: 64 61        	<unknown>
     30c: 5f 62 75 69  	<unknown>
     310: 6c 74        	<unknown>
     312: 69 6e        	<unknown>
     314: 5f 74 68 72  	<unknown>
     318: 65 61        	<unknown>
     31a: 64 49        	<unknown>
     31c: 64 78        	<unknown>
     31e: 5f 74 61 53  	<unknown>
     322: 45 52        	<unknown>
     324: 4b 53 5f 00  	<unknown>
     328: 6f 70 65 72  	j	0x57a4e <.debug_info+0x57a4e>
     32c: 61 74        	<unknown>
     32e: 6f 72 3d 00  	jal	tp, 0xd7b30 <.debug_info+0xd7b30>
     332: 5f 5a 4e 4b  	<unknown>
     336: 32 36        	<unknown>
     338: 5f 5f 63 75  	<unknown>
     33c: 64 61        	<unknown>
     33e: 5f 62 75 69  	<unknown>
     342: 6c 74        	<unknown>
     344: 69 6e        	<unknown>
     346: 5f 74 68 72  	<unknown>
     34a: 65 61        	<unknown>
     34c: 64 49        	<unknown>
     34e: 64 78        	<unknown>
     350: 5f 74 61 64  	<unknown>
     354: 45 76        	<unknown>
     356: 00 6f        	<unknown>
     358: 70 65        	<unknown>
     35a: 72 61        	<unknown>
     35c: 74 6f        	<unknown>
     35e: 72 26        	<unknown>
     360: 00 5f        	<unknown>
     362: 5a 4e        	<unknown>
     364: 32 35        	<unknown>
     366: 5f 5f 63 75  	<unknown>
     36a: 64 61        	<unknown>
     36c: 5f 62 75 69  	<unknown>
     370: 6c 74        	<unknown>
     372: 69 6e        	<unknown>
     374: 5f 62 6c 6f  	<unknown>
     378: 63 6b 49 64  	bltu	s2, tp, 0x9ce <.debug_info+0x9ce>
     37c: 78 5f        	<unknown>
     37e: 74 31        	<unknown>
     380: 37 5f 5f 66  	lui	t5, 0x665f5
     384: 65 74        	<unknown>
     386: 63 68 5f 62  	bltu	t5, t0, 0x9b6 <.debug_info+0x9b6>
     38a: 75 69        	<unknown>
     38c: 6c 74        	<unknown>
     38e: 69 6e        	<unknown>
     390: 5f 78 45 76  	<unknown>
     394: 00 5f        	<unknown>
     396: 5a 4e        	<unknown>
     398: 32 35        	<unknown>
     39a: 5f 5f 63 75  	<unknown>
     39e: 64 61        	<unknown>
     3a0: 5f 62 75 69  	<unknown>
     3a4: 6c 74        	<unknown>
     3a6: 69 6e        	<unknown>
     3a8: 5f 62 6c 6f  	<unknown>
     3ac: 63 6b 49 64  	bltu	s2, tp, 0xa02 <.debug_info+0xa02>
     3b0: 78 5f        	<unknown>
     3b2: 74 31        	<unknown>
     3b4: 37 5f 5f 66  	lui	t5, 0x665f5
     3b8: 65 74        	<unknown>
     3ba: 63 68 5f 62  	bltu	t5, t0, 0x9ea <.debug_info+0x9ea>
     3be: 75 69        	<unknown>
     3c0: 6c 74        	<unknown>
     3c2: 69 6e        	<unknown>
     3c4: 5f 79 45 76  	<unknown>
     3c8: 00 5f        	<unknown>
     3ca: 5a 4e        	<unknown>
     3cc: 32 35        	<unknown>
     3ce: 5f 5f 63 75  	<unknown>
     3d2: 64 61        	<unknown>
     3d4: 5f 62 75 69  	<unknown>
     3d8: 6c 74        	<unknown>
     3da: 69 6e        	<unknown>
     3dc: 5f 62 6c 6f  	<unknown>
     3e0: 63 6b 49 64  	bltu	s2, tp, 0xa36 <.debug_info+0xa36>
