	.text
	.file	"lud.cu"
	.file	0 "/nethome/cahn45/CuPBoP/examples/lud" "lud.cu" md5 0x08a19db7f719a8a5a04a863e0a414987
	.file	1 "./cuda" "lud.cu"
	.file	2 "/usr/include/x86_64-linux-gnu/bits" "getopt_ext.h"
	.file	3 "/nethome/cahn45/CuPBoP" "cuda-12.1/include/nv/target"
	.file	4 "./common" "common.h"
	.file	5 "/nethome/cahn45/CuPBoP" "cuda-12.1/include/driver_types.h"
	.file	6 "/nethome/cahn45/CuPBoP" "cuda-12.1/include/vector_types.h"
	.globl	_Z27__device_stub__lud_diagonalPfii # -- Begin function _Z27__device_stub__lud_diagonalPfii
	.p2align	4, 0x90
	.type	_Z27__device_stub__lud_diagonalPfii,@function
_Z27__device_stub__lud_diagonalPfii:    # @_Z27__device_stub__lud_diagonalPfii
.Lfunc_begin0:
	.file	7 "./cuda" "lud_kernel.cu"
	.loc	7 17 0                          # ./cuda/lud_kernel.cu:17:0
	.cfi_startproc
# %bb.0:                                # %entry
	pushq	%rbp
	.cfi_def_cfa_offset 16
	.cfi_offset %rbp, -16
	movq	%rsp, %rbp
	.cfi_def_cfa_register %rbp
	subq	$144, %rsp
	movq	%rdi, -8(%rbp)
	movl	%esi, -12(%rbp)
	movl	%edx, -16(%rbp)
.Ltmp0:
	.loc	7 17 1 prologue_end             # ./cuda/lud_kernel.cu:17:1
	leaq	-8(%rbp), %rax
	movq	%rax, -128(%rbp)
	leaq	-12(%rbp), %rax
	movq	%rax, -120(%rbp)
	leaq	-16(%rbp), %rax
	movq	%rax, -112(%rbp)
	leaq	-32(%rbp), %rdi
	leaq	-48(%rbp), %rsi
	leaq	-56(%rbp), %rdx
	leaq	-64(%rbp), %rcx
	callq	__cudaPopCallConfiguration@PLT
	movq	-56(%rbp), %r10
	movq	-64(%rbp), %rax
	movq	-32(%rbp), %rcx
	movq	%rcx, -80(%rbp)
	movl	-24(%rbp), %ecx
	movl	%ecx, -72(%rbp)
	movq	-80(%rbp), %rsi
	movl	-72(%rbp), %edx
	movq	-48(%rbp), %rcx
	movq	%rcx, -96(%rbp)
	movl	-40(%rbp), %ecx
	movl	%ecx, -88(%rbp)
	movq	-96(%rbp), %rcx
	movl	-88(%rbp), %r8d
	leaq	_Z27__device_stub__lud_diagonalPfii(%rip), %rdi
	leaq	-128(%rbp), %r9
	movq	%r10, (%rsp)
	movq	%rax, 8(%rsp)
	callq	cudaLaunchKernel@PLT
# %bb.1:                                # %setup.end
	.loc	7 57 1 epilogue_begin           # ./cuda/lud_kernel.cu:57:1
	addq	$144, %rsp
	popq	%rbp
	.cfi_def_cfa %rsp, 8
	retq
.Ltmp1:
.Lfunc_end0:
	.size	_Z27__device_stub__lud_diagonalPfii, .Lfunc_end0-_Z27__device_stub__lud_diagonalPfii
	.cfi_endproc
                                        # -- End function
	.globl	_Z28__device_stub__lud_perimeterPfii # -- Begin function _Z28__device_stub__lud_perimeterPfii
	.p2align	4, 0x90
	.type	_Z28__device_stub__lud_perimeterPfii,@function
_Z28__device_stub__lud_perimeterPfii:   # @_Z28__device_stub__lud_perimeterPfii
.Lfunc_begin1:
	.loc	7 61 0                          # ./cuda/lud_kernel.cu:61:0
	.cfi_startproc
# %bb.0:                                # %entry
	pushq	%rbp
	.cfi_def_cfa_offset 16
	.cfi_offset %rbp, -16
	movq	%rsp, %rbp
	.cfi_def_cfa_register %rbp
	subq	$144, %rsp
	movq	%rdi, -8(%rbp)
	movl	%esi, -12(%rbp)
	movl	%edx, -16(%rbp)
.Ltmp2:
	.loc	7 61 1 prologue_end             # ./cuda/lud_kernel.cu:61:1
	leaq	-8(%rbp), %rax
	movq	%rax, -128(%rbp)
	leaq	-12(%rbp), %rax
	movq	%rax, -120(%rbp)
	leaq	-16(%rbp), %rax
	movq	%rax, -112(%rbp)
	leaq	-32(%rbp), %rdi
	leaq	-48(%rbp), %rsi
	leaq	-56(%rbp), %rdx
	leaq	-64(%rbp), %rcx
	callq	__cudaPopCallConfiguration@PLT
	movq	-56(%rbp), %r10
	movq	-64(%rbp), %rax
	movq	-32(%rbp), %rcx
	movq	%rcx, -80(%rbp)
	movl	-24(%rbp), %ecx
	movl	%ecx, -72(%rbp)
	movq	-80(%rbp), %rsi
	movl	-72(%rbp), %edx
	movq	-48(%rbp), %rcx
	movq	%rcx, -96(%rbp)
	movl	-40(%rbp), %ecx
	movl	%ecx, -88(%rbp)
	movq	-96(%rbp), %rcx
	movl	-88(%rbp), %r8d
	leaq	_Z28__device_stub__lud_perimeterPfii(%rip), %rdi
	leaq	-128(%rbp), %r9
	movq	%r10, (%rsp)
	movq	%rax, 8(%rsp)
	callq	cudaLaunchKernel@PLT
# %bb.1:                                # %setup.end
	.loc	7 173 1 epilogue_begin          # ./cuda/lud_kernel.cu:173:1
	addq	$144, %rsp
	popq	%rbp
	.cfi_def_cfa %rsp, 8
	retq
.Ltmp3:
.Lfunc_end1:
	.size	_Z28__device_stub__lud_perimeterPfii, .Lfunc_end1-_Z28__device_stub__lud_perimeterPfii
	.cfi_endproc
                                        # -- End function
	.globl	_Z27__device_stub__lud_internalPfii # -- Begin function _Z27__device_stub__lud_internalPfii
	.p2align	4, 0x90
	.type	_Z27__device_stub__lud_internalPfii,@function
_Z27__device_stub__lud_internalPfii:    # @_Z27__device_stub__lud_internalPfii
.Lfunc_begin2:
	.loc	7 177 0                         # ./cuda/lud_kernel.cu:177:0
	.cfi_startproc
# %bb.0:                                # %entry
	pushq	%rbp
	.cfi_def_cfa_offset 16
	.cfi_offset %rbp, -16
	movq	%rsp, %rbp
	.cfi_def_cfa_register %rbp
	subq	$144, %rsp
	movq	%rdi, -8(%rbp)
	movl	%esi, -12(%rbp)
	movl	%edx, -16(%rbp)
.Ltmp4:
	.loc	7 177 1 prologue_end            # ./cuda/lud_kernel.cu:177:1
	leaq	-8(%rbp), %rax
	movq	%rax, -128(%rbp)
	leaq	-12(%rbp), %rax
	movq	%rax, -120(%rbp)
	leaq	-16(%rbp), %rax
	movq	%rax, -112(%rbp)
	leaq	-32(%rbp), %rdi
	leaq	-48(%rbp), %rsi
	leaq	-56(%rbp), %rdx
	leaq	-64(%rbp), %rcx
	callq	__cudaPopCallConfiguration@PLT
	movq	-56(%rbp), %r10
	movq	-64(%rbp), %rax
	movq	-32(%rbp), %rcx
	movq	%rcx, -80(%rbp)
	movl	-24(%rbp), %ecx
	movl	%ecx, -72(%rbp)
	movq	-80(%rbp), %rsi
	movl	-72(%rbp), %edx
	movq	-48(%rbp), %rcx
	movq	%rcx, -96(%rbp)
	movl	-40(%rbp), %ecx
	movl	%ecx, -88(%rbp)
	movq	-96(%rbp), %rcx
	movl	-88(%rbp), %r8d
	leaq	_Z27__device_stub__lud_internalPfii(%rip), %rdi
	leaq	-128(%rbp), %r9
	movq	%r10, (%rsp)
	movq	%rax, 8(%rsp)
	callq	cudaLaunchKernel@PLT
# %bb.1:                                # %setup.end
	.loc	7 260 1 epilogue_begin          # ./cuda/lud_kernel.cu:260:1
	addq	$144, %rsp
	popq	%rbp
	.cfi_def_cfa %rsp, 8
	retq
.Ltmp5:
.Lfunc_end2:
	.size	_Z27__device_stub__lud_internalPfii, .Lfunc_end2-_Z27__device_stub__lud_internalPfii
	.cfi_endproc
                                        # -- End function
	.globl	_Z8lud_cudaPfi                  # -- Begin function _Z8lud_cudaPfi
	.p2align	4, 0x90
	.type	_Z8lud_cudaPfi,@function
_Z8lud_cudaPfi:                         # @_Z8lud_cudaPfi
.Lfunc_begin3:
	.loc	7 264 0                         # ./cuda/lud_kernel.cu:264:0
	.cfi_startproc
# %bb.0:                                # %entry
	pushq	%rbp
	.cfi_def_cfa_offset 16
	.cfi_offset %rbp, -16
	movq	%rsp, %rbp
	.cfi_def_cfa_register %rbp
	subq	$272, %rsp                      # imm = 0x110
	movq	%rdi, -8(%rbp)
	movl	%esi, -12(%rbp)
.Ltmp6:
	.loc	7 265 7 prologue_end            # ./cuda/lud_kernel.cu:265:7
	movl	$0, -16(%rbp)
	.loc	7 266 8                         # ./cuda/lud_kernel.cu:266:8
	leaq	-28(%rbp), %rdi
	movl	$16, %edx
	movl	$1, %ecx
	movl	%edx, %esi
	callq	_ZN4dim3C2Ejjj
.Ltmp7:
	.loc	7 270 9                         # ./cuda/lud_kernel.cu:270:9
	movl	$0, -16(%rbp)
.LBB3_1:                                # %for.cond
                                        # =>This Inner Loop Header: Depth=1
.Ltmp8:
	.loc	7 270 13 is_stmt 0              # ./cuda/lud_kernel.cu:270:13
	movl	-16(%rbp), %eax
	.loc	7 270 17                        # ./cuda/lud_kernel.cu:270:17
	movl	-12(%rbp), %ecx
	.loc	7 270 27                        # ./cuda/lud_kernel.cu:270:27
	subl	$16, %ecx
	.loc	7 270 15                        # ./cuda/lud_kernel.cu:270:15
	cmpl	%ecx, %eax
.Ltmp9:
	.loc	7 270 3                         # ./cuda/lud_kernel.cu:270:3
	jge	.LBB3_10
# %bb.2:                                # %for.body
                                        #   in Loop: Header=BB3_1 Depth=1
.Ltmp10:
	.loc	7 272 22 is_stmt 1              # ./cuda/lud_kernel.cu:272:22
	leaq	-40(%rbp), %rdi
	movl	$1, %ecx
	movl	%ecx, %esi
	movl	%ecx, %edx
	callq	_ZN4dim3C2Ejjj
	.loc	7 272 25 is_stmt 0              # ./cuda/lud_kernel.cu:272:25
	leaq	-52(%rbp), %rdi
	movl	$16, %esi
	movl	$1, %ecx
	movl	%ecx, %edx
	callq	_ZN4dim3C2Ejjj
	.loc	7 272 19                        # ./cuda/lud_kernel.cu:272:19
	movq	-40(%rbp), %rax
	movq	%rax, -68(%rbp)
	movl	-32(%rbp), %eax
	movl	%eax, -60(%rbp)
	movq	-68(%rbp), %rdi
	movl	-60(%rbp), %esi
	movq	-52(%rbp), %rax
	movq	%rax, -84(%rbp)
	movl	-44(%rbp), %eax
	movl	%eax, -76(%rbp)
	movq	-84(%rbp), %rdx
	movl	-76(%rbp), %ecx
	xorl	%eax, %eax
	movl	%eax, %r9d
	movq	%r9, %r8
	callq	__cudaPushCallConfiguration@PLT
	cmpl	$0, %eax
	.loc	7 272 7                         # ./cuda/lud_kernel.cu:272:7
	jne	.LBB3_4
# %bb.3:                                # %kcall.configok
                                        #   in Loop: Header=BB3_1 Depth=1
	.loc	7 272 31                        # ./cuda/lud_kernel.cu:272:31
	movq	-8(%rbp), %rdi
	.loc	7 272 34                        # ./cuda/lud_kernel.cu:272:34
	movl	-12(%rbp), %esi
	.loc	7 272 46                        # ./cuda/lud_kernel.cu:272:46
	movl	-16(%rbp), %edx
	.loc	7 272 7                         # ./cuda/lud_kernel.cu:272:7
	callq	_Z27__device_stub__lud_diagonalPfii
.LBB3_4:                                # %kcall.end
                                        #   in Loop: Header=BB3_1 Depth=1
	.loc	7 273 24 is_stmt 1              # ./cuda/lud_kernel.cu:273:24
	movl	-12(%rbp), %eax
	.loc	7 273 34 is_stmt 0              # ./cuda/lud_kernel.cu:273:34
	subl	-16(%rbp), %eax
	.loc	7 273 37                        # ./cuda/lud_kernel.cu:273:37
	movl	$16, %ecx
	cltd
	idivl	%ecx
	movl	%eax, %esi
	.loc	7 273 41                        # ./cuda/lud_kernel.cu:273:41
	subl	$1, %esi
	.loc	7 273 23                        # ./cuda/lud_kernel.cu:273:23
	leaq	-96(%rbp), %rdi
	movl	$1, %ecx
	movl	%ecx, %edx
	callq	_ZN4dim3C2Ejjj
	.loc	7 273 45                        # ./cuda/lud_kernel.cu:273:45
	leaq	-108(%rbp), %rdi
	movl	$32, %esi
	movl	$1, %ecx
	movl	%ecx, %edx
	callq	_ZN4dim3C2Ejjj
	.loc	7 273 20                        # ./cuda/lud_kernel.cu:273:20
	movq	-96(%rbp), %rax
	movq	%rax, -124(%rbp)
	movl	-88(%rbp), %eax
	movl	%eax, -116(%rbp)
	movq	-124(%rbp), %rdi
	movl	-116(%rbp), %esi
	movq	-108(%rbp), %rax
	movq	%rax, -140(%rbp)
	movl	-100(%rbp), %eax
	movl	%eax, -132(%rbp)
	movq	-140(%rbp), %rdx
	movl	-132(%rbp), %ecx
	xorl	%eax, %eax
	movl	%eax, %r9d
	movq	%r9, %r8
	callq	__cudaPushCallConfiguration@PLT
	cmpl	$0, %eax
	.loc	7 273 7                         # ./cuda/lud_kernel.cu:273:7
	jne	.LBB3_6
# %bb.5:                                # %kcall.configok8
                                        #   in Loop: Header=BB3_1 Depth=1
	.loc	7 273 53                        # ./cuda/lud_kernel.cu:273:53
	movq	-8(%rbp), %rdi
	.loc	7 273 56                        # ./cuda/lud_kernel.cu:273:56
	movl	-12(%rbp), %esi
	.loc	7 273 68                        # ./cuda/lud_kernel.cu:273:68
	movl	-16(%rbp), %edx
	.loc	7 273 7                         # ./cuda/lud_kernel.cu:273:7
	callq	_Z28__device_stub__lud_perimeterPfii
.LBB3_6:                                # %kcall.end9
                                        #   in Loop: Header=BB3_1 Depth=1
	.loc	7 274 21 is_stmt 1              # ./cuda/lud_kernel.cu:274:21
	movl	-12(%rbp), %eax
	.loc	7 274 31 is_stmt 0              # ./cuda/lud_kernel.cu:274:31
	subl	-16(%rbp), %eax
	.loc	7 274 34                        # ./cuda/lud_kernel.cu:274:34
	movl	$16, %ecx
	cltd
	idivl	%ecx
	movl	%eax, %esi
	.loc	7 274 38                        # ./cuda/lud_kernel.cu:274:38
	subl	$1, %esi
	.loc	7 274 43                        # ./cuda/lud_kernel.cu:274:43
	movl	-12(%rbp), %eax
	.loc	7 274 53                        # ./cuda/lud_kernel.cu:274:53
	subl	-16(%rbp), %eax
	.loc	7 274 56                        # ./cuda/lud_kernel.cu:274:56
	movl	$16, %ecx
	cltd
	idivl	%ecx
	movl	%eax, %edx
	.loc	7 274 60                        # ./cuda/lud_kernel.cu:274:60
	subl	$1, %edx
	.loc	7 274 12                        # ./cuda/lud_kernel.cu:274:12
	leaq	-152(%rbp), %rdi
	movl	$1, %ecx
	callq	_ZN4dim3C2Ejjj
	.loc	7 275 22 is_stmt 1              # ./cuda/lud_kernel.cu:275:22
	movq	-152(%rbp), %rax
	movq	%rax, -164(%rbp)
	movl	-144(%rbp), %eax
	movl	%eax, -156(%rbp)
	.loc	7 275 31 is_stmt 0              # ./cuda/lud_kernel.cu:275:31
	movq	-28(%rbp), %rax
	movq	%rax, -176(%rbp)
	movl	-20(%rbp), %eax
	movl	%eax, -168(%rbp)
	.loc	7 275 19                        # ./cuda/lud_kernel.cu:275:19
	movq	-164(%rbp), %rax
	movq	%rax, -192(%rbp)
	movl	-156(%rbp), %eax
	movl	%eax, -184(%rbp)
	movq	-192(%rbp), %rdi
	movl	-184(%rbp), %esi
	movq	-176(%rbp), %rax
	movq	%rax, -208(%rbp)
	movl	-168(%rbp), %eax
	movl	%eax, -200(%rbp)
	movq	-208(%rbp), %rdx
	movl	-200(%rbp), %ecx
	xorl	%eax, %eax
	movl	%eax, %r9d
	movq	%r9, %r8
	callq	__cudaPushCallConfiguration@PLT
	cmpl	$0, %eax
	.loc	7 275 7                         # ./cuda/lud_kernel.cu:275:7
	jne	.LBB3_8
# %bb.7:                                # %kcall.configok20
                                        #   in Loop: Header=BB3_1 Depth=1
	.loc	7 275 43                        # ./cuda/lud_kernel.cu:275:43
	movq	-8(%rbp), %rdi
	.loc	7 275 46                        # ./cuda/lud_kernel.cu:275:46
	movl	-12(%rbp), %esi
	.loc	7 275 58                        # ./cuda/lud_kernel.cu:275:58
	movl	-16(%rbp), %edx
	.loc	7 275 7                         # ./cuda/lud_kernel.cu:275:7
	callq	_Z27__device_stub__lud_internalPfii
.LBB3_8:                                # %kcall.end21
                                        #   in Loop: Header=BB3_1 Depth=1
	.loc	7 276 3 is_stmt 1               # ./cuda/lud_kernel.cu:276:3
	jmp	.LBB3_9
.Ltmp11:
.LBB3_9:                                # %for.inc
                                        #   in Loop: Header=BB3_1 Depth=1
	.loc	7 270 34                        # ./cuda/lud_kernel.cu:270:34
	movl	-16(%rbp), %eax
	addl	$16, %eax
	movl	%eax, -16(%rbp)
	.loc	7 270 3 is_stmt 0               # ./cuda/lud_kernel.cu:270:3
	jmp	.LBB3_1
.Ltmp12:
.LBB3_10:                               # %for.end
	.loc	7 277 18 is_stmt 1              # ./cuda/lud_kernel.cu:277:18
	leaq	-220(%rbp), %rdi
	movl	$1, %ecx
	movl	%ecx, %esi
	movl	%ecx, %edx
	callq	_ZN4dim3C2Ejjj
	.loc	7 277 20 is_stmt 0              # ./cuda/lud_kernel.cu:277:20
	leaq	-232(%rbp), %rdi
	movl	$16, %esi
	movl	$1, %ecx
	movl	%ecx, %edx
	callq	_ZN4dim3C2Ejjj
	.loc	7 277 15                        # ./cuda/lud_kernel.cu:277:15
	movq	-220(%rbp), %rax
	movq	%rax, -248(%rbp)
	movl	-212(%rbp), %eax
	movl	%eax, -240(%rbp)
	movq	-248(%rbp), %rdi
	movl	-240(%rbp), %esi
	movq	-232(%rbp), %rax
	movq	%rax, -264(%rbp)
	movl	-224(%rbp), %eax
	movl	%eax, -256(%rbp)
	movq	-264(%rbp), %rdx
	movl	-256(%rbp), %ecx
	xorl	%eax, %eax
	movl	%eax, %r9d
	movq	%r9, %r8
	callq	__cudaPushCallConfiguration@PLT
	cmpl	$0, %eax
	.loc	7 277 3                         # ./cuda/lud_kernel.cu:277:3
	jne	.LBB3_12
# %bb.11:                               # %kcall.configok26
	.loc	7 277 26                        # ./cuda/lud_kernel.cu:277:26
	movq	-8(%rbp), %rdi
	.loc	7 277 29                        # ./cuda/lud_kernel.cu:277:29
	movl	-12(%rbp), %esi
	.loc	7 277 41                        # ./cuda/lud_kernel.cu:277:41
	movl	-16(%rbp), %edx
	.loc	7 277 3                         # ./cuda/lud_kernel.cu:277:3
	callq	_Z27__device_stub__lud_diagonalPfii
.LBB3_12:                               # %kcall.end27
	.loc	7 278 1 epilogue_begin is_stmt 1 # ./cuda/lud_kernel.cu:278:1
	addq	$272, %rsp                      # imm = 0x110
	popq	%rbp
	.cfi_def_cfa %rsp, 8
	retq
.Ltmp13:
.Lfunc_end3:
	.size	_Z8lud_cudaPfi, .Lfunc_end3-_Z8lud_cudaPfi
	.cfi_endproc
                                        # -- End function
	.section	.text._ZN4dim3C2Ejjj,"axG",@progbits,_ZN4dim3C2Ejjj,comdat
	.weak	_ZN4dim3C2Ejjj                  # -- Begin function _ZN4dim3C2Ejjj
	.p2align	4, 0x90
	.type	_ZN4dim3C2Ejjj,@function
_ZN4dim3C2Ejjj:                         # @_ZN4dim3C2Ejjj
.Lfunc_begin4:
	.loc	6 423 0                         # cuda-12.1/include/vector_types.h:423:0
	.cfi_startproc
# %bb.0:                                # %entry
	pushq	%rbp
	.cfi_def_cfa_offset 16
	.cfi_offset %rbp, -16
	movq	%rsp, %rbp
	.cfi_def_cfa_register %rbp
	movq	%rdi, -8(%rbp)
	movl	%esi, -12(%rbp)
	movl	%edx, -16(%rbp)
	movl	%ecx, -20(%rbp)
	movq	-8(%rbp), %rax
.Ltmp14:
	.loc	6 423 133 prologue_end          # cuda-12.1/include/vector_types.h:423:133
	movl	-12(%rbp), %ecx
	.loc	6 423 131 is_stmt 0             # cuda-12.1/include/vector_types.h:423:131
	movl	%ecx, (%rax)
	.loc	6 423 140                       # cuda-12.1/include/vector_types.h:423:140
	movl	-16(%rbp), %ecx
	.loc	6 423 138                       # cuda-12.1/include/vector_types.h:423:138
	movl	%ecx, 4(%rax)
	.loc	6 423 147                       # cuda-12.1/include/vector_types.h:423:147
	movl	-20(%rbp), %ecx
	.loc	6 423 145                       # cuda-12.1/include/vector_types.h:423:145
	movl	%ecx, 8(%rax)
	.loc	6 423 152 epilogue_begin        # cuda-12.1/include/vector_types.h:423:152
	popq	%rbp
	.cfi_def_cfa %rsp, 8
	retq
.Ltmp15:
.Lfunc_end4:
	.size	_ZN4dim3C2Ejjj, .Lfunc_end4-_ZN4dim3C2Ejjj
	.cfi_endproc
                                        # -- End function
	.section	.rodata.cst8,"aM",@progbits,8
	.p2align	3, 0x0                          # -- Begin function main
.LCPI5_0:
	.quad	0x408f400000000000              # double 1000
	.text
	.globl	main
	.p2align	4, 0x90
	.type	main,@function
main:                                   # @main
.Lfunc_begin5:
	.loc	1 70 0 is_stmt 1                # ./cuda/lud.cu:70:0
	.cfi_startproc
# %bb.0:                                # %entry
	pushq	%rbp
	.cfi_def_cfa_offset 16
	.cfi_offset %rbp, -16
	movq	%rsp, %rbp
	.cfi_def_cfa_register %rbp
	subq	$112, %rsp
	movl	$0, -4(%rbp)
	movl	%edi, -8(%rbp)
	movq	%rsi, -16(%rbp)
.Ltmp16:
	.loc	1 71 3 prologue_end             # ./cuda/lud.cu:71:3
	leaq	.L.str(%rip), %rdi
	movl	$16, %edx
	movl	%edx, %esi
	movb	$0, %al
	callq	printf@PLT
	.loc	1 73 7                          # ./cuda/lud.cu:73:7
	movl	$32, -20(%rbp)
	.loc	1 74 12                         # ./cuda/lud.cu:74:12
	movl	$0, -28(%rbp)
	.loc	1 76 15                         # ./cuda/lud.cu:76:15
	movq	$0, -40(%rbp)
.LBB5_1:                                # %while.cond
                                        # =>This Inner Loop Header: Depth=1
	.loc	1 80 29                         # ./cuda/lud.cu:80:29
	movl	-8(%rbp), %edi
	.loc	1 80 35 is_stmt 0               # ./cuda/lud.cu:80:35
	movq	-16(%rbp), %rsi
	.loc	1 80 17                         # ./cuda/lud.cu:80:17
	leaq	.L.str.1(%rip), %rdx
	leaq	_ZL12long_options(%rip), %rcx
	leaq	-28(%rbp), %r8
	callq	getopt_long@PLT
	.loc	1 80 15                         # ./cuda/lud.cu:80:15
	movl	%eax, -24(%rbp)
	.loc	1 81 59 is_stmt 1               # ./cuda/lud.cu:81:59
	cmpl	$-1, %eax
	.loc	1 80 3                          # ./cuda/lud.cu:80:3
	je	.LBB5_10
# %bb.2:                                # %while.body
                                        #   in Loop: Header=BB5_1 Depth=1
.Ltmp17:
	.loc	1 82 12                         # ./cuda/lud.cu:82:12
	movl	-24(%rbp), %eax
	movl	%eax, -100(%rbp)                # 4-byte Spill
	.loc	1 82 5 is_stmt 0                # ./cuda/lud.cu:82:5
	subl	$58, %eax
	je	.LBB5_7
	jmp	.LBB5_28
.LBB5_28:                               # %while.body
                                        #   in Loop: Header=BB5_1 Depth=1
	.loc	1 0 5                           # ./cuda/lud.cu:0:5
	movl	-100(%rbp), %eax                # 4-byte Reload
	.loc	1 82 5                          # ./cuda/lud.cu:82:5
	subl	$63, %eax
	je	.LBB5_6
	jmp	.LBB5_29
.LBB5_29:                               # %while.body
                                        #   in Loop: Header=BB5_1 Depth=1
	.loc	1 0 5                           # ./cuda/lud.cu:0:5
	movl	-100(%rbp), %eax                # 4-byte Reload
	.loc	1 82 5                          # ./cuda/lud.cu:82:5
	subl	$105, %eax
	je	.LBB5_3
	jmp	.LBB5_30
.LBB5_30:                               # %while.body
                                        #   in Loop: Header=BB5_1 Depth=1
	.loc	1 0 5                           # ./cuda/lud.cu:0:5
	movl	-100(%rbp), %eax                # 4-byte Reload
	.loc	1 82 5                          # ./cuda/lud.cu:82:5
	subl	$115, %eax
	je	.LBB5_5
	jmp	.LBB5_31
.LBB5_31:                               # %while.body
                                        #   in Loop: Header=BB5_1 Depth=1
	.loc	1 0 5                           # ./cuda/lud.cu:0:5
	movl	-100(%rbp), %eax                # 4-byte Reload
	.loc	1 82 5                          # ./cuda/lud.cu:82:5
	subl	$118, %eax
	je	.LBB5_4
	jmp	.LBB5_8
.LBB5_3:                                # %sw.bb
                                        #   in Loop: Header=BB5_1 Depth=1
.Ltmp18:
	.loc	1 84 20 is_stmt 1               # ./cuda/lud.cu:84:20
	movq	optarg@GOTPCREL(%rip), %rax
	movq	(%rax), %rax
	.loc	1 84 18 is_stmt 0               # ./cuda/lud.cu:84:18
	movq	%rax, -40(%rbp)
	.loc	1 85 7 is_stmt 1                # ./cuda/lud.cu:85:7
	jmp	.LBB5_9
.LBB5_4:                                # %sw.bb2
                                        #   in Loop: Header=BB5_1 Depth=1
	.loc	1 87 17                         # ./cuda/lud.cu:87:17
	movl	$1, _ZL9do_verify(%rip)
	.loc	1 88 7                          # ./cuda/lud.cu:88:7
	jmp	.LBB5_9
.LBB5_5:                                # %sw.bb3
                                        #   in Loop: Header=BB5_1 Depth=1
	.loc	1 90 25                         # ./cuda/lud.cu:90:25
	movq	optarg@GOTPCREL(%rip), %rax
	movq	(%rax), %rdi
	.loc	1 90 20 is_stmt 0               # ./cuda/lud.cu:90:20
	callq	atoi@PLT
	.loc	1 90 18                         # ./cuda/lud.cu:90:18
	movl	%eax, -20(%rbp)
	.loc	1 91 62 is_stmt 1               # ./cuda/lud.cu:91:62
	movl	-20(%rbp), %esi
	.loc	1 91 7 is_stmt 0                # ./cuda/lud.cu:91:7
	leaq	.L.str.2(%rip), %rdi
	movb	$0, %al
	callq	printf@PLT
	.loc	1 95 7 is_stmt 1                # ./cuda/lud.cu:95:7
	jmp	.LBB5_9
.LBB5_6:                                # %sw.bb6
                                        #   in Loop: Header=BB5_1 Depth=1
	.loc	1 97 15                         # ./cuda/lud.cu:97:15
	movq	stderr@GOTPCREL(%rip), %rax
	movq	(%rax), %rdi
	.loc	1 97 7 is_stmt 0                # ./cuda/lud.cu:97:7
	leaq	.L.str.3(%rip), %rsi
	movb	$0, %al
	callq	fprintf@PLT
	.loc	1 98 7 is_stmt 1                # ./cuda/lud.cu:98:7
	jmp	.LBB5_9
.LBB5_7:                                # %sw.bb8
                                        #   in Loop: Header=BB5_1 Depth=1
	.loc	1 100 15                        # ./cuda/lud.cu:100:15
	movq	stderr@GOTPCREL(%rip), %rax
	movq	(%rax), %rdi
	.loc	1 100 7 is_stmt 0               # ./cuda/lud.cu:100:7
	leaq	.L.str.4(%rip), %rsi
	movb	$0, %al
	callq	fprintf@PLT
	.loc	1 101 7 is_stmt 1               # ./cuda/lud.cu:101:7
	jmp	.LBB5_9
.LBB5_8:                                # %sw.default
	.loc	1 103 15                        # ./cuda/lud.cu:103:15
	movq	stderr@GOTPCREL(%rip), %rax
	movq	(%rax), %rdi
	.loc	1 104 8                         # ./cuda/lud.cu:104:8
	movq	-16(%rbp), %rax
	movq	(%rax), %rdx
	.loc	1 103 7                         # ./cuda/lud.cu:103:7
	leaq	.L.str.5(%rip), %rsi
	movb	$0, %al
	callq	fprintf@PLT
	.loc	1 105 7                         # ./cuda/lud.cu:105:7
	movl	$1, %edi
	callq	exit@PLT
.Ltmp19:
.LBB5_9:                                # %sw.epilog
                                        #   in Loop: Header=BB5_1 Depth=1
	.loc	1 80 3                          # ./cuda/lud.cu:80:3
	jmp	.LBB5_1
.LBB5_10:                               # %while.end
.Ltmp20:
	.loc	1 109 9                         # ./cuda/lud.cu:109:9
	movq	optind@GOTPCREL(%rip), %rax
	movl	(%rax), %eax
	.loc	1 109 16 is_stmt 0              # ./cuda/lud.cu:109:16
	cmpl	-8(%rbp), %eax
	.loc	1 109 24                        # ./cuda/lud.cu:109:24
	jl	.LBB5_12
# %bb.11:                               # %lor.lhs.false
	.loc	1 109 35                        # ./cuda/lud.cu:109:35
	movq	optind@GOTPCREL(%rip), %rax
	cmpl	$1, (%rax)
.Ltmp21:
	.loc	1 109 8                         # ./cuda/lud.cu:109:8
	jne	.LBB5_13
.LBB5_12:                               # %if.then
.Ltmp22:
	.loc	1 110 13 is_stmt 1              # ./cuda/lud.cu:110:13
	movq	stderr@GOTPCREL(%rip), %rax
	movq	(%rax), %rdi
	.loc	1 110 72 is_stmt 0              # ./cuda/lud.cu:110:72
	movq	-16(%rbp), %rax
	movq	(%rax), %rdx
	.loc	1 110 5                         # ./cuda/lud.cu:110:5
	leaq	.L.str.5(%rip), %rsi
	movb	$0, %al
	callq	fprintf@PLT
	.loc	1 111 5 is_stmt 1               # ./cuda/lud.cu:111:5
	movl	$1, %edi
	callq	exit@PLT
.Ltmp23:
.LBB5_13:                               # %if.end
	.loc	1 114 7                         # ./cuda/lud.cu:114:7
	cmpq	$0, -40(%rbp)
.Ltmp24:
	.loc	1 114 7 is_stmt 0               # ./cuda/lud.cu:114:7
	je	.LBB5_17
# %bb.14:                               # %if.then15
.Ltmp25:
	.loc	1 115 45 is_stmt 1              # ./cuda/lud.cu:115:45
	movq	-40(%rbp), %rsi
	.loc	1 115 5 is_stmt 0               # ./cuda/lud.cu:115:5
	leaq	.L.str.6(%rip), %rdi
	movb	$0, %al
	callq	printf@PLT
	.loc	1 116 39 is_stmt 1              # ./cuda/lud.cu:116:39
	movq	-40(%rbp), %rsi
	.loc	1 116 11 is_stmt 0              # ./cuda/lud.cu:116:11
	leaq	-48(%rbp), %rdi
	leaq	-20(%rbp), %rdx
	callq	create_matrix_from_file@PLT
	.loc	1 116 9                         # ./cuda/lud.cu:116:9
	movl	%eax, -32(%rbp)
.Ltmp26:
	.loc	1 117 13 is_stmt 1              # ./cuda/lud.cu:117:13
	cmpl	$0, -32(%rbp)
.Ltmp27:
	.loc	1 117 9 is_stmt 0               # ./cuda/lud.cu:117:9
	je	.LBB5_16
# %bb.15:                               # %if.then19
.Ltmp28:
	.loc	1 118 9 is_stmt 1               # ./cuda/lud.cu:118:9
	movq	$0, -48(%rbp)
	.loc	1 119 15                        # ./cuda/lud.cu:119:15
	movq	stderr@GOTPCREL(%rip), %rax
	movq	(%rax), %rdi
	.loc	1 119 61 is_stmt 0              # ./cuda/lud.cu:119:61
	movq	-40(%rbp), %rdx
	.loc	1 119 7                         # ./cuda/lud.cu:119:7
	leaq	.L.str.7(%rip), %rsi
	movb	$0, %al
	callq	fprintf@PLT
	.loc	1 120 7 is_stmt 1               # ./cuda/lud.cu:120:7
	movl	$1, %edi
	callq	exit@PLT
.Ltmp29:
.LBB5_16:                               # %if.end21
	.loc	1 122 3                         # ./cuda/lud.cu:122:3
	jmp	.LBB5_23
.Ltmp30:
.LBB5_17:                               # %if.else
	.loc	1 123 12                        # ./cuda/lud.cu:123:12
	cmpl	$0, -20(%rbp)
.Ltmp31:
	.loc	1 123 12 is_stmt 0              # ./cuda/lud.cu:123:12
	je	.LBB5_21
# %bb.18:                               # %if.then23
.Ltmp32:
	.loc	1 124 52 is_stmt 1              # ./cuda/lud.cu:124:52
	movl	-20(%rbp), %esi
	.loc	1 124 5 is_stmt 0               # ./cuda/lud.cu:124:5
	leaq	.L.str.8(%rip), %rdi
	movb	$0, %al
	callq	printf@PLT
	.loc	1 125 29 is_stmt 1              # ./cuda/lud.cu:125:29
	movl	-20(%rbp), %esi
	.loc	1 125 11 is_stmt 0              # ./cuda/lud.cu:125:11
	leaq	-48(%rbp), %rdi
	callq	create_matrix@PLT
	.loc	1 125 9                         # ./cuda/lud.cu:125:9
	movl	%eax, -32(%rbp)
.Ltmp33:
	.loc	1 126 13 is_stmt 1              # ./cuda/lud.cu:126:13
	cmpl	$0, -32(%rbp)
.Ltmp34:
	.loc	1 126 9 is_stmt 0               # ./cuda/lud.cu:126:9
	je	.LBB5_20
# %bb.19:                               # %if.then27
.Ltmp35:
	.loc	1 127 9 is_stmt 1               # ./cuda/lud.cu:127:9
	movq	$0, -48(%rbp)
	.loc	1 128 15                        # ./cuda/lud.cu:128:15
	movq	stderr@GOTPCREL(%rip), %rax
	movq	(%rax), %rdi
	.loc	1 128 67 is_stmt 0              # ./cuda/lud.cu:128:67
	movl	-20(%rbp), %edx
	.loc	1 128 7                         # ./cuda/lud.cu:128:7
	leaq	.L.str.9(%rip), %rsi
	movb	$0, %al
	callq	fprintf@PLT
	.loc	1 129 7 is_stmt 1               # ./cuda/lud.cu:129:7
	movl	$1, %edi
	callq	exit@PLT
.Ltmp36:
.LBB5_20:                               # %if.end29
	.loc	1 131 3                         # ./cuda/lud.cu:131:3
	jmp	.LBB5_22
.Ltmp37:
.LBB5_21:                               # %if.else30
	.loc	1 135 5                         # ./cuda/lud.cu:135:5
	leaq	.L.str.10(%rip), %rdi
	movb	$0, %al
	callq	printf@PLT
	.loc	1 136 5                         # ./cuda/lud.cu:136:5
	movl	$1, %edi
	callq	exit@PLT
.Ltmp38:
.LBB5_22:                               # %if.end32
	.loc	1 0 5 is_stmt 0                 # ./cuda/lud.cu:0:5
	jmp	.LBB5_23
.LBB5_23:                               # %if.end33
.Ltmp39:
	.loc	1 139 7 is_stmt 1               # ./cuda/lud.cu:139:7
	cmpl	$0, _ZL9do_verify(%rip)
.Ltmp40:
	.loc	1 139 7 is_stmt 0               # ./cuda/lud.cu:139:7
	je	.LBB5_25
# %bb.24:                               # %if.then35
.Ltmp41:
	.loc	1 140 5 is_stmt 1               # ./cuda/lud.cu:140:5
	leaq	.L.str.11(%rip), %rdi
	movb	$0, %al
	callq	printf@PLT
	.loc	1 142 22                        # ./cuda/lud.cu:142:22
	movq	-48(%rbp), %rdi
	.loc	1 142 30 is_stmt 0              # ./cuda/lud.cu:142:30
	movl	-20(%rbp), %edx
	.loc	1 142 5                         # ./cuda/lud.cu:142:5
	leaq	-64(%rbp), %rsi
	callq	matrix_duplicate@PLT
.Ltmp42:
.LBB5_25:                               # %if.end37
	.loc	1 146 14 is_stmt 1              # ./cuda/lud.cu:146:14
	movl	-20(%rbp), %eax
	.loc	1 146 24 is_stmt 0              # ./cuda/lud.cu:146:24
	imull	-20(%rbp), %eax
	.loc	1 146 14                        # ./cuda/lud.cu:146:14
	movslq	%eax, %rsi
	.loc	1 146 35                        # ./cuda/lud.cu:146:35
	shlq	$2, %rsi
	.loc	1 145 3 is_stmt 1               # ./cuda/lud.cu:145:3
	leaq	-56(%rbp), %rdi
	callq	cudaMalloc@PLT
	.loc	1 149 3                         # ./cuda/lud.cu:149:3
	leaq	-96(%rbp), %rdi
	callq	stopwatch_start@PLT
	.loc	1 150 14                        # ./cuda/lud.cu:150:14
	movq	-56(%rbp), %rdi
	.loc	1 150 19 is_stmt 0              # ./cuda/lud.cu:150:19
	movq	-48(%rbp), %rsi
	.loc	1 150 22                        # ./cuda/lud.cu:150:22
	movl	-20(%rbp), %eax
	.loc	1 150 32                        # ./cuda/lud.cu:150:32
	imull	-20(%rbp), %eax
	.loc	1 150 22                        # ./cuda/lud.cu:150:22
	movslq	%eax, %rdx
	.loc	1 150 43                        # ./cuda/lud.cu:150:43
	shlq	$2, %rdx
	.loc	1 150 3                         # ./cuda/lud.cu:150:3
	movl	$1, %ecx
	callq	cudaMemcpy@PLT
	.loc	1 157 12 is_stmt 1              # ./cuda/lud.cu:157:12
	movq	-56(%rbp), %rdi
	.loc	1 157 17 is_stmt 0              # ./cuda/lud.cu:157:17
	movl	-20(%rbp), %esi
	.loc	1 157 3                         # ./cuda/lud.cu:157:3
	callq	_Z8lud_cudaPfi
	.loc	1 165 14 is_stmt 1              # ./cuda/lud.cu:165:14
	movq	-48(%rbp), %rdi
	.loc	1 165 17 is_stmt 0              # ./cuda/lud.cu:165:17
	movq	-56(%rbp), %rsi
	.loc	1 165 22                        # ./cuda/lud.cu:165:22
	movl	-20(%rbp), %eax
	.loc	1 165 32                        # ./cuda/lud.cu:165:32
	imull	-20(%rbp), %eax
	.loc	1 165 22                        # ./cuda/lud.cu:165:22
	movslq	%eax, %rdx
	.loc	1 165 43                        # ./cuda/lud.cu:165:43
	shlq	$2, %rdx
	.loc	1 165 3                         # ./cuda/lud.cu:165:3
	movl	$2, %ecx
	callq	cudaMemcpy@PLT
	.loc	1 169 3 is_stmt 1               # ./cuda/lud.cu:169:3
	leaq	-96(%rbp), %rdi
	callq	stopwatch_stop@PLT
	.loc	1 170 43                        # ./cuda/lud.cu:170:43
	leaq	-96(%rbp), %rdi
	callq	get_interval_by_sec@PLT
	movaps	%xmm0, %xmm1
	.loc	1 170 42 is_stmt 0              # ./cuda/lud.cu:170:42
	movsd	.LCPI5_0(%rip), %xmm0           # xmm0 = [1.0E+3,0.0E+0]
	mulsd	%xmm1, %xmm0
	.loc	1 170 3                         # ./cuda/lud.cu:170:3
	leaq	.L.str.12(%rip), %rdi
	movb	$1, %al
	callq	printf@PLT
	.loc	1 172 12 is_stmt 1              # ./cuda/lud.cu:172:12
	movq	-56(%rbp), %rdi
	.loc	1 172 3 is_stmt 0               # ./cuda/lud.cu:172:3
	callq	cudaFree@PLT
.Ltmp43:
	.loc	1 175 7 is_stmt 1               # ./cuda/lud.cu:175:7
	cmpl	$0, _ZL9do_verify(%rip)
.Ltmp44:
	.loc	1 175 7 is_stmt 0               # ./cuda/lud.cu:175:7
	je	.LBB5_27
# %bb.26:                               # %if.then53
.Ltmp45:
	.loc	1 176 5 is_stmt 1               # ./cuda/lud.cu:176:5
	leaq	.L.str.13(%rip), %rdi
	movb	$0, %al
	callq	printf@PLT
	.loc	1 178 34                        # ./cuda/lud.cu:178:34
	movl	-20(%rbp), %esi
	.loc	1 178 5 is_stmt 0               # ./cuda/lud.cu:178:5
	leaq	.L.str.14(%rip), %rdi
	movb	$0, %al
	callq	printf@PLT
	.loc	1 179 16 is_stmt 1              # ./cuda/lud.cu:179:16
	movq	-64(%rbp), %rdi
	.loc	1 179 20 is_stmt 0              # ./cuda/lud.cu:179:20
	movq	-48(%rbp), %rsi
	.loc	1 179 23                        # ./cuda/lud.cu:179:23
	movl	-20(%rbp), %edx
	.loc	1 179 5                         # ./cuda/lud.cu:179:5
	callq	lud_verify@PLT
	.loc	1 180 10 is_stmt 1              # ./cuda/lud.cu:180:10
	movq	-64(%rbp), %rdi
	.loc	1 180 5 is_stmt 0               # ./cuda/lud.cu:180:5
	callq	free@PLT
.Ltmp46:
.LBB5_27:                               # %if.end57
	.loc	1 183 8 is_stmt 1               # ./cuda/lud.cu:183:8
	movq	-48(%rbp), %rdi
	.loc	1 183 3 is_stmt 0               # ./cuda/lud.cu:183:3
	callq	free@PLT
	.loc	1 189 3 is_stmt 1               # ./cuda/lud.cu:189:3
	xorl	%eax, %eax
	.loc	1 189 3 epilogue_begin is_stmt 0 # ./cuda/lud.cu:189:3
	addq	$112, %rsp
	popq	%rbp
	.cfi_def_cfa %rsp, 8
	retq
.Ltmp47:
.Lfunc_end5:
	.size	main, .Lfunc_end5-main
	.cfi_endproc
                                        # -- End function
	.p2align	4, 0x90                         # -- Begin function __cuda_register_globals
	.type	__cuda_register_globals,@function
__cuda_register_globals:                # @__cuda_register_globals
.Lfunc_begin6:
	.cfi_startproc
# %bb.0:                                # %entry
	subq	$40, %rsp
	.cfi_def_cfa_offset 48
	movq	%rdi, 32(%rsp)                  # 8-byte Spill
	leaq	_Z27__device_stub__lud_diagonalPfii(%rip), %rsi
	leaq	.L__unnamed_1(%rip), %rcx
	movl	$4294967295, %r8d               # imm = 0xFFFFFFFF
	xorl	%eax, %eax
	movl	%eax, %r9d
	movq	%rcx, %rdx
	movq	$0, (%rsp)
	movq	$0, 8(%rsp)
	movq	$0, 16(%rsp)
	movq	$0, 24(%rsp)
	callq	__cudaRegisterFunction@PLT
	movq	32(%rsp), %rdi                  # 8-byte Reload
	leaq	_Z28__device_stub__lud_perimeterPfii(%rip), %rsi
	leaq	.L__unnamed_2(%rip), %rcx
	movl	$4294967295, %r8d               # imm = 0xFFFFFFFF
	xorl	%eax, %eax
	movl	%eax, %r9d
	movq	%rcx, %rdx
	movq	$0, (%rsp)
	movq	$0, 8(%rsp)
	movq	$0, 16(%rsp)
	movq	$0, 24(%rsp)
	callq	__cudaRegisterFunction@PLT
	movq	32(%rsp), %rdi                  # 8-byte Reload
	leaq	_Z27__device_stub__lud_internalPfii(%rip), %rsi
	leaq	.L__unnamed_3(%rip), %rcx
	movl	$4294967295, %r8d               # imm = 0xFFFFFFFF
	xorl	%eax, %eax
	movl	%eax, %r9d
	movq	%rcx, %rdx
	movq	$0, (%rsp)
	movq	$0, 8(%rsp)
	movq	$0, 16(%rsp)
	movq	$0, 24(%rsp)
	callq	__cudaRegisterFunction@PLT
	addq	$40, %rsp
	.cfi_def_cfa_offset 8
	retq
.Lfunc_end6:
	.size	__cuda_register_globals, .Lfunc_end6-__cuda_register_globals
	.cfi_endproc
                                        # -- End function
	.p2align	4, 0x90                         # -- Begin function __cuda_module_ctor
	.type	__cuda_module_ctor,@function
__cuda_module_ctor:                     # @__cuda_module_ctor
.Lfunc_begin7:
	.cfi_startproc
# %bb.0:                                # %entry
	pushq	%rax
	.cfi_def_cfa_offset 16
	leaq	__cuda_fatbin_wrapper(%rip), %rdi
	callq	__cudaRegisterFatBinary@PLT
	movq	%rax, %rdi
	movq	%rdi, (%rsp)                    # 8-byte Spill
	movq	%rdi, __cuda_gpubin_handle(%rip)
	callq	__cuda_register_globals
	movq	(%rsp), %rdi                    # 8-byte Reload
	callq	__cudaRegisterFatBinaryEnd@PLT
	leaq	__cuda_module_dtor(%rip), %rdi
	callq	atexit@PLT
	popq	%rax
	.cfi_def_cfa_offset 8
	retq
.Lfunc_end7:
	.size	__cuda_module_ctor, .Lfunc_end7-__cuda_module_ctor
	.cfi_endproc
                                        # -- End function
	.p2align	4, 0x90                         # -- Begin function __cuda_module_dtor
	.type	__cuda_module_dtor,@function
__cuda_module_dtor:                     # @__cuda_module_dtor
.Lfunc_begin8:
	.cfi_startproc
# %bb.0:                                # %entry
	pushq	%rax
	.cfi_def_cfa_offset 16
	movq	__cuda_gpubin_handle(%rip), %rdi
	callq	__cudaUnregisterFatBinary@PLT
	popq	%rax
	.cfi_def_cfa_offset 8
	retq
.Lfunc_end8:
	.size	__cuda_module_dtor, .Lfunc_end8-__cuda_module_dtor
	.cfi_endproc
                                        # -- End function
	.type	.L.str,@object                  # @.str
	.section	.rodata.str1.1,"aMS",@progbits,1
.L.str:
	.asciz	"WG size of kernel = %d X %d\n"
	.size	.L.str, 29

	.type	.L.str.1,@object                # @.str.1
.L.str.1:
	.asciz	"::vs:i:"
	.size	.L.str.1, 8

	.type	_ZL12long_options,@object       # @_ZL12long_options
	.data
	.p2align	4, 0x0
_ZL12long_options:
	.quad	.L.str.15
	.long	1                               # 0x1
	.zero	4
	.quad	0
	.long	105                             # 0x69
	.zero	4
	.quad	.L.str.16
	.long	1                               # 0x1
	.zero	4
	.quad	0
	.long	115                             # 0x73
	.zero	4
	.quad	.L.str.17
	.long	0                               # 0x0
	.zero	4
	.quad	0
	.long	118                             # 0x76
	.zero	4
	.zero	32
	.size	_ZL12long_options, 128

	.type	_ZL9do_verify,@object           # @_ZL9do_verify
	.local	_ZL9do_verify
	.comm	_ZL9do_verify,4,4
	.type	.L.str.2,@object                # @.str.2
	.section	.rodata.str1.1,"aMS",@progbits,1
.L.str.2:
	.asciz	"Generate input matrix internally, size =%d\n"
	.size	.L.str.2, 44

	.type	.L.str.3,@object                # @.str.3
.L.str.3:
	.asciz	"invalid option\n"
	.size	.L.str.3, 16

	.type	.L.str.4,@object                # @.str.4
.L.str.4:
	.asciz	"missing argument\n"
	.size	.L.str.4, 18

	.type	.L.str.5,@object                # @.str.5
.L.str.5:
	.asciz	"Usage: %s [-v] [-s matrix_size|-i input_file]\n"
	.size	.L.str.5, 47

	.type	.L.str.6,@object                # @.str.6
.L.str.6:
	.asciz	"Reading matrix from file %s\n"
	.size	.L.str.6, 29

	.type	.L.str.7,@object                # @.str.7
.L.str.7:
	.asciz	"error create matrix from file %s\n"
	.size	.L.str.7, 34

	.type	.L.str.8,@object                # @.str.8
.L.str.8:
	.asciz	"Creating matrix internally size=%d\n"
	.size	.L.str.8, 36

	.type	.L.str.9,@object                # @.str.9
.L.str.9:
	.asciz	"error create matrix internally size=%d\n"
	.size	.L.str.9, 40

	.type	.L.str.10,@object               # @.str.10
.L.str.10:
	.asciz	"No input file specified!\n"
	.size	.L.str.10, 26

	.type	.L.str.11,@object               # @.str.11
.L.str.11:
	.asciz	"Before LUD\n"
	.size	.L.str.11, 12

	.type	.L.str.12,@object               # @.str.12
.L.str.12:
	.asciz	"Time consumed(ms): %lf\n"
	.size	.L.str.12, 24

	.type	.L.str.13,@object               # @.str.13
.L.str.13:
	.asciz	"After LUD\n"
	.size	.L.str.13, 11

	.type	.L.str.14,@object               # @.str.14
.L.str.14:
	.asciz	">>>Verify<<<< %d\n"
	.size	.L.str.14, 18

	.type	.L.str.15,@object               # @.str.15
.L.str.15:
	.asciz	"input"
	.size	.L.str.15, 6

	.type	.L.str.16,@object               # @.str.16
.L.str.16:
	.asciz	"size"
	.size	.L.str.16, 5

	.type	.L.str.17,@object               # @.str.17
.L.str.17:
	.asciz	"verify"
	.size	.L.str.17, 7

	.type	.L__unnamed_1,@object           # @0
.L__unnamed_1:
	.asciz	"_Z12lud_diagonalPfii"
	.size	.L__unnamed_1, 21

	.type	.L__unnamed_2,@object           # @1
.L__unnamed_2:
	.asciz	"_Z13lud_perimeterPfii"
	.size	.L__unnamed_2, 22

	.type	.L__unnamed_3,@object           # @2
.L__unnamed_3:
	.asciz	"_Z12lud_internalPfii"
	.size	.L__unnamed_3, 21

	.type	.L__unnamed_4,@object           # @3
	.section	.nv_fatbin,"a",@progbits
	.p2align	3, 0x0
.L__unnamed_4:
	.asciz	"P\355U\272\001\000\020\000p\037\001\000\000\000\000\000\002\000\001\001@\000\000\000\210\262\000\000\000\000\000\000\205\262\000\000\000\000\000\000\007\000\001\0002\000\000\000\000\000\000\000\000\000\000\000\023 \000\000\000\000\000\000\000\000\000\000\000\000\000\000\200q\002\000\000\000\000\000\242\177ELF\002\001\0013\007\000\001\000f\002\000\276\000y\000\001\0002\240p\002\b\000\022g\b\000\365\r2\0052\000@\0008\000\004\000@\000$\000\001\000\000.shstrtab\000.\b\000'ym\b\000\361\005_shndx\000.nv.uft.entry\016\000\361!info\000.text.__cuda_sm3x_div_rn_noftz_f32_slowpath5\000eglobal@\000\017:\000\025\002f\000\367\004Z12lud_diagonalPfiiJ\000\017\036\000\005oshared \000\004?rel]\000\f\237constant0B\000\b\017'\000\020\004e\000\0203\033\000\235perimeter\303\000\017\037\000\004\006\304\000\017!\000\001\b\305\000\017A\000\004\t\237\000\017D\000\004\017(\000\022\004h\000\001\343\000Uinter\343\000\f\212\001\r\036\000\013\212\001\n \000\b\305\000\017?\000\003\004\234\000\0372#\000\017\0370e\000\007\017'\000\021\264debug_frame\r\000Bline@\000\b\020\0006nv_\017\000T_sassd\000\016\030\000\005\024\000wptx_txt\022\000\0007\001L_reg*\000\005\030\0005typ\212\000\206abbrev\000.#\000\001t\000\031a\021\000\002\f\0008loc\264\000\003\321\000\007-\000\003\022\000\000\023\001rallgrap\247\003Qprotou\000\017!\004-\017\341\003\022\017G\004%\360\000threadIdx\000block\t\000\017Z\004\034\017\255\003\013\017\033\000\000\005_\000\016\036\000\016\345\002\f \000/_Z\026\000\000\216E6shadow\003\003\013]\000\017\275\002\006\r\204\000\017#\000\f\177_param\000\342\003\f\017\034\000\001\007\376\000\017\037\000\004\006\377\000\017!\000\000/_Z\027\000\001ZE3dia\376\000\017<\000\027\0208\017\000O_row!\000\013?colA\001\003\017\307\000\000\017$\000\021\0178\004\003\004\277\000\017\033\000\000\f8\002\r\036\000\0138\002\t \000/_Z\026\000\000\007\373\000\016:\002\017?\000\026\001\031\001\017]\005\017\017\025\000\001\0024\000\217_opt.0.8_\001\003\016\354\000\017\200\005\377\036\017\001\000\013\204@\000\000\000\"\000\034\000\001\000!\200\b\007\000g\000f\000\000\000\003\030\000\004\001\000\021\222\030\000, \000\001\000W\235\000\000\000\001\030\000\"\001\000\001\000\023\247\030\000\033\001\030\000\021\364H\000,\035\000\001\000 -\001\030\000,!\000\001\000 M\001<\000\007\030\000\021\004\006\000!\000\2610\000,\030\000\001\000\021\361\030\000,\036\000\001\000 ,\002\030\000,\"\000\001\000 M\002`\000\025\"X\000\004`\000\024\211\030\000\032\b\030\000\024\252\030\000\032\000\030\000\021\363`\000,\031\000\001\000 ,\003\030\000,\037\000\001\000\021e\030\000,#\000\001\000 \205\003`\000\035#`\000\024\304\030\000\003\020\000\004\b\000\021\344H\000,\032\000\001\000 Q\004\030\000,\033\000\001\000\021t\030\000,\004\000\001\000\021\201\030\000,\005\000\001\000\021\235\030\000,\006\000\001\000\021\311\030\000,\007\000\001\000\021\333\030\000,\b\000\001\000\021\363\030\000,\t\000\001\000 \013\005\030\000,\n\000\001\000\021\031\030\000,\013\000\001\000\021d\030\000,\021\000\001\000g\337\000\000\000\022\020X\002\023+\220\000\020\001\030\000\006\020\002!\200\\\007\0000\000\027\003\030\000\006\230\001!\300.\007\000v\000\377\377\377\377<\005\f\000\000\001\000@\003\000\004|\b\000\360\002\017\f\201\200\200(\000\b\377\201\200(\007\200\200\200\b\005\0000\020\007\202\005\000\020\203\005\000\020\204\005\000\020\205\005\000\020\206\005\000P\200\200\200(\b3\000\000#\000\020(#\000\020(#\000\020(#\000\020(#\0000(\007\207\005\000\020\210\005\000\020\211\005\000\020\212\005\000\020\213\005\000\020\214\005\000\020\215\005\000\020\216\005\000\020\217\005\000\020\220\005\000\020\221\005\000\020\222\005\000\020\223\005\000\020\224\005\000\020\225\005\000\020\226\005\000\020\227\005\000\020\230\005\000\020\231\005\000\020\232\005\000\020\233\005\000\020\234\005\000\020\235\005\000\020\236\005\000\020\237\005\000\020\240\005\000\020\241\005\000\020\242\005\000\020\243\005\000\020\244\005\000\020\245\005\000\020\246\005\000\020\247\005\000\020\250\005\000\020\251\005\000\020\252\005\000\020\253\005\000\020\254\005\000\020\255\005\000\020\256\005\000\020\257\005\000\020\260\005\000\020\261\005\000\020\262\005\000\020\263\005\000\020\264\005\000\020\265\005\000\020\266\005\000\020\267\005\000\020\270\005\000\020\271\005\000\020\272\005\000\020\273\005\000\020\274\005\000\020\275\005\000\020\276\005\000\020\277\005\000\020\300\005\000\020\301\005\000\020\302\005\000\020\303\005\000\020\304\005\000\020\305\005\000\020\306\005\000\020\307\005\000\020\310\005\000\020\311\005\000\020\312\005\000\020\313\005\000\020\314\005\000\020\315\005\000\020\316\005\000\020\317\005\000\020\320\005\000\020\321\005\000\020\322\005\000\020\323\005\000\020\324\005\000\020\325\005\000\020\326\005\000\020\327\005\000\020\330\005\000\020\331\005\000\020\332\005\000\020\333\005\000\020\334\005\000\020\335\005\000\020\336\005\000\020\337\005\000\020\340\005\000\020\341\005\000\020\342\005\000\020\343\005\000\020\344\005\000\020\345\005\000\020\346\005\000\020\347\005\000\020\350\005\000\020\351\005\000\020\352\005\000\020\353\005\000\020\354\005\000\020\355\005\000\020\356\005\000\020\357\005\000\020\360\005\000\020\361\005\000\020\362\005\000\020\363\005\000\020\364\005\000\020\365\005\000\020\366\005\000\020\367\005\000\020\370\005\000\020\371\005\000\020\372\005\000\020\373\005\000\020\374\005\000\020\375\005\000\020\376\005\000\020\377\005\000\020\200\250\002\020\201\005\000\020\202\005\000\020\203\005\000\020\204\005\000\020\205\005\000\020\206\005\000\020\207\005\000\020\210\005\000\020\211\005\000\020\212\005\000\020\213\005\000\020\214\005\000\020\215\005\000\020\216\005\000\020\217\005\000\020\220\005\000\020\221\005\000\020\222\005\000\020\223\005\000\020\224\005\000\020\225\005\000\020\226\005\000\020\227\005\000\020\230\005\000\020\231\005\000\020\232\005\000\020\233\005\000\020\234\005\000\020\235\005\000\020\236\005\000\020\237\005\000\020\240\005\000\020\241\005\000\020\242\005\000\020\243\005\000\020\244\005\000\020\245\005\000\020\246\005\000\020\247\005\000\020\250\005\000\020\251\005\000\020\252\005\000\020\253\005\000\020\254\005\000\020\255\005\000\020\256\005\000\020\257\005\000\020\260\005\000\020\261\005\000\020\262\005\000\020\263\005\000\020\264\005\000\020\265\005\000\020\266\005\000\020\267\005\000\020\270\005\000\020\271\005\000\020\272\005\000\020\273\005\000\020\274\005\000\020\275\005\000\020\276\005\000\020\277\005\000\020\300\005\000\020\301\005\000\020\302\005\000\020\303\005\000\020\304\005\000\020\305\005\000\020\306\005\000\020\307\005\000\020\310\005\000\020\311\005\000\020\312\005\000\020\313\005\000\020\314\005\000\020\315\005\000\020\316\005\000\020\317\005\000\020\320\005\000\020\321\005\000\020\322\005\000\020\323\005\000\020\324\005\000\020\325\005\000\020\326\005\000\020\327\005\000\020\330\005\000\020\331\005\000\020\332\005\000\020\333\005\000\020\334\005\000\020\335\005\000\020\336\005\000\020\337\005\000\020\340\005\000\020\341\005\000\020\342\005\000\020\343\005\000\020\344\005\000\020\345\005\000\020\346\005\000\020\347\005\000\020\350\005\000\020\351\005\000\020\352\005\000\020\353\005\000\020\354\005\000\020\355\005\000\020\356\005\000\020\357\005\000\020\360\005\000\020\361\005\000\020\362\005\000\020\363\005\000\020\364\005\000\020\365\005\000\020\366\005\000\020\367\005\000\020\370\005\000\020\371\005\000\020\372\005\000\020\373\005\000\020\374\005\000\020\375\005\000B\376\201\200(<\005/4\000\001\000\004\003\234\005\020\004\207\006\020\004`\022\001Y\0056 \004\260\b\006\017\210\005\377\377\377\377\377F\023\210P\005\f\f\013\r\210\005!\b\027\030\000\017\210\005\377\377\377\377\377J\033\020\327\020/\300.\210\005\00260\004\230)\000 2\b\244\035\020\327~\022\200\001\373\016\n\000\001\001\001S\023\360\030\001/nethome/cahn45/CuPBoP/examples/lud/./\322\030\037\000+\000\004\000\034\000\377\001-12.1/include/nv,\000\026\r)\000\361\002llvm-vortex-with-3\000\366\003build/lib/clang/18A\000:usr\r\000\000'\000\366\013gcc/x86_64-linux-gnu/13/..\003\000\0035\000@/c++\033\000IbitsN\000\016A\000\006#\000\017d\000# \000\000s\026\361\030kernel.cu\000\001\251\315\213\271\006\222@target\000\002\303\313\213\271\006\325;vector\374\025Qs.h\000\003\027\000A\226g__\375\000\002_\032\000\022\001ptin_var$\000\211\004\262\310\331\271\006\234&$\000\366\005math_forward_declare-\000\360\013\225Bstdlib.h\000\005\253\374\350\274\006\373\227\002std_ab$\000\200\006\312\257\264\245\006\212%D\000\000#\026\000\024\000\021\007'\0000\232gc\025\000!\000\b\"\0000\245\336\005\016\000\005E\000B\304\352\002cX\000\003!\000\365\002\2073__stddef_size_t\201\000%\304\005\201\000\002+\000-\201\022\277\000\005-\000)\362\177\034\000\031c\035\000\203\275\220\001\000\000\t\002\000\001\000\360\004\004\001\003\020\001\002\310\000\003\004\002\360\004\001\003\001\002\320\002\006\000\360\002\200\002\001\004\004\003\036\002\350\000\001\004\001\003b\002 \025\000 \250\001\025\000@\035\002\370\001\025\000\022c\025\000!\200\005\033\000q\002\001\353\003\005\002\200=\000\020('\000\021\031D\0008\001\003i<\0001\026\002\340\025\000\020k\025\000\221\177\002\320\007\001\003\002\002\340\033\000@\024\002\340\003\033\000\026lW\000\022\002J\0000\021\002\030\031\000\020p\031\000\020\002I\000A\003\001\002\350\240\000@\r\002\260\005\033\000\022sO\000 \350\002!\000\021\350!\000\2400\001\360\003q\002\020\001\003\027`\000\005\330\000\021\370\f\000\021\270>\0001\177\002\310\215\000\020\001>\000J\001\002\240\004\311\000 \002\330\000\004\n+\001\020<+\001@\004\004\003x-\001\000;\001 \002 J\0000p\0028\016\000\022\021\242\000 \340\000I\000\024\310H\001A\003\001\002\360\006\000#\240\ba\0009{\003\006\225\000\002m\001\023qm\0013\017\002 (\000\001Z\000$\370\001i\000\000\271\000\027\006C\000\021\3608\001\020_\037\000\022\"z\000\021\350z\000\024\330U\000\002(\001\bz\0003\353\003\006o\001\023bn\000\022\036Y\000\037\210\256\000\t1\007\002\230\215\000\022M\211\001\"\325\000\366\000@\253\177\0020\020\000\"\326\000D\000\021\370~\000\021\230>\000 \340\002\221\001!\310\t\020\001S\001\001|\003\004\257\000 \245\1773\000\023\3343\000\021\200\006\001\027\2203\000\024\2703\000\000\225\000q\n\001\353\003\007\002\220}\000\"\234\177~\000\023\346~\000 \232\177\036\0023\001\003\347K\000\032\340\374\000S\004\004\003\243\177\344\000\023\335#\000\021\260\027\000P\242\177\002\350\006\027\000\023\336\027\000%\330\001\352\000\023\005\036\001@\222\177\002\020#\000\023\357#\000\000H\0004\004\003\235Q\000\023\343\027\000\024\220n\000\017j\001\001\020\007\031\000.\002\370E\002!\260\001q\0031\006\002\210\344\002\0001\001\023\002E\000\021\300\204\002B\260\004\001\353\213\000q\003y\002\b\001\003\t\036\000\020\007\000\001C\004\003\373~\205\000%\205\001D\001\016\027\000\023\002\027\000A\354~\002\360\027\000\"\224\0017\001!\353~\211\0013\001\003\225?\000.\320\000\027\000D\004\004\003\352\021\000\023\226(\000$\220\004\027\000\025\000\027\000D\004\004\003\351(\000\031\227P\000\n\027\000D\004\004\003\350\021\000\023\230\240\000X\260\004\001\003\037\273\001\021\3609\000A\306~\002\200\226\003\023\2749\000A\303~\002\310\257\001\023\275\021\000A\304~\002\310J\000\023\276\021\000A\301~\002\230\007\004\023\277[\000B\350\002\001\360:\001\023\b\320\001\024\276\036\001\023\3024\000\024\275\217\000\021\3034\000\001~\000P\003\002\002\270\003\006\000 \200\003#\000A\271~\002\340\212\000\023\3074\000A\270~\002\3504\000\021\3104\000\021\004M\0043\003\0028\345\001 !\0176\b,\020\0006\b\031\000o\005\263\000\003\027\001\002\b\003\016\002\300\000.\001\001\255\004\004\205\004\001\005\000D\300\000\001\360\026\000$\340\000\006\000\023\003\244\000\024\340\006\000%\361\201\032\000\023\030\376\0035\204\003\002\022\000a\200\364\003\003\002\350\r\0003 \001\2013\000\001\r\000\026\200'\000$\230\001 \000\003|\000\023\030\005\0001\002\002\310h\000%\210\001\026\000\"\330\000\335\005\004\020\000R \001\360\003\002,\000\026\330{\000\001\223\000\022\200\r\000\031\364\016\000g\003\004\0028\001\360\256\000\022\366\030\0001\362\360\204\204\000\005\225\000p \001\200\363\362\003\002\360\000\023\205\025\000\007\327\000\003-\000\003\260\000\n\225\000\003\217\000\004\265\000\000\240\000\020\320M\001\013\030\000\002\005\000\004\343\000\001\020\000\"\310\000\026\000\022\200\027\000\032\363\272\000\035\005@\000\004\271\001\024\360\021\000\020\030\237\000\000\320\004\005\236\000\003\033\000\ta\000#\200\003/\001 \003\005\265\000\001\f\001\f\374\000\022\203\027\000\001#\001\023\365\031\000\001\006\000\024\201\001\001o\002\002\220\001\001\360\376\000\026\021\003\256\000\016\230\000\017\377\000\004L\320\000\001\203\377\000\020 \005\000=0\001\361\322\001$\030\001\234\000\002\007\000\022\361!\000\024\362\001\002\007\342\001\004\214\002\026\361\316\000\020 \246\002\017X\001\002\"\003\003 \001\003\264\000\b\321\000\002\032\002\004\321\002\002\322\000\017\210\002\036\016\336\007@\000\003\374\003\233\003\037\022\233\003%\001\255\000\000\005\000\"\360\203\f\000\001\242\000\b\006\000\b\036\001\026\360\253\000\005\326\001\005)\000\016#\001\005\362\000\006\370\000%\320\0006\001\007\317\001\007L\001\n\034\003\0071\000\003.\001\025\320\241\001\t \001\022\204\016\000\022\360\016\000\037\363s\004&\004\305\000\017|\004\016\006)\000\016\205\004\017\324\000B \003\004h\000\031\004\033\005\004r\001\017\350\000\024\0164\000\002\255\001\020\360(\000\000\n\t\t!\000\001\270\000\013x\003\017\303\003\002\003)\000\017\317\002\034)\030\001x\001\004\221\000\017n\002\240\002\232\001\003\374\003\004\034\005\005\026\005\001\035\002\004\304\000\t!\0057\362\360\203\025\000\0176\006\000\032\364\255\000\004\335\003\026\361\211\001\005\326\000\f\320\000\003\300\000\rW\005\001\030\000\017;\005\017\037\030}\002\013\f\321\000\030\205\266\000\017\007\007\n\016C\002\013\252\000\002\005\000\t\325\000\017\370\000\t\017\320\000\026\nc\000\t\370\001\013Q\000\f\241\000\003\035\000\r\021\007\036\310\325\002\017\b\002\002\025\030\b\002\002&\000\t\277\002\016L\001\017\177\006\003\006\037\003\f\367\002\017!\002\004&\340\000\350\000\005\000\002\003\030\000\021\003\221\016\003x\003\b\301\004\022\002\005\000\017\366\002\022\"\363\363B\000\005T\000\006\254\000\017\221\0043\017\257\001\001\003\241\000&\340\000\357\000\023\030\005\000\004\277\001\026\370R\000\0019\000\037\360\231\004\"\037 \006\r\000@\000\003\364\013m\007\037\021m\007\037\023\001\366\000\037(\002\004\021\005\035\001/\210\001\004\003\013\025\201\326\001)\210\001'\001\000\035\000\005*\000\003\377\000\016\257\002\007\347\003\bf\b\0021\000\017\234\005\000\013\344\001\033\003G\b\005\302\001\004-\000\024 ,\000\003\037\013\005\031\000+\220\001U\t\006\370\000\003J\000\003M\001\006\271\002\003\021\000\r\302\n\026 \355\000\020\330\370\003\017\217\000z$\003\004\215\001\006T\000/\360\000\204\b\005\037 W\000\000\003\274\001\007\t\002\004\207\004\021\201\034\000*\200\363\036\000\017\212\n\013\001 \000\024\201\213\005\b\036\000\t:\002\fv\000\003\365\000\030\360(\000\000C\016\r`\000\004\034\001\003Q\002\000\315\004\037\204\367\007\004\017r\001\f\004\022\000\t,\005\003\007\000\001\301\001\005\035\000\032\201$\000 \201\361T\003\007=\000C\003\003\002\240\340\001\n+\000\023\362\202\000\007\214\013\001Y\001\023\360J\004\025\004%\017\000\375\003\342.version 8.1\000.\320\025\201 sm_50, r+\221\000.address\006\025! 6\314\027\003O0\345 .align 1 .b8 \\0O[1];&\000\006\004x0\005%\000\202visible \b1\037 \200/\0011(\000.\201/_ .u64\"\000\002\002\241/6_0,*\000/32*\000\t\0371*\000\026\2462\000)\000{\000.loc\313\000\0218\313\0001\t__\026\000\300_depot0[32];\255,\274g .b64 \t%SP\020\000\024L\021\000\305pred \t%p<10>%\000\22532 \t%r<64\023\000\021f\023\000Zf<16>K\000\360\nrd<68>;\000\000$L__func_begin0:S\001\002\032/\004\255\000\0214\255\000/_ZJ1\bP[1024\220\001Tmov.u\254\000*, \341\000b;\000cvta\n\001\005&\000\", \327\000\"ldP\001\".u\306\000O2, [V\001\t\036]3\000\03713\000\013\03113\000\003\006\001\0174\000\f#0]\265\000#to\216\002\005:\00002, @\000\003 \000\013\035\000\0213\035\000R2;\000st\024\000q[%SP+0]\027\000\0223\027\000#32\027\000\0218\027\000\0331\026\000!12\027\000!2;\243\0010tmp\234\001\"ld\"\000T%r3, '\000\030;\030\000\0234\030\000\0218\217\001rul.lo.s\033\00015, 8\000\224%r4;\000\000add\031\00046, \036\000*;\000\206\000!24\206\000!6;\333\001\003b\002E7, 0\227\000+1:3\000!163\000\3207;\000\000bra.uni \t,\000uBB0_1;\000\013\000/: \001\000\np// %for\2730$d\000m\000\0312\004\001\0248\004\001\0206\355\000ssetp.gt\325\000Ap1, \"\000%15\253\000\3063:\000\000@%p1 bra\224\000.6;\250\000\003v\001\001\013\000\017\250\000\024Ebody\250\000\0314\250\000\0205f\002\003N\001\005\215\000#5:/\003\003$\000\000P\002Utid.x\"\000)6:\246\001\0215\273\001\000L\000\000.\000\t\365\001\0375\366\001\t\001\331\001\000\"\000\000\006\000\005(\001\023e<\000Ep9, \\\000\006+\001\0227+\001\0329+\001\0374+\001\00053;\000\013\000\017+\001\020uif.then*\001\0238*\001\0039\003#56\312\000*0]\342\000\0376C\001\000\0339C\001\0357C\001+10D\00128, M\000\000/\000 ;\000\275\003\000|\000\004C\000\021dD\000\205r58;\000shl,\005\0027\000\001\035\000\"2;P\000\004\032\000\001?\001\022dR\0001d58c\004\003v\005 15\264\000\000$\000\003\314\000\003\205\000:d60\271\002\007j\000C61, \"\000'6;O\005_rd62,\205\005\013\003\212\004\003\3274\0057\000\001\332\001+d6\270\000\0216\020\002\005\036\000-1;\n\001$65%\001\b\n\001\0226\351\000\000\035\000\fR\000\001:\001\005Y\000\0226J\004\022f\027\004\000\037\000\000\026\004?f15\027\004\001\0264\261\00151:\000\026\000\017O\002\023\020e \004\b+\002\0309\r\003\006\030\000(60C\002\007\025\002\002t\001\000\037\000\000=\000\013\207\005\004\001\005\0371\270\000\001\0060\003&12\270\000\03752\004\0249inc\271\000(62\027\002\b\241\000\001\246\001\000\037\000\r%\006\002l\005/63m\005\b\000\236\000\0263\236\000\0376\236\000\024\001W\001\271bar.sync \t0\002\006\0319\002\006\0374\003\006\004\0379\226\000\00157;\000\013\000\017\003\006\030E12\000\0005\004815:9\001/10\t\006\t\001\251\007\000#\000\0271g\002\0226\340\004\0322\340\004/22\341\004\000\0268\261\000\0378\f\006\030&14\257\000\0327\251\004.31\251\004\0318\322\000.32\322\000\025l\263\005\001\232\003\001E\000&r3 \b\"19\324\000\0325\324\000\0371\265\005\00159;\000\013\000\017\265\005\027H17\000\000\006\002(33\007\002,20\007\002\0222\361\b\0373\236\002\003\003:\000\002\f\000\037:\t\002\027\0268\b\002*216\001\004\007\007\0332>\006/35!\002\000\024e!\002\001\323\004\0213\270\004\0263\322\003\"22O\001\0336O\001\0373O\001\000\0301\330\b/1:$\002\026&20\313\000\0323$\002-48$\002>24:\261\006\0214\337\002*48-\006/43-\006\"\0224\275\005*43\365\005\0214q\002\001k\000\0326\365\005\0214<\001\0058\000\0225v\001\003\267\0049d47\220\001\b\350\006\001\337\000\002\"\000\013R\007\0224R\007\004Z\000\nR\007\001\351\003\000$\000\fP\000%50P\000\013\243\000\0021\t\004\243\000*50\243\000*52\032\002\bS\000\002\034\007\000\"\000\013\243\000\002M\t\004Z\000)53\243\000\0221\243\000\0205e\006\n6\000\0305\331\000\0006\000\b7\000\02327\000u5];\000neg\030\000\02136\007\2250;\000fma.rn\030\000\000\203\000\004\036\000\0211\006\000)2;q\007155]\027\000\0374}\003\002\007\341\n?12:\257\006\025)36\261\006\000\253\001\006\340\001%adW\001\002\216\001.49\261\006\0222\023\004/50\023\004\t\000\354\002\0265\262\006?13:\262\006\025938\000\337\001/16\337\001\006\0221\260\b\000\"\000\013j\t/18=\003\"\0221\271\002*18-\002\0222\232\002\004\036\000\013P\t%21\206\000\013e\002\0212\331\003\004?\000(21e\002\003-\002622]1\001\0326@\004.36@\004\0377@\004\000!23\370\004\0336\227\000\002\342\002\000\035\000\013O\003(25\317\000+24\036\000\000v\000\005%\000)21\344\002\0233\266\000\000\213\0017div\316\002\001\315\002\001\314\002\013\305\002\0212I\b\037f\304\002\003\006\317\007'28.\002/4:6\n\024;48\000\342\b\004O\000\013Y\f-37L\001930:a\006\0378\260\007\t\001j\002\0223\006\000\0268C\000\0221a\006\0327a\006/20a\006\001\003\230\006\002\f\000\037:\261\007\025+51\261\007\t\270\t/32\261\007\005\017\271\t\002'16\204\000\0376\261\007\027&52\261\007)337\001\0244\271\t\002!\006\007\031\000\0311P\001\007[\004\003\360\006\0211[\004\f\312\007\001U\006\02142\003\0264\031\t\"34i\001\0338\312\007\0379i\001\001\007\237\n/17\312\007\027&55\344\000)5:\204\004*27\034\002\bg\003\002\006\007-27\204\004/29\204\004\"\0233.\004\0329\227\003\002,\n\004o\000+30\036\000\002j\004\000%\000964;\274\000)33\241\001\b\274\000\0021\t\001\"\000\013\272\004\000n\t\007W\000\0304\272\004\003\023\017-35O\000\0256O\000\013r\004\0029\003\004\333\000&36\330\001\013\363\004.45\247\003\017\363\004\001\000\255\003\000.\000\n\363\004\000\034\003\003\035\000\013\320\000\002Q\002\005\210\000\0309\320\000\0226\320\000,40\356\007)41\005\001\000R\003\0066\000\02376\000\0321\355\007\000\230\000,f5\353\007\000\230\000\002\033\000\000#\001*f7\"\005!41\"\005\017\262\003\003\007\273\f/18\346\007\026974\000\214\003\0306\004\002%ad\036\002\000m\t\002\037\000\017\346\007\004/47H\004\t\000\237\001\b\270\005\0379\346\007\026?76\000X\000\000&20X\000\0269X\000/20\020\006\025,77\020\006\017e\000\000\006U\017'40e\000\0371^\001\027\0328^\001\0303\036\004\b^\001\001`\003\000\037\000\f^\001\003^\017/44_\017\b\000\240\000\0271\240\000\0372]\001\026(80\237\000)11h\026\007\211\005\000\262\n\002 \000)1;2\000\0373\214\024\007\001\266\n\004:\000\0333P\000\0016\004\003\"\000\001\334\005\017\207\021\000\000\b\007\007\320\006\0007\t\007\221\001\r\320\006\003*\001/16\313\001\002\007\272\024/23\320\006\027\0268\331\017\0324\317\006$17-\001\017\210\020\001\001i\t\000#\000&15\263\000\003\233\006\0333\004\b\0378\233\006\000'24\260\000\0374\233\006\027&86\260\000\0138\021\004\266\b\bU\025\0334V\005-19V\005947:\273\001\002\244\n!18\006\000(9;c\000/21\016\002\007\002\342\n\002\002\013\0302\316\007\002<\000\021p\013\002\002\\\000&22}\000\02283\001\03343\001\017\307\027\002\0077\t\03727\t\027&912\001\02292\001\003\352\000*d4\342\001\007\301\006\001\277\002\000 \000\013\312\007\0376\311\007\"\002l\006\013\n\007\001a\001\003\033\000\006D\002*50\261\001-23\261\001/51\007\007\000\0219Y\001\013\353\017\000b\017\002\034\000\013\005\007\000\351\003\005\203\000(10\004\007\001\343\001\000\"\000\023]\373\001\003\304\000/12\314\027\003(24w\002\bT\004\0028\f$24\232\000\r\237\027\001\361\016;r25\265\000\0011\000.d1\213\b\002U\004\001\212\000\001(\000);\000=\007\0231$\017\017\037\004\002\006\247\006\0275\335\025/26O\006\025I101\000\367\000\0306\013\003\007\017\001\0307\017\001\b\016\001\001m\001\0212\360\001,26c\007\002\021\005/28\274\000\002\006\006\006\0275\373\025/27\246\006\026:103\275\000\0309\371\002\007\245\000\002\227\t/29\247\006\006/30}\005\t\000\242\000\0274\242\000\0378\250\006\026\206105\000\000retH\000&5:\316\0360end\027\003\037}! \002\016_N\r\" \016#\000\017# \002\017+\000\n\0371+\000\027O2\000) \001\000\023O// @J\000\002\037\000e \021\0371e #\0362e =173f \b'\000\001L\000nrd<122g \0371g \n\017\261P\004\005e \0179\000\031\005\263O\017>\000(5col>\000\006\332\005\016\341 \0371\341 !\016\023\002\017\342 \017\0164\000\017\343 \020\0165\000\017\344 \200\0335}\b\017\313\006\000&7:Z\t\027u\353\037\0313Y\t/58\354\037\000\0371\r\031\001\0261\225 \0361\225 \017\302\036\b\004j\000\013-\022\03640\t,60\231\n\0222\020\001\0324-\t)50m\013\017A \000\017F\t\000\000\240\026\002;\000\000(\000\037;3 \001\0252s\025\017C\006\001)53T\013(54$\022\0206\253\003\017\327\005\001.54\327\005\02618!\03718!\026\000S\013\005o\t962:\370\000\0375Q\013\t26, #\000\006\356\006/63\265\031\000?1_7\366\001\000\005\376\013\0361\270 \017\343!\021)64\253\000\0321_\036\t\032\000\004\276\001+28\360\b\0201\324\035\003<\000\000\007\000\03319\000\017K\r\t\002i\037\001$\000\001\007\000\016\016\023\002\244\025\005d\000\006/\025#65\035\003\t\337!?1_5'\001\000\005u\f?1_4\035\003\027\006s\f266:\324\000\004\216\004/10\026\n\003?165A\001\006\0376A\001\007\001\036\t\001<\000\001)\000\0034\n4s64#\000\"d1\273\n+16{\027\0241\026\n/11\356\n\000\001W\001\002\256\000\001\b\000\0312\362\n\0249\363\n\0233\253\000\003\220\000Jd114\263\002\tq\000\003\216\n\0361&\f#11(\f\017\375\006\004\017&\f\0033117R\000\013*\f\0221\215\r\007!\000/5;\031\001\000\02596\001\t\031\001\002t\r\002 \000\f\007\f\002\257\r\006a\000\000v\021\nT\013\0222\222\022/19!\004\001\006\242\005$67\367\t\03612!\017\352!\0238168!\003\b\031\000\0309L\002%ad\241\001!17\334\000#16\373\000*8;\336\004\003\024\005?170\276\000\001\006\023\f&68\276\000\016\022\f\017\360!\0238171,\002\t\246\000\002\264\003\000!\000\r4\007\002\200\005?172\201\005\b\000\242\000\0269\242\000\016\370\013\017\364!\b\016u%\016\220\006\0377\231\004\007\rc%\007\330\000\002.%\004\"\000/;\000|\001\002)59\220\006(60\220\006\0357K\007\004\003#\017\261\001\002\005\001\025?1_8\220\006\030\0261\316\027871:\372\000\005\314\005\017\222\006\002\001m\003\000#\000\007\212\b/72\347\031\000\0371H \001\0261\227!?1_9\224\006\030&17\257\000\013\222\022\000\326\026\006\t\003\004%\000\0324\263\b\0211\342\0269cta\266\b375:\300\004\004&\00031, -\000\0334\207\005\002\226\031\004\"\000\004\356\026\004\205\000/43\300\005\006\002\346\024\005@\000\0343\037\000\002\330\005\000&\000+16U\000\0376\204\002\007\0221\233\026\001$\000\001\007\000\016]\022\002\300\004\005a\000\006C\b#76\035\007\t/\032\0211\344!\r\261\001\004\262\036\002\f\000\037:\037\007\025\0272`\002\000\320\n\026l\323\005/98\037\007\004/48\312\001\001\0348\312\001\0379\312\001\001\0339\312\001\002.\n\001-\000\f\312\001\002\325 \005\"\000\0328\205\000/52\312\001\006\002l\n\005@\000\0342\037\000\002\351\001\000&\000/16\332\021\000\"99 \000\0334\214\006\0210\211\000/d9\213\006\000\0210k\000\0012\001\002*\000\t\243\007\0238\243\007\0240\227\022\003\212\000Jd102\304\003\to\000\003\370\007.02\243\007?04,g\016\016\017\250\007\004\0210g\002\000C\000\f\304\000\001\242\002\007!\000\0373\250\007\000%07T\001\n\034\001\004\372\000\016F#!10P\001\007a\000\0348\250\007\"09\250\007\03789\005\001%11>\002\0258\350\030\0361\335$\017\251\007\006:37\000:\002\0305\257\003\b\031\000\0306\330\002%ad\251\001\0201f\006\003!\000\000\007\000*5;\371\005\004\253\007/57\301\000\002\006\n\007'81\301\000\017\355\"\030\0339\302\000\03087\002\t\251\000\003\274\002\0378\256\007\007/59\237\006\b\000\244\000\0272\244\000\017\360\"\027/41V\000\000\007\376\023'83W\000\017\031!\0249lseT\004\0354\320\016984:\335\003\001\274\002A4, -\332\003\n\245\001\002\351\016\0315\364\001\nW\b\007I\000\001\361\001^6, 8;\347/\017\351\005\002\001y\001\0016\000\0328J\000\002\270\013\001\037\000\016\224\000\0039\002\n\323*\000\006\f\0268\343\000\001\375\006\017\312\001\001\0371\311\001\001\004\360\007\002\f\000\037:i\b\026\0264)\r\0248)\r\006_\033\017\324*\r\0312i\b/87\324*\000\0371P\"\001\0271\314!\0371\314!\026\000j\b&48\260\000\0318\260\000\000\300\037\006\307\003\b\031\000\03773\006\005\002\210\037\002\371\037*375\000\0379\364\001\007\001\255\b\001\"\000\003\252\"\013\367\016\001\216\002\002\\\000\02649\n/89\036+\000\0211#\037\016\036\001\003A\003\002\f\000\017\326\007\026%52\035\001\0209\247\n\027l\001\006\004\036\001\017\350\"\005\f6\001/426\001\005$43\001#\002\345\"\016\360\016\001\020\003\f\304)\002\360\b/d1+\006\000\0259\203&\003\277&\ri&\0341\3020*20\236\002\007i\000%21\270&\013A\007/22\343\016 \"23O\000\013\265\000\007\241&\003i&\f6\007\002L\032\03344\007\007\241&\013\007\001\002h\031\005Y\000\0336/\007\0222\3000\0372\376\003\002\0068\004\0309l\006\0378-\007\025)60k\006(44\376\002(ld\341\"\006.\002\001\275\000\006\243!\002\037\000\002\027 \017(\007\001/46\273\000\002\0269\273\000\b\203\006\0379'\007\026*62\274\000\0307\032\002\b\244\000\002\222\003\0377$\007\006/48Z\005\t\000\241\000\007\315\006/20$\007\026*64\022\r\b}\006\004Z\000\0344G\013\017F\013\000\0349\020\r\001o\001\000+\000\fD\013\001\216\001\003\037\000\f\322\f\001f\002.16\320\f\0378\362\004\007\002\242\003\003;\000/8;|\037\001\0259m\000\017\374\001\001\0322\353\006(21S\017\0209y\006\017\221\001\001/21\221\001\001\000\026\000\006\f\000\017\353\006\027\0267U\037\0249\364\f\006\b \0177!\f\0322\353\006/987!\000\0371\004 \001\0211\3241\006\f\000\017\353\006\027&73\260\000\0329\260\000\005\317\016\0374\331\036\005/8]\331\036\002\002\314\000/4;\027\036\007\n\371\001\004\374\035\002\006\000\016\353\006\001\254\004\003\\\000\0277\3656\0370#!\000\0211A\"\016\037\001\007\b\027/23\354\006\026\000,%\005o\000\004#\021\003\263\005\0374\354\006\003/287\001\005\03797\001\005\003]\036\002\b\037\0379\354\006\000\001\373\000*30\344\005\001/\001\036d\342\005\0247\242!\002Z!\r\301 \0237\227\000\003}\000*d8\227\002\007b\000\001n\003\000 \000\r#\016\037,K\034\016\017\347\006\003!11S\000*10\263\000\000\343\t\006\036\000\0369\346\006$13\034\001\b\002\001/14\021!>\002?\002\005b\002\007,\006/24\347\006\025)85+\006(31\372\002\017\3754\000\001)\002\b\017\002\001\355\000\"32\3774\016\347\006\017m4\005\0251\t$\001\274\000\bG\006\0375\350\006\026?87\000l4\002+16\245\000\0245O4\017\350\006\004/35W\005\t\001\242\000\0274\242\000\0376\351\006\026/89\r\016\b\002\f\000\017\252\001\025/90\032/\003:105*\007-62\036\016F106:\306\005\027u\232-\0326\306\005?107\231-\000O1_37\250\004\001\003d\t\002\f\000\017\250\004\026&93n\000\0328\273\000/74\273\000\000\0349\f\007\003\301\016)74B\007!75\337\001\005\265:\000q\005\017\354\001\001\0377\354\001\003\007\350\025/29C\007\027695\000v\005)11\225\006\0247G\006\003\256\004\nE\007\002A\004*76\200\001\"12\200\001\0331&\037/36\201\001\000&30\265\000/30H\007\027\02098\003\007;\0018132~\b\0201\234:\017>,\002?132=\001\001'31\210\000\017\200\b\030(98=\001\0314=\001\0201Z\004\007\350.\b\032\000\0374X\001\000\005\201\007\003\224\t\002\231\0047134\327\000\0235\\\001\013\370\027/34\\\001\001\007\244\b\0373\244\b\0307100\324\000\0226\324\000\003\210\004?d81\300\006\006\0218C\005\001\"\000\013\302\006/83\244\r \0228o\006*83l\006\0228l\006\004\036\000*2;\237\000\0316s\001\t\237\000\002\252\007\0368\0255\0218H\004\005Z\000\0317\306\007\0223\307\007-88P\000\0259P\000\013\357\000/90\323\025%!91T\000\0339\261\007\0229Z\001\003\036\000*89\364\000\0259g\002\r\244\000\0229&\001\0369\263\007\0229\355\000\004Z\000\tO1\"14\364\000\0219P1\t6\000\0316\211\000\fT\000\002b\001%96T\000\017\270@\000+97\2148\0216\034\b,3;\2148\000M\000\004\036\000\0244\346?\bW\b\0239\375?\017\252\025\002'33\375\002\0373\220\007\026*11N\b8137Q\002%adw\001\0221\r\022/13|\016\000\0242l\004\0378l\004\t\001_\003\007\260\036/34\225\007\026\02115=\016Z\000\b\207\005\007L\036/35\001\001\030\nJ08135\361\003\t\001\001\000\234\001\002!\000\017\225\b\004?136\252\006\t\001\247\000\007Q\036\0373\226\b\027?120Y\000\000&46Y\000'20Y\000\0377\245\026\0269121\320\007.63\320\007\001!>\007Q\f\0025#/63\254\026\t)64\353\007)65\257\006\001\027>\017B\001\001\0376\353\007\002\004\3607\002\f\000\037:\357@\030\0274\257\006\001\035>\006\352\001\005\020#\017\354\007\002\001\355\004\0336\353\007/24\321E\000O1_45\216\006\001\007\237\b/39\216\006\030*26\353\007*67;\001\000\023\007\017~\003\001/67;\001\001\004\275\025\002\f\000\017;\001\031\0307;\001\0326;\001\005\205\016\001v\006\007\031\000\0379\350\007\n\001\211\016\0216H\004\0276\024\003#27\346\007\0330X\001\017\336\037\001\0274\272\b/41X\001\031\0279\320\000\0228\320\000\003\321\002\001h6\017S\006\004\002U\037\001\"\000\0366\037@\017\250\016#%44\"@\bP\006(45e?\001\227\026\b\244\000\017\353\007\007%47\025?\013\353\007\0020\024\005Z\000\0377v7\001\016\363\000\0259O\000\013\352\007/50\331\b \002\315\036\0015@\b\233\000\002Q)\004\036\000*49\356\000*53J\002\007\237\000\0225 \001\0365\345\007\000\037\035\007Z\000.4;.8\0355\344\007\002\032\035\004#\001\0325\306\007\02386\000\0326\305\007\0219I8\r\303\007\000\340\002\002\034\000\001\315\007\0328\300\007456]\207@\017\250\003\000\007\275\n/42\277\006\027\0324g8\000\363$\006%\002%adQ\001\0217]\013\000\037\000\017\275\007\004/73?\004\t\0015\003\007\273\006/43\273\006\027\000\237\033\b\333\001/28\333\001\006\000\305\022\003\"\000\013z\002\0373z\002!#31\365:\n'\002\002\374\020\004\036\000\000\347;\b\204\000%33\204\000\013_\002)34\216:.3;\227?\0243\226\023\004\355\000/35Z\004\006\002P\b\001\"\000\f\355\000\0377Z\004%\002\245\t;d37\272\000\006\227;\003\376;\b\036\000\002\f\034\005%\000\0313\002\003\0274\234;\np@\0001\003\003u@\n\351\002340]\204;\017Q\002\000\007\336\r'30Q\002\0374\364\002\027*55\364\002\tG\033%ad}\001\000\371'\002\037\000\017\260\t\004/71n\b\t\001\243\000\0271\243\000\0375\364\002\027/57\257\t\b\002\f\000\017\243\t\023\000L\000\0378G\022\004\001{@\007\274\t.77\274\t\001,@\f\352/\001\301\002\000.\000\b\335\b\004\341?\0331\373\036/54\206\007\001\007\021\023/47I\022\0266161p\000\0325\276\000\0026$\f\277\000\0356\356\b\0238x (3;\005\002\001X$\017\020!\003\003\027$\001\"\000\03315\000\0177\030\b\0041$\004>\000\0346V\000\001M\003\005&\000\0008\006\017K\025\001\0014$\007\317\t\001T$\007\022\r\001]?\017\235\002\001O109;E\002\001\007\f\013\0374\f\013\031\0266&!9138\320\t\006O.\017\f\013\002\002\357\026\001%\000\t1\002\02391\002\013\016 \0375\267\t\002\007\017\013\0374\017\013\031\0266-!;140\267\000\005\267\t&4]\230\000+41Y\002/12\211\034\000\0221\351<\007\212\034\000\373\020\003.\000\0334\354\001\001\221\017\006\"\000\013F\002)15\344\005\t9\000\001\344\005\005@\000\0345\037\000\002=\002\000&\000\f\312\034\017\313\034\n\003\252\034#18\007\000\017\232)\000\003y\000\003a\000\007n\013#43\267\001\013\3371/51\267\001\000\000\265\t\006\f\000\017\350\003\027'76\266\001\000Y\004\025l\365\000\034d%\f\007\023\007\000\254\005\003\"\000\013\023\007/71d\022%!72T\000*71\365\006\002\021\t\005\036\000\0320~\001)20\323\001\f2\033\001\366\026\000&\000\n;\b\000\321\026\003\036\000\013;\b\0005\026\007u\000/5;\266J\000\0217\017\001\027l\272\000\0377\004\034\003\001?0\017\370\002\000\fQ\005\0372\370\002\003*6:\370\002\002Q\035/12\370\002\000\002\310!\005\"\000\0341\037\000\002\031\004\0262\016\001\n\037\000\001\365\000\001&\000/16\256*\000\0227\277\002+26F\001\002\210\b\0367\201\t\0228\037\002\"77\007\000\000 \005\bx\b480]\304K\017\312\002\000\007t\005&47\326\007/51\211\007\026\0338+\022(27\243\003\b\240\001\0308\240\001\t\023\001\002\271\003\0232\372\000/7;4\006\003/29\303\000\002\0272\303\000\007\357\022\03750\f\030*90\304\000(30\215\003\b\253\000\002\037\013/13?\t\007?131\242\006\t\001\247\000\0074\f\03754\f\030/92Y\000\000&61Y\000\0275<\n/54\357\022\027)93$\003.78t\b\001\350?\007\310\002\002\220\002/78\357\022\t)79\002\002/80 #\000:152\241\003/81\240\003\001*53\240\003\002g\030-81\236\003\000f\030\005\037\000\013|\003\002/\030-83X\006/85W\006\007\000\333\027\005;\000\013\253\006\002N\030\003\"\000\0350\006\001\002\270\002)87\353\b)88\272\022\000\243>\017H\002\002\03787\026\002\004HY\002\f\000\017\351\b\027&20B(91552\b$89\230\001\017\350\b\002\002Q\001\0329\347\b#560\007\013(#/600\007\001\007\343\013/56\304R\031\007\351T)57\265\000\000_\031\006N\004\b\031\000\0311\245\006\007\256\001\002\347\030!90\006\000\03215\000\0373\001\002\007\002?\031\"93\006\000\017\301\023\000\002 \000\002]\000\007\311\r\005(<\013,#/58#\001\001\007;\f\0375;\f\027'20\t\n\001/<\007S\b*57\330\001\017vZ\003\013S\b/59f\017%\002j::d59\237\006\007wZ\003\307Z\bx\001\0375R\b\n\0226U\001)5;\275\000\005xZ/, {Z\004\003s\000\017>S\002\02560\002%64\216Z\017Q\b\001)96b\002\bI\002\001\367\003$96\235\000\016\270\000\002\033\000\013\026:\002Q:.d6\221\024\002\376\025\001\212\000\001(\000\013\303\007\"68\303\007\017Y\006\002&58s\002\0306\000\006\0378\303\007\025I216\000\371\000\te\013\007\021\001\0309\021\001\007\020\001\003J3!99\006\000\017\3708\005/00\277\000\002\007\205\013'61\277\000\0379\277\007\026\0342\256\032(01\371\002\t\251\000\001Q\002/10\3758\b/02x\005\t\001\247\000\007\242$/60\277\007\026?220\277\007\b\002\f\000\017\263\001\026*21\242D2163\225\000\004\243D\0371\243D\006\r\244\221\017\304d\003\b\"\000\017\304d\013\017*\000\000\0371*\000\013\017\237D)\rI\000\017\236D\022!2[\322\027\bBD\017\236D\021\0269vD\004\235D\0360\235D:12>K\000Frd<7;\000\021f\024\000Nfd<3\257D\0372\026e\017\b\354\000\016uD\017=\000\037\017tD\025\0372Ue&\016\347\001\017Ue\016\0163\000\017Ue\017\0164\000\017Ues\007\355\t\t\306\\/16\354\t\005\0363s\004\0262<D\0372\321d\034\006p\000\n\350\t\005\f\024\017\324d\006\0324\345\t/66\352D\000.2_\300\b\0262\236C\0372\326d\034\b.\001*96/\001\r\005\024\003\226\031/960\001\001\0263\203\000\03730\001\030\03011\001\n\002\024\000\350\007\b]\034\n2\001\001\264\007\03390\026/69x(\000\0372\tf\000\0262\377B?2_43\001\030\0273\374_\003\372\023\003\336\006\001\031\t\017\361\t\004\004\032\t\0353\361\t\"65\361\t\016l\004\017C\022\f\002\345\b?d65\255c\003\003\036\000*4;\243\000\0328S\001\b\243\000\001?\b.d6\342\020\004\001\023\003Z\000\n\305?\001}\b\n|\r\0002\000\007t\b\007\177\000)71\"\001\006\377\004\002\364\022\016\b\001\017\370\n\020\0054\023\n\356\t\002\016\023\001r\000\013Z\032)75\367\022\013\"\001/76\"\001\006\004\343\021\016A\n\0227A\n\004Z\000\0347\017\001\0278\017\001\r9\003\007\277\002\000\223@\005\027\000/: |B#(01\302\000%ad\334\000\017\177\t\t/20\177\t\007\005\334\003\001\243\000\0262\243\000\016L\016\017}B\b\016V\000\0277V\000\0263V\000\0377\371\000\027/10:\013\003*16\372\000\004\033\013\017w\n\006\0379\334\022\000\005\003\006\001\241\000\0264\241\000\0378\367\000\027+12'\033\007\256\000\0375\217\021\001\001\233A\007\217\021\0376\216\021\001\001\311@\007\216\021\004];\0324(\r\0258C;\0138\021\001\016\001\0238\207\021\t\017\001%32\337e\bR\002\017\252\000\002\0327\252\000\02619\022\027y&\000\0328\253\000\000X\026\002,\000\0139\022\003\307\030\002\037\000\0330\034\000\001\314\003/13\262\000\002\002\301\001'14t\000)9:\277\000\017i\001\002+80\277\000\0236u\023\007\275\000\0338u\023'17\3775\0376\3455'\0067\000\005\323\027:36]\364\000&21\3765'20\224\000\013\260\023.22-\024*83\270\000\002+\027\002R\000-22\240\000\003+\027\0258\240\000\013\267\031\0322\3424\005f\000\0374\226<\000\02129C\rm\007\003f\016\001\013\000/: \211M\035\0211\264=\037l\2104\017\017\352\001\003\03362\001\017\352\001\001\03372\001\0277\2005\0366\3554\017\352\001\004\002J\027\003=\000\n\352\001\0373\352\001\006\002\324\026\002;\000'30\224\000\0328\270\000\0373\352\001\001\000\353\002\016H3\0241Ah\r\337\030\0245J3\017W56\fb\000\02484\001\b\346\b\0379\345\b$$10\0375\b\260\000\001k\004\001j\000\013\333\007\002?\004\0046\000\000\261\021\f\236\000$13\033\001\tQ\000\002\344\000\0361\276%\002\355\003\017V5 \002\t\003\005\301i\005\032\022\000\030\000\037:g\020\024\017\2264\002\001\347S\005X\000\0331$\002\0365\334\002+92$\002\0246\3074\003\2624\016\322?\017\334\002\001\017\324?\021+12\334\002&40\263?'39\224\000\0323\270\000.41\334\002\001\273;\bL\000\001\204\001\002R\000-41\240\000\002>?%37\240\000\013\306\004\001\037\000\003D\000\0273f\000\0375q:\000\0212eD\r\306\004\000Q\002\006\f\000\017&\026\026&49n\000\000\214\004\037l>@\020\017\356\001\003\013s\007\0374\356\001\001\0006\004\016A>\0244\031a\016\321=\017\356\001\002\002\244)\003=\000\n\356\001\0374\356\001\006\002[H\003;\000\0279\224\000\0329\270\000\0365\356\001\0212\332:\bL\000\f\375R\fh\004\002P\007/52\rA>\fi\000\000\244\007\002<\001\b\322\004/21\260\f$\001\261\007\002\331@\b\271\000\002`\007\004]A\b\271\000\002\237\007\0058\000.3;\242\000\0245&\001\017\021AL\002\030\003\005\263\001\007\256\f/12\325\004\025+64\023\013\000V\001\026b\326T\0340\342\t%28\315T\017\332\026\002'53\223\000/2:%\000\007\017\316\000\000\003;\000\002\f\000\037:\265\020\026\0266\346K3203\323\003\006eU\004y\000\016\265\020\001r\001\0325\350\021?204\325=\000\0372\306f\001\0252\033i\002\f\000\037:\267\020\026'67\262\000\0325\217\003-90G\004N206:\n\003\0233\302\033\n\n\003/33\n\003$\002\203\006\001\334)\b\270\002%35\322*\013\n\003\002}\006\0058\000\003\316\004\0031\004\001\241*\bz\001\bS\000\004\202*\r\013\003\004\205*\003Z\000\0378\214.\000239]s\0034f64\033\000\000\t\025\001m-\004\021j\023ug\026\001\273V\001\037\000\376\0040d3F50624DD2F1A9FC;\301V\0212\222F\016\346\001\003\036\002\002\f\000\017uH\017\351land.lhs.true\000\026\001/40\026\001\006\001u\007\002\"\000\013\257\t/42\260\t$\002\205\007+d4f\001\005\\0\003\2670\007h\002\013\323\006\0379\033\006\001\0378\214\002\000\002\033/\0339\364\004\002\261\006.d4\364\004)47\3100\0376\207/\000/47\351\001\000\0232\232g\r\351\001\000P\000\001\037\000\017\351\001\001\005\273\000\0379#R\000\017\365\001\005\005\247\037\000\f\000\017^\b\026'815s\013\325\016.92\332\003/11N\001\001\001!\003+92\007\002\0379\332\003$\002\267\007\001@1\b\236\001\004W1\016\271\013\004x1\0028\000*51\332\003/53\304\002\006/54x1!\0308x1\tO\000\0256O\000\013\023\003/57\023\003$\005\354\037\017_z\003\003\036\000\0276\241\001\0332\305\001\0363\023\003/13\305\001\000\002\344\037*93u\001\007\001 \013\"\001\002\337\037\004\212\000(61\"\001\0229\"\001\0216\343\t\f\247s\0041 \013j2\0251\317j\0249T2\006W\b\005\311\007\017H\037\002\002\023\003\005\336\000\007m\023/17Y\b\025?94\000X\000\001\0278X\000\0275X\000\0176k\027\001\235?\006\342\007(94\216\002%ad\250\002\002\317;/94^\025\000%4]\255 \017\205\b\006\001\242\000\0276\242\000\0177k\027/97\\]\002\b=\f\0342\253x/56\034\004\000\013=\f\000\365\002\002P\000\003\326W\007e\000\017\007\021\b\002R\002\003=\000\n\007\021/60\007\021\005\002\250\002\002;\000'60\224\000\0379\230B\016\0212\241x\bL\000\001i\006\002R\000!62\344\003<r.u):\001\277\007\b\247\001\002$2\001':\b\263\000\tO\001\t\263\000\000C\001/r6\037\001\001/67\037\001\007\000c\031\005=\000\n\\\r/69\037\001\005\0337\2508\017T2\003\003\357\000\000\017\b\000S\013\004~5\002#\000-63\361\000\002\230\002'72K\001(1:\221\000/73\375\000\005\002a\031/73\375\000\000/75\375\000\007\000>\031\005=\000\03257\000\0377\375\000\006\001\367\000\003;\000/7;\n)\004\003\375\000\np\000\002\237+%75p\000\013\027\020\002\031\000\0249C(\005\007\001\0372UP\000\0212\314E\r\271\007\004\237\025\002\f\000\017\271\007\026\000\346=\005o\000\003E\f\b\2715\004f\005&\000lM\006/280\020\003(81\247\001\005V\000\0324;\003.82\363\003\001\273;\007O\001$83\332)\0000\000\ne\000\0374\327\001\007\002\270A\003=\000\n@\003/86\327\001\005\003\300)\002;\000\007\002\007\f\362v/88\363\003\000\0337\270\000\002\303\001\0257\274)\f\036\007\002a\025\0338\223\b\000\227\025\003\035\000\013\036\007\002E\025\001r\001\003\2577\016\2016\0203%!?sub\2016\021/31\2016\005\002W\002\005\331\000\005E-\000\030\000\017\375\006\025\001\033=\b\222$:229\222$\0222\222$\n\001\000\232.section\t\221\265/{\000\001\000\377\377}\035}\251\002\001\033\270/{\000\001\000\377\377\377\377\377\377\377\377\377\377\377\377\377\377\377\377\377\377\377\377\377\377\377\377\377\377\377\377\377\377\377\377\377\377\377\377\377\377\377\377\377\377\377\312\016\313+\237loc\t{\t}\000_K\233\000!\000\034\214\270 \000\000\366P\000\b\000c\005\210\000\000\000\310\261\307\001\025\000\245\003\000\000\005\220\000\000\000\350\000*\000\000\337\307u\005\260\000\000\000\270\t)\000c\000\002\000\000\005\270\024\000\000\001\0001%r2Q\000d\330\000\000\000\260\002\024\000\0211P\000U\370\000\000\000P\024\000 d1\036\342a\0050\001\000\000\020\354\342\003\025\000\264\005\000\000\0058\001\000\000\350\001\000*\000\0212*\000\032H*\000\0212*\000\032P*\000\0213*\000\032p*\000\0213*\000\031x*\000\0213\246\000s\020\003\000\000\210\003\000\024\000\0224=\000E\003\000\000x\024\000\0215\024\000\000\020\000\025\270\024\000\0216<\000\0008\000\025\360\024\000\0217\024\000\000\020\0003p\004\000\024\000\0218<\000T\320\004\000\000\350\024\000!p1\004\357U\330\004\000\000\360(\000\0225\n\001eX\005\000\000\310\005\025\000\002H\001Vx\005\000\000\220\025\000\002\267\000\000\021\000%\020\006\025\000\002\270\000V\360\005\000\000\370*\000\002\271\000\030\370*\000!p9}\000e\b\006\000\000(\006\036\001!56\037\001S\220\006\000\000\030g\343\002\026\000\023\004\026\000\025\020\026\000 56\241\343m\005\360\006\000\000P+\000\000'\000(\270\007W\000@\007\000\000\005S\000$\310\b,\000!57\t\002U8\007\000\000(1\002!58V\000\000R\000\027XV\000\0217\026\000Wh\007\000\000\370V\000\002h\001Wp\007\000\000x\026\000\0218\026\000\000\022\000\027\230B\000\0218\331\000W\210\007\000\000\220\026\000\0229\357\000\000\230\000\007B\000\001\033\001\020\005>\000\024\350,\000\021f1sH\000\005\350\007\337\002\000|\202\000\357\000eh\b\000\000\220\bA\000!60W\000Wp\b\000\000\260\026\000\0201\212\344:\005x\bB\000\0201\270\344+\005\210\026\000\002\321\002T\320\b\000\0000a\003\001\026\000\000G\001\033\330,\000\002\350\002W\370\b\000\000\020,\000\02133\001W\b\t\000\000\030,\000\002\037\002\000(\000\027\210,\000\0214,\000*\030\tX\000\0215\204\000\000\200\000\027P,\000\0225\266\001G\t\000\000H\026\000\0216\026\000\000\022\000\027hB\000\002N\002\000>\000\027X\026\000\0217\026\000\000\022\000\027\220B\000\002\016\002\023h\204\000\bS\004S\320\t\000\000\320\225\324\004{\004\t\024\000\023r\262\001d(\n\000\000\220\n\025\000\003\234\001V\210\n\000\000\310\025\000\001t\003\020\005&\000\026\370\025\000\002T\004UX\013\000\000\230T\000\0226_\003\"h\013i\000\b\221\000y\340\013\000\000\020\024\000\221\000\t\024\000\022r\220\000s\030\f\000\000\230\f\000\024\000\0221\220\000c\370\f\000\000\020\r\025\000\"p2\206\003U\r\000\000\030\r\217\004\002\244\000V8\r\000\000\270\025\000\002\244\000\030\250\025\000\021p\224\002f\002\260\r\000\000\320)\000\002\270\000t\350\r\000\000h\016\000\025\000\0214\025\000t\310\016\000\0008\017\000\025\000\002\027\004'(\017\025\000\021p\320\004e\0020\017\000\000H)\000\0224S\003Uh\017\000\000x\025\000\"d4\216\002c\210\017\000\000p\021!\001\001\026\000\000\320\002\020\220\026\000%\020\000,\000\002\225\000f\330\017\000\000\030\020,\000\0213\364\001W\350\017\000\000(,\000\002\216\002W\b\020\000\000\230X\000\02146\002W\020\020\000\000x\026\000\002\226\003\000T\000\0278B\000\002\244\002\000T\000\0270\026\000\002\244\002\000\022\000&p\022B\000\002\301\005\000>\0005\220\022\000,\00007\000\n\315\006G\020\000\000Pn\000\0207\034\350g\005\310\020\000\000H\026\000\003\333\005G\020\000\000\360n\000\0218\356\003W\330\020\000\000\350\026\000\0219\026\000\000\022\000\027\030B\000\0219B\000\000>\000%8\021q\004\002/\002\000\021\000%\b\023+\000!50\203\000\000\177\000\024h+\000\001\026\000\000\257\000\000\253\000\027X\026\000\0211\026\000\000\022\000\0278B\000\0211B\000\023h\026\000\004,\000\0212u\001\020\350\026\000\006\035\001\0225\207\004W\360\021\000\000\030\026\000\0213\305\000\033\370B\000\0213\371\001V\b\022\000\000xI\001!54%\002W\020\022\000\000HB\000\002\315\001\000T\000%h\022\361\000\002\357\007\000\021\000\027\360A\000\002\314\001\023p\026\000\025\001\026\000\000m\000\000i\000\031\370,\000\001\222\002I\022\000\000\250,\000\000\342\001\000\336\001\026\320m\000\002\360\000'\310\022\304\000\020fl\327\000\264\001F\022\000\000\350*\000\002;\003*\350\022\356\000\002\035\005\000\223\000\027\020\\\001\002\255\000\031\370,\000\003\336\001U\230\023\000\000\330\025\000!50V\000\"\250\0236\004\b^\004y \024\000\000\230\030\000^\004\t\024\000\000bI\020\000\332\001e\230\024\000\000\370\025~\000!16\332\001\033\250\026\000\0217\256\001\023\260\026\000\025\000\026\000\000\000\001W\270\024\000\000X\026\000\002\351\003W\b\025\000\000PB\000\0218\326\000W\020\025\000\000h,\000\0219m\001f0\025\000\000\360\026,\000\0219\231\001e8\025\000\000\320\027,\000\0222\021\007VH\025\000\000pX\000\000.^\000\266\002G\025\000\000x\026\000\0211\232\000\000\226\000\027(B\000\0026\n\000\200\000\026\350\204\000\0222\240\002\000T\000\027\250B\000\003.\t\027\025\362\000\022f?\005\030\310\024\000\001V\000\000s\002\000R\000&\210\026*\000\000>\000\031\370\302\000\0223<\004f\020\026\000\000(\026?\000\002\300\004V0\026\000\000\220\003\001 23*\354g\0058\026\000\000H\026\000\0214\026\000\000\022\000\027hB\00004\000\022\003\001G\026\000\000X\026\000\0215\026\000\000\022\000\027pB\000\0215B\000\000>\000\027x,\000\0216,\000\"p\026!\002\025\001\026\000\000,\000)x\0267\002\0222\220\007\000\353\000(\250\026,\000\000\306\000\000\302\000\004\203\341\"%fT\b'\310\026\005\001_fa1__\247\364\b\0012\000\032\3202\000\03722\000\013\000i\001\031\3302\000\002\376\n\031\350\024\000\002h\006\032\360(\000\002\252\002\031\370\025\000\002\217\001\000\305\000\025P\024\000\002\250\003U\030\027\000\000p\024\000\002\272\n\000^\002\0250\024\000\002\020\003\000\020\000*H\027\240\013(8\027d\000\002\240\n\031H\024\000\0219x\000\000t\000\025h\024\000!17\312\000\031X)\000!10*\000\032h\025\000\002\370\004\000\237\000'x\027\240\004\000\025\000\031x*\000\037v\201\001\f\0002\000_\210\027\000\000\330\201\001\032o\340\027\000\000\b\030\345\001\031\n2\000\0221\363\013\032\350\025\000\002Z\013\032\360\025\000\002q\bo\030\030\000\0008\030\325\000\025\0002\000o(\030\000\0000\030\007\001\031\000.\000\025X2\000\002\303\005'H\030$\003\003m\005j\260\030\000\000\030 m\005\t\024\000\021r\214\225\205\000\005\360\030\000\000p\031\025\000\002\364\007'X\031\025\000\021p)\000f\002h\031\000\000\210)\000\002\n\nd\230\031\000\000\030\032\025\000\0224\371\004Vx\032\000\000\370\025\000\002\373\002V\330\032\000\000\350\025\000\002\000\001\030\350*\000\021p\373\002v\002\360\032\000\000\b\033\334\003\002p\002f\220\033\000\000\320\033\334\003\002\275\000W\230\033\000\000\270\026\000\0218R\003S\250\033\000\000hu\363\002\026\000\000\333\002W\260\033\000\000\220\026\000\002\301\000f\370\033\000\000H\034B\000\002\363\002V\b\034\000\0008,\000\0223\347\005e(\034\000\000x\035,\000\0223\311\bf0\034\000\000\210\035,\000\002\321\005\000>\000\026PX\000\003\373\n\000j\000\027XX\000\0212,\000\000(\000\027\220X\000\002\277\002\000(\000\027\230X\000\002\235\b\023\330\026\000\025\001\026\000\0001\007W\350\034\000\000\270\026\000\0214\255\006D\360\034\000\000\305\361\002\026\000\000\036\001W\370\034\000\000\b\026\000\002\\\b\000\022\000\0278B\000\002\210\b\000>\000&h\035s\004\000H\001WX\035\000\000\250*\000\0216*\000\"h\035\304\000\025\000\026\000\000V\000\"p\035\230\000\004\026\000\002\"\r\000D\001&\030\036B\000\002\342\001\000D\001(H\036\034\001\000X\000\000T\000(H\037\034\001\000\006\001\023\230\026\000\004\230\000\0000\001\000\224\000\025\330@\000\003+\013W\320\035\000\000\350\201\000\002\362\007W\360\035\000\000(\201\000\002!\002W\370\035\000\000\b\026\000\0219\026\000\000\022\000\027\210\227\000\002\036\b\000\004\363\026x\026\000\0224!\002\000\325\000\026PB\000\0224\026\005\000j\000&p\036\244\005\000\024\000\000\020\000&\b\037@\000\0211V\000\000R\000\027\370@\000\0022\b\035\210,\000\000l\000]\220\036\000\000\260,\000\030\230,\000\022fY\001f\320\036\000\000\020\037\350\005\000-\001f\350\036\000\000\360\036\350\005\000\024\000\000\020\000\035Hh\000\000\220\000(\030\037h\000\000\300\000(\b\037,\000\0224*\005V\250\037\000\000\350\025\000\002\243\003\"\260\037u\004\b\235\004@0 \000\000\004\000\b\235\004\004\024\000\b(\000j@ \000\000P!(\000\t\024\000\"r4\320\007V\330 \000\000\030\025\000\003\332\n\003*\000\bR\000y`!\000\000X(\000R\000\t\024\000\"r1\252\003e\270!\000\000P\"\025\000\002\251\003V\310!\000\0000\025\000\002|\000V(\"\000\000p\025\000\0214*\000\000&\000\0268\025\000\002\215\002\000\021\000\026\260\025\000\002\241\re\250\"\000\000\030#\025\000\002\263\001Tx#\000\000\220\025\000\021p\276\013f\002\210#\000\000\230)\000\002\251\005e\b$\000\000p$\025\000\002\311\001U($\000\0008\025\000\003\216\n\000\021\000\026\270\025\000\002\225\005V\230$\000\000\250\025\000\002\225\005\030\250*\000\"p4\213\017V$\000\000\320$\034\002\001)\000fX%\000\000\230%\033\002\000\035\000f\005h%\000\000\210\025\000\0215\306\003`p%\000\000(& \000\003\025\000\001\356\002\n\025\000\002\017\001\023\310\025\000\024\001\025\000\0009\001\032\320*\000\002$\001V\360%\000\000\b*\000\002\350\bV\370%\000\000\020*\000\003%\001F&\000\000\260*\000\002\356\003\000&\000\025\360*\000\003\362\nd8&\000\000\330'\025\000\022d\354\007VX&\000\000x?\000\002d\001Vh&\000\000p\025\000\001N` \000\005\022\000\026\220\177\000\0221\027\004\000=\000\027\210\026\000\002Y\003\000\022\000\027\270B\000\002x\002\000>\000%\330&Y\b\000\007\0002\005\330&\241\002\004*\000\002\n\bV8'\000\000P\254\000\0221\275\001\000\026\000\031H\026\000\000k\001,H'B\000\000\226\001\023P\026\000\002,\000\0222\325\001U\260'\000\000\270A\000\0222\332\b\000\021\000\027\310V\000\002\372\002W\320'\000\000(V\000\002D\001\000@\001&\350'\026\000\002\021\003\000\022\000\025\bl\000\"d1)\017W\360'\000\000\370X\000\002\325\n\000\022\000\0270X\000\002>\003'\b(\304\000\003\317\003ap(\000\000p*?\000\005\317\003\t\024\000\021r~\204\224\000\005\310(\000\0000)\000\025\000\002B\002V()\000\000h\025\000\002\032\005\000&\000\026\230\025\000\002\344\016U\370)\000\0008T\000\0223\355\001\"\b*i\000\017G\255\002?\000\033\002~\030).P\013~\030/P\013~\030\241k\310\002\000\000\350\002\032\030W\002\000\000\370\002H\020\000)\000k\030\003\000\000\230\003H\020\\\350\003\000\000XD\030gH\004\000\000P\004D\030\000\025\000\000\021\000+\220\004D\030\000;\000'\310\004D\030\000\025\000\000\021\000\034HD\030j\250\005\000\000\270\005-\024\031\260\254\030\0211\220\231\206\000\0050\006\000\000\230\006\026\000\0251D\030\027\320\026\000\002\243\001\031\230p\030\0241\322\026G\006\000\000\b\026\000\002y\003'\b\007,\000\022p\313\005\020\002p\030'0\007%\004\002R\004\000\303\027\025\260B\000#d1T\023\000\027\000\032\250\027\000\000\206\000\000\023\000\026\360\260\027\004.\000\000A\000\000]\027\004\207\000\002}\003f\020\b\000\000x\b\026\000\003\260\bV\b\000\000\210\n\026\000\003\311\t\000\026\000\027\bp\000\002[\002\000\013\031\030\350p\000\002\234\b\000\365\027\030\330\027\000\002\253\022\000\366\027\0004\027\026\000\027\000\000E\000\000A\000'\b\t\027\000\002\322\001\023\360\027\000\026\001\027\000\b%\030\007.\000\023\005&\030\032(.\000\023\000'\030\000\323\027\005\323\r\023\000\344\027'P\013C\000\002\227\001X\310\t\000\000\360C\000\002\272\004\000\250\027'\020\n\027\000\0225\237\013\fE\000\002\000\007\034\350\027\000\0021\t\0230\330\027\026\001\027\000\000\\\000g8\n\000\000\230\n.\000\002\334\006XX\n\000\000p.\000\0217\334\005Xh\n\000\000x.\000\002\340\006\"p\ns\000\026\001\027\000\000.\000+x\n\212\000\002\344\006\000I\030\030\350\\\000\002\b\rW\320\n\000\000\330\027\000\0222\322\n\031\330f\030\001\027\000\001\263\001H\n\000\000\360\027\000\002\017\002\000\023\000\027(\212\000\003\363\022.\370\n\347\004T`\013\000\000h\362\027\003\017\005\t\024\000\021r@\177\000\021\005F\013\000\000(\203\030\0226\250\005\000\231\030\026X\026\000\0227\000\003\000(\000\027\220\026\000\002\262\003V\360\f\000\0000X\000\0227\262\003\000\306\030*h\r\226\000jx\r\000\000\260\025\226\000\t\024\000\"r5f\006\000\255\030'H\016\b\034\000h\000\0200\234\030\027\016\b\034\000\025\000\000\021\000+x\016\347\031\000;\000'\260\016\347\031\000\025\000\000\021\000\000\266\030\005\347\031\023\004\206\030*\250\017\240\017f\230\017\000\000\260\017\235\n\003\022\001\000\000\030\026\020\236\n\0250\026\030\027P\026\000\002h\b\000\022\000\027X\026\000\002\022\001\000\022\000\000\032\030\004\026\000\002q\003\000B\030&\b\021\026\000\003[\0050\020\000\0000\030\004\026\000\002\232\r\023\320n\030\004\026\000\003\375\002\027\021\026\030\000m\251\005\027\030\005,\000\022p\016\023\024\002\026\030\003B\002\0229\364\034\020\320\026\030\004\317\026\001\026\000\023\004\026\000&P\022W\000\002\016\003h0\022\000\000\270\023,\000\000\r\003\000(\000(\260\024X\000\000\255\003\000T\000&H\024B\000\002\235\001\000\223\027\000k\027\003\026\000%50}\027\027\230\026\000\002I\001\"\230\022\334\030\004\026\000\0252>\027\026\350X\000\003\243\006\"\b\023j\027\004\026\000\002I\001\000\022\000\027\030\260\000\002\246\003V(\023\000\000H\226\027\0229\232\000\"0\023\226\027\004`\003!00\027\000\000\023\000'X\023\214\n\002\245\003\000@\000\030P\027\000\002\245\003\000\023\000\030\210E\000\002\312\000\000A\000\000\314\027\t\235\024(\250\023\374\002\000\027\251\001z\001g(\024\000\000P\024C\000\002\311\005X0\024\000\000p\027\000\002\311\020+8\024E\000\002g\031\034H\027\000\002\206\005X\220\024\000\000\360E\000\002\206\005\001)\030\027\024.\000\0255\376\027\030\320.\000\002q\fX\310\024\000\000\330.\000\0020\025\023\320s\000\026\001\027\000\000.\000\034\330\212\000\002\364\006X(\025\000\000H.\000\002\340\035\000/\030\0308\027\000\002j\020\0000\030\b\210\030%081\030'P\025\027\000\002\340\001\0002\030\030\210E\000\002\206\005\0003\030*\260\025\224\004j\300\025\000\000\310\027\224\004\t\024\000#r1 \032'\030\026\005\030#r1\311 \000B\027\027\270\026\000\002\255\017\000B\027\000\220\026\004\026\000\002S\003\000\001\026\027\220X\000\002w\002\000\002\026*\310\027\226\000\000\241\025\0338\331\017\t\024\000\022r\337\002\t?\025\022r\250\000\000\020\000*x\030\177\"\020\310\356\024\026\031\177\"\000\016\001\020\320f\025\032\031\177\"f0\031\000\000x\031\245\036\000(\000\000$\000'H\031\245\036\000\025\000\000\021\000+\270\031\354\017g\260\031\000\0000\032\354\017\000S\000j\220\032\000\000\250\032\317\036g\230\032\000\000\260\032<\031\000>\000g\030\033\000\000\210\033V\025\000>\000\023x\231\024\005V\025\000*\000\000&\000\000Z\024\005B\025\000*\000g\350\033\000\000\360\033B\025\000\025\000\030\360*\000\003\016\037\000\252\024(\030\034\025\033\0003\002U\210\034\000\000\230T\000\000\026\000\023\004\026\000\031\220\026\000\000\200\000\000\022\000\026\330\272\023\003,\000(\230\034#\023\004\366\021\027\034\371\023\000\256\025\023\003\372\023'p\037{\021\023\005\371\023(p\035\200\033\000\026\000W\260\035\000\000\320k\000\003\226\033X\035\000\000\310\035\200\033\000\026\000\032\310\371\023\0231\336\005X\035\000\000\360\035\226\033\000\303\000\023\330\026\000\006\226\033\000\303\000\000\277\000\000\276\023\006,\000\023\005\346\023\000\250\023\031\001B\000\000(\000*0\036\024\033(0\036\243\002#d2 \013\022\036Q\024\025\001\026\000\000V\000\032\270\244\023\0222\375\"\033\310B\000\002\375\"\033\320\026\000\002Z\002\000N\023\026xR\023\003\354\033h(\037\000\000\210\037\203\033\000\034\001\000d\023(X\037\203\033\000\233\004hP\037\000\000h\037m\033\000,\000\"X\037n\000\025\001\026\000\000,\000*h\037\204\000\002\346\013\000\226\023(\320\037\203\033\000\341\001l\270\037\000\000\310\037A\033\031\310\327\023\"d2y\002\000>\000(\330\037\247\027\000\026\000\000\022\000(\020 \247\027\000B\000\030\350\232\000\003+\004'P a\023\003+\004\t\024\000\004\307\023g\250 \000\000\020!\330\025\000D\001g\b!\000\000H!\200\024\000*\000\000&\000'x!\200\024\000*\000k\330!\000\000\030\"\362!\023\350\336\023\t|\n\027\"8\020\003\221\000\t\024\000\004\361\023g\270\"\000\000\310\"\025\000\000R\000'\310\"\262\023\004\006\024\\\330\"\000\000\360\006\024\000\021\000\030\370\006\024\000\025\000\000\021\000\030\b\006\024\000\025\000\000\021\000\034p\362\023Vh#\000\000\260\025\000\002\354\004\000&\000'x#\362\023\023\003E\024'\360#\362\023\001\372\000L#\000\000h\362\023j\310$\000\000\330$o\024\000\356\023'\350$ \023\000>\000{P%\000\000\270%\0002\022W%\000\000\360%2\022\000*\000\000&\000\000N\023\005\206\021\000*\000(\030&\310\023\004\206\021\027&*\000\003o\024g0&\000\000P&Z\024\000\\\002\000-\023\025\320>\000\003\204\024\000\025\000\030\310\025\000\000}\000\000\021\000\024\020+\022\004*\000\000;\000'\030(\356\021\000T\000g0'\000\000\230'\356\021\0009\001g\220'\000\000\250)\356\021\000*\000\000&\000'\250'\303\024\027\005\326\022\024\001\025\000\027\006\325\022\005\303\024\023\006\324\022\026x\000\023\002D\003\000\323\022'((\330\024\000\275\000)\020(V\023\002%\001\"\030(\023\023\005*\000\000?\000\000&\000\030H*\000\000?\000\000&\000*h(A\024(h(\307\002\003\026\025g\350(\000\000\020)\026\025\000S\000\023\360(\023\004b\n\001\335\004\032\370?\000\0219\334\004)\b)\025\000\003T\020gP)\000\000\260)\302\b\001V\000hX)\000\000\270)\001\025\000\023\001hx)\000\000\220)\001\025\000\260\004\031\210\200\023\023d%\020\023\220n\000\031\001\327\024\033\230\204\000\002\222\006l\350)\000\000\b*\227\024l\360)\000\000\370)\227\024\000\022\000,\030*\227\024\000>\000,\020*\227\024\000\022\000,H*\227\024'\030*\232\000\003K\004a\200*\000\000\210,?\000\005K\004\t\024\000\004\013'\020\330S\000*+\000\013'k8+\000\000x+\367&\000&\000'\260+\367&\000*\000g\020,\000\000P,\367&\000*\000\"\030,i\000\b\221\000Q\230,\000\000\330\037\000\006\221\000\t\024\000\"r6\n\007y\360,\000\000\020-\000\221\035e\b-\000\000(-\205\t\002c\003VH-\000\000\270\025\000\001H\000\020\005\021\000%8.\025\000\003`\bU.\000\000\260.\322\r\001\371\000v\002\250.\000\000\270.D\005\002~\000u\320.\000\000P/\000\026\000\002\373\000Q\260/\000\000(\324\f\002\026\000\003\374\000\0270\026\000\021pP\235b\000\002\0300\000\000\377\f\002\324\002\002.\017c\2700\000\000\3500\022\001\001\026\000\000W\000W\3100\000\000\330\026\000\002\344\b\020\320B\000\001\343\000\004\026\000\000,\000\000(\000\027(\026\000\002\t\006f(1\000\000\2501B\000\002\177\002\000:\r\021xc\000\002\026\000\002\207\007WP1\000\000h,\000\002\242\035BX1\000\000\024\025\002\026\000\002\250\f\000(\000&\2602,\000\003D\031A1\000\000\310\217\000\002\026\00006\000\f\261\001G1\000\000\210,\00006\000\r\327\002\000\204\000\007\026\000\002\177\tW\b2\000\000(B\000\002F\004W\0202\000\000\030\026\000\002\t\004\000\022\000\027PB\000\002\253\t\000>\000'\2502W&\000\007\001\000\035\013&\3204+\000\0219\203\000\000\177\000\021\030\301\001\004\026\000\000\257\000\000\253\000\026\020\026\000!90\361\000e\3202\000\00003B\000!90\361\000\020\330\203\000\007,\000\0026\004V\3702\000\000hn\000\0229\260\nf\b3\000\00084,\000\0212n\000\000j\000&\b5,\000\0212\232\000\023\030\026\000\004,\000\002y\016W\2303\000\000\360\204\000\002j\tW\2503\000\000\320\026\000\0214\212&\033\260B\000\0214\205\037\033\270\026\000\002\022\024W\3103\000\000\370B\000\002\343\001\000T\000'P4\213'\000\203\000*\0304A\000\002\326\b\000x\002\027X\361\000\0021\b\000\244\002\027H\361\000\002\314\001\000\003\001\027\330,\000\002H\b\033HX\000\0028\024\000\177\000\031p,\000\000n\000\000j\000'\2304\331\"\000t\001\030\220A\000\"f1\230\000g\2504\000\000\2604\027$\000\025\000\031\260k\000\0231\016\rWh5\000\000\250\026\000\002\205\t\"p5\201\004\b\251\004Q\3605\000\000\310`\000\006\251\004\t\024\000#r1\336+WP6\000\000\220\026\000\0226\277\000\0226,\000\bT\000y\3306\000\000x?\000T\000\t\024\000\004\023-Q\3606\000\000\b\310\000\001\025\000\001\334\000\020\005\021\000\002b\023\001\025\000\0225\273\000F7\000\000\360\025\000\002\351\004QP8\000\000h\333\000\006\2070BX8\000\000G\005\001)\000\0013\000a\005\2108\000\000\b \000\001\025\000\001\037\000f\005h9\000\000\330\025\000\002\331\f\030\310\025\000\022p\317\027x\002\3209\000\000\3509\250\037\000+\000cp:\000\000\260:\372\000#rd\323\023Wx:\000\000\230\026\000\003\333,P:\000\000h<!\000\004\026\000\001\346\001X:\000\0008;\333,\000X\000h\330:\000\000X;\333,\000i\002h\350:\000\0000;\333,\000n\000h\b;\000\000\030;\333,\000\177\002W\020;\000\000(,\000\003\333,V;\000\000\370=,\000\003\333,g;\000\000\350=\000\333,\000\031\003h\250;\000\0008<\333,\000Z\003h\260;\000\0000<\305,\000\306\000W\270;\000\000\330n\000\002\031\003h\310;\000\000\320;\305,\000\026\000\000\022\000\027\bB\000\002\345\004\000>\000&X<\260!\000\006\001f(<\000\000p>*\000\002\357,\000~\000\027h\256\000\0219\256\000\000\252\000(p=\304,\000l\000V\210<\000\000\350l\000!50l\000l\220<\000\000\b=\332,l\260<\000\000\310<\332,h\270<\000\000\320<\332,\000,\000\000(\000(\250>\332,\000,\000\023\320\026\000\006\304,\000n\000VP=\000\000\250t\001\0225\314\001hX=\000\000\210=\304,\000\334\000*h=B\000\002\243\004\000\330\000(\330=.,\000P\002hx=\000\000\260=.,\001\362\000V=\000\000\320=\214\"\000\024\000\000\020\000(X>V3\000V\000\023\330\026\000\006V3\000\f\002\033\350\202\000\002\227\023Y\360=\000\000\020,\000\000N\002\000J\002*8>\314('0>@\000\003\344\"gH>\000\000P>\267(\000\025\000,P>i\000\000\253\000\000\221\000\025x\026\000\0227\234\tU\b?\000\000H8\004\02278\004\"\020?M\004\bu\004y\220?\000\000pE\000u\004\t\024\000\001\230&\000J/e\b@\000\000\310A\321\000!28\327\001h\020@\000\000\320C\230&\000)\001\020\030\026\000\021AA\000\003\026\000\000\351\000h(@\000\000\bA\256&\000?\001\020pX\000\034@\256&\020xB\000\030@\256&\000U\001l\230@\000\000\260@\256&h\250@\000\000\270@\222%\000,\000\000(\000(\330@\222%\000,\000\000(\000(\350@\230&\000\204\000\000\200\000 \220B!\000\004\026\000\000\204\000\000\200\000,\230B\230&\000T\000\026\020\b\001\003\3321\000T\000&0A\t+\000\024\000\"0A\034\001\006\302&\000\006\001h\260A\000\000\360A\302&\000\306\001h\270A\000\000\330A\256&\000t\001\033\310B\000\002\207\002\033\320\026\000\002\263\002f\030B\000\000\210BB\000\002g\004h(B\000\000(CY&\000\256,hHB\000\000XBY&\000\256,hPB\000\000hBC&\000,\000\000(\000\027p,\000\0219,\000\000(\000(xBY&\000,\000\000(\000(\230DY&\000,\000\023x\026\000\006,\000\000\260\000\000\254\000(\250B,\000\000\212\001\000\206\001&\bC8*\000\210\001'\310B\360\000\017!+\022\032\3202\000\017\205+\020\031\3302\000\002\253\006\031\350\024\000\003\006-\n(\000\003\006-\t\025\000\003\006-VC\000\000PC\373'\001\243\001VC\000\000pC\262\005\001\241\001VC\000\0000C~\004\000\024\000\000\020\000%HCO\007\002\006-\030Cd\000\002:\004\031H\024\000\002\025\020\000t\000,hC\006-\t)\000\004\006-\n\025\000\002\241\n\000\237\000,xC\006-\t*\000\017\377+\021_\210C\000\000\330\201\001\032o\340C\000\000\bD\006-\032\t2\000\004\006-\n\025\000\003\006-\n\025\000\003\006-_D\000\0008D\325\000\025\0002\000o(D\000\0000D\007\001\031\000.\000*XD\000*(HD\016\003\0227\357\004\020\370\215\000\005s\005\000n\270\000C\002\022E\210\005\b\260\005y\200E\000\000\360N\000\260\005\t\024\000\020r\335\266\000\321\002UE\000\000\370ED\002\0222\264,eE\000\000\bF\000l\030\002\250\004W(F\000\000\250\026\000\002\322\004u\360F\000\000\210G\000\026\000\002\371\bW\370F\000\000h\026\000\002v\001WXG\000\000\250\026\000\002\320\013\000(\000\027p\026\000\002k\032\000\022\000\027\350\026\000\002\361\006t\330G\000\000XH\000\026\000\003\247\021e\270H\000\000\320H\305\000\001A\001g\002\310H\000\000\330+\000\002\255\003fHI\000\000\270I\026\000\002V\002WhI\000\000x\026\000\002\361\000\000\022\000\027\210\026\000\002\361\000\000\022\000\027\360\026\000\002'\002f\350I\000\0000J\026\000\002\310\007\000(\000\027\370,\000\002t\001\000\022\000\027x,\000\002\301\022WXJ\000\000h\026\000\0023\013'hJ,\000\022pW\000v\002pJ\000\000\220J~\023\002+\000e\030K\000\000XK*\005\02262\001V(K\000\000H\026\000!702\006U0K\000\000\b\f\002\"d7\243\016f8K\000\000pM\026\000\002`\002W\210K\000\000\350B\000\002\360 Q\220K\000\000h\013&\002\026\000\002u\013W\260K\000\000\310,\000\002\016\005f\270K\000\000\320K,\000\002\277\t\000(\000&\020M,\000\002\243\016\000(\000&hM\276\032\002\324\bW0L\000\000\310\232\000\002\331\022fxL\000\000\230LB\000\002\241\013W\210L\000\000\220\026\000\002\222\002\000\022\000\027\260\260\000\002k\005\000>\000\027\250\026\000\002,\t\000\022\000\027\330B\000\002\301\t\000>\000'\370L\364\004\000\025\000\000\021\000\027\320\305\000\002e\007WXM\000\000\370\257\000\003_\005GM\000\000\360\333\000\002\002\020(\270M\227\003\"12D\020\030\310\026\000\023f\247\002\031\320+\000\004W\000\000S\000(\270N\203\000\000\314\001\033\370W\000\002\257\000W\030N\000\0000\026\000\002\205\006\000\022\000\0278\026\000\002H\001\000\022\000\027H\026\000\002H\001\000\022\000\027P\026\000\002\034\001\000\022\000\027X\232\000\002\221\fWhN\000\000\210\232\000\003\332\003GN\000\000x\026\000\002\221\006\000\022\000\027\230B\000\002\223\005\000>\000\026\220\026\000\0228\024\b\000\022\000\026\310B\000\0228\251\006\000>\000*\360N\b\005a\000O\000\000\bQ?\000\005\b\005\t\024\000#r1|1uXO\000\000\310O\000\026\000\002\225\003W\270O\000\000\370\026\000\002T\003\000(\00040P\000\026\000\003\214\nW\220P\000\000\320\026\000\002>\003\"\230Pn\000\t;8iQ\000\000\270Y\000\226\000\t\024\000\021rA\341u\000\0050Q\000\000H\253\000\0227~\000\000\021\000\025\270\025\000\0228}\000g\bR\000\000\020R\025\000\000*\000\000\021\000\026\330\025\000\002\271\003V(R\000\0008\025\000\002\030\002\000\021\000\026H\025\000\002\027\002\000\021\000\026P\025\000\002\026\002\000\021\000\026\270\025\000\002\376\004V\260R\000\000\370\025\000\002\024\002\000&\000\026\310\025\000\002\355\005\000\021\000%8S\025\000\003\347\000FS\000\000\260\025\000\002\317\004e\020T\000\000(T\372\004\0223\022\025UT\000\0000T\032\037\002\347\000t\230T\000\000\bU\000\025\000\002\351\005V\370T\000\0008\025\000\002A\003\000&\000\026\210\025\000\002\300\013VhU\000\000p\025\000\002M\n\030p*\000\022p\373\005x\002xU\000\000\230U\357@\000+\000c(V\000\000hV\342\001\005\357@h0V\000\000PV\357@\000x\005(8V\346\001\000\026\000\000\254\003fHV\000\000xX\026\000\002\331@W\220V\000\000\360B\000\002(\003w\230V\000\0008W\000\332@\001E\004XV\000\000\320V\332@\001E\004XV\000\000\330V\304@\000,\000\000(\000&\030X,\000\0024\r\000(\000\025p\204\000\0229\355\003\000i\000,\030Y\357@h\210W\000\000\250W\357@\001\257\000XW\000\000\230W\331@\000\026\000\000\022\000\027\270\257\000\002\244\017\000>\000\027\260\026\000\002\317\005\000\022\000\027\350B\000\002p\007\000>\000%\bX\n\005\002V\003\"\bXH\001\031\001\004A)hXH\001\0226\235\002\000\026\000\031p\026\000\000\360\000\035pB\000\000\212\001\023x\026\000\002,\000\0229\267\bU\330X\000\000\350A\000\0229\366\001\000\021\000,\360XDAW0Y\000\000PV\000\002\n\003l8Y\000\000HYDA\000\022\000\027h]\001\002;\006\000>\000\027X\026\000\002J\005\000\022\000\027\220B\000\002J\005'hY\304\000\003\\\004a\320Y\000\000\320[?\000\005\\\004\t\024\000\021r%\272\224\000\005(Z\000\000\220Z\000\025\000\002u\003f\210Z\000\000\310Zv\t\002a\003\000'\000\027\370\026\000\002b\003fX[\000\000\230[\026\000\002\007\002\"h[l\000\017\034\227\001 \0005\252\000\b1.\rF.\037\004F.\000\023\000F..0\nF.\000\024\000\004F.\023\003F.\027\250F.\023\004F.&p\002\000\033/\000\006F.\001\037\007F.\001\037\006F.\001\037\007F.\001\037\006F.\001\037\007F.\000\000\246\000\000\242\000\0338\304F\000-.*\260\003\316\r\031\250\304F\003,\027(\320\0030.\003\217\002\030\260\033.\003\352\032@\270\004\000\000\312F\006|\003\004\263F%\230\005\245\000\0226\222\000hh\005\000\000\210\005|\003\000\257\004)p\005\236E\02266\023)x\005\230-\003kD)\310\005\243F\003}\003h\320\005\000\000H\006'\003\023\006\370F(\b\006'\003\034\007\371F\001\021\003\000\346\016\023\b\213.\025\001\026\000\000,\000'\020\006\366E\001\021\003\004\267.,\360\006'\003\000\267.\027\250\026\000\002I\005\000\022\000\027\310n\000\002q\bh\260\006\000\000\270\006\031\013\000\026\000\000\022\000\026\370B\000\0227q\b\"\310\006\316.\006-\003\000\260\000)\320\006\001.C71\000\t\314.(X\tE\013\023\b\313.(0\bE\013\000n\000\020\360,\000\034\bE\013\000RG(8\bE\013\000\204\000h\030\b\000\000h\bE\013\000\b\001\023(\312.\006\031\013\000n\000\000j\000\027PB\000\002\251\022\000T\000(H\b\031\013\000\026\000*H\b\260\000\002\037\005\023P\026\000\006/\013\000n\000)\320\b\227.\003/\013\032\3307/\0227\365\004\013\b/\0030\013(\360\b\274/\004?\n\032\370WG\003?\n(\b\t\204\000\004\215\004\000\215F(\370\t\215\004\023\003\356.\f6\004T@\n\000\000\0303.\003^\004\t\024\000\"r9M\002\023\250E.\005!\005\000R\000\023\260*\000\bR\000\"0\013m*\bR\000\t\024\000\003\222J\000\345-&8\f\023(\000P\000j\330\013\000\000\360\013\023(\000\020\000&\370\013\023(\000\024\000\000\020\000*\b\f\023(\000\020\000&x\f\364\000\001e\000g\310\f\000\000H\r\023(\000*\000g\350\f\000\000\370\f\023(\023\003\034.'\b\r\371#\000\025\000'\b\r\367F\004\371#\000\021\000'p\r\371#\023\004\036.\006\t.\003\371#l\360\r\000\000\b\016\371#W\016\000\000p\016\371#\000'\003\000\365F,(\017\371#W\016\000\000\330\016\371#\001i\000W\016\000\000\360\016\371#\000*\000\000&\000+\030\017\371#\030\b#G\004\0057\032\030\025\000\002]&\nMG\0252MG'P\017g#\000\204\002\020\270bG\005\003.\003|#(\270\017\310F\02222\003\000\233.\030x*\000\023\006\232.\027\310BF\001\222\000\000P\000'\320\021M$\000i\000gh\020\000\000(\022M$\000T\000\000P\000'\350\020\345#\000\205\003\023\330\226F\005\345#\000*\000\031\350\225.\0223\320\017\031HiF\003\035\027\000&\000+\210\021\245!(p\021\316E\0223\272\006\000&\000+\220\021\3478\000\354G'\270\021$$\000i\000g\250\021\000\000\260\021$$\000\025\000)\260\021cF\002\344\005\000;\000'\330\021\372#\000&\001\023\310\025\000\024\001\025\000\023\003\372.'\030\022*\000\000?\000\000&\000%\370\021\r\n\001)\000(\030\022k\003\022di\013\0230\025\000\024\001\025\000\000\206\030\0328*\000\0259\207F\000qF\030\001\017$\000\t/\000uF\031\000\371#\"\260\022\307.\025\001\026\000\000\276\000\023\270\037/\006\371#\023\b\263F\005\236F\005\017$\000i\000\000\270F\031\000\371#\032\330\255\000\003\3208\032\350\256\000\003\237 \000w/(P\023\017$\027\006w/\006\017$\023\006w/\000O/\025\000\026\000\000\306\000\000\302\000,(\023\017$\023(`/\025\001\026\000\023\006\215/*\210\023\357\004\000\"G*\250\031\357\004\t\024\000\004\320#\020\360S\000\027\024\320#\000\256\001\000GG'(\024u,\023\003l/'\220\024u,\000|\000\"\210\024\233.\005u,\023\003:/\006#/\003u,\000K/'\020\025u,\000*\000\"\370\024\303.\t\267A\031(\301.\003\t,\n\326.\0224R\001\030H\025\000\003E(\032P\031G\003\264,)\330\025,F\003b\026(\330\025,F\0234l\007\000\351E\t+\000\023\006AF(\350\027W\000\000\226\000\000S\000'\360\027)*\004\024F'H\030)*\000V\000\030\230\023F#r4\000\022W\026\000\0008\027)*\023\007tE'p\027\2528\023\b\347D\005\322D\000\2528\023\007\347D+\250\027\2528\0006/'\020\031\2528\000*\000\000&\000(\260\0272-\000\026\000\023\270\340D\0062-\000k\000\023\310(E\0062-\000\026\000)\320\027\377F\003\3335\000>\000(\370\027\006-\023\006\277D(\370\027\006-\023\003\201/(8\030,\000\000B\000\000(\000&\030\030\231\031\000*\000(8\030\251\002\"d2\017\025\023P\026\000\025\001\026\000\000/\004\033X,\000\002\303\003@\250\030\000\000fD\031\001\034-\000\215D\026\350\202\000\003\006-\004\335/\006\034-\000\304\000h\330\030\000\000(\031\006-\000B\000\000>\000\027\bn\000\002\034-\000j\000\027\370X\000\002\006-\033\370\260\000\002\340\t*\b\031\260\000\002\250\007\023\030\375D\006\034-\000\204\000\000\200\000(0\031\034-\023\006y0,P\031\034-\n{0\004\034-\023H\2450\025\001\026\000\000B\000'P\031\232\000\0031\004\000\2420*P$1\004\t\024\000\"r5\253\007\020\360\225\000\027\033\340:\004+E*\250\033Q+\000)E\000\001E\005\007\022\000>\000\000PE(\350\033\340\035\023\b|0\007\273/\003\366\035\000~0(\210\034\312\035\023\005\320D&\260\034,\000\002\n\004\032P~0\0223\305\007\020p\244D\030\034\340\035\000\255\000\020x\2240\030\034\266\035\023\007\3000\027\250B\000\002\203\001\032\220\3540\0223\203\001\000\3000\b\260\000\002\343\003\023\250\026\000\006\314\035\000n\000*(\035\302E\0029\007\0330\374D\0029\005\000\022\000\000\3620\025\000\026\000\001\362\000X\035\000\000P\035\314\035\000\026\000\000\022\000(\210\035\314\035\00401\005\204\000\003I\"\000\246D\024\260*\0009fd1.1\024\000\025\000\034\004\025\000\003\222<\030\270\024\000\001\334\035\000\360\teX\036\000\000\230\036~\000\003\317\005\023h\271D\006\021$\023\byD\000k0\035\000yD\b\026\000\002\373\003\023\310\026\000\025\001\026\000\023\005\3250\b,\000\002f\007\023\360yD\025\001\026\000\023\006=D(\020\037'$\023\004=D(\260\037'$\000,\000\000(\000'\370\037\225\024\000\203\000h8\037\000\000P\037<$\023\005\3520\007B1\003<$\000\3520(p\037&$\000\026\000\000\022\000\027\220B\000\002\242\003\032xn1\003&$\000\022\000\027\270B\000\002\037\002\030\220\231\000\003TE\023\330\0241\022\001\262\001\002\032\001\031\350)\000\003S?\t\025\000\002I&w\002\360\037\000\000\b k\025\000g\000)( \2511\003\201\006hH \000\000\350 \243$\023\b)1(\330 y$\000\200\000f\230 \000\000\b!,\000\002\001\006\000@1\006\0261\"d5\036\002\023\310V1\025\001\026\000\000\255\000\020\320\205E\030!y$\023\b^E\026\370n\000\02254\002\000_E(\360 \217$\000\026\000\000\022\000\024HZ1\001\026\000\000B\000\000>\000,x\"\217$\000\226\000(\020\"\217$\000[\006h\210!\000\000\b\"\217$\000\260\000h\220!\000\000\260!\217$\001\362\000G!\000\000\250\026\000\002y$\000\022\000(\330!\217$\000B\000\000>\000&\370!\351\037\000\024\000\000\020\000(\350#M$\000\202\000\031\b\3411\"d5h\004\033\020\026\000\002\314\026\023X\026\000\006\314\026\000\202\000\033h,\000\002\314\001W\210\"\000\000\230,\000\002\314\026f\220\"\000\000\250\",\000\002\213\007\023\230P2\006\314\026\023\b-F\006\005\006\003\217\027\nf2\000\313\026\023\004R2(P#\341\026\023\006S2\027\020\026\000\002\341\026\000\022\000\0250*2\"d6\226\004\000\226F,(#\314\026\000\022\000(X#\314\026\000B\000\0300\2012\022fy\002\000\2002'\370#\035!\001\255\000U#\000\000\030$\025\000\002\346\003\000\2252*P$\004\007\020`\305F\032%\004\007\t\024\000\004y\030\000\2752+\b%\210\027\023\320*\000\bR\000\000\2752\000\340.\027\000R\000\000\024\000,\220,\fB\tEF\003\216&\000\231F'p)\334=\000\343\000l\330%\000\000H&\334=\0030F\005\334=\000*\000\023H\356E\t\303W\023\250\231F\t\334=\032\260*\000\0251\3742+\350&\330W(\320&\3770\003*\030\031\350\330F\003)\030\000\021\000'h'\305*\023\006\352E'\360'\305*\023\005\352E\006\2232\003R\024(\030()F%68~2'\220(\261*\000*\000g\210(\000\000\330(\205!\000*\000\000&\000'\230(\205!\000\025\000\000\021\000\026\250\025\000\002]\002\000\021\000'\b)_'\000T\000(h)\2173\003\264\036\000\213\001'\330)\2000\000?\000g\320)\000\000X*\2000\000*\000\"\330)\2671\005\306!\000T\000(8*;\001\003)\023\000&\000'P*=\034\000\025\000\031P*\000\003P\035\030X\025\000\003\2409jh*\000\000x*\255$h\350*\000\000\310-\334'\023\005\3141\025\320\3141\000\026\000\023\004\026\000'\310+|\034\000\250\000U\250+\000\000H\240\002\004A\000\000=\000\031pW\000\000A\000g\330+\000\000\210-\250\034\000H\004g\370+\000\000\030,\250\034\023\b82'x,\250\034\000k\000gp,\000\000\260,\250\034\000*\000'x,4\003\"r8\n\005g\330,\000\000\350,\250\034\000\025\000\000\021\000+\020.\250\034\000;2'\030-\250\034\000\025\000\031\030P2\000\305(\000\236\003W0-\000\000P\324\000\002,\000h8-\000\000H-\305(\004}2\026hB\000\"30\340\003X-\000\000X-\333(\000\026\000)X-\203\001\003\333((h-\256\000\"d3\224\002\000T\001\035\220,\000\030x,\000\003;'\030\260\3772\022f7\004\035\270T\000\000\003\002\000|\000?\350-\000\243`\007\202\003\003\003\003\002\002\003\003\b\000\000\001\000\022\020\006\0006\003\003\002\032\000-\016\003\001\000\001&\000\000\007\000\022\0203\000;\020\002\003\001\000\033\016\013\0006\016\016\016R\000\b\034\000\027\016\024\000\025\016\001\000*\020\016\001\000\003l\000\001\233\000\017k\000\004/\016\002o\000\003\000\006\000\022\002\001\000+\020\002C\000\b3\000\002.\000\002\n\000?\002\002\002[I\007\b-\000\003S\000\t[\000\001\033\001\007Y\000\n\001\000\001(\000(\003\0036\000\bs\001\000\001\000\017<\000\023\017u\000&\017;\000#\023\0205\000+\020\003\001\000\037\016\017\000\002R\016\016\016\002\002(\001\037\002:\000\031\000\271\001\0005\000\017*\000\013\017(\002\006'\002\002\224\001\006\t\000\b|\000\025\002S\000!\002\002\005\000\007\000\001\003\r\000\001\007\000\nE\000\017A\000\002.\003\0035\002\017I\035\003\b,\000\001S\000\007P\000\tV\000\007\021\000\024\002\004\000\016\001\000\b.\002\000$\000\006\221\000\fD\000\0172\000\037\017\314\003\000/\017\017\377\000\000/\017\017\366\003\b\004%\000\004\207\003\037\002\001\000\007\020\020#\000\r\233\000\360\013\003\016\016\003\001\021\001%\b\023\005\003\b\020\006\033\b\021\001\022\001\000\000\002.\001\t\000\360\007@\n\207@\b\003\b:\013;\013?\f\000\000\0034\000\003\bI\023\017\000\2203\013\002\n\000\000\004\005\000\t\000\002\"\000kI\023\000\000\0054\021\000P\006\035\0001\023K\000\321X\013Y\013W\013\000\000\007\001\001I\023\305\f\360\003I\0237\013\000\000\t$\000\003\b>\013\013\013\000\000\n\013\000\222\013\013>\013\000\000\013\013\001\211\000\240\f9\001\003\b\000\000\r\004\001\033\000\000V\000\366\001\000\000\016(\000\003\b\034\017\000\000\017\023\0016\013\030\000%\020\r\237\000r8\n\000\000\021.\001\210\000 <\f\275\000\240\022\005\000I\0234\f\000\000\023\t\000r\000\000\024\026\000I\023!\000U\000\000\025.\001\352\000\"I\0231\0000\026\b\000\017\000\000\033\026!\027\0173\000\027\030p\000E\005\000\000\031p\000\001\320I\023\032p\000\022\005?\000\026\033S\000\024\005S\000\025\034t\000Q\005\000\000\035&U\000=\036.\000{\000\030\037\273\000W2\013\000\000 \240\000\004\024\000\035!\264\000\000\026\000!\"\020V\000\241#.\000G\023 \013\000\000$\306\000\001\341\026\033%1\000Z\000\000&.\001\241\000:'.\001\212\0000(\023\000)\000\020)\372\000\004h\0016*.\000\351\000`\207\001\f\000\000+\025\026\020,<\032 -&8\226\021\025\344\001;/.\001(\000:0.\000p\000\0261\223\000\022\005\223\000a\000j=\000\000\002b\007\361c\b\001clang version 18.1.7 (https://github.com/vortexgpgpu/llvm.git 5212b10160e63c9a9883c3fb8b08d015b667ddab)\000\032\000lud.cuw\000\364\025/nethome/cahn45/CuPBoP/examples/lud\000\001\000\023\300\r\b$\002\000\001\000\003\337\t/\001\234\016\b\002\b\021\000\320\000\001\020\001\003shadow\000z\"!3\023\b\t\330 \202\000\000\004\006\t\221`\226\001\000`m\000\001\020\377 \024\000\025\013\024\000p#\bmatri=-\000\037\000+\343\031\037\000s\foffset\033\000\030\005\033\000]\020i\000\001\022\026\000/\024j\026\000\001t\030array_M\000\020\025!\000 \006\250\207b\0035O\004\324g1\001\027\026\030\000\004\374\037\004Xg2\001\030-\030\000\003\207K\023P\b\0001\001\036\t\030\000\023Xq\034\004\235c1\001 *\030\000\023\000\022\030\023 \b\0001\001!\016\030\000\023\340\370\025\023\000|\025\"\001%H\000\023\3003\023\023\340\b\0001\001(>\030\000\004\211\016\004-U#\0015\250\000\000\250\002\022\000\203@\001\030\000\3426-\000\007\214\002\000\000\b\225\002\000\000\020\006\000\365\022\000\tfloat\000\004\004\n__ARRAY_SIZE_TYPE__\000\b\007\367\001'\200\\\367\001\017\320\b\000\t\022\000\202\000\001<\001\003dia\366\001\020>\366\001\003\222\"\024\003-\242\002\033\000\020?\033\000\030\b\033\0002col\033\000\037@,\002\007\037<,\002\013?<\343\031,\002\005\037<,\002\002\037B,\002\002\037B,\002\r\016!\000u\034idx\000\001CD\002\023\270?\001#\330\002=\001!E\007\030\000!\020\003\017\000#\0000\b\000W\001F\013\006\256\021e\004\327LS\001Q\030\006\256\023e&\000\000\274K\"\001RD\002\000\354]\001\001\000\0034\002\"\001WH\000\023\320J\021\004R\0212\001`\0350\000\003\361\f\023\000\366\013\"\001\212\220\000!8-\017\000\005z\f\"\001\213t\0022\3406\000\001\000\001\363\023B\000\000\001\221\030\000\023\320<0#\360E\030\000\022\233H\000\023\030)0$8F-\002\021\t\220\000\023X\016/\004n/\"\001\237\330\000\023\020\345+\004\235,1\001\240\031H\000! Q\017\000#\000@\b\000\"\001\244H\000\023\030Y*\004\312*\\\001\245\035\000\002\252\004/\001\234=\t\002\b\021\000K\000\001\260\001\212\002\027\262o\002\013\212\002\027\263\300\002\000\212\002%P\226\212\002\024\260\212\002\037P\212\002\002;\260h=\037\000\005\212\002\001\033\000\030\005\033\000{\030i\000\001\302\343\031\026\000\233\034sum\000\001\303\214\002\030\000\022 C\276\000\301\000m_id\000\001\307:\000\023$\"\0001col\"\000\035\310\"\000\022(\033\000Mx\000\001\370\034\000\022,Y\000@x\000\001\371\034\000#\013\320h\001! \013\007\000\n-\000\000E\003\022\267'\000\003E\001/8\n'\000\000\000V\003\020\271'\000!\000\000\317\001\004$j\004\013#\223\001\307!\006\264\020\000\000\330\265\"\004\275\"P\001\310!\006\272\217\002\003[\005\023\000\030\"1\001\312\020/\002\023\370\020\000\004\033\"W\001\3126\006\272\bP\004\241!1\001\31340\000\023`L $\200\021\030\000\021Z0\000\023\000c\036\023 \b\0001\001\314\0270\000\023\030\022\036\004Y\036\"\001\314`\000!x\026\017\000\005\335\0351\001\315;0\000\023\200\227\003$\240\027\030\000\002`\000\023\300\250\032\023\340\b\0001\001\362\0230\000\0230[\027\004%\0301\001\362:0\000\004\350`\004R\027\"\001\364\220\000\r\337\003!\36450\000\004\326F#\330%\030\000!\370%0\000\023\300\003\006\024\340\013\006!\370K0\000\023\360\313\007#\020,\030\000\022\375;\006\023\370\020\000\004\366\020\361!\001\375<\000\fnv\000\ftarget\000\fdetail\000\rsm_selector\000\b\002X\016sm_35\000#\b\00007\000%\b\000A50\0002\b\00012\0004\b\00003\0005\b\000A60\000<\b\00011\000=\b\00002\000>\b\000A70\000F\b\00012\000H\b\00005\000K\b\000A80\000P\b\00016\000V\b\00017\000W\b\00009\000Y\b\000r90\000Z\000\017\005\242\000\200_descripgqR\000\b\002Q\020\027\000\317s\000\251\t\000\000\002R\002#\000\021)\000\000`\002T\001\001\022\2079&\020\023(\000P\000\000\024q\n\254\257 se9\004\322_t\000\0022\025_ZN2nv6>\000\0226\b\001\360\00010is_exactlyENSL\370\007\031\001&E\000\036\000@\000\002\216Z\333&0\001\023\311\365\006\017N\000\002\2378providesK\000\001\004\034\0008\000\002\223I\000@\000\026\002\253\020\0000\026\002\254\020\000A\026\002\312\273\016\000!\313\t\207\003\341\tunsigned long\005\000@\000\007\b\0272\000\366\013\030\005dim3\000\f\003\242\001\031x\000+\013\000\000\003\244\001\002#\000\031y\r\0006\004\031z\r\000!\b\0321\000`\003\247\001\001\001\022,\013 \001\023\034\000\006\005\000\023\000!\000\026\250!\000\020@\027\000`\033_ZNK4\034\000\361\005cv5uint3Ev\000operator \021\000@\000\003\251\001,\000@\001\001\022~\007\000\b\272\000\363\001int\000\007\004\027\214\n\000\000\034N\013\000\0001\000B\200\001\017\005\013\000C\f\003\300\020\302\000e\302\002#\000\020y\f\0005\004\020z\f\000\200\b\000\027\203\013\000\000\035H\0002\017\004_\2447\360\tbuiltin_threadIdx_t\000\001\0044\036\237\001\0376$\000\007\22517__fetch\035\000MxEv\000\024\000A\000\0045+\325\000\017P\000\037\037yP\000\000Oy\000\0046P\000%\037zP\000\000Bz\000\0047P\000\000\217\002\037KQ\000\t!cv\300\001\b\270\001\000\020\0000\000\004:O\001P\001\001\022\004\016\266\001\017H\000\020\017\001\002\005G\004;N\013J\000\037\037D\000\007\217\000\004>\001\001\003\022\016(\000\031 \023\023)\006\037 \237\000\ruaSERKS_\234\000\023=D\000\026\004D\000\037!D\000\016\027d\335\000P&\000\004>\030=\000\004E\000\320\000\000\027\t\016\000\000\035\210\013\000\000\027\005\0003\"\t\016\n\000\r\225\002Tblock\224\002\021A\364\001\0375#\000\006\017\223\002\026\027BC\002\017O\000\002\017\222\002\033\037CO\000$\017\221\002\004\030D\221\002\017P\000\002\017\220\002\013\023G\220\002\021\217\317p\017G\000\017\017\217\002\0067HN\013I\000\037\037C\000\0060\000\004K\335\001\037\231'\000\0305\023\236\020\215\002\017\234\000\007\017\214\002\000\001C\000\026\217C\000\037!C\000\r\013\213\002 K\243<\000\004D\000\220\000\000\027\224\020\000\000\035\035\201\002\000\005\0003\"\224\020\n\000 #\250\375\000 #<\262\002!#\213\006\000\000\221,\361\002\001\fstd\000\026\005\310\310\031\000\000\026\005\311\352\007\0000\312\007\032\007\000!\313&\007\000!\314C\007\000!\315b\007\000!\316\177\007\000!\317\244\007\000!\320\303\007\000!\321\340\007\000!\322\375\007\0000\323(\033\007\000!\324C\007\000!\325`\007\000!\326{\007\000!\327\230\007\000!\330\263\007\000!\331\320\007\000!\332\357\007\0000\333\f\034\007\000!\334/\007\000!\335N\007\000!\336u\007\000!\337\230\007\000!\340\273\007\000!\341\336\007\000\020\342%hA\026\005\3433\007\000!\344X\007\000!\345w\007\000!\346\244\007\000!\347\321\007\0000\350\t\036\007\000!\351(\007\000!\352O\007\000!\353\201\007\000!\354\267\007\000!\355\326\007\000!\356\373\007\0000\357-\037\007\000!\360R\007\000!\361w\007\000!\362\230\007\000!\363\304\007\000!\364\345\007\0000\365\000 \007\000!\366\037\007\000!\367>\007\000!\370[\007\000!\371x\007\000!\372\227\007\000!\373\270\007\000!\374\333\007\0000\375\004!\007\000!\376=\007\000\241\377\\!\000\000$\005\000\001\203\b\0001\001\001\260\b\0001\002\001\321\b\0001\003\001\376\b\000@\004\001,\"\b\0001\005\001I\b\0001\006\001h\b\0001\007\001\221\b\0001\b\001\270\b\0001\t\001\333\b\0001\n\001\366\b\000@\013\001\023#\b\0001\f\0010\b\0001\r\001K\b\0001\016\001h\b\000\240\017\001\211#\000\000\026\0074\250\007\0001\tU\274\007\000!h\320\007\000!{\344\007\000!\216\370\007\0000\232\022$\007\000!\255&\007\000!\3009\007\000!\323M\007\000!\346`\007\000\241\371t$\000\000$\t\f\001\211\b\0001\030\001\242\b\0001+\001\274\b\0001>\001\326\b\0001Q\001\351\b\0001d\001\376\b\000@p\001\034%\b\0001\214\0014\b\0001\237\001G\b\0001\262\001[\b\0001\305\001o\b\0001\330\001\202\b\0001Y\007\226\b\0001Z\007\246\b\0001]\007\265\b\0001^\007\312\b\0001_\007\340\b\000@a\007\005&\b\0001b\007\032\b\0001c\0070\b\0001e\007F\b\0001f\007[\b\0001g\007q\b\0001i\007\207\b\0001j\007\233\b\0001k\007\260\b\0001m\007\305\b\0001n\007\342\b\000@o\007\000'\b\0001q\007\036\b\0001r\0071\b\0001s\007E\b\0001u\007Y\b\0001v\007m\b\0001w\007\202\b\0001y\007\227\b\0001z\007\253\b\0001{\007\300\b\0001}\007\325\b\0001~\007\352\b\000@\177\007\000(\b\0001\201\007\026\b\0001\202\0070\b\0001\203\007K\b\0001\205\007f\b\0001\206\007\204\b\0001\207\007\243\b\0001\211\007\302\b\0001\212\007\334\b\0001\213\007\367\b\000@\215\007\022)\b\0001\216\007,\b\0001\217\007G\b\0001\221\007b\b\0001\222\007|\b\0001\223\007\227\b\0001\225\007\262\b\0001\226\007\310\b\0001\227\007\337\b\0001\231\007\366\b\000@\232\007\f*\b\0001\233\007#\b\0001\236\007:\b\0001\237\007Q\b\0001\240\007i\b\0001\242\007\201\b\0001\243\007\231\b\0001\244\007\262\b\0001\247\007\313\b\0001\250\007\340\b\0001\251\007\366\b\000@\253\007\f+\b\0001\254\007 \b\0001\255\0075\b\0001\257\007J\b\0001\260\007^\b\0001\261\007s\b\0001\263\007\210\b\0001\264\007\236\b\0001\265\007\265\b\0001\267\007\314\b\0001\270\007\343\b\0001\271\007\373\b\000@\273\007\023,\b\0001\274\007&\b\0001\275\007:\b\0001\277\007N\b\0001\300\007h\b\0001\301\007\203\b\0001\303\007\236\b\0001\304\007\275\b\0001\305\007\335\b\0001\307\007\375\b\000@\310\007\035-\b\0001\311\007>\b\0001\313\007_\b\0001\314\007~\b\0001\315\007\236\b\0001\317\007\276\b\0001\320\007\337\b\000@\321\007\001.\b\0001\323\007#\b\0001\324\0078\b\0001\325\007N\b\0001\327\007d\b\0001\330\007z\b\0001\331\007\221\b\0001\333\007\250\b\0001\334\007\305\b\0001\335\007\343\b\000@\337\007\001/\b\0001\340\007\035\b\0001\341\007:\b\0001\343\007W\b\0001\344\007m\b\0001\345\007\204\b\0001\347\007\233\b\0001\350\007\261\b\000\241\351\007\310/\000\000\026\013\203\337\007\000!\204\356\007\0000\206\0370\007\000!\212,\007\000!\215I\007\000!\220g\007\000!\221{\007\000!\222\217\007\000!\223\243\007\0000\224 1\007\000!\225<\007\000!\226U\007\000!\227g\007\000!\230x\007\000!\231\224\007\000!\232\251\007\000!\233\303\007\000!\235\332\007\000!\236\365\007\000\020\237\333OA\026\013\241I\007\000!\244j\007\000!\247\202\007\000!\250\221\007\000!\251\256\007\000!\252\300\007\000!\253\340\007\0000\254\0003\007\000!\255!\007\000!\2578\007\000!\260e\007\000!\364\371\007\0000\366+4\007\000!\370>\007\000!\371\313\025\000!\372T\016\000!\374o\007\000!\375\307\007\000!\376\204\007\000 \377\245=\330Q\013\000\001\3424\351\r\361\001St3abse\000abs\000\007O\366%\275\r\000\007\000`\000$\017\273\001\345Q\275@\017\274\001\004\243\337A\017\275\001%\b\0001\276\001D\b\0001\277\001e\b\0001\300\001\214\b\0001\301\001\253\b\0001\302\001\314\b\0001\303\001\353\b\0000\304\001\n\347\274A\017\305\0017\b\0001\306\001T\b\0001\307\001s\b\0001\310\001\222\b\0001\311\001\257\b\0001\312\001\316\b\0001\313\001\353\b\0000\314\001\f\320\327A\017\315\001+\b\0001\316\001P\b\0001\317\001q\b\0001\320\001\232\b\0001\321\001\277\b\0001\322\001\344\b\0000\323\001\t\310\353A\017\324\0011\b\0001\325\001X\b\0001\326\001y\b\0001\327\001\240\b\0001\330\001\303\b\0001\331\001\346\b\000@\332\001\013:\b\0001\333\001,\b\0001\334\001M\b\0001\335\001l\b\0001\336\001\213\b\0001\337\001\250\b\0001\340\001\311\b\0001\341\001\354\b\0000\342\001\022\322\322A\017\343\001<\b\0001\344\001l\b\0001\345\001\217\b\0001\346\001\277\b\0001\347\001\357\b\000@\350\001\017<\b\0001\351\0010\b\0001\352\001\\\b\0001\353\001\206\b\0001\354\001\244\b\0001\355\001\304\b\0001\356\001\344\b\000@\357\001\002=\b\0001\360\001\"\b\0000\361\001F\023L@%_ZL\325\001\021i\325\001 \005\036\332\022!\001\023\340\022\020\t\257\016 \005\004\"\000p4acosf\000\006\0000\000\005 \310\023C\001\023\214\002?\000\0205\027\000\022h\036\000Kh\000\005\"\037\000p4asinf\000\006\000=\000\005$<\000Bsinh\036\000Mh\000\005&<\000 ta<\000mtan\000\005*<\000Rtan2f\037\000F2\000\005( \000\013%\000\022h$\000Kh\000\005,D\000p4cbrtf\000\006\000=\000\005.\035\000Peilf\000\006\000;\000\0050\035\000P8copy\330\0174ff\000\013\000?\000\0052\204\000\001\0213=\001\001<\001\0354c\000\001;\001\002:\001\0336\035\000\3133erff\000erf\000\005:\033\000Q4erfc\034\000Mc\000\00588\000\255xpf\000exp\000\005>8\0001xp2\034\000K2\000\005<\035\000a5expm1\036\000[m1\000\005@\037\000\2014fabsf\000f)\002\035B\035\000`dimff\000\007\000?\000\005D\213\001\002qfloorf\000\007\000;\000\005FB\000P3fmafB\000[ma\000\005HA\000\bi\0002max'\000Kx\000\005J(\000\004#\000!in#\000\000s\002\037L#\000\004!od#\000_od\000\005N#\000\001\34610fpclassifyf\000\f\0002\000\005P%\003\007\331\000\020rr\0011Pi\000\t\0007\000\005RP\000\020.\353\0323\027\343\031+\000\201hypotff\000\b\000?\000\005Tz\000\001\2015ilogbf\000\007\000;\000\005Vo\000\2648isfinitef\000\n\000U\000\005[\234\035%\000\200\tbool\000\002\001-\000\2019isgreatK\002\005\f\000_\000\005_\234\035\363\000\000\0254\"\000Xequal3\000\001\021\000?\000\005^8\000\00115isq\001\001\007\0006\000\005d$\000\001\037\000q6isless!\000\000\t\000?\000\005hF\000\001\"11\037\000\006{\000\005\016\000?\000\005g2\000\002\0223$\000\b\342\000\007\020\000?\000\005j\256\000\004\020nV\004\001\007\0006\000\005o$\000\004_\001\204normalf\000\n\000;\000\005q%\000\000\254\000\200unordereH\002\007\016\000?\000\005sv\000\001\2014labsl\000l>\003 tJ\263.\020\023\006\000!\000\t\313\024 \005\b%\00005ldJ\002!i\000\b\000U\000\005v\214\002J\000#\343\031J\000\2226lgammaf\000\b\0006\000\005x&\000\022\000F\000\000f\0002x\000lm\000!y\267m\000\025\267m\000\027 r\000\2226llrintf\000\b\000Y\000\005{\267\037M\000\3533logf\000log\000\005\205\214\002h\000Aog10\035\000\000g8\037}\037\000\001\022p\037\000Kp\000\005\177\037\000Q4log2\036\000O2\000\005\201\035\000\0002bf\000\001\003\035\203Y\000\003\263\000\002\262\0009\207J\037\037\000\2226lroundf\000\b\000;\000\005\211!\000%7l\"\000\004#\000\033\212\366\000\0214\037\0040Pf\000\b\000T\000\005\214\214\002\037\000\020\023.\033B\000\027\214\002)\000\2013nanPKc\000K\0021\215!!L\026\000\335.\260\tdouble\000\004\b\027\311/\301\0355!\000\000\tchar\000\006\231\003\0204\204\002\003:\000ef\000\005\216\214\002;\000\000\037\000q9nearby\350\000\005\013\000Y\000\005\220\214\002\250\000r9nextaf\375\002\005\f\000^\000\005\222\214\002\203\002\3373powfi\000pow\000\005\226Z\002\001\2019remaindN\000\005\f\000?\000\005\230N\000\001\2006remquof\370\004\002\013\000;\000\005\232)\000\002\376\004\001\357\000\002\263\001\002\262\001\026\234'\000\001\035\000\0235\217\001\003\215\001\033\236\037\000\2637scalblnfl\000\n\0006\000\005\240$\000\002G\003\001\223\000\001\037\0002nfi(\000On\000\005\242\347\000\001\0207\254\007Sbitf\000\t\000;\000\005\247\340\003\0213\312\004\001\263\b9\251\214\002\033\000\0224\262\b\002\261\b\035\253\035\000\020qP\b\000\006\000;\000\005\255\035\000\0213\315\b\001\314\b\033\257\033\000\0224\246\b\002\245\b\033\261\035\000#6t\361\003\023t\361\003\033\263!\000\2015truncf\000\007\0007\000\005\265\037\000\020&\003\0040\006H\003\375\000\023\001\331\t\020'\252\t1\000\b5\256\002A\001\023!!\024\000\000\355\000*\b7\024\000\000\254\000-\b9\024\000G2\000\b;\025\000\003\032\000\001(\t)\b\237.\000\001i\000\034>\023\000Ih\000\bG\024\000\000\355\004)\b_\023\000\001g\b*\b\242\024\000\001:\b*\b\245\025\000\000\303\007.\b\250\220\000\002\215\007(\bb\032\000\001\220\002\022'^\005(\be\032\000\002\032\001\000\350\004'\bh\030\000\"\000'\336\004)\bk\025\000\001\027\004'\bn\024\000 \023\027\b\r\020\027\013\000\020'b\003.\b\214\222\000\001c\001\031@I\000\001G\002*\bI\024\000\000>\002)\b\217\024\000\001\212\001\034B\023\000Hh\000\bK\024\000\020\024\006\000\002y\004`_t\000\n\226\024\004\002\001\036#\000\017\0002\225'a}\001\031UH\000\003\277\013 \bU-\000\023\0018\002\002\026\000Hl\000\bU\347\r\002?\006\005\332\004\"'a\277\000\035WJ\002\000P\000\032WP\000\000\026\000Hl\000\bWP\000\"'a\305\000\035Yc\002\000A\000\032YA\000!taA\000\031YA\000\001\272\013)\b\230@\000\002\324\013\022\b\266\004\004?\000\000\025\000Jl\000\b\230>\000\004\271\013.\b\304\256\001\004\035\000Gf\000\b\304K\000\002\002\005\005\036\000Gl\000\b\304T\000\003Y\000\000\265\013G\b\344!!\226\000\001U\005G\b\344\214\002\225\000\227erfl\000\b\344\366%\224\000\001\324\013,\b\345<\000\\cf\000\b\345=\000Zcl\000\b\345>\000\000\332\013,\b\202^\003Z2f\000\b\202>\000|xp2l\000\b\202>\000\\m1\000\bw?\000lm1f\000\bw@\000hm1l\000\bwA\000\021&\377\013=\bF\001N\001\001\032\000\020f\033\000\rK\001\001\033\000\020l\033\000\rH\001\020&\r\f-\bOO\000\001\005\000\001\036\000\020f\037\000*\214\002S\000\001\005\000\001\037\000\020l\037\000*\366%W\000\006\\\000Ox\000\bI\254\000\001\000c\f\000\033\000-\214\002\254\000@maxl\033\000.\366%\254\000\000\337\003\037LP\000\002\000N\006/\bLP\000\002\020iC\002\036LP\000\022'#\fK\b\223!!P\000\002\032\000kf\000\b\223\214\002P\000\002\033\000ll\000\b\223\366%\240\000\002O\fU\b\030\001\343\031Q\000\003\026\000\027f\027\000%\214\002\027\000\027l\027\000\001D\000\023's\nH\b\346!!#\005\003\240\006F\b\346\214\002D\000\003\027\000fl\000\b\346\366%D\000\023&j\n1\b<\001u\t\004\211\000\002\027\000\027f\030\000&\214\002\030\000\027l\030\000\005G\000\001/\b-\bBH\000\002N\b-\bBI\000\000\031\000\027l\031\000\001J\000\022'\241\nF\bz!!G\000\023'\275\nF\bz\214\002D\000\002\026\000jl\000\bz\366%A\000L2\000\b\205@\000\000u\003\0024\013\007?\000\000u\003\034\205>\000Lb\000\b}>\000\000\225\001\002S\013\007>\000\000\223\001\030}>\000\023&M\001!:\001\345\n\003@\000\024&L\001\005\027\000%\214\002\027\000\027l\027\000\004D\000\002J\001\034@E\000\003I\001\034@F\000\003H\001\031@G\000\020'\004\013 \b\311<\000\023\001\312\n\021'\335\nJ\b\311\214\002\024\000fl\000\b\311\366%\024\000\026&\343\n(\b&A\003\007\032\000\020f\033\000'\214\002\210\000\005\033\000\020l\033\000'\366%\322\000\006\013\013/\b\003\221\003\000\005\037\000\020f \000\016\226\003\005 \000\020l \000\016K\003\000 \000\231toward\000\b\005`\000\f \000\020f!\000&\214\002a\000\f!\000\020l!\000,\366%b\000\006~\013/\b\020\301\000\000\005\037\000\020f \000\016\301\000\005 \000\020l \000/\366%_\000\000\000\261\013-\b3\\\000\002#\t\003!\000\020f\"\000*\214\002^\000\t\"\000\020l\"\000*\366%`\000\004\"\000\001\320\001\030\000c\000#\000&\231\002\030\000W\000#\000&\230\002\030\000K\000#\000&\227\002\033*B\000\003\226\002\033*C\000\003\225\002\032*D\000\0042\f(\b\"F\000\0024\f\004\035\000\020f\036\000\007M\000\n\036\000\020l\036\000\007T\000\b\036\000]n\000\b\024\001G\n\003\034\000\020f\035\000\bW\000\b\035\000\020l\035\000\bV\000\001\035\000\023'\343\013'\b\353U\000\004\026\000Gf\000\b\353O\000\004\027\000Gl\000\b\353I\000\"\000&\007\f(\b.\231\000\003\026\000\020f\027\000\bD\000\002\027\000\020l\027\000\bD\000@\024\354/\000\226\375\240_t\000\006>(\001\024\374/:\307\002\020\000\300F)\005\020\006B\020quot\000\013\001 \006D\253$2rem\016\000\020E\241$\361\013*abort\000\006O\002\001\001\001&atexit\000\006S\002\343\031d\000\020C?8\362\001\027H0\000\000+&at_quick_$\000\031X$\000t'atof\000\006\252\013#+!\024\000ji\000\006h\343\031\024\000fl\000\006kJ\037\024\000\341&bsearch\000\0064\003\3170\030\000\000Uj\002\005\000\025\326\005\000\020\365h\000\360\000,\027\3250\000\000-\024\3440\000\000siz>\0139\f\022\ts&\360\004\000\007\b\034\0131\000\000__compar_fn\016\001\200(\003\027\0201\000\000.\216\000\006`\000\303\000&calloc\000\006\036\002|\000\005r\000\265\000&div\000\006T\003\337/\224\r\002\376\001\022/\003\0014i\002\001\253\r\321\032free\000\0065\002\001\001\023\317<\000\306getenv\000\006z\002\2171\354\000\020\027_\020\021&\360\0213\006I\003\006\001\000\007\0001\000&ln\000EV\003\356/\025\000\003\032\000\023m\243\000\030\033\243\000\244\000&mblen\000\006\2324\016\000a\000\005\033\000\262stowcs\000\006\245\003\3264\000\000\240j\007#\000p\027\0352\000\000\tw\351\020\020_>\0300&mb2\0004\000\006\235O\000\0131\0001\032qs*\002#>\003\343\000*\023\326\233\001\030/\036\002\026o\033\001\2030rand\000\006\305\241\b3&re\317\000\024&\317\000\005N\0002\000\032s-\0002\307\001\001\353'\267\000'strtod\000\006u[\002 \023\333PM4\027\2171 \000jl\000\006\260J\037 \000\002~\000\002@\000\177ul\000\006\264\3440!\000\001\250&system\000\006\020H\001\200\000&wcstom\250\001\024\250C\001\000p\0004\023[3\255\0000\027`3\314\"\0212-\000\000,\0004\000\006\241D\000\001+\000\000\033\000\362\000\000\f__gnu_cxx\000\026\013\314\341\033\022\322\341\033\022\326\341\033\022\334\332\033\022\347\332\033\022\350\323\033!\351\245\007\000\022\353\350\033\023\354\331\033%N9N\000p3divExx\375\0030\000\013\331X\000\022\001<\024\002A\024t\000\024\b4\000\000l\f\004\020P\f\004\022L\f\004\000 \000$\006N\f\004\001\016\000\020O\f\0041/_E\274\001\026u\274\001\022&\233\024U\006L\003\267\037a\000\000\026\000\001\254\002-Z\003w\000\001\340\003fl\000\006p\267\037L\001\003\244\001_l\000\006\310\267\245\001\nol\000\006\315q\n\"\000\007jf\000\006{\214\002 \000\003\033\000{ld\000\006~\366%\034\0001\026\r&\036\036!\r'\036\036!\r(\355\035!\r+%\036!\r.\265\035!\r1\216\001!\r6V\036!\r7V\036@\r9\362\027\007\000\021:H\036!\r;H\036!\r<H\036!\r=H\036!\r>H\036!\r?\240\035!\r@A\036!\rAA\036!\rBA\036!\rCA\036!\rDA\036!\rFA\036!\rGA\036!\rHA\036!\rJA\036!\rK:\036!\rL:\036!\rM:\036!\rN:\036!\rO:\036!\rP:\036!\rQ:\036!\rS:\036G\rTe3\336\033\022f\336\033Kf\000\016;{\022\0226>\020\003\376\033Kf\000\016=!\000\"5a\034\030\001\007\000=\000\016?@\000\020s.\020\002 \000\000@\000\035A!\000\002\346\033\003\347\033Of\000\016D\350\033\006\003%\000Of\000\016EF\000\001\023h \000\000g\000\033G!\000\02155\020\002\n\034Mf\000\016I\037\000\000\013\034\002\f\034Kf\000\016K\037\000\0259,\020\007\016\034Of\000\016O\253\000\001\0224Q\001\002P\001\035Si\000\002O\001\003N\001\034W\037\000\001\n\020\002\371\033Of\000\016`\027\034\000\002\036\000Of\000\016e\337\033\000\"2f\375\033Of\000\016l\033\034\000\002\036\000Kf\000\016m\035\000\0226\005\020\"f\000\b\000;\000\016o!\000\0205\260\023\022f\036\034Mf\000\016p\037\000\001\037\034\002 \034Of\000\016r\031\001\001\0216\340\023\023f\"\034Kf\000\016|F\000\0224#\034!f\000\371\017+\016\200E\000\bo\000\001%\034\001)\000[xf\000\016\204*\000\004%\000\"in%\000\001\233\002\037\206%\000\004\"od%\000\000\363\023/\016\210\271\000\003\021r=\001\004\002\034Gf\000\016\212(\000$.\035(\000\002\271\017\004\377\033Of\000\016\214O\000\002\002\224\017\003\001\034@f\000\016\216\254\004\030\001\342\030\021dp\000\003(\032Gf\000\016\233H\000%\343\031\350\030\0027\n\004*\032mf\000\016\235\214\002\013\031\000\221\013\004\000\032if\000\016\246\267\037#\000\0248Q\017\005/\031\\f\000\016\250\267t\031\000&\025\000#\000\002\023\032\034\016\374\026\0226P\017#f\000X\017/\016\257.\032\000\0222 \000\000\236\002\037\261\037\000\000\000\023\001\003\022\001\037\2650\032\000\002\036\000Mf\000\016\266|\000\004\344\000\003\343\000;\273J\037\006\001\005\342\000\004\341\000\033\275#\000\0225\007\002\003\022\032jf\000\016\307\214\002\023\032\0024\036\006\257\016\007\270\0312f\000\016\003\017\006P\000\000*\000\004\204\016\b\273\031Of\000\016\315\024\002\001\0204\274\031 ff\275\031Of\000\016\347#\000\001&10\026\016\b\300\031Of\000\016\3570\000\001\0237\344\r\007\302\031Kf\000\016\365+\000\002\276\002\0201\003\001\003F\001\003E\001&\000\001*\000\003\021\032\003E\001\004D\001\027\252!\000\000A\000\0248o\r\006\311\031Gf\000\016\036H\000\002\231\n\000,\000\0237C\r\005\314\031\\f\000\016\026\001\346\002\0231\220\0312ff\000_\006\0272#\000\001\036\000\0235_\006\003^\006\0366 \000\000\261\031\002\262\031Lf\000\016: \000\0224W\006\002V\006\035<>\000\003V\006\003U\006\034> \000$7t\202\003\024t\202\003\034@$\000\0226\231\r\003\276\031Hf\000\016B\"\000\021\035\350\000P\000\004/\b\000\363\b\000\273\n\"\004\021\f\000\0230\030\000\000}\002\023\023\030\000\000\f\000\023 \030\000\027\037\030\000\027\037\030\000\023\001}6\"\004\021\f\000\000\001\000'\004\022$\000\027\022H\000\027\022l\00007\004\000n\364\020\001\266\n\223*\000\000\0044\340\000\310\002^5\003\t:*(\003\020\000\027P\020\000\027\270'^\004\020\000&p\005\020\000\000t\213*\230\005\020\000*\270\006\020\000\033\350\020\000*\020\007\020\000&8\007\020\000\000\363[*\210\007\020\000*\310\007\020\000\021\bz4\006\020\000\033H\020\000_\004\036\004\000\200\374\000\001 \n\b\242L\303\000@\001\020\000\003\031\020\000\004\027\fb>U\f\000\000\360\021\020\0009\001\000\b\020\000\001\001\000\361\001\360!\000\003\033\377\000\004\034\b\000\250*\000\000\330L\001F`\001\360\004|\000\"\340\013\223^\004\020\000\027\320:\243\004\020\000*\310\t\020\000*\330\013@\000&\030\r\020\000\000[\223\027\320\020\000&\260\030\177\241\023\001.8*\030\024\020\000&\330\027\020\000&@\030\247T\004\020\000*\230\030P\000*\250\030\020\000&\210\031\020\000&@ L\230\"\001\000a\224*( \020\000*0 0\000\0338\020\000:X!\000\320\000\026$\020\000\027p\031K\004\020\000\033h\020\000\000\314\001/\260\002\314\001\003\037\017\314\001-C\035\030\0000\345<\"\320\"-<\"\020N\355;\000\350\001a\b\\\000\0008\\4\003\020\002o`\004\230\000&x\r\215?\000\020\000\000d\213*P\013\020\000\033X\020\000*p\r@\000&\260\017\020\000\"\330\027\241\211\004\020\000\023\300\262\206\b\020\000\033\270\020\000*\320\027@\000&\330\027\020\000&\260,i\205\000\020\000\"`\"\374\204\004\020\000\033P\250\001\000\020\000*H \020\000*X\"@\000\027\350\270\001'\230,\335?\000\316:\007\320K\004\020\000\033x\020\000*\220,@\000*\230,\260\000\033\250\020\000&\270.\020\000&\3306\230|\000\020\000\000\323x\021\3507L\006\020\000*\32060\000&\3306\020\000&\230EGx\000\020\000\000\232n&\3509\020\000\000Zt*\210?\020\000&\330C\020\000\027@\224o\004\020\000*xEP\000*\210Ep\000\033\220\020\000&\330H\020\000&\030QPm\000\020\000&\000O<k\004\020\000\033\370\020\000*\020Q@\000&0T\020\000&\340[(h\000\020\000&\320YVf\004\020\000\033\310\020\000*\330[@\000\017h\003\t\037\025h\003.\021\br=\000^=\000X\003`H.\000\000x.X\003 \000\001P\006\004\210\000&0\013Ad\000\020\000&@\n\317=\004\020\000*(\0130\000&P\017\020\000\000\026\\*\210\023\020\000\033\220\020\000\027pH\003\027\270\301X\004\020\000+\260\031\020\000\007\000\005&P%@V\000\020\000&`$\211T\004\020\000*P$\020\000\033X\020\0009H%\000P\000\000x\001\023 \220\007S\377\377\377\377\037\034\000\023 \b\000\000\001\000@\376\377\377\377\b\000\023\375\b\000\023\374\b\000\023\020\274\005\023*,\000*\020D\020\000\023T\214\006\000_\000\000\207\005&\017\004\020\000\000`\0005\344\002\000\020\000\000x\000*$\0130\000*\267\0030\000*\035\0000\000*\251\b0\000\004\266=\033\241\030\000\004\326=\033\221\030\000\004\376=\033\211\030\000\004\036>\033y\030\000\004F>\033q\030\000\004f>\033a\030\000\004\216>\033Y\030\000\004\256>\033I\030\000\004\326>\033A\030\000\004\366>\0331\030\000\004D\005\033)\030\000\004>?\033\031\030\000\004f?\033\021\030\000\004\206?\033\001\030\000\004\256?*\371\007\030\000\004\316?\033\351\030\000\004\366?\033\341\030\000\004\026@\033\321\030\000\004>@\033\311\030\000\004^@\033\271\030\000\004\206@\033\261\030\000\004\246@\033\241\030\000! \024\017\000+\000\231\030\000\004\356@\033\211\030\000\004\026A\033\201\030\000\0046A\033q\030\000\004^A\033i\030\000\023X\030\000\033Y\030\000\004\246A\033Q\030\000\004\306A\033A\030\000\004\356A\0339\030\000\004\016B\033)\030\000\0046B\033!\030\000\004VB\033\021\030\000\004~B\033\t\030\000\004\236B\033\344\300\003\004\f\005\033\334\030\000\004\373B\033\275\030\000\023 H\000\034\2650\000!\002\000\001\000*W\005\030\000\004\310D\033O\030\000\004\001\000*B\005\020\004\004\rE\033:\030\000\004-E\033*\030\000\004UE\033\"\030\000\004uE\033\022\030\000\004\235E\033\n\030\000!\020N\017\000+\000\372\320\004\004\345E\033\362\030\000\004\005F\033\342\030\000\004-F\033\332\030\000\004MF\033\312\030\000\004uF\033\302\030\000\004\225F\033\262\030\000\004\275F\033\252\030\000\023\340\234\b\033\232\030\000\023X@\005\033\222\030\000\004%G\033\202\030\000\004MG\033z\030\000\004mG\033j\030\000\004\340\004\033b\030\000\004\340\004\033R\030\000\004\335G\033J\030\000\004\375G\033:\030\000\004%H\0332\030\000\004EH\033\"\030\000\004mH\033\032\030\000#0\020\370\001\f\030\000\004\220\006\013\030\000\004\325H*\362\003\030\000\004\375H\033\352\030\000\004\035I*\265\002\030\000\023\200jJ\033\255\030\000\004\001\000\033n0\007\004\004\013\033f\030\000\004\001K\033V\030\000\004)K\033N\030\000\004IK\033>\030\000\004qK\0336\030\000\004\221K\033&\030\000\004\271K\033\036\030\000\004\331K\033\016\030\000\004\001L\033\006\030\000\004!L9\366\001\000\030\000\004IL\033\356\030\000\004iL\033\336\030\000\023P(\005\033\326\030\000\0230\030\000\034\3060\000\003\b\005\034\2760\000\003\030\000\033\256\030\000\004!M\033\246\030\000\004\240\020*\276\000\030\000\004AN+\266\000\030\000\003\001\000/\255\000\020\005\003/\245\0000\000\003*l\0200\000*\344\n8\002.\\\0058\000\017\001\000\377\377\213\237\374\251\361\322MbP?\000\001\000\377=\371\004\357\037\340\375\003\274\177\000\005\000W\000\200\007\230\\\004\000G\b\000\f \000\023\000\030\0009\003\000W \0001\006\000\007\020\000\260\000\006w\001\000\000(8\007\000\367z\005\024\004 \000\262\b\007\367\377\377\377\017\034\t\0007(\000\022\t(\000\004 \000\023\n0\000\"\013\n(\000\204\007\b\327\017\200\003h6 \000\"\017\013\020\000\233\007\000\007!\200\003\220P\f\240\000\023\000\220\0003\005\000g\240\000\031w \0001\b\000\207\020\0003\006\000\227\340\000\031\247 \0003\013\000\267\340\000q\200s\000\000\240\342\017\033\005$@\342 \000\000\320\000\000 \000\023\007X\000J\017\000\207' \000\021\307\030\000\241\007\377w\000\000\020[\\\t\360\372\271\024\001 \000\023\tx\000\204\007\007\227\000\200\203\274[H\000\f \000@\017\000\200gX\0009\000\000\007 \0001\n\377\007X\000\"\007\n@\000\033\n\300\000@\017\000\000d8\000\240\r\006W\000\000\002G\\\r\rH\001\025\007\200\001\300\007\r\367\017\200\003e[\017\000\200](\000\002\210\000%\262[@\000\022\n\020\000@\027\000\007 `\001@\007\000\007\340\b\000\005 \000\022\020\020\000A\017\000\202Y@\000\032\005`\000#\027\007`\0002\020\007A(\000)\001S \001\022\0060\000\023\017(\000\004\310\001\007\300\000\021KX\000\020\b \000\020c\002\022\000n\271\027\342 \000\001\220\001\f\210\001\006 \000\000\211\0074\370\360\005 \000\001\200\001\025\005\200\001\023\f\240\001\204\005\fw\000\200\002\200Y\320\002\005\240\000t\360\007\374\377\377\017\001\030\000\017`\000\005$\007\013\240\000*\200\007\240\000\000\326\027$@\342(\000\023\006\210\000\005\200\002\003\220\000\004\330\001\206\000\000\207\000\000\003\200Y\300\002\023\007 \002\020\007B\n\024\034P\003\005\240\000\005x\002\002`\000@\003\003\027\370(\003\005@\000\020\003P\003@H8\000\005 \000;\021\\\000@\000\"\005\004 \000\020\005 \000a\b\f\034\005\006W(\000H\357\037\340!\340\003 \006\005i\202\233\200P\005\377W\000\0000Y\300\000\312\003\001\b\005g\000\000\004\200Y\b\006\300\000\004\360\000\023\006\330\000\020\t(\000\026\000 \000\"\t\t\030\0001\000\005\227\030\000\020\005\220\003<\004\200Y`\004\"\006\005\030\004*\006\006@\0040\n\360\367\331\000A\001\n\nG\270\000\020\n\325?%\000\020\240\0001\n\nw\020\0001\006\ng\b\000\021\003p\002\006 \001\204\007\003\347\017\200\003b6\b\004\004p\003\f\200\001\004\210\000\033\n`\003\023\006X\004\000\303\n\003 \004\032\033\340\002\000`\000`i6\017\000\200\026\030\000\217\007\006\027\000\200\003c6 \002\003\244@\343\007\006\207\376\377\003c7 \000\001\230\0014\000\b\004\200\000\021\017\236\005$@\343 \000\021\0030\0011\220Y\004\b\000\246\210Y\007\003G\000\200\203\275[\300\000\000\030\000&\230Y`\002h\367\377\377\007\000\004\340\000a\000\b \004\003\006\276V!\034\003\001\016\022H\340\000P<d\000\017\003\330\002Bk[\027\006\240\003\206\003:g\000\000 \340\\\200\000\002\270\0050\003\3777\222T\022\\@\000\025( \000\0028\000\020k\000\004\023@@\004\t\340\003\301\000\377\027\000\000\004\2408\004\003\027\000\340\0018\004\027\000\340\0011\000\000g\270\004\021\000X\000\021Gh\006\b\340\001\"\000\000\330\004\023\005\340\000\004H\001\r@\001\000\b\000%\370'H\001\006\200\001\0020\000#\n\n\b\003)\nW`\000\004\200\002\004X\000\f@\000\004 \000?\004\000W\200\000\003\000P\003<\004G\\\210\000\f@\000\fH\000\f\240\000\fH\000\017@\000\035\020\000\250\003%\374\017h\004'\017\031@\0014\000\200P\030\000?\004\000\007@\000\002\004(\005\033\000 \000 \000\f\200\006/X\\@\000\r\017@\b\000C\377\000\200\037 \000\300 \343\017\000\207\377\377\017@\342\000\017\020\000$\260P\200\002\020\001\300\002p\007\230L\001\001\007\376\270\003\204\000\000w\003\000\000\310\360`\000\204\007\001\007\000\200\003l[H\003\020\300\316}4\000\240\343\300\004 \000\0010\004@\020\\\000\nX\000;\340\\\002\240\000\023\003\240\0043\000\000' \b\0317 \000\004\330\000\004\030\0000\020\000\027\b\000\024L \000\023\002@\000@\020\000\007\001\210\0021\002\003'\220\002\005\200\0002\360\307\000\333\026v\007\024\000\000\224\357\000\200\000\001 \0001\003\360\207 \000\"\003\003 \000\007\200\000\001 \000\023\004`\000 \004\004 \0006\225\357\006@\001\t\000\0029\004\000g\b\002\004 \000\004p\001\006 \002\017@\000\005\037G@\000\002\377\002\007\020\367\017\000\200\020\\\b\002\367\017\000\b\020\\\007@\t\005\020\007(\000\223\327[\007\007\367\017@\004\330\200\004\025g \005\0048\007!\004\006\340\001\024\240@\000 \005\020\000\0013\020\034\006`\000\f\200\000\004`\005\"\004\005`\000f\005\005\367\017@\003`\000\f\270\000 \003\004`\000\027\220`\000\021\307`\000\037\003`\000\004\004p\001\b`\000/\300\001`\000\007\033\000`\000\000\370\001\000\030\000\023\002@\002\004p\000\004 \000\033\000x\000\f@\003\t\330\0004\000\330[p\000\004\000\002\013x\000\024\2000\001\005\300\000\013`\000\f\300\002\f\330\000\t`\000&<d\000\002\003`\000\000 \0005\000\0038@\000\002x\000h\020\\\005\020\207\001H\001\f \005\fH\001\005 \000\013x\000\004H\001(\357\031`\0003\220\240\000\350\002\f \0019\005\020\007x\000\004\350\000\017\300\0015@\000\000\000w\260\t\003\250\004\024\342p\000\017\300\001=\004`\001@\007\004\367\000\020\b\006\300\t\004@\013\021\000\300\t\004\210\000\006\000\001\002x\001\f\210\000\f\240\004\f\210\000\004@\005\f\000\001\004\210\000\004\240\000\004 \004@\000\000\027\002X\005\f\340\000\004`\000\007\b\002\017\200\002K\032\004\200\0021\007\000G\340\005\004(\001J\000\000\000;`\013\n8\001\023\005\260\004\017\300\001C_\260\200\007\020\207 \002\002\004\340\004\f`\000\t\030\0054\000\330[\320\004\004`\000\0048\000\"\006\006\000\001\004H\017\006\000\001\031WX\007\007\200\f\030! \005\023\003\300\001\t\200\001%<d \0037\006\0067\b\013\035\340`\005\005\200\003v\006'\000@\000\3706\300\b!'\000\030\t0\004W\000X\001 \000\0070\n\016\000\004\f\210\002\b\000\004\bX\001\004\210\002\032\017\000\004\024\200x\003\037\006`\004\004\004\250\000\017`\000\002\037\003`\000\002\001 \001\005X\002!:G\370\000\217\005\004\367\001\000\000)8 \007\005\204\t\004g\000\300\002\3706@\0011\b\004g\000\001\020\004@\ti\000\000\001\004\nG@\001\006@\000\004\350\f\017\300\001\003\004\200\020\007\300\001\003@\000\0018\001\024L(\r4\004\005G@\b\002\240\001\022\007\000\0131\004\004\207\200\0011\006\006\227\200\001\004@\0012\003\n7\330\000\003\350\001\004\320\b\005\240\003\232\005'\000\300\001\3706\005\005\310\001\005 \000\000\030\002\017\300\003#\031=\000\002\003X\005\002\210\003*\370\360\000\n$\370\3608\004\004\310\004\017@\002?\017\240\006;\004`\000\004@\002\007\000\005\t\000\004\004p\000\017@\001;\b\000\006\037\007\000\006E\002@\000\002p\r\024\034h\000\017@\0015\f\340\007f\017\000\007\212\377\017\b\021A\357\007\340\375\246w\003\360\013\f\b\000T\357\031\240\376\000\340\000!\033\250\230\006D\000\000\230\357\250\004\f\000\001\017\300\000MW\000\000\200L\001(\b\017\240\001U1\007\004\3470\b\f(\b\004\000\006\004\220\000\016\300\007\017 \001K\f \003\002\250\007\025f\250\007\006\200\000\"\000\256`\t\n\250\007\006 \000(\367\017\000\004?\005\020G`\003J\000\343\032\n@\b\0048\b\031G\310\001\f \001\004\240\000\017 \001\001/@\000 \001\007\f\340\006\017\200\001K\032m\200\001-<d \t\004(\002\004 \000\004\330\000\005\b\000)\n\007\340\006\023\007\030\000\024\b\250\001\003\b\007\005\340\000\0030\000\004\240\b\004\b\007\004\240\001\004\320\b\033\003H\001\f\300\013\003\330\024\034L@\000\023\006\000\022\"\005\003\350\021f\000\007g\000@\004\240\b\"\003\007\240\007\001\310\006\000\240\b\000 \021\007`\001\023\t\330\001\023\004x\001\f\340\023\004\300\007\"\b\tx\001f\t\t\367\017@\002\240\003\f\030\024\"\b\bp\001\004\000\0012\b:\207\000\001\022\bX\b;\n\000\207@\030\002`\000\242\004\n'\000\300\005\3706\t\n\210\007\004 \0001\t\003\227\270\000\000\210\000\017\240\0001*\004\b@\0041\013\ngx\000\"\n\n(\0011\n\006\247p\000\005 \000!\005\267x\000\023\007\240\002\033\005\240\002\004\260\b\004x\002*\006\007\240\002\000\330\n&\300\002\330\n\004\340\b\004\200\t\004\330\n1\006:g(\001*\005\006\200\t\004\200\n\004`\0006\t\006'\200\t\000`\001\003\200\n\"\007\n\000\tO\005\013\227\000\240\0004\003\340\n\002\240\000\"\003\003`\000,\b\000`\000\0257\230\027\017`\000\005/@\000`\000\007\005\330\013m\377G\000\000 Y\000\003\001\200\0236\003\200Y\300\t\037\207@\b<\037G\240\006J\006@\b\037G@\bL)\207\245@\b\017\200\007L\004\300\001\0048\f$\000\004\340\003\033G\340\003\002`\000\023\th\003\002`\r&H8\000\024\0020\005\f(\005\006 \001\002\360\004\f(\005\f\300\000\004@\001\003\220\005\005\200\024\004\230\005\000x\002\000 \0059\b\003\207@\f1\005\007g\330\002\"\000\b\330\002\023\006\210\004\005@\005\003\220\004#\005\005@\005\000p\005\017\300\001\000\fH\001\b\300\001.@\000\300\001\016\240\006\002\030\003\004\260\004\006\000\001\004\000\006(g\000\b\001\004@\000\f\330\016\004\b\000\005 \000\003\000\r\004\030\000\023\021\020\001\004`\000\242\021\003g\000\300\b\3706\022\003\230\001f\022\007'\001\000\200\340\000@\021\b\027\001\360\000\"\022\022\030\r,\021\021\000\001\"'\001x\000/\027\001\300\002\031\f\000\001\004 \000\004H\001\004\000\001\004\030\000\003\330\001\005 \000\006\000\001\004x\033\021\007@\004\004`\000\005@\005\003\200\0332\006\0057H\033\020\004\360\032\026\210 \000t\003g\000\200\001\200Y\030\016\004\350\025\004@\000\"\003\004 \000\001\000\002\000\000\035\022\005\020\000\f\200\033\023\022\b\001\023\021\b\001\f\300\000\004\270\000\004\000\001\006\300\002\"\000\007\000\n\b\350\032,\370\360@\000\004\300\031\f\240\000\004P\000\002\225\244, \342 \000\006@\000\002\b\000\f`\000\033\000\300\000\034\005\300\000\022\022\320\001\"\005\022(\006\017`\005\023\002`\000$\000\274\300\030;\370\360\000\300\fg\344\007\340=\003\324\340\f\000\340\000\007\310\f\004\340\001\f\270\013\004\b\000\f\340\004\037\003\340\004\004\004\370\002\b\340\004/\300\001\300\005\027\f\270\013\000#&\n \013\f@\n\n`\003\f\270\013\017\200\rH\022aH\002\017\340\006K\033\000 \001\017\200\001M\023\004@\007\017\300\013\002\017\340\024\002\002\220\000\017\340\0242\017\200\025\001\032:\340\022\004\370\006\0048\000\f`\0001\007\004g0\024\023\006(\023\017 \fE\003 \004+L\004@\000\023\005\000\036\"\004\0038\023\"\003\006\310\005\005`\000\022\007X\013 \003\003@!J\020\034\000\000\240\002\023\007@\002\017\340\032\"%<d\300\n\f\310\025\004\000\001\004\370\n\023\007\370\n9\t\000g`\000\023\n8\000\252\b\t'\000@\005\3706\007\t \f3\007\003w\230\n/\207\000\240\0009\005@\000#\tgx\000\023g\b\b\031w@\001\"\004\004x\000\023\b\210\001\033\t\240\001\023\000`\000\005H\002/\000G\300\007*\004\b\025\006\300\006\237'\000@\003\3706\007\003'\240\000\002\000\300\006\b\000\003\004`\000\017\000\003\001\bh\004\004\240\t\0138\034:\200\007\b`\000$\006\t`\000\031w\250\b\017`\003\002\037\003`\000\007\004`\003\023\000\310\007\006@\001\023\007\370\002\003\200\007+\000w\000\003\037g\340\032*\0068\004\n(\005\f\240\005\004\210\000\017\240\005\001\b8\004\004h\000\004\300\001\005\330\000\013\b\f\017\300\021E@\017\000\007\240\b\f\n\340\000,\370\360\b\000\017`\024%\016`\006\037\007`\006:\f\000\006\0068\001\037\007@\007J_\017\000\207\264\376@\r\002/\307\000\340\0009\033\000\340\000$\003\000\340\000/\207\000\340\031I\"\003\0038\034\"\003\003\250\027\006\340\000\037\207\300\001'\017` \020\003\200\224\026\001\b\t\037\007\000\003J\017\240\002];\007\004\367\200\026(\200m\200\000\006`\004\nh\001\f\340\001\f\210\000\t\340\001\017`\004\005/<d@\r\000\002P\006\f\340\000\005\b\000\035\004\000\002\037\000\300\tA\006\000\005\002x\002\f\250\036\006\240\000\"\000:\270\n\n\310\t\017\300\001M\017\300\020\005\0040\000\f`\000\023\b\310\t/\007\004\300\020K\033\004\300\020\005\370\034\022\000\300\t\000\260\016\b\300\0203\004\004w\370\034\002\210\b\f`\007\0048\004\fh\b\004 \000\004\340\001\025\000(\035\002\220\000\006\240\000\003\300\000\022\005\370\036*\005\005\200\t\005\370\036\0008\t\017\240\0010\f \005\004\260 \037\006\000\002\004\f\030\005\004\020\005\017\000\002\013\032\260\340\r\000\340\001\003 \000\004\250\003\005`\000\013x\000\017\340\b- \004\004h\001\006\240\036\0040\037\0048\000\r\240\036\023\004\240\036\023\004\340\t\032\007\300\0139\003\b7x\001\007\340\001\017@\005(/\370\360\240\036\377\364\030\037 \t\031\212\200*\017@\n\r\t\000\022-\000\343 \0001\007\200\374`\n\013@\000\0040\000C\377\007\000\374\000+\t\370*\017\000+\377\377\234-<d\000+\017\240\t\rH\007\000\367\000\3005\006x\0242\200\233\002(\t\"N\001`\004\001\000\002\017\340 \027\037\307 \004@\005\300\005\034\240(\r\f`\000\004\210\000\017`\000\001\017 \006\024\037\000 \006<\002@\003\007@\013\000\250\n\004(\006\007\200\002\037\001 \002F\017\340!\002\037\007\340!L/\200\203\340!\003/\007\001\300\001A\006\330+\031w(\r\017\300\025\007\037\207\300\0257\016\000\001\024\200\b\003\017`\0010\t`\000&\004\004\240*\013@\002\t\270\002\004h\000\017@\002\022\017`\r\036\016 \027O\000\000\000C`\r\013\002\300\005\037\000\240\000\004\f\370\001\004h\001\017\240\000\013,\260\200\300\026\004x3\f ,\033\0038\006\f\200\001\b8\006&\300\001H \004\200\001\0048\000\004\250 ?\007\020\307`\000B\023\003`\000\001\b\034\007\300\0131\005:W8\b\"\006\005@\016:\007\000g`\000\003\370\000\004\340*9\006\000w \000\fX\f\"\006\005\320\025\005 \000\003p\r\"\000\000\370\013\023\004\320\025\006\240\003\002\240\001\005h\001\017`\005&/\007\001\200\022I\017`,0\037@`,!\017\000\t\r\004X%\004 ;*\006\004`\0171\007\005w\020\000\001`\017!\200\020\210<\t`,!:7\220\000\"\004\003\330\000\033\005\200\000\023\004p\002\033\003\b\003\f\340\037\004 \000\004\220,\f\000\002\"\005\006\000\002O\003\0077\000\240\001\001\004\330\002\017\240\001\001/\300\001\300\007\017\002\030\004\004 \004,\370\360\300\004\017 \0045\016\340\017\017`\007(\017\200\004\006\b \r\031\007\370\r\004h\000\017@\001C\006H\007\017\300\006=\fH\030\006@\001\037\007\240\bJW\017\000\007~\377\030\027\004\350\t\017\340\000=\006\210\004/\207\000\300\005\001\f\250\001\017`\000\001/\300\001\300\035\020\017\3005\336\"\200\212\000\b\017\240\002S\017\3005\207\037W \r\n\000@\007\002h\007\000\b\000\007\000\002/\020\307\240\004K\003p\000\000\352\231\002\310\021\017@6n\037F\340\"\t\0040\n\017@\002C\017@6O\001\360\000\t\240\020\002\200\000\017\200'\000\001@\000\004P\000\017@\002\027\037g@\002J\030\003@\002\001\240.\0317@\002\004\310\022\016 \n\n\310\027\r`\b\003X\026\001\207\347\017`\b\000\004\350\000\017\000\005\001\b\330\001\017`\n\250\037\200`\n\377\377\377f(\207v`\n\005\b\000\017\000*\0241\000\000\007\260F\fh\005\017\340\024\235\000\3300\016\000\b\017\200\034,\017\000\b\000*\003\003\000\b*\003\003\300\002\017\340\0005\004@\001\004p\0279\000\360\207\b\"\017\000\013W/\000\203\000\013\331\016\000\005\017\200\b;\017\300\n\005\004\270\002\037\003\200\0034\r\340\007\013\350\024\017 \031\000\t\350\024\006`\004\n\270\n\017\300\003=\004\270\n\037\000\200\007\004\004\320\n\f\210\024\f\200\001\f\210\024\017\240*\005*\005\006\200\001\004\360\024\017`\0005\026\003`\000\002\340\002\003\360\024\f\350\024\006\200\001\002@\000\f\350\024\006\000\t\002X\000\017\300\004\005\004\360\024\004X\"\004\350\024\004\240\001\004\360\024\f\350\024\017\240\003\035\f\210\n\017`\005E*\004:@\n\033\005X$\0040\000\005\3408\003\220\n\f\350\024\017 \"\005\004\210\n\005\300\000\013X\000\004\210\n\004`\000\006\330\000\n\210\n\005@\000\003\220\n\f\210\n\004@\001\004\220\n\f\210\n\006`\000\004\370\002\n\210\n\006\240\n\002\200\000\f\210\n\017\200A\006\032\006\000\002\004\220\n\004\240\001\004\320\002\017\240\001\001/\300\001\240!\025\f \004\017\340\"\377\346\005\240\001\034\240\350\024\007@\007\037\000\340\000D\001`\003\004\320\004<\003\000W\240'\t\300\005\001\270\t\000\310=\013\300+H\003\003\007\0018\n\017`\017E\017@,V\017 \037\346\037\367 \037\377\377\377\3771\037\000 \037\377\377\377t\017\000?]\0040*\007\b\021$\207\001\300\b\002\340H4\233\000\000\240\000/@\342\200*\r\016\000\b\017`\t<\003\0206\f\200\000\f\250\001\017\200\002=9\000\000\000\b\037\017\300\fU\f\330\t\004h\b\007@\002\003\230\001\n\350\n\006\240\000\037G\300\002J\000Sj\b\030\001\f\240:\017`\n?\037\007`\0025\017\000\004\002\016 \024\016\200\025\017\000\002Q\017`6\035\023\003`6\033\000`6\f\370&\f@\000\f\330\007\f\300\000\f\330\007\017 G\006\022\004\310\007*\b\005 G1\007\007\007X\007\024\bh4\013\200N\033\0068\001\004\b\t\017 \002\002\007\b\t\017@\023\035\004\270d9\r\000W`\000\257\006\f'\000\300\006\3706\005\f 5\003O\006\bg\000\240\000&-\274\177\240\0001\r\fgp\000\004\200\t\"\f\f\260\001\023\005@\036\002 _\006\300\000\025\006x\001\002h\001\f \025\023\b\360\n\004\bU\007\200 \t\200\t\004\370M*\006\007\200\t\"\005\b\340A1\f\006\307\370\000J\r\005\327\000\340M\002\320\005\037\007\340M\004\004\300\013\b@M\027\300@7\017\340M\025\023\007\340M\f\300\000\004`\000\252\013\b'\000\300\003\3706\n\b@8\"\t\fpMO\007\r\267\000\240\0009\004@\000\001\2308\000\030\n#\0057\b\002\n\340M#\003\003\340M\005\340\004\017\000\r\007/@\000`\"\017\004\310L\016\300@\002\310c\004P\002\017\200\b8\t\270\005\004\310\004\004\000\002\f\270\005\017@\007\001\000\330\000\017\000\r\005\fX\t\f\000\004\017 \b=@\017\000\207\227P\t\n\340\000\006\270\005\004\260\005\017@\n\270\037w\000\037\221\016\240\b\017 \001SJ\000\000\000\331\240\b\017\300\035{\f\030\001\017 \003M\000\033w\017\240\024\003\017\000\004C\f\270\t\017`\0025\f`\004\017\240\023\005\fx\001\f\240\f\017\000\002*\017\200\b\020\f\270\t\f`\000\017\340I5\005\210\000\002\000@\017\300\001\005\034L >\001\240\001\"\002G\340\006\001\bh\033g\340\006\031w\270\t\017\300\022]\023\b8\000\024\th\000\000\b\b\007\240V\023\005\020\b\"\005\000\270\t\001\340@\017\240\0003\t`\0021\t\bgx\000*\b\b`\013\023\005`\013\004\270\t\004\260\t\006\000\004\n\270\t\017\240\024\r\033\n`\013\023\013@\0001\n\005\247\240\0019\013\006\267\300\t\023\n\270U9\013\013\227hV\004 \000\033\005\240\025\004p\000\017\240\025\002\007\310U\004\340\002\f\240\b\004pK\005`\000\003xK\0048\000\f`\000\004pV\fhV\005@\000\004\270\000\017\240\000!\001`\001\n\240\026\000\320\t\n\300\002\004`\000\037\207\240\tL\004hV\037\207\340\0072\017\240\005U\017\240\t_/\007\231\240\t\001\004 \006\017\340\0008\037!`\004\001\033\000`\0048\t\000Gx\003\024\\\260M\005\340\"\025\t\230\005\030@\250E\013`b\005\230\005\004h\026\006 \000\n8\001\033\004 \000\004P\017\004\b\b\001\220N-\002G\240\005\024\007hV\000\340\002\007 \001\023\003\330N\023\004\330N9\007\007G\000\003\000\360\002\b`\003\004H\001\017\000\003\035.\000\006\000\032\017`\004s\003\000#\025\006H\017\t@\007\f\230\005\004\220\005\005`\000\013\230\005\r\300\000\003 \000\023\022\250\001\f\000W1\022\005'\230A1\021\006\027\b\000*\022\022\200\004\"\021\021\200\0043\022\022G\000W\002\220\001\017\000W\377\377\r,@\342 \r\f\250\n\006\200\000\035\007`\006/@\000`\026\027\006\370\005\017@\027Kl\017\000\007(\377\017\240\001\006\340\030\f\350\030\002\340E\035g\340E\004\350\030D\365\007\340!\000\001\002\270d\n\350\016\f \001\f\350\030\007\340\030\026\2618\002\017\340\030o\0040$\017\240\016=\024\000\210#\034\000\240\020\002\200\034\033\006h\000\f\000\005\t`\002\037\003\300\026\027\f\370#\004(\034\017\340\0000\t@\001\004\370#\017 \032h\022\214\210\004\017 \032\203\004x\001\037\000\000\001\004\f\210\000\b\000\001/@\000\200\006\004/<d\200\006\000\037W@\003\n\021\000p\006\006\300\025\002\020\000\025\020X\003\017\240\0015\f \007\004h\000\004\3506\f\000\003\036\003\240\001\017\300\013\017\017\000\003\020\n@$\035l\240\020\002\001\001,\220\342\250\020\017@\002M\017`\032\035\023\t\250\020-\b\004\300P\001\270\030\f\250\020\006\300\001$\367\017\370\001\017\300P\021\033\006\000\017\004\260\t\"\006\000\270\030\f \013\f8\"\f\240\005\017@\005*-<d@\005?\004:\007\240-\032\004\020\f\004\b\f\004\220\"\f \000\f\310,\006\000\013\n\230\"\017\240\002-\033\003@\004\017 QN/\020\207\000\\B\013@\r\005\330\017\004P\001\f\240;\004($\017\240;\005\017@+\027\000\000\003$\020\\\240\000\001 \023\000\370|\003H+\004p[\006\000\003\n8p\017\200$\006\003\bS\004\220Q\017\000\005-\017\200\t\000\007`\004\006 \006\004\000\005\017`\0045\035\000`\002/\207\001`\005A(\357\037\340\000,\020\\h\000\017@\001C\000H\007\037\007`\0047\007\240\000\f\210\021\f\000\006\017@\001\"\017`\022\023\030u\230\013@\017\000\007\255\350\000\004 \006\fX\013\f\340\000\017@9\252)<d \b\b\b\004\f`\001\f\b\004\f\0009\004\000\004\004P\003\017\2009\276\003\300\004\004H\000\017\240\002U\017\2009\377\370/\007\001 \026a\0048\000\f\b\013\f@-\f\310[\017 \026\005\004h\004\006\300\001\n\300\000\004h\001\017@-\006)\000g\000\013/\007\003@-\003\f@\002\017\240\0025\035\003@\f\0317\270\033\f@\f\0048\000\004\370\000\004\b\013\017`/\001\017`D\n\037\006 {M\0008\000\006\b\013\f`\000\004\270\005\017`\000\002\017@\034\0163\260\200\007 \000\034\b\000\001\003@\004\017\200\021=\004\340\004\0040\\\017`\035\005\f@\000\f@\013\f\270\f\f \000\f\270\f\f@'\017`\\\377\377M/\177\000\2009\t\000`\\\005\330\025\017\000\\\000\017`\\I\023\340 \000\017\340\\\t\013\200\\\037\375\200\\Q\004\b\017\006 \000\n\030\031\037\000\200\\\0041\000\003\007h\0064\002\004'\200\006\001\200\000?\003\360\307`\\\013\003\270C\002`\\$\224\357h\000\004 \000\004\240b\"\006\006\200\\\004\220\033\006 \b\003\370\017\005\300\033\037w \005\002\006(\000\017@\000\005\037g@\000\002\"\t\000\370\005\037\005\340*\004\004p\002\t@*\026\002\300\n\f@**\006\b\200\\\000x \b\370w\f\000\021\004`\000\f(\035\017\340\\\013\006 \013?\005\000\307\300\027'/\274g\340\007\005\036\240@\002(\007\000\210\\\006 \000\0237@\000\031\007\310\006\r\340\000/\000g\340\003\006/@\003\200\f\021(\200\177\b\f\006`\000\nX\004\f\000\001\004\240\000\f(\005\017`\027=\004(\001\f\240\005O\005\000G\001\240\001IH\000\000\000_\030\001\004p\000\017@\0060\001\240\003\017 \r\035\017\240\001U\f\300\026\037\003\200\n\004\004`\000\001\3708\036\001\300\026\023\003\270\013\004\270\023\f \005\004\270\013\004\370\b\037\004\300\000\005\003 \000\017\300\026\006!\003g8\005\004(1\017\300\026\006\017\300\0019\017@\020\000\0040\001\005`\000\0138\001\f`\000\r@f\003\210\013\f`C\004\310\005\004\250\001\017\340\001\022\017\340\002\000\033\006\340\002\017@\002]\004\020$\004@\000\004\230q\023\003\000$\004(\002\f\200:\f(\002\006\000\002\031W@\013\f\200\006\003\200\007\005xs\004\210)\005`\000!\007G\020\000\001\230$\026\004Hr\r\300r\003Hr\017@\002\216\017 \fD\0048\002\016\200\004\037G \006J\024\003\340\n/\000G\000\007JL\017\000\007\242\340\n\b\200\006\f(\003\f\200\000\f\350\000\b\200\000/\300\001\240\f\017\006\350\000\037\007\30055\t\300\001\007\350\000\020\202\350\000\017\000;-\f \t\017\000\002@\001@\006\004 \000\017@\032\027\000\b\000\006\240\001\024\0038\026\020\000 \226\017@\002G\f\b\001\f`\000\004\250\000\017 \002\032-<d\000 ?\003\000g@\027\034\032G@\027?\000G\002`\002I\004\b\001\017 \0052\007`\000\f\b\001\004@\0039\003\000'\030\002\f`\000\023\003\240\021\0008,\017\000\0029\004\340\024\025\0068\030\021g\200\025\f`\001\033\007\000\001\f\240\006\t\000\001\037\003\000\001\017\004\320\001\f\300\035\006(\t\n`%\004P\000\004@\t\004@\000\004\000D\"\006\006\270\000?\007\003g@!\004\"\200D\000\013\017\200\n\005\000\300\000;\020\\\003\350\000\f\240\002\017\000\004\033(\260\200\200\236\bX\003\f\340\r\004`\000\t\340\r\037\001\340\036\007\033\007\340\036\004\230;\037\003\000\003\001\007\200\220\004@\0009\005\000'`\001\004\270\000\004\300\0006\007\007W\240\001\001\000\017/\207\000\300\207I1\007\007\207\300\001\023\tx\002\033\004\340\002\0048\000\fh\000\005 \000\003p\000\fh\000\004`\000\004p\000\001h\000\026\000\200\001\004 \000\004p\002\fh\002\004\300\002\0010-\0008\000!\nw\330\b\004@\000\006@ \002\230\t2\b\007'\200\t)\007'\300\004\"\006\006\200\t\"\003\003\200\t\f\240F\017\000\002\035\004\bG\f\300,\004\0003\023\n\220\000\007\2002\037\000\2002\031\0040<\f\240\n\004`\001\033\005\300\f\005\330\013!\007W\210\n\001\020=\007\240\n\f\340|\001\320E%\200\020\240\000\"\b\006\030\001\017\200>\005\004`\0002\006\004'\310Q\032\004`\001\0040\n\f\210=\006@\000\035g\300\003/@\003@\017\027\004`\b\006\310\240/\007\002 \006\353/\307\000 \006\377</\007\002 \006\377\024/\307\000 \006\377E\037@ \006\377(\037\037\2400)\003\200\004\002\220\016\004 \026O\005\000\307\001\340\fK\037\207`\000J\004\260\002\004@\000\004p\000\fh\000\017\200\0013\000@\001\"\000\242\300\005\004\350\020\n\340\000\033\003x\000\f\240\000\f\270\005\007\340\000\037!\340\026)\004\200\003\017\300\007\005\f\200\205\025\b\210\005(\367\017\200\000\fX\024\017\200\026\r\f\300\003\004X\024\004\330\001\033\003\240\003\fX\0249\004\006G\240\0031\007\bgXE\"\006\b\240\003\001\250\026&\200\020 \000#\004wX\003(\207\001\310\006\006\200\000\nx\001\017\200\b\001\bx\001\004\350\001\004\200\b\fX\024\037\003\240 \004\004`\000\004P\024\006\200-\017\300OC\001\240\000\b\340\020\020\013\240\000\247\250\\\007\004\007\000\210\003\213K\240\002\037i`\b\013\n8\001\004\250\002\f\000\006\f\250\002\017`\b\013\017\000\031\037\023\b\000\031\f\200\200\017\000\031\035\017\300\000\005\013\200@\r \006\004@\2129\006\005g\200\002\017\200\2005\025\003\200\200\005 \000\003\240\000\004\000\003\n\250\"\f\200\200\f\250\235\006@\000\002`\000\017\240\001 \001\240\000\f8\002\t\240\n\002\2006\t8\002\030\003\240\t\007\300\t\f\350\000\f@\225\004\210\b\004\250\030\004\000;\f\330\001\004\320\001\f\2000\004X\004\f@\001\fX\004\f \214\fX\004\033\b@\230\"\007\007p\002\f\250\030\017 \003e\0040\013\006`\n\0237X\t\002XB/\005\006`\b\003\f\250\030\017\240\000%*\003\004\300\013\"\t\006XB*\006\006\210U\017\300_\025\033\007`\000\033\004\300\t\004\030\000\003(1,L\b@\000)\004w\270M\004h>\005\300\t\003\330\224\004\350\000\004\210\n\005\300\t\003\030\n\fH\013\004 \000\004\300\005\017\340\tb\017\200\001\000\033\006\200\001*\005\000\340L\f`\000\004\360\000\f\350\016\017`\000\005\033\004`\000\001X\017\001x\214/\307\001 \032L\007H\004\017 \032\001\nh\003\f\200\000\017 \007 \037\375 \032\003\017\200\nKD\017\000\207_ \032\b\300\021\004\270\021\017\340\000:\b\000\b\003\270\021\t\240\005\007\000\004\004`\000\023\006\260\021\007\340\004\037\000`\002A\006\000\021\031G\330\027\037\007\000\001\004\fh\000\t\000\001\037\003\340\001\017\001\340\005\001\210\022\032G \000\013\370\003\004\b\000\006`\000\0038\000\001\230\262\000\240\266(\207\002 \002\f\0306\004P\004\017\240B\002\031\004@B\037=\000F\000\024\240p\021\017\240B2\007`\000\004x69\005\0067\340\001\004\340%\017\340\222E\0018\001\0028/\030\002h\000\004\340\001\f8\001*\006\007\340\001\f8\001\0040\000\004\300\001\005\330\000#\005g\250\001\032G\300\002A\005\367\003\000f)\037\307\200\000:\004\300\004\f\270\001\017 \2378\t\340\000\001\340\t\001\000\022/\207\000 \0026-<d\200H9\003\003W\2403\f\270\001\0040\000\017 \002-\004 \000\001`\006%\000\020\030\025+\005\005\200\000)\003W\030\025@\017\000\2009\020\006\016 \006\037\307 \006B\003\270\005\020\200\270\b\017`/K\037\007\240\002:\r@\002\003\000\001\004p\t\004\300\001\006 /\034w\000\005\030!\240\b\023\0078\006\004`\000\r\240\000!\006w\300\001\f\240\002\033\t8\002\004\340\024\004@\000\b8\002\027\300\310\000\f\240\002\004\310\000\001\300L\017\240\002\000\033\000h\000\006\340\016\036\007\240\002\037\000\240\002\027\002X\020$\020\\(\000\017`C\r\002hH,\020\\\000O\025\002(\000\n\300\n\"\000\00202\"\002\0028\n9\002\005'\300\n\001 .\0018\n\031'h\000\017\200\b\002\026\000h\002\004\300\001\004\240\002\t\200\215' X\000\f\nX\000*\002\003`\002\"\003\003X\000\0048+\004H\003\002\000\005H\037\000\004\002\300\t\006H.\016 \213\017\300.{\037\000\001\000,\000\355!.\003\000\001\000\"@\000\001\000=!\004\0000\000\b\001\000\037\013@\000\004\023a8\000?\200\005\000@\000\n!\023\000\331\274\r\001\000\023\350\214\323\005X\306\003\250\303\003\207\313\004\377\306>\000\025\003T\000&\000\000\254\323?\230\020\000\200\000\n\037\"@\000\004\024\260\340\305/\b\000@\000\n\037>@\000\004\023\346\310\314?%\017\000@\000\n\037j@\000\004\023\013D\321?u\270\000@\000\n\037|@\000\004!\200\355\007\000O\000\243`\000@\000\n\037\224@\000\004\"#N\026\000\037\270\000\002\f\037\254@\000\004\"\333R\026\000/\216\002@\000\013\037\272@\000\004\"iU\026\000?n=\000@\000\n!7\000\001\000+p\000\001\000\"\330\222*\000\"\204\000\001\000\004\207\002\013\317\000/\000w@\000\004\"\\\223@\000&\374\000@\000\037\034@\000\000\037\301@\000\004\"X\224@\000&\314\001@\000\037\035@\000\000/\204\001@\000\003\"$\226\031\000&h\003@\000\037\036@\000\000/K\002@\000\003\"\214\231@\000\027x\200\000\037\037@\000\000!\005\004T\001\r@\000\"\004\2339\000&0\000@\000\027\000@\000\004\027\003\022\377\251\300\r\001\000\0238@\000*\020\000\000\001\0048\000\004\030\000/\304\001@\000\003\037H@\000\000\037\036@\000\000/.\003@\000\003\037X\300\000\000\037\005@\000\000\037R@\000\004\037\210@\000\000\037\006@\000\000.\306\003T\001\000\001\000\023\270@\000&\000\t@\000\037\013\300\004\000\037\342\200\000\004.\270\244\200\000\037\004\200\000\000\"\036\001\024\003\fD\005\023\350@\0005P\001\000\001\000\017\200\002\001\037\344@\000\004.8\246@\000\017\200\002\001/\250\002@\000\003\"\210\2479\000\004\260\000\033\000\300\005\004\001\000\037\313@\000\004.\220\247\200\000\017\300\002\001\001e\025\003\234\001\b\001\000\"\340\2509\000&\200\b@\001j\001\000\000\016 \000\001\000\025\246@\000(\020\000\001\000\"`\261@\000&\000+@\000\000=\345\f@\000/h\001@\000\004\022\334@\000&\200\\@\000\037 @\000\000/0\002@\000\003\"\3408\022\001&\300.@\000L!\000\000\013@\000\023lT\001\f\204\007\020\240\377)\017X\001\000*\001\000\001\000\037\337@\000\f/\000\004@\002\013/\243\001@\000\f/\f\000@\002\n/i\002@\000\f/\b\000\000\002\n\023\006\034\001O\240p\002\000\001\000\001*\340\000\b\000\027\b\b\001\027\005(\003\r\200\003\032\302\b\000\b8\000\030\006\240\000\017\001\000\004.\004\030p\000\017\250\000\034P\000\000\000\000\000\000\000\000\001\000\001\001H\000\000\000`l\000\000\000\000\000\000Zl\000\000@\000\000\000\001\000\b\0002\000\000\000\000\000\000\000\000\000\000\000\023 \000\000\000\000\000\000\000\000\000\000\000\000\000\0004\017\002\000\000\000\000\000\000\000\000\000\000\000\000\000\361'\n\n\n\n.version 8.1\n.target sm_50, debug\n.address_size 646\000\377\022global .align 1 .b8 threadIdx[1];&\000\006Vblock%\000\377$ \n.visible .entry _Z12lud_diagonalPfii(\n.param .u64\"\000\002\021_ \0006_0,*\000/32*\000\t\0371*\000\026\2462\n)\n{\n.loc\314\000\0218\314\000!__\025\000\373\013_depot0[32];\n.reg .b64 %SP\017\000\024L\020\000\265pred %p<10>#\000\20532 %r<64\022\000\020f\022\000Yf<16>G\000qrd<68>;\221\000\372\n\t1 17 0 \n$L__func_begin0:\036\000p\t\n\t.shau\000\003\300\000\0224\300\000\037Z\366\000\000\320E6shadow[1024\244\001c\tmov.u\302\000\033,\365\000q;\ncvta.\023\000\004%\000\023,\354\000\"ldb\001\001a\001o%r2, [g\001\t\035]2\000\03712\000\013\03112\000\002\034\001\0173\000\f#0]\261\000#to\236\002\0049\000!2,?\000\003\037\000\n\034\000\0213\034\000Q2;\nst\023\000q[%SP+0]\026\000\0223\026\000\"32\026\000\0218\026\000\0321\025\000!12\026\000!2;\250\0016tmp\241\001\24321 22 \n\tld\364\000%3,4\000\030;%\000\0309%\000$4,n\000\t$\000\3018 \n\tmul.lo.s(\000\"5,R\0008%r4)\000\0203M\0003add&\000%6,+\000\b&\000H7 \n\t\306\000!24\306\00006;\n\021\002\002\260\002E7, 0\326\000\0261\326\000;2 8>\000!16>\000'7;$\000\000b\000\200bra.uni D\000uBB0_1;\n\013\000D: \n ]\000\0302]\000\03113\001%8,c\000\b^\000 14\203\000betp.gt\352\0002p1,/\000%15\265\000\0303X\000\3053 \n\t@%p1 bra\222\000<6;\n\245\000\003\312\001\001\013\000\b\245\000\0264M\000)3 \262\001551,F\001\005|\000\0235/\000\2234 53 180 l\003\0022\000\000\222\002Utid.x0\000\0306_\000)21\305\001353,g\000\000;\000\027;)\000)36\211\000\017<\002\001M3 46<\002#5,/\000\000\006\000\tQ\000\006Y\001\022eV\0006p9,\203\000\006\\\001\0347\017\001I@%p9\\\001\0364\\\00153;\n\013\000\b\\\001\0268M\000C4 30\324\000\002\241\003456,\225\003\030;&\000\t'\002/56\203\001\000\0379\203\001\n\0357\203\001(10\207\000*44\204\001#8,h\000\000<\000\034;\260\000!cv?\004\003]\000\021d^\000\204r58;\nshl\334\005\002C\000\001\034\00012;\n[\000\003\031\000$9,\352\000\000\007\000\0218\373\004\002#\006 15\331\000\000#\000\t\376\000\001\000\003\024l\234\000?d60'\003\001\0224\347\003\006\201\000461,.\000\003\352\003\023u\031\000/2,1\006\013\003;\005\002i\006\0056\000\"3,=\000\t\315\000864,\035\000\002v\005\b\034\001$65D\001\007\034\001466,\034\000\n\034\001867,V\000\0306\337\000\"29\211\004\021f\211\004\000,\000!],4\001\f\004\001\f\211\004\0264\364\00151:\n\026\000\001\223\002\024\t;\000\0225\207\003\006d\002\0379^\003\000H5 18%\000(60\211\002\006?\002\002{\001\000\036\000\000I\000\nC\006\004}\005\0261W\000?6 3\267\000\000\006~\003&12\267\000\0325\267\000\0332\267\000(62\034\002\007\222\000#3,\036\000\f\322\006\002\316\005\02761\006\0362\217\000\006\317\005\000\217\000\0263\217\000'6:\215\000\02279\000\230ar.sync 0`\006\0319`\006\007_\005\0378a\006\005'9;$\000\017\330\001\00157;\n\013\000\001\026\001\007d\004(15b\000\nf\006\0371@\003\002\0378g\006\001#2,0\000\0271E\002\0306[\000\003i\006\0312\r\005.22\016\005\0268\256\000(8:\252\000\0377\271\004\t.31\271\004\006@\005+30\377\001/32\333\000\000\000&\000\0240\333\000\024l\351\005$5,_\000&r3\320\b(19]\000\003\352\005\0315\335\000\0371\353\005\00059;\n\013\000\t\241\002\002D\000\006\007\002(33\b\002\0262\204\005\"31\246\001\t+\003\002\232\t833;&\000\0371\235\002\001\003T\000\002\f\000\001\202\000\005a\001)21e\000\tD\007\0243D\007\0262p\006\000e\000)20&\000\0375V\001\001\0221\r\004\004?\007\0021\002#6,V\000\0006\000\006\350\000'2:7\000\0227V\001\0326V\001\0363V\001\0301C\t\nD\t\03735\002\t-485\002\0262r\003^32 35\305\006\0214\354\002)48+\006/43+\006!\0224\277\005)43\365\005445,h\000\0316\365\005846,6\000'5;\252\000\"55\211\001\002\306\004?d47\260\001\001\003\321\000\007\374\006\001\002\001\002/\000\n}\007849,s\000\t}\007\001\027\004\000#\000\t[\000*58[\000%50[\000\n\307\000\002\262\t\023d\307\000(50E\000)68\307\000.52Q\002\017l\000\002$3,/\000\n\307\000\002\315\t\004s\000(53\307\000\0221\307\000)54[\000\000\207\003\bA\000\0305\b\001(53+\000\004m\t\003P\000\0232P\000t5];\nneg\027\000\000\233\000\020fx\003dfma.rn\027\000&4,\035\000\0211\006\000\002n\r\004\266\007155]\026\000\0344\235\000\r\323\003\007\233\013)12U\004\000\241\003\0304\241\003\000\326\001\006\027\002$adi\001\002\254\001\000\036\000\013\366\006\0222Z\004\b\245\001\002\230\003\017Y\004\005\000C\003\0265\367\006*13\221\000I3 40\342\001/16\342\001\001\0203\003\000\t\342\001417,/\000\n\245\t/18z\003!\0221\337\002)18.\002820,\035\000\n\214\t%21\202\000\nd\002\0212\021\004\004=\000'21d\002\003\023\002622]\036\001\0376\307\006\n\0366\222\004'7:\030\001\0367\221\004123,:\000\n\256\000$4,\034\000\n~\003(25\344\000*24\035\000'6,$\000)21\222\001\0300\356\002\0233\332\000\000\266\0016div\331\002\"4,\036\000*%f\320\002\0212\255\b\027f\317\002?4 5I\002\001\006A\b'28I\002\n\207\nK36 5C\t\0045\000\017\340\f\n-37`\001\0273\\\007\0347'\b\017i\017\001/37'\b\001$7,_\0006r38]\000\0301]\000\003'\b\0317\321\006/20\321\006\000\003\023\007\002\f\000\017)\b\013\t1\n\0273A\007\0379)\b\007(9;&\000\017)\b\002\0276\202\000\0216\202\000\005U\007)33e\000\t)\b?40,y\006\000\0339)\b/41X\001\001\0229~\001\006^\016\003k\007\0211\227\004\007r\000\016O\b#8,|\000\0005\000\006\016\001\007\315\007\0249O\b\0328O\b\0379~\001\000\0071\013817:\372\000\006.\013\"40\f\017\006\313\004/27\325\000\000 40\371\001\t\313\004428,/\000\n\313\004/29\313\004!\0233x\004\0319\312\003\002\261\n\004l\000*30\035\000$2,$\000(64\253\000)49\322\000.33\315\001\017\322\000\001\002\310\t\001/\000\n\033\005\000\021\n\007p\000\0274\033\005\003\302\017)35Z\000+52Z\000\0256Z\000\n\307\004\002j\003\004\375\000&36\364\001\017`\005\n.45\000\004,7:\201\000\013a\005\000\006\004\000;\000\ta\005\000x\003\003\034\000\n\364\000\002\206\002\005\241\000\0279\364\000\0226\364\000\0324N\001\013r\b)414\001\0309+\000\001\210\022\005O\000\0237O\000\0311q\b\000\255\000:f5;o\b$9,\032\000\000Q\001)f7\233\005!41\233\005\0349\225\000\r\024\004\007\233\r*18\220\005:9 2\b\004\0306;\002$adT\002\000\017\n\002\036\000\017j\b\003;47;\263\003\017\232\004\005\000\273\001\b!\006\nP\r/41^\006\002\0272+\005\0269=\000*20=\000\0352^\006\004\032\000?3 3W\000\001\006\365\017'40W\000\0311W\000,28\217\t\03032\004\007%\001#4,\036\000\013%\001\003\362\017;44;Z\017\017\363\017\004\000\220\000\007\313\021622:\216\000X51 19\216\000/11\211\027\000\0215\316\021\b\225\005\000\350\n\002-\000\0311&\000\t\257\027.13\026\022\0215\256\000\013t\025\001\b\013\004T\000\0303,\000\013\263\027\000\363\023\005/\000\tz\000\001\201\006\017:\022\000\000E\007\006(\007\000\270\t\007\246\001\006(\007\0375\272\027\006\000j\002\006%\000\017\214\002\001\0272\273\025\0312\274\025(43a\000\n\276\027\000\314\n\r)\006/52X\021\001#3,0\000&15\274\000\0304[\000\0223\326\006\0323T\b\0368\326\006'24\254\000\0314\254\000\006\326\006\0335\305\027\000^\013\rB\026\0374c\005\n-19c\005(47a\000\013\307\027\0028\013\000i\000\000<\000\006\020\001\f\307\027/21S\002\000\017\307\027\001\002\220\013\"21\006\000\tQ\000\02749\b\001V\0005p4,\203\000&22\261\000+8:\022\001J@%p4c\001\017%\031\001\007\267\t)25c\001\006/\022C54 4\017\002\002\001\001/d4\017\002\001\0354\254\017#5,-\000\n6\b\03765\b!\002\235\006\nS\007&8,\032\000\006n\002/50\355\001\t-23\355\001<51:\305\000\013P\007!9,:\000\tO\007\000U\020\002\033\000\nN\007\000h\004\005\234\000'10M\007\001\017\002\000!\000\t5\001\02373\002\002\347\000.12&\031*54\343\002(24\343\002\006%\000\f\247\002#5,-\000\002\274\000\ns\000\013\342\000\001\330\017:r25\343\000$4,\034\000\013\344\000$5,\255\000\000\007\000\0304]\000\002\263\002\006\254\007\0231\027\020\f\201\000\r\232\004\006&\007\0275\026\027)26\222\006\0345\316\027/26e\003\000\f\316\027(272\001\007#\001#8,\036\000\000I\000\013\337\007\002\224\005&28W\000\017\316\027\003\0262\273\006\0275@\027*27\271\000\f\320\027(29E\003\006\224\000\002!\n\0362\332\020\003\344\005\000\032\013\nM\005\017\344\005\005\000\221\000\0274\221\000'8:\217\000 7 \216\0006ret,\000&5:\244 \200end0:\n\n}~\"\r\374!\0203\272\003\236perimeter\375!\017#\000\002\037_\376!\001\017+\000\n\0371+\000\027O2\n) \001\"\021\0371\001\" \0352\001\"<173\002\"\b%\000\002$\003U<122>\253\001.61\003\"*1:\036\000\017\003\"\t\016\372\000VE3dia\001\"\017:\000\031\0208\017\000O_row?\000)6col?\000\005\336\005\016\177\"\0371\177\"\037\016\347\001\017\200\"\016\0163\000\017\201\"\017\0164\000\017\202\"{\0375\266\b\n\017\310\006\000\006\265\b\"69+\013\004\234\t\026u[!\0313\233\t(584\000\0367\\!\0371\026\032\000\0261\002\"\0211\002\"\004M\000\017\312\022\n-49\262\000\0266\312\022\0227\302\r\t\202\005\002'\001\0264c\t+72\227\021/50\002\f\000\000&\000\0377\331!\002\0328%\000\r\211\t\000\217\027\002U\000\0005\000\b,\000/37\312!\001\0332k\026#72\353\021\016H\006(53\334\013(54\004\023\0266\n\004\"73\336\022\017\371\005\000\007\341!\000&\000\0350\372\005\0261\364\"\0321\364\")62a\000\0315\035\001\017\003\033\001\000&\000\0357\334\013#6,0\000\006\362\006(63Z\000\0365\000\033>1_7?\002\005\205\f\0321@\"\0266)\f\"74\t\001\005\250\000\0321\223\037\006'\000\n\242\016\0201\242\037\004?\002\t'\000\0313\302\001\02012\037\003V\000\000\007\000\0301,\000*30S\000\017\034\016\000 74u\020\013@\002\0221\337 \0011\000\001\007\000\b/\000-28\005\024\002\324\026\005\213\000\006I\026<65:\t\001\000\230\003\b\231#>1_5Y\001\0052\r91_4Y\001\0266P\000\007B\t\004\262\n\0360u\n\000'\000\0323\006\001\0375\200\001\001\0335\365\f?166\200\001\001\0225X\013\b\200\001\001v\t\001V\000\0016\000\034;\241\000\000\242\n3s640\000\"d1Y\013*16\345\030\0241\205\n\000\037\000\f\212\013%3,\340\000\001\b\000\0302\216\013\0249\217\013\0313\250\000\0231\366\000\002\247\000Od114 \003\001:5 9\354\f\0241\024\013\0351\360\f#11\362\f\017\305\007\004\017\360\f\0023117P\000\n\364\f\0221x\016\007 \000=5;\n+\001\0259U\001\b+\001\0026\016\002\037\000\013\265\f\002}\016\006^\000(20\354\000+20\324\013\0222\201\023,19\022\001\f\222\004\006j\006$67\213\n\0331\353\"-76k\002\0378q\003\000\0336\374\0058169\221\002$ad\264\001D170, \000\000\007\000\0328h\007\003\221\005'17\343\000?7 5\275\000\000\006\222\f&68\275\000\n\221\f+73H\02481711\002\b\227\000$2, \000\017\333\013\003K172;N\005\017\342\005\004\000\223\000\0269\223\000'7:\221\000\f\273\030\005T'\t$\007\0349$\007\0377s\001\000\0369$\007\017A'\005-79$\007'9,/\000\b)\000\017$\007\006\0309$\007(60$\007\0267+\b\"80\022\005\017B\001\000860;&\000\017$\007\001\005\023\026\0321\256#)71a\000\t$\007\005T\006\b\004\004\000a\000\016$\007#7,0\000\007e\t(72[\000\0365T\033\0371%\"\000\0261{#91_9\252\000\006t\007\"81\345\000\005\252\000\0201\346\027\006\025\003\0042\000\0254\231\t-66\231\t\0211\001\0309cta\234\t(75f\000$34\357\004\0033\000$1,:\000(4;(\000\n\004\002\0221\021\033\004/\000(39,\000)42\272\000/439\006\000\0218\266&\nS\000(4,Z\000\0313S\000\0331,\000$5,3\000)16)\000\0328|\000\0366\376\002\"81\266!\n\342\007\002\017\030\0011\000\001\007\000\tU\000\0356\256\023\002P\005\005\210\000\0069\t<76:\305\001\000\342\007\b\354\033\0211'$\f\026\002\004\270 \002\f\000\t\030\002\006\000\f\0238\336\n\025lP\006.98\344\007\000&\000\013\b\001\0378>\002\001\0378>\002\013\0379>\002\001\0309\214\000*52>\002\002b\013\001:\000(4;(\000\0325\277\001\002\006#\005/\000\0308,\000)60\272\000/52>\002\001\0222\245\t\bS\000(3,Z\000\0302,\000+59,\000$4,3\000\b>\002\003\\\001\013B\023\"99-\000\0324t\007400,\036\000\013s\007401,\231\001\002)\000\b\235\b\0238\235\b801]y\000\0231\257\001\002\241\000Od102\231\004\001\002w#\t\206\000%3,0\000\013\235\b?04,(\020\016\017\242\b\003305,B\000\013\331\000*6, \000\0363\242\b%07\200\001\t.\001\004\r\001\0367/\001*9,^\000\t\016\002+25\242\b\"09\242\b\t&\000\016\216$\002d\003\004\277.\005\n\033\000\027\000\t\347\007,83\244\b/553\004\000\0343\244\b(56Q\003$ad\273\001\0201p\007\003 \000\000\007\000\0375\244\b\003\007a\007/84\021\b\002&12\277\000\0271\277\000\nX%,80'\r(58:\002\b\231\000\003\310\002\0378\246\b\006\000\247\007\n\317\006\017d\007\004\000\224\000\0272\224\000'3:\222\000\017M\025\001\0301M\025'83;\000\0254;\000\017\\\020\003\r[\020\0268K\016,87D\006\"5,4\000\030-\327\003\002\356\"\t\206\001\002\201\020\006\267(\0238\361!\006\031\b\017[\t\000\0238[\t\006o\000\"7,+\000\0308$\000/34 3\001)8]$\000\0343\200\006$9,P\000\tM\000\013\3450\002\361\f\001,\000\007\341\000\017y\t\007(10y\t\000J\r\0268I\001\006\b\b\0379y\t\007\000F\003\007&\000\017y\t\001\004\021\t\002\f\000\b\271\006)86c\000\0308\031\001\000\337\r\r\342\004\0309\370,\013\323-\0312{\t(87[\000\0365\323-\0371\317$\000\0271M$\000\f\000\t\254\000\0061\023\0349}\t\000\374!\006\355\003\006&\000\n:\004/37\252\006\000\0359\350\b\002\304!\"36\246%\t)\000\t\271\036.39;\002\0239\215\036\t;\002\001\346\t\001/\000\000\006\000\tQ\000\0357\232\020%5,\203\000\0264\205\013<89:\375\000\013E.\0211t!\rO\001\003\326\003\002\f\000\b\240$\0269\327\013\0279\"\031$64\272(\f\264\b\000&\000\0373\232%\002\tu\001\0332\227\020/42u\001\001\003_,\006u\001$43\300%\002\227%\013\233\000\f\223\020\001\211\003\013\r-\002\362\t.d1\302\006\0259\217)\003\311)\005\357\007\0232\356\007\0319\234\000\013\212\020/20\n\003\001\r\354\007%21\335)\n\352\007/22\206\020\037\001.\035\000;\000\t\312\000\007\253)\003u)\013\337\007\002{\034\0324\335\007\007\253)\n\031\001\002\200\033\005V\000\0306\335\000\002\347\003\006\330\007\0222\0334\0342\001\001\rm\004\006\301\004\0309\027\007\n\005$\0349\326\007/44M\003\000\f\325\007(45r\002\001\311\000\005B$\002\036\000\002\361\"\017\321\007\000\0070\f\0379\320\007\004\0269\271\000\b<\007\n-$\000\001\005\0317\224\000\0307\035\002\007\224\000\002\303\003\0377\315\007\005\007T\013\003 \005\017\267\005\005\000\221\000\007\222\007\001\201$\005\217\000\0266\273\003\nN#\001\031\007\004?\000\017\206\016\f\017G\f\000\0279}\006\0226\324\004\bG\f\004a#'4;&\000\0324H\005\002p\003\003,\000\0303)\000*27)\000#7,/\000)16P\000\0377`\"\002\b\"\002\0376\325!\000\002\357\003\003U\000\0308,\000/57O\"\001\0369\241\000\017\257\007\005\0312\257\007(21(\021\0279L\007\0377\257\007\006\007f\"\000&\000\0370\370\001\000\000#\000\006\f\000\t\264\005\0317c\000\t*\021\000e\004\016\245\004\0367*\021\003*$\0322\257\007(98[\000\0365*$\0371\307\"\000\0211\2265\006\f\000\t\254\000\007\262\006\0228\351\000\006\254\000\005q\020\b:\006\0338\023\004/24:\006\001\0348\257\007\003n!\002\325\000\0314)\000\t\257\007\017\260 \001/98\257\007\000\004\226 \002\006\000\tQ\000\016\257\007&4,\203\000\0277\t;\007^\007\003\376\000\013\027$\0211f%\rP\001\007\241\031\n&&&10'\023&99?\020\002\312\005\0374\260\007\000\0339N\031/28v\001\001\0209\251(\017\036!\001\tv\001\0349\335\003\003-!\002\307!,9;\232\000\013\260\007\001 \001)30\226\006\001`\001\035d\224\006\0247\273$\002u$\f\304#\0317\225\000\004\262\n\003g\000\0378\003\003\001\0349\250\007#9,,\000\f\220\017\037,x\037\016\017\253\007\002\000\266\013\003r$\007\310\000\000\017\013\006\035\000\0359\252\007$13;\001\007\024\001\001\213\005\017\370#\032\"99\024\021\017\370#\t\003\003\001\rh\004\0274\260\002\007\362\006)24\362\006;100\231\003.31J\003\001&\000\t\255\007(32o\002\001\314\000\005\2578\002\036\000\000J\000\017\255\007\002\007\2368/10\236+\001\0251@'\001\275\000\b\036\007\n\342\030+97\177\017(34$\002\007\226\000\0245f8\017\257\007\003\000z8\n \005\r\222\000\0271\222\000\0274\222\000&6:\220\000\016\352\007\b|\017\002\f\000\007/\0002104\255\017\016\2752$10\242\007\017\230\017\002-62\231\017&10\242\006?138\250 \001\0258\322<\02757\000\03177\000\0367\0341O1_37\314\004\000\003\n\n\002\f\000\006\255 ?108\272\000\t/74\272\000\000\0279\203\000\0359\205+\003/\020(74\236\007!75\314\001\005\247>\006\222\005#14)\017\017\350\001\000\0267\350\001\0371\334.\002G1_29\330\000\002\036\n\006\334\000*11g\000\t}\002>76,\241\004\001'\000\0356\245\007\0029\004\0002\000\b\214\001)12_\000\0225\214\001\03218\".36\215\001&30\265\000\0223\275\026\n\224\002\0069\0018132\330\b7113t\000\000\201\001\f~\001\002\217/\0201\363<\b(\000\0372<\001\000'31\207\000\002\334\b\007<\001\0324i\000\0307<\001\02018\004\rb2\000(\000\f\001\013\t\342\003\bP\000\0359\276\007\003%\n\002\223\0047134\365\000(5:<\000\003\365\002\0321<\032/34i\001\000\007\022\t\0313\022\t\0271\346>S142 3\270\000\002\201\004?d81\270\000\002\003S#\007\300\006482,0\000\n\302\006/83h\016\037\0228r\006)83o\006885,\035\000\0312\220\000*34\270\000\0366\230\001\017\270\000\003$7,0\000\n\335\006888,u\000\0307\366\007\0223\367\007*88\\\000\0343\\\000\0259\\\000\n\024\001/90e\027$\0239\271\007\n\326\007792,\035\000)89\225\000)49\031\001\0259\261\002\017\275\000\f\0229g\001\0359\366\007895,u\000\b\0245\"14\031\001*95\\\000\000\203\000\bB\000\0316\260\000\013_\000(7,$\000\0314I\000\001\330\027\rFE*97\262<\000;\000\020f<\r\n\262<&7,\035\000\0244RD\007\243\b\0239hD\0357\274\000\rO\003\b\262$\0313\270\004\000\230\003*25\374\003\0307\214\002$ad\214\001\0221Q\023.13\217\017\0242\276\004\006*\016\004\361\003\017\275\004\005\001\314\003\007U!\03331\t\0374B \003\007\275@7118?\000\0335?\000\fp\t8135\033\004\b\327\000$6, \000\013\327\000\003\317\006\0201\f\006\0131\006\017\320\006\005\001\230\000\007\334 \0303\271\b#14\212\b\f\370$\0276SE\007\306\031\0263\307\b\017\240\b\003\0363\346\007\007VB#14\214$\006r\f\002\342%\0008\000\b=\030\000)\000\017\017\b\004(64\017\b)65\325\006\007?B?146\017\b\006\0306\017\b\0376\242\002\003\007\347\b\0223\346\022\006\363\005*23g\000\t\017\b\005\261%\n\362\005\0376\017\b\001\001\340\004\0336\016\b)24^\000\0365EJO1_45\244\006\000\007\302\b/39\r\b\n*677\001\b\027\007\0227\344\007\017N\003\000\000+&\b'\000\0371:\002\001\003W\000\002\f\000\f8\001\0326h\000\03168\001\005\311\016\tr\006\003l=\006'\000\0379_\001\002\0237\336\021\n\t\b#0,Y\000\0008\000\007\360\000(7::\000\004\007\b\0320c\001\017C\"\000\0274\351\b\0314\305\0217128T\000\0258/\027\001\211\000\000b9\0176\006\002\004}\020\0066\006\002\207!\0010\000\0366aD\017\311\016!%44dD\007&\006\004dD\003\035\000\0312\225\000*41\275\000\016\f\b\017\275\000\004\0257,C\n\f\b\0027\025\005u\000\0377\023;\000\013\030\001+44[\000\006\217D\n\013\b/50\037\t\037\002\256 \001zD\007\245\000\002\177,\004\035\000)49\220\000\0325\023\001.53\206\002\017\270\000\002\0225a\001\0355\006\b\000\360\036\007u\000\b\006\b\003\327;*55[\000\013\005\b\002\353\036\004T\001)54,\000\n\350\007\0238Q\000\0316\347\007\0219\016<\033;\345\007$0,\033\000\001\357\007\0318\342\007456]\315D\013\231\000\r*\003\0071\013)42\215\004,14\277\017\000\312'\006a\002$adg\001373,\036\000\017\337\007\003<73;\310\003\017\220\004\005\001\243\003\007\007\007\0344v\b\0349\272\013/28\343\001\002\003\216\036\007\343\001\000\\\023\0030\000\n\233\002\0373\233\002 #31\327>\t-\002\002X\021\004\035\000\013_\022%33\200\000\nc\002)34I>\b\374F\003\276C*34\333\000)16\003\001/35\266\004\002\002\3310\017\245?\000\0355\002\001\0377\265\004$\002\332\t:d37\321\000(9,\035\000\0376w?\002\0259\356\000\b\264\001\0304\020\003\0274\207?\t\274D\"5,\036\0009%f3\370\002340]U?\004T\000\0375v\t\003\0274m\016'30o\002\fM\n\f\244+(70n\002$ad\204\001\000\336*\002\036\000\017\013\n\003\0267\021\024\004-\b\017\313\b\005\001\224\000\007\275\033'45\n\n\016\317\000\b\b\n\002\f\000\007/\000?153\303\022\006/32\t\022\n\0367#\n\007PD?155\303\022\001\002#\025\000<\000\b*\t)348\000\004\310\007\n\220 /54\310\007\000\007\233\023647:\306\007/35\274\000\t\002\370%\f\275\000\007\325\b/56\267\n\005\001\266%\005=\002\fgF\0016&\r\372\"\001(\000\0317/\013\003\005&\0010\000\0311)\000\0333Q\000\0376\316\025\000\000'\000\0350Y\033\003<&\004Z\000\03160\000\f\002*\002R&\0054\000\0314-\000\002\203\t\016\372\025\001]&\006~\n\001|&\007v\r\007\201C#15X\031\017\353\002\000'10\223\007\0375w\006\004\007\267\013)48\241\t*38f\000\t\265\013\006\2641\t\356\005\000(\000\0366\305\023$5,3\000\t\216\002\0319a\000\0235\216\002\n\317!\0375V\n\001\007\271\013)49\265\000'40T\000\0229\033\001\007\265\000\005V\n&4]\210\000/41\030\036\n/12\031\036\0009142i\000$34\342\005\0035\000$3,<\000)4;)\000\013\240\002\001\031\020\0060\000\0311-\000*42\277\000\017_\006\002,59\f\034\001\3611\007\\\000\0325U\000\013\242\002\003\376\023\0004\000*16*\000\n\245,\017{\036\001\000'\000\017\246,\000\003N\036#18\007\000\nW\000\017\247,\000(6,\213\000\007{\f\007\027B\005\321\001\000&\002\n\3445.51&\002\000\256\n\006\f\000\n&\002\007\b\005\"60x+\006\306\007\0172\r\003\000(\000\0320\307\007\000f\006\0030\000\n\307\007/71o\023$\000\273\t\001@\000\t\252\007\002\327\t\005\035\000\0310\225\000\0326$\002/20$\002\001\004\275\000\013\221\034\001e\030\0004\000\t \t\0003\030\003\035\000\n \t\000\207\027\007\217\000=5;\n\314O\03373\001\003Z\001\004\337\000\0367\241\035#16\326'\007\304\000\017\247\003\003\0375\247\003\n\0372\247\003\003(6:i\000*35\247\003\0020\037*12\247\003\000)\000\0328%\003\002\035$\0050\000\0311-\000+23-\000(5,4\000\n\260\001\013B\036\0221b\037\0014\000-16<\001\032c\345-\0227Q\003*26\261\001\002\303\t\0357\321\n480,w\001\000\007\000\0329\211\000\003}\006\004\264\t480]VQ\013\205\000\rZ\003\007\214\006&47!\t\0225\342\017\005\364\b\0346{(?127C\004\000+61\263\0208128\001\002\b-\001$9, \000\000\007\000\002\226I\r>\007'29]\000\003\232H\f\303\000\0272\303\000\007\206\024\0335{\r\0345\217!8130\036\004\007\234\000\002m\f/13{\n\006\0201:\025\013\361\006\017\220\007\005\001\230\000\007\177\r853:Y\001\017UI\001F1_61=\000'50=\000\0254=\000\017c\n\003\0368\246\t\007\225D-16\334C\002r\002\0008\000\t\206\024/64\317\t\005\t|\002\003\325\024\006},\0370\256%\000?152\360\003\t/81\357\003\001\000\001C\007g\000\013\261%\0023\032\000:\000\0314\216\000\013\223\003\000A\032\005-\000\0310*\000\013^\n\002\032\032\0328\2401\001R\000\t\264%/85\366\002\001\0375\265%\000\000\272\031\005W\000\0315-\000\013\266%\002G\032/86\245\000\000\017V\n\005(87U\n)88\323\024'54:\001\017\n\026\007\0278\313\007\0376\n\026\003\004\335_\002\f\000\tx\007*55e\000\t\b\026\000\275\032\017w\007\000\017\b\026\002\002/\t\0002\000\bQ\n)56_\000\004Q\n\n\300%/60+\b\000\007\267\r*56\263\000\007l\013\0236\253&\005\263\000\000W\033\006\250\004\007'\000\n4\004/91\224\007\002\r\0270\002\342\032\0219\265\005*91*\000\t\305%/93Q\002\001\0377\306%\000\002U\033\"93\006\000\nS\000\0367\000\026&4,\207\000\007\232\017\007\246A\005\005\001\000\205\t\n\312%/58Z\001\000\0079\016*57Z\001\007\377\013\"68)5\006\205\t/57\016\002\002\0228\270\r\017\016a\003\n\205\t/59L\021$\002\223?9d59L\007\000T9\007\035\000\0318\225\000\n=&/95\360\001\002\003\274\000\013\204\t\0226n\001\0315\322\007\005\023a/, \026a\003\003\215\000\017\237Y\001*64u\000\004:\002$64\032a\016\203\t\0338\203\t/96\331\002\002\003\r\007\007\262\002#7,.\000\002\303\000\013w\000\f\353\000\002(\000\nA?\002\210?-d6\004\027\002\207\030\001\261\000\001'\000\n\210\000\0329\275\b\"68\275\b\0351\204\000\r\237\004\007b\007\0306%\007\002\376\016\006d\007\0349\306\003\017\377\f\001+69\274\b(99:\001\006*\001\003\2117!99\006\000\017\023>\004&00Z\000\0377b\022\003'59\277\000\007\235\022+59\277\000\r\325>(01R\003\b\232\000$2, \000\017\271\b\004\0300\024\n\0366\230\000\007\366\005\001\230\000\007G'?60:5\023\r\004\267\b\002\f\000\007/\000=173&J2163]\000\004'J/1:'J\005\001\341M_inter#l\n\b\"\000\037_#l\n\017*\000\000\0371*\000\013\017#J \"2[\333\031\006\314I\017#J\017\0269\375I\003\"J\0350\"J912>G\000Frd<78\000\020f\023\000Vfd<3>\352\001\03777l\000\007\366\020\03778l\023\b\013\001\016\372I\017>\000 \017\371I\025\0372xl$\016\274\001\017xl\r\0162\000\017xl\016\0163\000\017xln\006\033\n\tJc\0271\025G>183\355\036\004\033*\030;&\000\0358\350\003\0262\265I\0232\267k\006\f\b*65d\000\t\364&\005\353\025)6]d\000/19\275k\003\0324\026\n)66\\\000\0363dJ-2_\272\b\0262\314H\0232\314H\006\305\004\000C\000\006.\001*96/\001\0071\n\"85\344\n\017\213\033\000996;'\000\03701\001\000\0263\203\000\002~\033\0071\001\0328f\000\03091\001\000\226\007\016\200\036\0238w\r\n2\001#8,1\000\t3\001\0319^\000\0365\354*\0362\363l\0262\376G\0322\376G\0271=C#18\367\026\007p\023\0373\341\001\002\003\020;\006\352\t\004\374\b\0343\352\t\"65\352\t\016p\004\017n\023\013\002\220\b?d65*j\002\003\035\000\0314\223\000*21\273\000\0368j\001\017\273\000\002$9,/\000\n\345\b\004C\024\003t\000\t\201D\0013\b\0320\177\000\tN\002\000?\000\0169\b,88a\001/71a\001\002\002 \t\005B\005\002a\024\016H\001\0171\013\017\005\240\024\t\331\t\002]\024\001}\000\ny\034)75G\024\0314\223\000\013a\001/76a\001\002\0348a\001\004\343\022\rF\n878,t\000\0327m\000\fO\001\0378O\001\000\002\276\035\f\234\003\007.\003\000\272E\005\027\000\t+\004\001t\003\0308\233\003\006\206\t/20\206\t\025.20\206\t\003\226\003\0172\004\004\001\226\000\0262\226\000\0326\226\000\0229\303\004\f=\000\0277=\000\0263=\000\0337\323\000\fqH(98^\002\006\322\000\004\353\n\017V\n\005<99;\230\005\0172\006\004\001\222\000\0264\222\000(8:\315\000\003\205T\007Y\035\005\033\000\f\303\013\0375h\022\001/75h\022\t\0376g\022\001\007=E\0241;4\001\215\002\001\270\003\004o?)4;%\000\0316:\r\0258I?\0315'\000*30a\r\022,,\000)16&\000\0307\270\002\\SP+32\331l\r\2572/10\375\000\002\0267\375\000\0357\375\000\0261e\023\027y4\000(8:g\000\013\376\000\000\n\030\002:\000)4;'\000\n\000\001\003\361\032\002-\000\0310*\000\013\003\001\003\306\032\ne\023\000(\000\r\005\001\002X\002'14\253\000\006\311\006\"20[+\006\021\001\017\016\002\002%80\021\001.54\021\001\0236*\025\007\017\001)81d\000/15\3269\001\001\177\004\t\300\000\0332\324\021\017\3319\001\001&\000\000@\004\017\3329\021#20nF\005S\000\005\f\032*36T\000)39\244\000&21\002:'20\332\000\0372\335\037\t.226\026)83\f\001*53h\000%3,n\000)22\222\000\0357\272\022\003>\031\0378\346\000\000-67A\034\0322\3768\005\220\000)4:f\000\016\200A\0212\321H\f\312\b\003e\017\001\013\000\007\356 \007\214B22038\026\037l~8\t\001&\000\0315\224\001\017v\002\003\0376v\002\t\0372v\002\001\0317\213\000*51j\001\0277\2219\0316\217\000/65\0169\002*8]&\000\0354\220\001\002\037\002\0337\225Z\000-\000(76S\000\0373v\002\003\0203\243O\b\244\000\0020\031\002W\000'30\332\000\0378v\002\t\0373v\002\001\b\346\003:3 8\336\002\003j7\001n\000\007\2353\005\301\001\032cc\033\0245{7\017\24599\000m\000\0365l\000\0248\240\001\007\315\n\0379\314\n#$10b9\007\270\000\001\300\005\001g\000\n\202\t\002w\005\0044\000\0005\023\013\231\000$13.\001\017\2279*#20\277l\017\2309\t/20)0\001\002\230\003\005<r\005\251\023\000\030\000\007\377\007+20\235^\005\3328\001i[\005@\000\0371`\003\t.35`\003'92T\002\0344\252\027$36(9\t\0249\000*\000/36mE\002*8]&\000\0345`\003\017pE\004\000-\000\nN\032(39B\004\b'\000\0316\244\000\003pE\0248pE\005\332\000\0373`\003\t.41`\003\0059A\002h\000\013\326\005\002\202-\002n\000)41\222\000\016\326\005\002\341D/37\346\000\000\017\326\005\000&3,`\000\007\333\n\007\226A\001f\000\016\247?\0212\230J\f\326\005\000\351\002\006\f\000\007\330\005\007\265@#20\020\034\037l\007F\n\001'\000\t\331\005/44y\002\002\0377y\002\t\0374y\002\001\0318\214\000\001]#\r\344C\0244`i\007\217\000)72\217\000\017y\002\002M5 71\223\001&8,Y\000\0317-\000)83S\000\017y\002\003\0205\332L\b\244\000\002/O\003W\000\0279\332\000\0379y\002\t\0365y\002\0272@@\001h\000\0329h\000\017.[\003\005\302\001\013\331\005\0021\t/52.GA\000t\000\017\340\005\000\000\201\t\002\250\001\007\341\005/21f\017#\001p\t\002\357F\007\301\000\002\364\b\004oG\007\301\000\002@\t\0056\000\003\004O\b\235\000\02459\001\017%G*\001o\001\013\344\005\r&G\004 \001\r\344\005\0272\355\001\007G\017)12\344\005\017\377y\t(53%\021\0232\233=\b\030\f%28\002]\005&\000\0219\217\000\017\204\031\000'53\222\000\007\004\006\003\006=\0172\000\004\007&\000\0378\347\000\001\003U\000\002\f\000\b\033\0239203d\000\0311r\003554,k\000\te\000-15\311\023#4,1\000'15\302\000\0314^\000\0363\201C\0372\321o\000\0252Tr\002\f\000\n\261\000\0375\322\004\t-90\322\004\0272q?2242\353\024\013)\003\0233\372\036\t)\003/33)\003#\002\227\007\001\322.\007\332\002%35\335/\n)\003\002s\007\0056\000(5;\255\000\004\262v\002r\004\001\240/\017\221\001\000\003\325\000\bn\000\004\220/\fH\003\004\223/\003u\000\0368\3323239]\254\0033f64\032\000\000;\030\001{2\b\232\000\0265Rs\022u\300\031\001!_\001-\000\371\0030d3F50624DD2F1A9FC<\000.43)_\0212&M\r\t\002\003M\002\002\f\000\tXs.24Ey\0370\037\001\004*46\037\001\001f\b\0020\000\n%L/42\377\n#\002X\b*d4m\001\005\3135\003$6\007\224\002\0377\214\006\t\0379\214\006\001-8:\322\000\013\306\002\002[4\0329R\005\002Y\007-d4R\005\004\3755\003\244\000\0366\3214.47\n\002\0232\216p\007]\001.71\n\002#7,-\000\017\n\002\001\005\323\000\0369\231\003\013\032Z\017\026\002\004\0050#\0332\237P?210\037\004\n\0362\037\004\007,B#24\223\202\fY\001\001N\003*92+\002\0379\037\004#\0021\b\001\2606\007\247\001\004\3066\r,\r\004\3466\0026\000\bh\b,44\2668/53\000\003\002\003\325\000\007\000\003/54\3466\037\0368\3466\000[\000+41[\000\0256[\000\n[\003/57[\003#\005a#\017l\204\002\003\035\000\0276\320\001\0372[\003\n\0363[\003\007[C\005\322\000\013\002\002\002w#)93\264\001\007\223#\nF\001\002T#\004\244\000'61F\001\0229F\001*62F\001\004\377\"\b\261}\004\301#\n\3607\"1,\214\001\003\3657\000\3337\005\372\b\005m\b\b\211\"_246 7\025\b\001\0277\002\001\007\336\026+17g\005\003\376\b\f?\000\0278?\000\0275?\000\0338?\000\0220\275\016\005U\b(94\245\002$ad\276\002\002gA\000\036\000\013\260\027\003\350\b\007\340#\004L\b\017\350\b\005\001\224\000\0276\224\000(9:\222\000\fT+/55;\r\000?217J\004\t/56J\004\000\b\243\005\003S<\007/\f\0247?f\t\020`\000*\000)50\217\000\017\024\023\001\000\253:\r\316\016\002a\002\003Y\000\0318-\000(61S\000/60\024\023\001\000'\000\0310\244\000\002\322\002\002W\000'60\332\000\0379\346H\034\0272\001\203\000h\000*74h\000%3,n\000)62\222\000\0218?\013Khr.up@\n3\001+11\016\013\002\3637\001o@\005'\000\f\200\031(65\351\001\007'\000\013\253\001\002|\035\0366\253\001\0339\253\001/67\253\001\001\0379\253\001\000\000{\035\005Y\000\0317-\000/610?\002\n\253\001\0349\253\001\0337,?\007*\000\013m\001\006\2238\013m\001\0229m\001Uand.b\330;\0020\000)63(\000\016n\001\002\224\003'72\362\001\007H\007*51\026\023/73y\001\001,51\330\022\002\264\035,73y\001\000^v\0316Q\000\0375y\001\000/51\330\022\000\000\223\035\005Y\000\0315-\000\n\330\022/77y\001\001\000'\000\0326\244\000&8,W\000\0317*\000/60\246.\004\ny\001\0215\377[\013\250\000\002,1/75\250\000\000-74\232\022%5,`\000'80\204\001)2:9\000\016\241X\0212\"M\fQ\t\004v\031\002\f\000\006\232\022\0272:C&25j\027\002\247\006\0303\246\006\007&\000\003\225\013\003\300\007/28\277\022\000\0225\243#'ldO/\006!\002\005\317\000\0374\203\005\t.82\203\005\007\032C\0362\272v$83\201/\000>\000\t\216\000)35\217\000\0374_\002\001\003\220v\n\267\001&5,Y\000\0314-\000)46S\000\0376_\002\002\003\240\031\rY/\002W\000\007\327\b\017\207\202\013/88\203\005\000(7:h\000*59h\000\002=\002\0337V/\004\300\001\013\000\t\002'\031\0328\264\n\000j\031\003\034\000\n\000\t\002\355\030\001\372\001\003\034?\bD\002\0373\333=\000\0203\261&?sub\333=\017+31\333=/25\241\b\003'21\013\001\005c3\000\030\000\b\r\b-60\343):229\343)\0212\343)\360$.file\t1 \"/nethome/cahn45/CuPBoP/examples/lud/./cuda\013\000\263_kernel.cu\"C\000\0372C\000\006\0004\000\362\002-12.1/include/nv/\361\226\004=\000\0373=\000\030\344vector_types.hB\000\0364B\000\361\002llvm-vortex-with-L\000\365\003build/lib/clang/18Z\000!__\023\000\020_(\000\020_(\000wtin_varg\000\0375g\000=\370\004math_forward_declar\327\000u6 \"/usr<\000fstdlib \000\0237 \000\000i\000\366\013gcc/x86_64-linux-gnu/13/..\003\000\004H\0000c++\033\000@bitsT\0007_abu\000\0338u\000\rU\000\0017\000\000\272\000Gcall9\000\0379\216\000+\020cS\000\004L\000+10\206\000\000\035\000\006k\000/11l\000,\002J\001\005O\000\0372\331\0012astddef\261\231'_t\255\000\0373\255\000+\f\366\001/14\207\002A\007`\000\017\347\002>\025ca\000\221section\t.\345\232p_abbrev\303- b8\264\004\001\007\000(7 \017\000\0233\017\000\0228\007\000\"19\b\000\0225\007\000\0323\035\000\0226\b\000\003\007\000*27\036\000\nY\000)18\017\000\0310\007\000\0222\007\000*463\000\017B\000\n#64\017\000\003D\0004135\031\000\b\207\000\n\263\000\0235\b\000#11\020\000\0329\020\000\0236/\000/12\247\000\001\003\035\000/52\026\000\001\003Z\000+73:\001\017r\000\f*51\020\000\0322\326\000\n\007\000\0314\216\001\0370B\000\022\017\001\001\033\f\277\000\0320k\000\016\001\001\017\201\000[\004k\002\n\035\000*494\000\0179\002\013\0338\202\000+89\020\000\0327\020\000\0310\007\000\013[\000\017\265\000\021\003p\000)33\026\000\f4\000/55w\000\t\003%\000)36\026\000\n[\001*62B\000\f\b\000\0310\007\000/10S\000\020\fC\000\fc\000\0310\007\000+11\b\000\017\217\001\021\013C\000\003a\000)57%\000\n\226\000\0133\000\0313\035\003\0172\000\002\f\232\000\017\206\002\r\013b\000\003[\000\0324\027\000\nc\000\0232\b\000)15%\000\0320\026\000)19\246\000\0245\265\000\017\266\000A\0326 \001\016\266\000\016\206\002\017c\000\016*56>\002\n\007\000/17\311\005\002\ns\000\017c\000\r*60\013\002\017\224\005\013\004N\002\0375]\003\013\0372D\000\n\0379D\000\021\0310\007\000\0242\b\000\03725\000\004\017\373\000!\0310\007\000.21\027\007\017\351\0065\f\250\000\017u\001\033)22m\000\0370t\000\023*24t\000\0310\007\000.23@\003\017Q\001\000\0310\007\000\fS\000\017W\003:\0375r\000\002\0375V\0038\0375U\003\021/26U\003(\0375\337\001\"\0377y\002?\0375x\0022\0378u\0038\0315D\000\0320Z\b/38b\000\n\0310\007\000*300\001\03700\0010/111\0011.31\312\001\017\203\000\036\017s\000\r*500\000\013\203\000\0372M\002?\017\232\0004\0363\232\000\017\267\001e\017\252\000\f\0324\323\007\0370e\000\003\0310\007\000*35\337\000\003\027\000*715\000/32z\000\n\0316\367\000\0370S\003\022\017\351\005\013/37w\001g\013\212\000\0368\212\000\017s\000\026\0375\351\001#\013\202\000\0379\202\000(/11\203\0001*40>\000\0370E\000\003\0310\007\000*415\000\017x\007\004\f\b\000\017\312\000\r\013e\000\0322\035\001\0370\237\001 \017\f\001\r\005v\002\0311\027\000\0310\007\000*43\221\t\0370\007\000\001/44\300\b\002\n\007\000/45_\006\002\n\007\000*46o\000\017\347\001\004\0135\000\016V\003\017-\001d\0328\211\000\017\266\001\033\017\322\0022\0379\013\001\002\016a\004\017\231\000?\0340\007\000-\t}\206\023Ainfo\204\023\0203k597226\021\0220\031\000\t\262\023\t\242\000\003\231\000$994\n\0228\020\000\0227\017\000\"10\b\000#03\336\005\002\017\000#18\027\000\003\273\001#14\b\000\0225\b\000\0230\b\000)11G\000\003?\000#49\250\n\002\016\000\0306\025\000\003\016\000)551\000\004\206\000\004g\000\0336\b\000\0312\177\000#58\304\002\b\007\000\004\303\000\006\234\000\003=\000\005U\000\002(\000(98\210\000*99\311\000)09T\000\004\b\001\0341\b\001\0326 \001*20\204\000/12\020\000\003\0331\263\000\0328\b\000*18\206\000\0376\332\000\n\003=\001#53\023\b\t|\001\0310\355\000\003P\000\t\016\000(54\025\000\004\313\000\003\026\000(51\037\001(575\002(57\337\001/561\000\001\0231U\000\0302\207\000)56\225\000\t\025\000?100\244\000\001\0313@\000\0314\007\000\03159\000\004\b\000(973\000%41'\003\006\033\r\0041\000)8 \226\001\004B\000\f\033\002\0377j\003\000Yline J\005\006K\003\003\024\002\r\200\002\nc\002\004(\000(47n\000\003\276\000\0065\000\002U\000\0315\353\001\0033\000)67\241\000\0228+\000)66o\000(803\000\004u\000\004\261\002\005o\000\0339\270\002\0328/\000*15F\000\0318z\000\0049\001\000#\001:64 AE+0 \026\000\000\340\034\007\304\004\0171\000\022\0320\233\005\004I\002\003g\005.90\373\002\017\245\000\006\03497\002\0325\n\001\0323\256\001\0331)\001\0308V\001\004\340\002\005\232\003%05\t\001\016a\002\017\203\000;\003<\000\013\275\023\t\245\006\0241]\b\004O\002\005C\000\0330b\000\0309\343\002\0256@\f\n\276\006\0328\\\026\002\246\001\037_Y\226\t\bi\025\0376>\000\002\b\300F\0240\214\002\037 \341\000\005U32 84\273\b\tX\000/11Y\000\r\0223f\001\0328f\000*97\256\003)14\224\001/12\263\001\n\0049\003\017\254\000\003?662\254\000+\0057\006+1 p\002\n\021\007\ft\004\017\217\000\r\0375\217\000$\0246\375\000\037 g\000\000\0378g\0005\003s\001?106g\000K\004\024\003\033 \334\007\n,\003)21\001\002\0043\003\017\212\001!-21\274\000\0236\022\000\"42\241\034\003\370\004Jtmp5\017\000\004\336\000\n\376\024/22G\000\r\0329\017\000*10H\000\0324i\f\017H\000\007+17\020\000\0318I\000\004\324\022\0379H\000\r+23\020\000\0324H\000\0322\315\r\017I\000\b\0336\020\000\0327I\000\0323\215\031\017I\000\b\013#\001.30\343\036\017\332\000\021+36\020\000\n\221\000*40\024\033\017I\000\007+46\020\000\nI\000/53\374\001\025+50\020\000\0371\177\017\002.45\263\034\000\245\002'52\370\005\001\266\002\tR\004\017\031\000\b\n\r\002I102 \273\006\004E\003/97,\003\000\03142\005\004\260\002\005\353\007\002\207\003\0226\007\000(82\007\000\004\025\000\0309*\000#83\212\r\b*\b\0326#\000\03048\000\0378#\000\001'95\242\000\001\367\000\005\333\035\017\305\b\003\0371\305\b\000\0371\305\b\031\0371\305\b\022+12v\004\0374\237\006\002\f\226\004\f0\000\017\317\b3\017\215\0004\003n\000\0132\017\n\331\b900 \\\000%97;\000\017\301\b\000\004s\003\003\271\001\0359\301\b\017\200g\004\nL\t/2 \257\000\002\005\203\000\0325\027\000\017\\\t\023/63\233\000\037\005\2762\017\240\000!*99\237\000/08\237\000\n\0374\237\000%8col\310\003\0366A\000\013\234\007\0371\376\t\b\002\006\002\017\376\t$\0371\376\t[\005\254\000\006\345\007\017\254\000$\004P\003\0041\000\006\237\003\017t\b\030/600\t(\0371\376\t\026/66g\0005\016\376\t\017g\0006\017\376\tk\017\274\0008\0328\212\001\005\230\002/20w\000\000\0357w\000\0172\b\b\0336\020\000)7 L\000\0037\003\017H\000\017\0329\020\000\002\206\002\005H\000*70\362\000\006I\000*709\000+74\020\000\0315I\000\0338\310\n\017I\000\b\0338\020\000\0329I\000\017x\n\026+83\020\000\003{\000\016\017&\017\222\000\f\0339Y\000)95I\000*96c\036\017\233\013\b,05\021\000\0336\313\026\0378\270\001\024\003\344\007\b\021\000\0339K\000\003\020\000\017\226\000\017,20\021\000\0321K\000/45K\000\025,32\021\000\0323K\000/55\341\000\025,35\021\000\0336K\000\0366\226\000\017\300\001\002\000/x\013\021\000\0332K\000\0379\236\002\025\003\f\001\b\021\000\0326L\000\0336Q\"\017\343\000\b\f\367\013\0331\370\013\000\266b\017\343\000\024,52\021\000\013y\001*65\246\002\0370\025\013\t\0372\013\024\007\017\332\023:\03158\023\004\215\005\006\235\005\0374X\023\004\017\f\0138\017\204\000+\0310\024\001)76$\001\017\221\nK\0221)\005\017\356\023\r\016O=\017\221\nS?179\237\000\031\017\221\n)\0322+\n\0370\224\001\000\017\222\n$\0372\220\024\\\005\255\000\000@\034\0370\256\000*\017\224\n2\017\221\000\002\0375\221\000#\003\310\t\005\f\t\ni\000.94t\t\017h\000$\0338S\027/17r\001\b,95E\021\017w\000$\003\344\033I103 \037\003\004/\003\003\347\032\013@\004*95=\002\013\373\003+955\002\0370\303\000\001\0379;\0015/36\304\000(\016\037\004\017\303\000\026\0003U\017\303\0004\003\241\036\005F\037\017\216\000\023\017\220\013\002\000L>\017\226\0005\004\337\001.4 \350\001\017\227\000\036\016\360\001\002\211\000\007\376\007\rk\b\002\237\013\017\301\000&\004\345\004\017\275\003\003/83\222\000\020\0337\021\000\0377p\003+\003\033\001\017|\030\005\0355\222\000\0310\007\000\0376K\t\007,75\021\000/6 q\003\000\006\272\026\007L\000\0346;\000\r\366\000/8 \372\002\000\017L\000\001+82;\000,80\021\000\0331L\000\0322\335\025\017z\n\b\016]\000\0373L\000\003/54\230\000\017\0346\021\000\0337L\000\0323\255/\017\230\000\t\0348\021\000\0379L\000\003/90\230\000\016,91\021\000\0332L\000\0324\244\031\017\230\000\b,93\021\000\0364L\000\0170\001\024,97\021\000\f\024\002\0325\244$\017\230\000\t\0329\021\000\005P\002\fL\000\0170\001\017\003+\000\b\021\000\0326L\000\0056\r\017\230\000\016<207\021\000\0378L\000\003/58\230\000\016,10\021\000\0331L\000\0374\310\001\025<212\021\000\0373L\000\003/53\230\000\017\f\344\000\013j\033\003@\006\006\231\032\017\230\000\t\f\310\001/20L\000\003/75\230\000\016,24\021\000\0325L\000\017\230\032\027\0352\274\033/27L\000\003\0326_\005\005S\f\004\027\032\0042%\0330\037\000)6 S\b\004\b\t/03\235\n\t\004>\000\005\355\002\013'\000+97O\007\t|\000\003\262\000\007t!\002\031\n\004\205\007\f\031\013)08\020\000)99l\000\006\313\007\0274e\000\003\365\f\0332\2328\0374{\000\013\003L\032'53J\000/35<\000\033\0305<\000\003y\002\017<\000\016\0303\322%\0230\303\017\017<\000\032\003\362\017\0320\2265\017<\000\024\0301<\000\003y\003\017<\000\016\0364\264\000/60<\000\033\0309<\000\0371<\000\032\t\360\000/62<\000\024\0365\264\000\002\177\b\017<\000\026\tx\000/72<\000\033\0303<\000\0375<\000\024\0366\264\000\002\212\b\017<\000\026(54<\000\0376<\000\033\0305<\000\0377<\000\033\0307<\000\0379<\000\024\0367\360\000\0339\335\004\0315\272\n\017\305\004\035\003i\000\005\345\013\005\037\000\0325`\004\0324\305\004\005\321\017\0336\030\000\0311\241\022\017\200\004\002\013\366\037\017\262\000\035\004\233\000\0220(\006J2473`\000\0312\017\000'35\212\000\002&\007\017&\001\203\003\260\000\013\031\030\f\300$O2695g'\000\t\t\001\n!\002%20;\000\004!\000+98\376\000\0315\327\000+95\257\000\0370\r\001\002.16\276\000*50V0\0329\222\025(788\004\006Y\000\0308\233\003\005h\000\017\234\001\023/54\234\001\004\nF\000\013\177\007(49Z\003\005\036\000*15\002\001\0311\373\016*97\357\001\0326\224\007(21\004\"(78J\"(49Y\000\004~\000\0319v\000\013\375\003+11\206\000)08\020\000\f\207\000)110\001'69\237\001\005,\017\004U\000/95\342\000(\t\363\001\003\300\030\000a\002\0333\211\f\r\243\002\003/\020/8 '\002\225\003\275\005\006\312\003\003e\000\005l\001\03387\000\f^\000\0375\023\002\207\006\370\n\017\325\000#\013\006\002\0377\006\002&\0320\002\f\004R\000-71R\000\r#\000\0352T\000\013#\000%20#\000?491#\000\004\0243#\000/56\232\000\002\003\025\000\0261?\006\0330\217\001\0325|\002\03312\001*00\227\025\0338q\001\0310?\000\017'\000\024\0300\274\034\0308v\016\n4\001\0324!\b\006\250\f\nc\002\t\371\n*126\032(62\2245\005\304\r\004\031\016\0230u\000;8598\000\03148\000\017\223\007\000\006L\000\0371L\000(\0334L\000\0372L\000(\0318\3661\0170\001\023\005X\000\004\"\002\017\304\007\n?875\033\003\004\005\251\000\017\023\000\023/0 \254\000)\0378\254\000,/80\321?\002\017\315\005\003(75\2232\006T\004\017\251\000\002)99\212\004\003,\f\006=\031\0035\000)10\357\004(51\346\004\004=\000\0330{\032+12\316\004\0324G\006\017;\005\003/32\203\000\031\013i\001\0269i\001\t9\001\0371t\001\0049942\032\000\017\216\004L\0375\313\000\002\t_\004\003\246\034\006_\004\0247k\002\0252\266\000\0248r\004\006\232\000\017&\001\031\0322\217\002\f\327\f\017S\000\031\f\276\004\005l\025\0376\270\004\025\005=\005\t\032\004\0330F\000\0371F\000\"\0334F\000\0372F\000\"\003\335\002\f\230\0018947[!\t\253\001\004+\016\0334\250\003\0325t\003\0317&\002)97%\000\0338%\000\0335\253\006\0376\246\001\002+95\037\000\0314]\003\004\232\002\004\204\003(00~-\004\017\000/12M\000\002\003\035\000\t\333\000+52`0\017\223\004\002(50\032\n/95\016\001\261(49\252\020\0319\007\000\006v\037\002a\000\0044\000\004\354\000/04\335\0008/20\215\005\007\013z\002\017\230\000a\0310/\002,3 }\003\0311\007\000\017H\002\377j\0371H\002\204\0371H\002\000\0374H\002\377\211\0372H\002\204\0372H\002\000\0375H\002\006\0178\021\021/75O\002\306\0329\277\001\017N\f\023\017\364\001\002\017\021\f5\017{\000\013\n\327\001\0368\223\t\017\002\f\003I3588\032\000\0370\370\001\374\0373\242\000\003\003\212\000\0046\000\017\000\002Q\017\203\000\023\n\b\002\03693\r\017\b\002\033\004rM\005\b\002\002.\001\017\336\001\245\t\036\001*62\f\001\005\r\r\r\034\001\0379\034\001\377\030\005\266\021J3603/\001\003S\000\017S\004\337\0307\215\027\003$\004(82\367\000(839\000\0178\0043/61\327\001)\0378\327\001\026\003\017\000\017\327\001\345\004&\000\017\374\005C\0378\304\001\005\002\213\001\013\245\001\017\317\001\026/0 \325\021\002L3593\325\021=952\373\021(52\311Q\n9\000\016&\000\017\016\022n+98.\000\0311z\000/07\366\001\030\003\035\000\t\322\000/65u\r\031\0303W\000\017\005\001\243\017l\rw\017|\003\b\013h\002\017\230\000a\0310&\002\004`;\016\264\017\017?\002\377g\0371\363\021\227/67?\002\377\200\0372\352\021\227/68\352\021,\017F\002\275\0379\341\021\251/71\341\021\025\0204[\177\016\373\t\017\357\001\356\0373\231\000\003\003\201\000\0046\000\017\367\001Q\017\203\000\023\n\377\001\0362\330\021\017\377\001\033\016\274\020\017\325\001\241\n\025\001\0325\003\001\017\r\r\005\0254\302%\017\023\001\377\b\005\357\017N4254\306\021\0178\004\331\017\275\021w\017\316\001\027\0373\316\001\026\0373\316\001\342\004&\000\017\264\021V&75\202\001\013\234\001\017\306\001\026\0310\007\000\005h\021\0264\t8\004\264\021<361\216\021\006\023\000.349\000\017&\000\000\0255\307\021\013(0\005\032\000?364\032\000\005?723\032\000\004*064\000\004A%\006\2302)16\243\001\0310I+\0315@<\001\351<\004\000\t\r#\000\0251#\000/34#\000\004\0252#\000/63#\000\004\0253#\000\0379F\000\005\0244#\000/72F\000\005\0255#\000\0375F\000\005\0256#\000\0378F\000\005\004\002\016O6820#\000\004\0258#\000/51#\000\004\0259#\000\0378F\000\004$10#\000?909#\000\004\005^\001\005\347\023\r#\000\0252#\000\0377F\000\005\0233#\000O7008#\000\004\0254#\000/35#\000\004\0255#\000/64#\000\004\0256#\000/91#\000\004\004^\001\0257\265'\r#\000\0258#\000\017^\001\005\005k\005\0237\271>\016#\000$20#\000\003\272\000\017#\000\000\0251#\000/46#\000\004\0252#\000/85#\000\004\005^\001\0373\322\000\005%24#\000/55#\000\004\0255#\000/90#\000\004\005^\001?432#\000\004\005^\001?475#\000\004\005^\001?512#\000\004\005^\001?543#\000\003%30#\000/88#\000\004\005^\001/63F\000\005\0252#\000/89#\000\004\0243#\000\005#F\r#\000\005^\001/75F\000\005\0245#\000\0378k\003\005%36#\000\017\246\004\005%37#\000\017\246\004\005$38#\000?931#\000\004\0259#\000\0378#\000\004#40#\000O8018#\000\004\0251#\000\017S\002\005\005\3103/80\244\001\005$43#\000\003]M\017#\000\000\0254#\000/65#\000\004\0255#\000\0379F\000\005\004^\001\02380\003\017#\000\000\0257#\000\017\276\005\005%48#\000\017\276\005\005$49#\000\0373\337\002\005%50#\000\017\337\002\005%51#\000/76#\000\004\0242#\000?411#\000\004\0253#\000\017\276\005\005$54#\000\0375\231\002\005%55#\000\0334`k\0315\254\b\0241'\000/79'\000\002\0321'\000?624'\000\002\0332'\000/57'\000\002\0323'\000?702'\000\002\0334'\000/48'\000\002\0335'\000\002\333D\r'\000\0326'\000/80N\000\003\0337'\000/49'\000\002\0338'\000\0378N\000\003\0329'\000?923'\000\002+10(\000/50(\000\003\013\210\001\005\267\007\f(\000\n\211\001\0259\274\007\f(\000\0333(\000/35(\000\003\0334(\000/64(\000\003\0335(\000*97\231\002\003\017\000\005\001\003\0259\353/)222\001\005(G?914\"\000\003\000\342\320\004#\000\0376#\000\004%23#\000\0378#\000\004\005\352\004?920#\000\004\005i\003\02390\006\016#\000%73#\000\002.\000\016#\000%92#\000/73#\000\002\006\263\t?929#\000\004\005=\007\0359\244\004\0349\307\004J9332\247\001\0379\037\002\003\0223n\004\r(\000+24(\000/78(\000\002*43(\000\0224\233\001\r(\000+62(\000\002\316\000\r(\000+81(\000/49(\000\002\006\3444\004)\000/70)\000\003\f\362\000/50)\000\004+40)\000/24)\000\003+59)\000/43)\000\003+78)\000\0376)\000\004+97)\000\0378)\000\003\003+\013\006)\000?602)\000\002\004\030\t\0247(\000\0372(\000\003+90(\000/38(\000\003\0333(\000\0177\002\004+94(\000/74(\000\003\0335(\000/96(\000\003\0327(\000?733(\000\003\0338(\000/54(\000\003\0339(\000/76_\002\004\0331)\000/98)\000\004\0322)\000?819)\000\004\0333)\000\002\214\t\017)\000\000\013\034\001\005Y\n\r)\000\0336)\000\0378)\000\005\013F\001\0379\245\003\004\005HR\005)\000/25)\000\003+10)\000\017p\001\004\005\257\021\005)\000\0378)\000\005\0313)\000O1001*\000\005\0344*\000\017\025\002\004\005\267\020\006*\000\0375*\000\005\0347*\000\0377*\000\005\0348*\000\0379*\000\005\0339*\000\005\272\000\r\224\005\0341*\000/35*\000\004\0342*\000\0375*\000\005\0343*\000\017\353\002\005,25*\000/97*\000\004\0336*\000\005_J\r*\000\fP\001\003\235\f\017*\000\000\0349*\000/62*\000\003,30*\000/88*\000\004\fP\001?315*\000\004\f&\001\0223\025\b\017*\000\000\fv\002\0223\350\031\017*\000\000\fP\001?403*\000\004\f&\001?434*\000\004\0348*\000/60*\000\004\0349*\000/87*\000\003+41*\000\0375\240\002\005,42*\000\017\316\001\005,43*\000/67*\000\004\f&\001?594*\000\004\0336*\000?620*\000\004\0347*\000/47*\000\004\0349*\000\0377\355\007\005\0340*\000\017\253\006\004\005v\022\005*\000\0377\013\006\005,53*\000\017v\002\005,54*\000/64*\000\004\fP\001\0377\370\001\005+58*\000?810\351\b\013\006*\000\017j\005\005,60*\000/57*\000\004\fL\002?881*\000\004\f&\001?905*\000\004\f&\001\0379^\n\004\005\231?\006*\000\017@\005\005,68*\000\017@\005\005,69*\000\017,\b\005\002\031 \006*\000/10\312\002\005,72*\000\017r\003\005,73*\000/61*\000\004\0345*\000/82*\000\004\0336*\000/10*\000\005\0347*\000/23*\000\004\0349*\000/44*\000\003,80*\000\002\235'\017*\000\000\fP\001\005\233S\r*\000\f&\001\003\001\027\017*\000\000\0344*\000\017\214\007\005,85*\000/59*\000\004\f&\001\005\210\022\r*\000\013v\002/13z\001\005,89*\000\017\343\013\004\003tT\b*\000\017n\004\005,92*\000/68*\000\004\fP\001?395*\000\004\f&\001\0374\250\000\006\0346*\000\0375/\r\f\006*\000/85*\000\004\0339*\000?517*\000\002\005\245T\006*\000\017z\016\004\003\274\032\b*\000\017H\003\004\003\240\032\007*\000\0376\210\b\004\005\253U\006*\000/46*\000\004\0345*\000\017\232\017\004\003\222\032\007*\000\0377\350\005\004\005\376\020\006*\000\017\322\016\004\003\240\032\b*\000/77*\000\003\013\371\013_11811*\000\004\0342*\000\017\274\020\004\005\031U\006*\000\017w\f\004\005\274\031\006*\000\017\276\005\004\005R\017\006*\000\017\276\005\004\003\204\032\007*\000?921*\000\004\0349*\000\017\354\004\004\005SU\006*\000\017x\f\004\003v\032\006*\000?200*\000\005\0343*\000\0373*\000\005\0344*\000\017<\006\004\005\257U\006*\000/90*\000\004\013&\001\0252\b\r\r*\000\0348*\000\017\022\017\004\003Z\032\b*\000\017\006\t\004\003>\032\b*\000\017\006\t\004\003E\032\007*\000\005\334\002\r*\000\fP\001\005<\000\004\312\004\004\332\002\003y\f\002%\000/55%\000\005\0262%\000/70%\000\005\0254%\000?319%\000\005\0268%\000\017\224\000\006&41%\000/61%\000\005\007o\000\0379%\000\006\0255%\000/41%\000\006\0266%\000\0373%\000\006\0267%\000\0375%\000\006\006\336\000?576%\000\005\0259%\000?604%\000\004&50%\000/29%\000\005\0261%\000/47%\000\005\0262%\000/64%\000\005\0263%\000/92%\000\005\0254%\000?713%\000\005\006r\001?739%\000\005\006M\001?762%\000\005\006M\001/78J\000\006\0259%\000?840%\000\004&61%\000/73%\000\005\006\336\000?906%\000\005\006\271\000\005\261\013\016%\000\006\271\000?945%\000\005\006\271\000?974%\000\004&70%\000\017\227\001\006\005\274+\000z\t\017J\000\006\0262%\000/56%\000\005\0263%\000\017r\001\006%75%\000\005\251\026\016%\000\0266%\000/57%\000\003\006q\035_13305%\000\005\006J\000/35%\000\006\0268%\000\017M\001\005\006j\030%13\367\n\r%\000\006x\003O3396%\000\005\0252%\000?423%\000\005\006M\001?511%\000\005\006\003\001?444%\000\005\0265%\000\f\274\b/11\032\035\0014135\177\021/21\222'\002\003d(\013\025,\003\212&+98\227K\0271;%\004\340\026\013%\000\03002\033\002:\r\001\205\026*18\224\035\013B(\006!\000\0330\331\000\0335\212\f\0241\333\000?797+\000\005\0338+\000?828+\000\005\0349+\000/61+\000\004,90+\000/92+\000\005\0331+\000\r\216\026\006+\000\0342+\000/64+\000\005\0343+\000\0379V\000\006\0324+\000/40\002\001\006,95+\000/59+\000\005\0346+\000/90+\000\005\013\256\001\0354\030\026\006+\000\0348+\000\017\002\001\007\0349+\000\017\002\001\005\005\025\r\005+\000\003N$\017+\000\001\0341+\000\0375V\000\006\0342+\000\0378V\000\006\013\256\001?431V\000\006\f\256\001\0223\311\004\017+\000\001\0345+\000/79+\000\005\0336+\000?416+\000\005\f\256\001/44V\000\006\f\256\001\0374\004\002\005\005\226\n\005+\000?527+\000\004,10+\000\017\004\002\005\005\236\r\005+\000?601+\000\005\f\256\001/64+\000\006\f\256\001?680+\000\005\f\256\001\005\005\t\016+\000\0345+\000\0023\006\016+\000\f\037\035-14\005\025+15\316\r\005+\000/82V\000\006\f\256\001\005\2455\016+\000\f\256\001\017\337\004\006\005\373\r\005+\000\017\337\004\006\005\374\r\006+\000/56+\000\005\0342+\000\017\002\001\006*23+\000/50\333\002\006,24+\000\017\333\002\006,25+\000/84+\000\005\0336+\000\005\337\032\016+\000\0347+\000\017\333\002\006+28+\000/21V\000\006\0349+\000/47+\000\004,30+\000\0175\005\006+31+\000\0050&\016+\000\0342+\000\0377V\000\006\f\256\001?408+\000\005\0344+\000\0171\003\006,35+\000/94+\000\005\0336+\000/52+\000\006\f\256\001\0375\260\002\006,38+\000/88+\000\005\f\256\001/61+\000\005,40+\000/50+\000\005\f\256\001:686D\t\0377\364\t\002\0377\354\t\022\0375\354\t\025\0305'<\n\266l\013\345\t\006\032\000\0310\250\020\007\334]\0310\217\n\0360Y'\017\325\000\r\0312\325\000\004F2\0331\335\000\0362\335\000\017-\000\005\n\345\000\0342\340p\r\344\000/52\204\001\031\0373\257\000\022\0374\267\000\037\0045\000\n\277\000\0374\277\000<\0302\277\000\f<\002\005\316\001\017\270\000\002\017.\000\005\n\261\000\0376p\001I\017\261\000\000\017q\001\020\0176\000\r\n\301\000\0378r\001K\0326\017\000\017q\001\013\017-\000\002\t\257\000/42p\001K\017\202\000\002\0325\266\000\017\276\000\032\0375\305\000\001\0370\305\000\020\017\327\000O\016F\002\017\320\000\020\017E\002\002/44E\002C\0329\325\005\0314\231\000\013\267\000/9 -\000\t\n\257\000\0376\257\000I\00567\004\177\003/08\260\000\b\017.\000\005\n\261\000\017\245\003=\0376\232\005\003\0312\206C\rH\004\r\356\\\0372\331\000\003\017V\000*\t\371\000/50\371\000\020\017\013\001+\0371\013\001\003\0375\333\000\022\0375\263\000\000\0372]\002J\r\241\000\0374\251\000\030\017\275\003\002/54\261\000<\0321\331\002\0321\242\000\n\252\000\005\r*\f'\000\002\037\000\0335\327S\017T\001;\017\243\000\005/99\213\000\000\016\252\000\n.\000\0360\n\242\017T\001G\003\345;\005\\\003\017\252\000\004\013'\000\t\243\000/62T\001K\013|\000/50\252\000\031\0176\007\001/60\373\007B\017T\001\007\0309uG\017\271\000\024\0136\000\n\301\000\017&\007C\004\232\000\003\251\007\005\001\007\0375\270\000\002/2 -\000\b\n\257\000\0376\257\000J\004\350<\006\b\006\0339 \000\017\271\000\002\0177\000\005\n\273\000\0378\273\000\020\017=\0023\0322\344\007\005q\005\017Z\004\003\0340\315\000\0177\000\013\t\325\000/70T\004D\0312I\001+97\027\000\n\b\000\0340\302\000\t6\000\n\261\000\0372\261\000\020\017\022\000\027\017e\002#\n\325\000+20\037\000\017\325\000\021\0046\000\n\335\000\016\315\003\017\313\000S\005\371\002\017\206\t\n\r\314\000\f7\000\n\315\000\0376\315\000e+11\326\003\017\315\000\023\0137\000\n\315\000\017\375\003N\f\332p\0312\003\006)99\334\003*97\220\005*15\220\001\0330\037\013\016\372\000\017]\0007\t(\001.80\020\023\017\027\001*\f\024\005/14a\007\f\0322\330\207\0365\371\000\017F\000\017\n\323\000\0372\373\001\037\0257\3366\003\345\000-23\030\001\017\370\000\024\0324\312\001*12\255\002\013\270\016\004\b\000\004\361\000/4 ?\000\022\n\361\000\017\206\004O\0333R\002\0328\226\000)03I\b\013\324\000\003S\000\0176\000\f\n\323\000\0376\227\002=\0326\302\000\005$\003\0372P\005\004\0335\257\001\0371\333\000\004\017O\000*\t\364\000&91\274A\0370\364\000\023\0329\2357\005Z\001)11r\001\0310A>\017/\001\022\0377/\001\004\0373\220\003\002/97.\001\003+14\027\001\0272\220\000\016>\001\017^\000#\nE\001\0375E\001\027\017\371\005+/52#\001;\004\020\000\0313.J*97<\003\017J\001J\017\205\000\024\nq\001\0364q\001\017~\004L.15e\003\017\034\001\031\0177\000\003\t\326\000\003\376<\016\327\000\017\305\000'\0374\305\000\004\0338{\001\f \000\0372\325\000\004\017G\000\032\013\335\000\0374%\003U\003\007\000\017\366\000\037\017\016\003,\017n\000A\013D\001\0373D\001U/51D\001\024\017\211\004-\017T\001\f\017~\000Q\013d\001\0376\\\004f*10\257\000\017,\004\001\016\025\001\0176\000\003\n\325\000.11\325\000\017\333\bB\003~\000\006\025\b\0314?\r+97\311\001\017\333\000\022\017N\000\024\013\363\000\0373\363\000<(49\007\000\016\372\000\0377\264\000\f\0370}\002\002\005\020\000\0320\356\001\016\033\001\017o\000B\0134\001\03754\001\021\017F\001*)52\264\001(97\217\013\005\336\000\t\322\001\005Z\225\017-\000\003\013\303\000\0256\351J\0371\303\000\004\006\032\000\003\262\000*9 h\000\006M\001\0310X\004\03601H\017\352\003\025\0368\226\001\017\231\016\b(10\333\000\006\230\000\017?\000\f\013\n\001\0358\263\001\017\314\001\017\005\372\f\017`\b\033\0318(\001\003\250\001\004\247\003\004\b\000\005\027\000\0362\335\000\017=\000\025\n\343\000/20\343\000\026\0370\257\001\"\0378\245\002\t.20\310\000\0175\000\r\013\300\000\0251-M/19\301\000\003\006\032\000\003\302\000/9 \255\002\023\005\343\\\0378'\000\n\016\324\002\017\365\001\036\0338b\004\0325i\000/16\367\001\004\017?\000\032\0139\001\03639\001\017\223\0263\013.\001\003&\001\017\275\000\005\013'\000\n\245\000,33\213\000\017\236\002;\013}\000\016\034\024\017\262\000\020\n5\000\013e\001\0375\300\000a\f\f\005\017\301\000\023\017\003\005\003/27\302\000<\0372\302\000\n/50\272\000\031\017j\034\001\0039E\017\262\000V/98\262\000\031/98\262\000\000/31&\002L\017W\004#\017O\004\032.355\b\017\305\000+\0374\305\000\003/11\276\t\003/00\315\000\004\017?\000\032\013\325\000\0377\325\000=\0325\325\000\017\335\0004/08\345\000)\0378\t\006=\0322\177\b/11\305\000\002\rC\030\n\334\000/9 >\000\n\n\304\000\017\225'!\006d\236\r<\030/52\361\006\031(10\256\b\004\017\000\003\327\000(75\373\031\0240#\000\037 3\000\001\013\324\000\0251\251\000/81\325\000\003\0258\264\207\0370\005P\004\013\n\002\0339x\002\003\006\013\0300\003-\0338\016\001K8496\253]I8501q\000\005\264$*04\331\000\0274`\000\004nT\017D\002\031/10)\001\001\004\005\002\017d\001 \017@\002\004\0352'\002\017k\001\007\017\211\027\031\0321o\f\013\030\001*986\032\017\241\005\023\004\332\000\017U\000+\013\001\001\0374\001\001\r\005\031\000\017\000\001)*12\205\000)97\341\000\004\027\000\005/\000*14 \000\016\t\001\017^\0000\013\n\001\0376\n\001\020\017)\0132/12`\236\002\005\257\000'05\237\000\006\257S\013/\000\n\276\000/50\262\016O\0337\234\001\0311\357\005/97w\002\003/00}\001\002\006\356\000\0272\317\000\005\022P\017^\000,\013\035\001\0372\333\001N\0314\177\000\005\217\000\003\276\000\f\252\026\005\314\001/02\330\004\001\004\346\000\017\024\001\f\017V\000\005\013\375\000\0374\375\000(\016q\037\017\013\b\033/14\267\001\003\005\222\003\0362\351\000\017/\000\007\013\331\000\016\261\003\017>\0132*14\244\001.17s\002\017\274\000\b\0177\000\f\013\304\000\0378\304\000<\03153\021\0339=\003\0378\r\b\002\0321\321\000\004\030\000\004\331\000/5 L\000\037\n\346\000\017\005*\030-19z\013\017\201\003\033\017\371\000\021\r\361\000\0375\361\000\037\017\351\000\003\0372\206\005O\0315\351\000\005+\003\003h\016\004\230\000*98\037\000\017q\003\004/5 F\000!\013\365\000\0377\372\026\021\017(\007!\0335~\000\0370\304\000\022/10\245\000\001\r\213\000\017\244\000,\0372\244\000\f\0374\254\000\031\004/\000\n\264\000/71\264\000K\0341\361\004\017$\002\013\017/\000\004\013\264\000\0373\264\000<\0311m\000+978\001\n\253\000\001\022\006\r&\000\013\242\000\0375V\001D\017\242\000\004\0374\252\000\030\017\b\002\004\0377\262\000<\0314\262\000\004\365\003\004\214\000)09\b\000/97\301\000\t\017=\000\023\013\320\000\0379\271\007D\0336\241\002\n\202\007/99\311\000\004\0176\000\021\n\302\000/81\302\000\036\003^\017\004\2517\004Z\005.15)\017\002\203-\002_\251\t!\006\004e\000\017B\006\016\0339m\000\0339\233\b\bu\000\003\231\000.53v\020\017o\000\003\006!\000\017o\000\004\004`\000\f\346\004\np\000\0375p\0008\0316\204\002\017o\000\002\0377o\000M\0375v\000\001\0379v\000\037\017\211\000\020\003\b\000\006\020\f\003h\001.08\203\000\006\304L\017\372\000(/9 A\002\017/62h\000F\n\027\005\003p\000/71p\000.\017\0214\006\ti\000/95i\0000(2 4\002\017\376\003\002\0348E\n\017p\0000\004\023\002\006R\001\0311\356\004\013z\000\0375z\0009\013u\004/00r\000\001\0378r\000\030\017\205\000 *14*\003\017\350\001\n\017\214\000)\016 \017\005\214\000)8 \001\001\017\214\000\022\003\232\002\017\215\000$\017\021\006\006\006\215\000\005\226\001\0373}\000\001\0374}\000\037\017j\000\025\0176\035\001\0318\227c\017x\000,/9 x\002\002\n\367\007(8 J\024\017r\000\033\005\023\000O9495I\030\003\006-\000\005\230\000\017\307\023\013\0348\320\030\017\220\000!\017\025\001\007\017x\f\005\t}\000/64|\000\005\017i\000/\017\302\005\003\0373q\0008\017\236\f\n\0318\216a\017r\000,/6 \377\007\001\ti\000/66h\000F\017J\001\003\0375p\000&.20;\000\017F\032\034\013\266x\004\250\000\t\232\026\007i\000\0064\013\017\246\006\005\005\363\000\0376`\000\020*499\001\004\247\t\017\365\n\004\017@\001\002/85\260\001.\017w\000\024\017\207\004\002-85\033\001\017~\000\003\005 \000\017}\000%\0378}\000\001\017NS&/9 \354\005\004/10P%\003\0370W\002\031\016\235\034\016\361\000\006\342\000\017p\004\020/87\346\0016\017x\000\r\017\347\001\003\0377\347\0014\017~\000\000\017\350\001\020\0377\350\001&\016\200\000\0376\233\004\026/89u\0018\017w\000\n\017t\001\003\0379t\0016\016}\000\017s\001\016\0379s\001/\004\b\000\0378\337\006\020/52\203\r6\017p\000\004\016d\001\tx\000\017e\001&\017v\000\r\0378v\000\002\017^\0016\006\222\004\002\214\013\005D\037\fi\003\003\321\004\004\376\001\n\221\000/96\177\001\037\016\023\000\017\244\000=\017\263\001\003/96\263\001\035\016\022\000\017\251\000>\0378\251\000\002\017\346\001\037\016\023\000\f\254\000\006\372\017\004k\002\017&\001\001\003;S\n\261\001\016}\000\017\277\001\n\017j\000\006\017r\000\f\006x\001\016q\000\017\206\001\t\017p\000\b\0378p\000\t\007>\001\016q\000\017L\001#/99q\000\001\0379S\001G)99\017\000\016y\000\017Z\001C/99a\001\t\0379a\0018\0133\020\017s\024\001\003\026p\017a\0014\017q\000\003\016a\001\ty\000\017a\001/\016w\000\017a\001\006\006w\000\017a\001@\004\305\022/49y\000\000/19i\001G\013y\000\017q\001\003/19q\001E\r\177\000\0378\177\000\002\017y\001'\0040\000\006\002\016\0330\034\006\0369r\000\0327\305V\017w\001\030\016\023\000\017\212\000\036\016\203\001\016\222\000\017\210\001\026\016\022\000\017\217\000\037\0378\217\000\b\017\230\001\036\016\023\000\017\222\000\b\0309\t\013\n\201\000\0319\201\000\007\201\001\016\201\000\n\217\001\017\023\000\r\017\224\000\032\016\254\001\016\234\000\006\214\001\016\233\000\t\232\001\017\022\000\013\017\230\000\034\0378\230\000\016\007\224\001\016\231\000\n\242\001\017\023\000\r\017\234\000\033/20\242\023\005\005\234\000\007\234\001\016\234\000\n\252\001\016\023\000\017\211\000\035\016\305\001\016\221\000\006\223\001\016\220\000\t\241\001\016\022\000\017\216\000\036\0378\216\000\016\007\207\001\016\217\000\n\225\001\016\023\000\017\221\000\016\005\002\004/10\212\000\000\0316\212\000\007\210\001\016\212\000\n\226\001\016\023\000\017\212\000\036\016\252\001\016\222\000\006\212\001\016\221\000\t\230\001\016\022\000\017\217\000\037\0378\217\000\016\007\212\001\016\220\000\n\230\001\017\023\000\000\rG\007\003\245\022\006\352\f\003G\007\005\n\r\0366\222\000\006\364k\007\215\001\016\215\000\n\233\001\016\023\000\017\215\000&\016\266\001\t\225\000\006\221\001\016\224\000\t\237\001\016\022\000\017\222\000'\0378\222\000\t\007\223\001\016\223\000\n\241\001\017\023\000\000\rF\002)5 u\000\005\215\000\003\226\016\0369\315\013\f\004\202\006g\033\016\221\000\016\245\001\017~\000!\016\244\001\017\206\000 \r\230\001\017\205\000\036\017\013\0010\016\211\001\005\036\002*8 v\000\0337\336\003\t\220\005\n\205\000-30j\001\017\213\001\b\017\200\0001\017\222\001\003,30l\001\017\207\000\004\r\214\001\017\206\000%\0378\206\000\t\006m\001\017\216\001\026\0358\210\000\0338\354\016\013e\005.16\202\000\002\350+\005\025\002\016X6\017\225\001\000\017\207\0003\016\227\001\017\217\000 \r\235\001\017\216\000'\0378\216\000\022\017\244\001=\013X\031\005\227\000/00\243\034\005\017\254\001J\017\217\000\f\017\264\001\003\0376\264\001M\017\226\000\016\0378\226\000/\016\274\001\r\350\003)11\360\003\004j\017\0371\024\001\000\003\006h\t\205\001\017y\000\004\016\246\001\017y\000\034/10\201\000\n\005o\001\017\217\001\007\017\177\000,\0378\177\000\t\006X\001\017y\0016/50q\000\000/33q\001G/50i\001\001\017\370@\016\017i\001-\005w\000\0378w\000\002\017a\001G\0379q\000\001/25a\001G/98\312\002\001\017\231A\016\017a\001-\005w\000\017\360\000\003\017a\001'\0358y\000\017~\006\013\tz\000*58\272\004\r\320>\017o\001\000\017\177\000+\016x\001\017\207\000 \r~\001\017\206\000\037\0378\206\000\022\017\214\0015\017V\006\f\017i%\000\017\224\001B\017\207\000\f\017\234\001\002/64\234\001E\017\216\000\016\0378\216\000/\016\244\001\004\251\003\0049\000\0329~\000\n4\013-01e\001\017i\000\004\016\t>\017i\000\f\016m\001\tq\000\005G\001\017p\0007\0378p\000\t\006)\001\017q\000\026\0338q\000\005\361%\0317\350\001*98\337\017\017\223\003\004\t\230\000\005\\\000\017~\001\026\0378\235\000J\016\255\001\016\245\000\017\262\001\r\005 \000\017\243\000E\0378\243\000\b\017\345\001\024\006!\000\017\245\000\r*12\177\000)97)\001\006\226\000\003/\000/14\236\000\000\017\345\001%\016\023\000\017\260\000E\004 \000\016\270\000\017\370\001\037\016\022\000\017\265\000F\017\013\002\001\017\n\002%\016\023\000\017\270\000\036\006\b\000\004\363\005\0319\320\000\005\270\000\0370\226\007\000\t\270\000\007\004\002\016\270\000\n\022\002\017\270\000_\016-\002\r\300\000\006\r\002\016\277\000\t\033\002\017\276\000a\0378\276\000\r\006\214\000\016\277\000\013\255\000\017\300\000\021\0334\300\000\f\306\022\013\351\004*00/\000/1432\001\017/\002.\006\023\000\017\261\000D\017'\002\002/16(\002,\005\022\000\017\266\000F\0378\266\000\016\007\377\001\016\267\000\n\r\002\016\023\000\017\271\000\026\006\315/\0317\340\002\n\271\002\004{\000\r\350\001\016\232\000\n\366\001\017\3103\r\017\255\0003\016,\004\016\265\000\006\345\001\016\264\000\t\363\001\016\022\000\017\262\000B\0378\262\000\016\007\340\001\016\263\000\n\356\001\016\023\000\017\265\000\033\013\266\002.16\235\000\0310\234\000\007\317\001\016\234\000\n\360\001\017v\000\035\016\315\001\r~\000\006\232\001\016}\000\t\272\001\017|\000\037\0378|\000\r\007b\001\016}\000\n\203\001\017~\000\006+11\025\002\n.\004\t~\000\0027K\017y\001:\017\177\000\f\017\201\001\002/42\202\001<\017\205\000\016\0378\205\000\001\017\213\0016\003\214\007\0339\277\005\0318&\f)08\234\000\t\214\000/34\230\001%\006\023\000\005q\017\017\237\0002\017\270\001\002/34\270\001\035\017\245\000M\0378\245\000\001\017\330\001%\017\247\0006/10\321\017\001\017\343\001.\006\255\035\017\227\000*\016\333\001\016\237\000\017\333\001\020\017\235\000E\0378\235\000\001\017\323\001.\016\237\000\005\226\021*6 \020\026\0327u\007\0310\267\000\013\272\035/5 \317\001\030\017\200\0001\016\275\001\t\210\000\017\270\001\020\017\206\0003\0378\206\000\003\017\241\001\036\r-\002*6 \335\n\013\323\005.99y\000\002\002P\005\037\002\017\214\001\022\017~\000*\016\205\001\016\206\000\017\212\001\020\017\204\000,\0378\204\000\b\017\210\001%%20[\216#26\033\000\006W:\005\351\b\0378\3409\007\0306VB\004~}\005z\000\b`\000\004O\205\006\200\026/00h\000\036\004\217\n*41\027\017\004\207\000\013\b\036\004\b\000\004\244\207\006]\001\0351d\000\t\t\006\0306\354t\005\344k\003\274\326\0330]\000\016\300\013\017U\000\013\0379\021\327\016\004\255\b\004\3266+98\267\000\0374#\001\b\004_\000\t\003\002\t\007\000*38_\000\004H\000\r\301\020/05h\000\007&83h\000\tr\005\nl\000\005}\002\000\221\232\0325~\002\0263\033\000*60\230\247\017\243\000\005/95\034\r\003/05\300\265\001/95\330\000 \0378\330\000-/39_\001\004/11P\004\000\003w\000\003\345/\017\321\004\023/91q\000\034\0375q\000\001.4 \343\000\017q\0005\0378q\000\001,7 \023\003\017q\000\026\0348\223o\n\332\001)97\031\003\005\007\002\0364\207\000\0325\267I%12\037B\017\341\001\006\005bY\017\024\000\f?502\024\000\023\002\311\037\005\336\000\002\343\201\t\021\003\005\302Y-45K\005;516l\t\005\321\002\003\245\301\005\027\001\0315\237\001\002\b\001\005\343B\0328\037>\005Z\214\003z\006\017\t8\017\0311\310\005\017\217c\032(7 \311\006&28\335\000\004M\003\004\226\001\003\304\000+99b\002\n\222\"\f\001\002\0315j\003\004\204\000\004\027\000.16\030\002&40\030\002\n\213\001(60o\007\n1\003\017%\002\024\f\307\002)9 \266\000/08;\001\002.99\247\000\002>(\005\237\004\017\277\002\000\017\203\002\023/02\232\000\002\017\376\007\006\t\205\000\004\346\351\03536\232\016\205\000\0162\001\f\023\000\003r\000/47\3574\005\0370\267\001\b\005\037+\0372\200\000\001\017t\000\r\005\313\215\005#\001\003A\002\006\335\002\0361t\000\002\205M\017s\000\004-9 \232\001\rd\001)3 ]\000\004\331\000\006\020\000\0370|\001\007\003g%\002~\000\002\255\231\0024@\017N\005\027-23)^\r\036 *97z\b\0365\212\000\004X1\0373\326\005\025\005!\000\0370u\000\004\016\023\n\017}\002\001\0346}\002\004\216\234\017x\000\b\017\213\000\027\0379\233\003&/27\233\003'\017\207\000\006\013\177\000\013\"\002\t\200\000\003DZ\005\032\001\006\356\002\017\031\002\007\017\223\000(*15\275\002\003\032\001\005\336\032\0379:\002\007\005\\\267\0353v\000\017\253\000\004_12824\277\000!\007\311\005\0228\345;\007\362\006/9 /\b\001\017L\006\004\003\350\000\0300y\f\0374$\001\006\017\034\001\021\n\024\001/57\276\001\033\017\023\001'\016\027\r\0335\247\000\0374\363\000\000\013\353\r\0373\375\004\024\016\211\000\017 \t\037\0357\261\000\017\367\013>\005\362\257\0372\330\000\001\013\243\000\006\234\001\004\242\000\004\001\002\004\r\016*97\312\005.00s\000\f(\231\017\362\001\005\0343]\000\004\331\000\004e\000\0330%\004/11f\002\006/38\244\004\000\017\312\001(\rS\002*5 =\003\017\b\001\022\0269\b\001\017\211\000\006\006c\314\003t\000\004\205\f\007t\000\0376\277\002\002\005\327\002\017}\000\002/17x\r\037\005\023\0002130\f\000\017p\004\001\005\230\007\017\252\000 \0378\252\000\000.76\321\006\017\252\000!\016\307\002\017S\001'/17\261\000\b.80\264\f\017\262\000=\0348\262\000\004\237%*15\262\000\004\r\004\007\236\021\006\252\000\0376{\005\033\006\256\000\r\207\000\013S\006/15\341\001\004\0379L\007\001\013\225\000\0318\226\000\b,\005\017\227\000\003\b\013\n\006F\001-14\024\000\017&\007\b\0233\261G\007Oh\007:\007\017\350\000\000\017\340\000\021\013\330\000\0371n\001\033\017\327\000\002\006\224\000\003\303\000\004\327\016\004\256\004)95w\016\005\202\004(17\037\000\004\300\000)20\b\000\002\006\000\004j\013)11\254\235\000\177\000\017\255\242\b/10\255\242\020/14\255\242\020\0372\210\242\021\005\236n\017\210\242\t/32c\242\020.33c\242\016%\000\0375\322\242\020\005\272\225\017\204\242\017\003\026\312\0325\226\001\017\274\001)\0325\356\005\fL\f\0376\362\001\t\017\377\016\f)11\206\235\n\t\002\017,\004\005\005,\003\017\023\000\000\0310\007\000\006\344\021\0253]\305\007\034\r\0378\330\000\n\0329j\004\ts\003\03787\027\022\0337\016\005\016o\t-11d\000\t\317\000\0306&\210\0177\027,\rU\000\0177\027\020\003\265\002\004c\002\f\353\001\0370#\001\b\005\377\022\017\000\n\"/38\256\001\004/97\350\005\016\004w\001\0343\371\000\017}\000\004\006!\000\017}\000\r\017+\002\005\t\177\000\005\302\241\017\321\0029\004I\b\017!\026\r/10\222\000\000\003\205W\nk\000\017\211\007\007\017\302\b,\017\212\000\t\003I\244\017\212\000\033\005\023\000\017s\tS\017\271\000\004\03557\375\017\271\000n\017\367\030\002\005z\b\016B\035\017\250\000\023\017\225\000-\n+\003\013\235\000.6 [\035\017\236\000'*22\304\304/38-\257\b\0303\322\000\017,\257\004\0303\273\026\017(\256\004\0303Y\033\017O\257\004\0333\341\026\016\376\254\006$\000\0379\336\b\b\003$\000\005\314l\017O\260\001\0333Yb\017N\260\001\0333\016b\0236?L\017#\000\000\0378\001\260\b\0333\337a\016\000\260\005$\000/60\377\257\b\004$\000\0371\376\257\b\0303\036\021\017\375\257\004\004$\000\0373\204\254\b\0303`5\017\326\257\004\0303\"\342\017\325\257\004\0303\013\037\017\324\257\004\0333\005\336\017\323\257\001\0333\366\223\016\322\257\005$\000/70\321\257\b\0333\017b\017\320\257\001\0333\334\222\017\317\257\001\0333#\222\017\316\257\001\0333o[\017\250\257\001\0303}\007\002$\000/45$\000\004\0377\246\257\b\0333\031\221\017\245\257\001\0303\302\b\017\244\257\004\0303\252\t\017\243\257\004\0303l\306\017\242\257\004\0303\236\037\017\241\257\004\0333\341\216\007\240\257\017\303g\022\004\325\b\0329K\005\003\335\b\005u\033\t\360\005\004\n\b\0175\000\f\002-\000+14\272\003\r\035\006\r\031\000\017Si\031\017\300\000\r\0314\223\000\017\310\000\034\0374\320\000\b/61SiB+97\204\000\03257\r/02\311\000\003\0176\000\022\013\302\000\0373\222\001I\017\214\000\000\017\223\001\030\017>\000\025\013\322\000\0375\322\000K\0326\017\000\0360^@\016\b\000\0330\330\000\017D\000\021\013\326\000\0378\326\000\020\017|\002:\017\244\000\002\004\235\000\n\245\000\016\331\000\0175\000\002\013\322\000\0379\250\001`\016y\002\017\310\000\032\0374\320\000\b/71\f\004C\0329q\016\013\367\n/02\223\000\000\005\217 \0175\000\013\013\300\000\0373\300\000I\006\026\020\003\314\003)08\214\000\017\301\000\003\0176\000\r\013\302\000\0375\302\000<\0377\032\006\003\0372\231\026\003\0370\345\022\004/02\352\000\013\017^\0002\013\n\001\0379\n\001\020\017\177q1\r\034\001\0315\226\000\n\236\000\016\354\000\0375\304\000\b/83\220\002J\r\204\000\0374\272\000\"\0374\302\000\t\0377\302\000B\005\025\003\0321}\000)99\017\000\013\224\000\005\205#\0176\000\013\n\302\000/96\265sC\017\302\000\004\017\273\000\034\017\264\000\003\003/\000\017w\001G)20\252\003/50\225\000\t\005\274\000\0176\000\013\f\303\000\0378x\001K\013\215\000/10\274\000\032\017\265\000\005\0379\321\007B\017\265\000\007\0319\313J/02\304\000\033\016>\000\016\323\000/11K\002D\0302`\b+98U\004\0372\312\000\002/2 5\000\020\f\301\000\0372\301\000J\r\221\026\003V\001\006 \000\0372\236\000\001\004\313\000\017?\000\r\f\315\000\0374\315\000\020\017s\0023\0322o\b\005\367\005\0371\211\004\021\006\337\000\017?\000\023\013\347\000/24\375\003D\0312e\001+97\027\000\017\b\000\003\0340\324\000\017>\000\002\f\303\000\017\256\f)\017\233\0025\n\251\000+20\037\000\0372\301\000\001\016\347\000\017>\000\002\013\357\000.32\357\000\017\335\000R\0059\003\017l\n\022\r\336\000\016?\000\017\337\000\003\0374\337\000e+11(\004\0372\337\000\032\016?\000\017\337\000\002\0376W\004]/14\217\007\032\017\237\204\003\005\356\000\017N\000\024\f\366\000\017\243\003 \016?@\017\367\000\023\0334\323\f\0322\237\001\017\314\016\004\013\271\000\002\254!\017G\000\027\013\360\000\017\263\214!\017\346\001$\0375\376\005\003)03\271\007/02\346\000\002/5 >\000\031\f\345\000\0352\336\033\017\346\000\006\017\324\000\033\0338J\003\017\272\002\023\f\263\002/8 G\000\032\013\336\000/55\303\001 \r\347\034\017\360\000\013\013\274\001\004v\001\0327Y\004\013\036\006\0360\267\000\t\356\000\017E\000\031\f\364\000\0357\333\000\017\321\001+\f\341\000\0338E\004\013\022\006\017\234\003\004\0340\343\000\017G\000\033\013\345\000.66\226\037\017\354\2353\0378\237\000\003\f{\037+10\230\002\0372\356\000\004\017O\000*\f\366\000\0368\366\000\017\255\003:)11\200\002\n\003z\004\225\000\013\235\000\005\344\000\017=\000\022\013\322\000\016\206\204\017\321\000Q\016}\004\017\322\000\031\017t\004\005\017\267\204E\0373\323\000\n/50\313\000!\017M\020\013/77\303\000Z/98\303\000!\017\330\006\013/81\023\rD\017\303\000\003\004\206\000\017\274\000\024\017\265\000\005\0372\016\003L\017\263\005+\017?\000\024\f\325\000\0367\264.\017\221\006:/14\243\0052\017G\000\034\f\346\000\0379\346\000=\0323\374\007/11\316\000\n\r\372\013\n\345\000/9 F\000\022\013\325\000\0359\273\000\017\324\000\006\016\265\227\017\347\000\023\013&\006\0321\347\t)97\234\001*98\320\013\017\310\002\033\005\230\001\017]\0002\n+\001\016.X\017+\001\007\017\030\0010*12\225\000)97\234\000\006\254\000\003/\000*14 \000/02\314\000\001\f!\001\017f\000,\f\"\001\0375\"\001\020\017\244\0052*12\355\002)19\230\000\f\b\000\003\250\000\004$#\0167\000\017\317\000\002/31\317\000M\f\003\002\0324n\001\f\r\f\013\257\002/00\235\001\n\017\005\001\005/4 f\0009\f4\001\0379\003\002N\0335\210\000\n\307\000\017QQ\007\0372H\021\030\017%\001\005\017^\000\r\013\016\001/45\016\001(\017b\021\007/49W\006\021/14\321\001\003)16\263\000\013\273\000\006\372\000\0177\000\013\n\352\000\0320\3448\017\356\000\016\017\334\b\032*14l\001/17\242\002\004\0372\321\000\004\017?\000\032\f)\013/0 \325\000\034/49\206\016\021\003\243\031\0339}\003\0318\251\006+08\253\000\0332\b\000\0318\352\000\003\017-\017T\000\"\n\367\000\0373\321\001\035\0361\035\t\017\017\001\023\0375\017\001\030\017\007\001\006\0375\007\001\037\017\377\000\n\005E)\017[\022//49\320\006\022\0375u\003\003/02\246\000\001\004\342\000\016/\000\017\315\000\001\0375\314\001\035\017f\004\033\017\272\000\005\0314\223\000\017\302\000\026\0374\312\000\t\0374\312\000Q\005\343\005\03740\005\022/5 7\000\022\013\312\000\0378\312\000B\0312{\000+97\\\001\0372\222\000\001\004\2545\017.\000\004\n\270\000/60\202\001J\017\270\000\004\0374\300\000\"\0374\310\000\t\0372\310\000B\0315\310\000\004\013\020\004\232\000)09\b\000)97\241\000\017\327\000\004\017E\000\033\013\346\000\0374\346\000B\0324\346\000/14X\007\002)99\232\000\013\242\000\005\337\000\017>\000\023\013\330\000\0376\330\000#\0372\246\005\002\360\r\t}\n.section\t.debug_loc\t{\t}\n\000\000\000\000\000\000"
	.size	.L__unnamed_4, 73600

	.type	__cuda_fatbin_wrapper,@object   # @__cuda_fatbin_wrapper
	.section	.nvFatBinSegment,"aw",@progbits
	.p2align	3, 0x0
__cuda_fatbin_wrapper:
	.long	1180844977                      # 0x466243b1
	.long	1                               # 0x1
	.quad	.L__unnamed_4
	.quad	0
	.size	__cuda_fatbin_wrapper, 24

	.type	__cuda_gpubin_handle,@object    # @__cuda_gpubin_handle
	.local	__cuda_gpubin_handle
	.comm	__cuda_gpubin_handle,8,8
	.section	.init_array,"aw",@init_array
	.p2align	3, 0x0
	.quad	__cuda_module_ctor
	.file	8 "/nethome/cahn45" "llvm-vortex-with-cuda-build/lib/clang/18/include/__clang_cuda_math_forward_declares.h"
	.file	9 "/usr/include" "stdlib.h"
	.file	10 "/usr/lib/gcc/x86_64-linux-gnu/13/../../../../include/c++/13/bits" "std_abs.h"
	.file	11 "/usr/include/x86_64-linux-gnu/bits" "mathcalls.h"
	.file	12 "/usr/lib/gcc/x86_64-linux-gnu/13/../../../../include/c++/13" "cmath"
	.file	13 "/usr/include" "math.h"
	.file	14 "/usr/lib/gcc/x86_64-linux-gnu/13/../../../../include/c++/13" "cstdlib"
	.file	15 "/nethome/cahn45" "llvm-vortex-with-cuda-build/lib/clang/18/include/__stddef_size_t.h"
	.file	16 "/usr/lib/gcc/x86_64-linux-gnu/13/../../../../include/c++/13" "stdlib.h"
	.file	17 "/nethome/cahn45" "llvm-vortex-with-cuda-build/lib/clang/18/include/__clang_cuda_math.h"
	.file	18 "/nethome/cahn45" "llvm-vortex-with-cuda-build/lib/clang/18/include/__clang_cuda_cmath.h"
	.file	19 "/usr/include/x86_64-linux-gnu/bits" "types.h"
	.file	20 "/usr/include/x86_64-linux-gnu/bits/types" "struct_timeval.h"
	.section	".note.GNU-stack","",@progbits
	.addrsig
	.addrsig_sym _Z27__device_stub__lud_diagonalPfii
	.addrsig_sym __cudaPopCallConfiguration
	.addrsig_sym cudaLaunchKernel
