	.text
	.file	"euler3d_no_memcpytosymbol.cu"
                                        # Start of file scope inline assembly
	.globl	_ZSt21ios_base_library_initv

                                        # End of file scope inline assembly
	.file	0 "/nethome/cahn45/CuPBoP/examples/cfd" "euler3d_no_memcpytosymbol.cu" md5 0x72169f3a9f3ee6e23e528ff069b56428
	.file	1 "." "euler3d_no_memcpytosymbol.cu"
	.file	2 "/nethome/cahn45/CuPBoP" "cuda-12.1/include/nv/target"
	.file	3 "/nethome/cahn45/CuPBoP" "cuda-12.1/include/driver_types.h"
	.file	4 "/usr/lib/gcc/x86_64-linux-gnu/13/../../../../include/c++/13/bits" "ios_base.h"
	.file	5 "/usr/lib/gcc/x86_64-linux-gnu/13/../../../../include/x86_64-linux-gnu/c++/13/bits" "c++config.h"
	.file	6 "/usr/lib/gcc/x86_64-linux-gnu/13/../../../../include/c++/13/bits" "postypes.h"
	.file	7 "/nethome/cahn45/CuPBoP" "cuda-12.1/include/vector_types.h"
	.globl	_Z4dumpPfii                     # -- Begin function _Z4dumpPfii
	.p2align	4, 0x90
	.type	_Z4dumpPfii,@function
_Z4dumpPfii:                            # @_Z4dumpPfii
.Lfunc_begin0:
	.loc	1 102 0                         # ./euler3d_no_memcpytosymbol.cu:102:0
	.cfi_startproc
	.cfi_personality 155, DW.ref.__gxx_personality_v0
	.cfi_lsda 27, .Lexception0
# %bb.0:                                # %entry
	#DEBUG_VALUE: dump:variables <- $rdi
	#DEBUG_VALUE: dump:nel <- $esi
	#DEBUG_VALUE: dump:nelr <- $edx
	pushq	%rbp
	.cfi_def_cfa_offset 16
	pushq	%r15
	.cfi_def_cfa_offset 24
	pushq	%r14
	.cfi_def_cfa_offset 32
	pushq	%r13
	.cfi_def_cfa_offset 40
	pushq	%r12
	.cfi_def_cfa_offset 48
	pushq	%rbx
	.cfi_def_cfa_offset 56
	subq	$568, %rsp                      # imm = 0x238
	.cfi_def_cfa_offset 624
	.cfi_offset %rbx, -56
	.cfi_offset %r12, -48
	.cfi_offset %r13, -40
	.cfi_offset %r14, -32
	.cfi_offset %r15, -24
	.cfi_offset %rbp, -16
	movl	%edx, %ebp
	movl	%esi, %ebx
	movq	%rdi, %r15
.Ltmp96:
	.loc	1 103 39 prologue_end           # ./euler3d_no_memcpytosymbol.cu:103:39
	leal	(%rbp,%rbp,4), %eax
	#DEBUG_VALUE: download<float>:N <- $eax
	.loc	1 103 24 is_stmt 0              # ./euler3d_no_memcpytosymbol.cu:103:24
	movslq	%eax, %r12
	shlq	$2, %r12
	testl	%edx, %edx
	movq	$-1, %rdi
.Ltmp97:
	#DEBUG_VALUE: dump:variables <- $r15
	cmovnsq	%r12, %rdi
	callq	_Znam@PLT
.Ltmp98:
	#DEBUG_VALUE: dump:nelr <- $ebp
	#DEBUG_VALUE: dump:nel <- $ebx
	movq	%rax, %r14
.Ltmp99:
	#DEBUG_VALUE: dump:h_variables <- $r14
	#DEBUG_VALUE: download<float>:dst <- $r14
	#DEBUG_VALUE: download<float>:src <- $r15
	.loc	1 99 3 is_stmt 1                # ./euler3d_no_memcpytosymbol.cu:99:3
	movq	%rax, %rdi
	movq	%r15, %rsi
	movq	%r12, %rdx
	movl	$2, %ecx
	callq	cudaMemcpy@PLT
.Ltmp100:
	.loc	1 107 19                        # ./euler3d_no_memcpytosymbol.cu:107:19
	leaq	.L.str(%rip), %rsi
	leaq	56(%rsp), %r15
.Ltmp101:
	#DEBUG_VALUE: dump:variables <- [DW_OP_LLVM_entry_value 1] $rdi
	movq	%r15, %rdi
	movl	$16, %edx
	callq	_ZNSt14basic_ofstreamIcSt11char_traitsIcEEC1EPKcSt13_Ios_Openmode@PLT
.Ltmp102:
.Ltmp0:
	.loc	1 108 10                        # ./euler3d_no_memcpytosymbol.cu:108:10
	movq	%r15, %rdi
	movl	%ebx, 4(%rsp)                   # 4-byte Spill
.Ltmp103:
	#DEBUG_VALUE: dump:nel <- [DW_OP_plus_uconst 4] [$rsp+0]
	movl	%ebx, %esi
	callq	_ZNSolsEi@PLT
.Ltmp104:
.Ltmp1:
# %bb.1:                                # %invoke.cont
	#DEBUG_VALUE: dump:variables <- [DW_OP_LLVM_entry_value 1] $rdi
	#DEBUG_VALUE: dump:nel <- [DW_OP_plus_uconst 4] [$rsp+0]
	#DEBUG_VALUE: dump:nelr <- $ebp
	#DEBUG_VALUE: dump:h_variables <- $r14
.Ltmp2:
	.loc	1 108 0 is_stmt 0               # ./euler3d_no_memcpytosymbol.cu:108:0
	movq	%rax, %r15
.Ltmp105:
	#DEBUG_VALUE: operator<<<std::char_traits<char> >:__out <- $r15
	.file	8 "/usr/lib/gcc/x86_64-linux-gnu/13/../../../../include/c++/13" "ostream"
	.loc	8 667 2 is_stmt 1               # /usr/lib/gcc/x86_64-linux-gnu/13/../../../../include/c++/13/ostream:667:2
	leaq	.L.str.1(%rip), %rsi
.Ltmp106:
	#DEBUG_VALUE: operator<<<std::char_traits<char> >:__s <- $rsi
	movl	$1, %edx
	movq	%rax, %rdi
	callq	_ZSt16__ostream_insertIcSt11char_traitsIcEERSt13basic_ostreamIT_T0_ES6_PKS3_l@PLT
.Ltmp107:
.Ltmp3:
# %bb.2:                                # %invoke.cont3
	#DEBUG_VALUE: dump:variables <- [DW_OP_LLVM_entry_value 1] $rdi
	#DEBUG_VALUE: dump:nel <- [DW_OP_plus_uconst 4] [$rsp+0]
	#DEBUG_VALUE: dump:nelr <- $ebp
	#DEBUG_VALUE: dump:h_variables <- $r14
.Ltmp4:
	.loc	1 108 24                        # ./euler3d_no_memcpytosymbol.cu:108:24
	movq	%r15, %rdi
	movl	%ebp, %esi
	callq	_ZNSolsEi@PLT
.Ltmp108:
.Ltmp5:
# %bb.3:                                # %invoke.cont5
	#DEBUG_VALUE: dump:variables <- [DW_OP_LLVM_entry_value 1] $rdi
	#DEBUG_VALUE: dump:nel <- [DW_OP_plus_uconst 4] [$rsp+0]
	#DEBUG_VALUE: dump:nelr <- $ebp
	#DEBUG_VALUE: dump:h_variables <- $r14
	.loc	1 108 0 is_stmt 0               # ./euler3d_no_memcpytosymbol.cu:108:0
	movq	%rax, %r15
.Ltmp109:
	#DEBUG_VALUE: operator<<:this <- $r15
	#DEBUG_VALUE: operator<<:__pf <- undef
	#DEBUG_VALUE: endl<char, std::char_traits<char> >:__os <- $r15
	.loc	8 736 29 is_stmt 1              # /usr/lib/gcc/x86_64-linux-gnu/13/../../../../include/c++/13/ostream:736:29
	movq	(%rax), %rax
	movq	-24(%rax), %rax
.Ltmp110:
	#DEBUG_VALUE: widen:__c <- 10
	#DEBUG_VALUE: widen:this <- [DW_OP_LLVM_arg 0, DW_OP_LLVM_arg 1, DW_OP_plus, DW_OP_stack_value] $r15, $rax
	.file	9 "/usr/lib/gcc/x86_64-linux-gnu/13/../../../../include/c++/13/bits" "basic_ios.h"
	.loc	9 450 30                        # /usr/lib/gcc/x86_64-linux-gnu/13/../../../../include/c++/13/bits/basic_ios.h:450:30
	movq	240(%r15,%rax), %r12
.Ltmp111:
	#DEBUG_VALUE: __check_facet<std::ctype<char> >:__f <- $r12
	.loc	9 49 12                         # /usr/lib/gcc/x86_64-linux-gnu/13/../../../../include/c++/13/bits/basic_ios.h:49:12
	testq	%r12, %r12
.Ltmp112:
	.loc	9 49 11 is_stmt 0               # /usr/lib/gcc/x86_64-linux-gnu/13/../../../../include/c++/13/bits/basic_ios.h:49:11
	je	.LBB0_4
.Ltmp113:
# %bb.6:                                # %_ZSt13__check_facetISt5ctypeIcEERKT_PS3_.exit.i.i
	#DEBUG_VALUE: dump:variables <- [DW_OP_LLVM_entry_value 1] $rdi
	#DEBUG_VALUE: dump:nel <- [DW_OP_plus_uconst 4] [$rsp+0]
	#DEBUG_VALUE: dump:nelr <- $ebp
	#DEBUG_VALUE: dump:h_variables <- $r14
	#DEBUG_VALUE: operator<<:this <- $r15
	#DEBUG_VALUE: endl<char, std::char_traits<char> >:__os <- $r15
	#DEBUG_VALUE: widen:__c <- 10
	#DEBUG_VALUE: widen:this <- [DW_OP_LLVM_arg 0, DW_OP_LLVM_arg 1, DW_OP_plus, DW_OP_stack_value] $r15, $rax
	#DEBUG_VALUE: widen:this <- $r12
	#DEBUG_VALUE: widen:__c <- 10
	.file	10 "/usr/lib/gcc/x86_64-linux-gnu/13/../../../../include/c++/13/bits" "locale_facets.h"
	.loc	10 882 6 is_stmt 1              # /usr/lib/gcc/x86_64-linux-gnu/13/../../../../include/c++/13/bits/locale_facets.h:882:6
	cmpb	$0, 56(%r12)
.Ltmp114:
	.loc	10 882 6 is_stmt 0              # /usr/lib/gcc/x86_64-linux-gnu/13/../../../../include/c++/13/bits/locale_facets.h:882:6
	je	.LBB0_8
.Ltmp115:
# %bb.7:                                # %if.then.i2.i.i
	#DEBUG_VALUE: dump:variables <- [DW_OP_LLVM_entry_value 1] $rdi
	#DEBUG_VALUE: dump:nel <- [DW_OP_plus_uconst 4] [$rsp+0]
	#DEBUG_VALUE: dump:nelr <- $ebp
	#DEBUG_VALUE: dump:h_variables <- $r14
	#DEBUG_VALUE: operator<<:this <- $r15
	#DEBUG_VALUE: endl<char, std::char_traits<char> >:__os <- $r15
	#DEBUG_VALUE: widen:__c <- 10
	#DEBUG_VALUE: widen:this <- [DW_OP_LLVM_arg 0, DW_OP_LLVM_arg 1, DW_OP_plus, DW_OP_stack_value] $r15, $rax
	#DEBUG_VALUE: widen:this <- $r12
	#DEBUG_VALUE: widen:__c <- 10
	.loc	10 883 11 is_stmt 1             # /usr/lib/gcc/x86_64-linux-gnu/13/../../../../include/c++/13/bits/locale_facets.h:883:11
	movzbl	67(%r12), %eax
.Ltmp116:
	.loc	10 0 11 is_stmt 0               # /usr/lib/gcc/x86_64-linux-gnu/13/../../../../include/c++/13/bits/locale_facets.h:0:11
	jmp	.LBB0_10
.Ltmp117:
.LBB0_8:                                # %if.end.i.i.i
	#DEBUG_VALUE: dump:variables <- [DW_OP_LLVM_entry_value 1] $rdi
	#DEBUG_VALUE: dump:nel <- [DW_OP_plus_uconst 4] [$rsp+0]
	#DEBUG_VALUE: dump:nelr <- $ebp
	#DEBUG_VALUE: dump:h_variables <- $r14
	#DEBUG_VALUE: operator<<:this <- $r15
	#DEBUG_VALUE: endl<char, std::char_traits<char> >:__os <- $r15
	#DEBUG_VALUE: widen:__c <- 10
	#DEBUG_VALUE: widen:this <- [DW_OP_LLVM_arg 0, DW_OP_LLVM_arg 1, DW_OP_plus, DW_OP_stack_value] $r15, $rax
	#DEBUG_VALUE: widen:this <- $r12
	#DEBUG_VALUE: widen:__c <- 10
.Ltmp6:
	.loc	10 884 8 is_stmt 1              # /usr/lib/gcc/x86_64-linux-gnu/13/../../../../include/c++/13/bits/locale_facets.h:884:8
	movq	%r12, %rdi
	callq	_ZNKSt5ctypeIcE13_M_widen_initEv@PLT
.Ltmp118:
.Ltmp7:
# %bb.9:                                # %.noexc79
	#DEBUG_VALUE: dump:variables <- [DW_OP_LLVM_entry_value 1] $rdi
	#DEBUG_VALUE: dump:nel <- [DW_OP_plus_uconst 4] [$rsp+0]
	#DEBUG_VALUE: dump:nelr <- $ebp
	#DEBUG_VALUE: dump:h_variables <- $r14
	#DEBUG_VALUE: operator<<:this <- $r15
	#DEBUG_VALUE: endl<char, std::char_traits<char> >:__os <- $r15
	#DEBUG_VALUE: widen:__c <- 10
	#DEBUG_VALUE: widen:this <- $r12
	#DEBUG_VALUE: widen:__c <- 10
	.loc	10 885 15                       # /usr/lib/gcc/x86_64-linux-gnu/13/../../../../include/c++/13/bits/locale_facets.h:885:15
	movq	(%r12), %rax
.Ltmp8:
	movq	%r12, %rdi
	movl	$10, %esi
	callq	*48(%rax)
.Ltmp119:
.Ltmp9:
.LBB0_10:                               # %_ZNKSt9basic_iosIcSt11char_traitsIcEE5widenEc.exit.i
	#DEBUG_VALUE: dump:variables <- [DW_OP_LLVM_entry_value 1] $rdi
	#DEBUG_VALUE: dump:nel <- [DW_OP_plus_uconst 4] [$rsp+0]
	#DEBUG_VALUE: dump:nelr <- $ebp
	#DEBUG_VALUE: dump:h_variables <- $r14
	#DEBUG_VALUE: operator<<:this <- $r15
	#DEBUG_VALUE: endl<char, std::char_traits<char> >:__os <- $r15
.Ltmp10:
	.loc	8 736 25                        # /usr/lib/gcc/x86_64-linux-gnu/13/../../../../include/c++/13/ostream:736:25
	movsbl	%al, %esi
	movq	%r15, %rdi
	callq	_ZNSo3putEc@PLT
.Ltmp120:
.Ltmp11:
# %bb.11:                               # %call1.i.noexc
	#DEBUG_VALUE: dump:variables <- [DW_OP_LLVM_entry_value 1] $rdi
	#DEBUG_VALUE: dump:nel <- [DW_OP_plus_uconst 4] [$rsp+0]
	#DEBUG_VALUE: dump:nelr <- $ebp
	#DEBUG_VALUE: dump:h_variables <- $r14
	#DEBUG_VALUE: operator<<:this <- $r15
	#DEBUG_VALUE: endl<char, std::char_traits<char> >:__os <- $r15
.Ltmp12:
	#DEBUG_VALUE: flush<char, std::char_traits<char> >:__os <- $rax
	.loc	8 758 19                        # /usr/lib/gcc/x86_64-linux-gnu/13/../../../../include/c++/13/ostream:758:19
	movq	%rax, %rdi
	callq	_ZNSo5flushEv@PLT
.Ltmp121:
.Ltmp13:
# %bb.12:                               # %for.cond.preheader
	#DEBUG_VALUE: dump:variables <- [DW_OP_LLVM_entry_value 1] $rdi
	#DEBUG_VALUE: dump:nel <- [DW_OP_plus_uconst 4] [$rsp+0]
	#DEBUG_VALUE: dump:nelr <- $ebp
	#DEBUG_VALUE: dump:h_variables <- $r14
	#DEBUG_VALUE: i <- 0
	.loc	8 0 19 is_stmt 0                # /usr/lib/gcc/x86_64-linux-gnu/13/../../../../include/c++/13/ostream:0:19
	movl	4(%rsp), %eax                   # 4-byte Reload
	movl	%eax, %ecx
	movq	%rcx, 16(%rsp)                  # 8-byte Spill
.Ltmp122:
	.loc	1 109 23 is_stmt 1              # ./euler3d_no_memcpytosymbol.cu:109:23
	testl	%eax, %eax
.Ltmp123:
	.loc	1 109 5 is_stmt 0               # ./euler3d_no_memcpytosymbol.cu:109:5
	jle	.LBB0_25
.Ltmp124:
# %bb.13:                               # %for.body.preheader
	#DEBUG_VALUE: dump:variables <- [DW_OP_LLVM_entry_value 1] $rdi
	#DEBUG_VALUE: dump:nel <- [DW_OP_plus_uconst 4] [$rsp+0]
	#DEBUG_VALUE: dump:nelr <- $ebp
	#DEBUG_VALUE: dump:h_variables <- $r14
	#DEBUG_VALUE: i <- 0
	.loc	1 0 5                           # ./euler3d_no_memcpytosymbol.cu:0:5
	xorl	%ebx, %ebx
	leaq	56(%rsp), %r15
.Ltmp125:
	.p2align	4, 0x90
.LBB0_14:                               # %for.body
                                        # =>This Inner Loop Header: Depth=1
	#DEBUG_VALUE: dump:variables <- [DW_OP_LLVM_entry_value 1] $rdi
	#DEBUG_VALUE: dump:nel <- [DW_OP_plus_uconst 4] [$rsp+0]
	#DEBUG_VALUE: dump:nelr <- $ebp
	#DEBUG_VALUE: dump:h_variables <- $r14
	#DEBUG_VALUE: i <- $rbx
	.loc	1 110 15 is_stmt 1              # ./euler3d_no_memcpytosymbol.cu:110:15
	movss	(%r14,%rbx,4), %xmm0            # xmm0 = mem[0],zero,zero,zero
.Ltmp126:
	#DEBUG_VALUE: operator<<:__f <- $xmm0
	#DEBUG_VALUE: operator<<:this <- [DW_OP_plus_uconst 56, DW_OP_stack_value] $rsp
	.loc	8 230 39                        # /usr/lib/gcc/x86_64-linux-gnu/13/../../../../include/c++/13/ostream:230:39
	cvtss2sd	%xmm0, %xmm0
.Ltmp127:
.Ltmp14:
	.loc	8 230 9 is_stmt 0               # /usr/lib/gcc/x86_64-linux-gnu/13/../../../../include/c++/13/ostream:230:9
	movq	%r15, %rdi
	callq	_ZNSo9_M_insertIdEERSoT_@PLT
.Ltmp128:
.Ltmp15:
# %bb.15:                               # %invoke.cont11
                                        #   in Loop: Header=BB0_14 Depth=1
	#DEBUG_VALUE: dump:variables <- [DW_OP_LLVM_entry_value 1] $rdi
	#DEBUG_VALUE: dump:nel <- [DW_OP_plus_uconst 4] [$rsp+0]
	#DEBUG_VALUE: dump:nelr <- $ebp
	#DEBUG_VALUE: dump:h_variables <- $r14
	#DEBUG_VALUE: i <- $rbx
	.loc	1 110 0 is_stmt 1               # ./euler3d_no_memcpytosymbol.cu:110:0
	movq	%rax, %r12
.Ltmp129:
	#DEBUG_VALUE: operator<<:this <- $r12
	#DEBUG_VALUE: operator<<:__pf <- undef
	#DEBUG_VALUE: endl<char, std::char_traits<char> >:__os <- $r12
	.loc	8 736 29                        # /usr/lib/gcc/x86_64-linux-gnu/13/../../../../include/c++/13/ostream:736:29
	movq	(%rax), %rax
	movq	-24(%rax), %rax
.Ltmp130:
	#DEBUG_VALUE: widen:__c <- 10
	#DEBUG_VALUE: widen:this <- [DW_OP_LLVM_arg 0, DW_OP_LLVM_arg 1, DW_OP_plus, DW_OP_stack_value] $r12, $rax
	.loc	9 450 30                        # /usr/lib/gcc/x86_64-linux-gnu/13/../../../../include/c++/13/bits/basic_ios.h:450:30
	movq	240(%r12,%rax), %r13
.Ltmp131:
	#DEBUG_VALUE: __check_facet<std::ctype<char> >:__f <- $r13
	.loc	9 49 12                         # /usr/lib/gcc/x86_64-linux-gnu/13/../../../../include/c++/13/bits/basic_ios.h:49:12
	testq	%r13, %r13
.Ltmp132:
	.loc	9 49 11 is_stmt 0               # /usr/lib/gcc/x86_64-linux-gnu/13/../../../../include/c++/13/bits/basic_ios.h:49:11
	je	.LBB0_16
.Ltmp133:
# %bb.18:                               # %_ZSt13__check_facetISt5ctypeIcEERKT_PS3_.exit.i.i89
                                        #   in Loop: Header=BB0_14 Depth=1
	#DEBUG_VALUE: dump:variables <- [DW_OP_LLVM_entry_value 1] $rdi
	#DEBUG_VALUE: dump:nel <- [DW_OP_plus_uconst 4] [$rsp+0]
	#DEBUG_VALUE: dump:nelr <- $ebp
	#DEBUG_VALUE: dump:h_variables <- $r14
	#DEBUG_VALUE: i <- $rbx
	#DEBUG_VALUE: operator<<:this <- $r12
	#DEBUG_VALUE: endl<char, std::char_traits<char> >:__os <- $r12
	#DEBUG_VALUE: widen:__c <- 10
	#DEBUG_VALUE: widen:this <- [DW_OP_LLVM_arg 0, DW_OP_LLVM_arg 1, DW_OP_plus, DW_OP_stack_value] $r12, $rax
	#DEBUG_VALUE: widen:this <- $r13
	#DEBUG_VALUE: widen:__c <- 10
	.loc	10 882 6 is_stmt 1              # /usr/lib/gcc/x86_64-linux-gnu/13/../../../../include/c++/13/bits/locale_facets.h:882:6
	cmpb	$0, 56(%r13)
.Ltmp134:
	.loc	10 882 6 is_stmt 0              # /usr/lib/gcc/x86_64-linux-gnu/13/../../../../include/c++/13/bits/locale_facets.h:882:6
	je	.LBB0_20
.Ltmp135:
# %bb.19:                               # %if.then.i2.i.i92
                                        #   in Loop: Header=BB0_14 Depth=1
	#DEBUG_VALUE: dump:variables <- [DW_OP_LLVM_entry_value 1] $rdi
	#DEBUG_VALUE: dump:nel <- [DW_OP_plus_uconst 4] [$rsp+0]
	#DEBUG_VALUE: dump:nelr <- $ebp
	#DEBUG_VALUE: dump:h_variables <- $r14
	#DEBUG_VALUE: i <- $rbx
	#DEBUG_VALUE: operator<<:this <- $r12
	#DEBUG_VALUE: endl<char, std::char_traits<char> >:__os <- $r12
	#DEBUG_VALUE: widen:__c <- 10
	#DEBUG_VALUE: widen:this <- [DW_OP_LLVM_arg 0, DW_OP_LLVM_arg 1, DW_OP_plus, DW_OP_stack_value] $r12, $rax
	#DEBUG_VALUE: widen:this <- $r13
	#DEBUG_VALUE: widen:__c <- 10
	.loc	10 883 11 is_stmt 1             # /usr/lib/gcc/x86_64-linux-gnu/13/../../../../include/c++/13/bits/locale_facets.h:883:11
	movzbl	67(%r13), %eax
.Ltmp136:
	.loc	10 0 11 is_stmt 0               # /usr/lib/gcc/x86_64-linux-gnu/13/../../../../include/c++/13/bits/locale_facets.h:0:11
	jmp	.LBB0_22
.Ltmp137:
	.p2align	4, 0x90
.LBB0_20:                               # %if.end.i.i.i97
                                        #   in Loop: Header=BB0_14 Depth=1
	#DEBUG_VALUE: dump:variables <- [DW_OP_LLVM_entry_value 1] $rdi
	#DEBUG_VALUE: dump:nel <- [DW_OP_plus_uconst 4] [$rsp+0]
	#DEBUG_VALUE: dump:nelr <- $ebp
	#DEBUG_VALUE: dump:h_variables <- $r14
	#DEBUG_VALUE: i <- $rbx
	#DEBUG_VALUE: operator<<:this <- $r12
	#DEBUG_VALUE: endl<char, std::char_traits<char> >:__os <- $r12
	#DEBUG_VALUE: widen:__c <- 10
	#DEBUG_VALUE: widen:this <- [DW_OP_LLVM_arg 0, DW_OP_LLVM_arg 1, DW_OP_plus, DW_OP_stack_value] $r12, $rax
	#DEBUG_VALUE: widen:this <- $r13
	#DEBUG_VALUE: widen:__c <- 10
.Ltmp16:
	.loc	10 884 8 is_stmt 1              # /usr/lib/gcc/x86_64-linux-gnu/13/../../../../include/c++/13/bits/locale_facets.h:884:8
	movq	%r13, %rdi
	callq	_ZNKSt5ctypeIcE13_M_widen_initEv@PLT
.Ltmp138:
.Ltmp17:
# %bb.21:                               # %.noexc102
                                        #   in Loop: Header=BB0_14 Depth=1
	#DEBUG_VALUE: dump:variables <- [DW_OP_LLVM_entry_value 1] $rdi
	#DEBUG_VALUE: dump:nel <- [DW_OP_plus_uconst 4] [$rsp+0]
	#DEBUG_VALUE: dump:nelr <- $ebp
	#DEBUG_VALUE: dump:h_variables <- $r14
	#DEBUG_VALUE: i <- $rbx
	#DEBUG_VALUE: operator<<:this <- $r12
	#DEBUG_VALUE: endl<char, std::char_traits<char> >:__os <- $r12
	#DEBUG_VALUE: widen:__c <- 10
	#DEBUG_VALUE: widen:this <- $r13
	#DEBUG_VALUE: widen:__c <- 10
	.loc	10 885 15                       # /usr/lib/gcc/x86_64-linux-gnu/13/../../../../include/c++/13/bits/locale_facets.h:885:15
	movq	(%r13), %rax
.Ltmp18:
	movq	%r13, %rdi
	movl	$10, %esi
	callq	*48(%rax)
.Ltmp139:
.Ltmp19:
.LBB0_22:                               # %_ZNKSt9basic_iosIcSt11char_traitsIcEE5widenEc.exit.i94
                                        #   in Loop: Header=BB0_14 Depth=1
	#DEBUG_VALUE: dump:variables <- [DW_OP_LLVM_entry_value 1] $rdi
	#DEBUG_VALUE: dump:nel <- [DW_OP_plus_uconst 4] [$rsp+0]
	#DEBUG_VALUE: dump:nelr <- $ebp
	#DEBUG_VALUE: dump:h_variables <- $r14
	#DEBUG_VALUE: i <- $rbx
	#DEBUG_VALUE: operator<<:this <- $r12
	#DEBUG_VALUE: endl<char, std::char_traits<char> >:__os <- $r12
.Ltmp20:
	.loc	8 736 25                        # /usr/lib/gcc/x86_64-linux-gnu/13/../../../../include/c++/13/ostream:736:25
	movsbl	%al, %esi
	movq	%r12, %rdi
	callq	_ZNSo3putEc@PLT
.Ltmp140:
.Ltmp21:
# %bb.23:                               # %call1.i.noexc105
                                        #   in Loop: Header=BB0_14 Depth=1
	#DEBUG_VALUE: dump:variables <- [DW_OP_LLVM_entry_value 1] $rdi
	#DEBUG_VALUE: dump:nel <- [DW_OP_plus_uconst 4] [$rsp+0]
	#DEBUG_VALUE: dump:nelr <- $ebp
	#DEBUG_VALUE: dump:h_variables <- $r14
	#DEBUG_VALUE: i <- $rbx
	#DEBUG_VALUE: operator<<:this <- $r12
	#DEBUG_VALUE: endl<char, std::char_traits<char> >:__os <- $r12
.Ltmp22:
	#DEBUG_VALUE: flush<char, std::char_traits<char> >:__os <- $rax
	.loc	8 758 19                        # /usr/lib/gcc/x86_64-linux-gnu/13/../../../../include/c++/13/ostream:758:19
	movq	%rax, %rdi
	callq	_ZNSo5flushEv@PLT
.Ltmp141:
.Ltmp23:
# %bb.24:                               # %for.inc
                                        #   in Loop: Header=BB0_14 Depth=1
	#DEBUG_VALUE: dump:variables <- [DW_OP_LLVM_entry_value 1] $rdi
	#DEBUG_VALUE: dump:nel <- [DW_OP_plus_uconst 4] [$rsp+0]
	#DEBUG_VALUE: dump:nelr <- $ebp
	#DEBUG_VALUE: dump:h_variables <- $r14
	#DEBUG_VALUE: i <- $rbx
	.loc	1 109 31                        # ./euler3d_no_memcpytosymbol.cu:109:31
	incq	%rbx
.Ltmp142:
	#DEBUG_VALUE: i <- $rbx
	.loc	1 109 23 is_stmt 0              # ./euler3d_no_memcpytosymbol.cu:109:23
	cmpq	%rbx, 16(%rsp)                  # 8-byte Folded Reload
.Ltmp143:
	.loc	1 109 5                         # ./euler3d_no_memcpytosymbol.cu:109:5
	jne	.LBB0_14
.Ltmp144:
.LBB0_25:                               # %for.cond.cleanup
	#DEBUG_VALUE: dump:variables <- [DW_OP_LLVM_entry_value 1] $rdi
	#DEBUG_VALUE: dump:nel <- [DW_OP_plus_uconst 4] [$rsp+0]
	#DEBUG_VALUE: dump:nelr <- $ebp
	#DEBUG_VALUE: dump:h_variables <- $r14
	#DEBUG_VALUE: ~basic_ofstream:this <- [DW_OP_plus_uconst 56, DW_OP_stack_value] $rsp
	#DEBUG_VALUE: ~basic_ofstream:this <- [DW_OP_plus_uconst 56, DW_OP_stack_value] $rsp
	.file	11 "/usr/lib/gcc/x86_64-linux-gnu/13/../../../../include/c++/13" "fstream"
	.loc	11 870 7 is_stmt 1              # /usr/lib/gcc/x86_64-linux-gnu/13/../../../../include/c++/13/fstream:870:7
	movq	_ZTTSt14basic_ofstreamIcSt11char_traitsIcEE@GOTPCREL(%rip), %rax
.Ltmp145:
	#DEBUG_VALUE: ~basic_ofstream:vtt <- $rax
	movq	(%rax), %rcx
	movq	24(%rax), %rdx
	movq	%rcx, 56(%rsp)
	movq	%rcx, 40(%rsp)                  # 8-byte Spill
	movq	-24(%rcx), %rax
.Ltmp146:
	.loc	11 0 7 is_stmt 0                # /usr/lib/gcc/x86_64-linux-gnu/13/../../../../include/c++/13/fstream:0:7
	movq	%rdx, 32(%rsp)                  # 8-byte Spill
	.loc	11 870 7                        # /usr/lib/gcc/x86_64-linux-gnu/13/../../../../include/c++/13/fstream:870:7
	movq	%rdx, 56(%rsp,%rax)
.Ltmp147:
	.loc	11 870 9                        # /usr/lib/gcc/x86_64-linux-gnu/13/../../../../include/c++/13/fstream:870:9
	leaq	64(%rsp), %rdi
	callq	_ZNSt13basic_filebufIcSt11char_traitsIcEED2Ev@PLT
.Ltmp148:
	.loc	11 870 7                        # /usr/lib/gcc/x86_64-linux-gnu/13/../../../../include/c++/13/fstream:870:7
	leaq	304(%rsp), %rdi
	callq	_ZNSt8ios_baseD2Ev@PLT
.Ltmp149:
	.loc	1 114 19 is_stmt 1              # ./euler3d_no_memcpytosymbol.cu:114:19
	leaq	.L.str.2(%rip), %rsi
	leaq	56(%rsp), %r15
	movq	%r15, %rdi
	movl	$16, %edx
	callq	_ZNSt14basic_ofstreamIcSt11char_traitsIcEEC1EPKcSt13_Ios_Openmode@PLT
.Ltmp150:
.Ltmp25:
	.loc	1 115 10                        # ./euler3d_no_memcpytosymbol.cu:115:10
	movq	%r15, %rdi
	movl	4(%rsp), %esi                   # 4-byte Reload
	callq	_ZNSolsEi@PLT
.Ltmp151:
.Ltmp26:
# %bb.26:                               # %invoke.cont18
	#DEBUG_VALUE: dump:variables <- [DW_OP_LLVM_entry_value 1] $rdi
	#DEBUG_VALUE: dump:nel <- [DW_OP_plus_uconst 4] [$rsp+0]
	#DEBUG_VALUE: dump:nelr <- $ebp
	#DEBUG_VALUE: dump:h_variables <- $r14
.Ltmp27:
	.loc	1 115 0 is_stmt 0               # ./euler3d_no_memcpytosymbol.cu:115:0
	movq	%rax, %r15
.Ltmp152:
	#DEBUG_VALUE: operator<<<std::char_traits<char> >:__out <- $r15
	.loc	8 667 2 is_stmt 1               # /usr/lib/gcc/x86_64-linux-gnu/13/../../../../include/c++/13/ostream:667:2
	leaq	.L.str.1(%rip), %rsi
.Ltmp153:
	#DEBUG_VALUE: operator<<<std::char_traits<char> >:__s <- $rsi
	movl	$1, %edx
	movq	%rax, %rdi
	callq	_ZSt16__ostream_insertIcSt11char_traitsIcEERSt13basic_ostreamIT_T0_ES6_PKS3_l@PLT
.Ltmp154:
.Ltmp28:
# %bb.27:                               # %invoke.cont20
	#DEBUG_VALUE: dump:variables <- [DW_OP_LLVM_entry_value 1] $rdi
	#DEBUG_VALUE: dump:nel <- [DW_OP_plus_uconst 4] [$rsp+0]
	#DEBUG_VALUE: dump:nelr <- $ebp
	#DEBUG_VALUE: dump:h_variables <- $r14
.Ltmp29:
	.loc	1 115 24                        # ./euler3d_no_memcpytosymbol.cu:115:24
	movq	%r15, %rdi
	movl	%ebp, %esi
	callq	_ZNSolsEi@PLT
.Ltmp155:
.Ltmp30:
# %bb.28:                               # %invoke.cont22
	#DEBUG_VALUE: dump:variables <- [DW_OP_LLVM_entry_value 1] $rdi
	#DEBUG_VALUE: dump:nel <- [DW_OP_plus_uconst 4] [$rsp+0]
	#DEBUG_VALUE: dump:nelr <- $ebp
	#DEBUG_VALUE: dump:h_variables <- $r14
	.loc	1 115 0 is_stmt 0               # ./euler3d_no_memcpytosymbol.cu:115:0
	movq	%rax, %r15
.Ltmp156:
	#DEBUG_VALUE: operator<<:this <- $r15
	#DEBUG_VALUE: operator<<:__pf <- undef
	#DEBUG_VALUE: endl<char, std::char_traits<char> >:__os <- $r15
	.loc	8 736 29 is_stmt 1              # /usr/lib/gcc/x86_64-linux-gnu/13/../../../../include/c++/13/ostream:736:29
	movq	(%rax), %rax
	movq	-24(%rax), %rax
.Ltmp157:
	#DEBUG_VALUE: widen:__c <- 10
	#DEBUG_VALUE: widen:this <- [DW_OP_LLVM_arg 0, DW_OP_LLVM_arg 1, DW_OP_plus, DW_OP_stack_value] $r15, $rax
	.loc	9 450 30                        # /usr/lib/gcc/x86_64-linux-gnu/13/../../../../include/c++/13/bits/basic_ios.h:450:30
	movq	240(%r15,%rax), %r12
.Ltmp158:
	#DEBUG_VALUE: __check_facet<std::ctype<char> >:__f <- $r12
	.loc	9 49 12                         # /usr/lib/gcc/x86_64-linux-gnu/13/../../../../include/c++/13/bits/basic_ios.h:49:12
	testq	%r12, %r12
.Ltmp159:
	.loc	9 49 11 is_stmt 0               # /usr/lib/gcc/x86_64-linux-gnu/13/../../../../include/c++/13/bits/basic_ios.h:49:11
	je	.LBB0_29
.Ltmp160:
# %bb.33:                               # %_ZSt13__check_facetISt5ctypeIcEERKT_PS3_.exit.i.i115
	#DEBUG_VALUE: dump:variables <- [DW_OP_LLVM_entry_value 1] $rdi
	#DEBUG_VALUE: dump:nel <- [DW_OP_plus_uconst 4] [$rsp+0]
	#DEBUG_VALUE: dump:nelr <- $ebp
	#DEBUG_VALUE: dump:h_variables <- $r14
	#DEBUG_VALUE: operator<<:this <- $r15
	#DEBUG_VALUE: endl<char, std::char_traits<char> >:__os <- $r15
	#DEBUG_VALUE: widen:__c <- 10
	#DEBUG_VALUE: widen:this <- [DW_OP_LLVM_arg 0, DW_OP_LLVM_arg 1, DW_OP_plus, DW_OP_stack_value] $r15, $rax
	#DEBUG_VALUE: widen:this <- $r12
	#DEBUG_VALUE: widen:__c <- 10
	.loc	10 882 6 is_stmt 1              # /usr/lib/gcc/x86_64-linux-gnu/13/../../../../include/c++/13/bits/locale_facets.h:882:6
	cmpb	$0, 56(%r12)
.Ltmp161:
	.loc	10 882 6 is_stmt 0              # /usr/lib/gcc/x86_64-linux-gnu/13/../../../../include/c++/13/bits/locale_facets.h:882:6
	je	.LBB0_35
.Ltmp162:
# %bb.34:                               # %if.then.i2.i.i118
	#DEBUG_VALUE: dump:variables <- [DW_OP_LLVM_entry_value 1] $rdi
	#DEBUG_VALUE: dump:nel <- [DW_OP_plus_uconst 4] [$rsp+0]
	#DEBUG_VALUE: dump:nelr <- $ebp
	#DEBUG_VALUE: dump:h_variables <- $r14
	#DEBUG_VALUE: operator<<:this <- $r15
	#DEBUG_VALUE: endl<char, std::char_traits<char> >:__os <- $r15
	#DEBUG_VALUE: widen:__c <- 10
	#DEBUG_VALUE: widen:this <- [DW_OP_LLVM_arg 0, DW_OP_LLVM_arg 1, DW_OP_plus, DW_OP_stack_value] $r15, $rax
	#DEBUG_VALUE: widen:this <- $r12
	#DEBUG_VALUE: widen:__c <- 10
	.loc	10 883 11 is_stmt 1             # /usr/lib/gcc/x86_64-linux-gnu/13/../../../../include/c++/13/bits/locale_facets.h:883:11
	movzbl	67(%r12), %eax
.Ltmp163:
	.loc	10 0 11 is_stmt 0               # /usr/lib/gcc/x86_64-linux-gnu/13/../../../../include/c++/13/bits/locale_facets.h:0:11
	jmp	.LBB0_37
.Ltmp164:
.LBB0_35:                               # %if.end.i.i.i123
	#DEBUG_VALUE: dump:variables <- [DW_OP_LLVM_entry_value 1] $rdi
	#DEBUG_VALUE: dump:nel <- [DW_OP_plus_uconst 4] [$rsp+0]
	#DEBUG_VALUE: dump:nelr <- $ebp
	#DEBUG_VALUE: dump:h_variables <- $r14
	#DEBUG_VALUE: operator<<:this <- $r15
	#DEBUG_VALUE: endl<char, std::char_traits<char> >:__os <- $r15
	#DEBUG_VALUE: widen:__c <- 10
	#DEBUG_VALUE: widen:this <- [DW_OP_LLVM_arg 0, DW_OP_LLVM_arg 1, DW_OP_plus, DW_OP_stack_value] $r15, $rax
	#DEBUG_VALUE: widen:this <- $r12
	#DEBUG_VALUE: widen:__c <- 10
.Ltmp31:
	.loc	10 884 8 is_stmt 1              # /usr/lib/gcc/x86_64-linux-gnu/13/../../../../include/c++/13/bits/locale_facets.h:884:8
	movq	%r12, %rdi
	callq	_ZNKSt5ctypeIcE13_M_widen_initEv@PLT
.Ltmp165:
.Ltmp32:
# %bb.36:                               # %.noexc128
	#DEBUG_VALUE: dump:variables <- [DW_OP_LLVM_entry_value 1] $rdi
	#DEBUG_VALUE: dump:nel <- [DW_OP_plus_uconst 4] [$rsp+0]
	#DEBUG_VALUE: dump:nelr <- $ebp
	#DEBUG_VALUE: dump:h_variables <- $r14
	#DEBUG_VALUE: operator<<:this <- $r15
	#DEBUG_VALUE: endl<char, std::char_traits<char> >:__os <- $r15
	#DEBUG_VALUE: widen:__c <- 10
	#DEBUG_VALUE: widen:this <- $r12
	#DEBUG_VALUE: widen:__c <- 10
	.loc	10 885 15                       # /usr/lib/gcc/x86_64-linux-gnu/13/../../../../include/c++/13/bits/locale_facets.h:885:15
	movq	(%r12), %rax
.Ltmp33:
	movq	%r12, %rdi
	movl	$10, %esi
	callq	*48(%rax)
.Ltmp166:
.Ltmp34:
.LBB0_37:                               # %_ZNKSt9basic_iosIcSt11char_traitsIcEE5widenEc.exit.i120
	#DEBUG_VALUE: dump:variables <- [DW_OP_LLVM_entry_value 1] $rdi
	#DEBUG_VALUE: dump:nel <- [DW_OP_plus_uconst 4] [$rsp+0]
	#DEBUG_VALUE: dump:nelr <- $ebp
	#DEBUG_VALUE: dump:h_variables <- $r14
	#DEBUG_VALUE: operator<<:this <- $r15
	#DEBUG_VALUE: endl<char, std::char_traits<char> >:__os <- $r15
.Ltmp35:
	.loc	8 736 25                        # /usr/lib/gcc/x86_64-linux-gnu/13/../../../../include/c++/13/ostream:736:25
	movsbl	%al, %esi
	movq	%r15, %rdi
	callq	_ZNSo3putEc@PLT
.Ltmp167:
.Ltmp36:
# %bb.38:                               # %call1.i.noexc131
	#DEBUG_VALUE: dump:variables <- [DW_OP_LLVM_entry_value 1] $rdi
	#DEBUG_VALUE: dump:nel <- [DW_OP_plus_uconst 4] [$rsp+0]
	#DEBUG_VALUE: dump:nelr <- $ebp
	#DEBUG_VALUE: dump:h_variables <- $r14
	#DEBUG_VALUE: operator<<:this <- $r15
	#DEBUG_VALUE: endl<char, std::char_traits<char> >:__os <- $r15
.Ltmp37:
	#DEBUG_VALUE: flush<char, std::char_traits<char> >:__os <- $rax
	.loc	8 758 19                        # /usr/lib/gcc/x86_64-linux-gnu/13/../../../../include/c++/13/ostream:758:19
	movq	%rax, %rdi
	callq	_ZNSo5flushEv@PLT
.Ltmp168:
.Ltmp38:
# %bb.39:                               # %for.cond27.preheader
	#DEBUG_VALUE: dump:variables <- [DW_OP_LLVM_entry_value 1] $rdi
	#DEBUG_VALUE: dump:nel <- [DW_OP_plus_uconst 4] [$rsp+0]
	#DEBUG_VALUE: dump:nelr <- $ebp
	#DEBUG_VALUE: dump:h_variables <- $r14
	.loc	8 0 19 is_stmt 0                # /usr/lib/gcc/x86_64-linux-gnu/13/../../../../include/c++/13/ostream:0:19
	movq	%rbp, 8(%rsp)                   # 8-byte Spill
.Ltmp169:
	#DEBUG_VALUE: dump:nelr <- [DW_OP_plus_uconst 8] [$rsp+0]
	movq	%r14, 24(%rsp)                  # 8-byte Spill
.Ltmp170:
	#DEBUG_VALUE: dump:h_variables <- [DW_OP_plus_uconst 24, DW_OP_deref] $rsp
	.loc	1 109 23 is_stmt 1              # ./euler3d_no_memcpytosymbol.cu:109:23
	cmpl	$0, 4(%rsp)                     # 4-byte Folded Reload
.Ltmp171:
	#DEBUG_VALUE: i <- 0
	.loc	1 116 5                         # ./euler3d_no_memcpytosymbol.cu:116:5
	jle	.LBB0_53
.Ltmp172:
# %bb.40:                               # %for.cond31.preheader.preheader
	#DEBUG_VALUE: dump:variables <- [DW_OP_LLVM_entry_value 1] $rdi
	#DEBUG_VALUE: dump:nel <- [DW_OP_plus_uconst 4] [$rsp+0]
	#DEBUG_VALUE: dump:nelr <- [DW_OP_plus_uconst 8] [$rsp+0]
	#DEBUG_VALUE: dump:h_variables <- [DW_OP_plus_uconst 24, DW_OP_deref] $rsp
	#DEBUG_VALUE: i <- 0
	movslq	8(%rsp), %r14                   # 4-byte Folded Reload
	movq	24(%rsp), %rax                  # 8-byte Reload
	leaq	(%rax,%r14,4), %rbx
	shlq	$2, %r14
	xorl	%ebp, %ebp
	leaq	56(%rsp), %r15
	leaq	.L.str.1(%rip), %r12
.Ltmp173:
	.p2align	4, 0x90
.LBB0_41:                               # %for.cond31.preheader
                                        # =>This Loop Header: Depth=1
                                        #     Child Loop BB0_42 Depth 2
	#DEBUG_VALUE: dump:variables <- [DW_OP_LLVM_entry_value 1] $rdi
	#DEBUG_VALUE: dump:nel <- [DW_OP_plus_uconst 4] [$rsp+0]
	#DEBUG_VALUE: dump:nelr <- [DW_OP_plus_uconst 8] [$rsp+0]
	#DEBUG_VALUE: dump:h_variables <- [DW_OP_plus_uconst 24, DW_OP_deref] $rsp
	#DEBUG_VALUE: i <- $rbp
	.loc	1 0 5 is_stmt 0                 # ./euler3d_no_memcpytosymbol.cu:0:5
	movl	$4, %r13d
	movq	%rbx, 48(%rsp)                  # 8-byte Spill
.Ltmp174:
	.p2align	4, 0x90
.LBB0_42:                               # %for.cond31
                                        #   Parent Loop BB0_41 Depth=1
                                        # =>  This Inner Loop Header: Depth=2
	#DEBUG_VALUE: dump:variables <- [DW_OP_LLVM_entry_value 1] $rdi
	#DEBUG_VALUE: dump:nel <- [DW_OP_plus_uconst 4] [$rsp+0]
	#DEBUG_VALUE: dump:nelr <- [DW_OP_plus_uconst 8] [$rsp+0]
	#DEBUG_VALUE: dump:h_variables <- [DW_OP_plus_uconst 24, DW_OP_deref] $rsp
	#DEBUG_VALUE: i <- $rbp
	#DEBUG_VALUE: j <- [DW_OP_consts 4, DW_OP_minus, DW_OP_consts 18446744073709551615, DW_OP_div, DW_OP_stack_value] $r13
	.loc	1 117 25 is_stmt 1              # ./euler3d_no_memcpytosymbol.cu:117:25
	decq	%r13
.Ltmp175:
	.loc	1 117 7 is_stmt 0               # ./euler3d_no_memcpytosymbol.cu:117:7
	je	.LBB0_43
.Ltmp176:
# %bb.58:                               # %for.body34
                                        #   in Loop: Header=BB0_42 Depth=2
	#DEBUG_VALUE: dump:variables <- [DW_OP_LLVM_entry_value 1] $rdi
	#DEBUG_VALUE: dump:nel <- [DW_OP_plus_uconst 4] [$rsp+0]
	#DEBUG_VALUE: dump:nelr <- [DW_OP_plus_uconst 8] [$rsp+0]
	#DEBUG_VALUE: dump:h_variables <- [DW_OP_plus_uconst 24, DW_OP_deref] $rsp
	#DEBUG_VALUE: i <- $rbp
	.loc	1 118 17 is_stmt 1              # ./euler3d_no_memcpytosymbol.cu:118:17
	movss	(%rbx), %xmm0                   # xmm0 = mem[0],zero,zero,zero
.Ltmp177:
	#DEBUG_VALUE: operator<<:__f <- $xmm0
	#DEBUG_VALUE: operator<<:this <- [DW_OP_plus_uconst 56, DW_OP_stack_value] $rsp
	.loc	8 230 39                        # /usr/lib/gcc/x86_64-linux-gnu/13/../../../../include/c++/13/ostream:230:39
	cvtss2sd	%xmm0, %xmm0
.Ltmp178:
.Ltmp39:
	.loc	8 230 9 is_stmt 0               # /usr/lib/gcc/x86_64-linux-gnu/13/../../../../include/c++/13/ostream:230:9
	movq	%r15, %rdi
	callq	_ZNSo9_M_insertIdEERSoT_@PLT
.Ltmp179:
.Ltmp40:
# %bb.59:                               # %invoke.cont41
                                        #   in Loop: Header=BB0_42 Depth=2
	#DEBUG_VALUE: dump:variables <- [DW_OP_LLVM_entry_value 1] $rdi
	#DEBUG_VALUE: dump:nel <- [DW_OP_plus_uconst 4] [$rsp+0]
	#DEBUG_VALUE: dump:nelr <- [DW_OP_plus_uconst 8] [$rsp+0]
	#DEBUG_VALUE: dump:h_variables <- [DW_OP_plus_uconst 24, DW_OP_deref] $rsp
	#DEBUG_VALUE: i <- $rbp
	.loc	1 0 0                           # ./euler3d_no_memcpytosymbol.cu:0:0
	addq	%r14, %rbx
.Ltmp180:
	#DEBUG_VALUE: operator<<<std::char_traits<char> >:__out <- $rax
.Ltmp41:
	#DEBUG_VALUE: operator<<<std::char_traits<char> >:__s <- $r12
	.loc	8 667 2 is_stmt 1               # /usr/lib/gcc/x86_64-linux-gnu/13/../../../../include/c++/13/ostream:667:2
	movl	$1, %edx
	movq	%rax, %rdi
	movq	%r12, %rsi
	callq	_ZSt16__ostream_insertIcSt11char_traitsIcEERSt13basic_ostreamIT_T0_ES6_PKS3_l@PLT
.Ltmp181:
.Ltmp42:
	jmp	.LBB0_42
.Ltmp182:
	.p2align	4, 0x90
.LBB0_43:                               # %for.cond.cleanup33
                                        #   in Loop: Header=BB0_41 Depth=1
	#DEBUG_VALUE: dump:variables <- [DW_OP_LLVM_entry_value 1] $rdi
	#DEBUG_VALUE: dump:nel <- [DW_OP_plus_uconst 4] [$rsp+0]
	#DEBUG_VALUE: dump:nelr <- [DW_OP_plus_uconst 8] [$rsp+0]
	#DEBUG_VALUE: dump:h_variables <- [DW_OP_plus_uconst 24, DW_OP_deref] $rsp
	#DEBUG_VALUE: i <- $rbp
	#DEBUG_VALUE: operator<<:this <- [DW_OP_plus_uconst 56, DW_OP_stack_value] $rsp
	#DEBUG_VALUE: operator<<:__pf <- undef
	#DEBUG_VALUE: endl<char, std::char_traits<char> >:__os <- [DW_OP_plus_uconst 56, DW_OP_stack_value] $rsp
	.loc	8 736 29                        # /usr/lib/gcc/x86_64-linux-gnu/13/../../../../include/c++/13/ostream:736:29
	movq	56(%rsp), %rax
	movq	-24(%rax), %rax
.Ltmp183:
	#DEBUG_VALUE: widen:this <- undef
	#DEBUG_VALUE: widen:__c <- 10
	.loc	9 450 30                        # /usr/lib/gcc/x86_64-linux-gnu/13/../../../../include/c++/13/bits/basic_ios.h:450:30
	movq	296(%rsp,%rax), %r13
.Ltmp184:
	#DEBUG_VALUE: __check_facet<std::ctype<char> >:__f <- $r13
	.loc	9 49 12                         # /usr/lib/gcc/x86_64-linux-gnu/13/../../../../include/c++/13/bits/basic_ios.h:49:12
	testq	%r13, %r13
.Ltmp185:
	.loc	9 49 11 is_stmt 0               # /usr/lib/gcc/x86_64-linux-gnu/13/../../../../include/c++/13/bits/basic_ios.h:49:11
	je	.LBB0_44
.Ltmp186:
# %bb.46:                               # %_ZSt13__check_facetISt5ctypeIcEERKT_PS3_.exit.i.i141
                                        #   in Loop: Header=BB0_41 Depth=1
	#DEBUG_VALUE: dump:variables <- [DW_OP_LLVM_entry_value 1] $rdi
	#DEBUG_VALUE: dump:nel <- [DW_OP_plus_uconst 4] [$rsp+0]
	#DEBUG_VALUE: dump:nelr <- [DW_OP_plus_uconst 8] [$rsp+0]
	#DEBUG_VALUE: dump:h_variables <- [DW_OP_plus_uconst 24, DW_OP_deref] $rsp
	#DEBUG_VALUE: i <- $rbp
	#DEBUG_VALUE: operator<<:this <- [DW_OP_plus_uconst 56, DW_OP_stack_value] $rsp
	#DEBUG_VALUE: endl<char, std::char_traits<char> >:__os <- [DW_OP_plus_uconst 56, DW_OP_stack_value] $rsp
	#DEBUG_VALUE: widen:__c <- 10
	#DEBUG_VALUE: widen:this <- $r13
	#DEBUG_VALUE: widen:__c <- 10
	.loc	10 882 6 is_stmt 1              # /usr/lib/gcc/x86_64-linux-gnu/13/../../../../include/c++/13/bits/locale_facets.h:882:6
	cmpb	$0, 56(%r13)
	movq	48(%rsp), %rbx                  # 8-byte Reload
.Ltmp187:
	.loc	10 882 6 is_stmt 0              # /usr/lib/gcc/x86_64-linux-gnu/13/../../../../include/c++/13/bits/locale_facets.h:882:6
	je	.LBB0_48
.Ltmp188:
# %bb.47:                               # %if.then.i2.i.i144
                                        #   in Loop: Header=BB0_41 Depth=1
	#DEBUG_VALUE: dump:variables <- [DW_OP_LLVM_entry_value 1] $rdi
	#DEBUG_VALUE: dump:nel <- [DW_OP_plus_uconst 4] [$rsp+0]
	#DEBUG_VALUE: dump:nelr <- [DW_OP_plus_uconst 8] [$rsp+0]
	#DEBUG_VALUE: dump:h_variables <- [DW_OP_plus_uconst 24, DW_OP_deref] $rsp
	#DEBUG_VALUE: i <- $rbp
	#DEBUG_VALUE: operator<<:this <- [DW_OP_plus_uconst 56, DW_OP_stack_value] $rsp
	#DEBUG_VALUE: endl<char, std::char_traits<char> >:__os <- [DW_OP_plus_uconst 56, DW_OP_stack_value] $rsp
	#DEBUG_VALUE: widen:__c <- 10
	#DEBUG_VALUE: widen:this <- $r13
	#DEBUG_VALUE: widen:__c <- 10
	.loc	10 883 11 is_stmt 1             # /usr/lib/gcc/x86_64-linux-gnu/13/../../../../include/c++/13/bits/locale_facets.h:883:11
	movzbl	67(%r13), %eax
	jmp	.LBB0_50
.Ltmp189:
	.p2align	4, 0x90
.LBB0_48:                               # %if.end.i.i.i149
                                        #   in Loop: Header=BB0_41 Depth=1
	#DEBUG_VALUE: dump:variables <- [DW_OP_LLVM_entry_value 1] $rdi
	#DEBUG_VALUE: dump:nel <- [DW_OP_plus_uconst 4] [$rsp+0]
	#DEBUG_VALUE: dump:nelr <- [DW_OP_plus_uconst 8] [$rsp+0]
	#DEBUG_VALUE: dump:h_variables <- [DW_OP_plus_uconst 24, DW_OP_deref] $rsp
	#DEBUG_VALUE: i <- $rbp
	#DEBUG_VALUE: operator<<:this <- [DW_OP_plus_uconst 56, DW_OP_stack_value] $rsp
	#DEBUG_VALUE: endl<char, std::char_traits<char> >:__os <- [DW_OP_plus_uconst 56, DW_OP_stack_value] $rsp
	#DEBUG_VALUE: widen:__c <- 10
	#DEBUG_VALUE: widen:this <- $r13
	#DEBUG_VALUE: widen:__c <- 10
.Ltmp44:
	.loc	10 884 8                        # /usr/lib/gcc/x86_64-linux-gnu/13/../../../../include/c++/13/bits/locale_facets.h:884:8
	movq	%r13, %rdi
	callq	_ZNKSt5ctypeIcE13_M_widen_initEv@PLT
.Ltmp190:
.Ltmp45:
# %bb.49:                               # %.noexc154
                                        #   in Loop: Header=BB0_41 Depth=1
	#DEBUG_VALUE: dump:variables <- [DW_OP_LLVM_entry_value 1] $rdi
	#DEBUG_VALUE: dump:nel <- [DW_OP_plus_uconst 4] [$rsp+0]
	#DEBUG_VALUE: dump:nelr <- [DW_OP_plus_uconst 8] [$rsp+0]
	#DEBUG_VALUE: dump:h_variables <- [DW_OP_plus_uconst 24, DW_OP_deref] $rsp
	#DEBUG_VALUE: i <- $rbp
	#DEBUG_VALUE: operator<<:this <- [DW_OP_plus_uconst 56, DW_OP_stack_value] $rsp
	#DEBUG_VALUE: endl<char, std::char_traits<char> >:__os <- [DW_OP_plus_uconst 56, DW_OP_stack_value] $rsp
	#DEBUG_VALUE: widen:__c <- 10
	#DEBUG_VALUE: widen:this <- $r13
	#DEBUG_VALUE: widen:__c <- 10
	.loc	10 885 15                       # /usr/lib/gcc/x86_64-linux-gnu/13/../../../../include/c++/13/bits/locale_facets.h:885:15
	movq	(%r13), %rax
.Ltmp46:
	movq	%r13, %rdi
	movl	$10, %esi
	callq	*48(%rax)
.Ltmp191:
.Ltmp47:
.LBB0_50:                               # %_ZNKSt9basic_iosIcSt11char_traitsIcEE5widenEc.exit.i146
                                        #   in Loop: Header=BB0_41 Depth=1
	#DEBUG_VALUE: dump:variables <- [DW_OP_LLVM_entry_value 1] $rdi
	#DEBUG_VALUE: dump:nel <- [DW_OP_plus_uconst 4] [$rsp+0]
	#DEBUG_VALUE: dump:nelr <- [DW_OP_plus_uconst 8] [$rsp+0]
	#DEBUG_VALUE: dump:h_variables <- [DW_OP_plus_uconst 24, DW_OP_deref] $rsp
	#DEBUG_VALUE: i <- $rbp
	#DEBUG_VALUE: operator<<:this <- [DW_OP_plus_uconst 56, DW_OP_stack_value] $rsp
	#DEBUG_VALUE: endl<char, std::char_traits<char> >:__os <- [DW_OP_plus_uconst 56, DW_OP_stack_value] $rsp
.Ltmp48:
	.loc	8 736 25                        # /usr/lib/gcc/x86_64-linux-gnu/13/../../../../include/c++/13/ostream:736:25
	movsbl	%al, %esi
	movq	%r15, %rdi
	callq	_ZNSo3putEc@PLT
.Ltmp192:
.Ltmp49:
# %bb.51:                               # %call1.i.noexc157
                                        #   in Loop: Header=BB0_41 Depth=1
	#DEBUG_VALUE: dump:variables <- [DW_OP_LLVM_entry_value 1] $rdi
	#DEBUG_VALUE: dump:nel <- [DW_OP_plus_uconst 4] [$rsp+0]
	#DEBUG_VALUE: dump:nelr <- [DW_OP_plus_uconst 8] [$rsp+0]
	#DEBUG_VALUE: dump:h_variables <- [DW_OP_plus_uconst 24, DW_OP_deref] $rsp
	#DEBUG_VALUE: i <- $rbp
	#DEBUG_VALUE: operator<<:this <- [DW_OP_plus_uconst 56, DW_OP_stack_value] $rsp
	#DEBUG_VALUE: endl<char, std::char_traits<char> >:__os <- [DW_OP_plus_uconst 56, DW_OP_stack_value] $rsp
.Ltmp50:
	#DEBUG_VALUE: flush<char, std::char_traits<char> >:__os <- $rax
	.loc	8 758 19                        # /usr/lib/gcc/x86_64-linux-gnu/13/../../../../include/c++/13/ostream:758:19
	movq	%rax, %rdi
	callq	_ZNSo5flushEv@PLT
.Ltmp193:
.Ltmp51:
# %bb.52:                               # %for.inc52
                                        #   in Loop: Header=BB0_41 Depth=1
	#DEBUG_VALUE: dump:variables <- [DW_OP_LLVM_entry_value 1] $rdi
	#DEBUG_VALUE: dump:nel <- [DW_OP_plus_uconst 4] [$rsp+0]
	#DEBUG_VALUE: dump:nelr <- [DW_OP_plus_uconst 8] [$rsp+0]
	#DEBUG_VALUE: dump:h_variables <- [DW_OP_plus_uconst 24, DW_OP_deref] $rsp
	#DEBUG_VALUE: i <- $rbp
	.loc	1 116 31                        # ./euler3d_no_memcpytosymbol.cu:116:31
	incq	%rbp
.Ltmp194:
	#DEBUG_VALUE: i <- $rbp
	.loc	1 116 5 is_stmt 0               # ./euler3d_no_memcpytosymbol.cu:116:5
	addq	$4, %rbx
.Ltmp195:
	.loc	1 116 23                        # ./euler3d_no_memcpytosymbol.cu:116:23
	cmpq	16(%rsp), %rbp                  # 8-byte Folded Reload
.Ltmp196:
	.loc	1 116 5                         # ./euler3d_no_memcpytosymbol.cu:116:5
	jne	.LBB0_41
.Ltmp197:
.LBB0_53:                               # %for.cond.cleanup29
	#DEBUG_VALUE: dump:variables <- [DW_OP_LLVM_entry_value 1] $rdi
	#DEBUG_VALUE: dump:nel <- [DW_OP_plus_uconst 4] [$rsp+0]
	#DEBUG_VALUE: dump:nelr <- [DW_OP_plus_uconst 8] [$rsp+0]
	#DEBUG_VALUE: dump:h_variables <- [DW_OP_plus_uconst 24, DW_OP_deref] $rsp
	#DEBUG_VALUE: ~basic_ofstream:this <- [DW_OP_plus_uconst 56, DW_OP_stack_value] $rsp
	#DEBUG_VALUE: ~basic_ofstream:this <- [DW_OP_plus_uconst 56, DW_OP_stack_value] $rsp
	.loc	1 0 5                           # ./euler3d_no_memcpytosymbol.cu:0:5
	movq	40(%rsp), %rax                  # 8-byte Reload
.Ltmp198:
	.loc	11 870 7 is_stmt 1              # /usr/lib/gcc/x86_64-linux-gnu/13/../../../../include/c++/13/fstream:870:7
	movq	%rax, 56(%rsp)
	movq	-24(%rax), %rax
	movq	32(%rsp), %rcx                  # 8-byte Reload
	movq	%rcx, 56(%rsp,%rax)
.Ltmp199:
	.loc	11 870 9 is_stmt 0              # /usr/lib/gcc/x86_64-linux-gnu/13/../../../../include/c++/13/fstream:870:9
	leaq	64(%rsp), %rdi
	callq	_ZNSt13basic_filebufIcSt11char_traitsIcEED2Ev@PLT
.Ltmp200:
	.loc	11 870 7                        # /usr/lib/gcc/x86_64-linux-gnu/13/../../../../include/c++/13/fstream:870:7
	leaq	304(%rsp), %rdi
	callq	_ZNSt8ios_baseD2Ev@PLT
.Ltmp201:
	.loc	1 124 19 is_stmt 1              # ./euler3d_no_memcpytosymbol.cu:124:19
	leaq	.L.str.3(%rip), %rsi
	leaq	56(%rsp), %r15
	movq	%r15, %rdi
	movl	$16, %edx
	callq	_ZNSt14basic_ofstreamIcSt11char_traitsIcEEC1EPKcSt13_Ios_Openmode@PLT
.Ltmp202:
.Ltmp53:
	.loc	1 125 10                        # ./euler3d_no_memcpytosymbol.cu:125:10
	movq	%r15, %rdi
	movl	4(%rsp), %esi                   # 4-byte Reload
	callq	_ZNSolsEi@PLT
.Ltmp203:
.Ltmp54:
	#DEBUG_VALUE: ~basic_ofstream:vtt <- undef
	.loc	1 0 10 is_stmt 0                # ./euler3d_no_memcpytosymbol.cu:0:10
	movq	24(%rsp), %rbp                  # 8-byte Reload
.Ltmp204:
# %bb.54:                               # %invoke.cont60
	#DEBUG_VALUE: dump:variables <- [DW_OP_LLVM_entry_value 1] $rdi
	#DEBUG_VALUE: dump:nel <- [DW_OP_plus_uconst 4] [$rsp+0]
	#DEBUG_VALUE: dump:nelr <- [DW_OP_plus_uconst 8] [$rsp+0]
	#DEBUG_VALUE: dump:h_variables <- [DW_OP_plus_uconst 24, DW_OP_deref] $rsp
.Ltmp55:
	.loc	1 125 0                         # ./euler3d_no_memcpytosymbol.cu:125:0
	movq	%rax, %r15
.Ltmp205:
	#DEBUG_VALUE: operator<<<std::char_traits<char> >:__out <- $r15
	.loc	8 667 2 is_stmt 1               # /usr/lib/gcc/x86_64-linux-gnu/13/../../../../include/c++/13/ostream:667:2
	leaq	.L.str.1(%rip), %rsi
.Ltmp206:
	#DEBUG_VALUE: operator<<<std::char_traits<char> >:__s <- $rsi
	movl	$1, %edx
	movq	%rax, %rdi
	callq	_ZSt16__ostream_insertIcSt11char_traitsIcEERSt13basic_ostreamIT_T0_ES6_PKS3_l@PLT
.Ltmp207:
.Ltmp56:
# %bb.55:                               # %invoke.cont62
	#DEBUG_VALUE: dump:variables <- [DW_OP_LLVM_entry_value 1] $rdi
	#DEBUG_VALUE: dump:nel <- [DW_OP_plus_uconst 4] [$rsp+0]
	#DEBUG_VALUE: dump:nelr <- [DW_OP_plus_uconst 8] [$rsp+0]
	#DEBUG_VALUE: dump:h_variables <- [DW_OP_plus_uconst 24, DW_OP_deref] $rsp
.Ltmp57:
	.loc	1 125 24                        # ./euler3d_no_memcpytosymbol.cu:125:24
	movq	%r15, %rdi
	movq	8(%rsp), %rsi                   # 8-byte Reload
                                        # kill: def $esi killed $esi killed $rsi
	callq	_ZNSolsEi@PLT
.Ltmp208:
.Ltmp58:
# %bb.56:                               # %invoke.cont64
	#DEBUG_VALUE: dump:variables <- [DW_OP_LLVM_entry_value 1] $rdi
	#DEBUG_VALUE: dump:nel <- [DW_OP_plus_uconst 4] [$rsp+0]
	#DEBUG_VALUE: dump:nelr <- [DW_OP_plus_uconst 8] [$rsp+0]
	#DEBUG_VALUE: dump:h_variables <- [DW_OP_plus_uconst 24, DW_OP_deref] $rsp
	.loc	1 125 0 is_stmt 0               # ./euler3d_no_memcpytosymbol.cu:125:0
	movq	%rax, %r15
.Ltmp209:
	#DEBUG_VALUE: operator<<:this <- $r15
	#DEBUG_VALUE: operator<<:__pf <- undef
	#DEBUG_VALUE: endl<char, std::char_traits<char> >:__os <- $r15
	.loc	8 736 29 is_stmt 1              # /usr/lib/gcc/x86_64-linux-gnu/13/../../../../include/c++/13/ostream:736:29
	movq	(%rax), %rax
	movq	-24(%rax), %rax
.Ltmp210:
	#DEBUG_VALUE: widen:__c <- 10
	#DEBUG_VALUE: widen:this <- [DW_OP_LLVM_arg 0, DW_OP_LLVM_arg 1, DW_OP_plus, DW_OP_stack_value] $r15, $rax
	.loc	9 450 30                        # /usr/lib/gcc/x86_64-linux-gnu/13/../../../../include/c++/13/bits/basic_ios.h:450:30
	movq	240(%r15,%rax), %r12
.Ltmp211:
	#DEBUG_VALUE: __check_facet<std::ctype<char> >:__f <- $r12
	.loc	9 49 12                         # /usr/lib/gcc/x86_64-linux-gnu/13/../../../../include/c++/13/bits/basic_ios.h:49:12
	testq	%r12, %r12
.Ltmp212:
	.loc	9 49 11 is_stmt 0               # /usr/lib/gcc/x86_64-linux-gnu/13/../../../../include/c++/13/bits/basic_ios.h:49:11
	je	.LBB0_57
.Ltmp213:
# %bb.64:                               # %_ZSt13__check_facetISt5ctypeIcEERKT_PS3_.exit.i.i167
	#DEBUG_VALUE: dump:variables <- [DW_OP_LLVM_entry_value 1] $rdi
	#DEBUG_VALUE: dump:nel <- [DW_OP_plus_uconst 4] [$rsp+0]
	#DEBUG_VALUE: dump:nelr <- [DW_OP_plus_uconst 8] [$rsp+0]
	#DEBUG_VALUE: dump:h_variables <- [DW_OP_plus_uconst 24, DW_OP_deref] $rsp
	#DEBUG_VALUE: operator<<:this <- $r15
	#DEBUG_VALUE: endl<char, std::char_traits<char> >:__os <- $r15
	#DEBUG_VALUE: widen:__c <- 10
	#DEBUG_VALUE: widen:this <- [DW_OP_LLVM_arg 0, DW_OP_LLVM_arg 1, DW_OP_plus, DW_OP_stack_value] $r15, $rax
	#DEBUG_VALUE: widen:this <- $r12
	#DEBUG_VALUE: widen:__c <- 10
	.loc	10 882 6 is_stmt 1              # /usr/lib/gcc/x86_64-linux-gnu/13/../../../../include/c++/13/bits/locale_facets.h:882:6
	cmpb	$0, 56(%r12)
.Ltmp214:
	.loc	10 882 6 is_stmt 0              # /usr/lib/gcc/x86_64-linux-gnu/13/../../../../include/c++/13/bits/locale_facets.h:882:6
	je	.LBB0_66
.Ltmp215:
# %bb.65:                               # %if.then.i2.i.i170
	#DEBUG_VALUE: dump:variables <- [DW_OP_LLVM_entry_value 1] $rdi
	#DEBUG_VALUE: dump:nel <- [DW_OP_plus_uconst 4] [$rsp+0]
	#DEBUG_VALUE: dump:nelr <- [DW_OP_plus_uconst 8] [$rsp+0]
	#DEBUG_VALUE: dump:h_variables <- [DW_OP_plus_uconst 24, DW_OP_deref] $rsp
	#DEBUG_VALUE: operator<<:this <- $r15
	#DEBUG_VALUE: endl<char, std::char_traits<char> >:__os <- $r15
	#DEBUG_VALUE: widen:__c <- 10
	#DEBUG_VALUE: widen:this <- [DW_OP_LLVM_arg 0, DW_OP_LLVM_arg 1, DW_OP_plus, DW_OP_stack_value] $r15, $rax
	#DEBUG_VALUE: widen:this <- $r12
	#DEBUG_VALUE: widen:__c <- 10
	.loc	10 883 11 is_stmt 1             # /usr/lib/gcc/x86_64-linux-gnu/13/../../../../include/c++/13/bits/locale_facets.h:883:11
	movzbl	67(%r12), %eax
.Ltmp216:
	.loc	10 0 11 is_stmt 0               # /usr/lib/gcc/x86_64-linux-gnu/13/../../../../include/c++/13/bits/locale_facets.h:0:11
	jmp	.LBB0_68
.Ltmp217:
.LBB0_66:                               # %if.end.i.i.i175
	#DEBUG_VALUE: dump:variables <- [DW_OP_LLVM_entry_value 1] $rdi
	#DEBUG_VALUE: dump:nel <- [DW_OP_plus_uconst 4] [$rsp+0]
	#DEBUG_VALUE: dump:nelr <- [DW_OP_plus_uconst 8] [$rsp+0]
	#DEBUG_VALUE: dump:h_variables <- [DW_OP_plus_uconst 24, DW_OP_deref] $rsp
	#DEBUG_VALUE: operator<<:this <- $r15
	#DEBUG_VALUE: endl<char, std::char_traits<char> >:__os <- $r15
	#DEBUG_VALUE: widen:__c <- 10
	#DEBUG_VALUE: widen:this <- [DW_OP_LLVM_arg 0, DW_OP_LLVM_arg 1, DW_OP_plus, DW_OP_stack_value] $r15, $rax
	#DEBUG_VALUE: widen:this <- $r12
	#DEBUG_VALUE: widen:__c <- 10
.Ltmp59:
	.loc	10 884 8 is_stmt 1              # /usr/lib/gcc/x86_64-linux-gnu/13/../../../../include/c++/13/bits/locale_facets.h:884:8
	movq	%r12, %rdi
	callq	_ZNKSt5ctypeIcE13_M_widen_initEv@PLT
.Ltmp218:
.Ltmp60:
# %bb.67:                               # %.noexc180
	#DEBUG_VALUE: dump:variables <- [DW_OP_LLVM_entry_value 1] $rdi
	#DEBUG_VALUE: dump:nel <- [DW_OP_plus_uconst 4] [$rsp+0]
	#DEBUG_VALUE: dump:nelr <- [DW_OP_plus_uconst 8] [$rsp+0]
	#DEBUG_VALUE: dump:h_variables <- [DW_OP_plus_uconst 24, DW_OP_deref] $rsp
	#DEBUG_VALUE: operator<<:this <- $r15
	#DEBUG_VALUE: endl<char, std::char_traits<char> >:__os <- $r15
	#DEBUG_VALUE: widen:__c <- 10
	#DEBUG_VALUE: widen:this <- $r12
	#DEBUG_VALUE: widen:__c <- 10
	.loc	10 885 15                       # /usr/lib/gcc/x86_64-linux-gnu/13/../../../../include/c++/13/bits/locale_facets.h:885:15
	movq	(%r12), %rax
.Ltmp61:
	movq	%r12, %rdi
	movl	$10, %esi
	callq	*48(%rax)
.Ltmp219:
.Ltmp62:
.LBB0_68:                               # %_ZNKSt9basic_iosIcSt11char_traitsIcEE5widenEc.exit.i172
	#DEBUG_VALUE: dump:variables <- [DW_OP_LLVM_entry_value 1] $rdi
	#DEBUG_VALUE: dump:nel <- [DW_OP_plus_uconst 4] [$rsp+0]
	#DEBUG_VALUE: dump:nelr <- [DW_OP_plus_uconst 8] [$rsp+0]
	#DEBUG_VALUE: dump:h_variables <- [DW_OP_plus_uconst 24, DW_OP_deref] $rsp
	#DEBUG_VALUE: operator<<:this <- $r15
	#DEBUG_VALUE: endl<char, std::char_traits<char> >:__os <- $r15
.Ltmp63:
	.loc	8 736 25                        # /usr/lib/gcc/x86_64-linux-gnu/13/../../../../include/c++/13/ostream:736:25
	movsbl	%al, %esi
	movq	%r15, %rdi
	callq	_ZNSo3putEc@PLT
.Ltmp220:
.Ltmp64:
# %bb.69:                               # %call1.i.noexc183
	#DEBUG_VALUE: dump:variables <- [DW_OP_LLVM_entry_value 1] $rdi
	#DEBUG_VALUE: dump:nel <- [DW_OP_plus_uconst 4] [$rsp+0]
	#DEBUG_VALUE: dump:nelr <- [DW_OP_plus_uconst 8] [$rsp+0]
	#DEBUG_VALUE: dump:h_variables <- [DW_OP_plus_uconst 24, DW_OP_deref] $rsp
	#DEBUG_VALUE: operator<<:this <- $r15
	#DEBUG_VALUE: endl<char, std::char_traits<char> >:__os <- $r15
.Ltmp65:
	#DEBUG_VALUE: flush<char, std::char_traits<char> >:__os <- $rax
	.loc	8 758 19                        # /usr/lib/gcc/x86_64-linux-gnu/13/../../../../include/c++/13/ostream:758:19
	movq	%rax, %rdi
	callq	_ZNSo5flushEv@PLT
.Ltmp221:
.Ltmp66:
# %bb.70:                               # %for.cond69.preheader
	#DEBUG_VALUE: dump:variables <- [DW_OP_LLVM_entry_value 1] $rdi
	#DEBUG_VALUE: dump:nel <- [DW_OP_plus_uconst 4] [$rsp+0]
	#DEBUG_VALUE: dump:nelr <- [DW_OP_plus_uconst 8] [$rsp+0]
	#DEBUG_VALUE: dump:h_variables <- [DW_OP_plus_uconst 24, DW_OP_deref] $rsp
	.loc	1 109 23                        # ./euler3d_no_memcpytosymbol.cu:109:23
	cmpl	$0, 4(%rsp)                     # 4-byte Folded Reload
.Ltmp222:
	#DEBUG_VALUE: i <- 0
	.loc	1 126 5                         # ./euler3d_no_memcpytosymbol.cu:126:5
	jle	.LBB0_85
.Ltmp223:
# %bb.71:                               # %for.body72.lr.ph
	#DEBUG_VALUE: dump:variables <- [DW_OP_LLVM_entry_value 1] $rdi
	#DEBUG_VALUE: dump:nel <- [DW_OP_plus_uconst 4] [$rsp+0]
	#DEBUG_VALUE: dump:nelr <- [DW_OP_plus_uconst 8] [$rsp+0]
	#DEBUG_VALUE: dump:h_variables <- [DW_OP_plus_uconst 24, DW_OP_deref] $rsp
	#DEBUG_VALUE: i <- 0
	.loc	1 0 5 is_stmt 0                 # ./euler3d_no_memcpytosymbol.cu:0:5
	movq	8(%rsp), %rax                   # 8-byte Reload
	shll	$2, %eax
	.loc	1 126 5                         # ./euler3d_no_memcpytosymbol.cu:126:5
	cltq
	leaq	(,%rax,4), %rbx
	addq	%rbp, %rbx
	xorl	%r13d, %r13d
	leaq	56(%rsp), %r14
.Ltmp224:
	.p2align	4, 0x90
.LBB0_72:                               # %for.body72
                                        # =>This Inner Loop Header: Depth=1
	#DEBUG_VALUE: dump:variables <- [DW_OP_LLVM_entry_value 1] $rdi
	#DEBUG_VALUE: dump:nel <- [DW_OP_plus_uconst 4] [$rsp+0]
	#DEBUG_VALUE: dump:nelr <- [DW_OP_plus_uconst 8] [$rsp+0]
	#DEBUG_VALUE: dump:h_variables <- [DW_OP_plus_uconst 24, DW_OP_deref] $rsp
	#DEBUG_VALUE: i <- $r13
	.loc	1 127 15 is_stmt 1              # ./euler3d_no_memcpytosymbol.cu:127:15
	movss	(%rbx,%r13,4), %xmm0            # xmm0 = mem[0],zero,zero,zero
.Ltmp225:
	#DEBUG_VALUE: operator<<:__f <- $xmm0
	#DEBUG_VALUE: operator<<:this <- [DW_OP_plus_uconst 56, DW_OP_stack_value] $rsp
	.loc	8 230 39                        # /usr/lib/gcc/x86_64-linux-gnu/13/../../../../include/c++/13/ostream:230:39
	cvtss2sd	%xmm0, %xmm0
.Ltmp226:
.Ltmp67:
	.loc	8 230 9 is_stmt 0               # /usr/lib/gcc/x86_64-linux-gnu/13/../../../../include/c++/13/ostream:230:9
	movq	%r14, %rdi
	callq	_ZNSo9_M_insertIdEERSoT_@PLT
.Ltmp227:
.Ltmp68:
# %bb.73:                               # %invoke.cont78
                                        #   in Loop: Header=BB0_72 Depth=1
	#DEBUG_VALUE: dump:variables <- [DW_OP_LLVM_entry_value 1] $rdi
	#DEBUG_VALUE: dump:nel <- [DW_OP_plus_uconst 4] [$rsp+0]
	#DEBUG_VALUE: dump:nelr <- [DW_OP_plus_uconst 8] [$rsp+0]
	#DEBUG_VALUE: dump:h_variables <- [DW_OP_plus_uconst 24, DW_OP_deref] $rsp
	#DEBUG_VALUE: i <- $r13
	.loc	1 127 0 is_stmt 1               # ./euler3d_no_memcpytosymbol.cu:127:0
	movq	%rax, %r15
.Ltmp228:
	#DEBUG_VALUE: operator<<:this <- $r15
	#DEBUG_VALUE: operator<<:__pf <- undef
	#DEBUG_VALUE: endl<char, std::char_traits<char> >:__os <- $r15
	.loc	8 736 29                        # /usr/lib/gcc/x86_64-linux-gnu/13/../../../../include/c++/13/ostream:736:29
	movq	(%rax), %rax
	movq	-24(%rax), %rax
.Ltmp229:
	#DEBUG_VALUE: widen:__c <- 10
	#DEBUG_VALUE: widen:this <- [DW_OP_LLVM_arg 0, DW_OP_LLVM_arg 1, DW_OP_plus, DW_OP_stack_value] $r15, $rax
	.loc	9 450 30                        # /usr/lib/gcc/x86_64-linux-gnu/13/../../../../include/c++/13/bits/basic_ios.h:450:30
	movq	240(%r15,%rax), %r12
.Ltmp230:
	#DEBUG_VALUE: __check_facet<std::ctype<char> >:__f <- $r12
	.loc	9 49 12                         # /usr/lib/gcc/x86_64-linux-gnu/13/../../../../include/c++/13/bits/basic_ios.h:49:12
	testq	%r12, %r12
.Ltmp231:
	.loc	9 49 11 is_stmt 0               # /usr/lib/gcc/x86_64-linux-gnu/13/../../../../include/c++/13/bits/basic_ios.h:49:11
	je	.LBB0_74
.Ltmp232:
# %bb.78:                               # %_ZSt13__check_facetISt5ctypeIcEERKT_PS3_.exit.i.i193
                                        #   in Loop: Header=BB0_72 Depth=1
	#DEBUG_VALUE: dump:variables <- [DW_OP_LLVM_entry_value 1] $rdi
	#DEBUG_VALUE: dump:nel <- [DW_OP_plus_uconst 4] [$rsp+0]
	#DEBUG_VALUE: dump:nelr <- [DW_OP_plus_uconst 8] [$rsp+0]
	#DEBUG_VALUE: dump:h_variables <- [DW_OP_plus_uconst 24, DW_OP_deref] $rsp
	#DEBUG_VALUE: i <- $r13
	#DEBUG_VALUE: operator<<:this <- $r15
	#DEBUG_VALUE: endl<char, std::char_traits<char> >:__os <- $r15
	#DEBUG_VALUE: widen:__c <- 10
	#DEBUG_VALUE: widen:this <- [DW_OP_LLVM_arg 0, DW_OP_LLVM_arg 1, DW_OP_plus, DW_OP_stack_value] $r15, $rax
	#DEBUG_VALUE: widen:this <- $r12
	#DEBUG_VALUE: widen:__c <- 10
	.loc	10 882 6 is_stmt 1              # /usr/lib/gcc/x86_64-linux-gnu/13/../../../../include/c++/13/bits/locale_facets.h:882:6
	cmpb	$0, 56(%r12)
.Ltmp233:
	.loc	10 882 6 is_stmt 0              # /usr/lib/gcc/x86_64-linux-gnu/13/../../../../include/c++/13/bits/locale_facets.h:882:6
	je	.LBB0_80
.Ltmp234:
# %bb.79:                               # %if.then.i2.i.i196
                                        #   in Loop: Header=BB0_72 Depth=1
	#DEBUG_VALUE: dump:variables <- [DW_OP_LLVM_entry_value 1] $rdi
	#DEBUG_VALUE: dump:nel <- [DW_OP_plus_uconst 4] [$rsp+0]
	#DEBUG_VALUE: dump:nelr <- [DW_OP_plus_uconst 8] [$rsp+0]
	#DEBUG_VALUE: dump:h_variables <- [DW_OP_plus_uconst 24, DW_OP_deref] $rsp
	#DEBUG_VALUE: i <- $r13
	#DEBUG_VALUE: operator<<:this <- $r15
	#DEBUG_VALUE: endl<char, std::char_traits<char> >:__os <- $r15
	#DEBUG_VALUE: widen:__c <- 10
	#DEBUG_VALUE: widen:this <- [DW_OP_LLVM_arg 0, DW_OP_LLVM_arg 1, DW_OP_plus, DW_OP_stack_value] $r15, $rax
	#DEBUG_VALUE: widen:this <- $r12
	#DEBUG_VALUE: widen:__c <- 10
	.loc	10 883 11 is_stmt 1             # /usr/lib/gcc/x86_64-linux-gnu/13/../../../../include/c++/13/bits/locale_facets.h:883:11
	movzbl	67(%r12), %eax
.Ltmp235:
	.loc	10 0 11 is_stmt 0               # /usr/lib/gcc/x86_64-linux-gnu/13/../../../../include/c++/13/bits/locale_facets.h:0:11
	jmp	.LBB0_82
.Ltmp236:
	.p2align	4, 0x90
.LBB0_80:                               # %if.end.i.i.i201
                                        #   in Loop: Header=BB0_72 Depth=1
	#DEBUG_VALUE: dump:variables <- [DW_OP_LLVM_entry_value 1] $rdi
	#DEBUG_VALUE: dump:nel <- [DW_OP_plus_uconst 4] [$rsp+0]
	#DEBUG_VALUE: dump:nelr <- [DW_OP_plus_uconst 8] [$rsp+0]
	#DEBUG_VALUE: dump:h_variables <- [DW_OP_plus_uconst 24, DW_OP_deref] $rsp
	#DEBUG_VALUE: i <- $r13
	#DEBUG_VALUE: operator<<:this <- $r15
	#DEBUG_VALUE: endl<char, std::char_traits<char> >:__os <- $r15
	#DEBUG_VALUE: widen:__c <- 10
	#DEBUG_VALUE: widen:this <- [DW_OP_LLVM_arg 0, DW_OP_LLVM_arg 1, DW_OP_plus, DW_OP_stack_value] $r15, $rax
	#DEBUG_VALUE: widen:this <- $r12
	#DEBUG_VALUE: widen:__c <- 10
.Ltmp69:
	.loc	10 884 8 is_stmt 1              # /usr/lib/gcc/x86_64-linux-gnu/13/../../../../include/c++/13/bits/locale_facets.h:884:8
	movq	%r12, %rdi
	callq	_ZNKSt5ctypeIcE13_M_widen_initEv@PLT
.Ltmp237:
.Ltmp70:
# %bb.81:                               # %.noexc206
                                        #   in Loop: Header=BB0_72 Depth=1
	#DEBUG_VALUE: dump:variables <- [DW_OP_LLVM_entry_value 1] $rdi
	#DEBUG_VALUE: dump:nel <- [DW_OP_plus_uconst 4] [$rsp+0]
	#DEBUG_VALUE: dump:nelr <- [DW_OP_plus_uconst 8] [$rsp+0]
	#DEBUG_VALUE: dump:h_variables <- [DW_OP_plus_uconst 24, DW_OP_deref] $rsp
	#DEBUG_VALUE: i <- $r13
	#DEBUG_VALUE: operator<<:this <- $r15
	#DEBUG_VALUE: endl<char, std::char_traits<char> >:__os <- $r15
	#DEBUG_VALUE: widen:__c <- 10
	#DEBUG_VALUE: widen:this <- $r12
	#DEBUG_VALUE: widen:__c <- 10
	.loc	10 885 15                       # /usr/lib/gcc/x86_64-linux-gnu/13/../../../../include/c++/13/bits/locale_facets.h:885:15
	movq	(%r12), %rax
.Ltmp71:
	movq	%r12, %rdi
	movl	$10, %esi
	callq	*48(%rax)
.Ltmp238:
.Ltmp72:
.LBB0_82:                               # %_ZNKSt9basic_iosIcSt11char_traitsIcEE5widenEc.exit.i198
                                        #   in Loop: Header=BB0_72 Depth=1
	#DEBUG_VALUE: dump:variables <- [DW_OP_LLVM_entry_value 1] $rdi
	#DEBUG_VALUE: dump:nel <- [DW_OP_plus_uconst 4] [$rsp+0]
	#DEBUG_VALUE: dump:nelr <- [DW_OP_plus_uconst 8] [$rsp+0]
	#DEBUG_VALUE: dump:h_variables <- [DW_OP_plus_uconst 24, DW_OP_deref] $rsp
	#DEBUG_VALUE: i <- $r13
	#DEBUG_VALUE: operator<<:this <- $r15
	#DEBUG_VALUE: endl<char, std::char_traits<char> >:__os <- $r15
.Ltmp73:
	.loc	8 736 25                        # /usr/lib/gcc/x86_64-linux-gnu/13/../../../../include/c++/13/ostream:736:25
	movsbl	%al, %esi
	movq	%r15, %rdi
	callq	_ZNSo3putEc@PLT
.Ltmp239:
.Ltmp74:
# %bb.83:                               # %call1.i.noexc209
                                        #   in Loop: Header=BB0_72 Depth=1
	#DEBUG_VALUE: dump:variables <- [DW_OP_LLVM_entry_value 1] $rdi
	#DEBUG_VALUE: dump:nel <- [DW_OP_plus_uconst 4] [$rsp+0]
	#DEBUG_VALUE: dump:nelr <- [DW_OP_plus_uconst 8] [$rsp+0]
	#DEBUG_VALUE: dump:h_variables <- [DW_OP_plus_uconst 24, DW_OP_deref] $rsp
	#DEBUG_VALUE: i <- $r13
	#DEBUG_VALUE: operator<<:this <- $r15
	#DEBUG_VALUE: endl<char, std::char_traits<char> >:__os <- $r15
.Ltmp75:
	#DEBUG_VALUE: flush<char, std::char_traits<char> >:__os <- $rax
	.loc	8 758 19                        # /usr/lib/gcc/x86_64-linux-gnu/13/../../../../include/c++/13/ostream:758:19
	movq	%rax, %rdi
	callq	_ZNSo5flushEv@PLT
.Ltmp240:
.Ltmp76:
# %bb.84:                               # %for.inc82
                                        #   in Loop: Header=BB0_72 Depth=1
	#DEBUG_VALUE: dump:variables <- [DW_OP_LLVM_entry_value 1] $rdi
	#DEBUG_VALUE: dump:nel <- [DW_OP_plus_uconst 4] [$rsp+0]
	#DEBUG_VALUE: dump:nelr <- [DW_OP_plus_uconst 8] [$rsp+0]
	#DEBUG_VALUE: dump:h_variables <- [DW_OP_plus_uconst 24, DW_OP_deref] $rsp
	#DEBUG_VALUE: i <- $r13
	.loc	1 126 31                        # ./euler3d_no_memcpytosymbol.cu:126:31
	incq	%r13
.Ltmp241:
	#DEBUG_VALUE: i <- $r13
	.loc	1 126 23 is_stmt 0              # ./euler3d_no_memcpytosymbol.cu:126:23
	cmpq	%r13, 16(%rsp)                  # 8-byte Folded Reload
.Ltmp242:
	.loc	1 126 5                         # ./euler3d_no_memcpytosymbol.cu:126:5
	jne	.LBB0_72
.Ltmp243:
.LBB0_85:                               # %for.cond.cleanup71
	#DEBUG_VALUE: dump:variables <- [DW_OP_LLVM_entry_value 1] $rdi
	#DEBUG_VALUE: dump:nel <- [DW_OP_plus_uconst 4] [$rsp+0]
	#DEBUG_VALUE: dump:nelr <- [DW_OP_plus_uconst 8] [$rsp+0]
	#DEBUG_VALUE: dump:h_variables <- [DW_OP_plus_uconst 24, DW_OP_deref] $rsp
	#DEBUG_VALUE: ~basic_ofstream:this <- [DW_OP_plus_uconst 56, DW_OP_stack_value] $rsp
	#DEBUG_VALUE: ~basic_ofstream:this <- [DW_OP_plus_uconst 56, DW_OP_stack_value] $rsp
	.loc	1 0 5                           # ./euler3d_no_memcpytosymbol.cu:0:5
	movq	40(%rsp), %rax                  # 8-byte Reload
.Ltmp244:
	.loc	11 870 7 is_stmt 1              # /usr/lib/gcc/x86_64-linux-gnu/13/../../../../include/c++/13/fstream:870:7
	movq	%rax, 56(%rsp)
	movq	-24(%rax), %rax
	movq	32(%rsp), %rcx                  # 8-byte Reload
	movq	%rcx, 56(%rsp,%rax)
.Ltmp245:
	.loc	11 870 9 is_stmt 0              # /usr/lib/gcc/x86_64-linux-gnu/13/../../../../include/c++/13/fstream:870:9
	leaq	64(%rsp), %rdi
	callq	_ZNSt13basic_filebufIcSt11char_traitsIcEED2Ev@PLT
.Ltmp246:
	.loc	11 870 7                        # /usr/lib/gcc/x86_64-linux-gnu/13/../../../../include/c++/13/fstream:870:7
	leaq	304(%rsp), %rdi
	callq	_ZNSt8ios_baseD2Ev@PLT
.Ltmp247:
	.loc	1 129 3 is_stmt 1               # ./euler3d_no_memcpytosymbol.cu:129:3
	movq	%rbp, %rdi
	callq	_ZdaPv@PLT
.Ltmp248:
	#DEBUG_VALUE: ~basic_ofstream:vtt <- undef
	.loc	1 130 1 epilogue_begin          # ./euler3d_no_memcpytosymbol.cu:130:1
	addq	$568, %rsp                      # imm = 0x238
	.cfi_def_cfa_offset 56
	popq	%rbx
	.cfi_def_cfa_offset 48
	popq	%r12
	.cfi_def_cfa_offset 40
	popq	%r13
	.cfi_def_cfa_offset 32
	popq	%r14
	.cfi_def_cfa_offset 24
	popq	%r15
	.cfi_def_cfa_offset 16
	popq	%rbp
	.cfi_def_cfa_offset 8
	retq
.Ltmp249:
.LBB0_16:                               # %if.then.i.i.i100
	.cfi_def_cfa_offset 624
	#DEBUG_VALUE: dump:variables <- [DW_OP_LLVM_entry_value 1] $rdi
	#DEBUG_VALUE: dump:nel <- [DW_OP_plus_uconst 4] [$rsp+0]
	#DEBUG_VALUE: dump:nelr <- $ebp
	#DEBUG_VALUE: dump:h_variables <- $r14
	#DEBUG_VALUE: i <- $rbx
	#DEBUG_VALUE: operator<<:this <- $r12
	#DEBUG_VALUE: endl<char, std::char_traits<char> >:__os <- $r12
	#DEBUG_VALUE: widen:__c <- 10
	#DEBUG_VALUE: widen:this <- [DW_OP_LLVM_arg 0, DW_OP_LLVM_arg 1, DW_OP_plus, DW_OP_stack_value] $r12, $rax
	#DEBUG_VALUE: __check_facet<std::ctype<char> >:__f <- $r13
.Ltmp90:
	.loc	9 50 2                          # /usr/lib/gcc/x86_64-linux-gnu/13/../../../../include/c++/13/bits/basic_ios.h:50:2
	callq	_ZSt16__throw_bad_castv@PLT
.Ltmp250:
.Ltmp91:
# %bb.17:                               # %.noexc101
	#DEBUG_VALUE: dump:variables <- [DW_OP_LLVM_entry_value 1] $rdi
	#DEBUG_VALUE: dump:nel <- [DW_OP_plus_uconst 4] [$rsp+0]
	#DEBUG_VALUE: dump:nelr <- $ebp
	#DEBUG_VALUE: dump:h_variables <- $r14
	#DEBUG_VALUE: i <- $rbx
	#DEBUG_VALUE: operator<<:this <- $r12
	#DEBUG_VALUE: endl<char, std::char_traits<char> >:__os <- $r12
	#DEBUG_VALUE: widen:__c <- 10
	#DEBUG_VALUE: __check_facet<std::ctype<char> >:__f <- $r13
.LBB0_74:                               # %if.then.i.i.i204
	#DEBUG_VALUE: dump:variables <- [DW_OP_LLVM_entry_value 1] $rdi
	#DEBUG_VALUE: dump:nel <- [DW_OP_plus_uconst 4] [$rsp+0]
	#DEBUG_VALUE: dump:nelr <- [DW_OP_plus_uconst 8] [$rsp+0]
	#DEBUG_VALUE: dump:h_variables <- [DW_OP_plus_uconst 24, DW_OP_deref] $rsp
	#DEBUG_VALUE: i <- $r13
	#DEBUG_VALUE: operator<<:this <- $r15
	#DEBUG_VALUE: endl<char, std::char_traits<char> >:__os <- $r15
	#DEBUG_VALUE: widen:__c <- 10
	#DEBUG_VALUE: widen:this <- [DW_OP_LLVM_arg 0, DW_OP_LLVM_arg 1, DW_OP_plus, DW_OP_stack_value] $r15, $rax
	#DEBUG_VALUE: __check_facet<std::ctype<char> >:__f <- $r12
.Ltmp78:
	.loc	9 50 2 is_stmt 0                # /usr/lib/gcc/x86_64-linux-gnu/13/../../../../include/c++/13/bits/basic_ios.h:50:2
	callq	_ZSt16__throw_bad_castv@PLT
.Ltmp251:
.Ltmp79:
# %bb.77:                               # %.noexc205
	#DEBUG_VALUE: dump:variables <- [DW_OP_LLVM_entry_value 1] $rdi
	#DEBUG_VALUE: dump:nel <- [DW_OP_plus_uconst 4] [$rsp+0]
	#DEBUG_VALUE: dump:nelr <- [DW_OP_plus_uconst 8] [$rsp+0]
	#DEBUG_VALUE: dump:h_variables <- [DW_OP_plus_uconst 24, DW_OP_deref] $rsp
	#DEBUG_VALUE: i <- $r13
	#DEBUG_VALUE: operator<<:this <- $r15
	#DEBUG_VALUE: endl<char, std::char_traits<char> >:__os <- $r15
	#DEBUG_VALUE: widen:__c <- 10
	#DEBUG_VALUE: __check_facet<std::ctype<char> >:__f <- $r12
.LBB0_44:                               # %if.then.i.i.i152
	#DEBUG_VALUE: dump:variables <- [DW_OP_LLVM_entry_value 1] $rdi
	#DEBUG_VALUE: dump:nel <- [DW_OP_plus_uconst 4] [$rsp+0]
	#DEBUG_VALUE: dump:nelr <- [DW_OP_plus_uconst 8] [$rsp+0]
	#DEBUG_VALUE: dump:h_variables <- [DW_OP_plus_uconst 24, DW_OP_deref] $rsp
	#DEBUG_VALUE: i <- $rbp
	#DEBUG_VALUE: operator<<:this <- [DW_OP_plus_uconst 56, DW_OP_stack_value] $rsp
	#DEBUG_VALUE: endl<char, std::char_traits<char> >:__os <- [DW_OP_plus_uconst 56, DW_OP_stack_value] $rsp
	#DEBUG_VALUE: widen:__c <- 10
	#DEBUG_VALUE: __check_facet<std::ctype<char> >:__f <- $r13
.Ltmp84:
	.loc	9 50 2                          # /usr/lib/gcc/x86_64-linux-gnu/13/../../../../include/c++/13/bits/basic_ios.h:50:2
	callq	_ZSt16__throw_bad_castv@PLT
.Ltmp252:
.Ltmp85:
# %bb.45:                               # %.noexc153
	#DEBUG_VALUE: dump:variables <- [DW_OP_LLVM_entry_value 1] $rdi
	#DEBUG_VALUE: dump:nel <- [DW_OP_plus_uconst 4] [$rsp+0]
	#DEBUG_VALUE: dump:nelr <- [DW_OP_plus_uconst 8] [$rsp+0]
	#DEBUG_VALUE: dump:h_variables <- [DW_OP_plus_uconst 24, DW_OP_deref] $rsp
	#DEBUG_VALUE: i <- $rbp
	#DEBUG_VALUE: operator<<:this <- [DW_OP_plus_uconst 56, DW_OP_stack_value] $rsp
	#DEBUG_VALUE: endl<char, std::char_traits<char> >:__os <- [DW_OP_plus_uconst 56, DW_OP_stack_value] $rsp
	#DEBUG_VALUE: widen:__c <- 10
	#DEBUG_VALUE: __check_facet<std::ctype<char> >:__f <- $r13
.LBB0_4:                                # %if.then.i.i.i
	#DEBUG_VALUE: dump:variables <- [DW_OP_LLVM_entry_value 1] $rdi
	#DEBUG_VALUE: dump:nel <- [DW_OP_plus_uconst 4] [$rsp+0]
	#DEBUG_VALUE: dump:nelr <- $ebp
	#DEBUG_VALUE: dump:h_variables <- $r14
	#DEBUG_VALUE: operator<<:this <- $r15
	#DEBUG_VALUE: endl<char, std::char_traits<char> >:__os <- $r15
	#DEBUG_VALUE: widen:__c <- 10
	#DEBUG_VALUE: widen:this <- [DW_OP_LLVM_arg 0, DW_OP_LLVM_arg 1, DW_OP_plus, DW_OP_stack_value] $r15, $rax
	#DEBUG_VALUE: __check_facet<std::ctype<char> >:__f <- $r12
.Ltmp93:
	.loc	9 50 2                          # /usr/lib/gcc/x86_64-linux-gnu/13/../../../../include/c++/13/bits/basic_ios.h:50:2
	callq	_ZSt16__throw_bad_castv@PLT
.Ltmp253:
.Ltmp94:
# %bb.5:                                # %.noexc
	#DEBUG_VALUE: dump:variables <- [DW_OP_LLVM_entry_value 1] $rdi
	#DEBUG_VALUE: dump:nel <- [DW_OP_plus_uconst 4] [$rsp+0]
	#DEBUG_VALUE: dump:nelr <- $ebp
	#DEBUG_VALUE: dump:h_variables <- $r14
	#DEBUG_VALUE: operator<<:this <- $r15
	#DEBUG_VALUE: endl<char, std::char_traits<char> >:__os <- $r15
	#DEBUG_VALUE: widen:__c <- 10
	#DEBUG_VALUE: __check_facet<std::ctype<char> >:__f <- $r12
.LBB0_29:                               # %if.then.i.i.i126
	#DEBUG_VALUE: dump:variables <- [DW_OP_LLVM_entry_value 1] $rdi
	#DEBUG_VALUE: dump:nel <- [DW_OP_plus_uconst 4] [$rsp+0]
	#DEBUG_VALUE: dump:nelr <- $ebp
	#DEBUG_VALUE: dump:h_variables <- $r14
	#DEBUG_VALUE: operator<<:this <- $r15
	#DEBUG_VALUE: endl<char, std::char_traits<char> >:__os <- $r15
	#DEBUG_VALUE: widen:__c <- 10
	#DEBUG_VALUE: widen:this <- [DW_OP_LLVM_arg 0, DW_OP_LLVM_arg 1, DW_OP_plus, DW_OP_stack_value] $r15, $rax
	#DEBUG_VALUE: __check_facet<std::ctype<char> >:__f <- $r12
.Ltmp87:
	.loc	9 50 2                          # /usr/lib/gcc/x86_64-linux-gnu/13/../../../../include/c++/13/bits/basic_ios.h:50:2
	callq	_ZSt16__throw_bad_castv@PLT
.Ltmp254:
.Ltmp88:
# %bb.32:                               # %.noexc127
	#DEBUG_VALUE: dump:variables <- [DW_OP_LLVM_entry_value 1] $rdi
	#DEBUG_VALUE: dump:nel <- [DW_OP_plus_uconst 4] [$rsp+0]
	#DEBUG_VALUE: dump:nelr <- $ebp
	#DEBUG_VALUE: dump:h_variables <- $r14
	#DEBUG_VALUE: operator<<:this <- $r15
	#DEBUG_VALUE: endl<char, std::char_traits<char> >:__os <- $r15
	#DEBUG_VALUE: widen:__c <- 10
	#DEBUG_VALUE: __check_facet<std::ctype<char> >:__f <- $r12
.LBB0_57:                               # %if.then.i.i.i178
	#DEBUG_VALUE: dump:variables <- [DW_OP_LLVM_entry_value 1] $rdi
	#DEBUG_VALUE: dump:nel <- [DW_OP_plus_uconst 4] [$rsp+0]
	#DEBUG_VALUE: dump:nelr <- [DW_OP_plus_uconst 8] [$rsp+0]
	#DEBUG_VALUE: dump:h_variables <- [DW_OP_plus_uconst 24, DW_OP_deref] $rsp
	#DEBUG_VALUE: operator<<:this <- $r15
	#DEBUG_VALUE: endl<char, std::char_traits<char> >:__os <- $r15
	#DEBUG_VALUE: widen:__c <- 10
	#DEBUG_VALUE: widen:this <- [DW_OP_LLVM_arg 0, DW_OP_LLVM_arg 1, DW_OP_plus, DW_OP_stack_value] $r15, $rax
	#DEBUG_VALUE: __check_facet<std::ctype<char> >:__f <- $r12
.Ltmp81:
	.loc	9 50 2                          # /usr/lib/gcc/x86_64-linux-gnu/13/../../../../include/c++/13/bits/basic_ios.h:50:2
	callq	_ZSt16__throw_bad_castv@PLT
.Ltmp255:
.Ltmp82:
# %bb.63:                               # %.noexc179
	#DEBUG_VALUE: dump:variables <- [DW_OP_LLVM_entry_value 1] $rdi
	#DEBUG_VALUE: dump:nel <- [DW_OP_plus_uconst 4] [$rsp+0]
	#DEBUG_VALUE: dump:nelr <- [DW_OP_plus_uconst 8] [$rsp+0]
	#DEBUG_VALUE: dump:h_variables <- [DW_OP_plus_uconst 24, DW_OP_deref] $rsp
	#DEBUG_VALUE: operator<<:this <- $r15
	#DEBUG_VALUE: endl<char, std::char_traits<char> >:__os <- $r15
	#DEBUG_VALUE: widen:__c <- 10
	#DEBUG_VALUE: __check_facet<std::ctype<char> >:__f <- $r12
.LBB0_76:                               # %lpad59
	#DEBUG_VALUE: dump:variables <- [DW_OP_LLVM_entry_value 1] $rdi
	#DEBUG_VALUE: dump:nel <- [DW_OP_plus_uconst 4] [$rsp+0]
	#DEBUG_VALUE: dump:nelr <- [DW_OP_plus_uconst 8] [$rsp+0]
	#DEBUG_VALUE: dump:h_variables <- [DW_OP_plus_uconst 24, DW_OP_deref] $rsp
	#DEBUG_VALUE: ~basic_ofstream:this <- [DW_OP_plus_uconst 56, DW_OP_stack_value] $rsp
	#DEBUG_VALUE: ~basic_ofstream:this <- [DW_OP_plus_uconst 56, DW_OP_stack_value] $rsp
.Ltmp83:
	.loc	9 0 2                           # /usr/lib/gcc/x86_64-linux-gnu/13/../../../../include/c++/13/bits/basic_ios.h:0:2
	jmp	.LBB0_88
.Ltmp256:
.LBB0_75:                               # %lpad17
	#DEBUG_VALUE: dump:variables <- [DW_OP_LLVM_entry_value 1] $rdi
	#DEBUG_VALUE: dump:nel <- [DW_OP_plus_uconst 4] [$rsp+0]
	#DEBUG_VALUE: dump:nelr <- $ebp
	#DEBUG_VALUE: dump:h_variables <- $r14
	#DEBUG_VALUE: ~basic_ofstream:this <- [DW_OP_plus_uconst 56, DW_OP_stack_value] $rsp
	#DEBUG_VALUE: ~basic_ofstream:this <- [DW_OP_plus_uconst 56, DW_OP_stack_value] $rsp
.Ltmp89:
	jmp	.LBB0_88
.Ltmp257:
.LBB0_89:                               # %lpad
	#DEBUG_VALUE: dump:variables <- [DW_OP_LLVM_entry_value 1] $rdi
	#DEBUG_VALUE: dump:nel <- [DW_OP_plus_uconst 4] [$rsp+0]
	#DEBUG_VALUE: dump:nelr <- $ebp
	#DEBUG_VALUE: dump:h_variables <- $r14
	#DEBUG_VALUE: download<float>:dst <- $r14
.Ltmp95:
	jmp	.LBB0_88
.Ltmp258:
.LBB0_62:                               # %lpad49.loopexit.split-lp
	#DEBUG_VALUE: dump:variables <- [DW_OP_LLVM_entry_value 1] $rdi
	#DEBUG_VALUE: dump:nel <- [DW_OP_plus_uconst 4] [$rsp+0]
	#DEBUG_VALUE: dump:nelr <- [DW_OP_plus_uconst 8] [$rsp+0]
	#DEBUG_VALUE: dump:h_variables <- [DW_OP_plus_uconst 24, DW_OP_deref] $rsp
	#DEBUG_VALUE: i <- $rbp
	#DEBUG_VALUE: operator<<:this <- [DW_OP_plus_uconst 56, DW_OP_stack_value] $rsp
	#DEBUG_VALUE: endl<char, std::char_traits<char> >:__os <- [DW_OP_plus_uconst 56, DW_OP_stack_value] $rsp
	#DEBUG_VALUE: widen:__c <- 10
	#DEBUG_VALUE: __check_facet<std::ctype<char> >:__f <- $r13
.Ltmp86:
	jmp	.LBB0_88
.Ltmp259:
.LBB0_87:                               # %lpad77.loopexit.split-lp
	#DEBUG_VALUE: dump:variables <- [DW_OP_LLVM_entry_value 1] $rdi
	#DEBUG_VALUE: dump:nel <- [DW_OP_plus_uconst 4] [$rsp+0]
	#DEBUG_VALUE: dump:nelr <- [DW_OP_plus_uconst 8] [$rsp+0]
	#DEBUG_VALUE: dump:h_variables <- [DW_OP_plus_uconst 24, DW_OP_deref] $rsp
	#DEBUG_VALUE: i <- $r13
	#DEBUG_VALUE: operator<<:this <- $r15
	#DEBUG_VALUE: endl<char, std::char_traits<char> >:__os <- $r15
	#DEBUG_VALUE: widen:__c <- 10
	#DEBUG_VALUE: __check_facet<std::ctype<char> >:__f <- $r12
.Ltmp80:
	jmp	.LBB0_88
.Ltmp260:
.LBB0_31:                               # %lpad10.loopexit.split-lp
	#DEBUG_VALUE: dump:variables <- [DW_OP_LLVM_entry_value 1] $rdi
	#DEBUG_VALUE: dump:nel <- [DW_OP_plus_uconst 4] [$rsp+0]
	#DEBUG_VALUE: dump:nelr <- $ebp
	#DEBUG_VALUE: dump:h_variables <- $r14
	#DEBUG_VALUE: i <- $rbx
	#DEBUG_VALUE: operator<<:this <- $r12
	#DEBUG_VALUE: endl<char, std::char_traits<char> >:__os <- $r12
	#DEBUG_VALUE: widen:__c <- 10
	#DEBUG_VALUE: __check_facet<std::ctype<char> >:__f <- $r13
.Ltmp92:
	jmp	.LBB0_88
.Ltmp261:
.LBB0_61:                               # %lpad49.loopexit
	#DEBUG_VALUE: dump:variables <- [DW_OP_LLVM_entry_value 1] $rdi
	#DEBUG_VALUE: dump:nel <- [DW_OP_plus_uconst 4] [$rsp+0]
	#DEBUG_VALUE: dump:nelr <- [DW_OP_plus_uconst 8] [$rsp+0]
	#DEBUG_VALUE: dump:h_variables <- [DW_OP_plus_uconst 24, DW_OP_deref] $rsp
	#DEBUG_VALUE: i <- $rbp
	#DEBUG_VALUE: operator<<:this <- [DW_OP_plus_uconst 56, DW_OP_stack_value] $rsp
	#DEBUG_VALUE: endl<char, std::char_traits<char> >:__os <- [DW_OP_plus_uconst 56, DW_OP_stack_value] $rsp
	#DEBUG_VALUE: widen:__c <- 10
	#DEBUG_VALUE: widen:this <- $r13
	#DEBUG_VALUE: widen:__c <- 10
.Ltmp52:
	jmp	.LBB0_88
.Ltmp262:
.LBB0_86:                               # %lpad77.loopexit
	#DEBUG_VALUE: dump:variables <- [DW_OP_LLVM_entry_value 1] $rdi
	#DEBUG_VALUE: dump:nel <- [DW_OP_plus_uconst 4] [$rsp+0]
	#DEBUG_VALUE: dump:nelr <- [DW_OP_plus_uconst 8] [$rsp+0]
	#DEBUG_VALUE: dump:h_variables <- [DW_OP_plus_uconst 24, DW_OP_deref] $rsp
	#DEBUG_VALUE: i <- $r13
	#DEBUG_VALUE: operator<<:this <- [DW_OP_plus_uconst 56, DW_OP_stack_value] $rsp
.Ltmp77:
	jmp	.LBB0_88
.Ltmp263:
.LBB0_30:                               # %lpad10.loopexit
	#DEBUG_VALUE: dump:variables <- [DW_OP_LLVM_entry_value 1] $rdi
	#DEBUG_VALUE: dump:nel <- [DW_OP_plus_uconst 4] [$rsp+0]
	#DEBUG_VALUE: dump:nelr <- $ebp
	#DEBUG_VALUE: dump:h_variables <- $r14
	#DEBUG_VALUE: i <- $rbx
	#DEBUG_VALUE: operator<<:this <- [DW_OP_plus_uconst 56, DW_OP_stack_value] $rsp
.Ltmp24:
	jmp	.LBB0_88
.Ltmp264:
.LBB0_60:                               # %lpad40
	#DEBUG_VALUE: dump:variables <- [DW_OP_LLVM_entry_value 1] $rdi
	#DEBUG_VALUE: dump:nel <- [DW_OP_plus_uconst 4] [$rsp+0]
	#DEBUG_VALUE: dump:nelr <- [DW_OP_plus_uconst 8] [$rsp+0]
	#DEBUG_VALUE: dump:h_variables <- [DW_OP_plus_uconst 24, DW_OP_deref] $rsp
	#DEBUG_VALUE: i <- $rbp
	#DEBUG_VALUE: operator<<:this <- [DW_OP_plus_uconst 56, DW_OP_stack_value] $rsp
.Ltmp43:
.LBB0_88:                               # %ehcleanup86
	#DEBUG_VALUE: dump:variables <- [DW_OP_LLVM_entry_value 1] $rdi
	#DEBUG_VALUE: dump:nel <- [DW_OP_plus_uconst 4] [$rsp+0]
	#DEBUG_VALUE: dump:nelr <- [DW_OP_LLVM_entry_value 1] $edx
	movq	%rax, %rbx
	leaq	56(%rsp), %rdi
	callq	_ZNSt14basic_ofstreamIcSt11char_traitsIcEED1Ev@PLT
.Ltmp265:
	movq	%rbx, %rdi
	callq	_Unwind_Resume@PLT
.Ltmp266:
.Lfunc_end0:
	.size	_Z4dumpPfii, .Lfunc_end0-_Z4dumpPfii
	.cfi_endproc
	.file	12 "/usr/lib/gcc/x86_64-linux-gnu/13/../../../../include/c++/13/bits" "char_traits.h"
	.file	13 "/nethome/cahn45/CuPBoP" "cuda-12.1/include/cuda_runtime_api.h"
	.file	14 "/nethome/cahn45" "llvm-vortex-with-cuda-build/lib/clang/18/include/__stddef_size_t.h"
	.file	15 "/usr/lib/gcc/x86_64-linux-gnu/13/../../../../include/c++/13/bits" "ostream_insert.h"
	.file	16 "/usr/lib/gcc/x86_64-linux-gnu/13/../../../../include/c++/13/bits" "functexcept.h"
	.section	.gcc_except_table,"a",@progbits
	.p2align	2, 0x0
GCC_except_table0:
.Lexception0:
	.byte	255                             # @LPStart Encoding = omit
	.byte	255                             # @TType Encoding = omit
	.byte	1                               # Call site Encoding = uleb128
	.uleb128 .Lcst_end0-.Lcst_begin0
.Lcst_begin0:
	.uleb128 .Lfunc_begin0-.Lfunc_begin0    # >> Call Site 1 <<
	.uleb128 .Ltmp0-.Lfunc_begin0           #   Call between .Lfunc_begin0 and .Ltmp0
	.byte	0                               #     has no landing pad
	.byte	0                               #   On action: cleanup
	.uleb128 .Ltmp0-.Lfunc_begin0           # >> Call Site 2 <<
	.uleb128 .Ltmp13-.Ltmp0                 #   Call between .Ltmp0 and .Ltmp13
	.uleb128 .Ltmp95-.Lfunc_begin0          #     jumps to .Ltmp95
	.byte	0                               #   On action: cleanup
	.uleb128 .Ltmp14-.Lfunc_begin0          # >> Call Site 3 <<
	.uleb128 .Ltmp23-.Ltmp14                #   Call between .Ltmp14 and .Ltmp23
	.uleb128 .Ltmp24-.Lfunc_begin0          #     jumps to .Ltmp24
	.byte	0                               #   On action: cleanup
	.uleb128 .Ltmp23-.Lfunc_begin0          # >> Call Site 4 <<
	.uleb128 .Ltmp25-.Ltmp23                #   Call between .Ltmp23 and .Ltmp25
	.byte	0                               #     has no landing pad
	.byte	0                               #   On action: cleanup
	.uleb128 .Ltmp25-.Lfunc_begin0          # >> Call Site 5 <<
	.uleb128 .Ltmp38-.Ltmp25                #   Call between .Ltmp25 and .Ltmp38
	.uleb128 .Ltmp89-.Lfunc_begin0          #     jumps to .Ltmp89
	.byte	0                               #   On action: cleanup
	.uleb128 .Ltmp39-.Lfunc_begin0          # >> Call Site 6 <<
	.uleb128 .Ltmp42-.Ltmp39                #   Call between .Ltmp39 and .Ltmp42
	.uleb128 .Ltmp43-.Lfunc_begin0          #     jumps to .Ltmp43
	.byte	0                               #   On action: cleanup
	.uleb128 .Ltmp44-.Lfunc_begin0          # >> Call Site 7 <<
	.uleb128 .Ltmp51-.Ltmp44                #   Call between .Ltmp44 and .Ltmp51
	.uleb128 .Ltmp52-.Lfunc_begin0          #     jumps to .Ltmp52
	.byte	0                               #   On action: cleanup
	.uleb128 .Ltmp51-.Lfunc_begin0          # >> Call Site 8 <<
	.uleb128 .Ltmp53-.Ltmp51                #   Call between .Ltmp51 and .Ltmp53
	.byte	0                               #     has no landing pad
	.byte	0                               #   On action: cleanup
	.uleb128 .Ltmp53-.Lfunc_begin0          # >> Call Site 9 <<
	.uleb128 .Ltmp66-.Ltmp53                #   Call between .Ltmp53 and .Ltmp66
	.uleb128 .Ltmp83-.Lfunc_begin0          #     jumps to .Ltmp83
	.byte	0                               #   On action: cleanup
	.uleb128 .Ltmp67-.Lfunc_begin0          # >> Call Site 10 <<
	.uleb128 .Ltmp76-.Ltmp67                #   Call between .Ltmp67 and .Ltmp76
	.uleb128 .Ltmp77-.Lfunc_begin0          #     jumps to .Ltmp77
	.byte	0                               #   On action: cleanup
	.uleb128 .Ltmp90-.Lfunc_begin0          # >> Call Site 11 <<
	.uleb128 .Ltmp91-.Ltmp90                #   Call between .Ltmp90 and .Ltmp91
	.uleb128 .Ltmp92-.Lfunc_begin0          #     jumps to .Ltmp92
	.byte	0                               #   On action: cleanup
	.uleb128 .Ltmp78-.Lfunc_begin0          # >> Call Site 12 <<
	.uleb128 .Ltmp79-.Ltmp78                #   Call between .Ltmp78 and .Ltmp79
	.uleb128 .Ltmp80-.Lfunc_begin0          #     jumps to .Ltmp80
	.byte	0                               #   On action: cleanup
	.uleb128 .Ltmp84-.Lfunc_begin0          # >> Call Site 13 <<
	.uleb128 .Ltmp85-.Ltmp84                #   Call between .Ltmp84 and .Ltmp85
	.uleb128 .Ltmp86-.Lfunc_begin0          #     jumps to .Ltmp86
	.byte	0                               #   On action: cleanup
	.uleb128 .Ltmp93-.Lfunc_begin0          # >> Call Site 14 <<
	.uleb128 .Ltmp94-.Ltmp93                #   Call between .Ltmp93 and .Ltmp94
	.uleb128 .Ltmp95-.Lfunc_begin0          #     jumps to .Ltmp95
	.byte	0                               #   On action: cleanup
	.uleb128 .Ltmp87-.Lfunc_begin0          # >> Call Site 15 <<
	.uleb128 .Ltmp88-.Ltmp87                #   Call between .Ltmp87 and .Ltmp88
	.uleb128 .Ltmp89-.Lfunc_begin0          #     jumps to .Ltmp89
	.byte	0                               #   On action: cleanup
	.uleb128 .Ltmp81-.Lfunc_begin0          # >> Call Site 16 <<
	.uleb128 .Ltmp82-.Ltmp81                #   Call between .Ltmp81 and .Ltmp82
	.uleb128 .Ltmp83-.Lfunc_begin0          #     jumps to .Ltmp83
	.byte	0                               #   On action: cleanup
	.uleb128 .Ltmp82-.Lfunc_begin0          # >> Call Site 17 <<
	.uleb128 .Lfunc_end0-.Ltmp82            #   Call between .Ltmp82 and .Lfunc_end0
	.byte	0                               #     has no landing pad
	.byte	0                               #   On action: cleanup
.Lcst_end0:
	.p2align	2, 0x0
                                        # -- End function
	.text
	.globl	_Z40__device_stub__cuda_initialize_variablesiPfPKf # -- Begin function _Z40__device_stub__cuda_initialize_variablesiPfPKf
	.p2align	4, 0x90
	.type	_Z40__device_stub__cuda_initialize_variablesiPfPKf,@function
_Z40__device_stub__cuda_initialize_variablesiPfPKf: # @_Z40__device_stub__cuda_initialize_variablesiPfPKf
.Lfunc_begin1:
	.loc	1 139 0 is_stmt 1               # ./euler3d_no_memcpytosymbol.cu:139:0
	.cfi_startproc
# %bb.0:                                # %entry
	subq	$104, %rsp
	.cfi_def_cfa_offset 112
	movl	%edi, 12(%rsp)
	movq	%rsi, 72(%rsp)
	movq	%rdx, 64(%rsp)
	leaq	12(%rsp), %rax
.Ltmp267:
	.loc	1 139 69 prologue_end           # ./euler3d_no_memcpytosymbol.cu:139:69
	movq	%rax, 80(%rsp)
	leaq	72(%rsp), %rax
	movq	%rax, 88(%rsp)
	leaq	64(%rsp), %rax
	movq	%rax, 96(%rsp)
	leaq	48(%rsp), %rdi
	leaq	32(%rsp), %rsi
	leaq	24(%rsp), %rdx
	leaq	16(%rsp), %rcx
	callq	__cudaPopCallConfiguration@PLT
.Ltmp268:
	movq	48(%rsp), %rsi
	movl	56(%rsp), %edx
	movq	32(%rsp), %rcx
	movl	40(%rsp), %r8d
	leaq	_Z40__device_stub__cuda_initialize_variablesiPfPKf(%rip), %rdi
	leaq	80(%rsp), %r9
	pushq	16(%rsp)
	.cfi_adjust_cfa_offset 8
	pushq	32(%rsp)
	.cfi_adjust_cfa_offset 8
	callq	cudaLaunchKernel@PLT
.Ltmp269:
	addq	$120, %rsp
	.cfi_adjust_cfa_offset -120
	.loc	1 143 1                         # ./euler3d_no_memcpytosymbol.cu:143:1
	retq
.Ltmp270:
.Lfunc_end1:
	.size	_Z40__device_stub__cuda_initialize_variablesiPfPKf, .Lfunc_end1-_Z40__device_stub__cuda_initialize_variablesiPfPKf
	.cfi_endproc
                                        # -- End function
	.globl	_Z20initialize_variablesiPfPKf  # -- Begin function _Z20initialize_variablesiPfPKf
	.p2align	4, 0x90
	.type	_Z20initialize_variablesiPfPKf,@function
_Z20initialize_variablesiPfPKf:         # @_Z20initialize_variablesiPfPKf
.Lfunc_begin2:
	.loc	1 144 0                         # ./euler3d_no_memcpytosymbol.cu:144:0
	.cfi_startproc
# %bb.0:                                # %entry
	#DEBUG_VALUE: initialize_variables:nelr <- $edi
	#DEBUG_VALUE: initialize_variables:variables <- $rsi
	#DEBUG_VALUE: initialize_variables:d_ff_var <- $rdx
	pushq	%r15
	.cfi_def_cfa_offset 16
	pushq	%r14
	.cfi_def_cfa_offset 24
	pushq	%rbx
	.cfi_def_cfa_offset 32
	subq	$112, %rsp
	.cfi_def_cfa_offset 144
	.cfi_offset %rbx, -32
	.cfi_offset %r14, -24
	.cfi_offset %r15, -16
	movq	%rdx, %rbx
	movq	%rsi, %r14
	movl	%edi, %r15d
.Ltmp271:
	.loc	1 145 16 prologue_end           # ./euler3d_no_memcpytosymbol.cu:145:16
	leal	127(%r15), %edi
.Ltmp272:
	#DEBUG_VALUE: initialize_variables:nelr <- $r15d
	testl	%r15d, %r15d
	cmovnsl	%r15d, %edi
	sarl	$7, %edi
.Ltmp273:
	#DEBUG_VALUE: dim3:vx <- $edi
	#DEBUG_VALUE: dim3:vy <- 1
	#DEBUG_VALUE: dim3:vz <- 1
	#DEBUG_VALUE: initialize_variables:Dg <- [DW_OP_LLVM_fragment 0 32] $edi
	.loc	1 0 16 is_stmt 0                # ./euler3d_no_memcpytosymbol.cu:0:16
	movabsq	$4294967296, %rdx               # imm = 0x100000000
.Ltmp274:
	#DEBUG_VALUE: initialize_variables:d_ff_var <- $rbx
	.loc	7 423 138 is_stmt 1             # cuda-12.1/include/vector_types.h:423:138
	orq	%rdx, %rdi
.Ltmp275:
	#DEBUG_VALUE: initialize_variables:Dg <- [DW_OP_LLVM_fragment 32 32] $rdi
	#DEBUG_VALUE: initialize_variables:Dg <- [DW_OP_LLVM_fragment 64 32] 1
	#DEBUG_VALUE: dim3:vx <- 128
	#DEBUG_VALUE: dim3:vy <- 1
	#DEBUG_VALUE: dim3:vz <- 1
	#DEBUG_VALUE: initialize_variables:Db <- [DW_OP_LLVM_fragment 0 32] 128
	#DEBUG_VALUE: initialize_variables:Db <- [DW_OP_LLVM_fragment 32 32] 4294967424
	#DEBUG_VALUE: initialize_variables:Db <- [DW_OP_LLVM_fragment 64 32] 1
	.loc	1 146 28                        # ./euler3d_no_memcpytosymbol.cu:146:28
	orq	$128, %rdx
	movl	$1, %esi
.Ltmp276:
	#DEBUG_VALUE: initialize_variables:variables <- $r14
	movl	$1, %ecx
	xorl	%r8d, %r8d
	xorl	%r9d, %r9d
	callq	__cudaPushCallConfiguration@PLT
.Ltmp277:
	testl	%eax, %eax
	.loc	1 146 3 is_stmt 0               # ./euler3d_no_memcpytosymbol.cu:146:3
	jne	.LBB2_2
.Ltmp278:
# %bb.1:                                # %kcall.configok
	#DEBUG_VALUE: initialize_variables:nelr <- $r15d
	#DEBUG_VALUE: initialize_variables:variables <- $r14
	#DEBUG_VALUE: initialize_variables:d_ff_var <- $rbx
	#DEBUG_VALUE: initialize_variables:Dg <- [DW_OP_LLVM_fragment 64 32] 1
	#DEBUG_VALUE: initialize_variables:Db <- [DW_OP_LLVM_fragment 0 32] 128
	#DEBUG_VALUE: initialize_variables:Db <- [DW_OP_LLVM_fragment 32 32] 4294967424
	#DEBUG_VALUE: initialize_variables:Db <- [DW_OP_LLVM_fragment 64 32] 1
	#DEBUG_VALUE: cuda_initialize_variables:nelr <- [DW_OP_plus_uconst 12, DW_OP_deref] $rsp
	#DEBUG_VALUE: cuda_initialize_variables:variables <- [DW_OP_plus_uconst 72, DW_OP_deref] $rsp
	#DEBUG_VALUE: cuda_initialize_variables:ff_variable <- [DW_OP_plus_uconst 64, DW_OP_deref] $rsp
	.loc	1 0 3                           # ./euler3d_no_memcpytosymbol.cu:0:3
	movl	%r15d, 12(%rsp)
	movq	%r14, 72(%rsp)
	movq	%rbx, 64(%rsp)
	leaq	12(%rsp), %rax
.Ltmp279:
	.loc	1 139 69 is_stmt 1              # ./euler3d_no_memcpytosymbol.cu:139:69
	movq	%rax, 80(%rsp)
	leaq	72(%rsp), %rax
	movq	%rax, 88(%rsp)
	leaq	64(%rsp), %rax
	movq	%rax, 96(%rsp)
	leaq	48(%rsp), %rdi
	leaq	32(%rsp), %rsi
	leaq	24(%rsp), %rdx
	leaq	16(%rsp), %rcx
	callq	__cudaPopCallConfiguration@PLT
.Ltmp280:
	movq	48(%rsp), %rsi
	movl	56(%rsp), %edx
	movq	32(%rsp), %rcx
	movl	40(%rsp), %r8d
	leaq	_Z40__device_stub__cuda_initialize_variablesiPfPKf(%rip), %rdi
	leaq	80(%rsp), %r9
	pushq	16(%rsp)
.Ltmp281:
	.cfi_adjust_cfa_offset 8
	pushq	32(%rsp)
	.cfi_adjust_cfa_offset 8
	callq	cudaLaunchKernel@PLT
.Ltmp282:
	addq	$16, %rsp
.Ltmp283:
	.cfi_adjust_cfa_offset -16
.LBB2_2:                                # %kcall.end
	#DEBUG_VALUE: initialize_variables:nelr <- $r15d
	#DEBUG_VALUE: initialize_variables:variables <- $r14
	#DEBUG_VALUE: initialize_variables:d_ff_var <- $rbx
	#DEBUG_VALUE: initialize_variables:Dg <- [DW_OP_LLVM_fragment 64 32] 1
	#DEBUG_VALUE: initialize_variables:Db <- [DW_OP_LLVM_fragment 0 32] 128
	#DEBUG_VALUE: initialize_variables:Db <- [DW_OP_LLVM_fragment 32 32] 4294967424
	#DEBUG_VALUE: initialize_variables:Db <- [DW_OP_LLVM_fragment 64 32] 1
	.loc	1 147 1 epilogue_begin          # ./euler3d_no_memcpytosymbol.cu:147:1
	addq	$112, %rsp
	.cfi_def_cfa_offset 32
	popq	%rbx
.Ltmp284:
	#DEBUG_VALUE: initialize_variables:d_ff_var <- [DW_OP_LLVM_entry_value 1] $rdx
	.cfi_def_cfa_offset 24
	popq	%r14
.Ltmp285:
	#DEBUG_VALUE: initialize_variables:variables <- [DW_OP_LLVM_entry_value 1] $rsi
	.cfi_def_cfa_offset 16
	popq	%r15
.Ltmp286:
	#DEBUG_VALUE: initialize_variables:nelr <- [DW_OP_LLVM_entry_value 1] $edi
	.cfi_def_cfa_offset 8
	retq
.Ltmp287:
.Lfunc_end2:
	.size	_Z20initialize_variablesiPfPKf, .Lfunc_end2-_Z20initialize_variablesiPfPKf
	.cfi_endproc
	.file	17 "/nethome/cahn45" "llvm-vortex-with-cuda-build/lib/clang/18/include/__clang_cuda_runtime_wrapper.h"
                                        # -- End function
	.globl	_Z39__device_stub__cuda_compute_step_factoriPfS_S_ # -- Begin function _Z39__device_stub__cuda_compute_step_factoriPfS_S_
	.p2align	4, 0x90
	.type	_Z39__device_stub__cuda_compute_step_factoriPfS_S_,@function
_Z39__device_stub__cuda_compute_step_factoriPfS_S_: # @_Z39__device_stub__cuda_compute_step_factoriPfS_S_
.Lfunc_begin3:
	.loc	1 195 0                         # ./euler3d_no_memcpytosymbol.cu:195:0
	.cfi_startproc
# %bb.0:                                # %entry
	subq	$120, %rsp
	.cfi_def_cfa_offset 128
	movl	%edi, 4(%rsp)
	movq	%rsi, 72(%rsp)
	movq	%rdx, 64(%rsp)
	movq	%rcx, 56(%rsp)
	leaq	4(%rsp), %rax
.Ltmp288:
	.loc	1 195 77 prologue_end           # ./euler3d_no_memcpytosymbol.cu:195:77
	movq	%rax, 80(%rsp)
	leaq	72(%rsp), %rax
	movq	%rax, 88(%rsp)
	leaq	64(%rsp), %rax
	movq	%rax, 96(%rsp)
	leaq	56(%rsp), %rax
	movq	%rax, 104(%rsp)
	leaq	40(%rsp), %rdi
	leaq	24(%rsp), %rsi
	leaq	16(%rsp), %rdx
	leaq	8(%rsp), %rcx
	callq	__cudaPopCallConfiguration@PLT
.Ltmp289:
	movq	40(%rsp), %rsi
	movl	48(%rsp), %edx
	movq	24(%rsp), %rcx
	movl	32(%rsp), %r8d
	leaq	_Z39__device_stub__cuda_compute_step_factoriPfS_S_(%rip), %rdi
	leaq	80(%rsp), %r9
	pushq	8(%rsp)
	.cfi_adjust_cfa_offset 8
	pushq	24(%rsp)
	.cfi_adjust_cfa_offset 8
	callq	cudaLaunchKernel@PLT
.Ltmp290:
	addq	$136, %rsp
	.cfi_adjust_cfa_offset -136
	.loc	1 214 1                         # ./euler3d_no_memcpytosymbol.cu:214:1
	retq
.Ltmp291:
.Lfunc_end3:
	.size	_Z39__device_stub__cuda_compute_step_factoriPfS_S_, .Lfunc_end3-_Z39__device_stub__cuda_compute_step_factoriPfS_S_
	.cfi_endproc
                                        # -- End function
	.globl	_Z19compute_step_factoriPfS_S_  # -- Begin function _Z19compute_step_factoriPfS_S_
	.p2align	4, 0x90
	.type	_Z19compute_step_factoriPfS_S_,@function
_Z19compute_step_factoriPfS_S_:         # @_Z19compute_step_factoriPfS_S_
.Lfunc_begin4:
	.loc	1 216 0                         # ./euler3d_no_memcpytosymbol.cu:216:0
	.cfi_startproc
# %bb.0:                                # %entry
	#DEBUG_VALUE: compute_step_factor:nelr <- $edi
	#DEBUG_VALUE: compute_step_factor:variables <- $rsi
	#DEBUG_VALUE: compute_step_factor:areas <- $rdx
	#DEBUG_VALUE: compute_step_factor:step_factors <- $rcx
	pushq	%r15
	.cfi_def_cfa_offset 16
	pushq	%r14
	.cfi_def_cfa_offset 24
	pushq	%r12
	.cfi_def_cfa_offset 32
	pushq	%rbx
	.cfi_def_cfa_offset 40
	subq	$120, %rsp
	.cfi_def_cfa_offset 160
	.cfi_offset %rbx, -40
	.cfi_offset %r12, -32
	.cfi_offset %r14, -24
	.cfi_offset %r15, -16
	movq	%rcx, %rbx
	movq	%rdx, %r14
	movq	%rsi, %r15
	movl	%edi, %r12d
.Ltmp292:
	.loc	1 217 16 prologue_end           # ./euler3d_no_memcpytosymbol.cu:217:16
	leal	63(%r12), %edi
.Ltmp293:
	#DEBUG_VALUE: compute_step_factor:nelr <- $r12d
	testl	%r12d, %r12d
	cmovnsl	%r12d, %edi
	sarl	$6, %edi
.Ltmp294:
	#DEBUG_VALUE: dim3:vx <- $edi
	#DEBUG_VALUE: dim3:vy <- 1
	#DEBUG_VALUE: dim3:vz <- 1
	#DEBUG_VALUE: compute_step_factor:Dg <- [DW_OP_LLVM_fragment 0 32] $edi
	.loc	1 0 16 is_stmt 0                # ./euler3d_no_memcpytosymbol.cu:0:16
	movabsq	$4294967296, %rdx               # imm = 0x100000000
.Ltmp295:
	#DEBUG_VALUE: compute_step_factor:areas <- $r14
	.loc	7 423 138 is_stmt 1             # cuda-12.1/include/vector_types.h:423:138
	orq	%rdx, %rdi
.Ltmp296:
	#DEBUG_VALUE: compute_step_factor:Dg <- [DW_OP_LLVM_fragment 32 32] $rdi
	#DEBUG_VALUE: compute_step_factor:Dg <- [DW_OP_LLVM_fragment 64 32] 1
	#DEBUG_VALUE: dim3:vx <- 64
	#DEBUG_VALUE: dim3:vy <- 1
	#DEBUG_VALUE: dim3:vz <- 1
	#DEBUG_VALUE: compute_step_factor:Db <- [DW_OP_LLVM_fragment 0 32] 64
	#DEBUG_VALUE: compute_step_factor:Db <- [DW_OP_LLVM_fragment 32 32] 4294967360
	#DEBUG_VALUE: compute_step_factor:Db <- [DW_OP_LLVM_fragment 64 32] 1
	.loc	1 218 27                        # ./euler3d_no_memcpytosymbol.cu:218:27
	orq	$64, %rdx
	movl	$1, %esi
.Ltmp297:
	#DEBUG_VALUE: compute_step_factor:variables <- $r15
	movl	$1, %ecx
.Ltmp298:
	#DEBUG_VALUE: compute_step_factor:step_factors <- $rbx
	xorl	%r8d, %r8d
	xorl	%r9d, %r9d
	callq	__cudaPushCallConfiguration@PLT
.Ltmp299:
	testl	%eax, %eax
	.loc	1 218 3 is_stmt 0               # ./euler3d_no_memcpytosymbol.cu:218:3
	jne	.LBB4_2
.Ltmp300:
# %bb.1:                                # %kcall.configok
	#DEBUG_VALUE: compute_step_factor:nelr <- $r12d
	#DEBUG_VALUE: compute_step_factor:variables <- $r15
	#DEBUG_VALUE: compute_step_factor:areas <- $r14
	#DEBUG_VALUE: compute_step_factor:step_factors <- $rbx
	#DEBUG_VALUE: compute_step_factor:Dg <- [DW_OP_LLVM_fragment 64 32] 1
	#DEBUG_VALUE: compute_step_factor:Db <- [DW_OP_LLVM_fragment 0 32] 64
	#DEBUG_VALUE: compute_step_factor:Db <- [DW_OP_LLVM_fragment 32 32] 4294967360
	#DEBUG_VALUE: compute_step_factor:Db <- [DW_OP_LLVM_fragment 64 32] 1
	#DEBUG_VALUE: cuda_compute_step_factor:nelr <- [DW_OP_plus_uconst 4, DW_OP_deref] $rsp
	#DEBUG_VALUE: cuda_compute_step_factor:variables <- [DW_OP_plus_uconst 72, DW_OP_deref] $rsp
	#DEBUG_VALUE: cuda_compute_step_factor:areas <- [DW_OP_plus_uconst 64, DW_OP_deref] $rsp
	#DEBUG_VALUE: cuda_compute_step_factor:step_factors <- [DW_OP_plus_uconst 56, DW_OP_deref] $rsp
	.loc	1 0 3                           # ./euler3d_no_memcpytosymbol.cu:0:3
	movl	%r12d, 4(%rsp)
	movq	%r15, 72(%rsp)
	movq	%r14, 64(%rsp)
	movq	%rbx, 56(%rsp)
	leaq	4(%rsp), %rax
.Ltmp301:
	.loc	1 195 77 is_stmt 1              # ./euler3d_no_memcpytosymbol.cu:195:77
	movq	%rax, 80(%rsp)
	leaq	72(%rsp), %rax
	movq	%rax, 88(%rsp)
	leaq	64(%rsp), %rax
	movq	%rax, 96(%rsp)
	leaq	56(%rsp), %rax
	movq	%rax, 104(%rsp)
	leaq	40(%rsp), %rdi
	leaq	24(%rsp), %rsi
	leaq	16(%rsp), %rdx
	leaq	8(%rsp), %rcx
	callq	__cudaPopCallConfiguration@PLT
.Ltmp302:
	movq	40(%rsp), %rsi
	movl	48(%rsp), %edx
	movq	24(%rsp), %rcx
	movl	32(%rsp), %r8d
	leaq	_Z39__device_stub__cuda_compute_step_factoriPfS_S_(%rip), %rdi
	leaq	80(%rsp), %r9
	pushq	8(%rsp)
.Ltmp303:
	.cfi_adjust_cfa_offset 8
	pushq	24(%rsp)
	.cfi_adjust_cfa_offset 8
	callq	cudaLaunchKernel@PLT
.Ltmp304:
	addq	$16, %rsp
.Ltmp305:
	.cfi_adjust_cfa_offset -16
.LBB4_2:                                # %kcall.end
	#DEBUG_VALUE: compute_step_factor:nelr <- $r12d
	#DEBUG_VALUE: compute_step_factor:variables <- $r15
	#DEBUG_VALUE: compute_step_factor:areas <- $r14
	#DEBUG_VALUE: compute_step_factor:step_factors <- $rbx
	#DEBUG_VALUE: compute_step_factor:Dg <- [DW_OP_LLVM_fragment 64 32] 1
	#DEBUG_VALUE: compute_step_factor:Db <- [DW_OP_LLVM_fragment 0 32] 64
	#DEBUG_VALUE: compute_step_factor:Db <- [DW_OP_LLVM_fragment 32 32] 4294967360
	#DEBUG_VALUE: compute_step_factor:Db <- [DW_OP_LLVM_fragment 64 32] 1
	.loc	1 219 1 epilogue_begin          # ./euler3d_no_memcpytosymbol.cu:219:1
	addq	$120, %rsp
	.cfi_def_cfa_offset 40
	popq	%rbx
.Ltmp306:
	#DEBUG_VALUE: compute_step_factor:step_factors <- [DW_OP_LLVM_entry_value 1] $rcx
	.cfi_def_cfa_offset 32
	popq	%r12
.Ltmp307:
	#DEBUG_VALUE: compute_step_factor:nelr <- [DW_OP_LLVM_entry_value 1] $edi
	.cfi_def_cfa_offset 24
	popq	%r14
.Ltmp308:
	#DEBUG_VALUE: compute_step_factor:areas <- [DW_OP_LLVM_entry_value 1] $rdx
	.cfi_def_cfa_offset 16
	popq	%r15
.Ltmp309:
	#DEBUG_VALUE: compute_step_factor:variables <- [DW_OP_LLVM_entry_value 1] $rsi
	.cfi_def_cfa_offset 8
	retq
.Ltmp310:
.Lfunc_end4:
	.size	_Z19compute_step_factoriPfS_S_, .Lfunc_end4-_Z19compute_step_factoriPfS_S_
	.cfi_endproc
                                        # -- End function
	.globl	_Z32__device_stub__cuda_compute_fluxiPKiPKfS2_PfS2_PK6float3S6_S6_S6_ # -- Begin function _Z32__device_stub__cuda_compute_fluxiPKiPKfS2_PfS2_PK6float3S6_S6_S6_
	.p2align	4, 0x90
	.type	_Z32__device_stub__cuda_compute_fluxiPKiPKfS2_PfS2_PK6float3S6_S6_S6_,@function
_Z32__device_stub__cuda_compute_fluxiPKiPKfS2_PfS2_PK6float3S6_S6_S6_: # @_Z32__device_stub__cuda_compute_fluxiPKiPKfS2_PfS2_PK6float3S6_S6_S6_
.Lfunc_begin5:
	.loc	1 233 0                         # ./euler3d_no_memcpytosymbol.cu:233:0
	.cfi_startproc
# %bb.0:                                # %entry
	subq	$184, %rsp
	.cfi_def_cfa_offset 192
	movl	%edi, 4(%rsp)
	movq	%rsi, 88(%rsp)
	movq	%rdx, 80(%rsp)
	movq	%rcx, 72(%rsp)
	movq	%r8, 64(%rsp)
	movq	%r9, 56(%rsp)
	leaq	4(%rsp), %rax
.Ltmp311:
	.loc	1 233 1 prologue_end            # ./euler3d_no_memcpytosymbol.cu:233:1
	movq	%rax, 96(%rsp)
	leaq	88(%rsp), %rax
	movq	%rax, 104(%rsp)
	leaq	80(%rsp), %rax
	movq	%rax, 112(%rsp)
	leaq	72(%rsp), %rax
	movq	%rax, 120(%rsp)
	leaq	64(%rsp), %rax
	movq	%rax, 128(%rsp)
	leaq	56(%rsp), %rax
	movq	%rax, 136(%rsp)
	leaq	192(%rsp), %rax
	movq	%rax, 144(%rsp)
	leaq	200(%rsp), %rax
	movq	%rax, 152(%rsp)
	leaq	208(%rsp), %rax
	movq	%rax, 160(%rsp)
	leaq	216(%rsp), %rax
	movq	%rax, 168(%rsp)
	leaq	40(%rsp), %rdi
	leaq	24(%rsp), %rsi
	leaq	16(%rsp), %rdx
	leaq	8(%rsp), %rcx
	callq	__cudaPopCallConfiguration@PLT
.Ltmp312:
	movq	40(%rsp), %rsi
	movl	48(%rsp), %edx
	movq	24(%rsp), %rcx
	movl	32(%rsp), %r8d
	leaq	_Z32__device_stub__cuda_compute_fluxiPKiPKfS2_PfS2_PK6float3S6_S6_S6_(%rip), %rdi
	leaq	96(%rsp), %r9
	pushq	8(%rsp)
	.cfi_adjust_cfa_offset 8
	pushq	24(%rsp)
	.cfi_adjust_cfa_offset 8
	callq	cudaLaunchKernel@PLT
.Ltmp313:
	addq	$200, %rsp
	.cfi_adjust_cfa_offset -200
	.loc	1 411 1                         # ./euler3d_no_memcpytosymbol.cu:411:1
	retq
.Ltmp314:
.Lfunc_end5:
	.size	_Z32__device_stub__cuda_compute_fluxiPKiPKfS2_PfS2_PK6float3S6_S6_S6_, .Lfunc_end5-_Z32__device_stub__cuda_compute_fluxiPKiPKfS2_PfS2_PK6float3S6_S6_S6_
	.cfi_endproc
                                        # -- End function
	.globl	_Z12compute_fluxiPiPfS0_S0_PKfPK6float3S5_S5_S5_ # -- Begin function _Z12compute_fluxiPiPfS0_S0_PKfPK6float3S5_S5_S5_
	.p2align	4, 0x90
	.type	_Z12compute_fluxiPiPfS0_S0_PKfPK6float3S5_S5_S5_,@function
_Z12compute_fluxiPiPfS0_S0_PKfPK6float3S5_S5_S5_: # @_Z12compute_fluxiPiPfS0_S0_PKfPK6float3S5_S5_S5_
.Lfunc_begin6:
	.loc	1 419 0                         # ./euler3d_no_memcpytosymbol.cu:419:0
	.cfi_startproc
# %bb.0:                                # %entry
	#DEBUG_VALUE: compute_flux:nelr <- $edi
	#DEBUG_VALUE: compute_flux:elements_surrounding_elements <- $rsi
	#DEBUG_VALUE: compute_flux:normals <- $rdx
	#DEBUG_VALUE: compute_flux:variables <- $rcx
	#DEBUG_VALUE: compute_flux:fluxes <- $r8
	#DEBUG_VALUE: compute_flux:d_ff_var <- $r9
	pushq	%rbp
	.cfi_def_cfa_offset 16
	pushq	%r15
	.cfi_def_cfa_offset 24
	pushq	%r14
	.cfi_def_cfa_offset 32
	pushq	%r13
	.cfi_def_cfa_offset 40
	pushq	%r12
	.cfi_def_cfa_offset 48
	pushq	%rbx
	.cfi_def_cfa_offset 56
	subq	$216, %rsp
	.cfi_def_cfa_offset 272
	.cfi_offset %rbx, -56
	.cfi_offset %r12, -48
	.cfi_offset %r13, -40
	.cfi_offset %r14, -32
	.cfi_offset %r15, -24
	.cfi_offset %rbp, -16
.Ltmp315:
	#DEBUG_VALUE: compute_flux:d_ff_mx <- [DW_OP_plus_uconst 272] [$rsp+0]
	#DEBUG_VALUE: compute_flux:d_ff_my <- [DW_OP_plus_uconst 280] [$rsp+0]
	#DEBUG_VALUE: compute_flux:d_ff_mz <- [DW_OP_plus_uconst 288] [$rsp+0]
	#DEBUG_VALUE: compute_flux:d_ff_de <- [DW_OP_plus_uconst 296] [$rsp+0]
	movq	%r9, %rbx
	movq	%r8, %r14
	movq	%rcx, %r15
	movq	%rdx, %r12
	movq	%rsi, %r13
	movl	%edi, %ebp
.Ltmp316:
	.loc	1 420 16 prologue_end           # ./euler3d_no_memcpytosymbol.cu:420:16
	leal	63(%rbp), %edi
.Ltmp317:
	#DEBUG_VALUE: compute_flux:nelr <- $ebp
	testl	%ebp, %ebp
	cmovnsl	%ebp, %edi
	sarl	$6, %edi
.Ltmp318:
	#DEBUG_VALUE: dim3:vx <- $edi
	#DEBUG_VALUE: dim3:vy <- 1
	#DEBUG_VALUE: dim3:vz <- 1
	#DEBUG_VALUE: compute_flux:Dg <- [DW_OP_LLVM_fragment 0 32] $edi
	.loc	1 0 16 is_stmt 0                # ./euler3d_no_memcpytosymbol.cu:0:16
	movabsq	$4294967296, %rdx               # imm = 0x100000000
.Ltmp319:
	#DEBUG_VALUE: compute_flux:normals <- $r12
	.loc	7 423 138 is_stmt 1             # cuda-12.1/include/vector_types.h:423:138
	orq	%rdx, %rdi
.Ltmp320:
	#DEBUG_VALUE: compute_flux:Dg <- [DW_OP_LLVM_fragment 32 32] $rdi
	#DEBUG_VALUE: compute_flux:Dg <- [DW_OP_LLVM_fragment 64 32] 1
	#DEBUG_VALUE: dim3:vx <- 64
	#DEBUG_VALUE: dim3:vy <- 1
	#DEBUG_VALUE: dim3:vz <- 1
	#DEBUG_VALUE: compute_flux:Db <- [DW_OP_LLVM_fragment 0 32] 64
	#DEBUG_VALUE: compute_flux:Db <- [DW_OP_LLVM_fragment 32 32] 4294967360
	#DEBUG_VALUE: compute_flux:Db <- [DW_OP_LLVM_fragment 64 32] 1
	.loc	1 421 20                        # ./euler3d_no_memcpytosymbol.cu:421:20
	orq	$64, %rdx
	movl	$1, %esi
.Ltmp321:
	#DEBUG_VALUE: compute_flux:elements_surrounding_elements <- $r13
	movl	$1, %ecx
.Ltmp322:
	#DEBUG_VALUE: compute_flux:variables <- $r15
	xorl	%r8d, %r8d
.Ltmp323:
	#DEBUG_VALUE: compute_flux:fluxes <- $r14
	xorl	%r9d, %r9d
.Ltmp324:
	#DEBUG_VALUE: compute_flux:d_ff_var <- $rbx
	callq	__cudaPushCallConfiguration@PLT
.Ltmp325:
	testl	%eax, %eax
	.loc	1 421 3 is_stmt 0               # ./euler3d_no_memcpytosymbol.cu:421:3
	jne	.LBB6_2
.Ltmp326:
# %bb.1:                                # %kcall.configok
	#DEBUG_VALUE: compute_flux:nelr <- $ebp
	#DEBUG_VALUE: compute_flux:elements_surrounding_elements <- $r13
	#DEBUG_VALUE: compute_flux:normals <- $r12
	#DEBUG_VALUE: compute_flux:variables <- $r15
	#DEBUG_VALUE: compute_flux:fluxes <- $r14
	#DEBUG_VALUE: compute_flux:d_ff_var <- $rbx
	#DEBUG_VALUE: compute_flux:d_ff_mx <- [DW_OP_plus_uconst 272] [$rsp+0]
	#DEBUG_VALUE: compute_flux:d_ff_my <- [DW_OP_plus_uconst 280] [$rsp+0]
	#DEBUG_VALUE: compute_flux:d_ff_mz <- [DW_OP_plus_uconst 288] [$rsp+0]
	#DEBUG_VALUE: compute_flux:d_ff_de <- [DW_OP_plus_uconst 296] [$rsp+0]
	#DEBUG_VALUE: compute_flux:Dg <- [DW_OP_LLVM_fragment 64 32] 1
	#DEBUG_VALUE: compute_flux:Db <- [DW_OP_LLVM_fragment 0 32] 64
	#DEBUG_VALUE: compute_flux:Db <- [DW_OP_LLVM_fragment 32 32] 4294967360
	#DEBUG_VALUE: compute_flux:Db <- [DW_OP_LLVM_fragment 64 32] 1
	.loc	1 0 3                           # ./euler3d_no_memcpytosymbol.cu:0:3
	movq	296(%rsp), %rax
	movq	288(%rsp), %rcx
	movq	280(%rsp), %rdx
	movq	272(%rsp), %rsi
.Ltmp327:
	#DEBUG_VALUE: cuda_compute_flux:nelr <- [DW_OP_plus_uconst 4, DW_OP_deref] $rsp
	#DEBUG_VALUE: cuda_compute_flux:elements_surrounding_elements <- [DW_OP_plus_uconst 120, DW_OP_deref] $rsp
	#DEBUG_VALUE: cuda_compute_flux:normals <- [DW_OP_plus_uconst 112, DW_OP_deref] $rsp
	#DEBUG_VALUE: cuda_compute_flux:variables <- [DW_OP_plus_uconst 104, DW_OP_deref] $rsp
	#DEBUG_VALUE: cuda_compute_flux:fluxes <- [DW_OP_plus_uconst 96, DW_OP_deref] $rsp
	#DEBUG_VALUE: cuda_compute_flux:ff_variable <- [DW_OP_plus_uconst 88, DW_OP_deref] $rsp
	#DEBUG_VALUE: cuda_compute_flux:ff_flux_contribution_momentum_x <- [DW_OP_plus_uconst 80, DW_OP_deref] $rsp
	#DEBUG_VALUE: cuda_compute_flux:ff_flux_contribution_momentum_y <- [DW_OP_plus_uconst 72, DW_OP_deref] $rsp
	#DEBUG_VALUE: cuda_compute_flux:ff_flux_contribution_momentum_z <- [DW_OP_plus_uconst 64, DW_OP_deref] $rsp
	#DEBUG_VALUE: cuda_compute_flux:ff_flux_contribution_density_energy <- [DW_OP_plus_uconst 56, DW_OP_deref] $rsp
	movl	%ebp, 4(%rsp)
	movq	%r13, 120(%rsp)
	movq	%r12, 112(%rsp)
	movq	%r15, 104(%rsp)
	movq	%r14, 96(%rsp)
	movq	%rbx, 88(%rsp)
	movq	%rsi, 80(%rsp)
	movq	%rdx, 72(%rsp)
	movq	%rcx, 64(%rsp)
	movq	%rax, 56(%rsp)
	leaq	4(%rsp), %rax
.Ltmp328:
	.loc	1 233 1 is_stmt 1               # ./euler3d_no_memcpytosymbol.cu:233:1
	movq	%rax, 128(%rsp)
	leaq	120(%rsp), %rax
	movq	%rax, 136(%rsp)
	leaq	112(%rsp), %rax
	movq	%rax, 144(%rsp)
	leaq	104(%rsp), %rax
	movq	%rax, 152(%rsp)
	leaq	96(%rsp), %rax
	movq	%rax, 160(%rsp)
	leaq	88(%rsp), %rax
	movq	%rax, 168(%rsp)
	leaq	80(%rsp), %rax
	movq	%rax, 176(%rsp)
	leaq	72(%rsp), %rax
	movq	%rax, 184(%rsp)
	leaq	64(%rsp), %rax
	movq	%rax, 192(%rsp)
	leaq	56(%rsp), %rax
	movq	%rax, 200(%rsp)
	leaq	40(%rsp), %rdi
	leaq	24(%rsp), %rsi
	leaq	16(%rsp), %rdx
	leaq	8(%rsp), %rcx
	callq	__cudaPopCallConfiguration@PLT
.Ltmp329:
	movq	40(%rsp), %rsi
	movl	48(%rsp), %edx
	movq	24(%rsp), %rcx
	movl	32(%rsp), %r8d
	leaq	_Z32__device_stub__cuda_compute_fluxiPKiPKfS2_PfS2_PK6float3S6_S6_S6_(%rip), %rdi
	leaq	128(%rsp), %r9
	pushq	8(%rsp)
.Ltmp330:
	.cfi_adjust_cfa_offset 8
	pushq	24(%rsp)
	.cfi_adjust_cfa_offset 8
	callq	cudaLaunchKernel@PLT
.Ltmp331:
	addq	$16, %rsp
.Ltmp332:
	.cfi_adjust_cfa_offset -16
.LBB6_2:                                # %kcall.end
	#DEBUG_VALUE: compute_flux:nelr <- $ebp
	#DEBUG_VALUE: compute_flux:elements_surrounding_elements <- $r13
	#DEBUG_VALUE: compute_flux:normals <- $r12
	#DEBUG_VALUE: compute_flux:variables <- $r15
	#DEBUG_VALUE: compute_flux:fluxes <- $r14
	#DEBUG_VALUE: compute_flux:d_ff_var <- $rbx
	#DEBUG_VALUE: compute_flux:Dg <- [DW_OP_LLVM_fragment 64 32] 1
	#DEBUG_VALUE: compute_flux:Db <- [DW_OP_LLVM_fragment 0 32] 64
	#DEBUG_VALUE: compute_flux:Db <- [DW_OP_LLVM_fragment 32 32] 4294967360
	#DEBUG_VALUE: compute_flux:Db <- [DW_OP_LLVM_fragment 64 32] 1
	.loc	1 424 1 epilogue_begin          # ./euler3d_no_memcpytosymbol.cu:424:1
	addq	$216, %rsp
	.cfi_def_cfa_offset 56
	popq	%rbx
.Ltmp333:
	#DEBUG_VALUE: compute_flux:d_ff_var <- [DW_OP_LLVM_entry_value 1] $r9
	.cfi_def_cfa_offset 48
	popq	%r12
.Ltmp334:
	#DEBUG_VALUE: compute_flux:normals <- [DW_OP_LLVM_entry_value 1] $rdx
	.cfi_def_cfa_offset 40
	popq	%r13
.Ltmp335:
	#DEBUG_VALUE: compute_flux:elements_surrounding_elements <- [DW_OP_LLVM_entry_value 1] $rsi
	.cfi_def_cfa_offset 32
	popq	%r14
.Ltmp336:
	#DEBUG_VALUE: compute_flux:fluxes <- [DW_OP_LLVM_entry_value 1] $r8
	.cfi_def_cfa_offset 24
	popq	%r15
.Ltmp337:
	#DEBUG_VALUE: compute_flux:variables <- [DW_OP_LLVM_entry_value 1] $rcx
	.cfi_def_cfa_offset 16
	popq	%rbp
.Ltmp338:
	#DEBUG_VALUE: compute_flux:nelr <- [DW_OP_LLVM_entry_value 1] $edi
	.cfi_def_cfa_offset 8
	retq
.Ltmp339:
.Lfunc_end6:
	.size	_Z12compute_fluxiPiPfS0_S0_PKfPK6float3S5_S5_S5_, .Lfunc_end6-_Z12compute_fluxiPiPfS0_S0_PKfPK6float3S5_S5_S5_
	.cfi_endproc
                                        # -- End function
	.globl	_Z29__device_stub__cuda_time_stepiiPfS_S_S_ # -- Begin function _Z29__device_stub__cuda_time_stepiiPfS_S_S_
	.p2align	4, 0x90
	.type	_Z29__device_stub__cuda_time_stepiiPfS_S_S_,@function
_Z29__device_stub__cuda_time_stepiiPfS_S_S_: # @_Z29__device_stub__cuda_time_stepiiPfS_S_S_
.Lfunc_begin7:
	.loc	1 428 0                         # ./euler3d_no_memcpytosymbol.cu:428:0
	.cfi_startproc
# %bb.0:                                # %entry
	subq	$152, %rsp
	.cfi_def_cfa_offset 160
	movl	%edi, 12(%rsp)
	movl	%esi, 8(%rsp)
	movq	%rdx, 88(%rsp)
	movq	%rcx, 80(%rsp)
	movq	%r8, 72(%rsp)
	movq	%r9, 64(%rsp)
	leaq	12(%rsp), %rax
.Ltmp340:
	.loc	1 428 47 prologue_end           # ./euler3d_no_memcpytosymbol.cu:428:47
	movq	%rax, 96(%rsp)
	leaq	8(%rsp), %rax
	movq	%rax, 104(%rsp)
	leaq	88(%rsp), %rax
	movq	%rax, 112(%rsp)
	leaq	80(%rsp), %rax
	movq	%rax, 120(%rsp)
	leaq	72(%rsp), %rax
	movq	%rax, 128(%rsp)
	leaq	64(%rsp), %rax
	movq	%rax, 136(%rsp)
	leaq	48(%rsp), %rdi
	leaq	32(%rsp), %rsi
	leaq	24(%rsp), %rdx
	leaq	16(%rsp), %rcx
	callq	__cudaPopCallConfiguration@PLT
.Ltmp341:
	movq	48(%rsp), %rsi
	movl	56(%rsp), %edx
	movq	32(%rsp), %rcx
	movl	40(%rsp), %r8d
	leaq	_Z29__device_stub__cuda_time_stepiiPfS_S_S_(%rip), %rdi
	leaq	96(%rsp), %r9
	pushq	16(%rsp)
	.cfi_adjust_cfa_offset 8
	pushq	32(%rsp)
	.cfi_adjust_cfa_offset 8
	callq	cudaLaunchKernel@PLT
.Ltmp342:
	addq	$168, %rsp
	.cfi_adjust_cfa_offset -168
	.loc	1 447 1                         # ./euler3d_no_memcpytosymbol.cu:447:1
	retq
.Ltmp343:
.Lfunc_end7:
	.size	_Z29__device_stub__cuda_time_stepiiPfS_S_S_, .Lfunc_end7-_Z29__device_stub__cuda_time_stepiiPfS_S_S_
	.cfi_endproc
                                        # -- End function
	.globl	_Z9time_stepiiPfS_S_S_          # -- Begin function _Z9time_stepiiPfS_S_S_
	.p2align	4, 0x90
	.type	_Z9time_stepiiPfS_S_S_,@function
_Z9time_stepiiPfS_S_S_:                 # @_Z9time_stepiiPfS_S_S_
.Lfunc_begin8:
	.loc	1 449 0                         # ./euler3d_no_memcpytosymbol.cu:449:0
	.cfi_startproc
# %bb.0:                                # %entry
	#DEBUG_VALUE: time_step:j <- $edi
	#DEBUG_VALUE: time_step:nelr <- $esi
	#DEBUG_VALUE: time_step:old_variables <- $rdx
	#DEBUG_VALUE: time_step:variables <- $rcx
	#DEBUG_VALUE: time_step:step_factors <- $r8
	#DEBUG_VALUE: time_step:fluxes <- $r9
	pushq	%rbp
	.cfi_def_cfa_offset 16
	pushq	%r15
	.cfi_def_cfa_offset 24
	pushq	%r14
	.cfi_def_cfa_offset 32
	pushq	%r13
	.cfi_def_cfa_offset 40
	pushq	%r12
	.cfi_def_cfa_offset 48
	pushq	%rbx
	.cfi_def_cfa_offset 56
	subq	$152, %rsp
	.cfi_def_cfa_offset 208
	.cfi_offset %rbx, -56
	.cfi_offset %r12, -48
	.cfi_offset %r13, -40
	.cfi_offset %r14, -32
	.cfi_offset %r15, -24
	.cfi_offset %rbp, -16
	movq	%r9, %rbx
	movq	%r8, %r14
	movq	%rcx, %r15
	movq	%rdx, %r12
	movl	%esi, %ebp
	movl	%edi, %r13d
.Ltmp344:
	.loc	1 450 16 prologue_end           # ./euler3d_no_memcpytosymbol.cu:450:16
	movslq	%esi, %rax
	imulq	$715827883, %rax, %rdi          # imm = 0x2AAAAAAB
.Ltmp345:
	#DEBUG_VALUE: time_step:j <- $r13d
	movq	%rdi, %rax
	shrq	$63, %rax
	sarq	$37, %rdi
	addl	%eax, %edi
.Ltmp346:
	#DEBUG_VALUE: dim3:vx <- $edi
	#DEBUG_VALUE: dim3:vy <- 1
	#DEBUG_VALUE: dim3:vz <- 1
	#DEBUG_VALUE: time_step:Dg <- [DW_OP_LLVM_fragment 0 32] $edi
	.loc	1 0 16 is_stmt 0                # ./euler3d_no_memcpytosymbol.cu:0:16
	movabsq	$4294967296, %rdx               # imm = 0x100000000
.Ltmp347:
	#DEBUG_VALUE: time_step:old_variables <- $r12
	.loc	7 423 138 is_stmt 1             # cuda-12.1/include/vector_types.h:423:138
	orq	%rdx, %rdi
.Ltmp348:
	#DEBUG_VALUE: time_step:Dg <- [DW_OP_LLVM_fragment 32 32] $rdi
	#DEBUG_VALUE: time_step:Dg <- [DW_OP_LLVM_fragment 64 32] 1
	#DEBUG_VALUE: dim3:vx <- 192
	#DEBUG_VALUE: dim3:vy <- 1
	#DEBUG_VALUE: dim3:vz <- 1
	#DEBUG_VALUE: time_step:Db <- [DW_OP_LLVM_fragment 0 32] 192
	#DEBUG_VALUE: time_step:Db <- [DW_OP_LLVM_fragment 32 32] 4294967488
	#DEBUG_VALUE: time_step:Db <- [DW_OP_LLVM_fragment 64 32] 1
	.loc	1 451 17                        # ./euler3d_no_memcpytosymbol.cu:451:17
	orq	$192, %rdx
	movl	$1, %esi
.Ltmp349:
	#DEBUG_VALUE: time_step:nelr <- $ebp
	movl	$1, %ecx
.Ltmp350:
	#DEBUG_VALUE: time_step:variables <- $r15
	xorl	%r8d, %r8d
.Ltmp351:
	#DEBUG_VALUE: time_step:step_factors <- $r14
	xorl	%r9d, %r9d
.Ltmp352:
	#DEBUG_VALUE: time_step:fluxes <- $rbx
	callq	__cudaPushCallConfiguration@PLT
.Ltmp353:
	testl	%eax, %eax
	.loc	1 451 3 is_stmt 0               # ./euler3d_no_memcpytosymbol.cu:451:3
	jne	.LBB8_2
.Ltmp354:
# %bb.1:                                # %kcall.configok
	#DEBUG_VALUE: time_step:j <- $r13d
	#DEBUG_VALUE: time_step:nelr <- $ebp
	#DEBUG_VALUE: time_step:old_variables <- $r12
	#DEBUG_VALUE: time_step:variables <- $r15
	#DEBUG_VALUE: time_step:step_factors <- $r14
	#DEBUG_VALUE: time_step:fluxes <- $rbx
	#DEBUG_VALUE: time_step:Dg <- [DW_OP_LLVM_fragment 64 32] 1
	#DEBUG_VALUE: time_step:Db <- [DW_OP_LLVM_fragment 0 32] 192
	#DEBUG_VALUE: time_step:Db <- [DW_OP_LLVM_fragment 32 32] 4294967488
	#DEBUG_VALUE: time_step:Db <- [DW_OP_LLVM_fragment 64 32] 1
	#DEBUG_VALUE: cuda_time_step:j <- [DW_OP_plus_uconst 12, DW_OP_deref] $rsp
	#DEBUG_VALUE: cuda_time_step:nelr <- [DW_OP_plus_uconst 8, DW_OP_deref] $rsp
	#DEBUG_VALUE: cuda_time_step:old_variables <- [DW_OP_plus_uconst 88, DW_OP_deref] $rsp
	#DEBUG_VALUE: cuda_time_step:variables <- [DW_OP_plus_uconst 80, DW_OP_deref] $rsp
	#DEBUG_VALUE: cuda_time_step:step_factors <- [DW_OP_plus_uconst 72, DW_OP_deref] $rsp
	#DEBUG_VALUE: cuda_time_step:fluxes <- [DW_OP_plus_uconst 64, DW_OP_deref] $rsp
	.loc	1 0 3                           # ./euler3d_no_memcpytosymbol.cu:0:3
	movl	%r13d, 12(%rsp)
	movl	%ebp, 8(%rsp)
	movq	%r12, 88(%rsp)
	movq	%r15, 80(%rsp)
	movq	%r14, 72(%rsp)
	movq	%rbx, 64(%rsp)
	leaq	12(%rsp), %rax
.Ltmp355:
	.loc	1 428 47 is_stmt 1              # ./euler3d_no_memcpytosymbol.cu:428:47
	movq	%rax, 96(%rsp)
	leaq	8(%rsp), %rax
	movq	%rax, 104(%rsp)
	leaq	88(%rsp), %rax
	movq	%rax, 112(%rsp)
	leaq	80(%rsp), %rax
	movq	%rax, 120(%rsp)
	leaq	72(%rsp), %rax
	movq	%rax, 128(%rsp)
	leaq	64(%rsp), %rax
	movq	%rax, 136(%rsp)
	leaq	48(%rsp), %rdi
	leaq	32(%rsp), %rsi
	leaq	24(%rsp), %rdx
	leaq	16(%rsp), %rcx
	callq	__cudaPopCallConfiguration@PLT
.Ltmp356:
	movq	48(%rsp), %rsi
	movl	56(%rsp), %edx
	movq	32(%rsp), %rcx
	movl	40(%rsp), %r8d
	leaq	_Z29__device_stub__cuda_time_stepiiPfS_S_S_(%rip), %rdi
	leaq	96(%rsp), %r9
	pushq	16(%rsp)
.Ltmp357:
	.cfi_adjust_cfa_offset 8
	pushq	32(%rsp)
	.cfi_adjust_cfa_offset 8
	callq	cudaLaunchKernel@PLT
.Ltmp358:
	addq	$16, %rsp
.Ltmp359:
	.cfi_adjust_cfa_offset -16
.LBB8_2:                                # %kcall.end
	#DEBUG_VALUE: time_step:j <- $r13d
	#DEBUG_VALUE: time_step:nelr <- $ebp
	#DEBUG_VALUE: time_step:old_variables <- $r12
	#DEBUG_VALUE: time_step:variables <- $r15
	#DEBUG_VALUE: time_step:step_factors <- $r14
	#DEBUG_VALUE: time_step:fluxes <- $rbx
	#DEBUG_VALUE: time_step:Dg <- [DW_OP_LLVM_fragment 64 32] 1
	#DEBUG_VALUE: time_step:Db <- [DW_OP_LLVM_fragment 0 32] 192
	#DEBUG_VALUE: time_step:Db <- [DW_OP_LLVM_fragment 32 32] 4294967488
	#DEBUG_VALUE: time_step:Db <- [DW_OP_LLVM_fragment 64 32] 1
	.loc	1 453 1 epilogue_begin          # ./euler3d_no_memcpytosymbol.cu:453:1
	addq	$152, %rsp
	.cfi_def_cfa_offset 56
	popq	%rbx
.Ltmp360:
	#DEBUG_VALUE: time_step:fluxes <- [DW_OP_LLVM_entry_value 1] $r9
	.cfi_def_cfa_offset 48
	popq	%r12
.Ltmp361:
	#DEBUG_VALUE: time_step:old_variables <- [DW_OP_LLVM_entry_value 1] $rdx
	.cfi_def_cfa_offset 40
	popq	%r13
.Ltmp362:
	#DEBUG_VALUE: time_step:j <- [DW_OP_LLVM_entry_value 1] $edi
	.cfi_def_cfa_offset 32
	popq	%r14
.Ltmp363:
	#DEBUG_VALUE: time_step:step_factors <- [DW_OP_LLVM_entry_value 1] $r8
	.cfi_def_cfa_offset 24
	popq	%r15
.Ltmp364:
	#DEBUG_VALUE: time_step:variables <- [DW_OP_LLVM_entry_value 1] $rcx
	.cfi_def_cfa_offset 16
	popq	%rbp
.Ltmp365:
	#DEBUG_VALUE: time_step:nelr <- [DW_OP_LLVM_entry_value 1] $esi
	.cfi_def_cfa_offset 8
	retq
.Ltmp366:
.Lfunc_end8:
	.size	_Z9time_stepiiPfS_S_S_, .Lfunc_end8-_Z9time_stepiiPfS_S_S_
	.cfi_endproc
                                        # -- End function
	.section	.rodata.cst16,"aM",@progbits,16
	.p2align	4, 0x0                          # -- Begin function main
.LCPI9_0:
	.long	0x3fb33333                      # float 1.39999998
	.long	0x3fd70a3e                      # float 1.68000007
	.long	0x00000000                      # float 0
	.long	0x00000000                      # float 0
.LCPI9_2:
	.long	0x00000000                      # float 0
	.long	0x3f800000                      # float 1
	.zero	4
	.zero	4
.LCPI9_4:
	.long	0x80000000                      # float -0
	.long	0x80000000                      # float -0
	.long	0x80000000                      # float -0
	.long	0x80000000                      # float -0
	.section	.rodata.cst4,"aM",@progbits,4
	.p2align	2, 0x0
.LCPI9_1:
	.long	0x40410626                      # float 3.01600027
.LCPI9_3:
	.long	0x40ad1b73                      # float 5.40960073
	.text
	.globl	main
	.p2align	4, 0x90
	.type	main,@function
main:                                   # @main
.Lfunc_begin9:
	.loc	1 458 0                         # ./euler3d_no_memcpytosymbol.cu:458:0
	.cfi_startproc
	.cfi_personality 155, DW.ref.__gxx_personality_v0
	.cfi_lsda 27, .Lexception1
# %bb.0:                                # %entry
	#DEBUG_VALUE: main:argc <- $edi
	#DEBUG_VALUE: main:argv <- $rsi
	pushq	%rbp
	.cfi_def_cfa_offset 16
	pushq	%r15
	.cfi_def_cfa_offset 24
	pushq	%r14
	.cfi_def_cfa_offset 32
	pushq	%r13
	.cfi_def_cfa_offset 40
	pushq	%r12
	.cfi_def_cfa_offset 48
	pushq	%rbx
	.cfi_def_cfa_offset 56
	subq	$1000, %rsp                     # imm = 0x3E8
	.cfi_def_cfa_offset 1056
	.cfi_offset %rbx, -56
	.cfi_offset %r12, -48
	.cfi_offset %r13, -40
	.cfi_offset %r14, -32
	.cfi_offset %r15, -24
	.cfi_offset %rbp, -16
	movq	%rsi, %rbx
	movl	%edi, %ebp
.Ltmp429:
	#DEBUG_VALUE: main:h_ff_variable <- [DW_OP_plus_uconst 448, DW_OP_deref] $rsp
	#DEBUG_VALUE: main:h_ff_flux_contribution_momentum_x <- [DW_OP_plus_uconst 432, DW_OP_deref] $rsp
	#DEBUG_VALUE: main:h_ff_flux_contribution_momentum_y <- [DW_OP_plus_uconst 416, DW_OP_deref] $rsp
	#DEBUG_VALUE: main:h_ff_flux_contribution_momentum_z <- [DW_OP_plus_uconst 400, DW_OP_deref] $rsp
	#DEBUG_VALUE: main:h_ff_flux_contribution_density_energy <- [DW_OP_plus_uconst 384, DW_OP_deref] $rsp
	.cfi_escape 0x2e, 0x00
	.loc	1 459 3 prologue_end            # ./euler3d_no_memcpytosymbol.cu:459:3
	leaq	.L.str.4(%rip), %rdi
.Ltmp430:
	#DEBUG_VALUE: main:argc <- $ebp
	movl	$128, %esi
.Ltmp431:
	#DEBUG_VALUE: main:argv <- $rbx
	movl	$64, %edx
	movl	$64, %ecx
	movl	$192, %r8d
	xorl	%eax, %eax
	callq	printf@PLT
.Ltmp432:
	.loc	1 464 12                        # ./euler3d_no_memcpytosymbol.cu:464:12
	cmpl	$1, %ebp
.Ltmp433:
	.loc	1 464 7 is_stmt 0               # ./euler3d_no_memcpytosymbol.cu:464:7
	jg	.LBB9_7
.Ltmp434:
# %bb.1:                                # %if.then
	#DEBUG_VALUE: main:argc <- $ebp
	#DEBUG_VALUE: main:argv <- $rbx
	#DEBUG_VALUE: main:h_ff_variable <- [DW_OP_plus_uconst 448, DW_OP_deref] $rsp
	#DEBUG_VALUE: main:h_ff_flux_contribution_momentum_x <- [DW_OP_plus_uconst 432, DW_OP_deref] $rsp
	#DEBUG_VALUE: main:h_ff_flux_contribution_momentum_y <- [DW_OP_plus_uconst 416, DW_OP_deref] $rsp
	#DEBUG_VALUE: main:h_ff_flux_contribution_momentum_z <- [DW_OP_plus_uconst 400, DW_OP_deref] $rsp
	#DEBUG_VALUE: main:h_ff_flux_contribution_density_energy <- [DW_OP_plus_uconst 384, DW_OP_deref] $rsp
	.cfi_escape 0x2e, 0x00
	.loc	8 667 2 is_stmt 1               # /usr/lib/gcc/x86_64-linux-gnu/13/../../../../include/c++/13/ostream:667:2
	movq	_ZSt4cout@GOTPCREL(%rip), %rbx
.Ltmp435:
	#DEBUG_VALUE: main:argv <- [DW_OP_LLVM_entry_value 1] $rsi
	#DEBUG_VALUE: operator<<<std::char_traits<char> >:__out <- $rbx
	#DEBUG_VALUE: operator<<:this <- $rbx
	#DEBUG_VALUE: endl<char, std::char_traits<char> >:__os <- $rbx
	leaq	.L.str.5(%rip), %rsi
.Ltmp436:
	#DEBUG_VALUE: operator<<<std::char_traits<char> >:__s <- $rsi
	movl	$22, %edx
	movq	%rbx, %rdi
	callq	_ZSt16__ostream_insertIcSt11char_traitsIcEERSt13basic_ostreamIT_T0_ES6_PKS3_l@PLT
.Ltmp437:
	#DEBUG_VALUE: operator<<:__pf <- undef
	.loc	8 736 29                        # /usr/lib/gcc/x86_64-linux-gnu/13/../../../../include/c++/13/ostream:736:29
	movq	(%rbx), %rax
	movq	-24(%rax), %rax
.Ltmp438:
	#DEBUG_VALUE: widen:__c <- 10
	#DEBUG_VALUE: widen:this <- [DW_OP_LLVM_arg 0, DW_OP_LLVM_arg 1, DW_OP_plus, DW_OP_stack_value] $rbx, $rax
	.loc	9 450 30                        # /usr/lib/gcc/x86_64-linux-gnu/13/../../../../include/c++/13/bits/basic_ios.h:450:30
	movq	240(%rbx,%rax), %rbx
.Ltmp439:
	#DEBUG_VALUE: __check_facet<std::ctype<char> >:__f <- $rbx
	.loc	9 49 12                         # /usr/lib/gcc/x86_64-linux-gnu/13/../../../../include/c++/13/bits/basic_ios.h:49:12
	testq	%rbx, %rbx
.Ltmp440:
	.loc	9 49 11 is_stmt 0               # /usr/lib/gcc/x86_64-linux-gnu/13/../../../../include/c++/13/bits/basic_ios.h:49:11
	je	.LBB9_121
.Ltmp441:
# %bb.2:                                # %_ZSt13__check_facetISt5ctypeIcEERKT_PS3_.exit.i.i
	#DEBUG_VALUE: main:argc <- $ebp
	#DEBUG_VALUE: main:argv <- [DW_OP_LLVM_entry_value 1] $rsi
	#DEBUG_VALUE: main:h_ff_variable <- [DW_OP_plus_uconst 448, DW_OP_deref] $rsp
	#DEBUG_VALUE: main:h_ff_flux_contribution_momentum_x <- [DW_OP_plus_uconst 432, DW_OP_deref] $rsp
	#DEBUG_VALUE: main:h_ff_flux_contribution_momentum_y <- [DW_OP_plus_uconst 416, DW_OP_deref] $rsp
	#DEBUG_VALUE: main:h_ff_flux_contribution_momentum_z <- [DW_OP_plus_uconst 400, DW_OP_deref] $rsp
	#DEBUG_VALUE: main:h_ff_flux_contribution_density_energy <- [DW_OP_plus_uconst 384, DW_OP_deref] $rsp
	#DEBUG_VALUE: widen:__c <- 10
	#DEBUG_VALUE: widen:this <- $rbx
	#DEBUG_VALUE: widen:__c <- 10
	.loc	10 882 6 is_stmt 1              # /usr/lib/gcc/x86_64-linux-gnu/13/../../../../include/c++/13/bits/locale_facets.h:882:6
	cmpb	$0, 56(%rbx)
.Ltmp442:
	.loc	10 882 6 is_stmt 0              # /usr/lib/gcc/x86_64-linux-gnu/13/../../../../include/c++/13/bits/locale_facets.h:882:6
	je	.LBB9_4
.Ltmp443:
# %bb.3:                                # %if.then.i2.i.i
	#DEBUG_VALUE: main:argc <- $ebp
	#DEBUG_VALUE: main:argv <- [DW_OP_LLVM_entry_value 1] $rsi
	#DEBUG_VALUE: main:h_ff_variable <- [DW_OP_plus_uconst 448, DW_OP_deref] $rsp
	#DEBUG_VALUE: main:h_ff_flux_contribution_momentum_x <- [DW_OP_plus_uconst 432, DW_OP_deref] $rsp
	#DEBUG_VALUE: main:h_ff_flux_contribution_momentum_y <- [DW_OP_plus_uconst 416, DW_OP_deref] $rsp
	#DEBUG_VALUE: main:h_ff_flux_contribution_momentum_z <- [DW_OP_plus_uconst 400, DW_OP_deref] $rsp
	#DEBUG_VALUE: main:h_ff_flux_contribution_density_energy <- [DW_OP_plus_uconst 384, DW_OP_deref] $rsp
	#DEBUG_VALUE: widen:__c <- 10
	#DEBUG_VALUE: widen:this <- $rbx
	#DEBUG_VALUE: widen:__c <- 10
	.loc	10 883 11 is_stmt 1             # /usr/lib/gcc/x86_64-linux-gnu/13/../../../../include/c++/13/bits/locale_facets.h:883:11
	movzbl	67(%rbx), %eax
	jmp	.LBB9_5
.Ltmp444:
.LBB9_7:                                # %if.end
	#DEBUG_VALUE: main:argc <- $ebp
	#DEBUG_VALUE: main:argv <- $rbx
	#DEBUG_VALUE: main:h_ff_variable <- [DW_OP_plus_uconst 448, DW_OP_deref] $rsp
	#DEBUG_VALUE: main:h_ff_flux_contribution_momentum_x <- [DW_OP_plus_uconst 432, DW_OP_deref] $rsp
	#DEBUG_VALUE: main:h_ff_flux_contribution_momentum_y <- [DW_OP_plus_uconst 416, DW_OP_deref] $rsp
	#DEBUG_VALUE: main:h_ff_flux_contribution_momentum_z <- [DW_OP_plus_uconst 400, DW_OP_deref] $rsp
	#DEBUG_VALUE: main:h_ff_flux_contribution_density_energy <- [DW_OP_plus_uconst 384, DW_OP_deref] $rsp
	.loc	1 468 32                        # ./euler3d_no_memcpytosymbol.cu:468:32
	movq	8(%rbx), %rbx
.Ltmp445:
	#DEBUG_VALUE: main:argv <- [DW_OP_LLVM_entry_value 1] $rsi
	#DEBUG_VALUE: main:data_file_name <- $rbx
	.cfi_escape 0x2e, 0x00
	.loc	1 470 3                         # ./euler3d_no_memcpytosymbol.cu:470:3
	xorl	%edi, %edi
	callq	cudaSetDevice@PLT
.Ltmp446:
	#DEBUG_VALUE: main:angle_of_attack <- 0.000000e+00
	#DEBUG_VALUE: main:h_ff_variable <- [DW_OP_LLVM_fragment 0 32] 1.400000e+00
	#DEBUG_VALUE: main:ff_pressure <- 1.000000e+00
	#DEBUG_VALUE: main:ff_speed_of_sound <- 1.000000e+00
	#DEBUG_VALUE: main:ff_speed <- 1.200000e+00
	#DEBUG_VALUE: main:ff_velocity <- [DW_OP_LLVM_fragment 0 32] 1.200000e+00
	#DEBUG_VALUE: main:ff_velocity <- [DW_OP_LLVM_fragment 32 32] 0.000000e+00
	#DEBUG_VALUE: main:ff_velocity <- [DW_OP_LLVM_fragment 64 32] 0.000000e+00
	#DEBUG_VALUE: main:h_ff_variable <- [DW_OP_LLVM_fragment 32 32] 1.680000e+00
	#DEBUG_VALUE: main:h_ff_variable <- [DW_OP_LLVM_fragment 64 32] 0.000000e+00
	#DEBUG_VALUE: main:h_ff_variable <- [DW_OP_plus_uconst 448, DW_OP_plus_uconst 12, DW_OP_deref, DW_OP_LLVM_fragment 96 64] $rsp
	.loc	1 477 20                        # ./euler3d_no_memcpytosymbol.cu:477:20
	movaps	.LCPI9_0(%rip), %xmm0           # xmm0 = [1.39999998E+0,1.68000007E+0,0.0E+0,0.0E+0]
	movaps	%xmm0, 448(%rsp)
.Ltmp447:
	#DEBUG_VALUE: main:h_ff_variable <- [DW_OP_plus_uconst 448, DW_OP_deref] $rsp
	.loc	1 493 26                        # ./euler3d_no_memcpytosymbol.cu:493:26
	movl	$1080066836, 464(%rsp)          # imm = 0x40608314
.Ltmp448:
	#DEBUG_VALUE: main:h_ff_momentum <- [DW_OP_LLVM_fragment 0 32] 1.680000e+00
	#DEBUG_VALUE: main:h_ff_momentum <- [DW_OP_LLVM_fragment 32 32] 0.000000e+00
	#DEBUG_VALUE: main:h_ff_momentum <- [DW_OP_LLVM_fragment 64 32] 0.000000e+00
	#DEBUG_VALUE: compute_flux_contribution:density <- [DW_OP_plus_uconst 448, DW_OP_stack_value] $rsp
	#DEBUG_VALUE: compute_flux_contribution:momentum <- undef
	#DEBUG_VALUE: compute_flux_contribution:pressure <- undef
	#DEBUG_VALUE: compute_flux_contribution:velocity <- undef
	#DEBUG_VALUE: compute_flux_contribution:fc_momentum_x <- [DW_OP_plus_uconst 432, DW_OP_stack_value] $rsp
	#DEBUG_VALUE: compute_flux_contribution:fc_momentum_y <- [DW_OP_plus_uconst 416, DW_OP_stack_value] $rsp
	#DEBUG_VALUE: compute_flux_contribution:fc_momentum_z <- [DW_OP_plus_uconst 400, DW_OP_stack_value] $rsp
	#DEBUG_VALUE: compute_flux_contribution:fc_density_energy <- [DW_OP_plus_uconst 384, DW_OP_stack_value] $rsp
	#DEBUG_VALUE: main:h_ff_flux_contribution_momentum_x <- [DW_OP_LLVM_fragment 0 32] 3.016000e+00
	#DEBUG_VALUE: main:h_ff_flux_contribution_momentum_x <- [DW_OP_plus_uconst 432, DW_OP_plus_uconst 4, DW_OP_deref, DW_OP_LLVM_fragment 32 64] $rsp
	.loc	1 153 19                        # ./euler3d_no_memcpytosymbol.cu:153:19
	movss	.LCPI9_1(%rip), %xmm0           # xmm0 = [3.01600027E+0,0.0E+0,0.0E+0,0.0E+0]
	movlps	%xmm0, 432(%rsp)
.Ltmp449:
	#DEBUG_VALUE: main:h_ff_flux_contribution_momentum_x <- [DW_OP_plus_uconst 432, DW_OP_deref] $rsp
	.loc	1 155 19                        # ./euler3d_no_memcpytosymbol.cu:155:19
	movl	$0, 440(%rsp)
.Ltmp450:
	#DEBUG_VALUE: main:h_ff_flux_contribution_momentum_y <- [DW_OP_LLVM_fragment 0 32] 0.000000e+00
	#DEBUG_VALUE: main:h_ff_flux_contribution_momentum_y <- [DW_OP_plus_uconst 416, DW_OP_plus_uconst 4, DW_OP_deref, DW_OP_LLVM_fragment 32 64] $rsp
	.loc	1 157 19                        # ./euler3d_no_memcpytosymbol.cu:157:19
	movsd	.LCPI9_2(%rip), %xmm0           # xmm0 = [0.0E+0,1.0E+0,0.0E+0,0.0E+0]
	movsd	%xmm0, 416(%rsp)
.Ltmp451:
	#DEBUG_VALUE: main:h_ff_flux_contribution_momentum_y <- [DW_OP_plus_uconst 416, DW_OP_deref] $rsp
	.loc	1 159 19                        # ./euler3d_no_memcpytosymbol.cu:159:19
	movl	$0, 424(%rsp)
.Ltmp452:
	#DEBUG_VALUE: main:h_ff_flux_contribution_momentum_z <- [DW_OP_LLVM_fragment 0 32] 0.000000e+00
	#DEBUG_VALUE: main:h_ff_flux_contribution_momentum_z <- [DW_OP_plus_uconst 400, DW_OP_plus_uconst 4, DW_OP_deref, DW_OP_LLVM_fragment 32 64] $rsp
	.loc	1 161 19                        # ./euler3d_no_memcpytosymbol.cu:161:19
	movq	$0, 400(%rsp)
.Ltmp453:
	#DEBUG_VALUE: main:h_ff_flux_contribution_momentum_z <- [DW_OP_plus_uconst 400, DW_OP_deref] $rsp
	.loc	1 163 19                        # ./euler3d_no_memcpytosymbol.cu:163:19
	movl	$1065353216, 408(%rsp)          # imm = 0x3F800000
.Ltmp454:
	#DEBUG_VALUE: compute_flux_contribution:de_p <- 4.508000e+00
	#DEBUG_VALUE: main:h_ff_flux_contribution_density_energy <- [DW_OP_LLVM_fragment 0 32] 5.409601e+00
	#DEBUG_VALUE: main:h_ff_flux_contribution_density_energy <- [DW_OP_plus_uconst 384, DW_OP_plus_uconst 4, DW_OP_deref, DW_OP_LLVM_fragment 32 64] $rsp
	.loc	1 166 23                        # ./euler3d_no_memcpytosymbol.cu:166:23
	movss	.LCPI9_3(%rip), %xmm0           # xmm0 = [5.40960073E+0,0.0E+0,0.0E+0,0.0E+0]
	movlps	%xmm0, 384(%rsp)
.Ltmp455:
	#DEBUG_VALUE: main:h_ff_flux_contribution_density_energy <- [DW_OP_plus_uconst 384, DW_OP_deref] $rsp
	.loc	1 168 23                        # ./euler3d_no_memcpytosymbol.cu:168:23
	movl	$0, 392(%rsp)
.Ltmp456:
	.loc	1 513 10                        # ./euler3d_no_memcpytosymbol.cu:513:10
	movq	$0, 224(%rsp)
	.loc	1 514 11                        # ./euler3d_no_memcpytosymbol.cu:514:11
	movq	$0, 280(%rsp)
	.loc	1 514 31 is_stmt 0              # ./euler3d_no_memcpytosymbol.cu:514:31
	movq	$0, 272(%rsp)
	.loc	1 514 51                        # ./euler3d_no_memcpytosymbol.cu:514:51
	movq	$0, 264(%rsp)
	.loc	1 514 71                        # ./euler3d_no_memcpytosymbol.cu:514:71
	movq	$0, 256(%rsp)
.Ltmp457:
	#DEBUG_VALUE: cudaMalloc<float>:devPtr <- [DW_OP_plus_uconst 224, DW_OP_stack_value] $rsp
	#DEBUG_VALUE: cudaMalloc<float>:size <- 20
	.cfi_escape 0x2e, 0x00
	.loc	1 0 71                          # ./euler3d_no_memcpytosymbol.cu:0:71
	leaq	224(%rsp), %rdi
.Ltmp458:
	.file	18 "/nethome/cahn45/CuPBoP" "cuda-12.1/include/cuda_runtime.h"
	.loc	18 735 10 is_stmt 1             # cuda-12.1/include/cuda_runtime.h:735:10
	movl	$20, %esi
	callq	cudaMalloc@PLT
.Ltmp459:
	#DEBUG_VALUE: cudaMalloc<float3>:devPtr <- [DW_OP_plus_uconst 280, DW_OP_stack_value] $rsp
	#DEBUG_VALUE: cudaMalloc<float3>:size <- 12
	.cfi_escape 0x2e, 0x00
	.loc	18 0 10 is_stmt 0               # cuda-12.1/include/cuda_runtime.h:0:10
	leaq	280(%rsp), %rdi
.Ltmp460:
	.loc	18 735 10                       # cuda-12.1/include/cuda_runtime.h:735:10
	movl	$12, %esi
	callq	cudaMalloc@PLT
.Ltmp461:
	#DEBUG_VALUE: cudaMalloc<float3>:devPtr <- [DW_OP_plus_uconst 272, DW_OP_stack_value] $rsp
	#DEBUG_VALUE: cudaMalloc<float3>:size <- 12
	.cfi_escape 0x2e, 0x00
	.loc	18 0 10                         # cuda-12.1/include/cuda_runtime.h:0:10
	leaq	272(%rsp), %rdi
.Ltmp462:
	.loc	18 735 10                       # cuda-12.1/include/cuda_runtime.h:735:10
	movl	$12, %esi
	callq	cudaMalloc@PLT
.Ltmp463:
	#DEBUG_VALUE: cudaMalloc<float3>:devPtr <- [DW_OP_plus_uconst 264, DW_OP_stack_value] $rsp
	#DEBUG_VALUE: cudaMalloc<float3>:size <- 12
	.cfi_escape 0x2e, 0x00
	.loc	18 0 10                         # cuda-12.1/include/cuda_runtime.h:0:10
	leaq	264(%rsp), %rdi
.Ltmp464:
	.loc	18 735 10                       # cuda-12.1/include/cuda_runtime.h:735:10
	movl	$12, %esi
	callq	cudaMalloc@PLT
.Ltmp465:
	#DEBUG_VALUE: cudaMalloc<float3>:devPtr <- [DW_OP_plus_uconst 256, DW_OP_stack_value] $rsp
	#DEBUG_VALUE: cudaMalloc<float3>:size <- 12
	.cfi_escape 0x2e, 0x00
	.loc	18 0 10                         # cuda-12.1/include/cuda_runtime.h:0:10
	leaq	256(%rsp), %rdi
.Ltmp466:
	.loc	18 735 10                       # cuda-12.1/include/cuda_runtime.h:735:10
	movl	$12, %esi
	callq	cudaMalloc@PLT
.Ltmp467:
	.loc	1 522 14 is_stmt 1              # ./euler3d_no_memcpytosymbol.cu:522:14
	movq	224(%rsp), %rdi
	.cfi_escape 0x2e, 0x00
	leaq	448(%rsp), %rsi
	#DEBUG_VALUE: compute_flux_contribution:density_energy <- [DW_OP_plus_uconst 16, DW_OP_stack_value] $rsi
	movl	$1, %r12d
	.loc	1 522 3 is_stmt 0               # ./euler3d_no_memcpytosymbol.cu:522:3
	movl	$20, %edx
	movl	$1, %ecx
	callq	cudaMemcpy@PLT
.Ltmp468:
	.loc	1 523 14 is_stmt 1              # ./euler3d_no_memcpytosymbol.cu:523:14
	movq	280(%rsp), %rdi
	.cfi_escape 0x2e, 0x00
	leaq	432(%rsp), %rsi
	.loc	1 523 3 is_stmt 0               # ./euler3d_no_memcpytosymbol.cu:523:3
	movl	$12, %edx
	movl	$1, %ecx
	callq	cudaMemcpy@PLT
.Ltmp469:
	.loc	1 524 14 is_stmt 1              # ./euler3d_no_memcpytosymbol.cu:524:14
	movq	272(%rsp), %rdi
	.cfi_escape 0x2e, 0x00
	leaq	416(%rsp), %rsi
	.loc	1 524 3 is_stmt 0               # ./euler3d_no_memcpytosymbol.cu:524:3
	movl	$12, %edx
	movl	$1, %ecx
	callq	cudaMemcpy@PLT
.Ltmp470:
	.loc	1 525 14 is_stmt 1              # ./euler3d_no_memcpytosymbol.cu:525:14
	movq	264(%rsp), %rdi
	.cfi_escape 0x2e, 0x00
	leaq	400(%rsp), %rsi
	.loc	1 525 3 is_stmt 0               # ./euler3d_no_memcpytosymbol.cu:525:3
	movl	$12, %edx
	movl	$1, %ecx
	callq	cudaMemcpy@PLT
.Ltmp471:
	.loc	1 526 14 is_stmt 1              # ./euler3d_no_memcpytosymbol.cu:526:14
	movq	256(%rsp), %rdi
	.cfi_escape 0x2e, 0x00
	leaq	384(%rsp), %rsi
	.loc	1 526 3 is_stmt 0               # ./euler3d_no_memcpytosymbol.cu:526:3
	movl	$12, %edx
	movl	$1, %ecx
	callq	cudaMemcpy@PLT
.Ltmp472:
	.cfi_escape 0x2e, 0x00
	.loc	1 0 3                           # ./euler3d_no_memcpytosymbol.cu:0:3
	leaq	480(%rsp), %r14
.Ltmp473:
	.loc	1 536 19 is_stmt 1              # ./euler3d_no_memcpytosymbol.cu:536:19
	movq	%r14, %rdi
	movq	%rbx, %rsi
	movl	$8, %edx
	callq	_ZNSt14basic_ifstreamIcSt11char_traitsIcEEC1EPKcSt13_Ios_Openmode@PLT
.Ltmp474:
.Ltmp367:
	.cfi_escape 0x2e, 0x00
	.loc	1 0 19 is_stmt 0                # ./euler3d_no_memcpytosymbol.cu:0:19
	leaq	236(%rsp), %rsi
	.loc	1 538 10 is_stmt 1              # ./euler3d_no_memcpytosymbol.cu:538:10
	movq	%r14, %rdi
	callq	_ZNSirsERi@PLT
.Ltmp475:
.Ltmp368:
# %bb.8:                                # %invoke.cont
	#DEBUG_VALUE: main:argc <- $ebp
	#DEBUG_VALUE: main:argv <- [DW_OP_LLVM_entry_value 1] $rsi
	#DEBUG_VALUE: main:h_ff_variable <- [DW_OP_plus_uconst 448, DW_OP_deref] $rsp
	#DEBUG_VALUE: main:h_ff_flux_contribution_momentum_x <- [DW_OP_plus_uconst 432, DW_OP_deref] $rsp
	#DEBUG_VALUE: main:h_ff_flux_contribution_momentum_y <- [DW_OP_plus_uconst 416, DW_OP_deref] $rsp
	#DEBUG_VALUE: main:h_ff_flux_contribution_momentum_z <- [DW_OP_plus_uconst 400, DW_OP_deref] $rsp
	#DEBUG_VALUE: main:h_ff_flux_contribution_density_energy <- [DW_OP_plus_uconst 384, DW_OP_deref] $rsp
	#DEBUG_VALUE: main:data_file_name <- $rbx
	#DEBUG_VALUE: main:angle_of_attack <- 0.000000e+00
	#DEBUG_VALUE: main:ff_pressure <- 1.000000e+00
	#DEBUG_VALUE: main:ff_speed_of_sound <- 1.000000e+00
	#DEBUG_VALUE: main:ff_speed <- 1.200000e+00
	#DEBUG_VALUE: main:ff_velocity <- [DW_OP_LLVM_fragment 0 32] 1.200000e+00
	#DEBUG_VALUE: main:ff_velocity <- [DW_OP_LLVM_fragment 32 32] 0.000000e+00
	#DEBUG_VALUE: main:ff_velocity <- [DW_OP_LLVM_fragment 64 32] 0.000000e+00
	#DEBUG_VALUE: main:h_ff_momentum <- [DW_OP_LLVM_fragment 0 32] 1.680000e+00
	#DEBUG_VALUE: main:h_ff_momentum <- [DW_OP_LLVM_fragment 32 32] 0.000000e+00
	#DEBUG_VALUE: main:h_ff_momentum <- [DW_OP_LLVM_fragment 64 32] 0.000000e+00
	.loc	1 540 17                        # ./euler3d_no_memcpytosymbol.cu:540:17
	movl	236(%rsp), %eax
	.loc	1 540 46 is_stmt 0              # ./euler3d_no_memcpytosymbol.cu:540:46
	leal	127(%rax), %ecx
	testl	%eax, %eax
	cmovnsl	%eax, %ecx
	movl	%ecx, %edx
	sarl	$7, %edx
	andl	$-128, %ecx
	subl	%ecx, %eax
	.loc	1 540 30                        # ./euler3d_no_memcpytosymbol.cu:540:30
	testl	%eax, %eax
	cmovlel	%eax, %r12d
	.loc	1 540 28                        # ./euler3d_no_memcpytosymbol.cu:540:28
	addl	%edx, %r12d
	.loc	1 540 13                        # ./euler3d_no_memcpytosymbol.cu:540:13
	movl	%r12d, %ebx
.Ltmp476:
	shll	$7, %ebx
.Ltmp477:
	#DEBUG_VALUE: main:nelr <- $ebx
	.cfi_escape 0x2e, 0x00
	.loc	1 541 5 is_stmt 1               # ./euler3d_no_memcpytosymbol.cu:541:5
	leaq	.L.str.6(%rip), %rdi
	movl	%ebx, %esi
	xorl	%eax, %eax
	callq	printf@PLT
.Ltmp478:
	.loc	1 0 5 is_stmt 0                 # ./euler3d_no_memcpytosymbol.cu:0:5
	movq	%rbx, 200(%rsp)                 # 8-byte Spill
.Ltmp479:
	#DEBUG_VALUE: main:nelr <- [DW_OP_plus_uconst 200, DW_OP_deref] $rsp
	.loc	1 543 22 is_stmt 1              # ./euler3d_no_memcpytosymbol.cu:543:22
	movslq	%ebx, %r13
	leaq	(,%r13,4), %r15
	testl	%r12d, %r12d
	movq	$-1, %rbx
	movq	%r15, %rdi
	cmovsq	%rbx, %rdi
.Ltmp370:
	.cfi_escape 0x2e, 0x00
	callq	_Znam@PLT
.Ltmp480:
	.loc	1 0 22 is_stmt 0                # ./euler3d_no_memcpytosymbol.cu:0:22
	movq	%rax, 16(%rsp)                  # 8-byte Spill
.Ltmp371:
.Ltmp481:
# %bb.9:                                # %invoke.cont66
	#DEBUG_VALUE: main:argc <- $ebp
	#DEBUG_VALUE: main:argv <- [DW_OP_LLVM_entry_value 1] $rsi
	#DEBUG_VALUE: main:h_ff_variable <- [DW_OP_plus_uconst 448, DW_OP_deref] $rsp
	#DEBUG_VALUE: main:h_ff_flux_contribution_momentum_x <- [DW_OP_plus_uconst 432, DW_OP_deref] $rsp
	#DEBUG_VALUE: main:h_ff_flux_contribution_momentum_y <- [DW_OP_plus_uconst 416, DW_OP_deref] $rsp
	#DEBUG_VALUE: main:h_ff_flux_contribution_momentum_z <- [DW_OP_plus_uconst 400, DW_OP_deref] $rsp
	#DEBUG_VALUE: main:h_ff_flux_contribution_density_energy <- [DW_OP_plus_uconst 384, DW_OP_deref] $rsp
	#DEBUG_VALUE: main:angle_of_attack <- 0.000000e+00
	#DEBUG_VALUE: main:ff_pressure <- 1.000000e+00
	#DEBUG_VALUE: main:ff_speed_of_sound <- 1.000000e+00
	#DEBUG_VALUE: main:ff_speed <- 1.200000e+00
	#DEBUG_VALUE: main:ff_velocity <- [DW_OP_LLVM_fragment 0 32] 1.200000e+00
	#DEBUG_VALUE: main:ff_velocity <- [DW_OP_LLVM_fragment 32 32] 0.000000e+00
	#DEBUG_VALUE: main:ff_velocity <- [DW_OP_LLVM_fragment 64 32] 0.000000e+00
	#DEBUG_VALUE: main:h_ff_momentum <- [DW_OP_LLVM_fragment 0 32] 1.680000e+00
	#DEBUG_VALUE: main:h_ff_momentum <- [DW_OP_LLVM_fragment 32 32] 0.000000e+00
	#DEBUG_VALUE: main:h_ff_momentum <- [DW_OP_LLVM_fragment 64 32] 0.000000e+00
	#DEBUG_VALUE: main:nelr <- [DW_OP_plus_uconst 200, DW_OP_deref] $rsp
	#DEBUG_VALUE: h_areas <- [DW_OP_plus_uconst 16, DW_OP_deref] $rsp
	.loc	1 544 57 is_stmt 1              # ./euler3d_no_memcpytosymbol.cu:544:57
	movl	%r12d, %r14d
	shll	$9, %r14d
	.loc	1 544 44 is_stmt 0              # ./euler3d_no_memcpytosymbol.cu:544:44
	movslq	%r14d, %rbp
.Ltmp482:
	#DEBUG_VALUE: main:argc <- [DW_OP_LLVM_entry_value 1] $edi
	shlq	$2, %rbp
	.loc	1 543 22 is_stmt 1              # ./euler3d_no_memcpytosymbol.cu:543:22
	testl	%r12d, %r12d
	.loc	1 544 44                        # ./euler3d_no_memcpytosymbol.cu:544:44
	cmovnsq	%rbp, %rbx
.Ltmp373:
	.cfi_escape 0x2e, 0x00
	movq	%rbx, %rdi
	callq	_Znam@PLT
.Ltmp483:
.Ltmp374:
# %bb.10:                               # %invoke.cont70
	#DEBUG_VALUE: main:argc <- [DW_OP_LLVM_entry_value 1] $edi
	#DEBUG_VALUE: main:argv <- [DW_OP_LLVM_entry_value 1] $rsi
	#DEBUG_VALUE: main:h_ff_variable <- [DW_OP_plus_uconst 448, DW_OP_deref] $rsp
	#DEBUG_VALUE: main:h_ff_flux_contribution_momentum_x <- [DW_OP_plus_uconst 432, DW_OP_deref] $rsp
	#DEBUG_VALUE: main:h_ff_flux_contribution_momentum_y <- [DW_OP_plus_uconst 416, DW_OP_deref] $rsp
	#DEBUG_VALUE: main:h_ff_flux_contribution_momentum_z <- [DW_OP_plus_uconst 400, DW_OP_deref] $rsp
	#DEBUG_VALUE: main:h_ff_flux_contribution_density_energy <- [DW_OP_plus_uconst 384, DW_OP_deref] $rsp
	#DEBUG_VALUE: main:angle_of_attack <- 0.000000e+00
	#DEBUG_VALUE: main:ff_pressure <- 1.000000e+00
	#DEBUG_VALUE: main:ff_speed_of_sound <- 1.000000e+00
	#DEBUG_VALUE: main:ff_speed <- 1.200000e+00
	#DEBUG_VALUE: main:ff_velocity <- [DW_OP_LLVM_fragment 0 32] 1.200000e+00
	#DEBUG_VALUE: main:ff_velocity <- [DW_OP_LLVM_fragment 32 32] 0.000000e+00
	#DEBUG_VALUE: main:ff_velocity <- [DW_OP_LLVM_fragment 64 32] 0.000000e+00
	#DEBUG_VALUE: main:h_ff_momentum <- [DW_OP_LLVM_fragment 0 32] 1.680000e+00
	#DEBUG_VALUE: main:h_ff_momentum <- [DW_OP_LLVM_fragment 32 32] 0.000000e+00
	#DEBUG_VALUE: main:h_ff_momentum <- [DW_OP_LLVM_fragment 64 32] 0.000000e+00
	#DEBUG_VALUE: main:nelr <- [DW_OP_plus_uconst 200, DW_OP_deref] $rsp
	#DEBUG_VALUE: h_areas <- [DW_OP_plus_uconst 16, DW_OP_deref] $rsp
	.loc	1 0 0 is_stmt 0                 # ./euler3d_no_memcpytosymbol.cu:0:0
	movq	%rax, %rbx
.Ltmp484:
	#DEBUG_VALUE: h_elements_surrounding_elements <- $rbx
	movq	%rbp, 368(%rsp)                 # 8-byte Spill
	.loc	1 545 43 is_stmt 1              # ./euler3d_no_memcpytosymbol.cu:545:43
	leal	(%r14,%r14,2), %eax
	.loc	1 545 24 is_stmt 0              # ./euler3d_no_memcpytosymbol.cu:545:24
	cltq
	leaq	(,%rax,4), %rcx
	testl	%eax, %eax
	movq	$-1, %rdi
	movq	%rcx, 376(%rsp)                 # 8-byte Spill
	cmovnsq	%rcx, %rdi
.Ltmp376:
	.cfi_escape 0x2e, 0x00
	callq	_Znam@PLT
.Ltmp485:
	.loc	1 0 24                          # ./euler3d_no_memcpytosymbol.cu:0:24
	movq	%rax, 240(%rsp)                 # 8-byte Spill
.Ltmp377:
.Ltmp486:
# %bb.11:                               # %for.cond.preheader
	#DEBUG_VALUE: main:argc <- [DW_OP_LLVM_entry_value 1] $edi
	#DEBUG_VALUE: main:argv <- [DW_OP_LLVM_entry_value 1] $rsi
	#DEBUG_VALUE: main:h_ff_variable <- [DW_OP_plus_uconst 448, DW_OP_deref] $rsp
	#DEBUG_VALUE: main:h_ff_flux_contribution_momentum_x <- [DW_OP_plus_uconst 432, DW_OP_deref] $rsp
	#DEBUG_VALUE: main:h_ff_flux_contribution_momentum_y <- [DW_OP_plus_uconst 416, DW_OP_deref] $rsp
	#DEBUG_VALUE: main:h_ff_flux_contribution_momentum_z <- [DW_OP_plus_uconst 400, DW_OP_deref] $rsp
	#DEBUG_VALUE: main:h_ff_flux_contribution_density_energy <- [DW_OP_plus_uconst 384, DW_OP_deref] $rsp
	#DEBUG_VALUE: main:angle_of_attack <- 0.000000e+00
	#DEBUG_VALUE: main:ff_pressure <- 1.000000e+00
	#DEBUG_VALUE: main:ff_speed_of_sound <- 1.000000e+00
	#DEBUG_VALUE: main:ff_speed <- 1.200000e+00
	#DEBUG_VALUE: main:ff_velocity <- [DW_OP_LLVM_fragment 0 32] 1.200000e+00
	#DEBUG_VALUE: main:ff_velocity <- [DW_OP_LLVM_fragment 32 32] 0.000000e+00
	#DEBUG_VALUE: main:ff_velocity <- [DW_OP_LLVM_fragment 64 32] 0.000000e+00
	#DEBUG_VALUE: main:h_ff_momentum <- [DW_OP_LLVM_fragment 0 32] 1.680000e+00
	#DEBUG_VALUE: main:h_ff_momentum <- [DW_OP_LLVM_fragment 32 32] 0.000000e+00
	#DEBUG_VALUE: main:h_ff_momentum <- [DW_OP_LLVM_fragment 64 32] 0.000000e+00
	#DEBUG_VALUE: main:nelr <- [DW_OP_plus_uconst 200, DW_OP_deref] $rsp
	#DEBUG_VALUE: h_areas <- [DW_OP_plus_uconst 16, DW_OP_deref] $rsp
	#DEBUG_VALUE: h_elements_surrounding_elements <- $rbx
	#DEBUG_VALUE: i <- 0
	.loc	1 548 25 is_stmt 1              # ./euler3d_no_memcpytosymbol.cu:548:25
	movl	236(%rsp), %eax
	.loc	1 548 23 is_stmt 0              # ./euler3d_no_memcpytosymbol.cu:548:23
	testl	%eax, %eax
	movq	%rbx, 216(%rsp)                 # 8-byte Spill
.Ltmp487:
	#DEBUG_VALUE: h_elements_surrounding_elements <- [DW_OP_plus_uconst 216, DW_OP_deref] $rsp
	.loc	1 0 23                          # ./euler3d_no_memcpytosymbol.cu:0:23
	movq	%r12, 360(%rsp)                 # 8-byte Spill
	movq	%r15, 8(%rsp)                   # 8-byte Spill
.Ltmp488:
	.loc	1 548 5                         # ./euler3d_no_memcpytosymbol.cu:548:5
	jle	.LBB9_40
.Ltmp489:
# %bb.12:                               # %for.body.preheader
	#DEBUG_VALUE: main:argc <- [DW_OP_LLVM_entry_value 1] $edi
	#DEBUG_VALUE: main:argv <- [DW_OP_LLVM_entry_value 1] $rsi
	#DEBUG_VALUE: main:h_ff_variable <- [DW_OP_plus_uconst 448, DW_OP_deref] $rsp
	#DEBUG_VALUE: main:h_ff_flux_contribution_momentum_x <- [DW_OP_plus_uconst 432, DW_OP_deref] $rsp
	#DEBUG_VALUE: main:h_ff_flux_contribution_momentum_y <- [DW_OP_plus_uconst 416, DW_OP_deref] $rsp
	#DEBUG_VALUE: main:h_ff_flux_contribution_momentum_z <- [DW_OP_plus_uconst 400, DW_OP_deref] $rsp
	#DEBUG_VALUE: main:h_ff_flux_contribution_density_energy <- [DW_OP_plus_uconst 384, DW_OP_deref] $rsp
	#DEBUG_VALUE: main:angle_of_attack <- 0.000000e+00
	#DEBUG_VALUE: main:ff_pressure <- 1.000000e+00
	#DEBUG_VALUE: main:ff_speed_of_sound <- 1.000000e+00
	#DEBUG_VALUE: main:ff_speed <- 1.200000e+00
	#DEBUG_VALUE: main:ff_velocity <- [DW_OP_LLVM_fragment 0 32] 1.200000e+00
	#DEBUG_VALUE: main:ff_velocity <- [DW_OP_LLVM_fragment 32 32] 0.000000e+00
	#DEBUG_VALUE: main:ff_velocity <- [DW_OP_LLVM_fragment 64 32] 0.000000e+00
	#DEBUG_VALUE: main:h_ff_momentum <- [DW_OP_LLVM_fragment 0 32] 1.680000e+00
	#DEBUG_VALUE: main:h_ff_momentum <- [DW_OP_LLVM_fragment 32 32] 0.000000e+00
	#DEBUG_VALUE: main:h_ff_momentum <- [DW_OP_LLVM_fragment 64 32] 0.000000e+00
	#DEBUG_VALUE: main:nelr <- [DW_OP_plus_uconst 200, DW_OP_deref] $rsp
	#DEBUG_VALUE: h_areas <- [DW_OP_plus_uconst 16, DW_OP_deref] $rsp
	#DEBUG_VALUE: h_elements_surrounding_elements <- [DW_OP_plus_uconst 216, DW_OP_deref] $rsp
	#DEBUG_VALUE: i <- 0
	.loc	1 0 5                           # ./euler3d_no_memcpytosymbol.cu:0:5
	movq	%r13, %rax
	shlq	$4, %rax
	movq	240(%rsp), %rsi                 # 8-byte Reload
	addq	%rsi, %rax
	movq	%rax, 88(%rsp)                  # 8-byte Spill
	movq	%r13, %rax
	shlq	$5, %rax
	addq	%rsi, %rax
	movq	%rax, 72(%rsp)                  # 8-byte Spill
	leaq	(,%r13,4), %rax
	addq	%r13, %rax
	leaq	(%rsi,%rax,4), %rcx
	movq	%rcx, 96(%rsp)                  # 8-byte Spill
	leaq	(%r13,%r13,8), %rcx
	leaq	(%rsi,%rcx,4), %rdx
	movq	%rdx, 208(%rsp)                 # 8-byte Spill
	leaq	(%r13,%r13,2), %rdx
	leaq	(%rsi,%rdx,8), %rdx
	movq	%rdx, 296(%rsp)                 # 8-byte Spill
	leaq	(%rsi,%rax,8), %rax
	movq	%rax, 352(%rsp)                 # 8-byte Spill
	leaq	(%rcx,%rcx,2), %r12
	addq	%r13, %r12
	addq	%rsi, %r12
	imulq	$44, %r13, %rax
	addq	%rsi, %rax
	movq	%rax, 336(%rsp)                 # 8-byte Spill
	.loc	1 548 5                         # ./euler3d_no_memcpytosymbol.cu:548:5
	leaq	(%rsi,%r13,4), %rax
	movq	%rax, 192(%rsp)                 # 8-byte Spill
	leaq	(%rbx,%r13,4), %rax
	movq	%rax, 80(%rsp)                  # 8-byte Spill
	leaq	(%rsi,%r13,8), %rax
	movq	%rax, 304(%rsp)                 # 8-byte Spill
	movq	%r13, 288(%rsp)                 # 8-byte Spill
	leaq	(%rbx,%r13,8), %rax
	movq	%rax, 248(%rsp)                 # 8-byte Spill
	leaq	(%r15,%r15,2), %rbp
	leaq	(%rsi,%rbp), %rax
	movq	%rax, 344(%rsp)                 # 8-byte Spill
	addq	%rbx, %rbp
	xorl	%r15d, %r15d
	leaq	480(%rsp), %rbx
	xorl	%r13d, %r13d
.Ltmp490:
	.p2align	4, 0x90
.LBB9_13:                               # %for.body
                                        # =>This Inner Loop Header: Depth=1
	#DEBUG_VALUE: main:argc <- [DW_OP_LLVM_entry_value 1] $edi
	#DEBUG_VALUE: main:argv <- [DW_OP_LLVM_entry_value 1] $rsi
	#DEBUG_VALUE: main:h_ff_variable <- [DW_OP_plus_uconst 448, DW_OP_deref] $rsp
	#DEBUG_VALUE: main:h_ff_flux_contribution_momentum_x <- [DW_OP_plus_uconst 432, DW_OP_deref] $rsp
	#DEBUG_VALUE: main:h_ff_flux_contribution_momentum_y <- [DW_OP_plus_uconst 416, DW_OP_deref] $rsp
	#DEBUG_VALUE: main:h_ff_flux_contribution_momentum_z <- [DW_OP_plus_uconst 400, DW_OP_deref] $rsp
	#DEBUG_VALUE: main:h_ff_flux_contribution_density_energy <- [DW_OP_plus_uconst 384, DW_OP_deref] $rsp
	#DEBUG_VALUE: main:angle_of_attack <- 0.000000e+00
	#DEBUG_VALUE: main:ff_pressure <- 1.000000e+00
	#DEBUG_VALUE: main:ff_speed_of_sound <- 1.000000e+00
	#DEBUG_VALUE: main:ff_speed <- 1.200000e+00
	#DEBUG_VALUE: main:ff_velocity <- [DW_OP_LLVM_fragment 0 32] 1.200000e+00
	#DEBUG_VALUE: main:ff_velocity <- [DW_OP_LLVM_fragment 32 32] 0.000000e+00
	#DEBUG_VALUE: main:ff_velocity <- [DW_OP_LLVM_fragment 64 32] 0.000000e+00
	#DEBUG_VALUE: main:h_ff_momentum <- [DW_OP_LLVM_fragment 0 32] 1.680000e+00
	#DEBUG_VALUE: main:h_ff_momentum <- [DW_OP_LLVM_fragment 32 32] 0.000000e+00
	#DEBUG_VALUE: main:h_ff_momentum <- [DW_OP_LLVM_fragment 64 32] 0.000000e+00
	#DEBUG_VALUE: main:nelr <- [DW_OP_plus_uconst 200, DW_OP_deref] $rsp
	#DEBUG_VALUE: h_areas <- [DW_OP_plus_uconst 16, DW_OP_deref] $rsp
	#DEBUG_VALUE: h_elements_surrounding_elements <- [DW_OP_plus_uconst 216, DW_OP_deref] $rsp
	#DEBUG_VALUE: i <- $r13
	#DEBUG_VALUE: operator>>:this <- [DW_OP_plus_uconst 480, DW_OP_stack_value] $rsp
	#DEBUG_VALUE: operator>>:__f <- [DW_OP_LLVM_arg 0, DW_OP_plus_uconst 16, DW_OP_deref, DW_OP_LLVM_arg 1, DW_OP_constu 4, DW_OP_mul, DW_OP_plus, DW_OP_stack_value] $rsp, $r13
	.loc	1 0 5                           # ./euler3d_no_memcpytosymbol.cu:0:5
	movq	16(%rsp), %rax                  # 8-byte Reload
.Ltmp491:
	.file	19 "/usr/lib/gcc/x86_64-linux-gnu/13/../../../../include/c++/13" "istream"
	.loc	19 217 16 is_stmt 1             # /usr/lib/gcc/x86_64-linux-gnu/13/../../../../include/c++/13/istream:217:16
	leaq	(%rax,%r15), %rsi
.Ltmp379:
	.cfi_escape 0x2e, 0x00
	movq	%rbx, %rdi
	callq	_ZNSi10_M_extractIfEERSiRT_@PLT
.Ltmp492:
.Ltmp380:
# %bb.14:                               # %for.body85.preheader
                                        #   in Loop: Header=BB9_13 Depth=1
	#DEBUG_VALUE: main:argc <- [DW_OP_LLVM_entry_value 1] $edi
	#DEBUG_VALUE: main:argv <- [DW_OP_LLVM_entry_value 1] $rsi
	#DEBUG_VALUE: main:h_ff_variable <- [DW_OP_plus_uconst 448, DW_OP_deref] $rsp
	#DEBUG_VALUE: main:h_ff_flux_contribution_momentum_x <- [DW_OP_plus_uconst 432, DW_OP_deref] $rsp
	#DEBUG_VALUE: main:h_ff_flux_contribution_momentum_y <- [DW_OP_plus_uconst 416, DW_OP_deref] $rsp
	#DEBUG_VALUE: main:h_ff_flux_contribution_momentum_z <- [DW_OP_plus_uconst 400, DW_OP_deref] $rsp
	#DEBUG_VALUE: main:h_ff_flux_contribution_density_energy <- [DW_OP_plus_uconst 384, DW_OP_deref] $rsp
	#DEBUG_VALUE: main:angle_of_attack <- 0.000000e+00
	#DEBUG_VALUE: main:ff_pressure <- 1.000000e+00
	#DEBUG_VALUE: main:ff_speed_of_sound <- 1.000000e+00
	#DEBUG_VALUE: main:ff_speed <- 1.200000e+00
	#DEBUG_VALUE: main:ff_velocity <- [DW_OP_LLVM_fragment 0 32] 1.200000e+00
	#DEBUG_VALUE: main:ff_velocity <- [DW_OP_LLVM_fragment 32 32] 0.000000e+00
	#DEBUG_VALUE: main:ff_velocity <- [DW_OP_LLVM_fragment 64 32] 0.000000e+00
	#DEBUG_VALUE: main:h_ff_momentum <- [DW_OP_LLVM_fragment 0 32] 1.680000e+00
	#DEBUG_VALUE: main:h_ff_momentum <- [DW_OP_LLVM_fragment 32 32] 0.000000e+00
	#DEBUG_VALUE: main:h_ff_momentum <- [DW_OP_LLVM_fragment 64 32] 0.000000e+00
	#DEBUG_VALUE: main:nelr <- [DW_OP_plus_uconst 200, DW_OP_deref] $rsp
	#DEBUG_VALUE: h_areas <- [DW_OP_plus_uconst 16, DW_OP_deref] $rsp
	#DEBUG_VALUE: h_elements_surrounding_elements <- [DW_OP_plus_uconst 216, DW_OP_deref] $rsp
	#DEBUG_VALUE: i <- $r13
	#DEBUG_VALUE: j <- 0
	.loc	19 0 16 is_stmt 0               # /usr/lib/gcc/x86_64-linux-gnu/13/../../../../include/c++/13/istream:0:16
	movq	216(%rsp), %rax                 # 8-byte Reload
.Ltmp493:
	.loc	1 551 14 is_stmt 1              # ./euler3d_no_memcpytosymbol.cu:551:14
	leaq	(%rax,%r15), %r14
.Ltmp382:
	.cfi_escape 0x2e, 0x00
	movq	%rbx, %rdi
	movq	%r14, %rsi
	callq	_ZNSirsERi@PLT
.Ltmp494:
.Ltmp383:
# %bb.15:                               # %invoke.cont91
                                        #   in Loop: Header=BB9_13 Depth=1
	#DEBUG_VALUE: main:argc <- [DW_OP_LLVM_entry_value 1] $edi
	#DEBUG_VALUE: main:argv <- [DW_OP_LLVM_entry_value 1] $rsi
	#DEBUG_VALUE: main:h_ff_variable <- [DW_OP_plus_uconst 448, DW_OP_deref] $rsp
	#DEBUG_VALUE: main:h_ff_flux_contribution_momentum_x <- [DW_OP_plus_uconst 432, DW_OP_deref] $rsp
	#DEBUG_VALUE: main:h_ff_flux_contribution_momentum_y <- [DW_OP_plus_uconst 416, DW_OP_deref] $rsp
	#DEBUG_VALUE: main:h_ff_flux_contribution_momentum_z <- [DW_OP_plus_uconst 400, DW_OP_deref] $rsp
	#DEBUG_VALUE: main:h_ff_flux_contribution_density_energy <- [DW_OP_plus_uconst 384, DW_OP_deref] $rsp
	#DEBUG_VALUE: main:angle_of_attack <- 0.000000e+00
	#DEBUG_VALUE: main:ff_pressure <- 1.000000e+00
	#DEBUG_VALUE: main:ff_speed_of_sound <- 1.000000e+00
	#DEBUG_VALUE: main:ff_speed <- 1.200000e+00
	#DEBUG_VALUE: main:ff_velocity <- [DW_OP_LLVM_fragment 0 32] 1.200000e+00
	#DEBUG_VALUE: main:ff_velocity <- [DW_OP_LLVM_fragment 32 32] 0.000000e+00
	#DEBUG_VALUE: main:ff_velocity <- [DW_OP_LLVM_fragment 64 32] 0.000000e+00
	#DEBUG_VALUE: main:h_ff_momentum <- [DW_OP_LLVM_fragment 0 32] 1.680000e+00
	#DEBUG_VALUE: main:h_ff_momentum <- [DW_OP_LLVM_fragment 32 32] 0.000000e+00
	#DEBUG_VALUE: main:h_ff_momentum <- [DW_OP_LLVM_fragment 64 32] 0.000000e+00
	#DEBUG_VALUE: main:nelr <- [DW_OP_plus_uconst 200, DW_OP_deref] $rsp
	#DEBUG_VALUE: h_areas <- [DW_OP_plus_uconst 16, DW_OP_deref] $rsp
	#DEBUG_VALUE: h_elements_surrounding_elements <- [DW_OP_plus_uconst 216, DW_OP_deref] $rsp
	#DEBUG_VALUE: i <- $r13
	#DEBUG_VALUE: j <- 0
	.loc	1 552 13                        # ./euler3d_no_memcpytosymbol.cu:552:13
	movl	(%r14), %eax
	.loc	1 552 59 is_stmt 0              # ./euler3d_no_memcpytosymbol.cu:552:59
	testl	%eax, %eax
.Ltmp495:
	.loc	1 552 13                        # ./euler3d_no_memcpytosymbol.cu:552:13
	jns	.LBB9_17
.Ltmp496:
# %bb.16:                               # %if.then98
                                        #   in Loop: Header=BB9_13 Depth=1
	#DEBUG_VALUE: main:argc <- [DW_OP_LLVM_entry_value 1] $edi
	#DEBUG_VALUE: main:argv <- [DW_OP_LLVM_entry_value 1] $rsi
	#DEBUG_VALUE: main:h_ff_variable <- [DW_OP_plus_uconst 448, DW_OP_deref] $rsp
	#DEBUG_VALUE: main:h_ff_flux_contribution_momentum_x <- [DW_OP_plus_uconst 432, DW_OP_deref] $rsp
	#DEBUG_VALUE: main:h_ff_flux_contribution_momentum_y <- [DW_OP_plus_uconst 416, DW_OP_deref] $rsp
	#DEBUG_VALUE: main:h_ff_flux_contribution_momentum_z <- [DW_OP_plus_uconst 400, DW_OP_deref] $rsp
	#DEBUG_VALUE: main:h_ff_flux_contribution_density_energy <- [DW_OP_plus_uconst 384, DW_OP_deref] $rsp
	#DEBUG_VALUE: main:angle_of_attack <- 0.000000e+00
	#DEBUG_VALUE: main:ff_pressure <- 1.000000e+00
	#DEBUG_VALUE: main:ff_speed_of_sound <- 1.000000e+00
	#DEBUG_VALUE: main:ff_speed <- 1.200000e+00
	#DEBUG_VALUE: main:ff_velocity <- [DW_OP_LLVM_fragment 0 32] 1.200000e+00
	#DEBUG_VALUE: main:ff_velocity <- [DW_OP_LLVM_fragment 32 32] 0.000000e+00
	#DEBUG_VALUE: main:ff_velocity <- [DW_OP_LLVM_fragment 64 32] 0.000000e+00
	#DEBUG_VALUE: main:h_ff_momentum <- [DW_OP_LLVM_fragment 0 32] 1.680000e+00
	#DEBUG_VALUE: main:h_ff_momentum <- [DW_OP_LLVM_fragment 32 32] 0.000000e+00
	#DEBUG_VALUE: main:h_ff_momentum <- [DW_OP_LLVM_fragment 64 32] 0.000000e+00
	#DEBUG_VALUE: main:nelr <- [DW_OP_plus_uconst 200, DW_OP_deref] $rsp
	#DEBUG_VALUE: h_areas <- [DW_OP_plus_uconst 16, DW_OP_deref] $rsp
	#DEBUG_VALUE: h_elements_surrounding_elements <- [DW_OP_plus_uconst 216, DW_OP_deref] $rsp
	#DEBUG_VALUE: i <- $r13
	#DEBUG_VALUE: j <- 0
	.loc	1 553 57 is_stmt 1              # ./euler3d_no_memcpytosymbol.cu:553:57
	movl	$-1, (%r14)
	movl	$-1, %eax
.Ltmp497:
.LBB9_17:                               # %if.end103
                                        #   in Loop: Header=BB9_13 Depth=1
	#DEBUG_VALUE: main:argc <- [DW_OP_LLVM_entry_value 1] $edi
	#DEBUG_VALUE: main:argv <- [DW_OP_LLVM_entry_value 1] $rsi
	#DEBUG_VALUE: main:h_ff_variable <- [DW_OP_plus_uconst 448, DW_OP_deref] $rsp
	#DEBUG_VALUE: main:h_ff_flux_contribution_momentum_x <- [DW_OP_plus_uconst 432, DW_OP_deref] $rsp
	#DEBUG_VALUE: main:h_ff_flux_contribution_momentum_y <- [DW_OP_plus_uconst 416, DW_OP_deref] $rsp
	#DEBUG_VALUE: main:h_ff_flux_contribution_momentum_z <- [DW_OP_plus_uconst 400, DW_OP_deref] $rsp
	#DEBUG_VALUE: main:h_ff_flux_contribution_density_energy <- [DW_OP_plus_uconst 384, DW_OP_deref] $rsp
	#DEBUG_VALUE: main:angle_of_attack <- 0.000000e+00
	#DEBUG_VALUE: main:ff_pressure <- 1.000000e+00
	#DEBUG_VALUE: main:ff_speed_of_sound <- 1.000000e+00
	#DEBUG_VALUE: main:ff_speed <- 1.200000e+00
	#DEBUG_VALUE: main:ff_velocity <- [DW_OP_LLVM_fragment 0 32] 1.200000e+00
	#DEBUG_VALUE: main:ff_velocity <- [DW_OP_LLVM_fragment 32 32] 0.000000e+00
	#DEBUG_VALUE: main:ff_velocity <- [DW_OP_LLVM_fragment 64 32] 0.000000e+00
	#DEBUG_VALUE: main:h_ff_momentum <- [DW_OP_LLVM_fragment 0 32] 1.680000e+00
	#DEBUG_VALUE: main:h_ff_momentum <- [DW_OP_LLVM_fragment 32 32] 0.000000e+00
	#DEBUG_VALUE: main:h_ff_momentum <- [DW_OP_LLVM_fragment 64 32] 0.000000e+00
	#DEBUG_VALUE: main:nelr <- [DW_OP_plus_uconst 200, DW_OP_deref] $rsp
	#DEBUG_VALUE: h_areas <- [DW_OP_plus_uconst 16, DW_OP_deref] $rsp
	#DEBUG_VALUE: h_elements_surrounding_elements <- [DW_OP_plus_uconst 216, DW_OP_deref] $rsp
	#DEBUG_VALUE: i <- $r13
	#DEBUG_VALUE: j <- 0
	.loc	1 554 54                        # ./euler3d_no_memcpytosymbol.cu:554:54
	decl	%eax
	movl	%eax, (%r14)
.Ltmp498:
	#DEBUG_VALUE: k <- 0
	#DEBUG_VALUE: operator>>:this <- [DW_OP_plus_uconst 480, DW_OP_stack_value] $rsp
	#DEBUG_VALUE: operator>>:__f <- [DW_OP_LLVM_arg 0, DW_OP_plus_uconst 240, DW_OP_deref, DW_OP_LLVM_arg 1, DW_OP_constu 4, DW_OP_mul, DW_OP_plus, DW_OP_stack_value] $rsp, $r13
	.loc	1 0 54 is_stmt 0                # ./euler3d_no_memcpytosymbol.cu:0:54
	movq	240(%rsp), %rax                 # 8-byte Reload
.Ltmp499:
	.loc	19 217 16 is_stmt 1             # /usr/lib/gcc/x86_64-linux-gnu/13/../../../../include/c++/13/istream:217:16
	leaq	(%rax,%r15), %r14
.Ltmp384:
	.cfi_escape 0x2e, 0x00
	movq	%rbx, %rdi
	movq	%r14, %rsi
	callq	_ZNSi10_M_extractIfEERSiRT_@PLT
.Ltmp500:
.Ltmp385:
	.loc	19 0 16 is_stmt 0               # /usr/lib/gcc/x86_64-linux-gnu/13/../../../../include/c++/13/istream:0:16
	movaps	.LCPI9_4(%rip), %xmm1           # xmm1 = [-0.0E+0,-0.0E+0,-0.0E+0,-0.0E+0]
.Ltmp501:
# %bb.18:                               # %invoke.cont119
                                        #   in Loop: Header=BB9_13 Depth=1
	#DEBUG_VALUE: main:argc <- [DW_OP_LLVM_entry_value 1] $edi
	#DEBUG_VALUE: main:argv <- [DW_OP_LLVM_entry_value 1] $rsi
	#DEBUG_VALUE: main:h_ff_variable <- [DW_OP_plus_uconst 448, DW_OP_deref] $rsp
	#DEBUG_VALUE: main:h_ff_flux_contribution_momentum_x <- [DW_OP_plus_uconst 432, DW_OP_deref] $rsp
	#DEBUG_VALUE: main:h_ff_flux_contribution_momentum_y <- [DW_OP_plus_uconst 416, DW_OP_deref] $rsp
	#DEBUG_VALUE: main:h_ff_flux_contribution_momentum_z <- [DW_OP_plus_uconst 400, DW_OP_deref] $rsp
	#DEBUG_VALUE: main:h_ff_flux_contribution_density_energy <- [DW_OP_plus_uconst 384, DW_OP_deref] $rsp
	#DEBUG_VALUE: main:angle_of_attack <- 0.000000e+00
	#DEBUG_VALUE: main:ff_pressure <- 1.000000e+00
	#DEBUG_VALUE: main:ff_speed_of_sound <- 1.000000e+00
	#DEBUG_VALUE: main:ff_speed <- 1.200000e+00
	#DEBUG_VALUE: main:ff_velocity <- [DW_OP_LLVM_fragment 0 32] 1.200000e+00
	#DEBUG_VALUE: main:ff_velocity <- [DW_OP_LLVM_fragment 32 32] 0.000000e+00
	#DEBUG_VALUE: main:ff_velocity <- [DW_OP_LLVM_fragment 64 32] 0.000000e+00
	#DEBUG_VALUE: main:h_ff_momentum <- [DW_OP_LLVM_fragment 0 32] 1.680000e+00
	#DEBUG_VALUE: main:h_ff_momentum <- [DW_OP_LLVM_fragment 32 32] 0.000000e+00
	#DEBUG_VALUE: main:h_ff_momentum <- [DW_OP_LLVM_fragment 64 32] 0.000000e+00
	#DEBUG_VALUE: main:nelr <- [DW_OP_plus_uconst 200, DW_OP_deref] $rsp
	#DEBUG_VALUE: h_areas <- [DW_OP_plus_uconst 16, DW_OP_deref] $rsp
	#DEBUG_VALUE: h_elements_surrounding_elements <- [DW_OP_plus_uconst 216, DW_OP_deref] $rsp
	#DEBUG_VALUE: i <- $r13
	#DEBUG_VALUE: j <- 0
	#DEBUG_VALUE: k <- 0
	#DEBUG_VALUE: operator>>:this <- [DW_OP_plus_uconst 480, DW_OP_stack_value] $rsp
	#DEBUG_VALUE: operator>>:__f <- [DW_OP_LLVM_arg 0, DW_OP_plus_uconst 240, DW_OP_deref, DW_OP_LLVM_arg 1, DW_OP_constu 4, DW_OP_mul, DW_OP_plus, DW_OP_stack_value] $rsp, $r13
	.loc	1 559 15 is_stmt 1              # ./euler3d_no_memcpytosymbol.cu:559:15
	movss	(%r14), %xmm0                   # xmm0 = mem[0],zero,zero,zero
	xorps	%xmm1, %xmm0
	.loc	1 558 45                        # ./euler3d_no_memcpytosymbol.cu:558:45
	movss	%xmm0, (%r14)
.Ltmp502:
	#DEBUG_VALUE: k <- 1
	#DEBUG_VALUE: operator>>:this <- [DW_OP_plus_uconst 480, DW_OP_stack_value] $rsp
	#DEBUG_VALUE: operator>>:__f <- [DW_OP_LLVM_arg 0, DW_OP_plus_uconst 88, DW_OP_deref, DW_OP_LLVM_arg 1, DW_OP_constu 4, DW_OP_mul, DW_OP_plus, DW_OP_stack_value] $rsp, $r13
	.loc	1 0 45 is_stmt 0                # ./euler3d_no_memcpytosymbol.cu:0:45
	movq	88(%rsp), %rax                  # 8-byte Reload
.Ltmp503:
	.loc	19 217 16 is_stmt 1             # /usr/lib/gcc/x86_64-linux-gnu/13/../../../../include/c++/13/istream:217:16
	leaq	(%rax,%r15), %r14
.Ltmp386:
	.cfi_escape 0x2e, 0x00
	movq	%rbx, %rdi
	movq	%r14, %rsi
	callq	_ZNSi10_M_extractIfEERSiRT_@PLT
.Ltmp504:
	.loc	19 0 16 is_stmt 0               # /usr/lib/gcc/x86_64-linux-gnu/13/../../../../include/c++/13/istream:0:16
	movaps	.LCPI9_4(%rip), %xmm1           # xmm1 = [-0.0E+0,-0.0E+0,-0.0E+0,-0.0E+0]
.Ltmp505:
.Ltmp387:
# %bb.19:                               # %invoke.cont119.1
                                        #   in Loop: Header=BB9_13 Depth=1
	#DEBUG_VALUE: main:argc <- [DW_OP_LLVM_entry_value 1] $edi
	#DEBUG_VALUE: main:argv <- [DW_OP_LLVM_entry_value 1] $rsi
	#DEBUG_VALUE: main:h_ff_variable <- [DW_OP_plus_uconst 448, DW_OP_deref] $rsp
	#DEBUG_VALUE: main:h_ff_flux_contribution_momentum_x <- [DW_OP_plus_uconst 432, DW_OP_deref] $rsp
	#DEBUG_VALUE: main:h_ff_flux_contribution_momentum_y <- [DW_OP_plus_uconst 416, DW_OP_deref] $rsp
	#DEBUG_VALUE: main:h_ff_flux_contribution_momentum_z <- [DW_OP_plus_uconst 400, DW_OP_deref] $rsp
	#DEBUG_VALUE: main:h_ff_flux_contribution_density_energy <- [DW_OP_plus_uconst 384, DW_OP_deref] $rsp
	#DEBUG_VALUE: main:angle_of_attack <- 0.000000e+00
	#DEBUG_VALUE: main:ff_pressure <- 1.000000e+00
	#DEBUG_VALUE: main:ff_speed_of_sound <- 1.000000e+00
	#DEBUG_VALUE: main:ff_speed <- 1.200000e+00
	#DEBUG_VALUE: main:ff_velocity <- [DW_OP_LLVM_fragment 0 32] 1.200000e+00
	#DEBUG_VALUE: main:ff_velocity <- [DW_OP_LLVM_fragment 32 32] 0.000000e+00
	#DEBUG_VALUE: main:ff_velocity <- [DW_OP_LLVM_fragment 64 32] 0.000000e+00
	#DEBUG_VALUE: main:h_ff_momentum <- [DW_OP_LLVM_fragment 0 32] 1.680000e+00
	#DEBUG_VALUE: main:h_ff_momentum <- [DW_OP_LLVM_fragment 32 32] 0.000000e+00
	#DEBUG_VALUE: main:h_ff_momentum <- [DW_OP_LLVM_fragment 64 32] 0.000000e+00
	#DEBUG_VALUE: main:nelr <- [DW_OP_plus_uconst 200, DW_OP_deref] $rsp
	#DEBUG_VALUE: h_areas <- [DW_OP_plus_uconst 16, DW_OP_deref] $rsp
	#DEBUG_VALUE: h_elements_surrounding_elements <- [DW_OP_plus_uconst 216, DW_OP_deref] $rsp
	#DEBUG_VALUE: i <- $r13
	#DEBUG_VALUE: j <- 0
	#DEBUG_VALUE: k <- 1
	#DEBUG_VALUE: operator>>:this <- [DW_OP_plus_uconst 480, DW_OP_stack_value] $rsp
	#DEBUG_VALUE: operator>>:__f <- [DW_OP_LLVM_arg 0, DW_OP_plus_uconst 88, DW_OP_deref, DW_OP_LLVM_arg 1, DW_OP_constu 4, DW_OP_mul, DW_OP_plus, DW_OP_stack_value] $rsp, $r13
	.loc	1 559 15 is_stmt 1              # ./euler3d_no_memcpytosymbol.cu:559:15
	movss	(%r14), %xmm0                   # xmm0 = mem[0],zero,zero,zero
	xorps	%xmm1, %xmm0
	.loc	1 558 45                        # ./euler3d_no_memcpytosymbol.cu:558:45
	movss	%xmm0, (%r14)
.Ltmp506:
	#DEBUG_VALUE: k <- 2
	#DEBUG_VALUE: operator>>:this <- [DW_OP_plus_uconst 480, DW_OP_stack_value] $rsp
	#DEBUG_VALUE: operator>>:__f <- [DW_OP_LLVM_arg 0, DW_OP_plus_uconst 72, DW_OP_deref, DW_OP_LLVM_arg 1, DW_OP_constu 4, DW_OP_mul, DW_OP_plus, DW_OP_stack_value] $rsp, $r13
	.loc	1 0 45 is_stmt 0                # ./euler3d_no_memcpytosymbol.cu:0:45
	movq	72(%rsp), %rax                  # 8-byte Reload
.Ltmp507:
	.loc	19 217 16 is_stmt 1             # /usr/lib/gcc/x86_64-linux-gnu/13/../../../../include/c++/13/istream:217:16
	leaq	(%rax,%r15), %r14
.Ltmp388:
	.cfi_escape 0x2e, 0x00
	movq	%rbx, %rdi
	movq	%r14, %rsi
	callq	_ZNSi10_M_extractIfEERSiRT_@PLT
.Ltmp508:
	.loc	19 0 16 is_stmt 0               # /usr/lib/gcc/x86_64-linux-gnu/13/../../../../include/c++/13/istream:0:16
	movaps	.LCPI9_4(%rip), %xmm1           # xmm1 = [-0.0E+0,-0.0E+0,-0.0E+0,-0.0E+0]
.Ltmp509:
.Ltmp389:
# %bb.20:                               # %invoke.cont119.2
                                        #   in Loop: Header=BB9_13 Depth=1
	#DEBUG_VALUE: main:argc <- [DW_OP_LLVM_entry_value 1] $edi
	#DEBUG_VALUE: main:argv <- [DW_OP_LLVM_entry_value 1] $rsi
	#DEBUG_VALUE: main:h_ff_variable <- [DW_OP_plus_uconst 448, DW_OP_deref] $rsp
	#DEBUG_VALUE: main:h_ff_flux_contribution_momentum_x <- [DW_OP_plus_uconst 432, DW_OP_deref] $rsp
	#DEBUG_VALUE: main:h_ff_flux_contribution_momentum_y <- [DW_OP_plus_uconst 416, DW_OP_deref] $rsp
	#DEBUG_VALUE: main:h_ff_flux_contribution_momentum_z <- [DW_OP_plus_uconst 400, DW_OP_deref] $rsp
	#DEBUG_VALUE: main:h_ff_flux_contribution_density_energy <- [DW_OP_plus_uconst 384, DW_OP_deref] $rsp
	#DEBUG_VALUE: main:angle_of_attack <- 0.000000e+00
	#DEBUG_VALUE: main:ff_pressure <- 1.000000e+00
	#DEBUG_VALUE: main:ff_speed_of_sound <- 1.000000e+00
	#DEBUG_VALUE: main:ff_speed <- 1.200000e+00
	#DEBUG_VALUE: main:ff_velocity <- [DW_OP_LLVM_fragment 0 32] 1.200000e+00
	#DEBUG_VALUE: main:ff_velocity <- [DW_OP_LLVM_fragment 32 32] 0.000000e+00
	#DEBUG_VALUE: main:ff_velocity <- [DW_OP_LLVM_fragment 64 32] 0.000000e+00
	#DEBUG_VALUE: main:h_ff_momentum <- [DW_OP_LLVM_fragment 0 32] 1.680000e+00
	#DEBUG_VALUE: main:h_ff_momentum <- [DW_OP_LLVM_fragment 32 32] 0.000000e+00
	#DEBUG_VALUE: main:h_ff_momentum <- [DW_OP_LLVM_fragment 64 32] 0.000000e+00
	#DEBUG_VALUE: main:nelr <- [DW_OP_plus_uconst 200, DW_OP_deref] $rsp
	#DEBUG_VALUE: h_areas <- [DW_OP_plus_uconst 16, DW_OP_deref] $rsp
	#DEBUG_VALUE: h_elements_surrounding_elements <- [DW_OP_plus_uconst 216, DW_OP_deref] $rsp
	#DEBUG_VALUE: i <- $r13
	#DEBUG_VALUE: j <- 0
	#DEBUG_VALUE: k <- 2
	.loc	1 559 15 is_stmt 1              # ./euler3d_no_memcpytosymbol.cu:559:15
	movss	(%r14), %xmm0                   # xmm0 = mem[0],zero,zero,zero
	xorps	%xmm1, %xmm0
	.loc	1 558 45                        # ./euler3d_no_memcpytosymbol.cu:558:45
	movss	%xmm0, (%r14)
.Ltmp510:
	#DEBUG_VALUE: k <- 3
	#DEBUG_VALUE: j <- 1
	.loc	1 0 45 is_stmt 0                # ./euler3d_no_memcpytosymbol.cu:0:45
	movq	80(%rsp), %rax                  # 8-byte Reload
.Ltmp511:
	.loc	1 551 14 is_stmt 1              # ./euler3d_no_memcpytosymbol.cu:551:14
	leaq	(%rax,%r15), %r14
.Ltmp390:
	.cfi_escape 0x2e, 0x00
	movq	%rbx, %rdi
	movq	%r14, %rsi
	callq	_ZNSirsERi@PLT
.Ltmp512:
.Ltmp391:
# %bb.21:                               # %invoke.cont91.1
                                        #   in Loop: Header=BB9_13 Depth=1
	#DEBUG_VALUE: main:argc <- [DW_OP_LLVM_entry_value 1] $edi
	#DEBUG_VALUE: main:argv <- [DW_OP_LLVM_entry_value 1] $rsi
	#DEBUG_VALUE: main:h_ff_variable <- [DW_OP_plus_uconst 448, DW_OP_deref] $rsp
	#DEBUG_VALUE: main:h_ff_flux_contribution_momentum_x <- [DW_OP_plus_uconst 432, DW_OP_deref] $rsp
	#DEBUG_VALUE: main:h_ff_flux_contribution_momentum_y <- [DW_OP_plus_uconst 416, DW_OP_deref] $rsp
	#DEBUG_VALUE: main:h_ff_flux_contribution_momentum_z <- [DW_OP_plus_uconst 400, DW_OP_deref] $rsp
	#DEBUG_VALUE: main:h_ff_flux_contribution_density_energy <- [DW_OP_plus_uconst 384, DW_OP_deref] $rsp
	#DEBUG_VALUE: main:angle_of_attack <- 0.000000e+00
	#DEBUG_VALUE: main:ff_pressure <- 1.000000e+00
	#DEBUG_VALUE: main:ff_speed_of_sound <- 1.000000e+00
	#DEBUG_VALUE: main:ff_speed <- 1.200000e+00
	#DEBUG_VALUE: main:ff_velocity <- [DW_OP_LLVM_fragment 0 32] 1.200000e+00
	#DEBUG_VALUE: main:ff_velocity <- [DW_OP_LLVM_fragment 32 32] 0.000000e+00
	#DEBUG_VALUE: main:ff_velocity <- [DW_OP_LLVM_fragment 64 32] 0.000000e+00
	#DEBUG_VALUE: main:h_ff_momentum <- [DW_OP_LLVM_fragment 0 32] 1.680000e+00
	#DEBUG_VALUE: main:h_ff_momentum <- [DW_OP_LLVM_fragment 32 32] 0.000000e+00
	#DEBUG_VALUE: main:h_ff_momentum <- [DW_OP_LLVM_fragment 64 32] 0.000000e+00
	#DEBUG_VALUE: main:nelr <- [DW_OP_plus_uconst 200, DW_OP_deref] $rsp
	#DEBUG_VALUE: h_areas <- [DW_OP_plus_uconst 16, DW_OP_deref] $rsp
	#DEBUG_VALUE: h_elements_surrounding_elements <- [DW_OP_plus_uconst 216, DW_OP_deref] $rsp
	#DEBUG_VALUE: i <- $r13
	#DEBUG_VALUE: j <- 1
	.loc	1 552 13                        # ./euler3d_no_memcpytosymbol.cu:552:13
	movl	(%r14), %eax
	.loc	1 552 59 is_stmt 0              # ./euler3d_no_memcpytosymbol.cu:552:59
	testl	%eax, %eax
.Ltmp513:
	.loc	1 552 13                        # ./euler3d_no_memcpytosymbol.cu:552:13
	jns	.LBB9_23
.Ltmp514:
# %bb.22:                               # %if.then98.1
                                        #   in Loop: Header=BB9_13 Depth=1
	#DEBUG_VALUE: main:argc <- [DW_OP_LLVM_entry_value 1] $edi
	#DEBUG_VALUE: main:argv <- [DW_OP_LLVM_entry_value 1] $rsi
	#DEBUG_VALUE: main:h_ff_variable <- [DW_OP_plus_uconst 448, DW_OP_deref] $rsp
	#DEBUG_VALUE: main:h_ff_flux_contribution_momentum_x <- [DW_OP_plus_uconst 432, DW_OP_deref] $rsp
	#DEBUG_VALUE: main:h_ff_flux_contribution_momentum_y <- [DW_OP_plus_uconst 416, DW_OP_deref] $rsp
	#DEBUG_VALUE: main:h_ff_flux_contribution_momentum_z <- [DW_OP_plus_uconst 400, DW_OP_deref] $rsp
	#DEBUG_VALUE: main:h_ff_flux_contribution_density_energy <- [DW_OP_plus_uconst 384, DW_OP_deref] $rsp
	#DEBUG_VALUE: main:angle_of_attack <- 0.000000e+00
	#DEBUG_VALUE: main:ff_pressure <- 1.000000e+00
	#DEBUG_VALUE: main:ff_speed_of_sound <- 1.000000e+00
	#DEBUG_VALUE: main:ff_speed <- 1.200000e+00
	#DEBUG_VALUE: main:ff_velocity <- [DW_OP_LLVM_fragment 0 32] 1.200000e+00
	#DEBUG_VALUE: main:ff_velocity <- [DW_OP_LLVM_fragment 32 32] 0.000000e+00
	#DEBUG_VALUE: main:ff_velocity <- [DW_OP_LLVM_fragment 64 32] 0.000000e+00
	#DEBUG_VALUE: main:h_ff_momentum <- [DW_OP_LLVM_fragment 0 32] 1.680000e+00
	#DEBUG_VALUE: main:h_ff_momentum <- [DW_OP_LLVM_fragment 32 32] 0.000000e+00
	#DEBUG_VALUE: main:h_ff_momentum <- [DW_OP_LLVM_fragment 64 32] 0.000000e+00
	#DEBUG_VALUE: main:nelr <- [DW_OP_plus_uconst 200, DW_OP_deref] $rsp
	#DEBUG_VALUE: h_areas <- [DW_OP_plus_uconst 16, DW_OP_deref] $rsp
	#DEBUG_VALUE: h_elements_surrounding_elements <- [DW_OP_plus_uconst 216, DW_OP_deref] $rsp
	#DEBUG_VALUE: i <- $r13
	#DEBUG_VALUE: j <- 1
	.loc	1 553 57 is_stmt 1              # ./euler3d_no_memcpytosymbol.cu:553:57
	movl	$-1, (%r14)
	movl	$-1, %eax
.Ltmp515:
.LBB9_23:                               # %if.end103.1
                                        #   in Loop: Header=BB9_13 Depth=1
	#DEBUG_VALUE: main:argc <- [DW_OP_LLVM_entry_value 1] $edi
	#DEBUG_VALUE: main:argv <- [DW_OP_LLVM_entry_value 1] $rsi
	#DEBUG_VALUE: main:h_ff_variable <- [DW_OP_plus_uconst 448, DW_OP_deref] $rsp
	#DEBUG_VALUE: main:h_ff_flux_contribution_momentum_x <- [DW_OP_plus_uconst 432, DW_OP_deref] $rsp
	#DEBUG_VALUE: main:h_ff_flux_contribution_momentum_y <- [DW_OP_plus_uconst 416, DW_OP_deref] $rsp
	#DEBUG_VALUE: main:h_ff_flux_contribution_momentum_z <- [DW_OP_plus_uconst 400, DW_OP_deref] $rsp
	#DEBUG_VALUE: main:h_ff_flux_contribution_density_energy <- [DW_OP_plus_uconst 384, DW_OP_deref] $rsp
	#DEBUG_VALUE: main:angle_of_attack <- 0.000000e+00
	#DEBUG_VALUE: main:ff_pressure <- 1.000000e+00
	#DEBUG_VALUE: main:ff_speed_of_sound <- 1.000000e+00
	#DEBUG_VALUE: main:ff_speed <- 1.200000e+00
	#DEBUG_VALUE: main:ff_velocity <- [DW_OP_LLVM_fragment 0 32] 1.200000e+00
	#DEBUG_VALUE: main:ff_velocity <- [DW_OP_LLVM_fragment 32 32] 0.000000e+00
	#DEBUG_VALUE: main:ff_velocity <- [DW_OP_LLVM_fragment 64 32] 0.000000e+00
	#DEBUG_VALUE: main:h_ff_momentum <- [DW_OP_LLVM_fragment 0 32] 1.680000e+00
	#DEBUG_VALUE: main:h_ff_momentum <- [DW_OP_LLVM_fragment 32 32] 0.000000e+00
	#DEBUG_VALUE: main:h_ff_momentum <- [DW_OP_LLVM_fragment 64 32] 0.000000e+00
	#DEBUG_VALUE: main:nelr <- [DW_OP_plus_uconst 200, DW_OP_deref] $rsp
	#DEBUG_VALUE: h_areas <- [DW_OP_plus_uconst 16, DW_OP_deref] $rsp
	#DEBUG_VALUE: h_elements_surrounding_elements <- [DW_OP_plus_uconst 216, DW_OP_deref] $rsp
	#DEBUG_VALUE: i <- $r13
	#DEBUG_VALUE: j <- 1
	.loc	1 554 54                        # ./euler3d_no_memcpytosymbol.cu:554:54
	decl	%eax
	movl	%eax, (%r14)
.Ltmp516:
	#DEBUG_VALUE: k <- 0
	#DEBUG_VALUE: operator>>:this <- [DW_OP_plus_uconst 480, DW_OP_stack_value] $rsp
	#DEBUG_VALUE: operator>>:__f <- [DW_OP_LLVM_arg 0, DW_OP_plus_uconst 240, DW_OP_deref, DW_OP_LLVM_arg 1, DW_OP_LLVM_arg 2, DW_OP_plus_uconst 288, DW_OP_deref, DW_OP_plus, DW_OP_constu 4, DW_OP_mul, DW_OP_plus, DW_OP_stack_value] $rsp, $r13, $rsp
	.loc	1 0 54 is_stmt 0                # ./euler3d_no_memcpytosymbol.cu:0:54
	movq	192(%rsp), %rax                 # 8-byte Reload
.Ltmp517:
	.loc	19 217 16 is_stmt 1             # /usr/lib/gcc/x86_64-linux-gnu/13/../../../../include/c++/13/istream:217:16
	leaq	(%rax,%r15), %r14
.Ltmp392:
	.cfi_escape 0x2e, 0x00
	movq	%rbx, %rdi
	movq	%r14, %rsi
	callq	_ZNSi10_M_extractIfEERSiRT_@PLT
.Ltmp518:
.Ltmp393:
	.loc	19 0 16 is_stmt 0               # /usr/lib/gcc/x86_64-linux-gnu/13/../../../../include/c++/13/istream:0:16
	movaps	.LCPI9_4(%rip), %xmm1           # xmm1 = [-0.0E+0,-0.0E+0,-0.0E+0,-0.0E+0]
.Ltmp519:
# %bb.24:                               # %invoke.cont119.1363
                                        #   in Loop: Header=BB9_13 Depth=1
	#DEBUG_VALUE: main:argc <- [DW_OP_LLVM_entry_value 1] $edi
	#DEBUG_VALUE: main:argv <- [DW_OP_LLVM_entry_value 1] $rsi
	#DEBUG_VALUE: main:h_ff_variable <- [DW_OP_plus_uconst 448, DW_OP_deref] $rsp
	#DEBUG_VALUE: main:h_ff_flux_contribution_momentum_x <- [DW_OP_plus_uconst 432, DW_OP_deref] $rsp
	#DEBUG_VALUE: main:h_ff_flux_contribution_momentum_y <- [DW_OP_plus_uconst 416, DW_OP_deref] $rsp
	#DEBUG_VALUE: main:h_ff_flux_contribution_momentum_z <- [DW_OP_plus_uconst 400, DW_OP_deref] $rsp
	#DEBUG_VALUE: main:h_ff_flux_contribution_density_energy <- [DW_OP_plus_uconst 384, DW_OP_deref] $rsp
	#DEBUG_VALUE: main:angle_of_attack <- 0.000000e+00
	#DEBUG_VALUE: main:ff_pressure <- 1.000000e+00
	#DEBUG_VALUE: main:ff_speed_of_sound <- 1.000000e+00
	#DEBUG_VALUE: main:ff_speed <- 1.200000e+00
	#DEBUG_VALUE: main:ff_velocity <- [DW_OP_LLVM_fragment 0 32] 1.200000e+00
	#DEBUG_VALUE: main:ff_velocity <- [DW_OP_LLVM_fragment 32 32] 0.000000e+00
	#DEBUG_VALUE: main:ff_velocity <- [DW_OP_LLVM_fragment 64 32] 0.000000e+00
	#DEBUG_VALUE: main:h_ff_momentum <- [DW_OP_LLVM_fragment 0 32] 1.680000e+00
	#DEBUG_VALUE: main:h_ff_momentum <- [DW_OP_LLVM_fragment 32 32] 0.000000e+00
	#DEBUG_VALUE: main:h_ff_momentum <- [DW_OP_LLVM_fragment 64 32] 0.000000e+00
	#DEBUG_VALUE: main:nelr <- [DW_OP_plus_uconst 200, DW_OP_deref] $rsp
	#DEBUG_VALUE: h_areas <- [DW_OP_plus_uconst 16, DW_OP_deref] $rsp
	#DEBUG_VALUE: h_elements_surrounding_elements <- [DW_OP_plus_uconst 216, DW_OP_deref] $rsp
	#DEBUG_VALUE: i <- $r13
	#DEBUG_VALUE: j <- 1
	#DEBUG_VALUE: k <- 0
	#DEBUG_VALUE: operator>>:this <- [DW_OP_plus_uconst 480, DW_OP_stack_value] $rsp
	#DEBUG_VALUE: operator>>:__f <- [DW_OP_LLVM_arg 0, DW_OP_plus_uconst 240, DW_OP_deref, DW_OP_LLVM_arg 1, DW_OP_LLVM_arg 2, DW_OP_plus_uconst 288, DW_OP_deref, DW_OP_plus, DW_OP_constu 4, DW_OP_mul, DW_OP_plus, DW_OP_stack_value] $rsp, $r13, $rsp
	.loc	1 559 15 is_stmt 1              # ./euler3d_no_memcpytosymbol.cu:559:15
	movss	(%r14), %xmm0                   # xmm0 = mem[0],zero,zero,zero
	xorps	%xmm1, %xmm0
	.loc	1 558 45                        # ./euler3d_no_memcpytosymbol.cu:558:45
	movss	%xmm0, (%r14)
.Ltmp520:
	#DEBUG_VALUE: k <- 1
	#DEBUG_VALUE: operator>>:this <- [DW_OP_plus_uconst 480, DW_OP_stack_value] $rsp
	#DEBUG_VALUE: operator>>:__f <- [DW_OP_LLVM_arg 0, DW_OP_plus_uconst 96, DW_OP_deref, DW_OP_LLVM_arg 1, DW_OP_constu 4, DW_OP_mul, DW_OP_plus, DW_OP_stack_value] $rsp, $r13
	.loc	1 0 45 is_stmt 0                # ./euler3d_no_memcpytosymbol.cu:0:45
	movq	96(%rsp), %rax                  # 8-byte Reload
.Ltmp521:
	.loc	19 217 16 is_stmt 1             # /usr/lib/gcc/x86_64-linux-gnu/13/../../../../include/c++/13/istream:217:16
	leaq	(%rax,%r15), %r14
.Ltmp394:
	.cfi_escape 0x2e, 0x00
	movq	%rbx, %rdi
	movq	%r14, %rsi
	callq	_ZNSi10_M_extractIfEERSiRT_@PLT
.Ltmp522:
	.loc	19 0 16 is_stmt 0               # /usr/lib/gcc/x86_64-linux-gnu/13/../../../../include/c++/13/istream:0:16
	movaps	.LCPI9_4(%rip), %xmm1           # xmm1 = [-0.0E+0,-0.0E+0,-0.0E+0,-0.0E+0]
.Ltmp523:
.Ltmp395:
# %bb.25:                               # %invoke.cont119.1.1
                                        #   in Loop: Header=BB9_13 Depth=1
	#DEBUG_VALUE: main:argc <- [DW_OP_LLVM_entry_value 1] $edi
	#DEBUG_VALUE: main:argv <- [DW_OP_LLVM_entry_value 1] $rsi
	#DEBUG_VALUE: main:h_ff_variable <- [DW_OP_plus_uconst 448, DW_OP_deref] $rsp
	#DEBUG_VALUE: main:h_ff_flux_contribution_momentum_x <- [DW_OP_plus_uconst 432, DW_OP_deref] $rsp
	#DEBUG_VALUE: main:h_ff_flux_contribution_momentum_y <- [DW_OP_plus_uconst 416, DW_OP_deref] $rsp
	#DEBUG_VALUE: main:h_ff_flux_contribution_momentum_z <- [DW_OP_plus_uconst 400, DW_OP_deref] $rsp
	#DEBUG_VALUE: main:h_ff_flux_contribution_density_energy <- [DW_OP_plus_uconst 384, DW_OP_deref] $rsp
	#DEBUG_VALUE: main:angle_of_attack <- 0.000000e+00
	#DEBUG_VALUE: main:ff_pressure <- 1.000000e+00
	#DEBUG_VALUE: main:ff_speed_of_sound <- 1.000000e+00
	#DEBUG_VALUE: main:ff_speed <- 1.200000e+00
	#DEBUG_VALUE: main:ff_velocity <- [DW_OP_LLVM_fragment 0 32] 1.200000e+00
	#DEBUG_VALUE: main:ff_velocity <- [DW_OP_LLVM_fragment 32 32] 0.000000e+00
	#DEBUG_VALUE: main:ff_velocity <- [DW_OP_LLVM_fragment 64 32] 0.000000e+00
	#DEBUG_VALUE: main:h_ff_momentum <- [DW_OP_LLVM_fragment 0 32] 1.680000e+00
	#DEBUG_VALUE: main:h_ff_momentum <- [DW_OP_LLVM_fragment 32 32] 0.000000e+00
	#DEBUG_VALUE: main:h_ff_momentum <- [DW_OP_LLVM_fragment 64 32] 0.000000e+00
	#DEBUG_VALUE: main:nelr <- [DW_OP_plus_uconst 200, DW_OP_deref] $rsp
	#DEBUG_VALUE: h_areas <- [DW_OP_plus_uconst 16, DW_OP_deref] $rsp
	#DEBUG_VALUE: h_elements_surrounding_elements <- [DW_OP_plus_uconst 216, DW_OP_deref] $rsp
	#DEBUG_VALUE: i <- $r13
	#DEBUG_VALUE: j <- 1
	#DEBUG_VALUE: k <- 1
	#DEBUG_VALUE: operator>>:this <- [DW_OP_plus_uconst 480, DW_OP_stack_value] $rsp
	#DEBUG_VALUE: operator>>:__f <- [DW_OP_LLVM_arg 0, DW_OP_plus_uconst 96, DW_OP_deref, DW_OP_LLVM_arg 1, DW_OP_constu 4, DW_OP_mul, DW_OP_plus, DW_OP_stack_value] $rsp, $r13
	.loc	1 559 15 is_stmt 1              # ./euler3d_no_memcpytosymbol.cu:559:15
	movss	(%r14), %xmm0                   # xmm0 = mem[0],zero,zero,zero
	xorps	%xmm1, %xmm0
	.loc	1 558 45                        # ./euler3d_no_memcpytosymbol.cu:558:45
	movss	%xmm0, (%r14)
.Ltmp524:
	#DEBUG_VALUE: k <- 2
	#DEBUG_VALUE: operator>>:this <- [DW_OP_plus_uconst 480, DW_OP_stack_value] $rsp
	#DEBUG_VALUE: operator>>:__f <- [DW_OP_LLVM_arg 0, DW_OP_plus_uconst 208, DW_OP_deref, DW_OP_LLVM_arg 1, DW_OP_constu 4, DW_OP_mul, DW_OP_plus, DW_OP_stack_value] $rsp, $r13
	.loc	1 0 45 is_stmt 0                # ./euler3d_no_memcpytosymbol.cu:0:45
	movq	208(%rsp), %rax                 # 8-byte Reload
.Ltmp525:
	.loc	19 217 16 is_stmt 1             # /usr/lib/gcc/x86_64-linux-gnu/13/../../../../include/c++/13/istream:217:16
	leaq	(%rax,%r15), %r14
.Ltmp396:
	.cfi_escape 0x2e, 0x00
	movq	%rbx, %rdi
	movq	%r14, %rsi
	callq	_ZNSi10_M_extractIfEERSiRT_@PLT
.Ltmp526:
	.loc	19 0 16 is_stmt 0               # /usr/lib/gcc/x86_64-linux-gnu/13/../../../../include/c++/13/istream:0:16
	movaps	.LCPI9_4(%rip), %xmm1           # xmm1 = [-0.0E+0,-0.0E+0,-0.0E+0,-0.0E+0]
.Ltmp527:
.Ltmp397:
# %bb.26:                               # %invoke.cont119.2.1
                                        #   in Loop: Header=BB9_13 Depth=1
	#DEBUG_VALUE: main:argc <- [DW_OP_LLVM_entry_value 1] $edi
	#DEBUG_VALUE: main:argv <- [DW_OP_LLVM_entry_value 1] $rsi
	#DEBUG_VALUE: main:h_ff_variable <- [DW_OP_plus_uconst 448, DW_OP_deref] $rsp
	#DEBUG_VALUE: main:h_ff_flux_contribution_momentum_x <- [DW_OP_plus_uconst 432, DW_OP_deref] $rsp
	#DEBUG_VALUE: main:h_ff_flux_contribution_momentum_y <- [DW_OP_plus_uconst 416, DW_OP_deref] $rsp
	#DEBUG_VALUE: main:h_ff_flux_contribution_momentum_z <- [DW_OP_plus_uconst 400, DW_OP_deref] $rsp
	#DEBUG_VALUE: main:h_ff_flux_contribution_density_energy <- [DW_OP_plus_uconst 384, DW_OP_deref] $rsp
	#DEBUG_VALUE: main:angle_of_attack <- 0.000000e+00
	#DEBUG_VALUE: main:ff_pressure <- 1.000000e+00
	#DEBUG_VALUE: main:ff_speed_of_sound <- 1.000000e+00
	#DEBUG_VALUE: main:ff_speed <- 1.200000e+00
	#DEBUG_VALUE: main:ff_velocity <- [DW_OP_LLVM_fragment 0 32] 1.200000e+00
	#DEBUG_VALUE: main:ff_velocity <- [DW_OP_LLVM_fragment 32 32] 0.000000e+00
	#DEBUG_VALUE: main:ff_velocity <- [DW_OP_LLVM_fragment 64 32] 0.000000e+00
	#DEBUG_VALUE: main:h_ff_momentum <- [DW_OP_LLVM_fragment 0 32] 1.680000e+00
	#DEBUG_VALUE: main:h_ff_momentum <- [DW_OP_LLVM_fragment 32 32] 0.000000e+00
	#DEBUG_VALUE: main:h_ff_momentum <- [DW_OP_LLVM_fragment 64 32] 0.000000e+00
	#DEBUG_VALUE: main:nelr <- [DW_OP_plus_uconst 200, DW_OP_deref] $rsp
	#DEBUG_VALUE: h_areas <- [DW_OP_plus_uconst 16, DW_OP_deref] $rsp
	#DEBUG_VALUE: h_elements_surrounding_elements <- [DW_OP_plus_uconst 216, DW_OP_deref] $rsp
	#DEBUG_VALUE: i <- $r13
	#DEBUG_VALUE: j <- 1
	#DEBUG_VALUE: k <- 2
	.loc	1 559 15 is_stmt 1              # ./euler3d_no_memcpytosymbol.cu:559:15
	movss	(%r14), %xmm0                   # xmm0 = mem[0],zero,zero,zero
	xorps	%xmm1, %xmm0
	.loc	1 558 45                        # ./euler3d_no_memcpytosymbol.cu:558:45
	movss	%xmm0, (%r14)
.Ltmp528:
	#DEBUG_VALUE: k <- 3
	#DEBUG_VALUE: j <- 2
	.loc	1 0 45 is_stmt 0                # ./euler3d_no_memcpytosymbol.cu:0:45
	movq	248(%rsp), %rax                 # 8-byte Reload
.Ltmp529:
	.loc	1 551 14 is_stmt 1              # ./euler3d_no_memcpytosymbol.cu:551:14
	leaq	(%rax,%r15), %r14
.Ltmp398:
	.cfi_escape 0x2e, 0x00
	movq	%rbx, %rdi
	movq	%r14, %rsi
	callq	_ZNSirsERi@PLT
.Ltmp530:
.Ltmp399:
# %bb.27:                               # %invoke.cont91.2
                                        #   in Loop: Header=BB9_13 Depth=1
	#DEBUG_VALUE: main:argc <- [DW_OP_LLVM_entry_value 1] $edi
	#DEBUG_VALUE: main:argv <- [DW_OP_LLVM_entry_value 1] $rsi
	#DEBUG_VALUE: main:h_ff_variable <- [DW_OP_plus_uconst 448, DW_OP_deref] $rsp
	#DEBUG_VALUE: main:h_ff_flux_contribution_momentum_x <- [DW_OP_plus_uconst 432, DW_OP_deref] $rsp
	#DEBUG_VALUE: main:h_ff_flux_contribution_momentum_y <- [DW_OP_plus_uconst 416, DW_OP_deref] $rsp
	#DEBUG_VALUE: main:h_ff_flux_contribution_momentum_z <- [DW_OP_plus_uconst 400, DW_OP_deref] $rsp
	#DEBUG_VALUE: main:h_ff_flux_contribution_density_energy <- [DW_OP_plus_uconst 384, DW_OP_deref] $rsp
	#DEBUG_VALUE: main:angle_of_attack <- 0.000000e+00
	#DEBUG_VALUE: main:ff_pressure <- 1.000000e+00
	#DEBUG_VALUE: main:ff_speed_of_sound <- 1.000000e+00
	#DEBUG_VALUE: main:ff_speed <- 1.200000e+00
	#DEBUG_VALUE: main:ff_velocity <- [DW_OP_LLVM_fragment 0 32] 1.200000e+00
	#DEBUG_VALUE: main:ff_velocity <- [DW_OP_LLVM_fragment 32 32] 0.000000e+00
	#DEBUG_VALUE: main:ff_velocity <- [DW_OP_LLVM_fragment 64 32] 0.000000e+00
	#DEBUG_VALUE: main:h_ff_momentum <- [DW_OP_LLVM_fragment 0 32] 1.680000e+00
	#DEBUG_VALUE: main:h_ff_momentum <- [DW_OP_LLVM_fragment 32 32] 0.000000e+00
	#DEBUG_VALUE: main:h_ff_momentum <- [DW_OP_LLVM_fragment 64 32] 0.000000e+00
	#DEBUG_VALUE: main:nelr <- [DW_OP_plus_uconst 200, DW_OP_deref] $rsp
	#DEBUG_VALUE: h_areas <- [DW_OP_plus_uconst 16, DW_OP_deref] $rsp
	#DEBUG_VALUE: h_elements_surrounding_elements <- [DW_OP_plus_uconst 216, DW_OP_deref] $rsp
	#DEBUG_VALUE: i <- $r13
	#DEBUG_VALUE: j <- 2
	.loc	1 552 13                        # ./euler3d_no_memcpytosymbol.cu:552:13
	movl	(%r14), %eax
	.loc	1 552 59 is_stmt 0              # ./euler3d_no_memcpytosymbol.cu:552:59
	testl	%eax, %eax
.Ltmp531:
	.loc	1 552 13                        # ./euler3d_no_memcpytosymbol.cu:552:13
	jns	.LBB9_29
.Ltmp532:
# %bb.28:                               # %if.then98.2
                                        #   in Loop: Header=BB9_13 Depth=1
	#DEBUG_VALUE: main:argc <- [DW_OP_LLVM_entry_value 1] $edi
	#DEBUG_VALUE: main:argv <- [DW_OP_LLVM_entry_value 1] $rsi
	#DEBUG_VALUE: main:h_ff_variable <- [DW_OP_plus_uconst 448, DW_OP_deref] $rsp
	#DEBUG_VALUE: main:h_ff_flux_contribution_momentum_x <- [DW_OP_plus_uconst 432, DW_OP_deref] $rsp
	#DEBUG_VALUE: main:h_ff_flux_contribution_momentum_y <- [DW_OP_plus_uconst 416, DW_OP_deref] $rsp
	#DEBUG_VALUE: main:h_ff_flux_contribution_momentum_z <- [DW_OP_plus_uconst 400, DW_OP_deref] $rsp
	#DEBUG_VALUE: main:h_ff_flux_contribution_density_energy <- [DW_OP_plus_uconst 384, DW_OP_deref] $rsp
	#DEBUG_VALUE: main:angle_of_attack <- 0.000000e+00
	#DEBUG_VALUE: main:ff_pressure <- 1.000000e+00
	#DEBUG_VALUE: main:ff_speed_of_sound <- 1.000000e+00
	#DEBUG_VALUE: main:ff_speed <- 1.200000e+00
	#DEBUG_VALUE: main:ff_velocity <- [DW_OP_LLVM_fragment 0 32] 1.200000e+00
	#DEBUG_VALUE: main:ff_velocity <- [DW_OP_LLVM_fragment 32 32] 0.000000e+00
	#DEBUG_VALUE: main:ff_velocity <- [DW_OP_LLVM_fragment 64 32] 0.000000e+00
	#DEBUG_VALUE: main:h_ff_momentum <- [DW_OP_LLVM_fragment 0 32] 1.680000e+00
	#DEBUG_VALUE: main:h_ff_momentum <- [DW_OP_LLVM_fragment 32 32] 0.000000e+00
	#DEBUG_VALUE: main:h_ff_momentum <- [DW_OP_LLVM_fragment 64 32] 0.000000e+00
	#DEBUG_VALUE: main:nelr <- [DW_OP_plus_uconst 200, DW_OP_deref] $rsp
	#DEBUG_VALUE: h_areas <- [DW_OP_plus_uconst 16, DW_OP_deref] $rsp
	#DEBUG_VALUE: h_elements_surrounding_elements <- [DW_OP_plus_uconst 216, DW_OP_deref] $rsp
	#DEBUG_VALUE: i <- $r13
	#DEBUG_VALUE: j <- 2
	.loc	1 553 57 is_stmt 1              # ./euler3d_no_memcpytosymbol.cu:553:57
	movl	$-1, (%r14)
	movl	$-1, %eax
.Ltmp533:
.LBB9_29:                               # %if.end103.2
                                        #   in Loop: Header=BB9_13 Depth=1
	#DEBUG_VALUE: main:argc <- [DW_OP_LLVM_entry_value 1] $edi
	#DEBUG_VALUE: main:argv <- [DW_OP_LLVM_entry_value 1] $rsi
	#DEBUG_VALUE: main:h_ff_variable <- [DW_OP_plus_uconst 448, DW_OP_deref] $rsp
	#DEBUG_VALUE: main:h_ff_flux_contribution_momentum_x <- [DW_OP_plus_uconst 432, DW_OP_deref] $rsp
	#DEBUG_VALUE: main:h_ff_flux_contribution_momentum_y <- [DW_OP_plus_uconst 416, DW_OP_deref] $rsp
	#DEBUG_VALUE: main:h_ff_flux_contribution_momentum_z <- [DW_OP_plus_uconst 400, DW_OP_deref] $rsp
	#DEBUG_VALUE: main:h_ff_flux_contribution_density_energy <- [DW_OP_plus_uconst 384, DW_OP_deref] $rsp
	#DEBUG_VALUE: main:angle_of_attack <- 0.000000e+00
	#DEBUG_VALUE: main:ff_pressure <- 1.000000e+00
	#DEBUG_VALUE: main:ff_speed_of_sound <- 1.000000e+00
	#DEBUG_VALUE: main:ff_speed <- 1.200000e+00
	#DEBUG_VALUE: main:ff_velocity <- [DW_OP_LLVM_fragment 0 32] 1.200000e+00
	#DEBUG_VALUE: main:ff_velocity <- [DW_OP_LLVM_fragment 32 32] 0.000000e+00
	#DEBUG_VALUE: main:ff_velocity <- [DW_OP_LLVM_fragment 64 32] 0.000000e+00
	#DEBUG_VALUE: main:h_ff_momentum <- [DW_OP_LLVM_fragment 0 32] 1.680000e+00
	#DEBUG_VALUE: main:h_ff_momentum <- [DW_OP_LLVM_fragment 32 32] 0.000000e+00
	#DEBUG_VALUE: main:h_ff_momentum <- [DW_OP_LLVM_fragment 64 32] 0.000000e+00
	#DEBUG_VALUE: main:nelr <- [DW_OP_plus_uconst 200, DW_OP_deref] $rsp
	#DEBUG_VALUE: h_areas <- [DW_OP_plus_uconst 16, DW_OP_deref] $rsp
	#DEBUG_VALUE: h_elements_surrounding_elements <- [DW_OP_plus_uconst 216, DW_OP_deref] $rsp
	#DEBUG_VALUE: i <- $r13
	#DEBUG_VALUE: j <- 2
	.loc	1 554 54                        # ./euler3d_no_memcpytosymbol.cu:554:54
	decl	%eax
	movl	%eax, (%r14)
.Ltmp534:
	#DEBUG_VALUE: k <- 0
	#DEBUG_VALUE: operator>>:this <- [DW_OP_plus_uconst 480, DW_OP_stack_value] $rsp
	#DEBUG_VALUE: operator>>:__f <- [DW_OP_LLVM_arg 0, DW_OP_plus_uconst 240, DW_OP_deref, DW_OP_LLVM_arg 1, DW_OP_plus_uconst 288, DW_OP_deref, DW_OP_constu 1, DW_OP_shl, DW_OP_LLVM_arg 2, DW_OP_plus, DW_OP_constu 4, DW_OP_mul, DW_OP_plus, DW_OP_stack_value] $rsp, $rsp, $r13
	.loc	1 0 54 is_stmt 0                # ./euler3d_no_memcpytosymbol.cu:0:54
	movq	304(%rsp), %rax                 # 8-byte Reload
.Ltmp535:
	.loc	19 217 16 is_stmt 1             # /usr/lib/gcc/x86_64-linux-gnu/13/../../../../include/c++/13/istream:217:16
	leaq	(%rax,%r15), %r14
.Ltmp400:
	.cfi_escape 0x2e, 0x00
	movq	%rbx, %rdi
	movq	%r14, %rsi
	callq	_ZNSi10_M_extractIfEERSiRT_@PLT
.Ltmp536:
.Ltmp401:
	.loc	19 0 16 is_stmt 0               # /usr/lib/gcc/x86_64-linux-gnu/13/../../../../include/c++/13/istream:0:16
	movaps	.LCPI9_4(%rip), %xmm1           # xmm1 = [-0.0E+0,-0.0E+0,-0.0E+0,-0.0E+0]
.Ltmp537:
# %bb.30:                               # %invoke.cont119.2367
                                        #   in Loop: Header=BB9_13 Depth=1
	#DEBUG_VALUE: main:argc <- [DW_OP_LLVM_entry_value 1] $edi
	#DEBUG_VALUE: main:argv <- [DW_OP_LLVM_entry_value 1] $rsi
	#DEBUG_VALUE: main:h_ff_variable <- [DW_OP_plus_uconst 448, DW_OP_deref] $rsp
	#DEBUG_VALUE: main:h_ff_flux_contribution_momentum_x <- [DW_OP_plus_uconst 432, DW_OP_deref] $rsp
	#DEBUG_VALUE: main:h_ff_flux_contribution_momentum_y <- [DW_OP_plus_uconst 416, DW_OP_deref] $rsp
	#DEBUG_VALUE: main:h_ff_flux_contribution_momentum_z <- [DW_OP_plus_uconst 400, DW_OP_deref] $rsp
	#DEBUG_VALUE: main:h_ff_flux_contribution_density_energy <- [DW_OP_plus_uconst 384, DW_OP_deref] $rsp
	#DEBUG_VALUE: main:angle_of_attack <- 0.000000e+00
	#DEBUG_VALUE: main:ff_pressure <- 1.000000e+00
	#DEBUG_VALUE: main:ff_speed_of_sound <- 1.000000e+00
	#DEBUG_VALUE: main:ff_speed <- 1.200000e+00
	#DEBUG_VALUE: main:ff_velocity <- [DW_OP_LLVM_fragment 0 32] 1.200000e+00
	#DEBUG_VALUE: main:ff_velocity <- [DW_OP_LLVM_fragment 32 32] 0.000000e+00
	#DEBUG_VALUE: main:ff_velocity <- [DW_OP_LLVM_fragment 64 32] 0.000000e+00
	#DEBUG_VALUE: main:h_ff_momentum <- [DW_OP_LLVM_fragment 0 32] 1.680000e+00
	#DEBUG_VALUE: main:h_ff_momentum <- [DW_OP_LLVM_fragment 32 32] 0.000000e+00
	#DEBUG_VALUE: main:h_ff_momentum <- [DW_OP_LLVM_fragment 64 32] 0.000000e+00
	#DEBUG_VALUE: main:nelr <- [DW_OP_plus_uconst 200, DW_OP_deref] $rsp
	#DEBUG_VALUE: h_areas <- [DW_OP_plus_uconst 16, DW_OP_deref] $rsp
	#DEBUG_VALUE: h_elements_surrounding_elements <- [DW_OP_plus_uconst 216, DW_OP_deref] $rsp
	#DEBUG_VALUE: i <- $r13
	#DEBUG_VALUE: j <- 2
	#DEBUG_VALUE: k <- 0
	#DEBUG_VALUE: operator>>:this <- [DW_OP_plus_uconst 480, DW_OP_stack_value] $rsp
	#DEBUG_VALUE: operator>>:__f <- [DW_OP_LLVM_arg 0, DW_OP_plus_uconst 240, DW_OP_deref, DW_OP_LLVM_arg 1, DW_OP_plus_uconst 288, DW_OP_deref, DW_OP_constu 1, DW_OP_shl, DW_OP_LLVM_arg 2, DW_OP_plus, DW_OP_constu 4, DW_OP_mul, DW_OP_plus, DW_OP_stack_value] $rsp, $rsp, $r13
	.loc	1 559 15 is_stmt 1              # ./euler3d_no_memcpytosymbol.cu:559:15
	movss	(%r14), %xmm0                   # xmm0 = mem[0],zero,zero,zero
	xorps	%xmm1, %xmm0
	.loc	1 558 45                        # ./euler3d_no_memcpytosymbol.cu:558:45
	movss	%xmm0, (%r14)
.Ltmp538:
	#DEBUG_VALUE: k <- 1
	#DEBUG_VALUE: operator>>:this <- [DW_OP_plus_uconst 480, DW_OP_stack_value] $rsp
	#DEBUG_VALUE: operator>>:__f <- [DW_OP_LLVM_arg 0, DW_OP_plus_uconst 296, DW_OP_deref, DW_OP_LLVM_arg 1, DW_OP_constu 4, DW_OP_mul, DW_OP_plus, DW_OP_stack_value] $rsp, $r13
	.loc	1 0 45 is_stmt 0                # ./euler3d_no_memcpytosymbol.cu:0:45
	movq	296(%rsp), %rax                 # 8-byte Reload
.Ltmp539:
	.loc	19 217 16 is_stmt 1             # /usr/lib/gcc/x86_64-linux-gnu/13/../../../../include/c++/13/istream:217:16
	leaq	(%rax,%r15), %r14
.Ltmp402:
	.cfi_escape 0x2e, 0x00
	movq	%rbx, %rdi
	movq	%r14, %rsi
	callq	_ZNSi10_M_extractIfEERSiRT_@PLT
.Ltmp540:
	.loc	19 0 16 is_stmt 0               # /usr/lib/gcc/x86_64-linux-gnu/13/../../../../include/c++/13/istream:0:16
	movaps	.LCPI9_4(%rip), %xmm1           # xmm1 = [-0.0E+0,-0.0E+0,-0.0E+0,-0.0E+0]
.Ltmp541:
.Ltmp403:
# %bb.31:                               # %invoke.cont119.1.2
                                        #   in Loop: Header=BB9_13 Depth=1
	#DEBUG_VALUE: main:argc <- [DW_OP_LLVM_entry_value 1] $edi
	#DEBUG_VALUE: main:argv <- [DW_OP_LLVM_entry_value 1] $rsi
	#DEBUG_VALUE: main:h_ff_variable <- [DW_OP_plus_uconst 448, DW_OP_deref] $rsp
	#DEBUG_VALUE: main:h_ff_flux_contribution_momentum_x <- [DW_OP_plus_uconst 432, DW_OP_deref] $rsp
	#DEBUG_VALUE: main:h_ff_flux_contribution_momentum_y <- [DW_OP_plus_uconst 416, DW_OP_deref] $rsp
	#DEBUG_VALUE: main:h_ff_flux_contribution_momentum_z <- [DW_OP_plus_uconst 400, DW_OP_deref] $rsp
	#DEBUG_VALUE: main:h_ff_flux_contribution_density_energy <- [DW_OP_plus_uconst 384, DW_OP_deref] $rsp
	#DEBUG_VALUE: main:angle_of_attack <- 0.000000e+00
	#DEBUG_VALUE: main:ff_pressure <- 1.000000e+00
	#DEBUG_VALUE: main:ff_speed_of_sound <- 1.000000e+00
	#DEBUG_VALUE: main:ff_speed <- 1.200000e+00
	#DEBUG_VALUE: main:ff_velocity <- [DW_OP_LLVM_fragment 0 32] 1.200000e+00
	#DEBUG_VALUE: main:ff_velocity <- [DW_OP_LLVM_fragment 32 32] 0.000000e+00
	#DEBUG_VALUE: main:ff_velocity <- [DW_OP_LLVM_fragment 64 32] 0.000000e+00
	#DEBUG_VALUE: main:h_ff_momentum <- [DW_OP_LLVM_fragment 0 32] 1.680000e+00
	#DEBUG_VALUE: main:h_ff_momentum <- [DW_OP_LLVM_fragment 32 32] 0.000000e+00
	#DEBUG_VALUE: main:h_ff_momentum <- [DW_OP_LLVM_fragment 64 32] 0.000000e+00
	#DEBUG_VALUE: main:nelr <- [DW_OP_plus_uconst 200, DW_OP_deref] $rsp
	#DEBUG_VALUE: h_areas <- [DW_OP_plus_uconst 16, DW_OP_deref] $rsp
	#DEBUG_VALUE: h_elements_surrounding_elements <- [DW_OP_plus_uconst 216, DW_OP_deref] $rsp
	#DEBUG_VALUE: i <- $r13
	#DEBUG_VALUE: j <- 2
	#DEBUG_VALUE: k <- 1
	#DEBUG_VALUE: operator>>:this <- [DW_OP_plus_uconst 480, DW_OP_stack_value] $rsp
	#DEBUG_VALUE: operator>>:__f <- [DW_OP_LLVM_arg 0, DW_OP_plus_uconst 296, DW_OP_deref, DW_OP_LLVM_arg 1, DW_OP_constu 4, DW_OP_mul, DW_OP_plus, DW_OP_stack_value] $rsp, $r13
	.loc	1 559 15 is_stmt 1              # ./euler3d_no_memcpytosymbol.cu:559:15
	movss	(%r14), %xmm0                   # xmm0 = mem[0],zero,zero,zero
	xorps	%xmm1, %xmm0
	.loc	1 558 45                        # ./euler3d_no_memcpytosymbol.cu:558:45
	movss	%xmm0, (%r14)
.Ltmp542:
	#DEBUG_VALUE: k <- 2
	#DEBUG_VALUE: operator>>:this <- [DW_OP_plus_uconst 480, DW_OP_stack_value] $rsp
	#DEBUG_VALUE: operator>>:__f <- [DW_OP_LLVM_arg 0, DW_OP_plus_uconst 352, DW_OP_deref, DW_OP_LLVM_arg 1, DW_OP_constu 4, DW_OP_mul, DW_OP_plus, DW_OP_stack_value] $rsp, $r13
	.loc	1 0 45 is_stmt 0                # ./euler3d_no_memcpytosymbol.cu:0:45
	movq	352(%rsp), %rax                 # 8-byte Reload
.Ltmp543:
	.loc	19 217 16 is_stmt 1             # /usr/lib/gcc/x86_64-linux-gnu/13/../../../../include/c++/13/istream:217:16
	leaq	(%rax,%r15), %r14
.Ltmp404:
	.cfi_escape 0x2e, 0x00
	movq	%rbx, %rdi
	movq	%r14, %rsi
	callq	_ZNSi10_M_extractIfEERSiRT_@PLT
.Ltmp544:
	.loc	19 0 16 is_stmt 0               # /usr/lib/gcc/x86_64-linux-gnu/13/../../../../include/c++/13/istream:0:16
	movaps	.LCPI9_4(%rip), %xmm1           # xmm1 = [-0.0E+0,-0.0E+0,-0.0E+0,-0.0E+0]
.Ltmp545:
.Ltmp405:
# %bb.32:                               # %invoke.cont119.2.2
                                        #   in Loop: Header=BB9_13 Depth=1
	#DEBUG_VALUE: main:argc <- [DW_OP_LLVM_entry_value 1] $edi
	#DEBUG_VALUE: main:argv <- [DW_OP_LLVM_entry_value 1] $rsi
	#DEBUG_VALUE: main:h_ff_variable <- [DW_OP_plus_uconst 448, DW_OP_deref] $rsp
	#DEBUG_VALUE: main:h_ff_flux_contribution_momentum_x <- [DW_OP_plus_uconst 432, DW_OP_deref] $rsp
	#DEBUG_VALUE: main:h_ff_flux_contribution_momentum_y <- [DW_OP_plus_uconst 416, DW_OP_deref] $rsp
	#DEBUG_VALUE: main:h_ff_flux_contribution_momentum_z <- [DW_OP_plus_uconst 400, DW_OP_deref] $rsp
	#DEBUG_VALUE: main:h_ff_flux_contribution_density_energy <- [DW_OP_plus_uconst 384, DW_OP_deref] $rsp
	#DEBUG_VALUE: main:angle_of_attack <- 0.000000e+00
	#DEBUG_VALUE: main:ff_pressure <- 1.000000e+00
	#DEBUG_VALUE: main:ff_speed_of_sound <- 1.000000e+00
	#DEBUG_VALUE: main:ff_speed <- 1.200000e+00
	#DEBUG_VALUE: main:ff_velocity <- [DW_OP_LLVM_fragment 0 32] 1.200000e+00
	#DEBUG_VALUE: main:ff_velocity <- [DW_OP_LLVM_fragment 32 32] 0.000000e+00
	#DEBUG_VALUE: main:ff_velocity <- [DW_OP_LLVM_fragment 64 32] 0.000000e+00
	#DEBUG_VALUE: main:h_ff_momentum <- [DW_OP_LLVM_fragment 0 32] 1.680000e+00
	#DEBUG_VALUE: main:h_ff_momentum <- [DW_OP_LLVM_fragment 32 32] 0.000000e+00
	#DEBUG_VALUE: main:h_ff_momentum <- [DW_OP_LLVM_fragment 64 32] 0.000000e+00
	#DEBUG_VALUE: main:nelr <- [DW_OP_plus_uconst 200, DW_OP_deref] $rsp
	#DEBUG_VALUE: h_areas <- [DW_OP_plus_uconst 16, DW_OP_deref] $rsp
	#DEBUG_VALUE: h_elements_surrounding_elements <- [DW_OP_plus_uconst 216, DW_OP_deref] $rsp
	#DEBUG_VALUE: i <- $r13
	#DEBUG_VALUE: j <- 2
	#DEBUG_VALUE: k <- 2
	.loc	1 559 15 is_stmt 1              # ./euler3d_no_memcpytosymbol.cu:559:15
	movss	(%r14), %xmm0                   # xmm0 = mem[0],zero,zero,zero
	xorps	%xmm1, %xmm0
	.loc	1 558 45                        # ./euler3d_no_memcpytosymbol.cu:558:45
	movss	%xmm0, (%r14)
.Ltmp546:
	#DEBUG_VALUE: k <- 3
	#DEBUG_VALUE: j <- 3
	.loc	1 551 14                        # ./euler3d_no_memcpytosymbol.cu:551:14
	leaq	(%r15,%rbp), %r14
.Ltmp406:
	.cfi_escape 0x2e, 0x00
	movq	%rbx, %rdi
	movq	%r14, %rsi
	callq	_ZNSirsERi@PLT
.Ltmp547:
.Ltmp407:
# %bb.33:                               # %invoke.cont91.3
                                        #   in Loop: Header=BB9_13 Depth=1
	#DEBUG_VALUE: main:argc <- [DW_OP_LLVM_entry_value 1] $edi
	#DEBUG_VALUE: main:argv <- [DW_OP_LLVM_entry_value 1] $rsi
	#DEBUG_VALUE: main:h_ff_variable <- [DW_OP_plus_uconst 448, DW_OP_deref] $rsp
	#DEBUG_VALUE: main:h_ff_flux_contribution_momentum_x <- [DW_OP_plus_uconst 432, DW_OP_deref] $rsp
	#DEBUG_VALUE: main:h_ff_flux_contribution_momentum_y <- [DW_OP_plus_uconst 416, DW_OP_deref] $rsp
	#DEBUG_VALUE: main:h_ff_flux_contribution_momentum_z <- [DW_OP_plus_uconst 400, DW_OP_deref] $rsp
	#DEBUG_VALUE: main:h_ff_flux_contribution_density_energy <- [DW_OP_plus_uconst 384, DW_OP_deref] $rsp
	#DEBUG_VALUE: main:angle_of_attack <- 0.000000e+00
	#DEBUG_VALUE: main:ff_pressure <- 1.000000e+00
	#DEBUG_VALUE: main:ff_speed_of_sound <- 1.000000e+00
	#DEBUG_VALUE: main:ff_speed <- 1.200000e+00
	#DEBUG_VALUE: main:ff_velocity <- [DW_OP_LLVM_fragment 0 32] 1.200000e+00
	#DEBUG_VALUE: main:ff_velocity <- [DW_OP_LLVM_fragment 32 32] 0.000000e+00
	#DEBUG_VALUE: main:ff_velocity <- [DW_OP_LLVM_fragment 64 32] 0.000000e+00
	#DEBUG_VALUE: main:h_ff_momentum <- [DW_OP_LLVM_fragment 0 32] 1.680000e+00
	#DEBUG_VALUE: main:h_ff_momentum <- [DW_OP_LLVM_fragment 32 32] 0.000000e+00
	#DEBUG_VALUE: main:h_ff_momentum <- [DW_OP_LLVM_fragment 64 32] 0.000000e+00
	#DEBUG_VALUE: main:nelr <- [DW_OP_plus_uconst 200, DW_OP_deref] $rsp
	#DEBUG_VALUE: h_areas <- [DW_OP_plus_uconst 16, DW_OP_deref] $rsp
	#DEBUG_VALUE: h_elements_surrounding_elements <- [DW_OP_plus_uconst 216, DW_OP_deref] $rsp
	#DEBUG_VALUE: i <- $r13
	#DEBUG_VALUE: j <- 3
	.loc	1 552 13                        # ./euler3d_no_memcpytosymbol.cu:552:13
	movl	(%r14), %eax
	.loc	1 552 59 is_stmt 0              # ./euler3d_no_memcpytosymbol.cu:552:59
	testl	%eax, %eax
.Ltmp548:
	.loc	1 552 13                        # ./euler3d_no_memcpytosymbol.cu:552:13
	jns	.LBB9_35
.Ltmp549:
# %bb.34:                               # %if.then98.3
                                        #   in Loop: Header=BB9_13 Depth=1
	#DEBUG_VALUE: main:argc <- [DW_OP_LLVM_entry_value 1] $edi
	#DEBUG_VALUE: main:argv <- [DW_OP_LLVM_entry_value 1] $rsi
	#DEBUG_VALUE: main:h_ff_variable <- [DW_OP_plus_uconst 448, DW_OP_deref] $rsp
	#DEBUG_VALUE: main:h_ff_flux_contribution_momentum_x <- [DW_OP_plus_uconst 432, DW_OP_deref] $rsp
	#DEBUG_VALUE: main:h_ff_flux_contribution_momentum_y <- [DW_OP_plus_uconst 416, DW_OP_deref] $rsp
	#DEBUG_VALUE: main:h_ff_flux_contribution_momentum_z <- [DW_OP_plus_uconst 400, DW_OP_deref] $rsp
	#DEBUG_VALUE: main:h_ff_flux_contribution_density_energy <- [DW_OP_plus_uconst 384, DW_OP_deref] $rsp
	#DEBUG_VALUE: main:angle_of_attack <- 0.000000e+00
	#DEBUG_VALUE: main:ff_pressure <- 1.000000e+00
	#DEBUG_VALUE: main:ff_speed_of_sound <- 1.000000e+00
	#DEBUG_VALUE: main:ff_speed <- 1.200000e+00
	#DEBUG_VALUE: main:ff_velocity <- [DW_OP_LLVM_fragment 0 32] 1.200000e+00
	#DEBUG_VALUE: main:ff_velocity <- [DW_OP_LLVM_fragment 32 32] 0.000000e+00
	#DEBUG_VALUE: main:ff_velocity <- [DW_OP_LLVM_fragment 64 32] 0.000000e+00
	#DEBUG_VALUE: main:h_ff_momentum <- [DW_OP_LLVM_fragment 0 32] 1.680000e+00
	#DEBUG_VALUE: main:h_ff_momentum <- [DW_OP_LLVM_fragment 32 32] 0.000000e+00
	#DEBUG_VALUE: main:h_ff_momentum <- [DW_OP_LLVM_fragment 64 32] 0.000000e+00
	#DEBUG_VALUE: main:nelr <- [DW_OP_plus_uconst 200, DW_OP_deref] $rsp
	#DEBUG_VALUE: h_areas <- [DW_OP_plus_uconst 16, DW_OP_deref] $rsp
	#DEBUG_VALUE: h_elements_surrounding_elements <- [DW_OP_plus_uconst 216, DW_OP_deref] $rsp
	#DEBUG_VALUE: i <- $r13
	#DEBUG_VALUE: j <- 3
	.loc	1 553 57 is_stmt 1              # ./euler3d_no_memcpytosymbol.cu:553:57
	movl	$-1, (%r14)
	movl	$-1, %eax
.Ltmp550:
.LBB9_35:                               # %if.end103.3
                                        #   in Loop: Header=BB9_13 Depth=1
	#DEBUG_VALUE: main:argc <- [DW_OP_LLVM_entry_value 1] $edi
	#DEBUG_VALUE: main:argv <- [DW_OP_LLVM_entry_value 1] $rsi
	#DEBUG_VALUE: main:h_ff_variable <- [DW_OP_plus_uconst 448, DW_OP_deref] $rsp
	#DEBUG_VALUE: main:h_ff_flux_contribution_momentum_x <- [DW_OP_plus_uconst 432, DW_OP_deref] $rsp
	#DEBUG_VALUE: main:h_ff_flux_contribution_momentum_y <- [DW_OP_plus_uconst 416, DW_OP_deref] $rsp
	#DEBUG_VALUE: main:h_ff_flux_contribution_momentum_z <- [DW_OP_plus_uconst 400, DW_OP_deref] $rsp
	#DEBUG_VALUE: main:h_ff_flux_contribution_density_energy <- [DW_OP_plus_uconst 384, DW_OP_deref] $rsp
	#DEBUG_VALUE: main:angle_of_attack <- 0.000000e+00
	#DEBUG_VALUE: main:ff_pressure <- 1.000000e+00
	#DEBUG_VALUE: main:ff_speed_of_sound <- 1.000000e+00
	#DEBUG_VALUE: main:ff_speed <- 1.200000e+00
	#DEBUG_VALUE: main:ff_velocity <- [DW_OP_LLVM_fragment 0 32] 1.200000e+00
	#DEBUG_VALUE: main:ff_velocity <- [DW_OP_LLVM_fragment 32 32] 0.000000e+00
	#DEBUG_VALUE: main:ff_velocity <- [DW_OP_LLVM_fragment 64 32] 0.000000e+00
	#DEBUG_VALUE: main:h_ff_momentum <- [DW_OP_LLVM_fragment 0 32] 1.680000e+00
	#DEBUG_VALUE: main:h_ff_momentum <- [DW_OP_LLVM_fragment 32 32] 0.000000e+00
	#DEBUG_VALUE: main:h_ff_momentum <- [DW_OP_LLVM_fragment 64 32] 0.000000e+00
	#DEBUG_VALUE: main:nelr <- [DW_OP_plus_uconst 200, DW_OP_deref] $rsp
	#DEBUG_VALUE: h_areas <- [DW_OP_plus_uconst 16, DW_OP_deref] $rsp
	#DEBUG_VALUE: h_elements_surrounding_elements <- [DW_OP_plus_uconst 216, DW_OP_deref] $rsp
	#DEBUG_VALUE: i <- $r13
	#DEBUG_VALUE: j <- 3
	.loc	1 554 54                        # ./euler3d_no_memcpytosymbol.cu:554:54
	decl	%eax
	movl	%eax, (%r14)
.Ltmp551:
	#DEBUG_VALUE: k <- 0
	#DEBUG_VALUE: operator>>:this <- [DW_OP_plus_uconst 480, DW_OP_stack_value] $rsp
	#DEBUG_VALUE: operator>>:__f <- [DW_OP_LLVM_arg 0, DW_OP_plus_uconst 240, DW_OP_deref, DW_OP_LLVM_arg 1, DW_OP_plus_uconst 288, DW_OP_deref, DW_OP_constu 3, DW_OP_mul, DW_OP_LLVM_arg 2, DW_OP_plus, DW_OP_constu 4, DW_OP_mul, DW_OP_plus, DW_OP_stack_value] $rsp, $rsp, $r13
	.loc	1 0 54 is_stmt 0                # ./euler3d_no_memcpytosymbol.cu:0:54
	movq	344(%rsp), %rax                 # 8-byte Reload
.Ltmp552:
	.loc	19 217 16 is_stmt 1             # /usr/lib/gcc/x86_64-linux-gnu/13/../../../../include/c++/13/istream:217:16
	leaq	(%rax,%r15), %r14
.Ltmp409:
	.cfi_escape 0x2e, 0x00
	movq	%rbx, %rdi
	movq	%r14, %rsi
	callq	_ZNSi10_M_extractIfEERSiRT_@PLT
.Ltmp553:
.Ltmp410:
	.loc	19 0 16 is_stmt 0               # /usr/lib/gcc/x86_64-linux-gnu/13/../../../../include/c++/13/istream:0:16
	movaps	.LCPI9_4(%rip), %xmm1           # xmm1 = [-0.0E+0,-0.0E+0,-0.0E+0,-0.0E+0]
.Ltmp554:
# %bb.36:                               # %invoke.cont119.3
                                        #   in Loop: Header=BB9_13 Depth=1
	#DEBUG_VALUE: main:argc <- [DW_OP_LLVM_entry_value 1] $edi
	#DEBUG_VALUE: main:argv <- [DW_OP_LLVM_entry_value 1] $rsi
	#DEBUG_VALUE: main:h_ff_variable <- [DW_OP_plus_uconst 448, DW_OP_deref] $rsp
	#DEBUG_VALUE: main:h_ff_flux_contribution_momentum_x <- [DW_OP_plus_uconst 432, DW_OP_deref] $rsp
	#DEBUG_VALUE: main:h_ff_flux_contribution_momentum_y <- [DW_OP_plus_uconst 416, DW_OP_deref] $rsp
	#DEBUG_VALUE: main:h_ff_flux_contribution_momentum_z <- [DW_OP_plus_uconst 400, DW_OP_deref] $rsp
	#DEBUG_VALUE: main:h_ff_flux_contribution_density_energy <- [DW_OP_plus_uconst 384, DW_OP_deref] $rsp
	#DEBUG_VALUE: main:angle_of_attack <- 0.000000e+00
	#DEBUG_VALUE: main:ff_pressure <- 1.000000e+00
	#DEBUG_VALUE: main:ff_speed_of_sound <- 1.000000e+00
	#DEBUG_VALUE: main:ff_speed <- 1.200000e+00
	#DEBUG_VALUE: main:ff_velocity <- [DW_OP_LLVM_fragment 0 32] 1.200000e+00
	#DEBUG_VALUE: main:ff_velocity <- [DW_OP_LLVM_fragment 32 32] 0.000000e+00
	#DEBUG_VALUE: main:ff_velocity <- [DW_OP_LLVM_fragment 64 32] 0.000000e+00
	#DEBUG_VALUE: main:h_ff_momentum <- [DW_OP_LLVM_fragment 0 32] 1.680000e+00
	#DEBUG_VALUE: main:h_ff_momentum <- [DW_OP_LLVM_fragment 32 32] 0.000000e+00
	#DEBUG_VALUE: main:h_ff_momentum <- [DW_OP_LLVM_fragment 64 32] 0.000000e+00
	#DEBUG_VALUE: main:nelr <- [DW_OP_plus_uconst 200, DW_OP_deref] $rsp
	#DEBUG_VALUE: h_areas <- [DW_OP_plus_uconst 16, DW_OP_deref] $rsp
	#DEBUG_VALUE: h_elements_surrounding_elements <- [DW_OP_plus_uconst 216, DW_OP_deref] $rsp
	#DEBUG_VALUE: i <- $r13
	#DEBUG_VALUE: j <- 3
	#DEBUG_VALUE: k <- 0
	#DEBUG_VALUE: operator>>:this <- [DW_OP_plus_uconst 480, DW_OP_stack_value] $rsp
	#DEBUG_VALUE: operator>>:__f <- [DW_OP_LLVM_arg 0, DW_OP_plus_uconst 240, DW_OP_deref, DW_OP_LLVM_arg 1, DW_OP_plus_uconst 288, DW_OP_deref, DW_OP_constu 3, DW_OP_mul, DW_OP_LLVM_arg 2, DW_OP_plus, DW_OP_constu 4, DW_OP_mul, DW_OP_plus, DW_OP_stack_value] $rsp, $rsp, $r13
	.loc	1 559 15 is_stmt 1              # ./euler3d_no_memcpytosymbol.cu:559:15
	movss	(%r14), %xmm0                   # xmm0 = mem[0],zero,zero,zero
	xorps	%xmm1, %xmm0
	.loc	1 558 45                        # ./euler3d_no_memcpytosymbol.cu:558:45
	movss	%xmm0, (%r14)
.Ltmp555:
	#DEBUG_VALUE: k <- 1
	#DEBUG_VALUE: operator>>:this <- [DW_OP_plus_uconst 480, DW_OP_stack_value] $rsp
	#DEBUG_VALUE: operator>>:__f <- [DW_OP_LLVM_arg 0, DW_OP_LLVM_arg 1, DW_OP_constu 4, DW_OP_mul, DW_OP_plus, DW_OP_stack_value] $r12, $r13
	.loc	19 217 16                       # /usr/lib/gcc/x86_64-linux-gnu/13/../../../../include/c++/13/istream:217:16
	leaq	(%r12,%r15), %r14
.Ltmp411:
	.cfi_escape 0x2e, 0x00
	movq	%rbx, %rdi
	movq	%r14, %rsi
	callq	_ZNSi10_M_extractIfEERSiRT_@PLT
.Ltmp556:
	.loc	19 0 16 is_stmt 0               # /usr/lib/gcc/x86_64-linux-gnu/13/../../../../include/c++/13/istream:0:16
	movaps	.LCPI9_4(%rip), %xmm1           # xmm1 = [-0.0E+0,-0.0E+0,-0.0E+0,-0.0E+0]
.Ltmp557:
.Ltmp412:
# %bb.37:                               # %invoke.cont119.1.3
                                        #   in Loop: Header=BB9_13 Depth=1
	#DEBUG_VALUE: main:argc <- [DW_OP_LLVM_entry_value 1] $edi
	#DEBUG_VALUE: main:argv <- [DW_OP_LLVM_entry_value 1] $rsi
	#DEBUG_VALUE: main:h_ff_variable <- [DW_OP_plus_uconst 448, DW_OP_deref] $rsp
	#DEBUG_VALUE: main:h_ff_flux_contribution_momentum_x <- [DW_OP_plus_uconst 432, DW_OP_deref] $rsp
	#DEBUG_VALUE: main:h_ff_flux_contribution_momentum_y <- [DW_OP_plus_uconst 416, DW_OP_deref] $rsp
	#DEBUG_VALUE: main:h_ff_flux_contribution_momentum_z <- [DW_OP_plus_uconst 400, DW_OP_deref] $rsp
	#DEBUG_VALUE: main:h_ff_flux_contribution_density_energy <- [DW_OP_plus_uconst 384, DW_OP_deref] $rsp
	#DEBUG_VALUE: main:angle_of_attack <- 0.000000e+00
	#DEBUG_VALUE: main:ff_pressure <- 1.000000e+00
	#DEBUG_VALUE: main:ff_speed_of_sound <- 1.000000e+00
	#DEBUG_VALUE: main:ff_speed <- 1.200000e+00
	#DEBUG_VALUE: main:ff_velocity <- [DW_OP_LLVM_fragment 0 32] 1.200000e+00
	#DEBUG_VALUE: main:ff_velocity <- [DW_OP_LLVM_fragment 32 32] 0.000000e+00
	#DEBUG_VALUE: main:ff_velocity <- [DW_OP_LLVM_fragment 64 32] 0.000000e+00
	#DEBUG_VALUE: main:h_ff_momentum <- [DW_OP_LLVM_fragment 0 32] 1.680000e+00
	#DEBUG_VALUE: main:h_ff_momentum <- [DW_OP_LLVM_fragment 32 32] 0.000000e+00
	#DEBUG_VALUE: main:h_ff_momentum <- [DW_OP_LLVM_fragment 64 32] 0.000000e+00
	#DEBUG_VALUE: main:nelr <- [DW_OP_plus_uconst 200, DW_OP_deref] $rsp
	#DEBUG_VALUE: h_areas <- [DW_OP_plus_uconst 16, DW_OP_deref] $rsp
	#DEBUG_VALUE: h_elements_surrounding_elements <- [DW_OP_plus_uconst 216, DW_OP_deref] $rsp
	#DEBUG_VALUE: i <- $r13
	#DEBUG_VALUE: j <- 3
	#DEBUG_VALUE: k <- 1
	#DEBUG_VALUE: operator>>:this <- [DW_OP_plus_uconst 480, DW_OP_stack_value] $rsp
	#DEBUG_VALUE: operator>>:__f <- [DW_OP_LLVM_arg 0, DW_OP_LLVM_arg 1, DW_OP_constu 4, DW_OP_mul, DW_OP_plus, DW_OP_stack_value] $r12, $r13
	.loc	1 559 15 is_stmt 1              # ./euler3d_no_memcpytosymbol.cu:559:15
	movss	(%r14), %xmm0                   # xmm0 = mem[0],zero,zero,zero
	xorps	%xmm1, %xmm0
	.loc	1 558 45                        # ./euler3d_no_memcpytosymbol.cu:558:45
	movss	%xmm0, (%r14)
.Ltmp558:
	#DEBUG_VALUE: k <- 2
	#DEBUG_VALUE: operator>>:this <- [DW_OP_plus_uconst 480, DW_OP_stack_value] $rsp
	#DEBUG_VALUE: operator>>:__f <- [DW_OP_LLVM_arg 0, DW_OP_plus_uconst 336, DW_OP_deref, DW_OP_LLVM_arg 1, DW_OP_constu 4, DW_OP_mul, DW_OP_plus, DW_OP_stack_value] $rsp, $r13
	.loc	1 0 45 is_stmt 0                # ./euler3d_no_memcpytosymbol.cu:0:45
	movq	336(%rsp), %rax                 # 8-byte Reload
.Ltmp559:
	.loc	19 217 16 is_stmt 1             # /usr/lib/gcc/x86_64-linux-gnu/13/../../../../include/c++/13/istream:217:16
	leaq	(%rax,%r15), %r14
.Ltmp413:
	.cfi_escape 0x2e, 0x00
	movq	%rbx, %rdi
	movq	%r14, %rsi
	callq	_ZNSi10_M_extractIfEERSiRT_@PLT
.Ltmp560:
	.loc	19 0 16 is_stmt 0               # /usr/lib/gcc/x86_64-linux-gnu/13/../../../../include/c++/13/istream:0:16
	movaps	.LCPI9_4(%rip), %xmm1           # xmm1 = [-0.0E+0,-0.0E+0,-0.0E+0,-0.0E+0]
.Ltmp561:
.Ltmp414:
# %bb.38:                               # %invoke.cont119.2.3
                                        #   in Loop: Header=BB9_13 Depth=1
	#DEBUG_VALUE: main:argc <- [DW_OP_LLVM_entry_value 1] $edi
	#DEBUG_VALUE: main:argv <- [DW_OP_LLVM_entry_value 1] $rsi
	#DEBUG_VALUE: main:h_ff_variable <- [DW_OP_plus_uconst 448, DW_OP_deref] $rsp
	#DEBUG_VALUE: main:h_ff_flux_contribution_momentum_x <- [DW_OP_plus_uconst 432, DW_OP_deref] $rsp
	#DEBUG_VALUE: main:h_ff_flux_contribution_momentum_y <- [DW_OP_plus_uconst 416, DW_OP_deref] $rsp
	#DEBUG_VALUE: main:h_ff_flux_contribution_momentum_z <- [DW_OP_plus_uconst 400, DW_OP_deref] $rsp
	#DEBUG_VALUE: main:h_ff_flux_contribution_density_energy <- [DW_OP_plus_uconst 384, DW_OP_deref] $rsp
	#DEBUG_VALUE: main:angle_of_attack <- 0.000000e+00
	#DEBUG_VALUE: main:ff_pressure <- 1.000000e+00
	#DEBUG_VALUE: main:ff_speed_of_sound <- 1.000000e+00
	#DEBUG_VALUE: main:ff_speed <- 1.200000e+00
	#DEBUG_VALUE: main:ff_velocity <- [DW_OP_LLVM_fragment 0 32] 1.200000e+00
	#DEBUG_VALUE: main:ff_velocity <- [DW_OP_LLVM_fragment 32 32] 0.000000e+00
	#DEBUG_VALUE: main:ff_velocity <- [DW_OP_LLVM_fragment 64 32] 0.000000e+00
	#DEBUG_VALUE: main:h_ff_momentum <- [DW_OP_LLVM_fragment 0 32] 1.680000e+00
	#DEBUG_VALUE: main:h_ff_momentum <- [DW_OP_LLVM_fragment 32 32] 0.000000e+00
	#DEBUG_VALUE: main:h_ff_momentum <- [DW_OP_LLVM_fragment 64 32] 0.000000e+00
	#DEBUG_VALUE: main:nelr <- [DW_OP_plus_uconst 200, DW_OP_deref] $rsp
	#DEBUG_VALUE: h_areas <- [DW_OP_plus_uconst 16, DW_OP_deref] $rsp
	#DEBUG_VALUE: h_elements_surrounding_elements <- [DW_OP_plus_uconst 216, DW_OP_deref] $rsp
	#DEBUG_VALUE: i <- $r13
	#DEBUG_VALUE: j <- 3
	#DEBUG_VALUE: k <- 2
	.loc	1 559 15 is_stmt 1              # ./euler3d_no_memcpytosymbol.cu:559:15
	movss	(%r14), %xmm0                   # xmm0 = mem[0],zero,zero,zero
	xorps	%xmm1, %xmm0
	.loc	1 558 45                        # ./euler3d_no_memcpytosymbol.cu:558:45
	movss	%xmm0, (%r14)
.Ltmp562:
	#DEBUG_VALUE: k <- 3
	#DEBUG_VALUE: j <- 4
	.loc	1 548 31                        # ./euler3d_no_memcpytosymbol.cu:548:31
	incq	%r13
.Ltmp563:
	#DEBUG_VALUE: i <- $r13
	.loc	1 548 25 is_stmt 0              # ./euler3d_no_memcpytosymbol.cu:548:25
	movslq	236(%rsp), %rax
	.loc	1 548 23                        # ./euler3d_no_memcpytosymbol.cu:548:23
	addq	$4, %r15
	cmpq	%rax, %r13
.Ltmp564:
	.loc	1 548 5                         # ./euler3d_no_memcpytosymbol.cu:548:5
	jl	.LBB9_13
.Ltmp565:
# %bb.39:
	#DEBUG_VALUE: main:argc <- [DW_OP_LLVM_entry_value 1] $edi
	#DEBUG_VALUE: main:argv <- [DW_OP_LLVM_entry_value 1] $rsi
	#DEBUG_VALUE: main:h_ff_variable <- [DW_OP_plus_uconst 448, DW_OP_deref] $rsp
	#DEBUG_VALUE: main:h_ff_flux_contribution_momentum_x <- [DW_OP_plus_uconst 432, DW_OP_deref] $rsp
	#DEBUG_VALUE: main:h_ff_flux_contribution_momentum_y <- [DW_OP_plus_uconst 416, DW_OP_deref] $rsp
	#DEBUG_VALUE: main:h_ff_flux_contribution_momentum_z <- [DW_OP_plus_uconst 400, DW_OP_deref] $rsp
	#DEBUG_VALUE: main:h_ff_flux_contribution_density_energy <- [DW_OP_plus_uconst 384, DW_OP_deref] $rsp
	#DEBUG_VALUE: main:angle_of_attack <- 0.000000e+00
	#DEBUG_VALUE: main:ff_pressure <- 1.000000e+00
	#DEBUG_VALUE: main:ff_speed_of_sound <- 1.000000e+00
	#DEBUG_VALUE: main:ff_speed <- 1.200000e+00
	#DEBUG_VALUE: main:ff_velocity <- [DW_OP_LLVM_fragment 0 32] 1.200000e+00
	#DEBUG_VALUE: main:ff_velocity <- [DW_OP_LLVM_fragment 32 32] 0.000000e+00
	#DEBUG_VALUE: main:ff_velocity <- [DW_OP_LLVM_fragment 64 32] 0.000000e+00
	#DEBUG_VALUE: main:h_ff_momentum <- [DW_OP_LLVM_fragment 0 32] 1.680000e+00
	#DEBUG_VALUE: main:h_ff_momentum <- [DW_OP_LLVM_fragment 32 32] 0.000000e+00
	#DEBUG_VALUE: main:h_ff_momentum <- [DW_OP_LLVM_fragment 64 32] 0.000000e+00
	#DEBUG_VALUE: main:nelr <- [DW_OP_plus_uconst 200, DW_OP_deref] $rsp
	#DEBUG_VALUE: h_areas <- [DW_OP_plus_uconst 16, DW_OP_deref] $rsp
	#DEBUG_VALUE: h_elements_surrounding_elements <- [DW_OP_plus_uconst 216, DW_OP_deref] $rsp
	#DEBUG_VALUE: i <- $r13
	#DEBUG_VALUE: j <- 4
	#DEBUG_VALUE: k <- 3
	.loc	1 0 5                           # ./euler3d_no_memcpytosymbol.cu:0:5
	movq	288(%rsp), %r13                 # 8-byte Reload
	movq	8(%rsp), %r15                   # 8-byte Reload
.Ltmp566:
.LBB9_40:                               # %for.cond.cleanup
	#DEBUG_VALUE: main:argc <- [DW_OP_LLVM_entry_value 1] $edi
	#DEBUG_VALUE: main:argv <- [DW_OP_LLVM_entry_value 1] $rsi
	#DEBUG_VALUE: main:h_ff_variable <- [DW_OP_plus_uconst 448, DW_OP_deref] $rsp
	#DEBUG_VALUE: main:h_ff_flux_contribution_momentum_x <- [DW_OP_plus_uconst 432, DW_OP_deref] $rsp
	#DEBUG_VALUE: main:h_ff_flux_contribution_momentum_y <- [DW_OP_plus_uconst 416, DW_OP_deref] $rsp
	#DEBUG_VALUE: main:h_ff_flux_contribution_momentum_z <- [DW_OP_plus_uconst 400, DW_OP_deref] $rsp
	#DEBUG_VALUE: main:h_ff_flux_contribution_density_energy <- [DW_OP_plus_uconst 384, DW_OP_deref] $rsp
	#DEBUG_VALUE: main:angle_of_attack <- 0.000000e+00
	#DEBUG_VALUE: main:ff_pressure <- 1.000000e+00
	#DEBUG_VALUE: main:ff_speed_of_sound <- 1.000000e+00
	#DEBUG_VALUE: main:ff_speed <- 1.200000e+00
	#DEBUG_VALUE: main:ff_velocity <- [DW_OP_LLVM_fragment 0 32] 1.200000e+00
	#DEBUG_VALUE: main:ff_velocity <- [DW_OP_LLVM_fragment 32 32] 0.000000e+00
	#DEBUG_VALUE: main:ff_velocity <- [DW_OP_LLVM_fragment 64 32] 0.000000e+00
	#DEBUG_VALUE: main:h_ff_momentum <- [DW_OP_LLVM_fragment 0 32] 1.680000e+00
	#DEBUG_VALUE: main:h_ff_momentum <- [DW_OP_LLVM_fragment 32 32] 0.000000e+00
	#DEBUG_VALUE: main:h_ff_momentum <- [DW_OP_LLVM_fragment 64 32] 0.000000e+00
	#DEBUG_VALUE: main:nelr <- [DW_OP_plus_uconst 200, DW_OP_deref] $rsp
	#DEBUG_VALUE: h_areas <- [DW_OP_plus_uconst 16, DW_OP_deref] $rsp
	#DEBUG_VALUE: h_elements_surrounding_elements <- [DW_OP_plus_uconst 216, DW_OP_deref] $rsp
	#DEBUG_VALUE: last <- [DW_OP_constu 1, DW_OP_minus, DW_OP_stack_value] $eax
	#DEBUG_VALUE: i <- $eax
	.loc	1 566 25 is_stmt 1              # ./euler3d_no_memcpytosymbol.cu:566:25
	cmpl	200(%rsp), %eax                 # 4-byte Folded Reload
.Ltmp567:
	.loc	1 566 5 is_stmt 0               # ./euler3d_no_memcpytosymbol.cu:566:5
	jge	.LBB9_71
.Ltmp568:
# %bb.41:                               # %for.body144.lr.ph
	#DEBUG_VALUE: main:argc <- [DW_OP_LLVM_entry_value 1] $edi
	#DEBUG_VALUE: main:argv <- [DW_OP_LLVM_entry_value 1] $rsi
	#DEBUG_VALUE: main:h_ff_variable <- [DW_OP_plus_uconst 448, DW_OP_deref] $rsp
	#DEBUG_VALUE: main:h_ff_flux_contribution_momentum_x <- [DW_OP_plus_uconst 432, DW_OP_deref] $rsp
	#DEBUG_VALUE: main:h_ff_flux_contribution_momentum_y <- [DW_OP_plus_uconst 416, DW_OP_deref] $rsp
	#DEBUG_VALUE: main:h_ff_flux_contribution_momentum_z <- [DW_OP_plus_uconst 400, DW_OP_deref] $rsp
	#DEBUG_VALUE: main:h_ff_flux_contribution_density_energy <- [DW_OP_plus_uconst 384, DW_OP_deref] $rsp
	#DEBUG_VALUE: main:angle_of_attack <- 0.000000e+00
	#DEBUG_VALUE: main:ff_pressure <- 1.000000e+00
	#DEBUG_VALUE: main:ff_speed_of_sound <- 1.000000e+00
	#DEBUG_VALUE: main:ff_speed <- 1.200000e+00
	#DEBUG_VALUE: main:ff_velocity <- [DW_OP_LLVM_fragment 0 32] 1.200000e+00
	#DEBUG_VALUE: main:ff_velocity <- [DW_OP_LLVM_fragment 32 32] 0.000000e+00
	#DEBUG_VALUE: main:ff_velocity <- [DW_OP_LLVM_fragment 64 32] 0.000000e+00
	#DEBUG_VALUE: main:h_ff_momentum <- [DW_OP_LLVM_fragment 0 32] 1.680000e+00
	#DEBUG_VALUE: main:h_ff_momentum <- [DW_OP_LLVM_fragment 32 32] 0.000000e+00
	#DEBUG_VALUE: main:h_ff_momentum <- [DW_OP_LLVM_fragment 64 32] 0.000000e+00
	#DEBUG_VALUE: main:nelr <- [DW_OP_plus_uconst 200, DW_OP_deref] $rsp
	#DEBUG_VALUE: h_areas <- [DW_OP_plus_uconst 16, DW_OP_deref] $rsp
	#DEBUG_VALUE: h_elements_surrounding_elements <- [DW_OP_plus_uconst 216, DW_OP_deref] $rsp
	#DEBUG_VALUE: last <- [DW_OP_constu 1, DW_OP_minus, DW_OP_stack_value] $eax
	#DEBUG_VALUE: i <- $eax
	#DEBUG_VALUE: last <- undef
	.loc	1 0 5                           # ./euler3d_no_memcpytosymbol.cu:0:5
	movslq	%eax, %r15
	movq	16(%rsp), %rax                  # 8-byte Reload
.Ltmp569:
	.loc	1 567 20 is_stmt 1              # ./euler3d_no_memcpytosymbol.cu:567:20
	movss	-4(%rax,%r15,4), %xmm0          # xmm0 = mem[0],zero,zero,zero
	movq	216(%rsp), %rbx                 # 8-byte Reload
	leaq	(%rbx,%r15,4), %rax
	addq	$-4, %rax
	leaq	(%rbx,%r13,4), %rbp
	leaq	-4(%rbp,%r15,4), %rcx
	leaq	(%rbx,%r13,8), %r9
	leaq	-4(%r9,%r15,4), %rdx
	leaq	(%r13,%r13,2), %r8
	leaq	(%rbx,%r8,4), %r14
	leaq	(%r14,%r15,4), %rsi
	addq	$-4, %rsi
.Ltmp570:
	.loc	1 566 5                         # ./euler3d_no_memcpytosymbol.cu:566:5
	movq	%r13, %rdi
	subq	%r15, %rdi
	cmpq	$96, %rdi
	jae	.LBB9_43
.Ltmp571:
.LBB9_42:
	#DEBUG_VALUE: main:argc <- [DW_OP_LLVM_entry_value 1] $edi
	#DEBUG_VALUE: main:argv <- [DW_OP_LLVM_entry_value 1] $rsi
	#DEBUG_VALUE: main:h_ff_variable <- [DW_OP_plus_uconst 448, DW_OP_deref] $rsp
	#DEBUG_VALUE: main:h_ff_flux_contribution_momentum_x <- [DW_OP_plus_uconst 432, DW_OP_deref] $rsp
	#DEBUG_VALUE: main:h_ff_flux_contribution_momentum_y <- [DW_OP_plus_uconst 416, DW_OP_deref] $rsp
	#DEBUG_VALUE: main:h_ff_flux_contribution_momentum_z <- [DW_OP_plus_uconst 400, DW_OP_deref] $rsp
	#DEBUG_VALUE: main:h_ff_flux_contribution_density_energy <- [DW_OP_plus_uconst 384, DW_OP_deref] $rsp
	#DEBUG_VALUE: main:angle_of_attack <- 0.000000e+00
	#DEBUG_VALUE: main:ff_pressure <- 1.000000e+00
	#DEBUG_VALUE: main:ff_speed_of_sound <- 1.000000e+00
	#DEBUG_VALUE: main:ff_speed <- 1.200000e+00
	#DEBUG_VALUE: main:ff_velocity <- [DW_OP_LLVM_fragment 0 32] 1.200000e+00
	#DEBUG_VALUE: main:ff_velocity <- [DW_OP_LLVM_fragment 32 32] 0.000000e+00
	#DEBUG_VALUE: main:ff_velocity <- [DW_OP_LLVM_fragment 64 32] 0.000000e+00
	#DEBUG_VALUE: main:h_ff_momentum <- [DW_OP_LLVM_fragment 0 32] 1.680000e+00
	#DEBUG_VALUE: main:h_ff_momentum <- [DW_OP_LLVM_fragment 32 32] 0.000000e+00
	#DEBUG_VALUE: main:h_ff_momentum <- [DW_OP_LLVM_fragment 64 32] 0.000000e+00
	#DEBUG_VALUE: main:nelr <- [DW_OP_plus_uconst 200, DW_OP_deref] $rsp
	#DEBUG_VALUE: h_areas <- [DW_OP_plus_uconst 16, DW_OP_deref] $rsp
	#DEBUG_VALUE: h_elements_surrounding_elements <- [DW_OP_plus_uconst 216, DW_OP_deref] $rsp
	.loc	1 0 5 is_stmt 0                 # ./euler3d_no_memcpytosymbol.cu:0:5
	movq	%r15, %r11
	movq	8(%rsp), %r15                   # 8-byte Reload
.Ltmp572:
.LBB9_69:                               # %for.body144.preheader
	#DEBUG_VALUE: main:argc <- [DW_OP_LLVM_entry_value 1] $edi
	#DEBUG_VALUE: main:argv <- [DW_OP_LLVM_entry_value 1] $rsi
	#DEBUG_VALUE: main:h_ff_variable <- [DW_OP_plus_uconst 448, DW_OP_deref] $rsp
	#DEBUG_VALUE: main:h_ff_flux_contribution_momentum_x <- [DW_OP_plus_uconst 432, DW_OP_deref] $rsp
	#DEBUG_VALUE: main:h_ff_flux_contribution_momentum_y <- [DW_OP_plus_uconst 416, DW_OP_deref] $rsp
	#DEBUG_VALUE: main:h_ff_flux_contribution_momentum_z <- [DW_OP_plus_uconst 400, DW_OP_deref] $rsp
	#DEBUG_VALUE: main:h_ff_flux_contribution_density_energy <- [DW_OP_plus_uconst 384, DW_OP_deref] $rsp
	#DEBUG_VALUE: main:angle_of_attack <- 0.000000e+00
	#DEBUG_VALUE: main:ff_pressure <- 1.000000e+00
	#DEBUG_VALUE: main:ff_speed_of_sound <- 1.000000e+00
	#DEBUG_VALUE: main:ff_speed <- 1.200000e+00
	#DEBUG_VALUE: main:ff_velocity <- [DW_OP_LLVM_fragment 0 32] 1.200000e+00
	#DEBUG_VALUE: main:ff_velocity <- [DW_OP_LLVM_fragment 32 32] 0.000000e+00
	#DEBUG_VALUE: main:ff_velocity <- [DW_OP_LLVM_fragment 64 32] 0.000000e+00
	#DEBUG_VALUE: main:h_ff_momentum <- [DW_OP_LLVM_fragment 0 32] 1.680000e+00
	#DEBUG_VALUE: main:h_ff_momentum <- [DW_OP_LLVM_fragment 32 32] 0.000000e+00
	#DEBUG_VALUE: main:h_ff_momentum <- [DW_OP_LLVM_fragment 64 32] 0.000000e+00
	#DEBUG_VALUE: main:nelr <- [DW_OP_plus_uconst 200, DW_OP_deref] $rsp
	#DEBUG_VALUE: h_areas <- [DW_OP_plus_uconst 16, DW_OP_deref] $rsp
	#DEBUG_VALUE: h_elements_surrounding_elements <- [DW_OP_plus_uconst 216, DW_OP_deref] $rsp
	.loc	1 566 5                         # ./euler3d_no_memcpytosymbol.cu:566:5
	leaq	(,%r11,4), %r9
	leaq	(%r15,%r11,4), %rdi
	movq	216(%rsp), %r10                 # 8-byte Reload
	addq	%r10, %rdi
	leaq	(%r9,%r8,4), %r8
	addq	%r10, %r8
	leaq	(%r9,%r13,8), %r9
	addq	%r10, %r9
	leaq	(%r10,%r11,4), %r10
	movq	16(%rsp), %rbx                  # 8-byte Reload
	leaq	(%rbx,%r11,4), %rbx
	movq	%r13, %r14
	subq	%r11, %r14
	xorl	%r11d, %r11d
.Ltmp573:
	.p2align	4, 0x90
.LBB9_70:                               # %for.body144
                                        # =>This Inner Loop Header: Depth=1
	#DEBUG_VALUE: main:argc <- [DW_OP_LLVM_entry_value 1] $edi
	#DEBUG_VALUE: main:argv <- [DW_OP_LLVM_entry_value 1] $rsi
	#DEBUG_VALUE: main:h_ff_variable <- [DW_OP_plus_uconst 448, DW_OP_deref] $rsp
	#DEBUG_VALUE: main:h_ff_flux_contribution_momentum_x <- [DW_OP_plus_uconst 432, DW_OP_deref] $rsp
	#DEBUG_VALUE: main:h_ff_flux_contribution_momentum_y <- [DW_OP_plus_uconst 416, DW_OP_deref] $rsp
	#DEBUG_VALUE: main:h_ff_flux_contribution_momentum_z <- [DW_OP_plus_uconst 400, DW_OP_deref] $rsp
	#DEBUG_VALUE: main:h_ff_flux_contribution_density_energy <- [DW_OP_plus_uconst 384, DW_OP_deref] $rsp
	#DEBUG_VALUE: main:angle_of_attack <- 0.000000e+00
	#DEBUG_VALUE: main:ff_pressure <- 1.000000e+00
	#DEBUG_VALUE: main:ff_speed_of_sound <- 1.000000e+00
	#DEBUG_VALUE: main:ff_speed <- 1.200000e+00
	#DEBUG_VALUE: main:ff_velocity <- [DW_OP_LLVM_fragment 0 32] 1.200000e+00
	#DEBUG_VALUE: main:ff_velocity <- [DW_OP_LLVM_fragment 32 32] 0.000000e+00
	#DEBUG_VALUE: main:ff_velocity <- [DW_OP_LLVM_fragment 64 32] 0.000000e+00
	#DEBUG_VALUE: main:h_ff_momentum <- [DW_OP_LLVM_fragment 0 32] 1.680000e+00
	#DEBUG_VALUE: main:h_ff_momentum <- [DW_OP_LLVM_fragment 32 32] 0.000000e+00
	#DEBUG_VALUE: main:h_ff_momentum <- [DW_OP_LLVM_fragment 64 32] 0.000000e+00
	#DEBUG_VALUE: main:nelr <- [DW_OP_plus_uconst 200, DW_OP_deref] $rsp
	#DEBUG_VALUE: h_areas <- [DW_OP_plus_uconst 16, DW_OP_deref] $rsp
	#DEBUG_VALUE: h_elements_surrounding_elements <- [DW_OP_plus_uconst 216, DW_OP_deref] $rsp
	#DEBUG_VALUE: i <- [DW_OP_LLVM_arg 0, DW_OP_LLVM_arg 1, DW_OP_plus, DW_OP_stack_value] undef, undef
	.loc	1 567 18 is_stmt 1              # ./euler3d_no_memcpytosymbol.cu:567:18
	movss	%xmm0, (%rbx,%r11,4)
.Ltmp574:
	#DEBUG_VALUE: j <- 0
	.loc	1 570 13                        # ./euler3d_no_memcpytosymbol.cu:570:13
	movl	(%rax), %ebp
	.loc	1 569 55                        # ./euler3d_no_memcpytosymbol.cu:569:55
	movl	%ebp, (%r10,%r11,4)
.Ltmp575:
	#DEBUG_VALUE: j <- 1
	.loc	1 570 13                        # ./euler3d_no_memcpytosymbol.cu:570:13
	movl	(%rcx), %ebp
	.loc	1 569 55                        # ./euler3d_no_memcpytosymbol.cu:569:55
	movl	%ebp, (%rdi,%r11,4)
.Ltmp576:
	#DEBUG_VALUE: j <- 2
	.loc	1 570 13                        # ./euler3d_no_memcpytosymbol.cu:570:13
	movl	(%rdx), %ebp
	.loc	1 569 55                        # ./euler3d_no_memcpytosymbol.cu:569:55
	movl	%ebp, (%r9,%r11,4)
.Ltmp577:
	#DEBUG_VALUE: j <- 3
	.loc	1 570 13                        # ./euler3d_no_memcpytosymbol.cu:570:13
	movl	(%rsi), %ebp
	.loc	1 569 55                        # ./euler3d_no_memcpytosymbol.cu:569:55
	movl	%ebp, (%r8,%r11,4)
.Ltmp578:
	#DEBUG_VALUE: j <- 4
	#DEBUG_VALUE: i <- [DW_OP_LLVM_arg 0, DW_OP_consts 1, DW_OP_LLVM_arg 1, DW_OP_plus, DW_OP_plus, DW_OP_stack_value] undef, undef
	.loc	1 566 25                        # ./euler3d_no_memcpytosymbol.cu:566:25
	incq	%r11
	cmpq	%r11, %r14
	jne	.LBB9_70
.Ltmp579:
.LBB9_71:                               # %for.cond.cleanup143
	#DEBUG_VALUE: main:argc <- [DW_OP_LLVM_entry_value 1] $edi
	#DEBUG_VALUE: main:argv <- [DW_OP_LLVM_entry_value 1] $rsi
	#DEBUG_VALUE: main:h_ff_variable <- [DW_OP_plus_uconst 448, DW_OP_deref] $rsp
	#DEBUG_VALUE: main:h_ff_flux_contribution_momentum_x <- [DW_OP_plus_uconst 432, DW_OP_deref] $rsp
	#DEBUG_VALUE: main:h_ff_flux_contribution_momentum_y <- [DW_OP_plus_uconst 416, DW_OP_deref] $rsp
	#DEBUG_VALUE: main:h_ff_flux_contribution_momentum_z <- [DW_OP_plus_uconst 400, DW_OP_deref] $rsp
	#DEBUG_VALUE: main:h_ff_flux_contribution_density_energy <- [DW_OP_plus_uconst 384, DW_OP_deref] $rsp
	#DEBUG_VALUE: main:angle_of_attack <- 0.000000e+00
	#DEBUG_VALUE: main:ff_pressure <- 1.000000e+00
	#DEBUG_VALUE: main:ff_speed_of_sound <- 1.000000e+00
	#DEBUG_VALUE: main:ff_speed <- 1.200000e+00
	#DEBUG_VALUE: main:ff_velocity <- [DW_OP_LLVM_fragment 0 32] 1.200000e+00
	#DEBUG_VALUE: main:ff_velocity <- [DW_OP_LLVM_fragment 32 32] 0.000000e+00
	#DEBUG_VALUE: main:ff_velocity <- [DW_OP_LLVM_fragment 64 32] 0.000000e+00
	#DEBUG_VALUE: main:h_ff_momentum <- [DW_OP_LLVM_fragment 0 32] 1.680000e+00
	#DEBUG_VALUE: main:h_ff_momentum <- [DW_OP_LLVM_fragment 32 32] 0.000000e+00
	#DEBUG_VALUE: main:h_ff_momentum <- [DW_OP_LLVM_fragment 64 32] 0.000000e+00
	#DEBUG_VALUE: main:nelr <- [DW_OP_plus_uconst 200, DW_OP_deref] $rsp
	#DEBUG_VALUE: h_areas <- [DW_OP_plus_uconst 16, DW_OP_deref] $rsp
	#DEBUG_VALUE: h_elements_surrounding_elements <- [DW_OP_plus_uconst 216, DW_OP_deref] $rsp
.Ltmp416:
	#DEBUG_VALUE: alloc<float>:t <- [DW_OP_plus_uconst 24, DW_OP_deref] $rsp
	#DEBUG_VALUE: alloc<float>:N <- [DW_OP_plus_uconst 200, DW_OP_deref] $rsp
	.cfi_escape 0x2e, 0x00
	.loc	1 0 25 is_stmt 0                # ./euler3d_no_memcpytosymbol.cu:0:25
	leaq	24(%rsp), %rdi
.Ltmp580:
	.loc	1 84 3 is_stmt 1                # ./euler3d_no_memcpytosymbol.cu:84:3
	movq	%r15, %rsi
	callq	cudaMalloc@PLT
.Ltmp581:
.Ltmp417:
	.loc	1 0 3 is_stmt 0                 # ./euler3d_no_memcpytosymbol.cu:0:3
	movq	216(%rsp), %rbx                 # 8-byte Reload
	movq	376(%rsp), %r14                 # 8-byte Reload
	movq	368(%rsp), %rbp                 # 8-byte Reload
.Ltmp582:
# %bb.72:                               # %invoke.cont189
	#DEBUG_VALUE: main:argc <- [DW_OP_LLVM_entry_value 1] $edi
	#DEBUG_VALUE: main:argv <- [DW_OP_LLVM_entry_value 1] $rsi
	#DEBUG_VALUE: main:h_ff_variable <- [DW_OP_plus_uconst 448, DW_OP_deref] $rsp
	#DEBUG_VALUE: main:h_ff_flux_contribution_momentum_x <- [DW_OP_plus_uconst 432, DW_OP_deref] $rsp
	#DEBUG_VALUE: main:h_ff_flux_contribution_momentum_y <- [DW_OP_plus_uconst 416, DW_OP_deref] $rsp
	#DEBUG_VALUE: main:h_ff_flux_contribution_momentum_z <- [DW_OP_plus_uconst 400, DW_OP_deref] $rsp
	#DEBUG_VALUE: main:h_ff_flux_contribution_density_energy <- [DW_OP_plus_uconst 384, DW_OP_deref] $rsp
	#DEBUG_VALUE: main:angle_of_attack <- 0.000000e+00
	#DEBUG_VALUE: main:ff_pressure <- 1.000000e+00
	#DEBUG_VALUE: main:ff_speed_of_sound <- 1.000000e+00
	#DEBUG_VALUE: main:ff_speed <- 1.200000e+00
	#DEBUG_VALUE: main:ff_velocity <- [DW_OP_LLVM_fragment 0 32] 1.200000e+00
	#DEBUG_VALUE: main:ff_velocity <- [DW_OP_LLVM_fragment 32 32] 0.000000e+00
	#DEBUG_VALUE: main:ff_velocity <- [DW_OP_LLVM_fragment 64 32] 0.000000e+00
	#DEBUG_VALUE: main:h_ff_momentum <- [DW_OP_LLVM_fragment 0 32] 1.680000e+00
	#DEBUG_VALUE: main:h_ff_momentum <- [DW_OP_LLVM_fragment 32 32] 0.000000e+00
	#DEBUG_VALUE: main:h_ff_momentum <- [DW_OP_LLVM_fragment 64 32] 0.000000e+00
	#DEBUG_VALUE: main:nelr <- [DW_OP_plus_uconst 200, DW_OP_deref] $rsp
	#DEBUG_VALUE: h_areas <- [DW_OP_plus_uconst 16, DW_OP_deref] $rsp
	#DEBUG_VALUE: h_elements_surrounding_elements <- [DW_OP_plus_uconst 216, DW_OP_deref] $rsp
	#DEBUG_VALUE: alloc<float>:t <- [DW_OP_plus_uconst 24, DW_OP_deref] $rsp
	#DEBUG_VALUE: alloc<float>:N <- [DW_OP_plus_uconst 200, DW_OP_deref] $rsp
	.loc	1 85 10 is_stmt 1               # ./euler3d_no_memcpytosymbol.cu:85:10
	movq	24(%rsp), %rdi
.Ltmp583:
	#DEBUG_VALUE: main:areas <- $rdi
	#DEBUG_VALUE: upload<float>:dst <- $rdi
	#DEBUG_VALUE: upload<float>:src <- [DW_OP_plus_uconst 16, DW_OP_deref] $rsp
	#DEBUG_VALUE: upload<float>:N <- [DW_OP_plus_uconst 200, DW_OP_deref] $rsp
.Ltmp418:
	.cfi_escape 0x2e, 0x00
	.loc	1 0 10 is_stmt 0                # ./euler3d_no_memcpytosymbol.cu:0:10
	movq	%rdi, 248(%rsp)                 # 8-byte Spill
.Ltmp584:
	#DEBUG_VALUE: upload<float>:dst <- [DW_OP_plus_uconst 248, DW_OP_deref] $rsp
	#DEBUG_VALUE: main:areas <- [DW_OP_plus_uconst 248, DW_OP_deref] $rsp
	movq	16(%rsp), %rsi                  # 8-byte Reload
.Ltmp585:
	.loc	1 95 3 is_stmt 1                # ./euler3d_no_memcpytosymbol.cu:95:3
	movq	%r15, %rdx
	movl	$1, %ecx
	callq	cudaMemcpy@PLT
.Ltmp586:
.Ltmp419:
# %bb.73:                               # %invoke.cont191
	#DEBUG_VALUE: main:argc <- [DW_OP_LLVM_entry_value 1] $edi
	#DEBUG_VALUE: main:argv <- [DW_OP_LLVM_entry_value 1] $rsi
	#DEBUG_VALUE: main:h_ff_variable <- [DW_OP_plus_uconst 448, DW_OP_deref] $rsp
	#DEBUG_VALUE: main:h_ff_flux_contribution_momentum_x <- [DW_OP_plus_uconst 432, DW_OP_deref] $rsp
	#DEBUG_VALUE: main:h_ff_flux_contribution_momentum_y <- [DW_OP_plus_uconst 416, DW_OP_deref] $rsp
	#DEBUG_VALUE: main:h_ff_flux_contribution_momentum_z <- [DW_OP_plus_uconst 400, DW_OP_deref] $rsp
	#DEBUG_VALUE: main:h_ff_flux_contribution_density_energy <- [DW_OP_plus_uconst 384, DW_OP_deref] $rsp
	#DEBUG_VALUE: main:angle_of_attack <- 0.000000e+00
	#DEBUG_VALUE: main:ff_pressure <- 1.000000e+00
	#DEBUG_VALUE: main:ff_speed_of_sound <- 1.000000e+00
	#DEBUG_VALUE: main:ff_speed <- 1.200000e+00
	#DEBUG_VALUE: main:ff_velocity <- [DW_OP_LLVM_fragment 0 32] 1.200000e+00
	#DEBUG_VALUE: main:ff_velocity <- [DW_OP_LLVM_fragment 32 32] 0.000000e+00
	#DEBUG_VALUE: main:ff_velocity <- [DW_OP_LLVM_fragment 64 32] 0.000000e+00
	#DEBUG_VALUE: main:h_ff_momentum <- [DW_OP_LLVM_fragment 0 32] 1.680000e+00
	#DEBUG_VALUE: main:h_ff_momentum <- [DW_OP_LLVM_fragment 32 32] 0.000000e+00
	#DEBUG_VALUE: main:h_ff_momentum <- [DW_OP_LLVM_fragment 64 32] 0.000000e+00
	#DEBUG_VALUE: main:nelr <- [DW_OP_plus_uconst 200, DW_OP_deref] $rsp
	#DEBUG_VALUE: h_areas <- [DW_OP_plus_uconst 16, DW_OP_deref] $rsp
	#DEBUG_VALUE: h_elements_surrounding_elements <- [DW_OP_plus_uconst 216, DW_OP_deref] $rsp
	#DEBUG_VALUE: main:areas <- [DW_OP_plus_uconst 248, DW_OP_deref] $rsp
.Ltmp420:
	#DEBUG_VALUE: alloc<int>:t <- [DW_OP_plus_uconst 24, DW_OP_deref] $rsp
	.cfi_escape 0x2e, 0x00
	.loc	1 0 3 is_stmt 0                 # ./euler3d_no_memcpytosymbol.cu:0:3
	leaq	24(%rsp), %rdi
.Ltmp587:
	.loc	1 84 3 is_stmt 1                # ./euler3d_no_memcpytosymbol.cu:84:3
	movq	%rbp, %rsi
	callq	cudaMalloc@PLT
.Ltmp588:
.Ltmp421:
	#DEBUG_VALUE: alloc<int>:N <- [DW_OP_plus_uconst 360, DW_OP_deref, DW_OP_constu 9, DW_OP_shl, DW_OP_stack_value] $rsp
# %bb.74:                               # %invoke.cont193
	#DEBUG_VALUE: main:argc <- [DW_OP_LLVM_entry_value 1] $edi
	#DEBUG_VALUE: main:argv <- [DW_OP_LLVM_entry_value 1] $rsi
	#DEBUG_VALUE: main:h_ff_variable <- [DW_OP_plus_uconst 448, DW_OP_deref] $rsp
	#DEBUG_VALUE: main:h_ff_flux_contribution_momentum_x <- [DW_OP_plus_uconst 432, DW_OP_deref] $rsp
	#DEBUG_VALUE: main:h_ff_flux_contribution_momentum_y <- [DW_OP_plus_uconst 416, DW_OP_deref] $rsp
	#DEBUG_VALUE: main:h_ff_flux_contribution_momentum_z <- [DW_OP_plus_uconst 400, DW_OP_deref] $rsp
	#DEBUG_VALUE: main:h_ff_flux_contribution_density_energy <- [DW_OP_plus_uconst 384, DW_OP_deref] $rsp
	#DEBUG_VALUE: main:angle_of_attack <- 0.000000e+00
	#DEBUG_VALUE: main:ff_pressure <- 1.000000e+00
	#DEBUG_VALUE: main:ff_speed_of_sound <- 1.000000e+00
	#DEBUG_VALUE: main:ff_speed <- 1.200000e+00
	#DEBUG_VALUE: main:ff_velocity <- [DW_OP_LLVM_fragment 0 32] 1.200000e+00
	#DEBUG_VALUE: main:ff_velocity <- [DW_OP_LLVM_fragment 32 32] 0.000000e+00
	#DEBUG_VALUE: main:ff_velocity <- [DW_OP_LLVM_fragment 64 32] 0.000000e+00
	#DEBUG_VALUE: main:h_ff_momentum <- [DW_OP_LLVM_fragment 0 32] 1.680000e+00
	#DEBUG_VALUE: main:h_ff_momentum <- [DW_OP_LLVM_fragment 32 32] 0.000000e+00
	#DEBUG_VALUE: main:h_ff_momentum <- [DW_OP_LLVM_fragment 64 32] 0.000000e+00
	#DEBUG_VALUE: main:nelr <- [DW_OP_plus_uconst 200, DW_OP_deref] $rsp
	#DEBUG_VALUE: h_areas <- [DW_OP_plus_uconst 16, DW_OP_deref] $rsp
	#DEBUG_VALUE: h_elements_surrounding_elements <- [DW_OP_plus_uconst 216, DW_OP_deref] $rsp
	#DEBUG_VALUE: main:areas <- [DW_OP_plus_uconst 248, DW_OP_deref] $rsp
	#DEBUG_VALUE: alloc<int>:t <- [DW_OP_plus_uconst 24, DW_OP_deref] $rsp
	#DEBUG_VALUE: alloc<int>:N <- [DW_OP_plus_uconst 360, DW_OP_deref, DW_OP_constu 9, DW_OP_shl, DW_OP_stack_value] $rsp
	.loc	1 85 10                         # ./euler3d_no_memcpytosymbol.cu:85:10
	movq	24(%rsp), %rdi
.Ltmp589:
	#DEBUG_VALUE: main:elements_surrounding_elements <- $rdi
	#DEBUG_VALUE: upload<int>:dst <- $rdi
	#DEBUG_VALUE: upload<int>:src <- [DW_OP_plus_uconst 216, DW_OP_deref] $rsp
.Ltmp422:
	.cfi_escape 0x2e, 0x00
	.loc	1 0 10 is_stmt 0                # ./euler3d_no_memcpytosymbol.cu:0:10
	movq	%rdi, 96(%rsp)                  # 8-byte Spill
.Ltmp590:
	#DEBUG_VALUE: upload<int>:dst <- [DW_OP_plus_uconst 96, DW_OP_deref] $rsp
	#DEBUG_VALUE: main:elements_surrounding_elements <- [DW_OP_plus_uconst 96, DW_OP_deref] $rsp
	.loc	1 95 3 is_stmt 1                # ./euler3d_no_memcpytosymbol.cu:95:3
	movq	%rbx, %rsi
	movq	%rbp, %rdx
	movl	$1, %ecx
	callq	cudaMemcpy@PLT
.Ltmp591:
.Ltmp423:
	#DEBUG_VALUE: upload<int>:N <- [DW_OP_plus_uconst 360, DW_OP_deref, DW_OP_constu 9, DW_OP_shl, DW_OP_stack_value] $rsp
# %bb.75:                               # %invoke.cont196
	#DEBUG_VALUE: main:argc <- [DW_OP_LLVM_entry_value 1] $edi
	#DEBUG_VALUE: main:argv <- [DW_OP_LLVM_entry_value 1] $rsi
	#DEBUG_VALUE: main:h_ff_variable <- [DW_OP_plus_uconst 448, DW_OP_deref] $rsp
	#DEBUG_VALUE: main:h_ff_flux_contribution_momentum_x <- [DW_OP_plus_uconst 432, DW_OP_deref] $rsp
	#DEBUG_VALUE: main:h_ff_flux_contribution_momentum_y <- [DW_OP_plus_uconst 416, DW_OP_deref] $rsp
	#DEBUG_VALUE: main:h_ff_flux_contribution_momentum_z <- [DW_OP_plus_uconst 400, DW_OP_deref] $rsp
	#DEBUG_VALUE: main:h_ff_flux_contribution_density_energy <- [DW_OP_plus_uconst 384, DW_OP_deref] $rsp
	#DEBUG_VALUE: main:angle_of_attack <- 0.000000e+00
	#DEBUG_VALUE: main:ff_pressure <- 1.000000e+00
	#DEBUG_VALUE: main:ff_speed_of_sound <- 1.000000e+00
	#DEBUG_VALUE: main:ff_speed <- 1.200000e+00
	#DEBUG_VALUE: main:ff_velocity <- [DW_OP_LLVM_fragment 0 32] 1.200000e+00
	#DEBUG_VALUE: main:ff_velocity <- [DW_OP_LLVM_fragment 32 32] 0.000000e+00
	#DEBUG_VALUE: main:ff_velocity <- [DW_OP_LLVM_fragment 64 32] 0.000000e+00
	#DEBUG_VALUE: main:h_ff_momentum <- [DW_OP_LLVM_fragment 0 32] 1.680000e+00
	#DEBUG_VALUE: main:h_ff_momentum <- [DW_OP_LLVM_fragment 32 32] 0.000000e+00
	#DEBUG_VALUE: main:h_ff_momentum <- [DW_OP_LLVM_fragment 64 32] 0.000000e+00
	#DEBUG_VALUE: main:nelr <- [DW_OP_plus_uconst 200, DW_OP_deref] $rsp
	#DEBUG_VALUE: h_areas <- [DW_OP_plus_uconst 16, DW_OP_deref] $rsp
	#DEBUG_VALUE: h_elements_surrounding_elements <- [DW_OP_plus_uconst 216, DW_OP_deref] $rsp
	#DEBUG_VALUE: main:areas <- [DW_OP_plus_uconst 248, DW_OP_deref] $rsp
	#DEBUG_VALUE: main:elements_surrounding_elements <- [DW_OP_plus_uconst 96, DW_OP_deref] $rsp
.Ltmp424:
	#DEBUG_VALUE: alloc<float>:t <- [DW_OP_plus_uconst 24, DW_OP_deref] $rsp
	.cfi_escape 0x2e, 0x00
	.loc	1 0 3 is_stmt 0                 # ./euler3d_no_memcpytosymbol.cu:0:3
	leaq	24(%rsp), %rdi
.Ltmp592:
	.loc	1 84 3 is_stmt 1                # ./euler3d_no_memcpytosymbol.cu:84:3
	movq	%r14, %rsi
	callq	cudaMalloc@PLT
.Ltmp593:
.Ltmp425:
	#DEBUG_VALUE: alloc<float>:N <- [DW_OP_plus_uconst 360, DW_OP_deref, DW_OP_constu 1536, DW_OP_mul, DW_OP_stack_value] $rsp
# %bb.76:                               # %invoke.cont199
	#DEBUG_VALUE: main:argc <- [DW_OP_LLVM_entry_value 1] $edi
	#DEBUG_VALUE: main:argv <- [DW_OP_LLVM_entry_value 1] $rsi
	#DEBUG_VALUE: main:h_ff_variable <- [DW_OP_plus_uconst 448, DW_OP_deref] $rsp
	#DEBUG_VALUE: main:h_ff_flux_contribution_momentum_x <- [DW_OP_plus_uconst 432, DW_OP_deref] $rsp
	#DEBUG_VALUE: main:h_ff_flux_contribution_momentum_y <- [DW_OP_plus_uconst 416, DW_OP_deref] $rsp
	#DEBUG_VALUE: main:h_ff_flux_contribution_momentum_z <- [DW_OP_plus_uconst 400, DW_OP_deref] $rsp
	#DEBUG_VALUE: main:h_ff_flux_contribution_density_energy <- [DW_OP_plus_uconst 384, DW_OP_deref] $rsp
	#DEBUG_VALUE: main:angle_of_attack <- 0.000000e+00
	#DEBUG_VALUE: main:ff_pressure <- 1.000000e+00
	#DEBUG_VALUE: main:ff_speed_of_sound <- 1.000000e+00
	#DEBUG_VALUE: main:ff_speed <- 1.200000e+00
	#DEBUG_VALUE: main:ff_velocity <- [DW_OP_LLVM_fragment 0 32] 1.200000e+00
	#DEBUG_VALUE: main:ff_velocity <- [DW_OP_LLVM_fragment 32 32] 0.000000e+00
	#DEBUG_VALUE: main:ff_velocity <- [DW_OP_LLVM_fragment 64 32] 0.000000e+00
	#DEBUG_VALUE: main:h_ff_momentum <- [DW_OP_LLVM_fragment 0 32] 1.680000e+00
	#DEBUG_VALUE: main:h_ff_momentum <- [DW_OP_LLVM_fragment 32 32] 0.000000e+00
	#DEBUG_VALUE: main:h_ff_momentum <- [DW_OP_LLVM_fragment 64 32] 0.000000e+00
	#DEBUG_VALUE: main:nelr <- [DW_OP_plus_uconst 200, DW_OP_deref] $rsp
	#DEBUG_VALUE: h_areas <- [DW_OP_plus_uconst 16, DW_OP_deref] $rsp
	#DEBUG_VALUE: h_elements_surrounding_elements <- [DW_OP_plus_uconst 216, DW_OP_deref] $rsp
	#DEBUG_VALUE: main:areas <- [DW_OP_plus_uconst 248, DW_OP_deref] $rsp
	#DEBUG_VALUE: main:elements_surrounding_elements <- [DW_OP_plus_uconst 96, DW_OP_deref] $rsp
	#DEBUG_VALUE: alloc<float>:t <- [DW_OP_plus_uconst 24, DW_OP_deref] $rsp
	#DEBUG_VALUE: alloc<float>:N <- [DW_OP_plus_uconst 360, DW_OP_deref, DW_OP_constu 1536, DW_OP_mul, DW_OP_stack_value] $rsp
	.loc	1 85 10                         # ./euler3d_no_memcpytosymbol.cu:85:10
	movq	24(%rsp), %rdi
.Ltmp594:
	#DEBUG_VALUE: main:normals <- $rdi
	#DEBUG_VALUE: upload<float>:dst <- $rdi
	#DEBUG_VALUE: upload<float>:src <- [DW_OP_plus_uconst 240, DW_OP_deref] $rsp
.Ltmp426:
	.cfi_escape 0x2e, 0x00
	.loc	1 0 10 is_stmt 0                # ./euler3d_no_memcpytosymbol.cu:0:10
	movq	%rdi, 208(%rsp)                 # 8-byte Spill
.Ltmp595:
	#DEBUG_VALUE: upload<float>:dst <- [DW_OP_plus_uconst 208, DW_OP_deref] $rsp
	#DEBUG_VALUE: main:normals <- [DW_OP_plus_uconst 208, DW_OP_deref] $rsp
	movq	240(%rsp), %rsi                 # 8-byte Reload
.Ltmp596:
	.loc	1 95 3 is_stmt 1                # ./euler3d_no_memcpytosymbol.cu:95:3
	movq	%r14, %rdx
	movl	$1, %ecx
	callq	cudaMemcpy@PLT
.Ltmp597:
.Ltmp427:
	#DEBUG_VALUE: upload<float>:N <- [DW_OP_plus_uconst 360, DW_OP_deref, DW_OP_constu 1536, DW_OP_mul, DW_OP_stack_value] $rsp
# %bb.77:                               # %delete.notnull
	#DEBUG_VALUE: main:argc <- [DW_OP_LLVM_entry_value 1] $edi
	#DEBUG_VALUE: main:argv <- [DW_OP_LLVM_entry_value 1] $rsi
	#DEBUG_VALUE: main:h_ff_variable <- [DW_OP_plus_uconst 448, DW_OP_deref] $rsp
	#DEBUG_VALUE: main:h_ff_flux_contribution_momentum_x <- [DW_OP_plus_uconst 432, DW_OP_deref] $rsp
	#DEBUG_VALUE: main:h_ff_flux_contribution_momentum_y <- [DW_OP_plus_uconst 416, DW_OP_deref] $rsp
	#DEBUG_VALUE: main:h_ff_flux_contribution_momentum_z <- [DW_OP_plus_uconst 400, DW_OP_deref] $rsp
	#DEBUG_VALUE: main:h_ff_flux_contribution_density_energy <- [DW_OP_plus_uconst 384, DW_OP_deref] $rsp
	#DEBUG_VALUE: main:angle_of_attack <- 0.000000e+00
	#DEBUG_VALUE: main:ff_pressure <- 1.000000e+00
	#DEBUG_VALUE: main:ff_speed_of_sound <- 1.000000e+00
	#DEBUG_VALUE: main:ff_speed <- 1.200000e+00
	#DEBUG_VALUE: main:ff_velocity <- [DW_OP_LLVM_fragment 0 32] 1.200000e+00
	#DEBUG_VALUE: main:ff_velocity <- [DW_OP_LLVM_fragment 32 32] 0.000000e+00
	#DEBUG_VALUE: main:ff_velocity <- [DW_OP_LLVM_fragment 64 32] 0.000000e+00
	#DEBUG_VALUE: main:h_ff_momentum <- [DW_OP_LLVM_fragment 0 32] 1.680000e+00
	#DEBUG_VALUE: main:h_ff_momentum <- [DW_OP_LLVM_fragment 32 32] 0.000000e+00
	#DEBUG_VALUE: main:h_ff_momentum <- [DW_OP_LLVM_fragment 64 32] 0.000000e+00
	#DEBUG_VALUE: main:nelr <- [DW_OP_plus_uconst 200, DW_OP_deref] $rsp
	#DEBUG_VALUE: h_areas <- [DW_OP_plus_uconst 16, DW_OP_deref] $rsp
	#DEBUG_VALUE: h_elements_surrounding_elements <- [DW_OP_plus_uconst 216, DW_OP_deref] $rsp
	#DEBUG_VALUE: main:areas <- [DW_OP_plus_uconst 248, DW_OP_deref] $rsp
	#DEBUG_VALUE: main:elements_surrounding_elements <- [DW_OP_plus_uconst 96, DW_OP_deref] $rsp
	#DEBUG_VALUE: main:normals <- [DW_OP_plus_uconst 208, DW_OP_deref] $rsp
	.cfi_escape 0x2e, 0x00
	.loc	1 0 3 is_stmt 0                 # ./euler3d_no_memcpytosymbol.cu:0:3
	movq	16(%rsp), %rdi                  # 8-byte Reload
	.loc	1 587 5 is_stmt 1               # ./euler3d_no_memcpytosymbol.cu:587:5
	callq	_ZdaPv@PLT
.Ltmp598:
	.cfi_escape 0x2e, 0x00
	.loc	1 588 5                         # ./euler3d_no_memcpytosymbol.cu:588:5
	movq	%rbx, %rdi
	callq	_ZdaPv@PLT
.Ltmp599:
	.cfi_escape 0x2e, 0x00
	.loc	1 0 5 is_stmt 0                 # ./euler3d_no_memcpytosymbol.cu:0:5
	movq	240(%rsp), %rdi                 # 8-byte Reload
	.loc	1 589 5 is_stmt 1               # ./euler3d_no_memcpytosymbol.cu:589:5
	callq	_ZdaPv@PLT
.Ltmp600:
	#DEBUG_VALUE: ~basic_ifstream:this <- [DW_OP_plus_uconst 480, DW_OP_stack_value] $rsp
	#DEBUG_VALUE: ~basic_ifstream:this <- [DW_OP_plus_uconst 480, DW_OP_stack_value] $rsp
	.loc	11 607 7                        # /usr/lib/gcc/x86_64-linux-gnu/13/../../../../include/c++/13/fstream:607:7
	movq	_ZTTSt14basic_ifstreamIcSt11char_traitsIcEE@GOTPCREL(%rip), %rbx
.Ltmp601:
	#DEBUG_VALUE: ~basic_ifstream:vtt <- $rbx
	movq	(%rbx), %rax
.Ltmp602:
	#DEBUG_VALUE: ~basic_istream:this <- [DW_OP_plus_uconst 480, DW_OP_stack_value] $rsp
	.loc	19 106 7                        # /usr/lib/gcc/x86_64-linux-gnu/13/../../../../include/c++/13/istream:106:7
	movq	8(%rbx), %r14
.Ltmp603:
	.loc	11 607 7                        # /usr/lib/gcc/x86_64-linux-gnu/13/../../../../include/c++/13/fstream:607:7
	movq	%rax, 480(%rsp)
	movq	24(%rbx), %rcx
	movq	-24(%rax), %rax
	movq	%rcx, 480(%rsp,%rax)
.Ltmp604:
	.loc	11 607 9 is_stmt 0              # /usr/lib/gcc/x86_64-linux-gnu/13/../../../../include/c++/13/fstream:607:9
	leaq	496(%rsp), %rdi
	.cfi_escape 0x2e, 0x00
	callq	_ZNSt13basic_filebufIcSt11char_traitsIcEED2Ev@PLT
.Ltmp605:
	#DEBUG_VALUE: ~basic_istream:vtt <- [DW_OP_plus_uconst 8, DW_OP_stack_value] $rbx
	.loc	19 106 7 is_stmt 1              # /usr/lib/gcc/x86_64-linux-gnu/13/../../../../include/c++/13/istream:106:7
	movq	%r14, 480(%rsp)
	movq	16(%rbx), %rax
	movq	-24(%r14), %rcx
	movq	%rax, 480(%rsp,%rcx)
.Ltmp606:
	.loc	19 106 19 is_stmt 0             # /usr/lib/gcc/x86_64-linux-gnu/13/../../../../include/c++/13/istream:106:19
	movq	$0, 488(%rsp)
.Ltmp607:
	.loc	11 607 7 is_stmt 1              # /usr/lib/gcc/x86_64-linux-gnu/13/../../../../include/c++/13/fstream:607:7
	leaq	736(%rsp), %rdi
	.cfi_escape 0x2e, 0x00
	callq	_ZNSt8ios_baseD2Ev@PLT
.Ltmp608:
	.loc	11 0 7 is_stmt 0                # /usr/lib/gcc/x86_64-linux-gnu/13/../../../../include/c++/13/fstream:0:7
	movq	200(%rsp), %rbx                 # 8-byte Reload
.Ltmp609:
	.loc	1 593 40 is_stmt 1              # ./euler3d_no_memcpytosymbol.cu:593:40
	leal	(%rbx,%rbx,4), %eax
.Ltmp610:
	#DEBUG_VALUE: alloc<float>:N <- $eax
	#DEBUG_VALUE: alloc<float>:N <- $eax
	#DEBUG_VALUE: alloc<float>:N <- $eax
	#DEBUG_VALUE: alloc<float>:t <- [DW_OP_plus_uconst 480, DW_OP_deref] $rsp
	.loc	1 84 39                         # ./euler3d_no_memcpytosymbol.cu:84:39
	movslq	%eax, %r12
	.loc	1 84 37 is_stmt 0               # ./euler3d_no_memcpytosymbol.cu:84:37
	shlq	$2, %r12
	.cfi_escape 0x2e, 0x00
	leaq	480(%rsp), %rdi
	.loc	1 84 3                          # ./euler3d_no_memcpytosymbol.cu:84:3
	movq	%r12, %rsi
	callq	cudaMalloc@PLT
.Ltmp611:
	.loc	1 85 10 is_stmt 1               # ./euler3d_no_memcpytosymbol.cu:85:10
	movq	480(%rsp), %rsi
.Ltmp612:
	#DEBUG_VALUE: main:variables <- $rsi
	.loc	1 594 41                        # ./euler3d_no_memcpytosymbol.cu:594:41
	movq	224(%rsp), %rdx
	.cfi_escape 0x2e, 0x00
	.loc	1 594 3 is_stmt 0               # ./euler3d_no_memcpytosymbol.cu:594:3
	movl	%ebx, %edi
	movq	%rsi, 16(%rsp)                  # 8-byte Spill
.Ltmp613:
	#DEBUG_VALUE: main:variables <- [DW_OP_plus_uconst 16, DW_OP_deref] $rsp
	#DEBUG_VALUE: h_areas <- undef
	callq	_Z20initialize_variablesiPfPKf
.Ltmp614:
	#DEBUG_VALUE: alloc<float>:t <- [DW_OP_plus_uconst 480, DW_OP_deref] $rsp
	.cfi_escape 0x2e, 0x00
	.loc	1 0 3                           # ./euler3d_no_memcpytosymbol.cu:0:3
	leaq	480(%rsp), %rdi
.Ltmp615:
	.loc	1 84 3 is_stmt 1                # ./euler3d_no_memcpytosymbol.cu:84:3
	movq	%r12, %rsi
	callq	cudaMalloc@PLT
.Ltmp616:
	.loc	1 85 10                         # ./euler3d_no_memcpytosymbol.cu:85:10
	movq	480(%rsp), %r14
.Ltmp617:
	#DEBUG_VALUE: alloc<float>:t <- [DW_OP_plus_uconst 480, DW_OP_deref] $rsp
	#DEBUG_VALUE: main:old_variables <- $r14
	.cfi_escape 0x2e, 0x00
	.loc	1 0 10 is_stmt 0                # ./euler3d_no_memcpytosymbol.cu:0:10
	leaq	480(%rsp), %rdi
	movq	%r12, 304(%rsp)                 # 8-byte Spill
.Ltmp618:
	.loc	1 84 3 is_stmt 1                # ./euler3d_no_memcpytosymbol.cu:84:3
	movq	%r12, %rsi
	callq	cudaMalloc@PLT
.Ltmp619:
	.loc	1 85 10                         # ./euler3d_no_memcpytosymbol.cu:85:10
	movq	480(%rsp), %rbp
.Ltmp620:
	#DEBUG_VALUE: alloc<float>:t <- [DW_OP_plus_uconst 480, DW_OP_deref] $rsp
	#DEBUG_VALUE: alloc<float>:N <- [DW_OP_plus_uconst 200, DW_OP_deref] $rsp
	#DEBUG_VALUE: main:fluxes <- $rbp
	.cfi_escape 0x2e, 0x00
	.loc	1 0 10 is_stmt 0                # ./euler3d_no_memcpytosymbol.cu:0:10
	leaq	480(%rsp), %rdi
.Ltmp621:
	.loc	1 84 3 is_stmt 1                # ./euler3d_no_memcpytosymbol.cu:84:3
	movq	%r15, %rsi
	callq	cudaMalloc@PLT
.Ltmp622:
	.loc	1 85 10                         # ./euler3d_no_memcpytosymbol.cu:85:10
	movq	480(%rsp), %r12
.Ltmp623:
	#DEBUG_VALUE: main:step_factors <- $r12
	.loc	1 600 45                        # ./euler3d_no_memcpytosymbol.cu:600:45
	movq	224(%rsp), %rdx
	.cfi_escape 0x2e, 0x00
	.loc	1 600 3 is_stmt 0               # ./euler3d_no_memcpytosymbol.cu:600:3
	movl	%ebx, %edi
	movq	%r14, 80(%rsp)                  # 8-byte Spill
.Ltmp624:
	#DEBUG_VALUE: main:old_variables <- [DW_OP_plus_uconst 80, DW_OP_deref] $rsp
	movq	%r14, %rsi
	callq	_Z20initialize_variablesiPfPKf
.Ltmp625:
	.loc	1 601 38 is_stmt 1              # ./euler3d_no_memcpytosymbol.cu:601:38
	movq	224(%rsp), %rdx
	.cfi_escape 0x2e, 0x00
	.loc	1 601 3 is_stmt 0               # ./euler3d_no_memcpytosymbol.cu:601:3
	movl	%ebx, %edi
	movq	%rbp, 72(%rsp)                  # 8-byte Spill
.Ltmp626:
	#DEBUG_VALUE: main:fluxes <- [DW_OP_plus_uconst 72, DW_OP_deref] $rsp
	movq	%rbp, %rsi
	callq	_Z20initialize_variablesiPfPKf
.Ltmp627:
	.cfi_escape 0x2e, 0x00
	.loc	1 0 3                           # ./euler3d_no_memcpytosymbol.cu:0:3
	movq	%r12, 192(%rsp)                 # 8-byte Spill
.Ltmp628:
	#DEBUG_VALUE: main:step_factors <- [DW_OP_plus_uconst 192, DW_OP_deref] $rsp
	.loc	1 602 3 is_stmt 1               # ./euler3d_no_memcpytosymbol.cu:602:3
	movq	%r12, %rdi
	xorl	%esi, %esi
	movq	%r15, %rdx
	callq	cudaMemset@PLT
.Ltmp629:
	.cfi_escape 0x2e, 0x00
	.loc	1 604 3                         # ./euler3d_no_memcpytosymbol.cu:604:3
	callq	cudaDeviceSynchronize@PLT
.Ltmp630:
	.cfi_escape 0x2e, 0x00
	.loc	8 667 2                         # /usr/lib/gcc/x86_64-linux-gnu/13/../../../../include/c++/13/ostream:667:2
	movq	_ZSt4cout@GOTPCREL(%rip), %rbx
.Ltmp631:
	#DEBUG_VALUE: operator<<<std::char_traits<char> >:__out <- $rbx
	#DEBUG_VALUE: operator<<:this <- $rbx
	#DEBUG_VALUE: endl<char, std::char_traits<char> >:__os <- $rbx
	leaq	.L.str.7(%rip), %rsi
.Ltmp632:
	#DEBUG_VALUE: operator<<<std::char_traits<char> >:__s <- $rsi
	movl	$11, %edx
	movq	%rbx, %rdi
	callq	_ZSt16__ostream_insertIcSt11char_traitsIcEERSt13basic_ostreamIT_T0_ES6_PKS3_l@PLT
.Ltmp633:
	#DEBUG_VALUE: operator<<:__pf <- undef
	.loc	8 736 29                        # /usr/lib/gcc/x86_64-linux-gnu/13/../../../../include/c++/13/ostream:736:29
	movq	(%rbx), %rax
	movq	-24(%rax), %rax
.Ltmp634:
	#DEBUG_VALUE: widen:__c <- 10
	#DEBUG_VALUE: widen:this <- [DW_OP_LLVM_arg 0, DW_OP_LLVM_arg 1, DW_OP_plus, DW_OP_stack_value] $rbx, $rax
	.loc	9 450 30                        # /usr/lib/gcc/x86_64-linux-gnu/13/../../../../include/c++/13/bits/basic_ios.h:450:30
	movq	240(%rbx,%rax), %rbx
.Ltmp635:
	#DEBUG_VALUE: __check_facet<std::ctype<char> >:__f <- $rbx
	.loc	9 49 12                         # /usr/lib/gcc/x86_64-linux-gnu/13/../../../../include/c++/13/bits/basic_ios.h:49:12
	testq	%rbx, %rbx
.Ltmp636:
	.loc	9 49 11 is_stmt 0               # /usr/lib/gcc/x86_64-linux-gnu/13/../../../../include/c++/13/bits/basic_ios.h:49:11
	je	.LBB9_122
.Ltmp637:
# %bb.78:                               # %_ZSt13__check_facetISt5ctypeIcEERKT_PS3_.exit.i.i229
	#DEBUG_VALUE: main:argc <- [DW_OP_LLVM_entry_value 1] $edi
	#DEBUG_VALUE: main:argv <- [DW_OP_LLVM_entry_value 1] $rsi
	#DEBUG_VALUE: main:h_ff_variable <- [DW_OP_plus_uconst 448, DW_OP_deref] $rsp
	#DEBUG_VALUE: main:h_ff_flux_contribution_momentum_x <- [DW_OP_plus_uconst 432, DW_OP_deref] $rsp
	#DEBUG_VALUE: main:h_ff_flux_contribution_momentum_y <- [DW_OP_plus_uconst 416, DW_OP_deref] $rsp
	#DEBUG_VALUE: main:h_ff_flux_contribution_momentum_z <- [DW_OP_plus_uconst 400, DW_OP_deref] $rsp
	#DEBUG_VALUE: main:h_ff_flux_contribution_density_energy <- [DW_OP_plus_uconst 384, DW_OP_deref] $rsp
	#DEBUG_VALUE: main:angle_of_attack <- 0.000000e+00
	#DEBUG_VALUE: main:ff_pressure <- 1.000000e+00
	#DEBUG_VALUE: main:ff_speed_of_sound <- 1.000000e+00
	#DEBUG_VALUE: main:ff_speed <- 1.200000e+00
	#DEBUG_VALUE: main:ff_velocity <- [DW_OP_LLVM_fragment 0 32] 1.200000e+00
	#DEBUG_VALUE: main:ff_velocity <- [DW_OP_LLVM_fragment 32 32] 0.000000e+00
	#DEBUG_VALUE: main:ff_velocity <- [DW_OP_LLVM_fragment 64 32] 0.000000e+00
	#DEBUG_VALUE: main:h_ff_momentum <- [DW_OP_LLVM_fragment 0 32] 1.680000e+00
	#DEBUG_VALUE: main:h_ff_momentum <- [DW_OP_LLVM_fragment 32 32] 0.000000e+00
	#DEBUG_VALUE: main:h_ff_momentum <- [DW_OP_LLVM_fragment 64 32] 0.000000e+00
	#DEBUG_VALUE: main:nelr <- [DW_OP_plus_uconst 200, DW_OP_deref] $rsp
	#DEBUG_VALUE: main:areas <- [DW_OP_plus_uconst 248, DW_OP_deref] $rsp
	#DEBUG_VALUE: main:elements_surrounding_elements <- [DW_OP_plus_uconst 96, DW_OP_deref] $rsp
	#DEBUG_VALUE: main:normals <- [DW_OP_plus_uconst 208, DW_OP_deref] $rsp
	#DEBUG_VALUE: main:variables <- [DW_OP_plus_uconst 16, DW_OP_deref] $rsp
	#DEBUG_VALUE: main:old_variables <- [DW_OP_plus_uconst 80, DW_OP_deref] $rsp
	#DEBUG_VALUE: main:fluxes <- [DW_OP_plus_uconst 72, DW_OP_deref] $rsp
	#DEBUG_VALUE: main:step_factors <- [DW_OP_plus_uconst 192, DW_OP_deref] $rsp
	#DEBUG_VALUE: widen:__c <- 10
	#DEBUG_VALUE: widen:this <- $rbx
	#DEBUG_VALUE: widen:__c <- 10
	.loc	10 882 6 is_stmt 1              # /usr/lib/gcc/x86_64-linux-gnu/13/../../../../include/c++/13/bits/locale_facets.h:882:6
	cmpb	$0, 56(%rbx)
	movq	360(%rsp), %r14                 # 8-byte Reload
.Ltmp638:
	.loc	10 882 6 is_stmt 0              # /usr/lib/gcc/x86_64-linux-gnu/13/../../../../include/c++/13/bits/locale_facets.h:882:6
	je	.LBB9_87
.Ltmp639:
# %bb.79:                               # %if.then.i2.i.i232
	#DEBUG_VALUE: main:argc <- [DW_OP_LLVM_entry_value 1] $edi
	#DEBUG_VALUE: main:argv <- [DW_OP_LLVM_entry_value 1] $rsi
	#DEBUG_VALUE: main:h_ff_variable <- [DW_OP_plus_uconst 448, DW_OP_deref] $rsp
	#DEBUG_VALUE: main:h_ff_flux_contribution_momentum_x <- [DW_OP_plus_uconst 432, DW_OP_deref] $rsp
	#DEBUG_VALUE: main:h_ff_flux_contribution_momentum_y <- [DW_OP_plus_uconst 416, DW_OP_deref] $rsp
	#DEBUG_VALUE: main:h_ff_flux_contribution_momentum_z <- [DW_OP_plus_uconst 400, DW_OP_deref] $rsp
	#DEBUG_VALUE: main:h_ff_flux_contribution_density_energy <- [DW_OP_plus_uconst 384, DW_OP_deref] $rsp
	#DEBUG_VALUE: main:angle_of_attack <- 0.000000e+00
	#DEBUG_VALUE: main:ff_pressure <- 1.000000e+00
	#DEBUG_VALUE: main:ff_speed_of_sound <- 1.000000e+00
	#DEBUG_VALUE: main:ff_speed <- 1.200000e+00
	#DEBUG_VALUE: main:ff_velocity <- [DW_OP_LLVM_fragment 0 32] 1.200000e+00
	#DEBUG_VALUE: main:ff_velocity <- [DW_OP_LLVM_fragment 32 32] 0.000000e+00
	#DEBUG_VALUE: main:ff_velocity <- [DW_OP_LLVM_fragment 64 32] 0.000000e+00
	#DEBUG_VALUE: main:h_ff_momentum <- [DW_OP_LLVM_fragment 0 32] 1.680000e+00
	#DEBUG_VALUE: main:h_ff_momentum <- [DW_OP_LLVM_fragment 32 32] 0.000000e+00
	#DEBUG_VALUE: main:h_ff_momentum <- [DW_OP_LLVM_fragment 64 32] 0.000000e+00
	#DEBUG_VALUE: main:nelr <- [DW_OP_plus_uconst 200, DW_OP_deref] $rsp
	#DEBUG_VALUE: main:areas <- [DW_OP_plus_uconst 248, DW_OP_deref] $rsp
	#DEBUG_VALUE: main:elements_surrounding_elements <- [DW_OP_plus_uconst 96, DW_OP_deref] $rsp
	#DEBUG_VALUE: main:normals <- [DW_OP_plus_uconst 208, DW_OP_deref] $rsp
