; ModuleID = 'host.bc'
source_filename = "./euler3d_no_memcpytosymbol.cu"
target datalayout = "e-m:e-p270:32:32-p271:32:32-p272:64:64-i64:64-i128:128-f80:128-n8:16:32:64-S128"
target triple = "x86_64-unknown-linux-gnu"

module asm ".globl _ZSt21ios_base_library_initv"

%"class.std::basic_ostream" = type { ptr, %"class.std::basic_ios" }
%"class.std::basic_ios" = type { %"class.std::ios_base", ptr, i8, i8, ptr, ptr, ptr, ptr }
%"class.std::ios_base" = type { ptr, i64, i64, i32, i32, i32, ptr, %"struct.std::ios_base::_Words", [8 x %"struct.std::ios_base::_Words"], i32, ptr, %"class.std::locale" }
%"struct.std::ios_base::_Words" = type { ptr, i64 }
%"class.std::locale" = type { ptr }
%"class.std::basic_ofstream" = type { %"class.std::basic_ostream.base", %"class.std::basic_filebuf", %"class.std::basic_ios" }
%"class.std::basic_ostream.base" = type { ptr }
%"class.std::basic_filebuf" = type { %"class.std::basic_streambuf", %union.pthread_mutex_t, %"class.std::__basic_file", i32, %struct.__mbstate_t, %struct.__mbstate_t, %struct.__mbstate_t, ptr, i64, i8, i8, i8, i8, ptr, ptr, i8, ptr, ptr, i64, ptr, ptr }
%"class.std::basic_streambuf" = type { ptr, ptr, ptr, ptr, ptr, ptr, ptr, %"class.std::locale" }
%union.pthread_mutex_t = type { %struct.__pthread_mutex_s }
%struct.__pthread_mutex_s = type { i32, i32, i32, i32, i32, i16, i16, %struct.__pthread_internal_list }
%struct.__pthread_internal_list = type { ptr, ptr }
%"class.std::__basic_file" = type <{ ptr, i8, [7 x i8] }>
%struct.__mbstate_t = type { i32, %union.anon }
%union.anon = type { i32 }
%struct.dim3 = type { i32, i32, i32 }
%struct.float3 = type { float, float, float }
%"class.std::basic_ifstream" = type { %"class.std::basic_istream.base", %"class.std::basic_filebuf", %"class.std::basic_ios" }
%"class.std::basic_istream.base" = type { ptr, i64 }
%"class.std::ctype" = type <{ %"class.std::locale::facet.base", [4 x i8], ptr, i8, [7 x i8], ptr, ptr, ptr, i8, [256 x i8], [256 x i8], i8, [6 x i8] }>
%"class.std::locale::facet.base" = type <{ ptr, i32 }>
%"class.std::basic_istream" = type { ptr, i64, %"class.std::basic_ios" }

$_Z8downloadIfEvPT_S1_i = comdat any

$_ZN4dim3C2Ejjj = comdat any

$_Z25compute_flux_contributionRfR6float3S_S_S1_S1_S1_S1_S1_ = comdat any

$_ZSt3minIiERKT_S2_S2_ = comdat any

$_Z5allocIfEPT_i = comdat any

$_Z6uploadIfEvPT_S1_i = comdat any

$_Z5allocIiEPT_i = comdat any

$_Z6uploadIiEvPT_S1_i = comdat any

$_Z4copyIfEvPT_S1_i = comdat any

$_Z7deallocIfEvPT_ = comdat any

$_Z7deallocIiEvPT_ = comdat any

$_ZStorSt13_Ios_OpenmodeS_ = comdat any

$_ZStorSt12_Ios_IostateS_ = comdat any

$_ZNSt11char_traitsIcE6lengthEPKc = comdat any

$_ZSt13__check_facetISt5ctypeIcEERKT_PS3_ = comdat any

$_ZNKSt5ctypeIcE5widenEc = comdat any

@.str = private unnamed_addr constant [8 x i8] c"density\00", align 1, !dbg !0
@.str.1 = private unnamed_addr constant [2 x i8] c" \00", align 1, !dbg !8
@.str.2 = private unnamed_addr constant [9 x i8] c"momentum\00", align 1, !dbg !13
@.str.3 = private unnamed_addr constant [15 x i8] c"density_energy\00", align 1, !dbg !18
@.str.4 = private unnamed_addr constant [150 x i8] c"WG size of kernel:initialize = %d, WG size of kernel:compute_step_factor = %d, WG size of kernel:compute_flux = %d, WG size of kernel:time_step = %d\0A\00", align 1, !dbg !23
@_ZSt4cout = external global %"class.std::basic_ostream", align 8
@.str.5 = private unnamed_addr constant [23 x i8] c"specify data file name\00", align 1, !dbg !28
@.str.6 = private unnamed_addr constant [11 x i8] c"nelr = %d\0A\00", align 1, !dbg !33
@.str.7 = private unnamed_addr constant [12 x i8] c"Starting...\00", align 1, !dbg !38
@.str.8 = private unnamed_addr constant [19 x i8] c"Saving solution...\00", align 1, !dbg !43
@.str.9 = private unnamed_addr constant [18 x i8] c"Saved solution...\00", align 1, !dbg !48
@.str.10 = private unnamed_addr constant [15 x i8] c"Cleaning up...\00", align 1, !dbg !53
@.str.11 = private unnamed_addr constant [8 x i8] c"Done...\00", align 1, !dbg !55
@_ZTVSt14basic_ofstreamIcSt11char_traitsIcEE = external unnamed_addr constant { [5 x ptr], [5 x ptr] }, align 8
@_ZTTSt14basic_ofstreamIcSt11char_traitsIcEE = external unnamed_addr constant [4 x ptr], align 8
@_ZTVSt9basic_iosIcSt11char_traitsIcEE = external unnamed_addr constant { [4 x ptr] }, align 8
@_ZTVSt13basic_filebufIcSt11char_traitsIcEE = external unnamed_addr constant { [16 x ptr] }, align 8
@_ZTVSt15basic_streambufIcSt11char_traitsIcEE = external unnamed_addr constant { [16 x ptr] }, align 8
@_ZTVSt14basic_ifstreamIcSt11char_traitsIcEE = external unnamed_addr constant { [5 x ptr], [5 x ptr] }, align 8
@_ZTTSt14basic_ifstreamIcSt11char_traitsIcEE = external unnamed_addr constant [4 x ptr], align 8
@0 = private unnamed_addr constant [36 x i8] c"_Z25cuda_initialize_variablesiPfPKf\00", align 1
@1 = private unnamed_addr constant [36 x i8] c"_Z24cuda_compute_step_factoriPfS_S_\00", align 1
@2 = private unnamed_addr constant [55 x i8] c"_Z17cuda_compute_fluxiPKiPKfS2_PfS2_PK6float3S6_S6_S6_\00", align 1
@3 = private unnamed_addr constant [29 x i8] c"_Z14cuda_time_stepiiPfS_S_S_\00", align 1
@4 = private constant [45368 x i8] c"P\EDU\BA\01\00\10\00(\B1\00\00\00\00\00\00\02\00\01\01@\00\00\00h\98\00\00\00\00\00\00\00\00\00\00\00\00\00\00\07\00\01\002\00\00\00\00\00\00\00\00\00\00\00\11\00\00\00\00\00\00\00\00\00\00\00\00\00\00\00\00\00\00\00\00\00\00\00\7FELF\02\01\013\07\00\00\00\00\00\00\00\02\00\BE\00y\00\00\00\00\00\00\00\00\00\00\00\C0\97\00\00\00\00\00\00\80\91\00\00\00\00\00\002\052\00@\008\00\03\00@\00\19\00\01\00\00.shstrtab\00.strtab\00.symtab\00.symtab_shndx\00.nv.uft.entry\00.nv.info\00.text._Z14cuda_time_stepiiPfS_S_S_\00.nv.info._Z14cuda_time_stepiiPfS_S_S_\00.nv.shared._Z14cuda_time_stepiiPfS_S_S_\00.nv.constant2._Z14cuda_time_stepiiPfS_S_S_\00.nv.constant0._Z14cuda_time_stepiiPfS_S_S_\00.text._Z17cuda_compute_fluxiPKiPKfS2_PfS2_PK6float3S6_S6_S6_\00.nv.info._Z17cuda_compute_fluxiPKiPKfS2_PfS2_PK6float3S6_S6_S6_\00.nv.shared._Z17cuda_compute_fluxiPKiPKfS2_PfS2_PK6float3S6_S6_S6_\00.nv.constant2._Z17cuda_compute_fluxiPKiPKfS2_PfS2_PK6float3S6_S6_S6_\00.nv.constant0._Z17cuda_compute_fluxiPKiPKfS2_PfS2_PK6float3S6_S6_S6_\00.text._Z24cuda_compute_step_factoriPfS_S_\00.nv.info._Z24cuda_compute_step_factoriPfS_S_\00.nv.shared._Z24cuda_compute_step_factoriPfS_S_\00.nv.constant2._Z24cuda_compute_step_factoriPfS_S_\00.nv.constant0._Z24cuda_compute_step_factoriPfS_S_\00.text._Z25cuda_initialize_variablesiPfPKf\00.nv.info._Z25cuda_initialize_variablesiPfPKf\00.nv.shared._Z25cuda_initialize_variablesiPfPKf\00.nv.constant0._Z25cuda_initialize_variablesiPfPKf\00.debug_line\00.rel.debug_line\00.nv_debug_line_sass\00.rel.nv_debug_line_sass\00.nv_debug_ptx_txt\00\00.shstrtab\00.strtab\00.symtab\00.symtab_shndx\00.nv.uft.entry\00.nv.info\00_Z14cuda_time_stepiiPfS_S_S_\00.text._Z14cuda_time_stepiiPfS_S_S_\00.nv.info._Z14cuda_time_stepiiPfS_S_S_\00.nv.shared._Z14cuda_time_stepiiPfS_S_S_\00.nv.constant2._Z14cuda_time_stepiiPfS_S_S_\00__ocg_const\00$_Z14cuda_time_stepiiPfS_S_S_$__cuda_sm3x_div_rn_noftz_f32_slowpath\00.nv.constant0._Z14cuda_time_stepiiPfS_S_S_\00_param\00_Z17cuda_compute_fluxiPKiPKfS2_PfS2_PK6float3S6_S6_S6_\00.text._Z17cuda_compute_fluxiPKiPKfS2_PfS2_PK6float3S6_S6_S6_\00.nv.info._Z17cuda_compute_fluxiPKiPKfS2_PfS2_PK6float3S6_S6_S6_\00.nv.shared._Z17cuda_compute_fluxiPKiPKfS2_PfS2_PK6float3S6_S6_S6_\00.nv.constant2._Z17cuda_compute_fluxiPKiPKfS2_PfS2_PK6float3S6_S6_S6_\00$_Z17cuda_compute_fluxiPKiPKfS2_PfS2_PK6float3S6_S6_S6_$__cuda_sm3x_div_rn_noftz_f32_slowpath\00.nv.constant0._Z17cuda_compute_fluxiPKiPKfS2_PfS2_PK6float3S6_S6_S6_\00_Z24cuda_compute_step_factoriPfS_S_\00.text._Z24cuda_compute_step_factoriPfS_S_\00.nv.info._Z24cuda_compute_step_factoriPfS_S_\00.nv.shared._Z24cuda_compute_step_factoriPfS_S_\00.nv.constant2._Z24cuda_compute_step_factoriPfS_S_\00$_Z24cuda_compute_step_factoriPfS_S_$__cuda_sm3x_div_rn_noftz_f32_slowpath\00.nv.constant0._Z24cuda_compute_step_factoriPfS_S_\00_Z25cuda_initialize_variablesiPfPKf\00.text._Z25cuda_initialize_variablesiPfPKf\00.nv.info._Z25cuda_initialize_variablesiPfPKf\00.nv.shared._Z25cuda_initialize_variablesiPfPKf\00.nv.constant0._Z25cuda_initialize_variablesiPfPKf\00.debug_line\00.rel.debug_line\00.nv_debug_line_sass\00.rel.nv_debug_line_sass\00.nv_debug_ptx_txt\00\00\00\00\00\00\00\00\00\00\00\00\00\00\00\00\00\00\00\00\00\00\00\00\00\00\00\00\00]\00\00\00\03\00\15\00\00\00\00\00\00\00\00\00\00\00\00\00\00\00\00\00\CE\00\00\00\03\00\0E\00\00\00\00\00\00\00\00\00\00\00\00\00\00\00\00\00\05\01\00\00\22\00\15\00\B8\03\00\00\00\00\00\00\88\04\00\00\00\00\00\00I\01\00\00\03\00\0F\00\00\00\00\00\00\00\00\00\00\00\00\00\00\00\00\00\B2\01\00\00\03\00\16\00\00\00\00\00\00\00\00\00\00\00\00\00\00\00\00\00q\02\00\00\03\00\10\00\00\00\00\00\00\00\00\00\00\00\00\00\00\00\00\00\B6\02\00\00\22\00\16\00\C0\10\00\00\00\00\00\00@\04\00\00\00\00\00\00\14\03\00\00\03\00\11\00\00\00\00\00\00\00\00\00\00\00\00\00\00\00\00\00}\03\00\00\03\00\17\00\00\00\00\00\00\00\00\00\00\00\00\00\00\00\00\00\03\04\00\00\03\00\12\00\00\00\00\00\00\00\00\00\00\00\00\00\00\00\00\005\04\00\00\22\00\17\00\98\05\00\00\00\00\00\00h\04\00\00\00\00\00\00\80\04\00\00\03\00\13\00\00\00\00\00\00\00\00\00\00\00\00\00\00\00\00\00\D6\04\00\00\03\00\18\00\00\00\00\00\00\00\00\00\00\00\00\00\00\00\00\00\\\05\00\00\03\00\14\00\00\00\00\00\00\00\00\00\00\00\00\00\00\00\00\00\8E\05\00\00\03\00\04\00\00\00\00\00\00\00\00\00\00\00\00\00\00\00\00\00\AA\05\00\00\03\00\05\00\00\00\00\00\00\00\00\00\00\00\00\00\00\00\00\00\D6\05\00\00\03\00\06\00\00\00\00\00\00\00\00\00\00\00\00\00\00\00\00\00@\00\00\00\12\10\15\00\00\00\00\00\00\00\00\00@\08\00\00\00\00\00\00{\01\00\00\12\10\16\00\00\00\00\00\00\00\00\00\00\15\00\00\00\00\00\00Y\03\00\00\12\10\17\00\00\00\00\00\00\00\00\00\00\0A\00\00\00\00\00\00\B2\04\00\00\12\10\18\00\00\00\00\00\00\00\00\00\C0\01\00\00\00\00\00\00\C9\05\00\00\02\00\DD\00\00\00\01\01\FB\0E\0A\00\01\01\01\01\00\00\00\01/nethome/cahn45/CuPBoP/examples/cfd/.\00/nethome/cahn45/llvm-vortex-with-cuda-build/lib/clang/18/include\00\00euler3d_no_memcpytosymbol.cu\00\01\D2\A8\F7\C5\06\E9\B8\01__clang_cuda_builtin_vars.h\00\02\B2\C8\D9\B9\06\9C&__clang_cuda_math.h\00\02\B2\C8\D9\B9\06\F2\7F\00\00\09\02\00\00\00\00\00\00\00\00\04\01\03\AB\03\01\04\02\03\96}\02\10\01\03s\02\08\01\04\01\03\F8\02\02\10\01\81}\03\02\02\18\01\03\02\02\C8\01\01\03\01\02\18\01~\F0\F1\EC\82|\F2\03\01\02(\01\03|\02\18\01\F2\F0\81\03|\02 \01\03\05\02\18\01\03|\02 \01~\83\F0\ED\F3{\83\03\01\02 \01\03|\02\18\01~\F3\80\81\EB\83{\F3\03\01\02 \01\EB\EE\83\80\ED\F0\EE\82\02\90\09\00\01\01\00\09\02\00\00\00\00\00\00\00\00\04\01\03\E8\01\01\03\0B\02\10\01\04\02\03\CE~\02\08\01\04\01\03\B6\01\02\18\01\04\02\03\BD~\02\08\01\04\01\03\B6\01\02\10\01\03\07\02 \01\03\02\02(\01\03\01\02(\01\EE\81~\F0~\80\EE\82}\F1}\81\03z\02 \01\F5|\80\F1\03\B5\7F\02\10\01\03\01\02\A0\01\01\03\01\02\A0\01\01\03\04\02\98\01\01\03\0C\02\08\01\03t\02\10\01\03\0C\02\08\01\03t\02\08\01\F6\04\03\03\80\01\02\08\01\04\01\03\80\7F\02\18\01~\04\03\03\81\01\02\08\01\04\01\03\85\7F\02\10\01\04\03\03\FB\00\02\08\01\04\01\03\85\7F\02\08\01\04\03\03\FB\00\02\18\01\04\01\03\85\7F\02\08\01\04\03\03\FB\00\02 \01\04\01\03\85\7F\02\10\01\04\03\03\FB\00\02\C0\00\01\04\01\03\EB~\02\08\01\03t\02\08\01\F0\80\82\F0\86\80\F0\03\CC\00\02\08\01\03\AF\7F\02\08\01\03\F6\00\02\10\01\04\03\03!\02\08\01\04\01\03_\02\08\01\04\03\03!\02\10\01\04\01\03_\02\08\01\03[\02(\01\04\03\03\C6\00\02\10\01\04\01\03_\02\10\01\03\01\01\F7z|\03\03\02\18\01\80\EB\81}\F2\80}\F0~\80\F0~\80\03{\02\18\01\03\09\02 \01\03w\02\18\01\03\0B\01\04\03\03\16\02\08\01\04\01\03k\02\08\01\EE\F0\F0~\80\EE\80~\F1~\80\EE\80\80\EE\80~\F0\03x\02(\01\04\03\03\1A\02(\01\04\01\03\F3~\02\C0\00\01\03\01\02\98\01\01\03\01\02\98\01\01\03\04\02\88\01\01\03\0C\02\08\01\EA\84\03t\02\08\01\03\07\02\18\01\84\03z\02\10\01\85\04\03\03\FB\00\02\E8\00\01\04\01\03z\02\18\01\82\03\EE~\02\10\01\03\93\01\02\08\01\03\11\02\08\01\04\03\03q\02\10\01\04\01\03z\02\08\01\04\03\85\04\01\03\04\020\01\04\03{\04\01\03{\02 \01\84\EA\04\03\84\04\01z\F3z\03\E5~\02\08\01\03\A6\01\02\10\01\03x\02\08\01\83\EE~\03\09\02\08\01\03v\02\10\01\87z\03\09\02\10\01\81{\03\14\02\10\01\03j\02\08\01\03\DE~\02\08\01\03\A6\01\02\10\01\03\DF~\02\08\01\03\AA\01\02\08\01\03r\02\10\01\03\0B\02\08\01\80\EA\03\09\02\08\01\81\F2\03v\02\08\01\03\0B\02\08\01\03v\02\10\01\83\81\03\0B\02\10\01{|\F0\83\81\03F\02\18\01\03=\01\03\02\02(\01\F0\80\80\03\06\02 \01\ED\81\03\0D\02\08\01\03v\02\10\01\03\19\02\08\01\03g\02\08\01\EC\85\03\09\02\08\01\03w\02\10\01|\85\03\09\02\10\01\03w\02\08\01|\03w\02\18\01\03\18\02\08\01\F5\03n\02\08\01\03\0F\02\08\01\F5\82\82\F2\03e\02\08\01\03r\02\18\01\81\82\F2\82\03u\02\08\01\F0\82\82\F7z\86\F2\82\03\03\02\18\01\03u\02\08\01\03\0F\02\08\01\03r\02\10\01\82\82\F2\86\82\F2\82\03u\02\08\01\F0\82\82\F2\03L\02\10\01\03\BD\7F\01\03\F7\00\02\18\01\03\06\01\80\EE\81}\F1\80\03~\02\18\01\F2\EC\82}\F0\80\80\02\C8\08\00\01\01\00\09\02\00\00\00\00\00\00\00\00\04\01\03\C2\01\01\04\02\03\FF~\02\18\01\04\01\03\86\01\02\10\01\03e\02\08\01\04\02\03\88\7F\02\08\01\04\01\03\8F\01\02\10\01\03\02\02 \01\03\02\02\C0\00\01\F0\EE\80~\F1~\80\EE\82}\F1}\81\ED\81\03a\02 \01\03\01\02\98\01\01\03\01\02\90\01\01\03\04\02\90\01\01\03\0C\02\08\01\03t\02\08\01\03\0C\02\10\01z\03y\02\08\01\03\0C\02\10\01z\84\03z\02\10\01\85\03\16\02\E0\00\01\04\03\03\E5\00\028\01\04\01\03\9B\7F\02\D0\00\01\04\03\03\E5\00\02\10\01\04\01\03\9B\7F\02\10\01\04\03\03\E5\00\02\10\01\04\01\03\9B\7F\020\01\03\7F\02\98\01\01\03\02\02 \01\02\F0\08\00\01\01\00\09\02\00\00\00\00\00\00\00\00\04\01\03\8A\01\01\F2\04\02\03\B4\7F\02\08\01\04\01\03\CC\00\02\10\01\04\02\03\A7\7F\02\08\01\04\01\03\D9\00\02\18\01}\03\02\02 \01\03\01\02\A8\02\01\02(\00\01\01\9C\05\00\00\02\00\10\00\00\00\01\01\FB\0E\0A\00\01\01\01\01\00\00\00\01\00\00\00\09\02\00\00\00\00\00\00\00\00\04\00\03\DC\05\01\02\08\03\18\02\08\01\82\F2\03\0B\02\08\01\03u\02\08\01\03\02\02\18\01\03\01\02\18\01\F0\F2\F1\F1\03\02\02\F0\00\01\03\03\02\18\01}\F1\80\87\EB\83{\F5\F0\03\03\02\18\01\03t\02\18\01\83\85\F2\03\0A\02\08\01\80\03y\02\18\01\03\0A\02\18\01\03t\02 \01\83\85\F2\F3\F5\03z\02\08\01\85\F0\F2\03t\02\18\01\83\F5\82\87\EB\85\03z\02\08\01\F5\80\03\03\02\18\01\03t\02\10\01\F3\85\82\F3\ED\F3\81\02\90\09\00\01\01\00\09\02\00\00\00\00\00\00\00\00\04\00\03\E0\01\01\02\08\032\02\08\01\03p\02\08\01\03$\02\18\01\03_\02\08\01\F2\03\03\02 \01\80\03\01\02\18\01\85~\03\01\02\18\01\85\EA\03\09\02\08\01|\F5\03z\02\08\01\86\03z\02\10\01\03\09\02\08\01|\F5z\85\03\01\02\18\01\03a\02\08\01\03\1F\02\10\01\03o\02\08\01\86\F6\F5\03\02\02\A0\01\01\03\02\02\A0\01\01\03\03\02\98\01\01\03\13\02\08\01\03o\02\10\01\03\11\02\08\01\03q\02\08\01\F5|\03\05\02\18\01\81\03y\02\08\01\03\0C\02\10\01\03t\02\08\01\03\0A\02\08\01\F1\03t\02\08\01\03\0C\02\08\01\03t\02 \01\03\0C\02\10\01\03\03\02\C0\00\01\03\0F\02\08\01\03t\02\08\01\F1\81\81\F1\85\81\F1\03\B3\7F\02\08\01\03\C5\00\02\08\01\03\13\02\10\01\03`\02\08\01\03 \02\08\01\03`\02\10\01\03 \02\08\01\03\A8\7F\02(\01\038\02\10\01\03\D9\01\02\10\01\03\04\01\03\12\02\10\01\03v\02\08\01\03x\02\08\01\F0\86\84\03t\02\10\01\83|\F6\84\03w\02\08\01\F4{\83\F4{\83\F0\03g\02\08\01\81\03\19\02\18\01\82\03\AE~\02\10\01\03\0F\01{\86\EC\80\83\F3|\84\EA\85z\F7|\84\EB\84\82\EC\84{\F4\F0\03\\\02\18\01\81\03\02\02\18\01\82\03 \02\C0\00\01\03\02\02\98\01\01\03\02\02\98\01\01\03\03\02\88\01\01\03\11\02\08\01\03v\02\10\01\03\0A\02\08\01\03q\02\08\01\F1\85\86\EA\84}\F1\03\14\02\D0\00\01\03{\02\18\01\03\10\02\08\01\03m\02\10\01\03\17\02\08\01\03&\02\08\01\03\BA\7F\02\10\01\03\0E\02\08\01\82\03o\02\18\01\03\11\02\08\01\03\1F\02\10\01\03P\02\08\01\03\11\02\08\01\03o\02\10\01\03\14\02\08\01\03\14\02\08\01\03n\02\10\01\03j\02\08\01\03\18\02\08\01\03\0C\02\10\01\03v\02\08\01\03i\02\08\01\03/\02\10\01\03l\02\08\01\03\0E\02\08\01\ED{\03\14\02\08\01\03h\02\10\01\03\14\02\08\01\03x\02\08\01\03\10\02\10\01\83\03z\02\08\01\03$\02\10\01\03X\02\08\01\03M\02\08\01\03;\02\10\01\03G\02\08\01\03\C9\00\02\08\01\03d\02\10\01\03\14\02\08\01\83\03x\02\10\01\03\0E\02\08\01\83\F3\03p\02\08\01\03\12\02\08\01\03r\02\10\01\85\83\03\10\02\10\01{\03z\02\08\01\F3\83\83\03#\02\18\01\03\04\01\80\F2\80\83\F1\81\81\03\0C\02 \01\03z\02\10\01\85\03\1A\02\08\01\03l\02\10\01\034\02\08\01\03L\02\08\01\03z\02\10\01\03\0C\02\08\01\03\14\02\08\01\03l\02\10\01\03z\02\08\01\03\0C\02\08\01\03\14\02\10\01\03l\02\08\01\03z\02\08\01\03l\02\18\01\034\02\08\01\03\0C\02\10\01\03Z\02\08\01\03 \02\08\01\03\0E\02\10\01\85\85\F5\03F\02\08\01\03d\02\18\01\85\85\F5\85\03j\02\08\01\F5\85\85\03\0C\02\10\01\03z\02\08\01\03\0C\02\08\01\F5\85\03\06\02\18\01\03j\02\08\01\03\1E\02\08\01\03h\02\10\01\85\85\F5\03\0C\02\08\01\85\F5\85\03j\02\08\01\F5\85\85\F5\03\E8~\02\10\01\03\05\01\F2\03\91\01\02\08\01\03\04\01\84\EA\03\0A\02\08\01\03x\02\08\01\F7\84\03v\02\18\01\03\0F\02\10\01\03s\02\10\01\03\0D\02\08\01\03x\02\08\01\F4\84\81\02\C8\08\00\01\01\00\09\02\00\00\00\00\00\00\00\00\04\00\03\E1\00\01\02\08\03\15\02\10\01\03\0E\02\10\01\03\17\02\08\01\03^\02\08\01\F2\03\02\02 \01\F0\03\01\02\18\01\03\05\02\18\01~\85\EA\85z\F7|\84\EB\87|\F4z\85\EA\84\80\03\03\02\18\01\03\02\02\98\01\01\03\02\02\90\01\01\03\03\02\90\01\01\03\11\02\08\01\03q\02\08\01\03\0F\02\10\01\03v\02\08\01|\03\0D\02\10\01\03y\02\08\01\86\EA\82\81\03\06\02\D8\00\01\03\0F\02\08\01\03q\02\10\01\80\03\06\02\18\01\03v\02\08\01\03\0A\02\08\01\03v\02\18\01\03\0A\02\18\01\03v\02\08\01\03\12\02\08\01\03x\02\10\01\03v\02\08\01\03\0D\02\08\01\03z\02\10\01\03\08\020\01\F2\03\02\02\88\01\01\03\02\02\18\01\81\02\F0\08\00\01\01\00\09\02\00\00\00\00\00\00\00\00\04\00\03\0F\01\02\08\03\1B\02\08\01\03x\02\08\01\F7z\03\05\02\18\01}\03\04\02 \01\80\03\02\02\18\01\81\F3\F0\03\02\02\18\01\81\03\04\02\18\01\80\03\02\02\18\01\81\F1\81\80\03\02\02\18\01\81\F1\81\80\03\02\02\18\01\81\02(\00\01\01\00\00\00\00.version 8.1\00.target sm_50\00.address_size 64\00\00\00\00.visible .entry _Z25cuda_initialize_variablesiPfPKf(\00.param .u32 _Z25cuda_initialize_variablesiPfPKf_param_0,\00.param .u64 _Z25cuda_initialize_variablesiPfPKf_param_1,\00.param .u64 _Z25cuda_initialize_variablesiPfPKf_param_2\00)\00{\00.reg .b32 \09%r<10>;\00.reg .f32 \09%f<6>;\00.reg .b64 \09%rd<15>;\00\00$L__func_begin0:\00\00\00\00ld.param.u32 \09%r1, [_Z25cuda_initialize_variablesiPfPKf_param_0];\00ld.param.u64 \09%rd1, [_Z25cuda_initialize_variablesiPfPKf_param_2];\00cvta.to.global.u64 \09%rd2, %rd1;\00ld.param.u64 \09%rd3, [_Z25cuda_initialize_variablesiPfPKf_param_1];\00cvta.to.global.u64 \09%rd4, %rd3;\00$L__tmp0:\00\00mov.u32 \09%r2, %ntid.x;\00$L__tmp1:\00\00mov.u32 \09%r3, %ctaid.x;\00$L__tmp2:\00\00mov.u32 \09%r4, %tid.x;\00$L__tmp3:\00\00mad.lo.s32 \09%r5, %r2, %r3, %r4;\00\00ld.global.f32 \09%f1, [%rd2];\00\00mul.wide.s32 \09%rd5, %r5, 4;\00add.s64 \09%rd6, %rd4, %rd5;\00\00st.global.f32 \09[%rd6], %f1;\00\00ld.global.f32 \09%f2, [%rd2+4];\00\00add.s32 \09%r6, %r5, %r1;\00\00mul.wide.s32 \09%rd7, %r1, 4;\00add.s64 \09%rd8, %rd6, %rd7;\00\00st.global.f32 \09[%rd8], %f2;\00\00ld.global.f32 \09%f3, [%rd2+8];\00\00add.s32 \09%r7, %r6, %r1;\00\00mul.wide.s32 \09%rd9, %r7, 4;\00add.s64 \09%rd10, %rd4, %rd9;\00\00st.global.f32 \09[%rd10], %f3;\00\00ld.global.f32 \09%f4, [%rd2+12];\00\00add.s32 \09%r8, %r7, %r1;\00\00mul.wide.s32 \09%rd11, %r8, 4;\00add.s64 \09%rd12, %rd4, %rd11;\00\00st.global.f32 \09[%rd12], %f4;\00\00ld.global.f32 \09%f5, [%rd2+16];\00\00add.s32 \09%r9, %r8, %r1;\00\00mul.wide.s32 \09%rd13, %r9, 4;\00add.s64 \09%rd14, %rd4, %rd13;\00\00st.global.f32 \09[%rd14], %f5;\00\00ret;\00$L__tmp4:\00$L__func_end0:\00\00}\00\00.visible .entry _Z24cuda_compute_step_factoriPfS_S_(\00.param .u32 _Z24cuda_compute_step_factoriPfS_S__param_0,\00.param .u64 _Z24cuda_compute_step_factoriPfS_S__param_1,\00.param .u64 _Z24cuda_compute_step_factoriPfS_S__param_2,\00.param .u64 _Z24cuda_compute_step_factoriPfS_S__param_3\00)                                       // @_Z24cuda_compute_step_factoriPfS_S_\00{\00.reg .b32 \09%r<10>;\00.reg .f32 \09%f<26>;\00.reg .b64 \09%rd<19>;\00\00$L__func_begin1:\00\00\00\00ld.param.u32 \09%r1, [_Z24cuda_compute_step_factoriPfS_S__param_0];\00ld.param.u64 \09%rd1, [_Z24cuda_compute_step_factoriPfS_S__param_3];\00cvta.to.global.u64 \09%rd2, %rd1;\00ld.param.u64 \09%rd3, [_Z24cuda_compute_step_factoriPfS_S__param_1];\00ld.param.u64 \09%rd4, [_Z24cuda_compute_step_factoriPfS_S__param_2];\00cvta.to.global.u64 \09%rd5, %rd4;\00cvta.to.global.u64 \09%rd6, %rd3;\00$L__tmp5:\00\00mov.u32 \09%r2, %ntid.x;\00$L__tmp6:\00\00mov.u32 \09%r3, %ctaid.x;\00$L__tmp7:\00\00mov.u32 \09%r4, %tid.x;\00$L__tmp8:\00\00mad.lo.s32 \09%r5, %r2, %r3, %r4;\00\00mul.wide.s32 \09%rd7, %r5, 4;\00add.s64 \09%rd8, %rd6, %rd7;\00ld.global.f32 \09%f1, [%rd8];\00\00add.s32 \09%r6, %r5, %r1;\00\00mul.wide.s32 \09%rd9, %r1, 4;\00add.s64 \09%rd10, %rd8, %rd9;\00ld.global.f32 \09%f2, [%rd10];\00\00add.s32 \09%r7, %r6, %r1;\00\00mul.wide.s32 \09%rd11, %r7, 4;\00add.s64 \09%rd12, %rd6, %rd11;\00ld.global.f32 \09%f3, [%rd12];\00\00add.s32 \09%r8, %r7, %r1;\00\00mul.wide.s32 \09%rd13, %r8, 4;\00add.s64 \09%rd14, %rd6, %rd13;\00ld.global.f32 \09%f4, [%rd14];\00\00add.s32 \09%r9, %r8, %r1;\00\00mul.wide.s32 \09%rd15, %r9, 4;\00add.s64 \09%rd16, %rd6, %rd15;\00ld.global.f32 \09%f5, [%rd16];\00$L__tmp9:\00\00div.rn.f32 \09%f6, %f2, %f1;\00\00div.rn.f32 \09%f7, %f3, %f1;\00\00div.rn.f32 \09%f8, %f4, %f1;\00$L__tmp10:\00\00mul.rn.f32 \09%f9, %f7, %f7;\00\00fma.rn.f32 \09%f10, %f6, %f6, %f9;\00\00fma.rn.f32 \09%f11, %f8, %f8, %f10;\00$L__tmp11:\00\00mul.rn.f32 \09%f12, %f1, 0f3F000000;\00\00neg.f32 \09%f13, %f12;\00fma.rn.f32 \09%f14, %f13, %f11, %f5;\00\00mul.rn.f32 \09%f15, %f14, 0f3ECCCCCC;\00$L__tmp12:\00\00mul.rn.f32 \09%f16, %f15, 0f3FB33333;\00\00div.rn.f32 \09%f17, %f16, %f1;\00$L__tmp13:\00\00sqrt.approx.f32 \09%f18, %f17;\00$L__tmp14:\00\00add.s64 \09%rd17, %rd5, %rd7;\00ld.global.f32 \09%f19, [%rd17];\00$L__tmp15:\00\00sqrt.approx.f32 \09%f20, %f19;\00$L__tmp16:\00\00sqrt.approx.f32 \09%f21, %f11;\00$L__tmp17:\00\00add.rn.f32 \09%f22, %f18, %f21;\00\00mul.rn.f32 \09%f23, %f20, %f22;\00mov.f32 \09%f24, 0f3F000000;\00\00div.rn.f32 \09%f25, %f24, %f23;\00\00add.s64 \09%rd18, %rd2, %rd7;\00\00st.global.f32 \09[%rd18], %f25;\00\00ret;\00$L__tmp18:\00$L__func_end1:\00\00}\00\00.visible .entry _Z17cuda_compute_fluxiPKiPKfS2_PfS2_PK6float3S6_S6_S6_(\00.param .u32 _Z17cuda_compute_fluxiPKiPKfS2_PfS2_PK6float3S6_S6_S6__param_0,\00.param .u64 _Z17cuda_compute_fluxiPKiPKfS2_PfS2_PK6float3S6_S6_S6__param_1,\00.param .u64 _Z17cuda_compute_fluxiPKiPKfS2_PfS2_PK6float3S6_S6_S6__param_2,\00.param .u64 _Z17cuda_compute_fluxiPKiPKfS2_PfS2_PK6float3S6_S6_S6__param_3,\00.param .u64 _Z17cuda_compute_fluxiPKiPKfS2_PfS2_PK6float3S6_S6_S6__param_4,\00.param .u64 _Z17cuda_compute_fluxiPKiPKfS2_PfS2_PK6float3S6_S6_S6__param_5,\00.param .u64 _Z17cuda_compute_fluxiPKiPKfS2_PfS2_PK6float3S6_S6_S6__param_6,\00.param .u64 _Z17cuda_compute_fluxiPKiPKfS2_PfS2_PK6float3S6_S6_S6__param_7,\00.param .u64 _Z17cuda_compute_fluxiPKiPKfS2_PfS2_PK6float3S6_S6_S6__param_8,\00.param .u64 _Z17cuda_compute_fluxiPKiPKfS2_PfS2_PK6float3S6_S6_S6__param_9\00)                                       // @_Z17cuda_compute_fluxiPKiPKfS2_PfS2_PK6float3S6_S6_S6_\00{\00.reg .pred \09%p<5>;\00.reg .b32 \09%r<29>;\00.reg .f32 \09%f<177>;\00.reg .b64 \09%rd<62>;\00\00$L__func_begin2:\00\00\00\00ld.param.u32 \09%r8, [_Z17cuda_compute_fluxiPKiPKfS2_PfS2_PK6float3S6_S6_S6__param_0];\00ld.param.u64 \09%rd16, [_Z17cuda_compute_fluxiPKiPKfS2_PfS2_PK6float3S6_S6_S6__param_9];\00cvta.to.global.u64 \09%rd1, %rd16;\00ld.param.u64 \09%rd17, [_Z17cuda_compute_fluxiPKiPKfS2_PfS2_PK6float3S6_S6_S6__param_1];\00ld.param.u64 \09%rd18, [_Z17cuda_compute_fluxiPKiPKfS2_PfS2_PK6float3S6_S6_S6__param_8];\00cvta.to.global.u64 \09%rd2, %rd18;\00ld.param.u64 \09%rd19, [_Z17cuda_compute_fluxiPKiPKfS2_PfS2_PK6float3S6_S6_S6__param_2];\00ld.param.u64 \09%rd20, [_Z17cuda_compute_fluxiPKiPKfS2_PfS2_PK6float3S6_S6_S6__param_7];\00cvta.to.global.u64 \09%rd3, %rd20;\00ld.param.u64 \09%rd21, [_Z17cuda_compute_fluxiPKiPKfS2_PfS2_PK6float3S6_S6_S6__param_3];\00ld.param.u64 \09%rd22, [_Z17cuda_compute_fluxiPKiPKfS2_PfS2_PK6float3S6_S6_S6__param_6];\00cvta.to.global.u64 \09%rd4, %rd22;\00ld.param.u64 \09%rd23, [_Z17cuda_compute_fluxiPKiPKfS2_PfS2_PK6float3S6_S6_S6__param_4];\00ld.param.u64 \09%rd24, [_Z17cuda_compute_fluxiPKiPKfS2_PfS2_PK6float3S6_S6_S6__param_5];\00cvta.to.global.u64 \09%rd5, %rd24;\00cvta.to.global.u64 \09%rd6, %rd23;\00cvta.to.global.u64 \09%rd7, %rd21;\00cvta.to.global.u64 \09%rd8, %rd19;\00cvta.to.global.u64 \09%rd9, %rd17;\00$L__tmp19:\00\00mov.u32 \09%r10, %ntid.x;\00$L__tmp20:\00\00mov.u32 \09%r11, %ctaid.x;\00$L__tmp21:\00\00mov.u32 \09%r12, %tid.x;\00$L__tmp22:\00\00mad.lo.s32 \09%r27, %r10, %r11, %r12;\00\00cvt.s64.s32 \09%rd10, %r27;\00mul.wide.s32 \09%rd25, %r27, 4;\00add.s64 \09%rd26, %rd7, %rd25;\00ld.global.f32 \09%f1, [%rd26];\00\00add.s32 \09%r13, %r27, %r8;\00\00cvt.s64.s32 \09%rd11, %r8;\00mul.wide.s32 \09%rd27, %r8, 4;\00add.s64 \09%rd28, %rd26, %rd27;\00ld.global.f32 \09%f2, [%rd28];\00\00add.s32 \09%r14, %r13, %r8;\00\00cvt.s64.s32 \09%rd12, %r14;\00mul.wide.s32 \09%rd29, %r14, 4;\00add.s64 \09%rd30, %rd7, %rd29;\00ld.global.f32 \09%f3, [%rd30];\00\00add.s32 \09%r15, %r14, %r8;\00\00cvt.s64.s32 \09%rd13, %r15;\00mul.wide.s32 \09%rd31, %r15, 4;\00add.s64 \09%rd32, %rd7, %rd31;\00ld.global.f32 \09%f4, [%rd32];\00\00add.s32 \09%r16, %r15, %r8;\00\00cvt.s64.s32 \09%rd14, %r16;\00mul.wide.s32 \09%rd33, %r16, 4;\00add.s64 \09%rd34, %rd7, %rd33;\00ld.global.f32 \09%f5, [%rd34];\00$L__tmp23:\00\00div.rn.f32 \09%f45, %f2, %f1;\00\00div.rn.f32 \09%f46, %f3, %f1;\00\00div.rn.f32 \09%f47, %f4, %f1;\00$L__tmp24:\00\00mul.rn.f32 \09%f48, %f46, %f46;\00\00fma.rn.f32 \09%f49, %f45, %f45, %f48;\00\00fma.rn.f32 \09%f50, %f47, %f47, %f49;\00$L__tmp25:\00\00sqrt.approx.f32 \09%f6, %f50;\00$L__tmp26:\00\00mul.rn.f32 \09%f51, %f1, 0fBF000000;\00\00fma.rn.f32 \09%f52, %f51, %f50, %f5;\00\00mul.rn.f32 \09%f7, %f52, 0f3ECCCCCC;\00$L__tmp27:\00\00mul.rn.f32 \09%f53, %f7, 0f3FB33333;\00\00div.rn.f32 \09%f54, %f53, %f1;\00$L__tmp28:\00\00sqrt.approx.f32 \09%f8, %f54;\00$L__tmp29:\00\00fma.rn.f32 \09%f9, %f2, %f45, %f7;\00\00mul.rn.f32 \09%f10, %f45, %f3;\00\00mul.rn.f32 \09%f11, %f45, %f4;\00\00fma.rn.f32 \09%f12, %f3, %f46, %f7;\00\00mul.rn.f32 \09%f13, %f46, %f4;\00\00fma.rn.f32 \09%f14, %f4, %f47, %f7;\00\00fma.rn.f32 \09%f55, %f52, 0f3ECCCCCC, %f5;\00\00mul.rn.f32 \09%f15, %f45, %f55;\00\00mul.rn.f32 \09%f16, %f46, %f55;\00\00mul.rn.f32 \09%f17, %f47, %f55;\00$L__tmp30:\00\00shl.b32 \09%r2, %r8, 2;\00shl.b32 \09%r3, %r8, 3;\00mov.f32 \09%f176, 0f00000000;\00mov.b32 \09%r28, 4;\00mov.f32 \09%f175, %f176;\00mov.f32 \09%f174, %f176;\00mov.f32 \09%f173, %f176;\00mov.f32 \09%f172, %f176;\00bra.uni \09$L__BB2_1;\00$L__BB2_2:                              // %if.then\00\00\00mul.rn.f32 \09%f99, %f24, %f24;\00\00fma.rn.f32 \09%f100, %f23, %f23, %f99;\00\00fma.rn.f32 \09%f101, %f25, %f25, %f100;\00$L__tmp31:\00\00sqrt.approx.f32 \09%f102, %f101;\00$L__tmp32:\00\00shl.b64 \09%rd42, %rd15, 2;\00add.s64 \09%rd43, %rd7, %rd42;\00ld.global.f32 \09%f103, [%rd43];\00\00add.s32 \09%r22, %r26, %r8;\00\00mul.wide.s32 \09%rd44, %r22, 4;\00add.s64 \09%rd45, %rd7, %rd44;\00ld.global.f32 \09%f104, [%rd45];\00\00add.s32 \09%r23, %r22, %r8;\00\00mul.wide.s32 \09%rd46, %r23, 4;\00add.s64 \09%rd47, %rd7, %rd46;\00ld.global.f32 \09%f105, [%rd47];\00\00add.s32 \09%r24, %r23, %r8;\00\00mul.wide.s32 \09%rd48, %r24, 4;\00add.s64 \09%rd49, %rd7, %rd48;\00ld.global.f32 \09%f106, [%rd49];\00\00add.s32 \09%r25, %r24, %r8;\00\00mul.wide.s32 \09%rd50, %r25, 4;\00add.s64 \09%rd51, %rd7, %rd50;\00ld.global.f32 \09%f107, [%rd51];\00$L__tmp33:\00\00div.rn.f32 \09%f108, %f104, %f103;\00\00div.rn.f32 \09%f109, %f105, %f103;\00\00div.rn.f32 \09%f110, %f106, %f103;\00$L__tmp34:\00\00mul.rn.f32 \09%f111, %f109, %f109;\00\00fma.rn.f32 \09%f112, %f108, %f108, %f111;\00\00fma.rn.f32 \09%f113, %f110, %f110, %f112;\00$L__tmp35:\00\00mul.rn.f32 \09%f114, %f103, 0f3F000000;\00\00neg.f32 \09%f115, %f114;\00fma.rn.f32 \09%f116, %f115, %f113, %f107;\00\00mul.rn.f32 \09%f117, %f116, 0f3ECCCCCC;\00$L__tmp36:\00\00mul.rn.f32 \09%f118, %f117, 0f3FB33333;\00\00div.rn.f32 \09%f119, %f118, %f103;\00$L__tmp37:\00\00sqrt.approx.f32 \09%f120, %f119;\00$L__tmp38:\00\00fma.rn.f32 \09%f121, %f104, %f108, %f117;\00\00fma.rn.f32 \09%f122, %f105, %f109, %f117;\00\00fma.rn.f32 \09%f123, %f106, %f110, %f117;\00\00fma.rn.f32 \09%f124, %f116, 0f3ECCCCCC, %f107;\00$L__tmp39:\00\00mul.rn.f32 \09%f125, %f102, 0fBE4CCCCD;\00\00mul.rn.f32 \09%f126, %f125, 0f3F000000;\00$L__tmp40:\00\00sqrt.approx.f32 \09%f127, %f113;\00$L__tmp41:\00\00add.rn.f32 \09%f128, %f6, %f127;\00\00add.rn.f32 \09%f129, %f8, %f128;\00\00add.rn.f32 \09%f130, %f120, %f129;\00\00mul.rn.f32 \09%f131, %f126, %f130;\00\00sub.rn.f32 \09%f132, %f1, %f103;\00\00fma.rn.f32 \09%f133, %f132, %f131, %f172;\00\00sub.rn.f32 \09%f134, %f5, %f107;\00\00fma.rn.f32 \09%f135, %f134, %f131, %f176;\00\00sub.rn.f32 \09%f136, %f2, %f104;\00\00fma.rn.f32 \09%f137, %f136, %f131, %f175;\00\00sub.rn.f32 \09%f138, %f3, %f105;\00\00fma.rn.f32 \09%f139, %f138, %f131, %f174;\00\00sub.rn.f32 \09%f140, %f4, %f106;\00\00fma.rn.f32 \09%f141, %f140, %f131, %f173;\00\00mul.rn.f32 \09%f142, %f23, 0f3F000000;\00\00add.rn.f32 \09%f143, %f2, %f104;\00\00fma.rn.f32 \09%f144, %f142, %f143, %f133;\00\00fma.rn.f32 \09%f145, %f108, %f124, %f15;\00\00fma.rn.f32 \09%f146, %f142, %f145, %f135;\00\00add.rn.f32 \09%f147, %f9, %f121;\00\00fma.rn.f32 \09%f148, %f142, %f147, %f137;\00\00fma.rn.f32 \09%f149, %f108, %f105, %f10;\00\00fma.rn.f32 \09%f150, %f142, %f149, %f139;\00\00fma.rn.f32 \09%f151, %f108, %f106, %f11;\00\00fma.rn.f32 \09%f152, %f142, %f151, %f141;\00\00mul.rn.f32 \09%f153, %f24, 0f3F000000;\00\00add.rn.f32 \09%f154, %f3, %f105;\00\00fma.rn.f32 \09%f155, %f153, %f154, %f144;\00\00fma.rn.f32 \09%f156, %f109, %f124, %f16;\00\00fma.rn.f32 \09%f157, %f153, %f156, %f146;\00\00fma.rn.f32 \09%f158, %f153, %f149, %f148;\00\00add.rn.f32 \09%f159, %f12, %f122;\00\00fma.rn.f32 \09%f160, %f153, %f159, %f150;\00\00fma.rn.f32 \09%f161, %f109, %f106, %f13;\00\00fma.rn.f32 \09%f162, %f153, %f161, %f152;\00\00mul.rn.f32 \09%f163, %f25, 0f3F000000;\00\00add.rn.f32 \09%f164, %f4, %f106;\00\00fma.rn.f32 \09%f172, %f163, %f164, %f155;\00\00fma.rn.f32 \09%f165, %f110, %f124, %f17;\00\00fma.rn.f32 \09%f176, %f163, %f165, %f157;\00\00fma.rn.f32 \09%f175, %f163, %f151, %f158;\00\00fma.rn.f32 \09%f174, %f163, %f161, %f160;\00\00add.rn.f32 \09%f166, %f14, %f123;\00\00fma.rn.f32 \09%f173, %f163, %f166, %f162;\00$L__BB2_7:                              // %for.inc\00\00\00add.s32 \09%r28, %r28, -1;\00add.s32 \09%r27, %r27, %r8;\00setp.ne.s32 \09%p4, %r28, 0;\00\00@%p4 bra \09$L__BB2_1;\00bra.uni \09$L__BB2_8;\00$L__BB2_1:                              // %for.body\00\00\00mul.wide.s32 \09%rd35, %r27, 4;\00add.s64 \09%rd36, %rd9, %rd35;\00ld.global.u32 \09%r17, [%rd36];\00cvt.u64.u32 \09%rd15, %r17;\00\00add.s64 \09%rd37, %rd8, %rd35;\00ld.global.f32 \09%f23, [%rd37];\00\00add.s32 \09%r18, %r2, %r27;\00mul.wide.s32 \09%rd38, %r18, 4;\00add.s64 \09%rd39, %rd8, %rd38;\00ld.global.f32 \09%f24, [%rd39];\00\00add.s32 \09%r19, %r3, %r27;\00mul.wide.s32 \09%rd40, %r19, 4;\00add.s64 \09%rd41, %rd8, %rd40;\00ld.global.f32 \09%f25, [%rd41];\00\00setp.lt.s32 \09%p1, %r17, 0;\00cvt.u32.u64 \09%r26, %rd15;\00\00@%p1 bra \09$L__BB2_3;\00bra.uni \09$L__BB2_2;\00$L__BB2_3:                              // %if.else\00\00\00setp.eq.s32 \09%p2, %r26, -2;\00@%p2 bra \09$L__BB2_6;\00\00\00setp.ne.s32 \09%p3, %r26, -1;\00@%p3 bra \09$L__BB2_7;\00\00\00\00fma.rn.f32 \09%f175, %f7, %f23, %f175;\00\00fma.rn.f32 \09%f174, %f7, %f24, %f174;\00\00fma.rn.f32 \09%f173, %f7, %f25, %f173;\00\00bra.uni \09$L__BB2_7;\00$L__BB2_6:                              // %if.then225\00\00\00mul.rn.f32 \09%f56, %f23, 0f3F000000;\00\00ld.global.f32 \09%f57, [%rd5+4];\00\00add.rn.f32 \09%f58, %f2, %f57;\00\00fma.rn.f32 \09%f59, %f56, %f58, %f172;\00\00ld.global.f32 \09%f60, [%rd1];\00\00add.rn.f32 \09%f61, %f15, %f60;\00\00fma.rn.f32 \09%f62, %f56, %f61, %f176;\00\00ld.global.f32 \09%f63, [%rd4];\00\00add.rn.f32 \09%f64, %f9, %f63;\00\00fma.rn.f32 \09%f65, %f56, %f64, %f175;\00\00ld.global.f32 \09%f66, [%rd3];\00\00add.rn.f32 \09%f67, %f10, %f66;\00\00fma.rn.f32 \09%f68, %f56, %f67, %f174;\00\00ld.global.f32 \09%f69, [%rd2];\00\00add.rn.f32 \09%f70, %f11, %f69;\00\00fma.rn.f32 \09%f71, %f56, %f70, %f173;\00\00mul.rn.f32 \09%f72, %f24, 0f3F000000;\00\00ld.global.f32 \09%f73, [%rd5+8];\00\00add.rn.f32 \09%f74, %f3, %f73;\00\00fma.rn.f32 \09%f75, %f72, %f74, %f59;\00\00ld.global.f32 \09%f76, [%rd1+4];\00\00add.rn.f32 \09%f77, %f16, %f76;\00\00fma.rn.f32 \09%f78, %f72, %f77, %f62;\00\00ld.global.f32 \09%f79, [%rd4+4];\00\00add.rn.f32 \09%f80, %f10, %f79;\00\00fma.rn.f32 \09%f81, %f72, %f80, %f65;\00\00ld.global.f32 \09%f82, [%rd3+4];\00\00add.rn.f32 \09%f83, %f12, %f82;\00\00fma.rn.f32 \09%f84, %f72, %f83, %f68;\00\00ld.global.f32 \09%f85, [%rd2+4];\00\00add.rn.f32 \09%f86, %f13, %f85;\00\00fma.rn.f32 \09%f87, %f72, %f86, %f71;\00\00mul.rn.f32 \09%f88, %f25, 0f3F000000;\00\00ld.global.f32 \09%f89, [%rd5+12];\00\00add.rn.f32 \09%f90, %f4, %f89;\00\00fma.rn.f32 \09%f172, %f88, %f90, %f75;\00\00ld.global.f32 \09%f91, [%rd1+8];\00\00add.rn.f32 \09%f92, %f17, %f91;\00\00fma.rn.f32 \09%f176, %f88, %f92, %f78;\00\00ld.global.f32 \09%f93, [%rd4+8];\00\00add.rn.f32 \09%f94, %f11, %f93;\00\00fma.rn.f32 \09%f175, %f88, %f94, %f81;\00\00ld.global.f32 \09%f95, [%rd3+8];\00\00add.rn.f32 \09%f96, %f13, %f95;\00\00fma.rn.f32 \09%f174, %f88, %f96, %f84;\00\00ld.global.f32 \09%f97, [%rd2+8];\00\00add.rn.f32 \09%f98, %f14, %f97;\00\00fma.rn.f32 \09%f173, %f88, %f98, %f87;\00bra.uni \09$L__BB2_7;\00$L__BB2_8:                              // %for.end\00\00shl.b64 \09%rd52, %rd10, 2;\00add.s64 \09%rd53, %rd6, %rd52;\00\00st.global.f32 \09[%rd53], %f172;\00\00shl.b64 \09%rd54, %rd11, 2;\00add.s64 \09%rd55, %rd53, %rd54;\00\00st.global.f32 \09[%rd55], %f175;\00\00shl.b64 \09%rd56, %rd12, 2;\00add.s64 \09%rd57, %rd6, %rd56;\00\00st.global.f32 \09[%rd57], %f174;\00\00shl.b64 \09%rd58, %rd13, 2;\00add.s64 \09%rd59, %rd6, %rd58;\00\00st.global.f32 \09[%rd59], %f173;\00\00shl.b64 \09%rd60, %rd14, 2;\00add.s64 \09%rd61, %rd6, %rd60;\00\00st.global.f32 \09[%rd61], %f176;\00\00ret;\00$L__tmp42:\00$L__func_end2:\00\00}\00\00.visible .entry _Z14cuda_time_stepiiPfS_S_S_(\00.param .u32 _Z14cuda_time_stepiiPfS_S_S__param_0,\00.param .u32 _Z14cuda_time_stepiiPfS_S_S__param_1,\00.param .u64 _Z14cuda_time_stepiiPfS_S_S__param_2,\00.param .u64 _Z14cuda_time_stepiiPfS_S_S__param_3,\00.param .u64 _Z14cuda_time_stepiiPfS_S_S__param_4,\00.param .u64 _Z14cuda_time_stepiiPfS_S_S__param_5\00)                                       // @_Z14cuda_time_stepiiPfS_S_S_\00{\00.reg .b32 \09%r<13>;\00.reg .f32 \09%f<19>;\00.reg .b64 \09%rd<30>;\00\00$L__func_begin3:\00\00\00\00ld.param.u32 \09%r1, [_Z14cuda_time_stepiiPfS_S_S__param_0];\00ld.param.u64 \09%rd1, [_Z14cuda_time_stepiiPfS_S_S__param_5];\00cvta.to.global.u64 \09%rd2, %rd1;\00ld.param.u32 \09%r2, [_Z14cuda_time_stepiiPfS_S_S__param_1];\00ld.param.u64 \09%rd3, [_Z14cuda_time_stepiiPfS_S_S__param_4];\00cvta.to.global.u64 \09%rd4, %rd3;\00ld.param.u64 \09%rd5, [_Z14cuda_time_stepiiPfS_S_S__param_2];\00ld.param.u64 \09%rd6, [_Z14cuda_time_stepiiPfS_S_S__param_3];\00cvta.to.global.u64 \09%rd7, %rd6;\00cvta.to.global.u64 \09%rd8, %rd5;\00$L__tmp43:\00\00mov.u32 \09%r3, %ntid.x;\00$L__tmp44:\00\00mov.u32 \09%r4, %ctaid.x;\00$L__tmp45:\00\00mov.u32 \09%r5, %tid.x;\00$L__tmp46:\00\00mad.lo.s32 \09%r6, %r3, %r4, %r5;\00\00mul.wide.s32 \09%rd9, %r6, 4;\00add.s64 \09%rd10, %rd4, %rd9;\00ld.global.f32 \09%f1, [%rd10];\00mov.b32 \09%r7, 4;\00\00sub.s32 \09%r8, %r7, %r1;\00\00cvt.rn.f32.s32 \09%f2, %r8;\00\00div.rn.f32 \09%f3, %f1, %f2;\00\00add.s64 \09%rd11, %rd8, %rd9;\00ld.global.f32 \09%f4, [%rd11];\00\00add.s64 \09%rd12, %rd2, %rd9;\00ld.global.f32 \09%f5, [%rd12];\00\00fma.rn.f32 \09%f6, %f3, %f5, %f4;\00\00add.s64 \09%rd13, %rd7, %rd9;\00\00st.global.f32 \09[%rd13], %f6;\00\00shl.b32 \09%r9, %r2, 2;\00\00mul.wide.s32 \09%rd14, %r9, 4;\00add.s64 \09%rd15, %rd11, %rd14;\00ld.global.f32 \09%f7, [%rd15];\00\00add.s64 \09%rd16, %rd12, %rd14;\00ld.global.f32 \09%f8, [%rd16];\00\00fma.rn.f32 \09%f9, %f3, %f8, %f7;\00\00add.s64 \09%rd17, %rd13, %rd14;\00\00st.global.f32 \09[%rd17], %f9;\00\00add.s32 \09%r10, %r6, %r2;\00\00mul.wide.s32 \09%rd18, %r2, 4;\00add.s64 \09%rd19, %rd11, %rd18;\00ld.global.f32 \09%f10, [%rd19];\00\00add.s64 \09%rd20, %rd12, %rd18;\00ld.global.f32 \09%f11, [%rd20];\00\00fma.rn.f32 \09%f12, %f3, %f11, %f10;\00\00add.s64 \09%rd21, %rd13, %rd18;\00\00st.global.f32 \09[%rd21], %f12;\00\00add.s32 \09%r11, %r10, %r2;\00\00mul.wide.s32 \09%rd22, %r11, 4;\00add.s64 \09%rd23, %rd8, %rd22;\00ld.global.f32 \09%f13, [%rd23];\00\00add.s64 \09%rd24, %rd2, %rd22;\00ld.global.f32 \09%f14, [%rd24];\00\00fma.rn.f32 \09%f15, %f3, %f14, %f13;\00\00add.s64 \09%rd25, %rd7, %rd22;\00\00st.global.f32 \09[%rd25], %f15;\00\00add.s32 \09%r12, %r11, %r2;\00\00mul.wide.s32 \09%rd26, %r12, 4;\00add.s64 \09%rd27, %rd8, %rd26;\00ld.global.f32 \09%f16, [%rd27];\00\00add.s64 \09%rd28, %rd2, %rd26;\00ld.global.f32 \09%f17, [%rd28];\00\00fma.rn.f32 \09%f18, %f3, %f17, %f16;\00\00add.s64 \09%rd29, %rd7, %rd26;\00\00st.global.f32 \09[%rd29], %f18;\00\00ret;\00$L__tmp47:\00$L__func_end3:\00\00}\00.section\09.debug_loc\09{\09}\00\00\00\00\04/\08\00\15\00\00\00\0E\00\00\00\04#\08\00\15\00\00\00\00\00\00\00\04\12\08\00\15\00\00\00\00\00\00\00\04\11\08\00\15\00\00\00\00\00\00\00\04/\08\00\14\00\00\00\14\00\00\00\04#\08\00\0B\00\00\00\00\00\00\00\04\12\08\00\0B\00\00\00\00\00\00\00\04\11\08\00\0B\00\00\00\00\00\00\00\04#\08\00\14\00\00\00\00\00\00\00\04\12\08\00\14\00\00\00\00\00\00\00\04\11\08\00\14\00\00\00\00\00\00\00\04/\08\00\13\00\00\00@\00\00\00\04#\08\00\07\00\00\00\00\00\00\00\04\12\08\00\07\00\00\00\00\00\00\00\04\11\08\00\07\00\00\00\00\00\00\00\04#\08\00\13\00\00\00\00\00\00\00\04\12\08\00\13\00\00\00\00\00\00\00\04\11\08\00\13\00\00\00\00\00\00\00\04/\08\00\12\00\00\00\18\00\00\00\04#\08\00\03\00\00\00\00\00\00\00\04\12\08\00\03\00\00\00\00\00\00\00\04\11\08\00\03\00\00\00\00\00\00\00\04#\08\00\12\00\00\00\00\00\00\00\04\12\08\00\12\00\00\00\00\00\00\00\04\11\08\00\12\00\00\00\00\00\00\00\047\04\00y\00\00\00\010\00\00\01*\00\00\04\0A\08\00\04\00\00\00@\01(\00\03\19(\00\04\17\0C\00\00\00\00\00\05\00 \00\00\F0!\00\04\17\0C\00\00\00\00\00\04\00\18\00\00\F0!\00\04\17\0C\00\00\00\00\00\03\00\10\00\00\F0!\00\04\17\0C\00\00\00\00\00\02\00\08\00\00\F0!\00\04\17\0C\00\00\00\00\00\01\00\04\00\00\F0\11\00\04\17\0C\00\00\00\00\00\00\00\00\00\00\F0\11\00\03\1B\FF\00\04\1D\04\00\10\00\00\00\04\1C\04\00\B0\03\00\00\044\C0\00\F0\00\00\00\00\00\00\00\01\00\00\00\18\01\00\00\10\01\00\00\00\00\00\00\01\00\00\00\18\01\00\00H\06\00\00\00\00\00\00\01\00\00\00\80\07\00\00h\06\00\00\00\00\00\00\01\00\00\00\80\07\00\00H\07\00\00\00\00\00\00\01\00\00\00\80\07\00\00h\07\00\00\00\00\00\00\01\00\00\00\80\07\00\00x\07\00\00\00\00\00\00\01\00\00\00\80\07\00\00\88\07\00\00\00\00\00\00\01\00\00\00\F8\07\00\00\A8\07\00\00\00\00\00\00\01\00\00\00\F8\07\00\00\B8\07\00\00\00\00\00\00\01\00\00\00\F8\07\00\00\D8\07\00\00\00\00\00\00\01\00\00\00\F8\07\00\00\F0\07\00\00\00\00\00\00\01\00\00\00\F8\07\00\00\04\1E\04\00\90\00\00\00\047\04\00y\00\00\00\010\00\00\01*\00\00\04\0A\08\00\08\00\00\00@\01P\00\03\19P\00\04\17\0C\00\00\00\00\00\09\00H\00\00\F0!\00\04\17\0C\00\00\00\00\00\08\00@\00\00\F0!\00\04\17\0C\00\00\00\00\00\07\008\00\00\F0!\00\04\17\0C\00\00\00\00\00\06\000\00\00\F0!\00\04\17\0C\00\00\00\00\00\05\00(\00\00\F0!\00\04\17\0C\00\00\00\00\00\04\00 \00\00\F0!\00\04\17\0C\00\00\00\00\00\03\00\18\00\00\F0!\00\04\17\0C\00\00\00\00\00\02\00\10\00\00\F0!\00\04\17\0C\00\00\00\00\00\01\00\08\00\00\F0!\00\04\17\0C\00\00\00\00\00\00\00\00\00\00\F0\11\00\03\1B\FF\00\04\1D\04\00\18\00\00\00\04\1C\04\00\B8\10\00\00\044\E0\01\F0\01\00\00\00\00\00\00\01\00\00\000\02\00\00(\02\00\00\00\00\00\00\01\00\00\000\02\00\00\90\02\00\00\00\00\00\00\01\00\00\00\D0\02\00\00\C8\02\00\00\00\00\00\00\01\00\00\00\D0\02\00\000\03\00\00\00\00\00\00\01\00\00\00p\03\00\00h\03\00\00\00\00\00\00\01\00\00\00p\03\00\00P\04\00\00\00\00\00\00\01\00\00\00\80\04\00\00x\04\00\00\00\00\00\00\01\00\00\00\80\04\00\00P\08\00\00\00\00\00\00\01\00\00\00\80\08\00\00x\08\00\00\00\00\00\00\01\00\00\00\80\08\00\00\E8\08\00\00\00\00\00\00\01\00\00\00\18\09\00\00\10\09\00\00\00\00\00\00\01\00\00\00\18\09\00\00x\09\00\00\00\00\00\00\01\00\00\00\B0\09\00\00\A8\09\00\00\00\00\00\00\01\00\00\00\B0\09\00\00P\0A\00\00\00\00\00\00\01\00\00\00x\0A\00\00p\0A\00\00\00\00\00\00\01\00\00\00x\0A\00\00\08\0D\00\00\00\00\00\00\01\00\00\00\F8\0F\00\000\0D\00\00\00\00\00\00\01\00\00\00\F8\0F\00\00X\0D\00\00\00\00\00\00\01\00\00\00\F8\0F\00\00\F0\0F\00\00\00\00\00\00\01\00\00\00\F8\0F\00\000\13\00\00\00\00\00\00\01\00\00\00p\14\00\00P\13\00\00\00\00\00\00\01\00\00\00p\14\00\000\14\00\00\00\00\00\00\01\00\00\00p\14\00\00P\14\00\00\00\00\00\00\01\00\00\00p\14\00\00h\14\00\00\00\00\00\00\01\00\00\00p\14\00\00p\14\00\00\00\00\00\00\01\00\00\00\E0\14\00\00\90\14\00\00\00\00\00\00\01\00\00\00\E0\14\00\00\A8\14\00\00\00\00\00\00\01\00\00\00\E0\14\00\00\C8\14\00\00\00\00\00\00\01\00\00\00\E0\14\00\00\D8\14\00\00\00\00\00\00\01\00\00\00\E0\14\00\00\04\1E\04\00\90\00\00\00\047\04\00y\00\00\00\010\00\00\01*\00\00\04\0A\08\00\0C\00\00\00@\01 \00\03\19 \00\04\17\0C\00\00\00\00\00\03\00\18\00\00\F0!\00\04\17\0C\00\00\00\00\00\02\00\10\00\00\F0!\00\04\17\0C\00\00\00\00\00\01\00\08\00\00\F0!\00\04\17\0C\00\00\00\00\00\00\00\00\00\00\F0\11\00\03\1B\FF\00\04\1D\04\00\18\00\00\00\04\1C\04\00\90\05\00\00\044@\01\C8\01\00\00\00\00\00\00\01\00\00\00\F8\01\00\00\F0\01\00\00\00\00\00\00\01\00\00\00\F8\01\00\00X\02\00\00\00\00\00\00\01\00\00\00\90\02\00\00\88\02\00\00\00\00\00\00\01\00\00\00\90\02\00\00\F0\02\00\00\00\00\00\00\01\00\00\00 \03\00\00\18\03\00\00\00\00\00\00\01\00\00\00 \03\00\00\C8\03\00\00\00\00\00\00\01\00\00\00\F0\03\00\00\E8\03\00\00\00\00\00\00\01\00\00\00\F0\03\00\000\05\00\00\00\00\00\00\01\00\00\00p\05\00\00h\05\00\00\00\00\00\00\01\00\00\00p\05\00\00\08\08\00\00\00\00\00\00\01\00\00\00@\09\00\00(\08\00\00\00\00\00\00\01\00\00\00@\09\00\00\08\09\00\00\00\00\00\00\01\00\00\00@\09\00\00(\09\00\00\00\00\00\00\01\00\00\00@\09\00\008\09\00\00\00\00\00\00\01\00\00\00@\09\00\00H\09\00\00\00\00\00\00\01\00\00\00\B8\09\00\00h\09\00\00\00\00\00\00\01\00\00\00\B8\09\00\00x\09\00\00\00\00\00\00\01\00\00\00\B8\09\00\00\98\09\00\00\00\00\00\00\01\00\00\00\B8\09\00\00\B0\09\00\00\00\00\00\00\01\00\00\00\B8\09\00\00\04\1E\04\00\90\00\00\00\047\04\00y\00\00\00\010\00\00\01*\00\00\04\0A\08\00\0E\00\00\00@\01\18\00\03\19\18\00\04\17\0C\00\00\00\00\00\02\00\10\00\00\F0!\00\04\17\0C\00\00\00\00\00\01\00\08\00\00\F0!\00\04\17\0C\00\00\00\00\00\00\00\00\00\00\F0\11\00\03\1B\FF\00\04\1D\04\00\18\00\00\00\04\1C\04\00\98\01\00\00\8D\05\00\00\00\00\00\00\02\00\00\00\15\00\00\00\BC\04\00\00\00\00\00\00\02\00\00\00\14\00\00\00q\01\00\00\00\00\00\00\02\00\00\00\13\00\00\00\EA\00\00\00\00\00\00\00\02\00\00\00\12\00\00\00H\05\00\00\00\00\00\00\02\00\00\00\15\00\00\00e\04\00\00\00\00\00\00\02\00\00\00\14\00\00\00\BB\00\00\00\00\00\00\00\02\00\00\00\13\00\00\00\1D\00\00\00\00\00\00\00\02\00\00\00\12\00\00\00\00\00\80?\FF\FF\FF\7F\00\00\00\80\00\00\00\00\00\00\00\00\00\00\00\00\00\00\00\00\00\00\00\00\00\00\00\00\00\00\00\00\00\00\00\00\00\00\00\00\00\00\00\00\00\00\00\00\00\00\00\00\00\00\00\00\00\00\00\00\00\00\00\00\00\00\00\00\00\00\00\00\00\00\00\00\00\00\00\00\00\00\00\00\00\00\00\00\00\00\00\00\00\00\00\00\00\00\00\00\00\00\00\00\00\00\00\00\00\00\00\00\00\00\00\00\00\00\00\00\00\00\00\00\00\00\00\00\00\00\00\00\00\00\00\00\00\00\00\00\00\00\00\00\00\00\00\00\00\00\00\00\00\00\00\00\00\00\00\00\00\00\00\00\00\00\00\00\00\00\00\00\00\00\00\00\00\00\00\00\00\00\00\00\00\00\00\00\00\00\00\00\00\00\00\00\00\00\00\00\00\00\00\00\00\00\00\00\00\00\00\00\00\00\00\00\00\00\00\00\00\00\00\00\00\00\00\00\00\00\00\00\00\00\00\00\00\00\00\00\00\00\00\00\00\00\00\00\00\00\00\00\00\00\00\00\00\00\00\00\00\00\00\00\00\00\00\00\00\00\00\00\00\00\00\00\00\00\00\00\00\00\00\00\00\00\00\00\00\00\00\00\00\00\00\00\00\00\00\00\00\00\00\00\00\00\00\00\00\00\00\00\00\00\00\00\00\00\00\00\00\00\00\00\00\00\00\00\00\00\00\00\00\00\00\00\00\00\00\00\00\00\00\00\00\00\00\00\00\00\00\00\00\00\00\00\00\00\00\00\00\00\00\00\00\00\80?\CC\CC\CC>\FF\FF\FF\7F\00\00\00\80\00\00\00\00\00\00\00\00\00\00\00\00\00\00\00\00\00\00\00\00\00\00\00\00\00\00\00\00\00\00\00\00\00\00\00\00\00\00\00\00\00\00\00\00\00\00\00\00\00\00\00\00\00\00\00\00\00\00\00\00\00\00\00\00\00\00\00\00\00\00\00\00\00\00\00\00\00\00\00\00\00\00\00\00\00\00\00\00\00\00\00\00\00\00\00\00\00\00\00\00\00\00\00\00\00\00\00\00\00\00\00\00\00\00\00\00\00\00\00\00\00\00\00\00\00\00\00\00\00\00\00\00\00\00\00\00\00\00\00\00\00\00\00\00\00\00\00\00\00\00\00\00\00\00\00\00\00\00\00\00\00\00\00\00\00\00\00\00\00\00\00\00\00\00\00\00\00\00\00\00\00\00\00\00\00\00\00\00\00\00\00\00\00\00\00\00\00\00\00\00\00\00\00\00\00\00\00\00\00\00\00\00\00\00\00\00\00\00\00\00\00\00\00\00\00\00\00\00\00\00\00\00\00\00\00\00\00\00\00\00\00\00\00\00\00\00\00\00\00\00\00\00\00\00\00\00\00\00\00\00\00\00\00\00\00\00\00\00\00\00\00\00\00\00\00\00\00\00\00\00\00\00\00\00\00\00\00\00\00\00\00\00\00\00\00\00\00\00\00\00\00\00\00\00\00\00\00\00\00\00\00\00\00\00\00\00\00\00\00\00\00\00\00\00\00\00\00\00\00\00\00\00\00\00\00\00\00\00\00\00\00\00\00\00\00\00\00\00\00\00\00\00\00\00\00\00\00\00\00\00\00\00\00\00\00\00\00\00\00\00\00\00\00\00\00\00\00\00\00\00\00\00\00\00\00\00\00\00\00\00\00\00\00\00\00\00\00\00\00\00\00\00\80?\00\00\00?\FF\FF\FF\7F\00\00\00\80\00\00\00\00\00\00\00\00\00\00\00\00\00\00\00\00\00\00\00\00\00\00\00\00\00\00\00\00\00\00\00\00\00\00\00\00\00\00\00\00\00\00\00\00\00\00\00\00\00\00\00\00\00\00\00\00\00\00\00\00\00\00\00\00\00\00\00\00\00\00\00\00\00\00\00\00\00\00\00\00\00\00\00\00\00\00\00\00\00\00\00\00\00\00\00\00\00\00\00\00\00\00\00\00\00\00\00\00\00\00\00\00\00\00\00\00\00\00\00\00\00\00\00\00\00\00\00\00\00\00\00\00\00\00\00\00\00\00\00\00\00\00\00\00\00\00\00\00\00\00\00\00\00\00\00\00\00\00\00\00\00\00\00\00\00\00\00\00\00\00\00\00\00\00\00\00\00\00\00\00\00\00\00\00\00\00\00\00\00\00\00\00\00\00\00\00\00\00\00\00\00\00\00\00\00\00\00\00\00\00\00\00\00\00\00\00\00\00\00\00\00\00\00\00\00\00\00\00\00\00\00\00\00\00\00\00\00\00\00\00\00\00\00\00\00\00\00\00\00\00\00\00\00\00\00\00\00\00\00\00\00\00\00\00\00\00\00\00\00\00\00\00\00\00\00\00\00\00\00\00\00\00\00\00\00\00\00\00\00\00\00\00\00\00\00\00\00\00\00\00\00\00\00\00\00\00\00\00\00\00\00\00\00\00\00\00\00\00\00\00\00\00\00\00\00\00\00\00\00\00\00\00\00\00\00\00\00\00\00\00\00\00\00\00\00\00\00\00\00\00\00\00\00\00\00\00\00\00\00\00\00\00\00\00\00\00\00\00\00\00\00\00\00\00\00\00\00\00\00\00\00\00\00\00\00\00\00\00\00\00\00\00\00\00\00\00\00\00\00\00\00\00\00\00\00\00\00\00\00\00\00\00\00\00\00\00\00\00\00\00\00\00\00\00\00\00\00\00\00\00\00\00\00\00\00\00\00\00\00\00\00\00\00\00\00\00\00\00\00\00\00\00\00\00\00\00\00\00\00\00\00\00\00\00\00\00\00\00\00\00\00\00\00\00\00\00\00\00\00\00\00\00\00\00\00\00\00\00\00\00\00\00\00\00\00\00\00\00\00\00\00\00\00\00\00\00\00\00\00\00\00\00\00\00\00\00\00\00\00\00\00\00\00\00\00\00\00\00\00\00\00\00\00\00\00\00\00\00\00\00\00\00\00\00\00\00\00\00\00\00\00\00\00\00\00\00\00\00\00\00\00\00\00\00\00\00\00\00\00\00\00\00\00\00\00\00\00\00\00\00\00\00\00\00\00\00\00\00\00\00\00\00\00\00\00\00\00\00\00\00\00\00\00\00\00\00\00\00\00\00\00\00\00\00\00\00\00\00\00\00\00\00\00\00\00\00\00\00\00\00\00\00\00\00\00\00\00\00\00\00\00\00\00\00\00\00\00\00\00\00\00\00\00\00\00\00\00\00\00\00\00\00\00\00\00\00\00\00\00\00\00\00\00\00\00\00\00\00\00\00\00\00\00\00\00\00\00\00\00\00\00\00\00\00\00\00\00\00\00\00\F6\07 \E2\00\FC\1C\00\01\00\87\00\80\07\98L\02\00W\02\00\00\C8\F0\00\00\17\02\00\00\C8\F0\F0\0F\22\FE\00\D8_\08\03\02'\00\80\7F\10O\00\00\00\0E\00\00\90\E2\00\02'\00\00\00\00N\F6\07 \FE@\94\1F\00\02\027\00\18\000[\04\02'\00\00\00H8\0B\02\E7\01\00\00)8\F6\07@\FE\00\C4\1E\00\06\04g\05\00\80\10L\07\0Bw\05\00\08\10L\06\06\07\00\00 \D4\EE\F6\07@\FE\00t\1C\00\03\00\07\05\80\07\98L\03\03G\00\00\00\00\1D\03*7\00\00\00\B8\\\1D\0F\C0\FC\01\C4\1F\00\00\03G\00\00\00\80P\05\03\07\00\08\00\81Q\00\00W\00\00\00\80Y\F5\07\C3\FE\00\D8\1F\00\00\067\00\00\00\88\\\05\06\07\00\80\7F\80Y\0A\03W\00\00\03\81Y\F0\07\A0\FF\00\F4\1F\00\00\00\A7\00\80\02\80Y\0F\00\08\00\00\00\F8\F0@\00\80+\00\00`\E2\F0\0F\A0\FF\00\D8\1F\08\00\007\00\80\07\98\\\0F\00\07\00\00\00\F8\F0\08\04'\05\00\80\10L\F2\07\02\FE\00\D8\1F\00\09\0B7\05\00\08\10L\06\04\87\05\00\80\10L\0E\08\07\00\00 \D4\EE\F2\07 \F6\00\84\1F\00\07\0B\97\05\00\08\10L\0F\06\07\00\00 \D4\EE\13\00\17\05\80\07\98L\F5\07 \FE\00\D4\1F\00\04\04G\05\00\80\10L\03\13'\00\00\00H8\05\0BW\05\00\08\10L\F1\07\A2\FE\00\98\1F\00\15\03'\00\00\00H8\17\03\E7\01\00\00)8\0A\15\87\00\00\80\10\\\F1\07\C2\FE\00\DC\1F\00\0B\17\97\00\00\08\10\\\0C\15g\00\00\80\10\\\0D\17w\00\00\08\10\\\F2\07!\FE\00\C4\03\00\11\0F\07\00\00\07\80Y\11\04\07\00\00 \DC\EE\0A\0A\07\00\00 \D4\EE\B1\07 \FC\00\D8\1F\08\0D\0C\07\00\00 \D4\EE\13\13\E7\01\00\00)8\0E\03\87\00\00\80\10\\\F1\07\C2\FE\00\C4\1F\00\0F\13\97\00\00\08\10\\\08\15G\00\00\80\10\\\09\17W\00\00\08\10\\\F6\07 \FC\00\D8?\00\06\03g\00\00\80\10\\\07\13w\00\00\08\10\\\0B\00\17\05\80\07\98L\F2\07!\1E\00\C4\1F\00\12\0D\07\00\00\05\80Y\12\08\07\00\00 \DC\EE\0E\0E\07\00\00 \D4\EE\B1\07 \FC\00\D4\1F\00\07\06\07\00\00 \D4\EE\0A\0B'\00\80\00\18\\\02\03G\00\00\80\10\\\F1\07\22\FE\00\D0\1F\00\0B\0A'\00\00\00H8\03\13W\00\00\08\10\\\0C\0A\E7\01\00\00)8\F6\07 \FC\00\D8?\00\04\0B'\05\00\80\10L\05\0C7\05\00\08\10L\08\0B\87\05\00\80\10L\F7\07@\FE \C4\1F\00\09\0C\97\05\00\08\10L\0F\07\07\00\00\07\80Y\0F\02\07\00\00 \DC\EE\F1\07 \F6\00\84\1F\00\05\04\07\00\00 \D4\EE\0E\08\07\00\00 \D4\EE\0A\0A\17\05\00\00\10L\F5\07 \FE@\C4\1F\00\06\0BG\05\00\80\10L\10\0A'\00\00\00H8\07\0CW\05\00\08\10L\F4\07\C0\FE\00\84\1F\00\11\0A\E7\01\00\00)8\0A\10'\05\00\80\10L\0B\117\05\00\08\10L\F6\07\E2\FE\00\C8\1F\04\0C\10\87\05\00\80\10L\0D\11\97\05\00\08\10L\05\0E\07\00\80\02\80Y\F1\07 \FE\00\C4\1E\00\05\06\07\00\00 \DC\EE\0A\0A\07\00\00 \D4\EE\0D\0C\07\00\00 \D4\EE\E6\07\E0\FE\00\C8\1F\04\02\10G\05\00\80\10L\03\11W\05\00\08\10L\00\0D\07\00\00\05\80Y\F1\07\E0\FF\00\C0\1F\00\00\02\07\00\00 \DC\EE\0F\00\07\00\00\00\00\E3\05\03w\81\00\00\008\F1\07 \FE\00\C4\1F\00\00\00\80B\00\00\A0\E2\07\00g\00\80\07\98\\\00\06w\81\00\00\008\F3\07@\FE\00\90\1F\00\08\007\00\80\07\98\\\0D\05\F7\FF\FF\FF\0F\1C\0C\00\F7\FF\FF\FF\0F\1C\ED\07\A0\FD\00\C0\1F\00\07\0D\D7\0F\80\03h6\07\0C\D7\0F\00 h6\09\00\F8\0F\80\07\98\\\FD\07 \FE\00\D8\1F\00\0F\00\08\11\00\00@\E2\09\06\07\80\FF\03\CC0\0A\03\07\80\FF\03\CC0\ED\07\A0\FF\00\D8\1F\00\FF\09\A7\00\002@\\\0F\00\808\00\00@\E2\09\00\17\00\88\07\98L\ED\07\A0\FF\00\C4\1F\00\FF\08\97\80\BC\03\E0[\0F\00\884\00\00@\E2\09\06\07\80\FF\03\CD0\F6\07\A0\FD\00\F4\1F\00\0A\03\07\80\FF\03\CD0\FF\09\A7\00\801@\\\0F\00\002\00\00@\E2\F1\07\A0\FD\00\B4\1F\00\87\03\07\80\FF\83\BD6\FF\07\17\00\080AL\07\80\07!\81\03\90P\FD\07 \FE\00\B4\1F\00\0F\00\00.\00\00@\E2\87\06\07\80\FF\83\BD6\FF\08\17\00\080AL\ED\07\A0\FF\00\C4\1F\00\07\80\07!\81\03\90P\0F\00\80)\00\00@\E2\07\0C\F7\0F\80\03m[\EC\07 \FE\00\C4\1F\00\0F\0D\F7\0F\80\03m[\09\00\F0\0F\80\07\98\\\09\F0\08\FC\FF\FF\0F\01\F1\07\80\FE\00\98\1F\00\07\06\08\80\DF\7F\802\08\03\09\80\DF\7F\802\09\09\09\04\00\00\00\1C\F0\07 \FE\00\D4\1F\00\03\05\07\00\00\08\EC\16\00\00\80\22\00\00\A0\E2\00\00\17\F8\FF\FF\0F\1C\F2\07\00\FE@D\1C\00\03\03\87\00\00\00\12\\\07\00w\00\80\0B\1A\\\06\03G\00\00\00\80P\F3\07`\FC\00\CC\1F\00\00\00\F7\07\80\02\C28\08\03\F7\0F\000Y\\\09\00\97\00\00\00\10\\\F6\0F\C2\FE\00\D8\1F\00\0C\06\07\00\08\04\80Q\0D\06\C7\00\00\03\80Y\06\07\D7\00\80\7F\80Y\F6\07\A0\FF\00\98\1F\00\0C\08g\00\80\03\80Y\0A\0D\C7\00\00\03\80Y\08\08\A7\00\80\03\80Y\F6\07\C0\FE\00\D8\1F\00\03\0D\87\00\00\05\80Y\00\03w\81\00\00\008\0E\00\97\00\00\00\10\\\F6\07\A0\FD\00\F4\1F\00\00\0E\F7\FF\FF\FF\0F\1C\07\00\E7\0F\80\03l6\0F\00\08\15\00\00@\E2\ED\07\A0\FF\00\B4\1F\00\07\0E\E7\0F\80\03i6\0F\00\80\11\00\00@\E2\07\0E\17\00\80\03m6\FD\07\A0\FD\00\C0\1F\00\0F\00\00\00\00\00@\E3\07\0E\87\FE\FF\03m7\03\03\07\00\00\00\08\04\FD\07 \FE\C0\C5\1F\08\0F\00\08\00\00\00@\E3\00\0D\87\00\00\05\98Y\0F\0E\F7\0F\80\03k[\F1\07`\FE\00\D8\1F\00\07\0E\07\02\00\00\00\1C\05\0D\87\00\00\05\88Y\00\00\F7\FF\FF\07\00\04\E1\07\A0\FE\00\C4\1F\00\06\00\07\00\00\08 \04\00\0D\87\00\00\05\90Y\07\06w\00\00\00H\\\F1\07\80\FE\00\C8\1F\00\07\00W\00\80\83\BD[\00\0E\F7\0F\00\00\12\\\0F\07\F7\0F\80\00k[\E6\07\A0\FE\00\C4\1F\00\00\00\F7\0F\00\07K[\00\06\07\00\00\00(\\\07\00\07!\80\03\90P\EC\07\A0\FF\00\D8\1F\00\06\00\17\00\00\00(8\05\FF\17\00\00\04\A08\05\05\17\00\00\03\F8<\F6\07\C0\FE\00\C0\1F\00\05\05\07\00\00\00G\\\05\06W\00\00\00\10\\\03\057\00\00\02G\\\FD\07\C0\FE\00\C0\1F\00\0F\00\07\00\00\00@\E3\03\03\07\00\00\00\08\04\03\03\07\00\00\F8'\04\FD\07\00\FE\00\F4\1F\00\0F\00\07\00\00\00@\E3\03\097\00\80\0B\18\\\0F\00\07\00\00\00@\E3\FD\07\C0\FE\00\C0\1F\00\0F\00\07\00\00\00@\E3\03\08'\00\88\03H\02\03\03\07\00\00\F8'\04\FD\07\00\FE\00\F4\1F\00\0F\00\07\00\00\00@\E3\03\08'\00\88\03H\02\0F\00\07\00\00\00@\E3\F2\07 \E2\00\F4\1F\00\03\F0\07\00\00\FC\0F\01\03\03W\00\00\00\80P\0F\00\07\00\00\00@\E3\F0\07\A0\FF\00\FC\1F\00\03\067\00\00\10X\\\0F\00\07\00\00\00@\E3\0F\00\07\00\00\00 \E3\FF\07\00\FC\00\80\1F\00\0F\00\07\FF\FF\0F@\E2\00\0F\07\00\00\00\B0P\00\0F\07\00\00\00\B0P\E0\07\00\FC\00\80\1F\00\00\0F\07\00\00\00\B0P\00\0F\07\00\00\00\B0P\00\0F\07\00\00\00\B0P\F6\07\00\FE\00D\1C\00\01\00\87\00\80\07\98L\05\00\07\05\80\07\98L)\00W\02\00\00\C8\F0\F0\07 \FE\00\FC\1C\00*\00\07\05\80\07\98L\00\00\80\1F\00\00\90\E2\00\00\17\02\00\00\C8\F0\F1\0F\C2\FEB\D8\1F\00\02)'\00\80\7F\10O\00)'\00\00\00\00N))'\00\18\000[\E1\07\C0\FE\00\C8\1F\00\00)\E7\01\00\00)8\02)g\05\00\81\18L\03\00w\05\00\08\10L\B1\00 \FE@\C4\1F\00,\02\07\00\00 \D4\EE\04\05'\00\00\81\18\\\05\05\E7\01\00\00)8\E5\07@\FE\00\C0\1F\08**\97\02\80\00\18\\\05\057\00\00\08\10\\\00*\E7\01\00\00)8\B1\07 \FE@\D4\1F\00'\04\07\00\00 \D4\EE(*\07\05\00\00\10L\06*g\05\00\81\18L\F1\07@\FC\00\C0?\08\08(\E7\01\00\00)8\07\00w\05\00\08\10L\02(g\05\00\81\18L\B1\00\A0\FE\00\C8\1F\00&\06\07\00\00 \D4\EE$(\07\05\00\00\10L\03\08w\05\00\08\10L\F0\07\22\16\00\D8\1F\00\00$\E7\01\00\00)8%\02\07\00\00 \D4\EE\08$g\05\00\81\18L\E2\07 \16\00\C4\1F\00\09\00w\05\00\08\10L#\08\07\00\00 \D4\EE\22)\F7\01\00\00)8\F1\07 \FE\00\C4\1F\00\1E\00\97\02\80\07\98\\!*\F7\01\00\00)8\1F(\F7\01\00\00)8\E1\07`\FE\00\F4\1C\00\1D$\F7\01\00\00)8\00\00G4\00\00\F0\F0\0A,G\00\00\00\80P\F0\17b\FE\00\CC\1F\08\00,\07\00\08\05\81Q\00\0074\00\00\F0\F0\00'\C7\02\00\00\88\\\F6\07\C0\FE\00\98\1F\00\00\0A\07\00\00\05\80Y\15'\07\00\80\7F\80Y\0A,W\01\80\13\81Y\F0\07\A0\FF\00\C4?\00\15\00\A7\00\80\0A\80Y\0F\00\08\00\00\00\F8\F03\00w\02\80\07\98\\\F6\07\A0\FF \C0?\00\0A\00\C7\02\80\07\98\\@\00\80\EA\00\00`\E2\15\00'\03\80\07\98\\\FD\07`\FE\00\C0?\08\0F\00\07\00\00\00\F8\F0\00\00'4\00\00\F0\F0\00&\C7\02\00\00\88\\\11\07 \FE\00\D8?\00\02,G\00\00\00\80P\00\00\80\07\00\00\90\E2\00,\07\00\08\01\81Q\F6\07\C0\FC\00\D8\1F\00\05\02\07\00\00\01\80Y\03&W\00\80\7F\80Y\00,7\00\00\13\81Y\F0\07\A0\FF\00\C4\1F\00\03\05\07\00\80\01\80Y\0F\00\08\00\00\00\F8\F03\00g\02\80\07\98\\\F6\07\A0\FF \C0?\00\0A\00\C7\02\80\07\98\\@\00\80\E0\00\00`\E2\03\00'\03\80\07\98\\\FD\07`\FE\00\C0\1F\08\0F\00\07\00\00\00\F8\F0\00\00\174\00\00\F0\F0\00%\C7\02\00\00\88\\\11\07 \FE\00\D8?\00\02,G\00\00\00\80P\00\00\80\07\00\00\90\E2\00,\07\00\08\01\81Q\F6\07\C0\FC\00\D8\1F\00\07\02\07\00\00\01\80Y\12%w\00\80\7F\80Y\00,'\01\80\12\81Y\F0\07\A0\FF\00\C4\1F\00\12\07\07\00\00\09\80Y\0F\00\08\00\00\00\F8\F03\00W\02\80\07\98\\\F6\07\A0\FF \C0?\00\0A\00\C7\02\80\07\98\\@\00\80\D6\00\00`\E2\12\00'\03\80\07\98\\\FD\07\00\FE\00X\1C\00\0F\00\07\00\00\00\F8\F0\00\037\00\00\00h\\\05,G\00\00\00\80P\F0\07\C0\FE\00\C4\1F\00\00\15W\01\00\00\80Y\00\00\80\0E\00\00\90\E2\02\12'\01\00\00\80Y\F5\07 \FE@\B0\1F\00\00,\07\00?\00h9\8F\02\07\80\80\03\BE6\04\02\07\80K\00h8\E6\07!\FE\00\C8\1F\00\00\02\07\00\80\11\80Y \00\C7\CC\CC\EC\03\1E\04\04'\00\80\04\A0\\\F0\0F`\E2\00\F4\1F\00\02,\07\00\88\02\81Q\04\04W\00\00\00\80P3 733\FB\03\1E\F0\07 \E2\01\94\1F\00\08\05'\00\80\02\80Y\1C\04G\00\00\00\80P\003\C7\02\00\00\88\\\F6\07\22\FE\00\D4?\00\02\087\03\80\7F\80Y\05,'\00\80\19\81Y\1C\1C\09\809\00h8\F0\07\A0\FF\00\D8\1F\00\02\08W\00\00\01\80Y\0F\00\08\00\00\00\F8\F0\0A\00\C7\02\80\07\98\\\FD\07\00\FE\01\F4\1F\00@\00\00\C5\00\00`\E2\02\00'\03\80\07\98\\\0F\00\07\00\00\00\F8\F0\F1\07 \FE\00\C4\1F0\87\02\07\80\80\03\BE6\00\00\17\00\88\11\80I\1B'W\01\00\10\80Y\F1\07&\FE\00\84\1F\00\1A&W\01\00\00h\\\19%W\01\00\00h\\\18&7\00\00\10\80Y\F1\07&\FE@\C4\1F\08\17%7\00\00\00h\\\15\00W\01\00\00h\\\14\007\00\00\00h\\\F1\07$\FE\00\84\1F\00\13\00'\01\00\00h\\\00\00\07\05\80\07\98L\12%'\01\00\10\80Y\F1\07@\FE\00\C0\1F\00\11\00\F7\0F\80\07\98\\\02\02\08\80K\00h8\10\F0G\00\00\00\00\01\11\07 \FE\00\C4\1F\00\16\02W\00\00\00\80P\0F\00\F7\0F\80\07\98\\\0E\00\F7\0F\80\07\98\\\E1\07\A0\FF\00\C0\1F\00\0D\00\F7\0F\80\07\98\\\0C\00\F7\0F\80\07\98\\\00\00\F7\01\00\00)8\1D\0F\C0\FE\01\C0\1F\08\16\16G\00\00\00\80P\16\16\08\809\00h8\04\1E'\00\00\00H8\F1\07 \FE\00\D0\1F\00\00\00\80\A6\00\00\A0\E2\08\00\07\05\80\07\98L\05\1E\E7\01\00\00)8\F1\07 \FE\C0\90\1F\00\02\04'\05\00\80\10L\06\08\E7\01\00\01\18\\\08\08\E7\01\80\01\18\\\F2\07\02\FE\00\C4\1E\04\03\057\05\00\08\10L\04\04G\05\00\80\10L\02\02\07\00\00 \D4\EE\F1\07\82\FE\00\C8\1F\00\07\06\E7\01\00\00)8\09\08\E7\01\00\00)8\05\05W\05\00\08\10L\F0\07\C0\16\00\88\1F\00\06\06G\05\00\81\18L-\04\07\00\00 \D4\EE\07\07W\05\00\08\10L\F0\07\C0\16\00\C8\1F\00\08\08G\05\00\81\18L+\06\07\00\00 \D4\EE\09\09W\05\00\08\10L\B1\00\C0\FE\00\B4\1F\00.\08\07\00\00 \D4\EE\10\10\F7\FF\FF\FF\0F\1C\0F\10\F7\0F\80\03k[\F3\07\A0\FD\00\F4\1F\00\00\0074\00\00\F0\F0\07\02\F7\0F\80\03m[\0F\00\08i\00\00@\E2\F0\0F\22\FE\00\D4\1F\08\04\02g\05\00\81\D7K\00\00\80\1E\00\00\90\E2\06\02\07\05\00\00\10L\F2\07 \16\00\C4\1F\08\05\02w\05\80\7F\17\1A\0A\04\07\00\00 \D4\EE\02\06\E7\01\00\00)8\E1\07\A0\FE\00\C4\1F\08\03\06\07\05\00\00\10L\06\06g\05\00\81\18L\09\03\E7\01\00\00)8\F2\07\00\FE@\C4\1E\00\07\02w\05\00\08\10L\02\03g\05\00\81\18L0\06\07\00\00 \D4\EE\F5\07@\FC\00\C0\1F\08\08\03\07\05\00\00\10L\03\09w\05\00\08\10L/\08\E7\01\00\00)8\B1\01 \FEA\D4\1F\00\03\02\07\00\00 \D4\EE\04\08g\05\00\81\18L\09\08\07\05\00\00\10L\F2\07\00\FE@\C4\02\00\05/w\05\00\08\10L\0B\09\E7\01\00\00)8\04\04\07\00\00 \D4\EE\E6\07@\FE\00\D4\0A\00\08\09g\05\00\81\18L\09\0Bw\05\00\08\10L\08\08\07\00\00 \D4\EE\F3\07\C0\FE\00\C0\1F\00\00\00g4\00\00\F0\F0\0B+\B7\02\00\00h\\\0B-\D7\02\80\05\80Y\F6\07\C0\FC\00\B4\1F\00\00\00W4\00\00\F0\F0\0B.\E7\02\80\05\80Y\97\0B\07\80\80\03\BE6\F2\07\A0\E7\00\F4\\\00\0B\0B\0A\80K\00h8\0B\0BW\00\00\00\80P\02\0BG\00\00\00\80P\F1\17`\FE\00\F4\1C\00\02\02\0A\809\00h8\00\00G4\00\00\F0\F0\07\0AG\00\00\00\80P\F0\17`\FE\00\CC\1F\00\06\0A\07\00\88\03\81Q\00\0074\00\00\F0\F0\000\A7\00\00\00\88\\\E6\07\C0\FE\01\D8\1F\00\06\07g\00\80\03\80Y\050g\00\80\7F\80Y\07\0AW\00\00\18\81Y\F0\07\A0\FF\00\D8\9F\00\06\06w\00\80\02\80Y\0F\00\08\00\00\00\F8\F03\00\07\03\80\07\98\\\FD\07\01\FE\01\F4\1F\00@\00\00\85\00\00`\E2\06\00'\03\80\07\98\\\0F\00\07\00\00\00\F8\F0\F3\07\00\FEDD\1C\00\00\00'4\00\00\F0\F0\00\03\A7\00\00\00\88\\\05\0AG\00\00\00\80P\F1\07\C0\FE\01\D8\1F\00\00\00\80\06\00\00\90\E2\07\0A\07\00\88\02\81Q2\05w\00\80\02\80Y\E6\07\C0\FE\00\C0\1F\00\05\03'\03\80\7F\80Y\07\0AW\00\80\01\81Y\052w\00\80\02\80Y\FD\07\C0\FE\00\F4\1F\04\0F\00\08\00\00\00\F8\F03\007\00\80\07\98\\@\00\00|\00\00`\E2\F0\0F\A0\FF\00\CC\1F\00\05\00'\03\80\07\98\\\0F\00\07\00\00\00\F8\F0\00\00\174\00\00\F0\F0\F0\07\22\E2\00\C4\1F\00\00\04\A7\00\00\00\88\\\07\0AG\00\00\00\80P\00\00\00\07\00\00\90\E2\F6\0F\C0\FE\00\98\1F\00\09\0A\07\00\88\03\81Q2\07\97\00\80\03\80Y\09\04'\03\80\7F\80Y\F6\07\00\FE\00\F4\1F\00\07\0A\97\00\00\02\81Y\092w\00\80\04\80Y\0F\00\08\00\00\00\F8\F0\F6\07\A0\FF \C0?\003\00G\00\80\07\98\\@\00\80r\00\00`\E2\09\00'\03\80\07\98\\\FD\07\00\FE\00D\1C\00\0F\00\07\00\00\00\F8\F0\07\05W\00\00\00h\\3\0AG\00\00\00\80P\F0\07\A2\FE\00\D8\1F\001\0A\07\00?\00h8\00\00\00\0A\00\00\90\E2\07\06g\00\80\03\80Y\F6\07 \FE \94?\00\0B\09\97\00\80\03\80Y/\0B\17\03\00\04\81Y1\0A\07\00\88\19\81Q\F1\07\A0\FE\00\D8\1F\00\07/\C7\CC\CC\EC\03\1E43\17\03\80\19\80Y3\07733\FB\03\1E\F1\07\C0\FE\00\98\1F\00\003\A7\00\00\00\88\\147\03\80\7F\80Y2\0A\17\03\80\19\81Y\F0\07\A0\FF\00\F4\1F\0014'\03\80\18\80Y\0F\00\08\00\00\00\F8\F0@\00\00f\00\00`\E2\F0\0F\A0\FF\00\C4\1F\001\00'\03\80\07\98\\\0F\00\07\00\00\00\F8\F0\97\0B\07\80\80\03\BE6\F1\07 \FE\00\C4\1F\004\00\17\03\80\07\98\\\02\02\D7\CC\CC\E4\0B\1E\0A,\A7\00\00 X\\\F1\07(\FC\00\C4\1F\00//\17\00\08\04\80I\08#\87\00\00 X\\++\07\00?\00h8\F1\07\A0\FE\00\DC\1F\00\874\07\80\80\03\BE6\02\02\07\00?\00h8\0B\0B\0A\80K\00h8\1D\07\00\FE\00\F4 \00\0B\0BW\00\00\00\80P44\08\80K\00h82\0BG\00\00\00\80P\F0\0F\A0\E3\00\C0_\00\0B-\07\00?\00h844W\00\00\00\80P22\0A\809\00h86\08 \FC\00\D4?\0014G\00\00\00\80P3\1C'\03\00\00X\\4&7\00\00 X\\\F1\07\C0\FE\02\C4\1F\003\167\03\00\00X\\11\08\809\00h8317\03\00\00X\\\F5\07 \FC\00\C4\1F\001'\07\03\00 X\\3\027\03\00\00h\\\020g\00\80\03\80Y\F4\07 \FE@\C4\1F\000'\07\03\00\00X\\\0A3\A7\00\00\06\80Y\0C%G\00\00 X\\\F1\07\22\FC\00\C4\1F\0043G\03\00\07\80Y13\17\03\80\07\80Y\0E\1B'\00\00\00X\\\F1\07\22\FE\80\C4\1F\00\083\87\00\80\08\80Y\02/g\00\80\0A\80Y\0C3\C7\00\80\06\80Y\F1\07$\FC\00\C4\1F\08\0D\03g\00\00\0D\80Y\06\04g\00\80\0C\80Y\0E\0B\E7\00\80\18\80Y\F1\07$\FE@\C4\1F \11/\97\00\80\09\80Y\08\0B'\00\00\04\80Y\02\03W\00\80\03\80Y\F1\07 \FC\00\C4\1F\004\0B\D7\00\00\1A\80Y\07\04\97\00\80\03\80Y\0F\0D\B7\02\00\07\80Y\F1\07\22\FE\00\C4\1F\00\0A\0B\07\03\00\05\80Y\0D&7\00\00\00X\\\09/W\00\00\0A\80Y\F1\07 \FC\00\C4\1F\00\0C\0Bg\00\00\06\80Y\02\18'\00\00\00X\\\05\04W\00\80\0B\80Y\F1\07 \FE@\C4\1F\00\03.\07\00?\00h8\0A+\D7\00\00\05\80Y\04%G\00\00\00X\\\F1\07\22\FC\00\C4\1F\00\08+\97\00\00\04\80Y\02+'\00\00\1A\80Y\0D+W\00\00\06\80Y\F1\07 \FE\80\C4\1F\08.\12w\00\00\00X\\\0F\067\00\80\07\80Y\0C\03G\00\00\05\80Y\F1\07@\FC\00\C0\1F\00\11\03\17\01\00\04\80Y\0E\057\00\00\01\80Y\0D\03\E7\02\80\06\80Y\FD\07\A0\FD\01\F4\1F\00\0F\00\07\00\00\00@\E3\07\02\E7\FF\FF\03k7\0F\00\08\04\00\00@\E2\ED\07\A0\FF\00\C4\1F\0C\07\02\F7\FF\FF\03k7\0F\00\00\00\00\00@\E3\0F \D7\02\80\07\80Y\F1\07\02\FE\00\F4\1F\00\0E \B7\02\00\07\80Y\0D \E7\02\80\06\80Y\0F\00\07\00\00\00@\E3\F1\07@\FE\00\C0\1F\00\02\00\A7\05\80\07\98L\03\00\B7\05\80\07\98L\04\00'\06\80\07\98L\B1\07\00\FE\00\C4\1F\00<\02G\00\00 \D4\EE\05\007\06\80\07\98L/\02\87\00\00 \D4\EE\F0\07 \FE\00\C0\1F\00\06\00\C7\05\80\07\98L4\02\C7\00\00 \D4\EE\07\00\D7\05\80\07\98L\B1\07\00\FE\00\C4\1F\00>\04\07\00\00 \D4\EE\08\00\E7\05\80\07\98L2\04G\00\00 \D4\EE\F0\07 \F6\00\C0\1F\00\09\00\F7\05\80\07\98L:\06\07\00\00 \D4\EE\0A\00\07\06\80\07\98L\F1\07\00\FE\00\C4\1E\003\06G\00\00 \D4\EE\0B\00\17\06\80\07\98L5\08\07\00\00 \D4\EE\F3\07\00\FE\00\C4\1F\00\00\00G4\00\00\F0\F0?-\07\00?\00h81\08G\00\00 \D4\EE\F0\07 \F6\00\C4\1E\00..\07\00?\00h86\0A\07\00\00 \D4\EE0\0AG\00\00 \D4\EE\B1\00 \F6\00\C4\1E\008\04\87\00\00 \D4\EE7\06\87\00\00 \D4\EE9\08\87\00\00 \D4\EE\BD\07 \FC\01\CC\1F\00;\0A\87\00\00 \D4\EE\04+\07\00?\00h8\00\00W4\00\00\F0\F0\F1\07 \FE\00\C4\1F\00-'\C7\03\00\00X\\>\15\E7\03\00\00X\\:\1B\A7\03\00\00X\\\F1\07@\FC\00\C4\1F\085\1AW\03\00\00X\\6\19g\03\00\00X\\-?\D7\02\00\06\80Y\F1\07\22\FE@\C4\1F\08>?\E7\03\80\08\80Y:?\A7\03\80\07\80Y5?W\03\00\07\80Y\F1\07 \FC\00\C4\1F\00/&\F7\02\00\00X\\6?g\03\80\06\80Y\03\14'\03\00\00X\\\F1\07\00\FE\00\CC\1F\003\1A7\03\00\00X\\\02\18\17\03\00\00X\\\00\00\174\00\00\F0\F0\F1\07 \FE\00\84\1F\000\17\07\03\00\00X\\-\04\F7\02\80\16\80Y4%G\03\00\00X\\\F1\07\22\FE@\C4\1F\08\03\047\00\00\1F\80Y3\047\03\00\1D\80Y\02\04'\00\80\1A\80Y\F1\07 \FE\00\84\1F\000\04\07\03\00\1B\80Y8\13\87\03\00\00X\\\04\19w\03\00\00X\\\F1\07 \FE \C8\1F\089\17\97\03\00\00X\\;\12\B7\03\00\00X\\\0C.G\03\80\16\80Y\F1\07\22\FE@\84\1F\00\11.\87\03\80\01\80Y\0F.G\00\80\19\80Y\0E.\97\03\00\01\80Y\F0\07\A0\FF\00\C0\1F\00\0D.\B7\03\00\18\80Y\0F\00\07\00\00\00@\E3\1E\1E\07\05\00\00\10L\FD\07 \FE@\D4\1F\00\0F\00\81V\FF\0F@\E2\02)\87\05\00\81\D7K\05\00\07\05\80\07\98L\F2\07\00\FE@\D8\1F\00\03)\97\05\00\11\17\1A\08*\87\05\00\81\D7K\0C\02\07\00\00 \DC\EE\F1\07\C0\FC\00\C4\1F\00\09*\97\05\80\10\17\1A\06(\87\05\00\81\D7K\07(\97\05\80\0F\17\1A\F6\07B\FE\00\C0\1F\08\04\05'\00\00\81\D7[\05\057 @\00\DF[\0A$\87\05\00\81\D7K\F6\07\00\FE\00\C4\1F\00\0F\04\07\00\00 \DC\EE\0B$\97\05\80\0E\17\1A\0E\08\07\00\00 \DC\EE\F1\07\A0\FE\00\FC\1F\00\0D\06\07\00\00 \DC\EE\11\0A\07\00\00 \DC\EE\0F\00\07\00\00\00\00\E3\F0\07 \FE\00\C4\1F\002\0Aw\81\00\00\008\00\00\80@\00\00\A0\E25\00\A7\00\80\07\98\\\F4\07@\FE\00\D0\1F\0043w\81\00\00\00872\F7\FF\FF\FF\0F\1C84\F7\FF\FF\FF\0F\1C\ED\07\A0\FD\00\C0\1F\00\077\D7\0F\80\03h6\078\D7\0F\00 h61\00\F8\0F\80\07\98\\\FD\07 \FE\00\D8\1F\00\0F\00\08\10\00\00@\E213\07\80\FF\03\CC06\0A\07\80\FF\03\CC0\ED\07\A0\FF\00\D8\1F\00\FF1g\03\002@\\\0F\00\807\00\00@\E26\00'\00\88\07\98L\ED\07\A0\FF\00\C4\1F\00\FF5g\83\BC\19\E0[\0F\00\883\00\00@\E2\FF3\07\80\FF\83\CD0\ED\07\00\FE\00\B4\1F\00\9F\0A\07\80\FF\83\BD6\873\07\80\FF\83\BD6\02\00\0B1\00\00@\E2\ED\07\A0\FD\00\F4\1F\00\FF3'\00\080BL\17\B0\07A\81\03\90P\0F\00\82-\00\00@\E2\ED\07\A0\FD\00\F4\1F\00\FF5'\00\080BL\07\80\07A\81\03\90P\0F\00\80)\00\00@\E2\F1\07\80\FD\00\C4\1F\00\078\F7\0F\80\03m[\177\F7\0F\80\03m[1\00\F0\0F\80\07\98\\\F1\07 \FE\00\D0\1F\001\F0\08\FC\FF\FF\0F\0133\08\80\DF\7F\8025\0A\0A\80\DF\7F\802\E6\07\00\FE\00\C4\1F\0011\0A\04\00\00\00\1C62\07\00\00\08\EC\16\00\00\00#\00\00\A0\E2\F5\07@\FE\00\C0\1F\0844\17\F8\FF\FF\0F\1C76W\03\00\00\12\\847\03\80\0B\1A\\\11\07`\FE\00\8C\1F\0067G\00\00\00\80P44\F7\07\00\19\C2857\F7\0F\000Y\\\F3\07\C0\FEA\D8\1F\0044\17\03\00\00\10\\96\07\00\88\1A\80Q36\97\03\00\1B\80Y\F6\07\C0\FE\00\F4\1F\00687\03\80\7F\80Y95g\03\00\1C\80Y63\97\03\00\1B\80Y\E6\07\C0\FE\00\D8\1F\0055g\03\00\1C\80Y23W\03\00\1B\80Y12w\81\00\00\008\F6\07\C0\FE\00\B4\1F\0011G\03\00\00\10\\71\F7\FF\FF\FF\0F\1C\077\E7\0F\80\03l6\FD\07\A0\FD\00\F4\1F\00\0F\00\88\14\00\00@\E2\071\E7\0F\80\03i6\0F\00\80\11\00\00@\E2\ED\07\A0\FF\00\B4\1F\00\071\17\00\80\03m6\0F\00\00\00\00\00@\E3\071\87\FE\FF\03m7\F0\07\A0\FF\00\C4\1F822\07\00\00\00\08\04\0F\00\08\00\00\00@\E343W\03\00\1B\98Y\F1\07\22\FE@\C4\1F8\171\F7\0F\80\03k[91\07\02\00\00\00\1C73W\03\00\1B\90Y\F1\07 \FC\00\D0\1F\0053W\03\00\1B\88Y31\F7\0F\00\00\12\\44\F7\FF\FF\07\00\04\F2\07 \FE\00\D4\1F\00\077W\03\80\83\BD[44\07\00\00\08 \0413\F7\0F\80\18K[\F1\07\A2\FC\00\C4\1F\0094\97\03\00\00H\\14\17\03\00\00(\\\179\F7\0F\00\01k[\EC\07\A0\FD\00\F4\1F\0041\17\00\00\00(8\07\00\07A\80\03\90P3\FF\17\00\00\04\A08\F6\07\C0\FE\00\D8\1F\0033\17\00\00\1A\F8<33\17\03\00\00G\\347\03\00\00\10\\\F0\07\A0\FF\00\D8\1F\0023'\03\00\02G\\\0F\00\07\00\00\00@\E322\07\00\00\00\08\04\F0\07\A0\FF\00\C0\1F\0022\07\00\00\F8'\04\0F\00\07\00\00\00@\E324'\03\80\0B\18\\\FD\07\A0\FF\00\D8\1F\00\0F\00\07\00\00\00@\E3\0F\00\07\00\00\00@\E3257\00\88\19H\02\F0\07\A0\FF\00\C0\1F\0022\07\00\00\F8'\04\0F\00\07\00\00\00@\E3257\00\88\19H\02\FD\07@\FE\00D\1C\00\0F\00\07\00\00\00@\E32\F0\07\00\00\FC\0F\0122W\00\00\00\80P\FD\07\00\FE\00\F4\1F\00\0F\00\07\00\00\00@\E323\A7\00\00\10X\\\0F\00\07\00\00\00@\E3\FF\07\E0\FF\00\80\1F\00\0F\00\07\00\00\00 \E3\0F\00\87\FF\FF\0F@\E2\00\0F\07\00\00\00\B0P\F6\07\00\FE\00D\1C\00\01\00\87\00\80\07\98L\06\00\07\05\80\07\98L\03\00W\02\00\00\C8\F0\F0\07 \FE\00\FC\1C\00\07\00\07\05\80\07\98L\00\00\00\1C\00\00\90\E2\00\00\17\02\00\00\C8\F0\F1\0F\C2\FEB\D8\1F\00\02\03'\00\80\7F\10O\00\03'\00\00\00\00N\03\03'\00\18\000[\E1\07\A0\FE\00\D8\1F\00\00\03'\00\00\00H8\0E\03\E7\01\00\00)8\04\00'\05\00\80\10L\F2\07 \F6\00\C4\1F\00\05\0E7\05\00\08\10L\02\04\07\00\00 \D4\EE\03\067\00\80\00\18\\\E1\07\80\FE\00\C8\1F\08\06\07G\00\00\81\18\\\07\07\E7\01\00\00)8\09\03\E7\01\00\00)8\F2\07\00\FE@\C4\1E\00\07\07W\00\00\08\10\\\08\03'\05\00\81\18L\07\06\07\00\00 \D4\EE\F5\07@\FC\00\C0\1F\08\03\03\07\05\00\00\10L\09\097\05\00\08\10L\0B\03\E7\01\00\00)8\B1\00 \FE@\D4\1F\00\05\08\07\00\00 \D4\EE\0C\03\07\05\00\00\10L\0A\03'\05\00\81\18L\F1\07B\FE\00\C0\1F\00\03\0C\E7\01\00\00)8\0B\0B7\05\00\08\10L\0C\0C'\05\00\81\18L\B6\00@\FC\00\D4\02\00\04\0A\07\00\00 \D4\EE\0D\037\05\00\08\10L\03\0C\07\00\00 \D4\EE\F3\07\A0\E7\00\C0_\00\00\00G4\00\00\F0\F0\0F\02G\00\00\00\80P\10\02\07\00\88\07\81Q\F3\07`\FE@\D8\1F\00\00\0074\00\00\F0\F0\00\07'\00\00\00\88\\\10\0F\07\01\80\07\80Y\E6\07\C0\FE\00\C0\1F\00\11\07\07\01\80\7F\80Y\06\02\17\01\80\03\81Y\06\10g\00\80\08\80Y\FD\07\C0\FE\01\F4\1F\04\0F\00\08\00\00\00\F8\F0\0A\00w\00\80\07\98\\@\00\80;\00\00`\E2\F0\0F\A0\FF\00\CC\1F\00\06\00\87\00\80\07\98\\\0F\00\07\00\00\00\F8\F0\00\00'4\00\00\F0\F0\F0\0F\22\E2\00\C4\1F\00\00\05'\00\00\00\88\\\07\02G\00\00\00\80P\00\00\00\07\00\00\90\E2\F6\0F\C0\FE\00\98\1F\00\08\02\07\00\88\03\81Q\0A\07\87\00\80\03\80Y\07\05\A7\00\80\7F\80Y\F6\07\00\FE\00\F4\1F\00\08\02w\00\80\02\81Y\07\0A\87\00\80\03\80Y\0F\00\08\00\00\00\F8\F0\F6\07\A0\FF \C0?\00\0A\00W\00\80\07\98\\@\00\002\00\00`\E2\07\00\87\00\80\07\98\\\FD\07`\FE\00\C0\1F\08\0F\00\07\00\00\00\F8\F0\00\00\174\00\00\F0\F0\00\04'\00\00\00\88\\\11\07 \FE\00\D8?\00\05\02G\00\00\00\80P\00\00\80\06\00\00\90\E2\08\02\07\00\88\02\81Q\F6\07\C0\FC\00\D8\1F\00\0A\05\87\00\80\02\80Y\05\04\A7\00\80\7F\80Y\08\02W\00\00\02\81Y\F0\07\A0\FF\00\D8\1F\00\05\0A\87\00\80\02\80Y\0F\00\08\00\00\00\F8\F0\0A\00G\00\80\07\98\\\FD\07\01\FE\01\F4\1F\00@\00\80(\00\00`\E2\05\00\87\00\80\07\98\\\0F\00\07\00\00\00\F8\F0\F0\07\C0\E2\00\C0\1F\00\07\07w\00\00\00h\\\08\02G\00\00\00\80P\07\06g\00\80\03\80Y\F1\07\A0\FE@\C4\1F\00\00\00\00\0A\00\00\90\E2\06\02\07\00?\00h8\04\05W\00\80\03\80Y\F5\0F \FC \D4\1F\00\05\02\07\00\08\04\81Q\03\04g\00\80\01\81Y\08\08W\00\00\04\80Y\F6\07\C0\FE\00\C4\1F\00\03\03\C7\CC\CC\EC\03\1E\0A\03733\FB\03\1E\00\0A'\00\00\00\88\\\F6\07\C0\FC\00\C0\1F\00\03\08\A7\00\80\7F\80Y\05\027\00\00\05\81Y\05\08W\00\80\01\80Y\FD\07\A0\FF\00\C0?\00\0F\00\08\00\00\00\F8\F0@\00\00\1C\00\00`\E2\05\00\87\00\80\07\98\\\FD\07\00\FE\00\D8\1F\00\0F\00\07\00\00\00\F8\F0\02\00G\05\00\80\10L\00\00\00\17\00\00\90\E2\F2\07 \16\00\C4\1F\00\03\0EW\05\00\08\10L\06\02\07\00\00 \D4\EE\07\00W\00\80\07\98\\\F5\07\00\FD\00\C8\1F\00\97\04\07\80\80\03\BE6\87\07\07\80\80\03\BE6\04\04\0A\80K\00h83\07@\FE\00t\1C\00\04\04W\00\00\00\80P\07\07\08\80K\00h8\07\07W\00\00\00\80PQ\11 \E2\01\84_\00\05\04G\00\00\00\80P\02\07G\00\00\00\80P\04\F0\07\00\00\F0\03\01\F1'\C0\FE\01\C4\1F\00\05\05\0A\809\00h8\02\02\08\809\00h8\02\02W\00\00\00X\\\ED\07A\FE\00t\1C\00\8F\06\07\80\80\03\BE6\06\06\09\80K\00h8\06\06W\00\00\00\80P\1D\0F\C0\FE\01\88\1F\00\03\06G\00\00\00\80P\03\03\09\809\00h8\05\03'\00\00\00h\\\14\07 \FE\00\D8?\08\02\05G\00\00\00\80P\00\04W\00\00\00\88\\\03\05\07\00\08\01\81Q\F6\07\C0\FE\00\98\1F\00\03\027\00\00\01\80Y\02\03\07\00\BF\7F\802\04\05\17\00\08\01\81Q\F0\07\A0\FF\00\C4\1F\00\04\03G\00\00\01\80Y\0F\00\08\00\00\00\F8\F0\02\00W\00\80\07\98\\\F6\07\A0\FF\00\C0?\00\0A\F0\07\00\00\F0\03\01@\00\00\04\00\00`\E2\04\00\87\00\80\07\98\\\FD\07\C0\FE\00\C8\1F\00\0F\00\07\00\00\00\F8\F0\02\00g\05\00\80\10L\03\0Ew\05\00\08\10L\F5\07\E0\FF\00\C0\1F\00\04\02\07\00\00 \DC\EE\0F\00\07\00\00\00\00\E3\08\02w\81\00\00\008\F1\07 \FE\00\D0\1F\00\00\00\80@\00\00\A0\E2\0B\00'\00\80\07\98\\\10\0Aw\81\00\00\008\F2\07\80\FE\00\B4\1F\00\0F\08\F7\FF\FF\FF\0F\1C\0D\10\F7\FF\FF\FF\0F\1C\07\0F\D7\0F\80\03h6\ED\07\00\FE\00\F4\1F\00\07\0D\D7\0F\00 h6\09\00\F8\0F\80\07\98\\\0F\00\08\10\00\00@\E2\F1\07\C0\FE\00\B4\1F\00\09\0A\07\80\FF\03\CC0\0C\02\07\80\FF\03\CC0\FF\09\C7\00\002@\\\FD\07\C0\FE\00\B4\1F\00\0F\00\007\00\00@\E2\09\00'\00\88\07\98L\FF\0B\97\80<\05\E0[\FD\07 \FE\00\B4\1F\00\0F\00\083\00\00@\E2\FF\0A\07\80\FF\83\CD0\97\02\07\80\FF\83\BD6\F0\07\A0\FD\00\B4\1F\00\87\0A\07\80\FF\83\BD6\02\00\8A0\00\00@\E2\FF\0A'\00\080AL\ED\07\A0\FF\00\B4\1F\00\0F\A0\07!\81\03\90P\0F\00\81-\00\00@\E2\FF\0B'\00\080AL\ED\07\A0\FF\00\C4\1F\00\07\80\07!\81\03\90P\0F\00\80)\00\00@\E2\07\0D\F7\0F\80\03m[\EC\07 \FE\00\C4\1F\00\0F\0F\F7\0F\80\03m[\09\00\F0\0F\80\07\98\\\09\F0\08\FC\FF\FF\0F\01\F1\07\80\FE\00\98\1F\00\0A\0A\08\80\DF\7F\802\0B\02\09\80\DF\7F\802\09\09\09\04\00\00\00\1C\F0\07\C0\FE\00\C8\1F\00\0C\08\07\00\00\08\EC\16\00\00\80\22\00\00\A0\E2\0C\0C\B7\00\00\00\12\\\F0\07\80\E2\00\C8\1F\00\0B\10\17\F8\FF\FF\0F\1C\0D\0CG\00\00\00\80P\0F\0C\F7\0F\000Y\\\F1\07b\FC\00\CC?\08\0A\0B\A7\00\80\0B\1A\\\0B\0B\F7\07\00\04\C28\10\0D\07\00\88\07\80Q\F3\07\C0\FE\00\D8\1F\00\0B\0B\97\00\00\00\10\\\13\0D\07\01\80\06\80Y\0D\0A7\01\80\7F\80Y\F6\07\A0\FF\00\98\1F\00\10\0F\D7\00\00\05\80Y\10\13\07\01\80\06\80Y\0A\0F\07\01\00\05\80Y\F6\07\C0\FE\00\D8\1F\00\08\13\A7\00\00\08\80Y\09\08w\81\00\00\008\0F\09\B7\00\00\00\10\\\F6\07\A0\FD\00\F4\1F\00\09\0F\F7\FF\FF\FF\0F\1C\07\09\E7\0F\80\03l6\0F\00\08\15\00\00@\E2\ED\07\A0\FF\00\B4\1F\00\07\0F\E7\0F\80\03i6\0F\00\80\11\00\00@\E2\07\0F\17\00\80\03m6\FD\07\A0\FD\00\C0\1F\00\0F\00\00\00\00\00@\E3\07\0F\87\FE\FF\03m7\08\08\07\00\00\00\08\04\FD\07 \FE\C0\C5\1F\08\0F\00\08\00\00\00@\E3\09\13\A7\00\00\08\98Y\0F\0F\F7\0F\80\03k[\F4\07\C0\FE\00\C4\1F\00\0C\0F\07\02\00\00\00\1C\09\09\F7\FF\FF\07\00\04\0B\09\07\00\00\08 \04\E1\07\80\FE\00\C8\1F\00\09\13\A7\00\00\08\90Y\0A\13\A7\00\00\08\88Y\0C\0B\C7\00\00\00H\\\F1\07`\FE\00\CC\1F\00\07\09\A7\00\80\83\BD[\09\0F\F7\0F\00\00\12\\\0F\0C\F7\0F\80\00k[\E6\07\80\FE\00\C8\1F\00\09\09\F7\0F\80\07K[\09\0B\97\00\00\00(\\\07\00\07!\80\03\90P\FB\07\A0\FF\00\D8\1F\00\0B\09\17\00\00\00(8\0A\FF\17\00\00\04\A08\0A\0A\17\00\80\05\F8<\F6\07\C0\FC\00\C0\1F\00\0A\0A\97\00\00\00G\\\0A\0B\A7\00\00\00\10\\\08\0A\87\00\00\02G\\\FD\07\C0\FE\00\C0\1F\00\0F\00\07\00\00\00@\E3\08\08\07\00\00\00\08\04\08\08\07\00\00\F8'\04\FD\07\00\FE\00\F4\1F\00\0F\00\07\00\00\00@\E3\08\0B\87\00\80\0B\18\\\0F\00\07\00\00\00@\E3\FD\07\C0\FE\00\C0\1F\00\0F\00\07\00\00\00@\E3\08\0B7\00\08\05H\02\08\08\07\00\00\F8'\04\FD\07\00\FE\00\F4\1F\00\0F\00\07\00\00\00@\E3\08\0B7\00\08\05H\02\0F\00\07\00\00\00@\E3\F2\07 \E2\00\F4\1F\00\08\F0\07\00\00\FC\0F\01\08\08W\00\00\00\80P\0F\00\07\00\00\00@\E3\F0\07\A0\FF\00\FC\1F\00\08\0A'\00\00\10X\\\0F\00\07\00\00\00@\E3\0F\00\07\00\00\00 \E3\FF\07\00\FC\00\80\1F\00\0F\00\07\FF\FF\0F@\E2\00\0F\07\00\00\00\B0P\00\0F\07\00\00\00\B0P\E0\07\00\FC\00\80\1F\00\00\0F\07\00\00\00\B0P\00\0F\07\00\00\00\B0P\00\0F\07\00\00\00\B0P\F6\07\00\FE\00D\1C\00\01\00\87\00\80\07\98L\02\00G\05\80\07\98L\00\00W\02\00\00\C8\F0\F0\07@\E6\00\C0\1F\00\03\00W\05\80\07\98L\05\00\17\02\00\00\C8\F0\0B\00\07\05\80\07\98L\BF\07 \FEA\D8_\08\09\02\07\00\00 \D4\EE\06\00'\00\80\7F\10O\05\00'\00\80\02\00N\F6\07 \FC\00\D8\1F\00\00\00g\00\98\020[\05\00\E7\01\00\00)8\04\00'\05\00\81\18L\F7\07 \FE \C4\1E\00\05\057\05\00\08\10L\09\04\07\00\00 \DC\EE\08\02G\00\00 \D4\EE\F6\07 \FC\00\D8\1F\00\06\00\07\05\80\07\98L\07\06\E7\01\00\00)8\06\06G\00\00\81\18\\\F7\07 \FE \C4\1E\00\07\07W\00\00\08\10\\\08\06\07\00\00 \DC\EE\0A\02\87\00\00 \D4\EE\F6\07 \FC\00\D8\1F\08\00\0B\07\00\80\00\18\\\0B\00\E7\01\00\00)8\04\00'\05\00\81\18L\F7\07 \FE \C4\1E\00\05\0B7\05\00\08\10L\0A\04\07\00\00 \DC\EE\0B\02\C7\00\00 \D4\EE\F6\07 \FC\00\D8\1F\08\00\00\07\05\00\00\10L\09\00\E7\01\00\00)8\06\00'\05\00\81\18L\F7\07 \FE \C4\1E\00\07\097\05\00\08\10L\0B\06\07\00\00 \DC\EE\0D\02\07\01\00 \D4\EE\F6\07 \FC\00\D8\1F\00\00\00\07\05\00\00\10L\09\00\E7\01\00\00)8\08\00'\05\00\81\18L\F7\07 \FE \FC\1F\00\09\097\05\00\08\10L\0D\08\07\00\00 \DC\EE\0F\00\07\00\00\00\00\E3\FF\07\00\FC\00\80\1F\00\0F\00\07\FF\FF\0F@\E2\00\0F\07\00\00\00\B0P\00\0F\07\00\00\00\B0P\00\00\00\00\00\00\00\00\00\00\00\00\00\00\00\00\00\00\00\00\00\00\00\00\00\00\00\00\00\00\00\00\00\00\00\00\00\00\00\00\00\00\00\00\00\00\00\00\00\00\00\00\00\00\00\00\00\00\00\00\00\00\00\00\01\00\00\00\03\00\00\00\00\00\00\00\00\00\00\00\00\00\00\00\00\00\00\00@\00\00\00\00\00\00\00L\04\00\00\00\00\00\00\00\00\00\00\00\00\00\00\01\00\00\00\00\00\00\00\00\00\00\00\00\00\00\00\0B\00\00\00\03\00\00\00\00\00\00\00\00\00\00\00\00\00\00\00\00\00\00\00\8C\04\00\00\00\00\00\00\E8\05\00\00\00\00\00\00\00\00\00\00\00\00\00\00\01\00\00\00\00\00\00\00\00\00\00\00\00\00\00\00\13\00\00\00\02\00\00\00\00\00\00\00\00\00\00\00\00\00\00\00\00\00\00\00x\0A\00\00\00\00\00\00\10\02\00\00\00\00\00\00\02\00\00\00\12\00\00\00\08\00\00\00\00\00\00\00\18\00\00\00\00\00\00\00\F2\03\00\00\01\00\00\00\00\00\00\00\00\00\00\00\00\00\00\00\00\00\00\00\88\0C\00\00\00\00\00\00\CD\05\00\00\00\00\00\00\00\00\00\00\00\00\00\00\01\00\00\00\00\00\00\00\00\00\00\00\00\00\00\00\0E\04\00\00\01\00\00\00\00\00\00\00\00\00\00\00\00\00\00\00\00\00\00\00U\12\00\00\00\00\00\00\A0\05\00\00\00\00\00\00\00\00\00\00\00\00\00\00\01\00\00\00\00\00\00\00\00\00\00\00\00\00\00\00:\04\00\00\01\00\00\00\00\00\00\00\00\00\00\00\00\00\00\00\00\00\00\00\F5\17\00\00\00\00\00\00\B8B\00\00\00\00\00\00\00\00\00\00\00\00\00\00\01\00\00\00\00\00\00\00\00\00\00\00\00\00\00\007\00\00\00\00\00\00p\00\00\00\00\00\00\00\00\00\00\00\00\00\00\00\00\B0Z\00\00\00\00\00\00,\01\00\00\00\00\00\00\05\00\00\00\00\00\00\00\04\00\00\00\00\00\00\00\00\00\00\00\00\00\00\00c\00\00\00\00\00\00p\00\00\00\00\00\00\00\00\00\00\00\00\00\00\00\00\DC[\00\00\00\00\00\00`\01\00\00\00\00\00\00\05\00\00\00\15\00\00\00\04\00\00\00\00\00\00\00\00\00\00\00\00\00\00\00D\01\00\00\00\00\00p\00\00\00\00\00\00\00\00\00\00\00\00\00\00\00\00<]\00\00\00\00\00\00\C0\02\00\00\00\00\00\00\05\00\00\00\16\00\00\00\04\00\00\00\00\00\00\00\00\00\00\00\00\00\00\00z\02\00\00\00\00\00p\00\00\00\00\00\00\00\00\00\00\00\00\00\00\00\00\FC_\00\00\00\00\00\00\C0\01\00\00\00\00\00\00\05\00\00\00\17\00\00\00\04\00\00\00\00\00\00\00\00\00\00\00\00\00\00\00d\03\00\00\00\00\00p\00\00\00\00\00\00\00\00\00\00\00\00\00\00\00\00\BCa\00\00\00\00\00\00d\00\00\00\00\00\00\00\05\00\00\00\18\00\00\00\04\00\00\00\00\00\00\00\00\00\00\00\00\00\00\00\FE\03\00\00\09\00\00\00\00\00\00\00\00\00\00\00\00\00\00\00\00\00\00\00 b\00\00\00\00\00\00@\00\00\00\00\00\00\00\05\00\00\00\04\00\00\00\08\00\00\00\00\00\00\00\10\00\00\00\00\00\00\00\22\04\00\00\09\00\00\00\00\00\00\00\00\00\00\00\00\00\00\00\00\00\00\00`b\00\00\00\00\00\00@\00\00\00\00\00\00\00\05\00\00\00\05\00\00\00\08\00\00\00\00\00\00\00\10\00\00\00\00\00\00\00\B1\00\00\00\01\00\00\00\02\00\00\00\00\00\00\00\00\00\00\00\00\00\00\00\A0b\00\00\00\00\00\00\0C\00\00\00\00\00\00\00\00\00\00\00\15\00\00\00\04\00\00\00\00\00\00\00\00\00\00\00\00\00\00\00\DC\00\00\00\01\00\00\00\02\00\00\00\00\00\00\00\00\00\00\00\00\00\00\00\ACb\00\00\00\00\00\00h\01\00\00\00\00\00\00\00\00\00\00\15\00\00\00\04\00\00\00\00\00\00\00\00\00\00\00\00\00\00\00\C6\01\00\00\01\00\00\00\02\00\00\00\00\00\00\00\00\00\00\00\00\00\00\00\14d\00\00\00\00\00\00\10\00\00\00\00\00\00\00\00\00\00\00\16\00\00\00\04\00\00\00\00\00\00\00\00\00\00\00\00\00\00\00\0B\02\00\00\01\00\00\00\02\00\00\00\00\00\00\00\00\00\00\00\00\00\00\00$d\00\00\00\00\00\00\90\01\00\00\00\00\00\00\00\00\00\00\16\00\00\00\04\00\00\00\00\00\00\00\00\00\00\00\00\00\00\00\D6\02\00\00\01\00\00\00\02\00\00\00\00\00\00\00\00\00\00\00\00\00\00\00\B4e\00\00\00\00\00\00\10\00\00\00\00\00\00\00\00\00\00\00\17\00\00\00\04\00\00\00\00\00\00\00\00\00\00\00\00\00\00\00\08\03\00\00\01\00\00\00\02\00\00\00\00\00\00\00\00\00\00\00\00\00\00\00\C4e\00\00\00\00\00\00`\01\00\00\00\00\00\00\00\00\00\00\17\00\00\00\04\00\00\00\00\00\00\00\00\00\00\00\00\00\00\00\C0\03\00\00\01\00\00\00\02\00\00\00\00\00\00\00\00\00\00\00\00\00\00\00$g\00\00\00\00\00\00X\01\00\00\00\00\00\00\00\00\00\00\18\00\00\00\04\00\00\00\00\00\00\00\00\00\00\00\00\00\00\00@\00\00\00\01\00\00\00\06\00\00\00\00\00\00\00\00\00\00\00\00\00\00\00\80h\00\00\00\00\00\00@\08\00\00\00\00\00\00\05\00\00\00\12\00\00\18 \00\00\00\00\00\00\00\00\00\00\00\00\00\00\00\07\01\00\00\01\00\00\00\06\00\00\00\00\00\00\00\00\00\00\00\00\00\00\00\C0p\00\00\00\00\00\00\00\15\00\00\00\00\00\00\05\00\00\00\13\00\00@ \00\00\00\00\00\00\00\00\00\00\00\00\00\00\00P\02\00\00\01\00\00\00\06\00\00\00\00\00\00\00\00\00\00\00\00\00\00\00\C0\85\00\00\00\00\00\00\00\0A\00\00\00\00\00\00\05\00\00\00\14\00\00\14 \00\00\00\00\00\00\00\00\00\00\00\00\00\00\00:\03\00\00\01\00\00\00\06\00\00\00\00\00\00\00\00\00\00\00\00\00\00\00\C0\8F\00\00\00\00\00\00\C0\01\00\00\00\00\00\00\05\00\00\00\15\00\00\0E \00\00\00\00\00\00\00\00\00\00\00\00\00\00\00\06\00\00\00\05\00\00\00\C0\97\00\00\00\00\00\00\00\00\00\00\00\00\00\00\00\00\00\00\00\00\00\00\A8\00\00\00\00\00\00\00\A8\00\00\00\00\00\00\00\08\00\00\00\00\00\00\00\01\00\00\00\05\00\00\00\A0b\00\00\00\00\00\00\00\00\00\00\00\00\00\00\00\00\00\00\00\00\00\00\E0.\00\00\00\00\00\00\E0.\00\00\00\00\00\00\08\00\00\00\00\00\00\00\01\00\00\00\05\00\00\00\C0\97\00\00\00\00\00\00\00\00\00\00\00\00\00\00\00\00\00\00\00\00\00\00\A8\00\00\00\00\00\00\00\A8\00\00\00\00\00\00\00\08\00\00\00\00\00\00\00\01\00\01\01H\00\00\008\18\00\00\00\00\00\004\18\00\00@\00\00\00\01\00\08\002\00\00\00\00\00\00\00\00\00\00\00\11 \00\00\00\00\00\00\00\00\00\00\00\00\00\00\1CQ\00\00\00\00\00\00\00\00\00\00\00\00\00\00\FFe\0A\0A\0A\0A.version 8.1\0A.target sm_50\0A.address_size 64\0A\0A\0A \0A.visible .entry _Z25cuda_initialize_variablesiPfPKf(\0A.param .u321\00\11\11_/\006_0,9\00/649\00\18\1F19\00%\F3\082\0A)\0A{\0A.reg .b32 %r<10>;\12\00\10f\12\005f<6\11\00\A0b64 %rd<15\13\00\FB\0Eloc\091 139 0 \0A$L__func_begin0:\1F\00R\0A\0A\09ld\A4\00\01\15\01o%r1, [\A9\00\17F0];\0AA\00\02\87\00\0FB\00\1B\F4\032];\0Acvta.to.globalH\00!2,N\00\0Ea\00\1F3a\00\1A\1F1a\00\06\114a\00!3;%\014tmp\1E\01\E32 79 180 \0A\09mov\18\01\00\8E\00entid.x0\00\1510\00-660\00y3, %cta1\00\1521\00-531\00\00\8E\00\0A`\00\163\AE\01P40 42/\00qad.lo.s2\00#5,\98\00\01m\00&r4\FC\01a42 31 \DC\01\03\F3\00\024\02\00\9B\01\00Z\01\19]+\00\105Y\00sul.wide[\002d5,a\00\824;\0Aadd.s2\01&6,8\01\195D\00x29 \0A\09sto\00\00j\0006],w\00\0F\9A\00\0F\132\9A\00*+4\9C\00Q17 \0A\09\82\00\01\98\00$6,\F8\00\1F1\C3\00\0E\117'\00\0C\C3\00&8,\C9\00\1F7\C3\00\11\118\C3\00\1F2\C3\00\0F\143\C3\00\1F8\C3\00\0A\01\97\00\1F6\C3\00\13\229,1\00\0A\C3\00'10\87\01\1F9\C4\00\11!10\C5\00\1F3\C5\00\0F\144\C5\00/12\C6\00\0A\01G\01\1F7\C6\00\13211,2\00\0B\C7\00\172\C7\00/11\C8\00\12\112\C8\00\0F\EA\02\10\155\C8\00\1F6\C8\00\0A\01b\01\1F8\C8\00\14\01g\03\1D9\C8\00\184\C8\00\1F3\C8\00\12\114\C8\00\08C\03 3 \C7\005ret\FF\03&4:\BE\05\9Fend0:\0A\0A}\0A\F8\06\01\114\09\05\FD\0Bcompute_step_factoriPfS_S_\F8\06\0F1\00\0D\0F\F8\06\02\0F9\00\18\1F19\00%\1F29\00%O3\0A) 2\07\0F\1F23\07\00&9>\85\01.953\07+1:\1F\00\0F3\07\03\0FV\01\18\0F3\07\00\0FB\00\1B\1F33\07&\0Fa\00\14\1F1\A3\00\00\1F4B\00\1A\1F2\A3\00\06\125-\03\0F\1F\00\05\1B6\94\07\1F5\94\07\1C\1F6\94\07\1D\1F7\94\07\1B\178\0F\02\1F6\94\07\1A_98 19\A7\06\05\1F5\A7\06\0C\0F\C9\07\04\07j\06o200 28-\07\0E\00'\00/16k\06\05\1F1k\06\04\148k\06\0F\B7\07\04(10\89\00\1C1\89\00\0F\F3\06\01\00'\00/16.\06\06\1F7.\06\04$6,.\06\0F\7F\07\04\08\B8\06<202\8B\00\01\CA\00\1C7\8B\00\1E2\8B\00\06\F1\05\1F8\F1\05\04\156\F1\05\0FE\07\04(14\8B\00O4 38{\06\0E\00'\00\1F2\8B\00\02\1F5|\06\03\186\8B\00?5;\0A\08\07\04\01\06\07\03\C3\02\169\C3\02@73 2\10\07cdiv.rn3\00\226,\D9\01\09\B8\09/74*\00\00\227,x\01\0A*\00\1F5*\00\00\228,\17\01\01*\00\03\88\00\171\8E\0CS79 47\F7\00\055\00$9,d\00(7;*\00\8634 \0A\09fma*\00\01\A7\02%f6\05\00\1990\00-600\00$1,\95\00\01\05\00&10\96\00\07\F1\05\\86 40\96\00\01\89\02\00\81\03Q0f3F0\01\00\18;2\00\01\BF\014neg/\00\02 \01:2;\0A\82\00&4,\1D\00\1B1\0D\08\2285,\02\0Ax\00#5,8\00Q0f3EC\01\00\06\B6\00%2:>\00\139\80\03\0A>\00#6,D\00\00\B7\00 B3\01\00\18;3\00,39\B4\01617,9\00\06\B6\01\04\96\0C\803 314 10\EF\00\B4sqrt.approx=\00\02X\01\1678\00\154\A2\007213\97\03\03\C9\02&7,\1E\06\0F\F1\04\01\139\C9\02\167\C9\02/15\8B\00\12\112\1D\02&198\00\1F68\00\13\121\9D\01\068\00\197\C3\00\145\C3\00\052\01522,\FB\00821;-\00\0E\D0\01523,\9D\00@22;\0Av\06\03\1A\00\1F4]\02\02\00G\00\1D1\A6\01325,3\00\00S\00\07-\00;2 3c\01&8,$\08\197*\00\1F1\A7\0A\04\03\FC\0C\175-\00\1D4\A8\0A*18\A9\0A\1F1\A9\0A\05)17=\08\F1\00fluxiPKiPKfS2_P\05\00\B2K6float3S6_\03\00\0C\BC\0A\0FD\00!\0F\CF\0A\02\0FL\00+\1F1L\008\1F2L\008\1F3L\008\1F4L\008\1F5L\008\1F6L\008\1F7L\008\1F8L\008\189\D0\0C\81pred %p<\DE\13\08\E2\0C,29\E2\0C=177\E3\0C662>\C0\03.33\E3\0C+2:\1F\00\0E\E3\0C\118\FE\0B\0F}\03)\0F\F6\0C\01\1F6V\00-\1F9g\0C\06\221,b\00\0Fv\00\00\1F7v\00-\0F\1F\0D\01/18V\00-\1F8\D6\0D\0D\1F8v\00\00\1F9v\00-\1F2\CC\00\00/20V\00-\1F7\CC\00\06\223,b\00\0Fv\00\00\1F1v\00-\1F3\CC\00\01\1F2V\00-\1F6\CC\00\06\224,b\00\0Fv\00\00\1F3v\00-\1F4\CC\00\01\1F4V\00-\1F5\97\0F\0C\1F2\98\0F\0C/23 \00\05\02\BF\09/21 \00\05\02|\08/19 \00\05\129 \00\070\0A\1F9\FA\0F\09.10\FB\0F/20\FC\0F\09/11\91\17\01\1F1\FE\0F\09-12\FF\0F\182,\05\1F5\00\10\00427,\9F\00\02s\006r12~\05\00\12\14\00?\090cvt\96\09\05\DD\0D\01f\0FL27;\0A\F7\0D\01\DE\09-r2\0E\0F726,v\01\1F5!\10\06726]~\00D4 30\14\0A\01`\00$13_\009%r8)\00/18\A7\00\00\131(\00\0D\A6\00\02A\00\0D\A5\00'8,\AC\00/27?\10\06\182\C8\10-45\A6\00%4,\AC\00\198)\00\0F\A6\00\02\01/\05/14\A7\00\00#9,N\00\0A\A8\00(30M\01\1F9[\10\06\183\E6\10-46\A7\00\145_\00\0A\A7\00\1F6\A7\00\03\01\CF\00.15\A7\00\1237\02\1D5\A7\00\172\A7\00/31w\10\06\183\02\11K48 4\A7\00\146_\00\0A\A7\00?8 2\A7\00\01\02|\01\1F6\A7\00\00\02\C1\00\1D6\A7\00\184\A7\00\1F3\93\10\06634]W\03\1F3\94\10\0C245,/\02\01\8B\0E\0F\95\10\0A/46\96\10\16\104\A5\00\0C\97\10\162\A9\0E\0F\97\10\03548,g\00/46\9A\10\0C549,\BF\00\03\06\00\1F8\9D\10\0C650,\9C\00\02\06\00\06\BC\0E\1F2\F4\0E\13\01\9D\00\165\D6\10?26:\D6\10\0B%51\D6\10\1FB\D6\10\06\0A\A7\00%2,8\00/50\C2\10\11#7,7\00\0F\C1\10\00/27\C1\10\0C#53\0E\12\0F\C0\10\16554,8\00\07\DF\01\1F8A\01\12\01\E4\01&547\00\076\13\\53 45\0F\01\159\A1\02\02\E7\01\07\B3\12\\54 32\D0\00&10,\00\07\98\1B/55,\00\01\161,\00\07\FC\1A/58\88\00\00%12\FF\02,46\89\00\1F9]\00\01\07,\00\07]\00\1F6\E5\00\01\01\0E\04&f4\9A\02\07]\00\2265\8A\1B\091\00.55\F4\01\0B+\02_66 36\ED\12\03\02\F2\00\185-\00\1E7-\00\03\DC\12-46-\00\1F8-\00\01\07X\03%55\E0\01\163\8D\141281;\11Ushl.bh\18\00\DF\0662;\0A\15\00\133\15\00\183\BB\110176\EB\00$00C\03\00\1B\00\03E\00\02 \07\08,\00\225,3\00\0A\16\00\1F4\16\00\02\1F3\16\00\02\152\16\00\80bra.uni \D0\00CBB2_\F2\02\00\0B\00u2: \0A \0A\09\DF\00=8 4\17\01'99G\12\06\07\02\00-\00\1E3\07\02600,\C2\12\01\06\00)994\00.574\00&1,\AF\12\02\FA\00&00\80\01\1F1\97\03\12\2210\F2\00\160\D1\03\173\93\09T92 20\BB\01\02\8F\06#42\1C\17\01\BF\01\07\A8\06'43\A8\06.42\A8\06#10\F8\07643]\DD\00\2293U\02\06Q\07\01\F6\13;r26Q\07@93 2G\02\0C8\07344,5\00\0A8\07\01\ED\02\05\90\00\1F4\90\00\01\03\E1\07(45\90\00\1D4\90\00%3,\96\00\198)\00\0F\90\00\03#6,5\00\0B\90\00\187\90\00\1F6\90\00\01\03\CA\07(47\90\00\1D5\90\00\02\F1\00\1C3\90\00\1F5\90\00\04#8,5\00\0B\90\00\00\A2\02\05\90\00\1F8\90\00\01\136\90\00\189\90\00\03\EE\06\07\90\00%5,\96\00\198)\00/27\90\00\00\01\DC\06-r2\8F\09\01\FA\06\04\90\00/50\90\00\01\127\90\00651]\AE\02\0F\EA\08\0D!10{\06\01\ED\01\01\84\02\0F\EF\08\0CD109,\8D\01\0C0\00\0F\F4\08\01\121y\06\01-\01\030\00\04\9B\00\0F\F9\08\0D\121\88\06\05r\00\1F9\96\19\0D\02\8C\06\05\D2\00\02\07\00/11\9D\19\0E'3,\A9\00\04\07\00\162\A9\00/5:\CD\08\0B\121\A8\06\01\C1\03\0FI\17\00\0F\A6\19\01\02q\06\1017\0C\0B\8D\00(6, \00\02\9B\00/07\AD\19\0D\02g\06\01>\00\0F\EE\08\00/36\EE\08\0C\111\AD\17\02G\00\0F\F1\08\16\101\0F\12\06<\00\08\DB\01\1F7^\05\13\02\8E\18\171,\19/38\F8\08\0C9121\B0\02\04\B8\00\0F\A7\08\0E\192\B7\02\1D97\00\0F\81\08\03\01G\04\05\BE\02\04\1C\02\0F\87\08\0D?124\8F\01\00\05\CB\01\04\EC\00\06\E4\09?308\96\01\01\01;\04\02\85\06P0fBE4F\00(D;5\00.525\00$6,<\00\08\8D\02\03u\00/40\9B\01\14\03Q\02\06\D5\01'41\AF\00L9 25\8F\1A\111\81\0F\02\0C\0C\101\7F\0F\07.\00.47.\00\169\10\1D)28.\00-66.\00\015\0F\052\02)29\06\01-66\06\01\01\D6\0E\05\0D\01\163\8E\032311\E9\018sub0\00\132\91\0C\03\CA\02\07.\00-22\E0\01\01\8D\0E\055\00\03l\00'727\00N2 59e\00\224,\91\0E\0A\D4\03#31\BA%\0Be\00&5,5\00\05e\00\1767\00N3 51e\00\166\BC\0E)04.\00.25e\00&7,5\00\05e\00\1757\00\1F4e\00\02\168\F6\0E\1A0.\00\0Fe\00\01&9,5\00\05e\00\08\9C\00\1F5e\00\01&400\0F)06.\00\0Fe\00\00641,5\00\05e\00\08\CB\01\1F8d\03\01\01\B1\09\01V\0A\0F\BB\05\00m319 49\8D\02/43c\01\04\1F9-\02\01\01\82\09\04i\00\03<\00\171^\05n320 807\00\185\E2\04\03R\04\1956\00\0F5\02\00\02\97\0C\05m\00\02D\00\1837\00N2 72\D2\00$7,U\0E9121.\00\0Fk\01\01\198e\00\03C\02\07\D1\02\2224e\00\0B7\00\189\D2\00\04\8B\05\096\00\0F=\02\00\02\ED\0F\05m\00\02D\00\173\01\04/26m\00\01\02*\10\05m\00\03\C1\05\096\00\0Fm\00\01\182m\00\03D\00\1847\00\1F9E\02\01$53\CF\0C\0FE\02\01/30E\02\01/54C\03\03/30E\02\01\02\DA\0E\03i\00\03<\0071447\00\1F1E\02\01(56\F0\06\03E\02\1966\00\0FE\02\00)57m\00\02D\00\1847\00\0FL\04\02(587\00\03\AA\01\07\80\12?335|\02\01559,I\109122/\00\0F\E8\03\00)60\9D\00\02=\00'507\00\1F7\10\02\01(61\0A\01\03\10\02\1936\00\0Fm\00\01\182m\00\03D\00\175\A4\00/40\10\02\01$63w\0E\0F\10\02\01/41\10\02\01/64\EE\04\03\1F4\82\06\02\03\8B\0F\02i\00\03<\00\171\8E\10?342\10\02\01(65\C9\08\03\10\02\1976\00\0F\10\02\00)76m\00\03\8B\02\087\00\0F\BA\03\02(757\00\03M\03\175\10\02\1F4\84\03\02)74n\00\027\00\186@\01\1F8G\02\01566,3\129123/\00\0Ff\00\01\193f\00\03\E2\00\162\C7\10\1B7\C7\10\1C1\CC-\01\EF\08\01\06\00G-1;\0A\18\00%7,\06\00\938;\0Asetp.n\E0\0D$p44\00\06\D0\00\04\01\12\88@%p4 braT\11\0Cg\11\168\A0\00\1B1\A0\00O2 10P\0E\00$35\8E\00\0AP\0E\01\F2\07\04\09\1B(35P\0E\03\8F\1A\03O\0E\133\92\1C\00;\1B\03\1B\00\01\DF\10'%r9\022284\D4(\08b\00\177\CD).35\B2\0E#23b\00\08\D1\0F'85I\00\01n\00\01`\0C\02\15\13/27\19\18\00#8,%\00\0B\E1\00\189\7F\00\0F\C1\0F\00#24\7F\00\08\C0\0F-86\7F\00\159_+\0F\7F\00\01\01p\08-r1+)\01\8F\08\04\7F\00\1F4\B0\0F\00\2225\7F\00'41\7F\00@90 1\DB\02\015\02\22lte\003p1,\90\01\130\8A\01#32\C9\1C\02\07\12\01\8B)\07C\00\129N\02\191N\02\1E3N\02\07\EE\02\193N\02 35$0\04\88\00#eq\88\00\05z\12\89-2;\0A@%p2a\00 6;)7\1A\09\F0\02\1533\00\1113\00\1933\0097;\0Av\00\1F3G\04\07\00M\02\10f2\02\0B\A0\0A/54D\04\07\147\96\07\0Bo\0A/55\12\04\07\147\BA\05\0B>\0A!56\A51\0CC\01\03\CF\0D\01\00\01\0BC\01\0F*\08\01$56\C7\00\0F\19\06\01\2260\FE\14\0C+\02\2257+\02\185\AF4\00.\00,54\07\05%58\9B\0A\08\A1\05\1F6U\08\01\02<\07\02\93\00-58\C4\0C\2262\A7\06\0C\8E\00\2260\8E\00)1],\00,51\8C\00\04/\07\00\06\00\08\C0\05\1F6u\08\01&62\8D\00\1E6\EC\0C\2265\B6\0D\0D\8D\00\045\15\1A],\00\0Dp\0E%64\E2\0A\176\D7\01\1F6?\02\01'65\8C\00\1D4s\02/68\8C\00\04\03\11\14*3],\00\0E\8C\00\127\E6\07\11,5\00\07-\00\0F\84\08\01'68\8D\00\1D7\CC\02/71\8D\00\04\1D9}7\01,\00\0D\8D\00570,\F4\19\176W\0B/70\8D\00\00&71\8D\00-70%\03/74\F4\02\00$72\87\03\0F\F4\02\01/75\F4\02\03$73\F4\02)8].\00\0E\F4\02\167J\0B\09\8D\00\1F5\F4\02\00\03M\04\01\93\00\028\00\185\F4\00\1F7\F3\02\03\2276\8D\00\191\81\03/77\F5\02\00\177\C7,\08\C1\02/76\F5\02\00'78\8E\00\019\00&623\00/80\DB\01\03\137\DB\01\194\8E\00\00.\00\0D\DD\01&80j\02\187\E9\00\03\C1\11\09\8E\00&81\8E\00\029\00\176\F6\02/83\8E\00\03\138V!\1A3\8E\00\1F3\8E\00\01\163\EA\0B\188\E9\00\0Ff\0E\01'84\8E\00\019\00\176;\0A/86\8E\00\04\1F5\DA9\00\01.\00\0E\8E\00\03\04\0C\11,7\00\07-\00\0F\1E\06\01'87\8E\00\02\DD\01\07\16\0E\1F8\EC\05\01$88K\06\0F\F8\02\01\1F9\EC\05\04$89\F8\02\08[2\00/\00\0E\F9\02\169!\11)89,\00\0FB\0E\00\03\BC\00%8,9\00\08\D4\04\1F9\ED\05\04$91\FA\02\08\87\03\1F9\EF\05\01\2292\10\04\11,7\00\07-\00\0F\EF\05\01\03T\0C\03\8F\00\01:\00\177\DF\01\1F9\EF\05\04\149\EF\05\0A\8F\00\0F\F1\05\01&94\D8\04\179\17\04/94\DF\01\00\03e\08\03\8F\00\01:\00\188\C3\00\0F\F2\05\04$95\FC\02\09\8F\00\1F8\8F\00\01\07n\02\189y\01\0Fx\0E\02'74\8F\00\02*\01\06\F4\05/40\F4\05\04/97\14<\00\01.\00\0E\8F\00\168.\0D'97-\00\1F0\1B\09\07\03\8F\00\01:\00O87;\0A\0C\09\08&8:\0A\09Z406 3&\1D\01g\11\02\89&\0A&\1D\01i\0F\04\FF'\07h\0F\00D\00/2460\02!5360\08\BB\08=407r\00$4,T&\0Br\00'5,y\00*54E\00\1F0s\00\03,5]\15\08=408s\00$6,!&\0Bs\00\187\E5\00\1A6D\00\0Fr\00\04,7]\FA\07=409r\00$8,\EC%\0Br\00\189r\00\1A8D\00\0Fr\00\04,9]\DF\07<410r\00\01\8D\11\02\B7%\0Ar\00\01\C3\09\04r\00*60D\00\0Fr\00\03<61]\F7\09>411\A8<\1A2\002\1F2\002\06\02=:2tim::\13i4:\0E\A2<\0F*\00\07\1E_\CC1\0F2\00\13\0E\B21\0F2\00\0D\1F22\00\1E\1F32\00\1E\1F42\00\1E\1F5\EA<\01\1D3\080\1D9\070630>\C7\01.28\070+3:\1F\00\0F\EA<\05\1F1\A4\00\0D\0F\E3<\01\0F;\00\14\1F5\DC<\19\04\9D#\0FY\00\11/1]\16=\00\0F;\00\13\1F4BD\0F\0CZ\00\1F5Z\00\13\1F2\95\00\00\1F6;\00\13\1F3\95\00\06\03\CD\04\0F\1F\00\05\148\BEC\04\BF\03\1F3i-\09\1E3h-/44h-\09\1F4g-\00/45g-\09\1D5f-\164\1F\1F?429f-\00\156\02\12\01\82\01\07\F6\05\103\92\1F\03\F9\09\08\16\12\139\83<\0A\14\12\01\88\0B\04\C7\01\0F\DF<\00!1,\09\05\01\DF<\06\CA%\02\BB\13\07r\00\104r\00\00+\1B\02m\00\0Fd<\01\01'\00\132`+\02\C8\07\02.\00#f2\97\14\07)\00,34\DB\1F\223,\8E\00\08\89D\104\F5\17\139H\08\04\D1\00\01\A3-\0F\B0=\07\03b\13\171+\102434\C1\00\08G\00\02m\03\1F2G\00\05\03f\09\08\11\0B\00\8E\00\0E\F6%\156\09\0E\1A5`(\00/\00\1B3u\00\173Q#\199*\00/27\A1\06\02\121j\08\07\9F\06E36 3\12\07\06f=\02\F2\07\07%\00\1F7#\02\00/14c=\03'5,Z\01.14\0E\01\03\E5\09\171\97%7437\B7\14\06\EF4\06\\\01\0FI\00\01\178\AD=\07\AD\00,41W\01\159W\01\1A8\86)_435 3Z;\02%13w\00\08,\00\1F3Y\01\03*7]G=U439 2Y\00\06\831\02\8A\03\192(\00\0F\\\01\02\138\87\01\0B\\\01\01\9E\01\05\\\01\1E8\13\01#10\14\01\07\14\16#44\C4@\07\E6\00)20]\01\0FJ\00\01\03\CD\03920]\AF\00\0E^\01%12_\01\02\AE\0C\07\14\1D\2243W\0A\08{\00\191a\01\1A8,\00\0Fa\01\03\132[\09\172\D5\00\1D2b\01\161L2\0A)\00\0Fc\01\01$22t2\0Ad\01\01\A3\15\04\13\04/22\19\01\00\03\C3\0D\172'\13>443c\01\174\15\04\0FI\00\02\03^\04924]\AE\00\0Fb\01\00\165b\01\1B4\F9\1B\2244~\19\08z\00\175\1A\04*22+\00\0Fa\01\04+5]\A0\1F#44q(\07a\01\053\01\0Aa\01\1F5a\01\03#6,4\00\0Ba\01\187a\01\0F))\01\03\AD\12\172W\19>446a\01\0303\0FI\00\07\1E703\00\AE\00\0Fa\01\00\168a\01\1B7d\1E=444a\01\189a\01\0B+\00\0Fa\01\04\03\8F\0C\07\EF\02.47\1C\0C\1A7\1C\0C\113\1C\0C\F0\01.section\09.debug_@\00\F3A{\09}\0A.file\091 \22/nethome/cahn45/CuPBoP/examples/cfd/./euler3d_no_memcpytosymbol.cu\22M\00\1E2M\00\F0\02llvm-vortex-with-j\09\F1\0F-build/lib/clang/18/include/__\13\00\11_\92\09\00(\000tinmN4s.hg\00\1F3g\00=\90math.h\22\0A\00\00\00\00\00", section ".nv_fatbin", align 8
@__cuda_fatbin_wrapper = internal constant { i32, i32, ptr, ptr } { i32 1180844977, i32 1, ptr @4, ptr null }, section ".nvFatBinSegment", align 8
@__cuda_gpubin_handle = internal global ptr null, align 8
@5 = private unnamed_addr constant [32 x i8] c"cuda_initialize_variablesiPfPKf\00", align 1
@6 = private unnamed_addr constant [32 x i8] c"cuda_compute_step_factoriPfS_S_\00", align 1
@7 = private unnamed_addr constant [51 x i8] c"cuda_compute_fluxiPKiPKfS2_PfS2_PK6float3S6_S6_S6_\00", align 1
@8 = private unnamed_addr constant [25 x i8] c"cuda_time_stepiiPfS_S_S_\00", align 1

; Function Attrs: mustprogress uwtable
define dso_local void @_Z4dumpPfii(ptr noundef %variables, i32 noundef %nel, i32 noundef %nelr) #0 personality ptr @__gxx_personality_v0 !dbg !1746 {
entry:
  %variables.addr = alloca ptr, align 8
  %nel.addr = alloca i32, align 4
  %nelr.addr = alloca i32, align 4
  %h_variables = alloca ptr, align 8
  %file = alloca %"class.std::basic_ofstream", align 8
  %exn.slot = alloca ptr, align 8
  %ehselector.slot = alloca i32, align 4
  %i = alloca i32, align 4
  %file16 = alloca %"class.std::basic_ofstream", align 8
  %i26 = alloca i32, align 4
  %cleanup.dest.slot = alloca i32, align 4
  %j = alloca i32, align 4
  %file58 = alloca %"class.std::basic_ofstream", align 8
  %i68 = alloca i32, align 4
  store ptr %variables, ptr %variables.addr, align 8, !tbaa !1774
  call void @llvm.dbg.declare(metadata ptr %variables.addr, metadata !1750, metadata !DIExpression()), !dbg !1778
  store i32 %nel, ptr %nel.addr, align 4, !tbaa !1779
  call void @llvm.dbg.declare(metadata ptr %nel.addr, metadata !1751, metadata !DIExpression()), !dbg !1781
  store i32 %nelr, ptr %nelr.addr, align 4, !tbaa !1779
  call void @llvm.dbg.declare(metadata ptr %nelr.addr, metadata !1752, metadata !DIExpression()), !dbg !1782
  call void @llvm.lifetime.start.p0(i64 8, ptr %h_variables) #15, !dbg !1783
  call void @llvm.dbg.declare(metadata ptr %h_variables, metadata !1753, metadata !DIExpression()), !dbg !1784
  %0 = load i32, ptr %nelr.addr, align 4, !dbg !1785, !tbaa !1779
  %mul = mul nsw i32 %0, 5, !dbg !1786
  %1 = sext i32 %mul to i64, !dbg !1787
  %2 = call { i64, i1 } @llvm.umul.with.overflow.i64(i64 %1, i64 4), !dbg !1787
  %3 = extractvalue { i64, i1 } %2, 1, !dbg !1787
  %4 = extractvalue { i64, i1 } %2, 0, !dbg !1787
  %5 = select i1 %3, i64 -1, i64 %4, !dbg !1787
  %call = call noalias noundef nonnull ptr @_Znam(i64 noundef %5) #16, !dbg !1787, !heapallocsite !255
  store ptr %call, ptr %h_variables, align 8, !dbg !1784, !tbaa !1774
  %6 = load ptr, ptr %h_variables, align 8, !dbg !1788, !tbaa !1774
  %7 = load ptr, ptr %variables.addr, align 8, !dbg !1789, !tbaa !1774
  %8 = load i32, ptr %nelr.addr, align 4, !dbg !1790, !tbaa !1779
  %mul1 = mul nsw i32 %8, 5, !dbg !1791
  call void @_Z8downloadIfEvPT_S1_i(ptr noundef %6, ptr noundef %7, i32 noundef %mul1), !dbg !1792
  call void @llvm.lifetime.start.p0(i64 512, ptr %file) #15, !dbg !1793
  call void @llvm.dbg.declare(metadata ptr %file, metadata !1754, metadata !DIExpression()), !dbg !1794
  call void @_ZNSt14basic_ofstreamIcSt11char_traitsIcEEC1EPKcSt13_Ios_Openmode(ptr noundef nonnull align 8 dereferenceable(248) %file, ptr noundef @.str, i32 noundef 16), !dbg !1794
  %9 = load i32, ptr %nel.addr, align 4, !dbg !1795, !tbaa !1779
  %call2 = invoke noundef nonnull align 8 dereferenceable(8) ptr @_ZNSolsEi(ptr noundef nonnull align 8 dereferenceable(8) %file, i32 noundef %9)
          to label %invoke.cont unwind label %lpad, !dbg !1796

invoke.cont:                                      ; preds = %entry
  %call4 = invoke noundef nonnull align 8 dereferenceable(8) ptr @_ZStlsISt11char_traitsIcEERSt13basic_ostreamIcT_ES5_PKc(ptr noundef nonnull align 8 dereferenceable(8) %call2, ptr noundef @.str.1)
          to label %invoke.cont3 unwind label %lpad, !dbg !1797

invoke.cont3:                                     ; preds = %invoke.cont
  %10 = load i32, ptr %nelr.addr, align 4, !dbg !1798, !tbaa !1779
  %call6 = invoke noundef nonnull align 8 dereferenceable(8) ptr @_ZNSolsEi(ptr noundef nonnull align 8 dereferenceable(8) %call4, i32 noundef %10)
          to label %invoke.cont5 unwind label %lpad, !dbg !1799

invoke.cont5:                                     ; preds = %invoke.cont3
  %call8 = invoke noundef nonnull align 8 dereferenceable(8) ptr @_ZNSolsEPFRSoS_E(ptr noundef nonnull align 8 dereferenceable(8) %call6, ptr noundef @_ZSt4endlIcSt11char_traitsIcEERSt13basic_ostreamIT_T0_ES6_)
          to label %invoke.cont7 unwind label %lpad, !dbg !1800

invoke.cont7:                                     ; preds = %invoke.cont5
  call void @llvm.lifetime.start.p0(i64 4, ptr %i) #15, !dbg !1801
  call void @llvm.dbg.declare(metadata ptr %i, metadata !1760, metadata !DIExpression()), !dbg !1802
  store i32 0, ptr %i, align 4, !dbg !1802, !tbaa !1779
  br label %for.cond, !dbg !1801

for.cond:                                         ; preds = %for.inc, %invoke.cont7
  %11 = load i32, ptr %i, align 4, !dbg !1803, !tbaa !1779
  %12 = load i32, ptr %nel.addr, align 4, !dbg !1805, !tbaa !1779
  %cmp = icmp slt i32 %11, %12, !dbg !1806
  br i1 %cmp, label %for.body, label %for.cond.cleanup, !dbg !1807

for.cond.cleanup:                                 ; preds = %for.cond
  call void @llvm.lifetime.end.p0(i64 4, ptr %i) #15, !dbg !1808
  br label %for.end

lpad:                                             ; preds = %invoke.cont5, %invoke.cont3, %invoke.cont, %entry
  %13 = landingpad { ptr, i32 }
          cleanup, !dbg !1809
  %14 = extractvalue { ptr, i32 } %13, 0, !dbg !1809
  store ptr %14, ptr %exn.slot, align 8, !dbg !1809
  %15 = extractvalue { ptr, i32 } %13, 1, !dbg !1809
  store i32 %15, ptr %ehselector.slot, align 4, !dbg !1809
  br label %ehcleanup, !dbg !1809

for.body:                                         ; preds = %for.cond
  %16 = load ptr, ptr %h_variables, align 8, !dbg !1810, !tbaa !1774
  %17 = load i32, ptr %i, align 4, !dbg !1811, !tbaa !1779
  %18 = load i32, ptr %nelr.addr, align 4, !dbg !1812, !tbaa !1779
  %mul9 = mul nsw i32 0, %18, !dbg !1813
  %add = add nsw i32 %17, %mul9, !dbg !1814
  %idxprom = sext i32 %add to i64, !dbg !1810
  %arrayidx = getelementptr inbounds float, ptr %16, i64 %idxprom, !dbg !1810
  %19 = load float, ptr %arrayidx, align 4, !dbg !1810, !tbaa !1815
  %call12 = invoke noundef nonnull align 8 dereferenceable(8) ptr @_ZNSolsEf(ptr noundef nonnull align 8 dereferenceable(8) %file, float noundef %19)
          to label %invoke.cont11 unwind label %lpad10, !dbg !1817

invoke.cont11:                                    ; preds = %for.body
  %call14 = invoke noundef nonnull align 8 dereferenceable(8) ptr @_ZNSolsEPFRSoS_E(ptr noundef nonnull align 8 dereferenceable(8) %call12, ptr noundef @_ZSt4endlIcSt11char_traitsIcEERSt13basic_ostreamIT_T0_ES6_)
          to label %invoke.cont13 unwind label %lpad10, !dbg !1818

invoke.cont13:                                    ; preds = %invoke.cont11
  br label %for.inc, !dbg !1819

for.inc:                                          ; preds = %invoke.cont13
  %20 = load i32, ptr %i, align 4, !dbg !1820, !tbaa !1779
  %inc = add nsw i32 %20, 1, !dbg !1820
  store i32 %inc, ptr %i, align 4, !dbg !1820, !tbaa !1779
  br label %for.cond, !dbg !1808, !llvm.loop !1821

lpad10:                                           ; preds = %invoke.cont11, %for.body
  %21 = landingpad { ptr, i32 }
          cleanup, !dbg !1824
  %22 = extractvalue { ptr, i32 } %21, 0, !dbg !1824
  store ptr %22, ptr %exn.slot, align 8, !dbg !1824
  %23 = extractvalue { ptr, i32 } %21, 1, !dbg !1824
  store i32 %23, ptr %ehselector.slot, align 4, !dbg !1824
  call void @llvm.lifetime.end.p0(i64 4, ptr %i) #15, !dbg !1808
  br label %ehcleanup, !dbg !1808

for.end:                                          ; preds = %for.cond.cleanup
  call void @_ZNSt14basic_ofstreamIcSt11char_traitsIcEED1Ev(ptr noundef nonnull align 8 dereferenceable(248) %file) #15, !dbg !1825
  call void @llvm.lifetime.end.p0(i64 512, ptr %file) #15, !dbg !1825
  call void @llvm.lifetime.start.p0(i64 512, ptr %file16) #15, !dbg !1826
  call void @llvm.dbg.declare(metadata ptr %file16, metadata !1762, metadata !DIExpression()), !dbg !1827
  call void @_ZNSt14basic_ofstreamIcSt11char_traitsIcEEC1EPKcSt13_Ios_Openmode(ptr noundef nonnull align 8 dereferenceable(248) %file16, ptr noundef @.str.2, i32 noundef 16), !dbg !1827
  %24 = load i32, ptr %nel.addr, align 4, !dbg !1828, !tbaa !1779
  %call19 = invoke noundef nonnull align 8 dereferenceable(8) ptr @_ZNSolsEi(ptr noundef nonnull align 8 dereferenceable(8) %file16, i32 noundef %24)
          to label %invoke.cont18 unwind label %lpad17, !dbg !1829

invoke.cont18:                                    ; preds = %for.end
  %call21 = invoke noundef nonnull align 8 dereferenceable(8) ptr @_ZStlsISt11char_traitsIcEERSt13basic_ostreamIcT_ES5_PKc(ptr noundef nonnull align 8 dereferenceable(8) %call19, ptr noundef @.str.1)
          to label %invoke.cont20 unwind label %lpad17, !dbg !1830

invoke.cont20:                                    ; preds = %invoke.cont18
  %25 = load i32, ptr %nelr.addr, align 4, !dbg !1831, !tbaa !1779
  %call23 = invoke noundef nonnull align 8 dereferenceable(8) ptr @_ZNSolsEi(ptr noundef nonnull align 8 dereferenceable(8) %call21, i32 noundef %25)
          to label %invoke.cont22 unwind label %lpad17, !dbg !1832

invoke.cont22:                                    ; preds = %invoke.cont20
  %call25 = invoke noundef nonnull align 8 dereferenceable(8) ptr @_ZNSolsEPFRSoS_E(ptr noundef nonnull align 8 dereferenceable(8) %call23, ptr noundef @_ZSt4endlIcSt11char_traitsIcEERSt13basic_ostreamIT_T0_ES6_)
          to label %invoke.cont24 unwind label %lpad17, !dbg !1833

invoke.cont24:                                    ; preds = %invoke.cont22
  call void @llvm.lifetime.start.p0(i64 4, ptr %i26) #15, !dbg !1834
  call void @llvm.dbg.declare(metadata ptr %i26, metadata !1764, metadata !DIExpression()), !dbg !1835
  store i32 0, ptr %i26, align 4, !dbg !1835, !tbaa !1779
  br label %for.cond27, !dbg !1834

for.cond27:                                       ; preds = %for.inc52, %invoke.cont24
  %26 = load i32, ptr %i26, align 4, !dbg !1836, !tbaa !1779
  %27 = load i32, ptr %nel.addr, align 4, !dbg !1837, !tbaa !1779
  %cmp28 = icmp slt i32 %26, %27, !dbg !1838
  br i1 %cmp28, label %for.body30, label %for.cond.cleanup29, !dbg !1839

for.cond.cleanup29:                               ; preds = %for.cond27
  store i32 5, ptr %cleanup.dest.slot, align 4
  call void @llvm.lifetime.end.p0(i64 4, ptr %i26) #15, !dbg !1840
  br label %for.end55

ehcleanup:                                        ; preds = %lpad10, %lpad
  call void @_ZNSt14basic_ofstreamIcSt11char_traitsIcEED1Ev(ptr noundef nonnull align 8 dereferenceable(248) %file) #15, !dbg !1825
  call void @llvm.lifetime.end.p0(i64 512, ptr %file) #15, !dbg !1825
  br label %ehcleanup88, !dbg !1825

lpad17:                                           ; preds = %invoke.cont22, %invoke.cont20, %invoke.cont18, %for.end
  %28 = landingpad { ptr, i32 }
          cleanup, !dbg !1841
  %29 = extractvalue { ptr, i32 } %28, 0, !dbg !1841
  store ptr %29, ptr %exn.slot, align 8, !dbg !1841
  %30 = extractvalue { ptr, i32 } %28, 1, !dbg !1841
  store i32 %30, ptr %ehselector.slot, align 4, !dbg !1841
  br label %ehcleanup56, !dbg !1841

for.body30:                                       ; preds = %for.cond27
  call void @llvm.lifetime.start.p0(i64 4, ptr %j) #15, !dbg !1842
  call void @llvm.dbg.declare(metadata ptr %j, metadata !1766, metadata !DIExpression()), !dbg !1843
  store i32 0, ptr %j, align 4, !dbg !1843, !tbaa !1779
  br label %for.cond31, !dbg !1842

for.cond31:                                       ; preds = %for.inc45, %for.body30
  %31 = load i32, ptr %j, align 4, !dbg !1844, !tbaa !1779
  %cmp32 = icmp ne i32 %31, 3, !dbg !1846
  br i1 %cmp32, label %for.body34, label %for.cond.cleanup33, !dbg !1847

for.cond.cleanup33:                               ; preds = %for.cond31
  store i32 8, ptr %cleanup.dest.slot, align 4
  call void @llvm.lifetime.end.p0(i64 4, ptr %j) #15, !dbg !1848
  br label %for.end48

for.body34:                                       ; preds = %for.cond31
  %32 = load ptr, ptr %h_variables, align 8, !dbg !1849, !tbaa !1774
  %33 = load i32, ptr %i26, align 4, !dbg !1850, !tbaa !1779
  %34 = load i32, ptr %j, align 4, !dbg !1851, !tbaa !1779
  %add35 = add nsw i32 1, %34, !dbg !1852
  %35 = load i32, ptr %nelr.addr, align 4, !dbg !1853, !tbaa !1779
  %mul36 = mul nsw i32 %add35, %35, !dbg !1854
  %add37 = add nsw i32 %33, %mul36, !dbg !1855
  %idxprom38 = sext i32 %add37 to i64, !dbg !1849
  %arrayidx39 = getelementptr inbounds float, ptr %32, i64 %idxprom38, !dbg !1849
  %36 = load float, ptr %arrayidx39, align 4, !dbg !1849, !tbaa !1815
  %call42 = invoke noundef nonnull align 8 dereferenceable(8) ptr @_ZNSolsEf(ptr noundef nonnull align 8 dereferenceable(8) %file16, float noundef %36)
          to label %invoke.cont41 unwind label %lpad40, !dbg !1856

invoke.cont41:                                    ; preds = %for.body34
  %call44 = invoke noundef nonnull align 8 dereferenceable(8) ptr @_ZStlsISt11char_traitsIcEERSt13basic_ostreamIcT_ES5_PKc(ptr noundef nonnull align 8 dereferenceable(8) %call42, ptr noundef @.str.1)
          to label %invoke.cont43 unwind label %lpad40, !dbg !1857

invoke.cont43:                                    ; preds = %invoke.cont41
  br label %for.inc45, !dbg !1858

for.inc45:                                        ; preds = %invoke.cont43
  %37 = load i32, ptr %j, align 4, !dbg !1859, !tbaa !1779
  %inc46 = add nsw i32 %37, 1, !dbg !1859
  store i32 %inc46, ptr %j, align 4, !dbg !1859, !tbaa !1779
  br label %for.cond31, !dbg !1848, !llvm.loop !1860

lpad40:                                           ; preds = %invoke.cont41, %for.body34
  %38 = landingpad { ptr, i32 }
          cleanup, !dbg !1862
  %39 = extractvalue { ptr, i32 } %38, 0, !dbg !1862
  store ptr %39, ptr %exn.slot, align 8, !dbg !1862
  %40 = extractvalue { ptr, i32 } %38, 1, !dbg !1862
  store i32 %40, ptr %ehselector.slot, align 4, !dbg !1862
  call void @llvm.lifetime.end.p0(i64 4, ptr %j) #15, !dbg !1848
  br label %ehcleanup54, !dbg !1848

for.end48:                                        ; preds = %for.cond.cleanup33
  %call51 = invoke noundef nonnull align 8 dereferenceable(8) ptr @_ZNSolsEPFRSoS_E(ptr noundef nonnull align 8 dereferenceable(8) %file16, ptr noundef @_ZSt4endlIcSt11char_traitsIcEERSt13basic_ostreamIT_T0_ES6_)
          to label %invoke.cont50 unwind label %lpad49, !dbg !1863

invoke.cont50:                                    ; preds = %for.end48
  br label %for.inc52, !dbg !1864

for.inc52:                                        ; preds = %invoke.cont50
  %41 = load i32, ptr %i26, align 4, !dbg !1865, !tbaa !1779
  %inc53 = add nsw i32 %41, 1, !dbg !1865
  store i32 %inc53, ptr %i26, align 4, !dbg !1865, !tbaa !1779
  br label %for.cond27, !dbg !1840, !llvm.loop !1866

lpad49:                                           ; preds = %for.end48
  %42 = landingpad { ptr, i32 }
          cleanup, !dbg !1868
  %43 = extractvalue { ptr, i32 } %42, 0, !dbg !1868
  store ptr %43, ptr %exn.slot, align 8, !dbg !1868
  %44 = extractvalue { ptr, i32 } %42, 1, !dbg !1868
  store i32 %44, ptr %ehselector.slot, align 4, !dbg !1868
  br label %ehcleanup54, !dbg !1868

ehcleanup54:                                      ; preds = %lpad49, %lpad40
  call void @llvm.lifetime.end.p0(i64 4, ptr %i26) #15, !dbg !1840
  br label %ehcleanup56, !dbg !1840

for.end55:                                        ; preds = %for.cond.cleanup29
  call void @_ZNSt14basic_ofstreamIcSt11char_traitsIcEED1Ev(ptr noundef nonnull align 8 dereferenceable(248) %file16) #15, !dbg !1869
  call void @llvm.lifetime.end.p0(i64 512, ptr %file16) #15, !dbg !1869
  call void @llvm.lifetime.start.p0(i64 512, ptr %file58) #15, !dbg !1870
  call void @llvm.dbg.declare(metadata ptr %file58, metadata !1770, metadata !DIExpression()), !dbg !1871
  call void @_ZNSt14basic_ofstreamIcSt11char_traitsIcEEC1EPKcSt13_Ios_Openmode(ptr noundef nonnull align 8 dereferenceable(248) %file58, ptr noundef @.str.3, i32 noundef 16), !dbg !1871
  %45 = load i32, ptr %nel.addr, align 4, !dbg !1872, !tbaa !1779
  %call61 = invoke noundef nonnull align 8 dereferenceable(8) ptr @_ZNSolsEi(ptr noundef nonnull align 8 dereferenceable(8) %file58, i32 noundef %45)
          to label %invoke.cont60 unwind label %lpad59, !dbg !1873

invoke.cont60:                                    ; preds = %for.end55
  %call63 = invoke noundef nonnull align 8 dereferenceable(8) ptr @_ZStlsISt11char_traitsIcEERSt13basic_ostreamIcT_ES5_PKc(ptr noundef nonnull align 8 dereferenceable(8) %call61, ptr noundef @.str.1)
          to label %invoke.cont62 unwind label %lpad59, !dbg !1874

invoke.cont62:                                    ; preds = %invoke.cont60
  %46 = load i32, ptr %nelr.addr, align 4, !dbg !1875, !tbaa !1779
  %call65 = invoke noundef nonnull align 8 dereferenceable(8) ptr @_ZNSolsEi(ptr noundef nonnull align 8 dereferenceable(8) %call63, i32 noundef %46)
          to label %invoke.cont64 unwind label %lpad59, !dbg !1876

invoke.cont64:                                    ; preds = %invoke.cont62
  %call67 = invoke noundef nonnull align 8 dereferenceable(8) ptr @_ZNSolsEPFRSoS_E(ptr noundef nonnull align 8 dereferenceable(8) %call65, ptr noundef @_ZSt4endlIcSt11char_traitsIcEERSt13basic_ostreamIT_T0_ES6_)
          to label %invoke.cont66 unwind label %lpad59, !dbg !1877

invoke.cont66:                                    ; preds = %invoke.cont64
  call void @llvm.lifetime.start.p0(i64 4, ptr %i68) #15, !dbg !1878
  call void @llvm.dbg.declare(metadata ptr %i68, metadata !1772, metadata !DIExpression()), !dbg !1879
  store i32 0, ptr %i68, align 4, !dbg !1879, !tbaa !1779
  br label %for.cond69, !dbg !1878

for.cond69:                                       ; preds = %for.inc82, %invoke.cont66
  %47 = load i32, ptr %i68, align 4, !dbg !1880, !tbaa !1779
  %48 = load i32, ptr %nel.addr, align 4, !dbg !1882, !tbaa !1779
  %cmp70 = icmp slt i32 %47, %48, !dbg !1883
  br i1 %cmp70, label %for.body72, label %for.cond.cleanup71, !dbg !1884

for.cond.cleanup71:                               ; preds = %for.cond69
  store i32 11, ptr %cleanup.dest.slot, align 4
  call void @llvm.lifetime.end.p0(i64 4, ptr %i68) #15, !dbg !1885
  br label %for.end85

ehcleanup56:                                      ; preds = %ehcleanup54, %lpad17
  call void @_ZNSt14basic_ofstreamIcSt11char_traitsIcEED1Ev(ptr noundef nonnull align 8 dereferenceable(248) %file16) #15, !dbg !1869
  call void @llvm.lifetime.end.p0(i64 512, ptr %file16) #15, !dbg !1869
  br label %ehcleanup88, !dbg !1869

lpad59:                                           ; preds = %invoke.cont64, %invoke.cont62, %invoke.cont60, %for.end55
  %49 = landingpad { ptr, i32 }
          cleanup, !dbg !1886
  %50 = extractvalue { ptr, i32 } %49, 0, !dbg !1886
  store ptr %50, ptr %exn.slot, align 8, !dbg !1886
  %51 = extractvalue { ptr, i32 } %49, 1, !dbg !1886
  store i32 %51, ptr %ehselector.slot, align 4, !dbg !1886
  br label %ehcleanup86, !dbg !1886

for.body72:                                       ; preds = %for.cond69
  %52 = load ptr, ptr %h_variables, align 8, !dbg !1887, !tbaa !1774
  %53 = load i32, ptr %i68, align 4, !dbg !1888, !tbaa !1779
  %54 = load i32, ptr %nelr.addr, align 4, !dbg !1889, !tbaa !1779
  %mul73 = mul nsw i32 4, %54, !dbg !1890
  %add74 = add nsw i32 %53, %mul73, !dbg !1891
  %idxprom75 = sext i32 %add74 to i64, !dbg !1887
  %arrayidx76 = getelementptr inbounds float, ptr %52, i64 %idxprom75, !dbg !1887
  %55 = load float, ptr %arrayidx76, align 4, !dbg !1887, !tbaa !1815
  %call79 = invoke noundef nonnull align 8 dereferenceable(8) ptr @_ZNSolsEf(ptr noundef nonnull align 8 dereferenceable(8) %file58, float noundef %55)
          to label %invoke.cont78 unwind label %lpad77, !dbg !1892

invoke.cont78:                                    ; preds = %for.body72
  %call81 = invoke noundef nonnull align 8 dereferenceable(8) ptr @_ZNSolsEPFRSoS_E(ptr noundef nonnull align 8 dereferenceable(8) %call79, ptr noundef @_ZSt4endlIcSt11char_traitsIcEERSt13basic_ostreamIT_T0_ES6_)
          to label %invoke.cont80 unwind label %lpad77, !dbg !1893

invoke.cont80:                                    ; preds = %invoke.cont78
  br label %for.inc82, !dbg !1894

for.inc82:                                        ; preds = %invoke.cont80
  %56 = load i32, ptr %i68, align 4, !dbg !1895, !tbaa !1779
  %inc83 = add nsw i32 %56, 1, !dbg !1895
  store i32 %inc83, ptr %i68, align 4, !dbg !1895, !tbaa !1779
  br label %for.cond69, !dbg !1885, !llvm.loop !1896

lpad77:                                           ; preds = %invoke.cont78, %for.body72
  %57 = landingpad { ptr, i32 }
          cleanup, !dbg !1898
  %58 = extractvalue { ptr, i32 } %57, 0, !dbg !1898
  store ptr %58, ptr %exn.slot, align 8, !dbg !1898
  %59 = extractvalue { ptr, i32 } %57, 1, !dbg !1898
  store i32 %59, ptr %ehselector.slot, align 4, !dbg !1898
  call void @llvm.lifetime.end.p0(i64 4, ptr %i68) #15, !dbg !1885
  br label %ehcleanup86, !dbg !1885

for.end85:                                        ; preds = %for.cond.cleanup71
  call void @_ZNSt14basic_ofstreamIcSt11char_traitsIcEED1Ev(ptr noundef nonnull align 8 dereferenceable(248) %file58) #15, !dbg !1899
  call void @llvm.lifetime.end.p0(i64 512, ptr %file58) #15, !dbg !1899
  %60 = load ptr, ptr %h_variables, align 8, !dbg !1900, !tbaa !1774
  %isnull = icmp eq ptr %60, null, !dbg !1901
  br i1 %isnull, label %delete.end, label %delete.notnull, !dbg !1901

delete.notnull:                                   ; preds = %for.end85
  call void @_ZdaPv(ptr noundef %60) #17, !dbg !1901
  br label %delete.end, !dbg !1901

delete.end:                                       ; preds = %delete.notnull, %for.end85
  call void @llvm.lifetime.end.p0(i64 8, ptr %h_variables) #15, !dbg !1902
  ret void, !dbg !1902

ehcleanup86:                                      ; preds = %lpad77, %lpad59
  call void @_ZNSt14basic_ofstreamIcSt11char_traitsIcEED1Ev(ptr noundef nonnull align 8 dereferenceable(248) %file58) #15, !dbg !1899
  call void @llvm.lifetime.end.p0(i64 512, ptr %file58) #15, !dbg !1899
  br label %ehcleanup88, !dbg !1899

ehcleanup88:                                      ; preds = %ehcleanup86, %ehcleanup56, %ehcleanup
  call void @llvm.lifetime.end.p0(i64 8, ptr %h_variables) #15, !dbg !1902
  br label %eh.resume, !dbg !1902

eh.resume:                                        ; preds = %ehcleanup88
  %exn = load ptr, ptr %exn.slot, align 8, !dbg !1902
  %sel = load i32, ptr %ehselector.slot, align 4, !dbg !1902
  %lpad.val = insertvalue { ptr, i32 } poison, ptr %exn, 0, !dbg !1902
  %lpad.val89 = insertvalue { ptr, i32 } %lpad.val, i32 %sel, 1, !dbg !1902
  resume { ptr, i32 } %lpad.val89, !dbg !1902
}

; Function Attrs: nocallback nofree nosync nounwind speculatable willreturn memory(none)
declare void @llvm.dbg.declare(metadata, metadata, metadata) #1

; Function Attrs: nocallback nofree nosync nounwind willreturn memory(argmem: readwrite)
declare void @llvm.lifetime.start.p0(i64 immarg, ptr nocapture) #2

; Function Attrs: nocallback nofree nosync nounwind speculatable willreturn memory(none)
declare { i64, i1 } @llvm.umul.with.overflow.i64(i64, i64) #1

; Function Attrs: nobuiltin allocsize(0)
declare noundef nonnull ptr @_Znam(i64 noundef) #3

; Function Attrs: mustprogress uwtable
define linkonce_odr dso_local void @_Z8downloadIfEvPT_S1_i(ptr noundef %dst, ptr noundef %src, i32 noundef %N) #0 comdat !dbg !1903 {
entry:
  %dst.addr = alloca ptr, align 8
  %src.addr = alloca ptr, align 8
  %N.addr = alloca i32, align 4
  store ptr %dst, ptr %dst.addr, align 8, !tbaa !1774
  call void @llvm.dbg.declare(metadata ptr %dst.addr, metadata !1907, metadata !DIExpression()), !dbg !1912
  store ptr %src, ptr %src.addr, align 8, !tbaa !1774
  call void @llvm.dbg.declare(metadata ptr %src.addr, metadata !1908, metadata !DIExpression()), !dbg !1913
  store i32 %N, ptr %N.addr, align 4, !tbaa !1779
  call void @llvm.dbg.declare(metadata ptr %N.addr, metadata !1909, metadata !DIExpression()), !dbg !1914
  %0 = load ptr, ptr %dst.addr, align 8, !dbg !1915, !tbaa !1774
  %1 = load ptr, ptr %src.addr, align 8, !dbg !1916, !tbaa !1774
  %2 = load i32, ptr %N.addr, align 4, !dbg !1917, !tbaa !1779
  %conv = sext i32 %2 to i64, !dbg !1917
  %mul = mul i64 %conv, 4, !dbg !1918
  %call = call i32 @cudaMemcpy(ptr noundef %0, ptr noundef %1, i64 noundef %mul, i32 noundef 2), !dbg !1919
  ret void, !dbg !1920
}

; Function Attrs: mustprogress uwtable
define available_externally void @_ZNSt14basic_ofstreamIcSt11char_traitsIcEEC1EPKcSt13_Ios_Openmode(ptr noundef nonnull align 8 dereferenceable(248) %this, ptr noundef %__s, i32 noundef %__mode) unnamed_addr #0 align 2 personality ptr @__gxx_personality_v0 !dbg !1921 {
entry:
  %this.addr = alloca ptr, align 8
  %__s.addr = alloca ptr, align 8
  %__mode.addr = alloca i32, align 4
  %exn.slot = alloca ptr, align 8
  %ehselector.slot = alloca i32, align 4
  store ptr %this, ptr %this.addr, align 8, !tbaa !1774
  call void @llvm.dbg.declare(metadata ptr %this.addr, metadata !1929, metadata !DIExpression()), !dbg !1933
  store ptr %__s, ptr %__s.addr, align 8, !tbaa !1774
  call void @llvm.dbg.declare(metadata ptr %__s.addr, metadata !1931, metadata !DIExpression()), !dbg !1934
  store i32 %__mode, ptr %__mode.addr, align 4, !tbaa !1935
  call void @llvm.dbg.declare(metadata ptr %__mode.addr, metadata !1932, metadata !DIExpression()), !dbg !1937
  %this1 = load ptr, ptr %this.addr, align 8
  %0 = getelementptr inbounds i8, ptr %this1, i64 248, !dbg !1938
  call void @_ZNSt9basic_iosIcSt11char_traitsIcEEC2Ev(ptr noundef nonnull align 8 dereferenceable(264) %0), !dbg !1939
  invoke void @_ZNSoC2Ev(ptr noundef nonnull align 8 dereferenceable(8) %this1, ptr noundef getelementptr inbounds ([4 x ptr], ptr @_ZTTSt14basic_ofstreamIcSt11char_traitsIcEE, i64 0, i64 1))
          to label %invoke.cont unwind label %lpad, !dbg !1940

invoke.cont:                                      ; preds = %entry
  store ptr getelementptr inbounds ({ [5 x ptr], [5 x ptr] }, ptr @_ZTVSt14basic_ofstreamIcSt11char_traitsIcEE, i32 0, inrange i32 0, i32 3), ptr %this1, align 8, !dbg !1938, !tbaa !1941
  %add.ptr = getelementptr inbounds i8, ptr %this1, i64 248, !dbg !1938
  store ptr getelementptr inbounds ({ [5 x ptr], [5 x ptr] }, ptr @_ZTVSt14basic_ofstreamIcSt11char_traitsIcEE, i32 0, inrange i32 1, i32 3), ptr %add.ptr, align 8, !dbg !1938, !tbaa !1941
  %_M_filebuf = getelementptr inbounds %"class.std::basic_ofstream", ptr %this1, i32 0, i32 1, !dbg !1943
  invoke void @_ZNSt13basic_filebufIcSt11char_traitsIcEEC1Ev(ptr noundef nonnull align 8 dereferenceable(240) %_M_filebuf)
          to label %invoke.cont3 unwind label %lpad2, !dbg !1943

invoke.cont3:                                     ; preds = %invoke.cont
  %vtable = load ptr, ptr %this1, align 8, !dbg !1944, !tbaa !1941
  %vbase.offset.ptr = getelementptr i8, ptr %vtable, i64 -24, !dbg !1944
  %vbase.offset = load i64, ptr %vbase.offset.ptr, align 8, !dbg !1944
  %add.ptr4 = getelementptr inbounds i8, ptr %this1, i64 %vbase.offset, !dbg !1944
  %_M_filebuf5 = getelementptr inbounds %"class.std::basic_ofstream", ptr %this1, i32 0, i32 1, !dbg !1946
  invoke void @_ZNSt9basic_iosIcSt11char_traitsIcEE4initEPSt15basic_streambufIcS1_E(ptr noundef nonnull align 8 dereferenceable(264) %add.ptr4, ptr noundef %_M_filebuf5)
          to label %invoke.cont7 unwind label %lpad6, !dbg !1944

invoke.cont7:                                     ; preds = %invoke.cont3
  %1 = load ptr, ptr %__s.addr, align 8, !dbg !1947, !tbaa !1774
  %2 = load i32, ptr %__mode.addr, align 4, !dbg !1948, !tbaa !1935
  invoke void @_ZNSt14basic_ofstreamIcSt11char_traitsIcEE4openEPKcSt13_Ios_Openmode(ptr noundef nonnull align 8 dereferenceable(248) %this1, ptr noundef %1, i32 noundef %2)
          to label %invoke.cont8 unwind label %lpad6, !dbg !1949

invoke.cont8:                                     ; preds = %invoke.cont7
  ret void, !dbg !1950

lpad:                                             ; preds = %entry
  %3 = landingpad { ptr, i32 }
          cleanup, !dbg !1950
  %4 = extractvalue { ptr, i32 } %3, 0, !dbg !1950
  store ptr %4, ptr %exn.slot, align 8, !dbg !1950
  %5 = extractvalue { ptr, i32 } %3, 1, !dbg !1950
  store i32 %5, ptr %ehselector.slot, align 4, !dbg !1950
  br label %ehcleanup9, !dbg !1950

lpad2:                                            ; preds = %invoke.cont
  %6 = landingpad { ptr, i32 }
          cleanup, !dbg !1950
  %7 = extractvalue { ptr, i32 } %6, 0, !dbg !1950
  store ptr %7, ptr %exn.slot, align 8, !dbg !1950
  %8 = extractvalue { ptr, i32 } %6, 1, !dbg !1950
  store i32 %8, ptr %ehselector.slot, align 4, !dbg !1950
  br label %ehcleanup, !dbg !1950

lpad6:                                            ; preds = %invoke.cont7, %invoke.cont3
  %9 = landingpad { ptr, i32 }
          cleanup, !dbg !1951
  %10 = extractvalue { ptr, i32 } %9, 0, !dbg !1951
  store ptr %10, ptr %exn.slot, align 8, !dbg !1951
  %11 = extractvalue { ptr, i32 } %9, 1, !dbg !1951
  store i32 %11, ptr %ehselector.slot, align 4, !dbg !1951
  call void @_ZNSt13basic_filebufIcSt11char_traitsIcEED2Ev(ptr noundef nonnull align 8 dereferenceable(240) %_M_filebuf) #15, !dbg !1951
  br label %ehcleanup, !dbg !1951

ehcleanup:                                        ; preds = %lpad6, %lpad2
  call void @_ZNSoD2Ev(ptr noundef nonnull align 8 dereferenceable(8) %this1, ptr noundef getelementptr inbounds ([4 x ptr], ptr @_ZTTSt14basic_ofstreamIcSt11char_traitsIcEE, i64 0, i64 1)) #15, !dbg !1951
  br label %ehcleanup9, !dbg !1951

ehcleanup9:                                       ; preds = %ehcleanup, %lpad
  %12 = getelementptr inbounds i8, ptr %this1, i64 248, !dbg !1951
  call void @_ZNSt8ios_baseD2Ev(ptr noundef nonnull align 8 dereferenceable(264) %12) #15, !dbg !1951
  br label %eh.resume, !dbg !1951

eh.resume:                                        ; preds = %ehcleanup9
  %exn = load ptr, ptr %exn.slot, align 8, !dbg !1951
  %sel = load i32, ptr %ehselector.slot, align 4, !dbg !1951
  %lpad.val = insertvalue { ptr, i32 } poison, ptr %exn, 0, !dbg !1951
  %lpad.val10 = insertvalue { ptr, i32 } %lpad.val, i32 %sel, 1, !dbg !1951
  resume { ptr, i32 } %lpad.val10, !dbg !1951
}

; Function Attrs: inlinehint mustprogress uwtable
define available_externally noundef nonnull align 8 dereferenceable(8) ptr @_ZStlsISt11char_traitsIcEERSt13basic_ostreamIcT_ES5_PKc(ptr noundef nonnull align 8 dereferenceable(8) %__out, ptr noundef %__s) #4 !dbg !1952 {
entry:
  %__out.addr = alloca ptr, align 8
  %__s.addr = alloca ptr, align 8
  store ptr %__out, ptr %__out.addr, align 8, !tbaa !1774
  call void @llvm.dbg.declare(metadata ptr %__out.addr, metadata !1960, metadata !DIExpression()), !dbg !2017
  store ptr %__s, ptr %__s.addr, align 8, !tbaa !1774
  call void @llvm.dbg.declare(metadata ptr %__s.addr, metadata !1961, metadata !DIExpression()), !dbg !2018
  %0 = load ptr, ptr %__s.addr, align 8, !dbg !2019, !tbaa !1774
  %tobool = icmp ne ptr %0, null, !dbg !2019
  br i1 %tobool, label %if.else, label %if.then, !dbg !2021

if.then:                                          ; preds = %entry
  %1 = load ptr, ptr %__out.addr, align 8, !dbg !2022, !tbaa !1774
  %vtable = load ptr, ptr %1, align 8, !dbg !2022, !tbaa !1941
  %vbase.offset.ptr = getelementptr i8, ptr %vtable, i64 -24, !dbg !2022
  %vbase.offset = load i64, ptr %vbase.offset.ptr, align 8, !dbg !2022
  %add.ptr = getelementptr inbounds i8, ptr %1, i64 %vbase.offset, !dbg !2022
  call void @_ZNSt9basic_iosIcSt11char_traitsIcEE8setstateESt12_Ios_Iostate(ptr noundef nonnull align 8 dereferenceable(264) %add.ptr, i32 noundef 1), !dbg !2023
  br label %if.end, !dbg !2022

if.else:                                          ; preds = %entry
  %2 = load ptr, ptr %__out.addr, align 8, !dbg !2024, !tbaa !1774
  %3 = load ptr, ptr %__s.addr, align 8, !dbg !2025, !tbaa !1774
  %4 = load ptr, ptr %__s.addr, align 8, !dbg !2026, !tbaa !1774
  %call = call noundef i64 @_ZNSt11char_traitsIcE6lengthEPKc(ptr noundef %4), !dbg !2027
  %call1 = call noundef nonnull align 8 dereferenceable(8) ptr @_ZSt16__ostream_insertIcSt11char_traitsIcEERSt13basic_ostreamIT_T0_ES6_PKS3_l(ptr noundef nonnull align 8 dereferenceable(8) %2, ptr noundef %3, i64 noundef %call), !dbg !2028
  br label %if.end

if.end:                                           ; preds = %if.else, %if.then
  %5 = load ptr, ptr %__out.addr, align 8, !dbg !2029, !tbaa !1774
  ret ptr %5, !dbg !2030
}

declare noundef nonnull align 8 dereferenceable(8) ptr @_ZNSolsEi(ptr noundef nonnull align 8 dereferenceable(8), i32 noundef) #5

declare i32 @__gxx_personality_v0(...)

; Function Attrs: mustprogress uwtable
define available_externally noundef nonnull align 8 dereferenceable(8) ptr @_ZNSolsEPFRSoS_E(ptr noundef nonnull align 8 dereferenceable(8) %this, ptr noundef %__pf) #0 align 2 !dbg !2031 {
entry:
  %this.addr = alloca ptr, align 8
  %__pf.addr = alloca ptr, align 8
  store ptr %this, ptr %this.addr, align 8, !tbaa !1774
  call void @llvm.dbg.declare(metadata ptr %this.addr, metadata !2042, metadata !DIExpression()), !dbg !2045
  store ptr %__pf, ptr %__pf.addr, align 8, !tbaa !1774
  call void @llvm.dbg.declare(metadata ptr %__pf.addr, metadata !2044, metadata !DIExpression()), !dbg !2046
  %this1 = load ptr, ptr %this.addr, align 8
  %0 = load ptr, ptr %__pf.addr, align 8, !dbg !2047, !tbaa !1774
  %call = call noundef nonnull align 8 dereferenceable(8) ptr %0(ptr noundef nonnull align 8 dereferenceable(8) %this1), !dbg !2047
  ret ptr %call, !dbg !2048
}

; Function Attrs: inlinehint mustprogress uwtable
define available_externally noundef nonnull align 8 dereferenceable(8) ptr @_ZSt4endlIcSt11char_traitsIcEERSt13basic_ostreamIT_T0_ES6_(ptr noundef nonnull align 8 dereferenceable(8) %__os) #4 !dbg !2049 {
entry:
  %__os.addr = alloca ptr, align 8
  store ptr %__os, ptr %__os.addr, align 8, !tbaa !1774
  call void @llvm.dbg.declare(metadata ptr %__os.addr, metadata !2053, metadata !DIExpression()), !dbg !2055
  %0 = load ptr, ptr %__os.addr, align 8, !dbg !2056, !tbaa !1774
  %1 = load ptr, ptr %__os.addr, align 8, !dbg !2057, !tbaa !1774
  %vtable = load ptr, ptr %1, align 8, !dbg !2057, !tbaa !1941
  %vbase.offset.ptr = getelementptr i8, ptr %vtable, i64 -24, !dbg !2057
  %vbase.offset = load i64, ptr %vbase.offset.ptr, align 8, !dbg !2057
  %add.ptr = getelementptr inbounds i8, ptr %1, i64 %vbase.offset, !dbg !2057
  %call = call noundef signext i8 @_ZNKSt9basic_iosIcSt11char_traitsIcEE5widenEc(ptr noundef nonnull align 8 dereferenceable(264) %add.ptr, i8 noundef signext 10), !dbg !2058
  %call1 = call noundef nonnull align 8 dereferenceable(8) ptr @_ZNSo3putEc(ptr noundef nonnull align 8 dereferenceable(8) %0, i8 noundef signext %call), !dbg !2059
  %call2 = call noundef nonnull align 8 dereferenceable(8) ptr @_ZSt5flushIcSt11char_traitsIcEERSt13basic_ostreamIT_T0_ES6_(ptr noundef nonnull align 8 dereferenceable(8) %call1), !dbg !2060
  ret ptr %call2, !dbg !2061
}

; Function Attrs: mustprogress uwtable
define available_externally noundef nonnull align 8 dereferenceable(8) ptr @_ZNSolsEf(ptr noundef nonnull align 8 dereferenceable(8) %this, float noundef %__f) #0 align 2 !dbg !2062 {
entry:
  %this.addr = alloca ptr, align 8
  %__f.addr = alloca float, align 4
  store ptr %this, ptr %this.addr, align 8, !tbaa !1774
  call void @llvm.dbg.declare(metadata ptr %this.addr, metadata !2067, metadata !DIExpression()), !dbg !2069
  store float %__f, ptr %__f.addr, align 4, !tbaa !1815
  call void @llvm.dbg.declare(metadata ptr %__f.addr, metadata !2068, metadata !DIExpression()), !dbg !2070
  %this1 = load ptr, ptr %this.addr, align 8
  %0 = load float, ptr %__f.addr, align 4, !dbg !2071, !tbaa !1815
  %conv = fpext float %0 to double, !dbg !2071
  %call = call noundef nonnull align 8 dereferenceable(8) ptr @_ZNSo9_M_insertIdEERSoT_(ptr noundef nonnull align 8 dereferenceable(8) %this1, double noundef %conv), !dbg !2072
  ret ptr %call, !dbg !2073
}

; Function Attrs: nocallback nofree nosync nounwind willreturn memory(argmem: readwrite)
declare void @llvm.lifetime.end.p0(i64 immarg, ptr nocapture) #2

; Function Attrs: mustprogress nounwind uwtable
define available_externally void @_ZNSt14basic_ofstreamIcSt11char_traitsIcEED1Ev(ptr noundef nonnull align 8 dereferenceable(248) %this) unnamed_addr #6 align 2 !dbg !2074 {
entry:
  %this.addr = alloca ptr, align 8
  store ptr %this, ptr %this.addr, align 8, !tbaa !1774
  call void @llvm.dbg.declare(metadata ptr %this.addr, metadata !2079, metadata !DIExpression()), !dbg !2080
  %this1 = load ptr, ptr %this.addr, align 8
  call void @_ZNSt14basic_ofstreamIcSt11char_traitsIcEED2Ev(ptr noundef nonnull align 8 dereferenceable(248) %this1, ptr noundef @_ZTTSt14basic_ofstreamIcSt11char_traitsIcEE) #15, !dbg !2081
  %0 = getelementptr inbounds i8, ptr %this1, i64 248, !dbg !2081
  call void @_ZNSt8ios_baseD2Ev(ptr noundef nonnull align 8 dereferenceable(264) %0) #15, !dbg !2081
  ret void, !dbg !2082
}

; Function Attrs: nobuiltin nounwind
declare void @_ZdaPv(ptr noundef) #7

; Function Attrs: mustprogress norecurse uwtable
define dso_local void @_Z40__device_stub__cuda_initialize_variablesiPfPKf(i32 noundef %nelr, ptr noundef %variables, ptr noundef %ff_variable) #8 !dbg !2083 {
entry:
  %nelr.addr = alloca i32, align 4
  %variables.addr = alloca ptr, align 8
  %ff_variable.addr = alloca ptr, align 8
  %grid_dim = alloca %struct.dim3, align 8
  %block_dim = alloca %struct.dim3, align 8
  %shmem_size = alloca i64, align 8
  %stream = alloca ptr, align 8
  %grid_dim.coerce = alloca { i64, i32 }, align 8
  %block_dim.coerce = alloca { i64, i32 }, align 8
  store i32 %nelr, ptr %nelr.addr, align 4, !tbaa !1779
  call void @llvm.dbg.declare(metadata ptr %nelr.addr, metadata !2089, metadata !DIExpression()), !dbg !2092
  store ptr %variables, ptr %variables.addr, align 8, !tbaa !1774
  call void @llvm.dbg.declare(metadata ptr %variables.addr, metadata !2090, metadata !DIExpression()), !dbg !2093
  store ptr %ff_variable, ptr %ff_variable.addr, align 8, !tbaa !1774
  call void @llvm.dbg.declare(metadata ptr %ff_variable.addr, metadata !2091, metadata !DIExpression()), !dbg !2094
  %kernel_args = alloca ptr, i64 3, align 16, !dbg !2095
  %0 = getelementptr ptr, ptr %kernel_args, i32 0, !dbg !2095
  store ptr %nelr.addr, ptr %0, align 8, !dbg !2095
  %1 = getelementptr ptr, ptr %kernel_args, i32 1, !dbg !2095
  store ptr %variables.addr, ptr %1, align 8, !dbg !2095
  %2 = getelementptr ptr, ptr %kernel_args, i32 2, !dbg !2095
  store ptr %ff_variable.addr, ptr %2, align 8, !dbg !2095
  %3 = call i32 @__cudaPopCallConfiguration(ptr %grid_dim, ptr %block_dim, ptr %shmem_size, ptr %stream), !dbg !2095
  %4 = load i64, ptr %shmem_size, align 8, !dbg !2095
  %5 = load ptr, ptr %stream, align 8, !dbg !2095
  call void @llvm.memcpy.p0.p0.i64(ptr align 8 %grid_dim.coerce, ptr align 8 %grid_dim, i64 12, i1 false), !dbg !2095
  %6 = getelementptr inbounds { i64, i32 }, ptr %grid_dim.coerce, i32 0, i32 0, !dbg !2095
  %7 = load i64, ptr %6, align 8, !dbg !2095
  %8 = getelementptr inbounds { i64, i32 }, ptr %grid_dim.coerce, i32 0, i32 1, !dbg !2095
  %9 = load i32, ptr %8, align 8, !dbg !2095
  call void @llvm.memcpy.p0.p0.i64(ptr align 8 %block_dim.coerce, ptr align 8 %block_dim, i64 12, i1 false), !dbg !2095
  %10 = getelementptr inbounds { i64, i32 }, ptr %block_dim.coerce, i32 0, i32 0, !dbg !2095
  %11 = load i64, ptr %10, align 8, !dbg !2095
  %12 = getelementptr inbounds { i64, i32 }, ptr %block_dim.coerce, i32 0, i32 1, !dbg !2095
  %13 = load i32, ptr %12, align 8, !dbg !2095
  %14 = bitcast i32 3 to i32
  %15 = call i32 @cudaLaunchKernel_vortex(ptr @5, i64 %7, i32 %9, i64 %11, i32 %13, ptr %kernel_args, i64 %4, ptr %5, i32 %14), !dbg !2095
  br label %setup.end, !dbg !2095

setup.end:                                        ; preds = %entry
  ret void, !dbg !2096
}

declare i32 @__cudaPopCallConfiguration(ptr, ptr, ptr, ptr)

declare i32 @cudaLaunchKernel(ptr, i64, i32, i64, i32, ptr, i64, ptr)

; Function Attrs: nocallback nofree nounwind willreturn memory(argmem: readwrite)
declare void @llvm.memcpy.p0.p0.i64(ptr noalias nocapture writeonly, ptr noalias nocapture readonly, i64, i1 immarg) #9

; Function Attrs: mustprogress uwtable
define dso_local void @_Z20initialize_variablesiPfPKf(i32 noundef %nelr, ptr noundef %variables, ptr noundef %d_ff_var) #0 !dbg !2097 {
entry:
  %nelr.addr = alloca i32, align 4
  %variables.addr = alloca ptr, align 8
  %d_ff_var.addr = alloca ptr, align 8
  %Dg = alloca %struct.dim3, align 4
  %Db = alloca %struct.dim3, align 4
  %agg.tmp = alloca %struct.dim3, align 4
  %agg.tmp1 = alloca %struct.dim3, align 4
  %agg.tmp.coerce = alloca { i64, i32 }, align 4
  %agg.tmp1.coerce = alloca { i64, i32 }, align 4
  store i32 %nelr, ptr %nelr.addr, align 4, !tbaa !1779
  call void @llvm.dbg.declare(metadata ptr %nelr.addr, metadata !2099, metadata !DIExpression()), !dbg !2105
  store ptr %variables, ptr %variables.addr, align 8, !tbaa !1774
  call void @llvm.dbg.declare(metadata ptr %variables.addr, metadata !2100, metadata !DIExpression()), !dbg !2106
  store ptr %d_ff_var, ptr %d_ff_var.addr, align 8, !tbaa !1774
  call void @llvm.dbg.declare(metadata ptr %d_ff_var.addr, metadata !2101, metadata !DIExpression()), !dbg !2107
  call void @llvm.lifetime.start.p0(i64 12, ptr %Dg) #15, !dbg !2108
  call void @llvm.dbg.declare(metadata ptr %Dg, metadata !2102, metadata !DIExpression()), !dbg !2109
  %0 = load i32, ptr %nelr.addr, align 4, !dbg !2110, !tbaa !1779
  %div = sdiv i32 %0, 128, !dbg !2111
  call void @_ZN4dim3C2Ejjj(ptr noundef nonnull align 4 dereferenceable(12) %Dg, i32 noundef %div, i32 noundef 1, i32 noundef 1), !dbg !2109
  call void @llvm.lifetime.start.p0(i64 12, ptr %Db) #15, !dbg !2108
  call void @llvm.dbg.declare(metadata ptr %Db, metadata !2104, metadata !DIExpression()), !dbg !2112
  call void @_ZN4dim3C2Ejjj(ptr noundef nonnull align 4 dereferenceable(12) %Db, i32 noundef 128, i32 noundef 1, i32 noundef 1), !dbg !2112
  call void @llvm.memcpy.p0.p0.i64(ptr align 4 %agg.tmp, ptr align 4 %Dg, i64 12, i1 false), !dbg !2113, !tbaa.struct !2114
  call void @llvm.memcpy.p0.p0.i64(ptr align 4 %agg.tmp1, ptr align 4 %Db, i64 12, i1 false), !dbg !2115, !tbaa.struct !2114
  call void @llvm.memcpy.p0.p0.i64(ptr align 4 %agg.tmp.coerce, ptr align 4 %agg.tmp, i64 12, i1 false), !dbg !2116
  %1 = getelementptr inbounds { i64, i32 }, ptr %agg.tmp.coerce, i32 0, i32 0, !dbg !2116
  %2 = load i64, ptr %1, align 4, !dbg !2116
  %3 = getelementptr inbounds { i64, i32 }, ptr %agg.tmp.coerce, i32 0, i32 1, !dbg !2116
  %4 = load i32, ptr %3, align 4, !dbg !2116
  call void @llvm.memcpy.p0.p0.i64(ptr align 4 %agg.tmp1.coerce, ptr align 4 %agg.tmp1, i64 12, i1 false), !dbg !2116
  %5 = getelementptr inbounds { i64, i32 }, ptr %agg.tmp1.coerce, i32 0, i32 0, !dbg !2116
  %6 = load i64, ptr %5, align 4, !dbg !2116
  %7 = getelementptr inbounds { i64, i32 }, ptr %agg.tmp1.coerce, i32 0, i32 1, !dbg !2116
  %8 = load i32, ptr %7, align 4, !dbg !2116
  %call = call i32 @__cudaPushCallConfiguration(i64 %2, i32 %4, i64 %6, i32 %8, i64 noundef 0, ptr noundef null), !dbg !2116
  %tobool = icmp ne i32 %call, 0, !dbg !2116
  br i1 %tobool, label %kcall.end, label %kcall.configok, !dbg !2117

kcall.configok:                                   ; preds = %entry
  %9 = load i32, ptr %nelr.addr, align 4, !dbg !2118, !tbaa !1779
  %10 = load ptr, ptr %variables.addr, align 8, !dbg !2119, !tbaa !1774
  %11 = load ptr, ptr %d_ff_var.addr, align 8, !dbg !2120, !tbaa !1774
  call void @_Z40__device_stub__cuda_initialize_variablesiPfPKf(i32 noundef %9, ptr noundef %10, ptr noundef %11) #18, !dbg !2117
  %12 = call i32 @cudaDeviceSynchronize(), !dbg !2117
  br label %kcall.end, !dbg !2117

kcall.end:                                        ; preds = %kcall.configok, %entry
  call void @llvm.lifetime.end.p0(i64 12, ptr %Db) #15, !dbg !2121
  call void @llvm.lifetime.end.p0(i64 12, ptr %Dg) #15, !dbg !2121
  ret void, !dbg !2121
}

; Function Attrs: mustprogress nounwind uwtable
define linkonce_odr dso_local void @_ZN4dim3C2Ejjj(ptr noundef nonnull align 4 dereferenceable(12) %this, i32 noundef %vx, i32 noundef %vy, i32 noundef %vz) unnamed_addr #6 comdat align 2 !dbg !2122 {
entry:
  %this.addr = alloca ptr, align 8
  %vx.addr = alloca i32, align 4
  %vy.addr = alloca i32, align 4
  %vz.addr = alloca i32, align 4
  store ptr %this, ptr %this.addr, align 8, !tbaa !1774
  call void @llvm.dbg.declare(metadata ptr %this.addr, metadata !2124, metadata !DIExpression()), !dbg !2129
  store i32 %vx, ptr %vx.addr, align 4, !tbaa !1779
  call void @llvm.dbg.declare(metadata ptr %vx.addr, metadata !2126, metadata !DIExpression()), !dbg !2130
  store i32 %vy, ptr %vy.addr, align 4, !tbaa !1779
  call void @llvm.dbg.declare(metadata ptr %vy.addr, metadata !2127, metadata !DIExpression()), !dbg !2131
  store i32 %vz, ptr %vz.addr, align 4, !tbaa !1779
  call void @llvm.dbg.declare(metadata ptr %vz.addr, metadata !2128, metadata !DIExpression()), !dbg !2132
  %this1 = load ptr, ptr %this.addr, align 8
  %x = getelementptr inbounds %struct.dim3, ptr %this1, i32 0, i32 0, !dbg !2133
  %0 = load i32, ptr %vx.addr, align 4, !dbg !2134, !tbaa !1779
  store i32 %0, ptr %x, align 4, !dbg !2133, !tbaa !2135
  %y = getelementptr inbounds %struct.dim3, ptr %this1, i32 0, i32 1, !dbg !2137
  %1 = load i32, ptr %vy.addr, align 4, !dbg !2138, !tbaa !1779
  store i32 %1, ptr %y, align 4, !dbg !2137, !tbaa !2139
  %z = getelementptr inbounds %struct.dim3, ptr %this1, i32 0, i32 2, !dbg !2140
  %2 = load i32, ptr %vz.addr, align 4, !dbg !2141, !tbaa !1779
  store i32 %2, ptr %z, align 4, !dbg !2140, !tbaa !2142
  ret void, !dbg !2143
}

declare !dbg !2144 i32 @__cudaPushCallConfiguration(i64, i32, i64, i32, i64 noundef, ptr noundef) #5

; Function Attrs: mustprogress norecurse uwtable
define dso_local void @_Z39__device_stub__cuda_compute_step_factoriPfS_S_(i32 noundef %nelr, ptr noundef %variables, ptr noundef %areas, ptr noundef %step_factors) #8 !dbg !2148 {
entry:
  %nelr.addr = alloca i32, align 4
  %variables.addr = alloca ptr, align 8
  %areas.addr = alloca ptr, align 8
  %step_factors.addr = alloca ptr, align 8
  %grid_dim = alloca %struct.dim3, align 8
  %block_dim = alloca %struct.dim3, align 8
  %shmem_size = alloca i64, align 8
  %stream = alloca ptr, align 8
  %grid_dim.coerce = alloca { i64, i32 }, align 8
  %block_dim.coerce = alloca { i64, i32 }, align 8
  store i32 %nelr, ptr %nelr.addr, align 4, !tbaa !1779
  call void @llvm.dbg.declare(metadata ptr %nelr.addr, metadata !2152, metadata !DIExpression()), !dbg !2156
  store ptr %variables, ptr %variables.addr, align 8, !tbaa !1774
  call void @llvm.dbg.declare(metadata ptr %variables.addr, metadata !2153, metadata !DIExpression()), !dbg !2157
  store ptr %areas, ptr %areas.addr, align 8, !tbaa !1774
  call void @llvm.dbg.declare(metadata ptr %areas.addr, metadata !2154, metadata !DIExpression()), !dbg !2158
  store ptr %step_factors, ptr %step_factors.addr, align 8, !tbaa !1774
  call void @llvm.dbg.declare(metadata ptr %step_factors.addr, metadata !2155, metadata !DIExpression()), !dbg !2159
  %kernel_args = alloca ptr, i64 4, align 16, !dbg !2160
  %0 = getelementptr ptr, ptr %kernel_args, i32 0, !dbg !2160
  store ptr %nelr.addr, ptr %0, align 8, !dbg !2160
  %1 = getelementptr ptr, ptr %kernel_args, i32 1, !dbg !2160
  store ptr %variables.addr, ptr %1, align 8, !dbg !2160
  %2 = getelementptr ptr, ptr %kernel_args, i32 2, !dbg !2160
  store ptr %areas.addr, ptr %2, align 8, !dbg !2160
  %3 = getelementptr ptr, ptr %kernel_args, i32 3, !dbg !2160
  store ptr %step_factors.addr, ptr %3, align 8, !dbg !2160
  %4 = call i32 @__cudaPopCallConfiguration(ptr %grid_dim, ptr %block_dim, ptr %shmem_size, ptr %stream), !dbg !2160
  %5 = load i64, ptr %shmem_size, align 8, !dbg !2160
  %6 = load ptr, ptr %stream, align 8, !dbg !2160
  call void @llvm.memcpy.p0.p0.i64(ptr align 8 %grid_dim.coerce, ptr align 8 %grid_dim, i64 12, i1 false), !dbg !2160
  %7 = getelementptr inbounds { i64, i32 }, ptr %grid_dim.coerce, i32 0, i32 0, !dbg !2160
  %8 = load i64, ptr %7, align 8, !dbg !2160
  %9 = getelementptr inbounds { i64, i32 }, ptr %grid_dim.coerce, i32 0, i32 1, !dbg !2160
  %10 = load i32, ptr %9, align 8, !dbg !2160
  call void @llvm.memcpy.p0.p0.i64(ptr align 8 %block_dim.coerce, ptr align 8 %block_dim, i64 12, i1 false), !dbg !2160
  %11 = getelementptr inbounds { i64, i32 }, ptr %block_dim.coerce, i32 0, i32 0, !dbg !2160
  %12 = load i64, ptr %11, align 8, !dbg !2160
  %13 = getelementptr inbounds { i64, i32 }, ptr %block_dim.coerce, i32 0, i32 1, !dbg !2160
  %14 = load i32, ptr %13, align 8, !dbg !2160
  %15 = bitcast i32 4 to i32
  %16 = call i32 @cudaLaunchKernel_vortex(ptr @6, i64 %8, i32 %10, i64 %12, i32 %14, ptr %kernel_args, i64 %5, ptr %6, i32 %15), !dbg !2160
  br label %setup.end, !dbg !2160

setup.end:                                        ; preds = %entry
  ret void, !dbg !2161
}

; Function Attrs: mustprogress uwtable
define dso_local void @_Z19compute_step_factoriPfS_S_(i32 noundef %nelr, ptr noundef %variables, ptr noundef %areas, ptr noundef %step_factors) #0 !dbg !2162 {
entry:
  %nelr.addr = alloca i32, align 4
  %variables.addr = alloca ptr, align 8
  %areas.addr = alloca ptr, align 8
  %step_factors.addr = alloca ptr, align 8
  %Dg = alloca %struct.dim3, align 4
  %Db = alloca %struct.dim3, align 4
  %agg.tmp = alloca %struct.dim3, align 4
  %agg.tmp1 = alloca %struct.dim3, align 4
  %agg.tmp.coerce = alloca { i64, i32 }, align 4
  %agg.tmp1.coerce = alloca { i64, i32 }, align 4
  store i32 %nelr, ptr %nelr.addr, align 4, !tbaa !1779
  call void @llvm.dbg.declare(metadata ptr %nelr.addr, metadata !2164, metadata !DIExpression()), !dbg !2170
  store ptr %variables, ptr %variables.addr, align 8, !tbaa !1774
  call void @llvm.dbg.declare(metadata ptr %variables.addr, metadata !2165, metadata !DIExpression()), !dbg !2171
  store ptr %areas, ptr %areas.addr, align 8, !tbaa !1774
  call void @llvm.dbg.declare(metadata ptr %areas.addr, metadata !2166, metadata !DIExpression()), !dbg !2172
  store ptr %step_factors, ptr %step_factors.addr, align 8, !tbaa !1774
  call void @llvm.dbg.declare(metadata ptr %step_factors.addr, metadata !2167, metadata !DIExpression()), !dbg !2173
  call void @llvm.lifetime.start.p0(i64 12, ptr %Dg) #15, !dbg !2174
  call void @llvm.dbg.declare(metadata ptr %Dg, metadata !2168, metadata !DIExpression()), !dbg !2175
  %0 = load i32, ptr %nelr.addr, align 4, !dbg !2176, !tbaa !1779
  %div = sdiv i32 %0, 64, !dbg !2177
  call void @_ZN4dim3C2Ejjj(ptr noundef nonnull align 4 dereferenceable(12) %Dg, i32 noundef %div, i32 noundef 1, i32 noundef 1), !dbg !2175
  call void @llvm.lifetime.start.p0(i64 12, ptr %Db) #15, !dbg !2174
  call void @llvm.dbg.declare(metadata ptr %Db, metadata !2169, metadata !DIExpression()), !dbg !2178
  call void @_ZN4dim3C2Ejjj(ptr noundef nonnull align 4 dereferenceable(12) %Db, i32 noundef 64, i32 noundef 1, i32 noundef 1), !dbg !2178
  call void @llvm.memcpy.p0.p0.i64(ptr align 4 %agg.tmp, ptr align 4 %Dg, i64 12, i1 false), !dbg !2179, !tbaa.struct !2114
  call void @llvm.memcpy.p0.p0.i64(ptr align 4 %agg.tmp1, ptr align 4 %Db, i64 12, i1 false), !dbg !2180, !tbaa.struct !2114
  call void @llvm.memcpy.p0.p0.i64(ptr align 4 %agg.tmp.coerce, ptr align 4 %agg.tmp, i64 12, i1 false), !dbg !2181
  %1 = getelementptr inbounds { i64, i32 }, ptr %agg.tmp.coerce, i32 0, i32 0, !dbg !2181
  %2 = load i64, ptr %1, align 4, !dbg !2181
  %3 = getelementptr inbounds { i64, i32 }, ptr %agg.tmp.coerce, i32 0, i32 1, !dbg !2181
  %4 = load i32, ptr %3, align 4, !dbg !2181
  call void @llvm.memcpy.p0.p0.i64(ptr align 4 %agg.tmp1.coerce, ptr align 4 %agg.tmp1, i64 12, i1 false), !dbg !2181
  %5 = getelementptr inbounds { i64, i32 }, ptr %agg.tmp1.coerce, i32 0, i32 0, !dbg !2181
  %6 = load i64, ptr %5, align 4, !dbg !2181
  %7 = getelementptr inbounds { i64, i32 }, ptr %agg.tmp1.coerce, i32 0, i32 1, !dbg !2181
  %8 = load i32, ptr %7, align 4, !dbg !2181
  %call = call i32 @__cudaPushCallConfiguration(i64 %2, i32 %4, i64 %6, i32 %8, i64 noundef 0, ptr noundef null), !dbg !2181
  %tobool = icmp ne i32 %call, 0, !dbg !2181
  br i1 %tobool, label %kcall.end, label %kcall.configok, !dbg !2182

kcall.configok:                                   ; preds = %entry
  %9 = load i32, ptr %nelr.addr, align 4, !dbg !2183, !tbaa !1779
  %10 = load ptr, ptr %variables.addr, align 8, !dbg !2184, !tbaa !1774
  %11 = load ptr, ptr %areas.addr, align 8, !dbg !2185, !tbaa !1774
  %12 = load ptr, ptr %step_factors.addr, align 8, !dbg !2186, !tbaa !1774
  call void @_Z39__device_stub__cuda_compute_step_factoriPfS_S_(i32 noundef %9, ptr noundef %10, ptr noundef %11, ptr noundef %12) #18, !dbg !2182
  %13 = call i32 @cudaDeviceSynchronize(), !dbg !2182
  br label %kcall.end, !dbg !2182

kcall.end:                                        ; preds = %kcall.configok, %entry
  call void @llvm.lifetime.end.p0(i64 12, ptr %Db) #15, !dbg !2187
  call void @llvm.lifetime.end.p0(i64 12, ptr %Dg) #15, !dbg !2187
  ret void, !dbg !2187
}

; Function Attrs: mustprogress norecurse uwtable
define dso_local void @_Z32__device_stub__cuda_compute_fluxiPKiPKfS2_PfS2_PK6float3S6_S6_S6_(i32 noundef %nelr, ptr noundef %elements_surrounding_elements, ptr noundef %normals, ptr noundef %variables, ptr noundef %fluxes, ptr noundef %ff_variable, ptr noundef %ff_flux_contribution_momentum_x, ptr noundef %ff_flux_contribution_momentum_y, ptr noundef %ff_flux_contribution_momentum_z, ptr noundef %ff_flux_contribution_density_energy) #8 !dbg !2188 {
entry:
  %nelr.addr = alloca i32, align 4
  %elements_surrounding_elements.addr = alloca ptr, align 8
  %normals.addr = alloca ptr, align 8
  %variables.addr = alloca ptr, align 8
  %fluxes.addr = alloca ptr, align 8
  %ff_variable.addr = alloca ptr, align 8
  %ff_flux_contribution_momentum_x.addr = alloca ptr, align 8
  %ff_flux_contribution_momentum_y.addr = alloca ptr, align 8
  %ff_flux_contribution_momentum_z.addr = alloca ptr, align 8
  %ff_flux_contribution_density_energy.addr = alloca ptr, align 8
  %grid_dim = alloca %struct.dim3, align 8
  %block_dim = alloca %struct.dim3, align 8
  %shmem_size = alloca i64, align 8
  %stream = alloca ptr, align 8
  %grid_dim.coerce = alloca { i64, i32 }, align 8
  %block_dim.coerce = alloca { i64, i32 }, align 8
  store i32 %nelr, ptr %nelr.addr, align 4, !tbaa !1779
  call void @llvm.dbg.declare(metadata ptr %nelr.addr, metadata !2202, metadata !DIExpression()), !dbg !2212
  store ptr %elements_surrounding_elements, ptr %elements_surrounding_elements.addr, align 8, !tbaa !1774
  call void @llvm.dbg.declare(metadata ptr %elements_surrounding_elements.addr, metadata !2203, metadata !DIExpression()), !dbg !2213
  store ptr %normals, ptr %normals.addr, align 8, !tbaa !1774
  call void @llvm.dbg.declare(metadata ptr %normals.addr, metadata !2204, metadata !DIExpression()), !dbg !2214
  store ptr %variables, ptr %variables.addr, align 8, !tbaa !1774
  call void @llvm.dbg.declare(metadata ptr %variables.addr, metadata !2205, metadata !DIExpression()), !dbg !2215
  store ptr %fluxes, ptr %fluxes.addr, align 8, !tbaa !1774
  call void @llvm.dbg.declare(metadata ptr %fluxes.addr, metadata !2206, metadata !DIExpression()), !dbg !2216
  store ptr %ff_variable, ptr %ff_variable.addr, align 8, !tbaa !1774
  call void @llvm.dbg.declare(metadata ptr %ff_variable.addr, metadata !2207, metadata !DIExpression()), !dbg !2217
  store ptr %ff_flux_contribution_momentum_x, ptr %ff_flux_contribution_momentum_x.addr, align 8, !tbaa !1774
  call void @llvm.dbg.declare(metadata ptr %ff_flux_contribution_momentum_x.addr, metadata !2208, metadata !DIExpression()), !dbg !2218
  store ptr %ff_flux_contribution_momentum_y, ptr %ff_flux_contribution_momentum_y.addr, align 8, !tbaa !1774
  call void @llvm.dbg.declare(metadata ptr %ff_flux_contribution_momentum_y.addr, metadata !2209, metadata !DIExpression()), !dbg !2219
  store ptr %ff_flux_contribution_momentum_z, ptr %ff_flux_contribution_momentum_z.addr, align 8, !tbaa !1774
  call void @llvm.dbg.declare(metadata ptr %ff_flux_contribution_momentum_z.addr, metadata !2210, metadata !DIExpression()), !dbg !2220
  store ptr %ff_flux_contribution_density_energy, ptr %ff_flux_contribution_density_energy.addr, align 8, !tbaa !1774
  call void @llvm.dbg.declare(metadata ptr %ff_flux_contribution_density_energy.addr, metadata !2211, metadata !DIExpression()), !dbg !2221
  %kernel_args = alloca ptr, i64 10, align 16, !dbg !2222
  %0 = getelementptr ptr, ptr %kernel_args, i32 0, !dbg !2222
  store ptr %nelr.addr, ptr %0, align 8, !dbg !2222
  %1 = getelementptr ptr, ptr %kernel_args, i32 1, !dbg !2222
  store ptr %elements_surrounding_elements.addr, ptr %1, align 8, !dbg !2222
  %2 = getelementptr ptr, ptr %kernel_args, i32 2, !dbg !2222
  store ptr %normals.addr, ptr %2, align 8, !dbg !2222
  %3 = getelementptr ptr, ptr %kernel_args, i32 3, !dbg !2222
  store ptr %variables.addr, ptr %3, align 8, !dbg !2222
  %4 = getelementptr ptr, ptr %kernel_args, i32 4, !dbg !2222
  store ptr %fluxes.addr, ptr %4, align 8, !dbg !2222
  %5 = getelementptr ptr, ptr %kernel_args, i32 5, !dbg !2222
  store ptr %ff_variable.addr, ptr %5, align 8, !dbg !2222
  %6 = getelementptr ptr, ptr %kernel_args, i32 6, !dbg !2222
  store ptr %ff_flux_contribution_momentum_x.addr, ptr %6, align 8, !dbg !2222
  %7 = getelementptr ptr, ptr %kernel_args, i32 7, !dbg !2222
  store ptr %ff_flux_contribution_momentum_y.addr, ptr %7, align 8, !dbg !2222
  %8 = getelementptr ptr, ptr %kernel_args, i32 8, !dbg !2222
  store ptr %ff_flux_contribution_momentum_z.addr, ptr %8, align 8, !dbg !2222
  %9 = getelementptr ptr, ptr %kernel_args, i32 9, !dbg !2222
  store ptr %ff_flux_contribution_density_energy.addr, ptr %9, align 8, !dbg !2222
  %10 = call i32 @__cudaPopCallConfiguration(ptr %grid_dim, ptr %block_dim, ptr %shmem_size, ptr %stream), !dbg !2222
  %11 = load i64, ptr %shmem_size, align 8, !dbg !2222
  %12 = load ptr, ptr %stream, align 8, !dbg !2222
  call void @llvm.memcpy.p0.p0.i64(ptr align 8 %grid_dim.coerce, ptr align 8 %grid_dim, i64 12, i1 false), !dbg !2222
  %13 = getelementptr inbounds { i64, i32 }, ptr %grid_dim.coerce, i32 0, i32 0, !dbg !2222
  %14 = load i64, ptr %13, align 8, !dbg !2222
  %15 = getelementptr inbounds { i64, i32 }, ptr %grid_dim.coerce, i32 0, i32 1, !dbg !2222
  %16 = load i32, ptr %15, align 8, !dbg !2222
  call void @llvm.memcpy.p0.p0.i64(ptr align 8 %block_dim.coerce, ptr align 8 %block_dim, i64 12, i1 false), !dbg !2222
  %17 = getelementptr inbounds { i64, i32 }, ptr %block_dim.coerce, i32 0, i32 0, !dbg !2222
  %18 = load i64, ptr %17, align 8, !dbg !2222
  %19 = getelementptr inbounds { i64, i32 }, ptr %block_dim.coerce, i32 0, i32 1, !dbg !2222
  %20 = load i32, ptr %19, align 8, !dbg !2222
  %21 = bitcast i32 10 to i32
  %22 = call i32 @cudaLaunchKernel_vortex(ptr @7, i64 %14, i32 %16, i64 %18, i32 %20, ptr %kernel_args, i64 %11, ptr %12, i32 %21), !dbg !2222
  br label %setup.end, !dbg !2222

setup.end:                                        ; preds = %entry
  ret void, !dbg !2223
}

; Function Attrs: mustprogress uwtable
define dso_local void @_Z12compute_fluxiPiPfS0_S0_PKfPK6float3S5_S5_S5_(i32 noundef %nelr, ptr noundef %elements_surrounding_elements, ptr noundef %normals, ptr noundef %variables, ptr noundef %fluxes, ptr noundef %d_ff_var, ptr noundef %d_ff_mx, ptr noundef %d_ff_my, ptr noundef %d_ff_mz, ptr noundef %d_ff_de) #0 !dbg !2224 {
entry:
  %nelr.addr = alloca i32, align 4
  %elements_surrounding_elements.addr = alloca ptr, align 8
  %normals.addr = alloca ptr, align 8
  %variables.addr = alloca ptr, align 8
  %fluxes.addr = alloca ptr, align 8
  %d_ff_var.addr = alloca ptr, align 8
  %d_ff_mx.addr = alloca ptr, align 8
  %d_ff_my.addr = alloca ptr, align 8
  %d_ff_mz.addr = alloca ptr, align 8
  %d_ff_de.addr = alloca ptr, align 8
  %Dg = alloca %struct.dim3, align 4
  %Db = alloca %struct.dim3, align 4
  %agg.tmp = alloca %struct.dim3, align 4
  %agg.tmp1 = alloca %struct.dim3, align 4
  %agg.tmp.coerce = alloca { i64, i32 }, align 4
  %agg.tmp1.coerce = alloca { i64, i32 }, align 4
  store i32 %nelr, ptr %nelr.addr, align 4, !tbaa !1779
  call void @llvm.dbg.declare(metadata ptr %nelr.addr, metadata !2228, metadata !DIExpression()), !dbg !2240
  store ptr %elements_surrounding_elements, ptr %elements_surrounding_elements.addr, align 8, !tbaa !1774
  call void @llvm.dbg.declare(metadata ptr %elements_surrounding_elements.addr, metadata !2229, metadata !DIExpression()), !dbg !2241
  store ptr %normals, ptr %normals.addr, align 8, !tbaa !1774
  call void @llvm.dbg.declare(metadata ptr %normals.addr, metadata !2230, metadata !DIExpression()), !dbg !2242
  store ptr %variables, ptr %variables.addr, align 8, !tbaa !1774
  call void @llvm.dbg.declare(metadata ptr %variables.addr, metadata !2231, metadata !DIExpression()), !dbg !2243
  store ptr %fluxes, ptr %fluxes.addr, align 8, !tbaa !1774
  call void @llvm.dbg.declare(metadata ptr %fluxes.addr, metadata !2232, metadata !DIExpression()), !dbg !2244
  store ptr %d_ff_var, ptr %d_ff_var.addr, align 8, !tbaa !1774
  call void @llvm.dbg.declare(metadata ptr %d_ff_var.addr, metadata !2233, metadata !DIExpression()), !dbg !2245
  store ptr %d_ff_mx, ptr %d_ff_mx.addr, align 8, !tbaa !1774
  call void @llvm.dbg.declare(metadata ptr %d_ff_mx.addr, metadata !2234, metadata !DIExpression()), !dbg !2246
  store ptr %d_ff_my, ptr %d_ff_my.addr, align 8, !tbaa !1774
  call void @llvm.dbg.declare(metadata ptr %d_ff_my.addr, metadata !2235, metadata !DIExpression()), !dbg !2247
  store ptr %d_ff_mz, ptr %d_ff_mz.addr, align 8, !tbaa !1774
  call void @llvm.dbg.declare(metadata ptr %d_ff_mz.addr, metadata !2236, metadata !DIExpression()), !dbg !2248
  store ptr %d_ff_de, ptr %d_ff_de.addr, align 8, !tbaa !1774
  call void @llvm.dbg.declare(metadata ptr %d_ff_de.addr, metadata !2237, metadata !DIExpression()), !dbg !2249
  call void @llvm.lifetime.start.p0(i64 12, ptr %Dg) #15, !dbg !2250
  call void @llvm.dbg.declare(metadata ptr %Dg, metadata !2238, metadata !DIExpression()), !dbg !2251
  %0 = load i32, ptr %nelr.addr, align 4, !dbg !2252, !tbaa !1779
  %div = sdiv i32 %0, 64, !dbg !2253
  call void @_ZN4dim3C2Ejjj(ptr noundef nonnull align 4 dereferenceable(12) %Dg, i32 noundef %div, i32 noundef 1, i32 noundef 1), !dbg !2251
  call void @llvm.lifetime.start.p0(i64 12, ptr %Db) #15, !dbg !2250
  call void @llvm.dbg.declare(metadata ptr %Db, metadata !2239, metadata !DIExpression()), !dbg !2254
  call void @_ZN4dim3C2Ejjj(ptr noundef nonnull align 4 dereferenceable(12) %Db, i32 noundef 64, i32 noundef 1, i32 noundef 1), !dbg !2254
  call void @llvm.memcpy.p0.p0.i64(ptr align 4 %agg.tmp, ptr align 4 %Dg, i64 12, i1 false), !dbg !2255, !tbaa.struct !2114
  call void @llvm.memcpy.p0.p0.i64(ptr align 4 %agg.tmp1, ptr align 4 %Db, i64 12, i1 false), !dbg !2256, !tbaa.struct !2114
  call void @llvm.memcpy.p0.p0.i64(ptr align 4 %agg.tmp.coerce, ptr align 4 %agg.tmp, i64 12, i1 false), !dbg !2257
  %1 = getelementptr inbounds { i64, i32 }, ptr %agg.tmp.coerce, i32 0, i32 0, !dbg !2257
  %2 = load i64, ptr %1, align 4, !dbg !2257
  %3 = getelementptr inbounds { i64, i32 }, ptr %agg.tmp.coerce, i32 0, i32 1, !dbg !2257
  %4 = load i32, ptr %3, align 4, !dbg !2257
  call void @llvm.memcpy.p0.p0.i64(ptr align 4 %agg.tmp1.coerce, ptr align 4 %agg.tmp1, i64 12, i1 false), !dbg !2257
  %5 = getelementptr inbounds { i64, i32 }, ptr %agg.tmp1.coerce, i32 0, i32 0, !dbg !2257
  %6 = load i64, ptr %5, align 4, !dbg !2257
  %7 = getelementptr inbounds { i64, i32 }, ptr %agg.tmp1.coerce, i32 0, i32 1, !dbg !2257
  %8 = load i32, ptr %7, align 4, !dbg !2257
  %call = call i32 @__cudaPushCallConfiguration(i64 %2, i32 %4, i64 %6, i32 %8, i64 noundef 0, ptr noundef null), !dbg !2257
  %tobool = icmp ne i32 %call, 0, !dbg !2257
  br i1 %tobool, label %kcall.end, label %kcall.configok, !dbg !2258

kcall.configok:                                   ; preds = %entry
  %9 = load i32, ptr %nelr.addr, align 4, !dbg !2259, !tbaa !1779
  %10 = load ptr, ptr %elements_surrounding_elements.addr, align 8, !dbg !2260, !tbaa !1774
  %11 = load ptr, ptr %normals.addr, align 8, !dbg !2261, !tbaa !1774
  %12 = load ptr, ptr %variables.addr, align 8, !dbg !2262, !tbaa !1774
  %13 = load ptr, ptr %fluxes.addr, align 8, !dbg !2263, !tbaa !1774
  %14 = load ptr, ptr %d_ff_var.addr, align 8, !dbg !2264, !tbaa !1774
  %15 = load ptr, ptr %d_ff_mx.addr, align 8, !dbg !2265, !tbaa !1774
  %16 = load ptr, ptr %d_ff_my.addr, align 8, !dbg !2266, !tbaa !1774
  %17 = load ptr, ptr %d_ff_mz.addr, align 8, !dbg !2267, !tbaa !1774
  %18 = load ptr, ptr %d_ff_de.addr, align 8, !dbg !2268, !tbaa !1774
  call void @_Z32__device_stub__cuda_compute_fluxiPKiPKfS2_PfS2_PK6float3S6_S6_S6_(i32 noundef %9, ptr noundef %10, ptr noundef %11, ptr noundef %12, ptr noundef %13, ptr noundef %14, ptr noundef %15, ptr noundef %16, ptr noundef %17, ptr noundef %18) #18, !dbg !2258
  %19 = call i32 @cudaDeviceSynchronize(), !dbg !2258
  br label %kcall.end, !dbg !2258

kcall.end:                                        ; preds = %kcall.configok, %entry
  call void @llvm.lifetime.end.p0(i64 12, ptr %Db) #15, !dbg !2269
  call void @llvm.lifetime.end.p0(i64 12, ptr %Dg) #15, !dbg !2269
  ret void, !dbg !2269
}

; Function Attrs: mustprogress norecurse uwtable
define dso_local void @_Z29__device_stub__cuda_time_stepiiPfS_S_S_(i32 noundef %j, i32 noundef %nelr, ptr noundef %old_variables, ptr noundef %variables, ptr noundef %step_factors, ptr noundef %fluxes) #8 !dbg !2270 {
entry:
  %j.addr = alloca i32, align 4
  %nelr.addr = alloca i32, align 4
  %old_variables.addr = alloca ptr, align 8
  %variables.addr = alloca ptr, align 8
  %step_factors.addr = alloca ptr, align 8
  %fluxes.addr = alloca ptr, align 8
  %grid_dim = alloca %struct.dim3, align 8
  %block_dim = alloca %struct.dim3, align 8
  %shmem_size = alloca i64, align 8
  %stream = alloca ptr, align 8
  %grid_dim.coerce = alloca { i64, i32 }, align 8
  %block_dim.coerce = alloca { i64, i32 }, align 8
  store i32 %j, ptr %j.addr, align 4, !tbaa !1779
  call void @llvm.dbg.declare(metadata ptr %j.addr, metadata !2274, metadata !DIExpression()), !dbg !2280
  store i32 %nelr, ptr %nelr.addr, align 4, !tbaa !1779
  call void @llvm.dbg.declare(metadata ptr %nelr.addr, metadata !2275, metadata !DIExpression()), !dbg !2281
  store ptr %old_variables, ptr %old_variables.addr, align 8, !tbaa !1774
  call void @llvm.dbg.declare(metadata ptr %old_variables.addr, metadata !2276, metadata !DIExpression()), !dbg !2282
  store ptr %variables, ptr %variables.addr, align 8, !tbaa !1774
  call void @llvm.dbg.declare(metadata ptr %variables.addr, metadata !2277, metadata !DIExpression()), !dbg !2283
  store ptr %step_factors, ptr %step_factors.addr, align 8, !tbaa !1774
  call void @llvm.dbg.declare(metadata ptr %step_factors.addr, metadata !2278, metadata !DIExpression()), !dbg !2284
  store ptr %fluxes, ptr %fluxes.addr, align 8, !tbaa !1774
  call void @llvm.dbg.declare(metadata ptr %fluxes.addr, metadata !2279, metadata !DIExpression()), !dbg !2285
  %kernel_args = alloca ptr, i64 6, align 16, !dbg !2286
  %0 = getelementptr ptr, ptr %kernel_args, i32 0, !dbg !2286
  store ptr %j.addr, ptr %0, align 8, !dbg !2286
  %1 = getelementptr ptr, ptr %kernel_args, i32 1, !dbg !2286
  store ptr %nelr.addr, ptr %1, align 8, !dbg !2286
  %2 = getelementptr ptr, ptr %kernel_args, i32 2, !dbg !2286
  store ptr %old_variables.addr, ptr %2, align 8, !dbg !2286
  %3 = getelementptr ptr, ptr %kernel_args, i32 3, !dbg !2286
  store ptr %variables.addr, ptr %3, align 8, !dbg !2286
  %4 = getelementptr ptr, ptr %kernel_args, i32 4, !dbg !2286
  store ptr %step_factors.addr, ptr %4, align 8, !dbg !2286
  %5 = getelementptr ptr, ptr %kernel_args, i32 5, !dbg !2286
  store ptr %fluxes.addr, ptr %5, align 8, !dbg !2286
  %6 = call i32 @__cudaPopCallConfiguration(ptr %grid_dim, ptr %block_dim, ptr %shmem_size, ptr %stream), !dbg !2286
  %7 = load i64, ptr %shmem_size, align 8, !dbg !2286
  %8 = load ptr, ptr %stream, align 8, !dbg !2286
  call void @llvm.memcpy.p0.p0.i64(ptr align 8 %grid_dim.coerce, ptr align 8 %grid_dim, i64 12, i1 false), !dbg !2286
  %9 = getelementptr inbounds { i64, i32 }, ptr %grid_dim.coerce, i32 0, i32 0, !dbg !2286
  %10 = load i64, ptr %9, align 8, !dbg !2286
  %11 = getelementptr inbounds { i64, i32 }, ptr %grid_dim.coerce, i32 0, i32 1, !dbg !2286
  %12 = load i32, ptr %11, align 8, !dbg !2286
  call void @llvm.memcpy.p0.p0.i64(ptr align 8 %block_dim.coerce, ptr align 8 %block_dim, i64 12, i1 false), !dbg !2286
  %13 = getelementptr inbounds { i64, i32 }, ptr %block_dim.coerce, i32 0, i32 0, !dbg !2286
  %14 = load i64, ptr %13, align 8, !dbg !2286
  %15 = getelementptr inbounds { i64, i32 }, ptr %block_dim.coerce, i32 0, i32 1, !dbg !2286
  %16 = load i32, ptr %15, align 8, !dbg !2286
  %17 = bitcast i32 6 to i32
  %18 = call i32 @cudaLaunchKernel_vortex(ptr @8, i64 %10, i32 %12, i64 %14, i32 %16, ptr %kernel_args, i64 %7, ptr %8, i32 %17), !dbg !2286
  br label %setup.end, !dbg !2286

setup.end:                                        ; preds = %entry
  ret void, !dbg !2287
}

; Function Attrs: mustprogress uwtable
define dso_local void @_Z9time_stepiiPfS_S_S_(i32 noundef %j, i32 noundef %nelr, ptr noundef %old_variables, ptr noundef %variables, ptr noundef %step_factors, ptr noundef %fluxes) #0 !dbg !2288 {
entry:
  %j.addr = alloca i32, align 4
  %nelr.addr = alloca i32, align 4
  %old_variables.addr = alloca ptr, align 8
  %variables.addr = alloca ptr, align 8
  %step_factors.addr = alloca ptr, align 8
  %fluxes.addr = alloca ptr, align 8
  %Dg = alloca %struct.dim3, align 4
  %Db = alloca %struct.dim3, align 4
  %agg.tmp = alloca %struct.dim3, align 4
  %agg.tmp1 = alloca %struct.dim3, align 4
  %agg.tmp.coerce = alloca { i64, i32 }, align 4
  %agg.tmp1.coerce = alloca { i64, i32 }, align 4
  store i32 %j, ptr %j.addr, align 4, !tbaa !1779
  call void @llvm.dbg.declare(metadata ptr %j.addr, metadata !2290, metadata !DIExpression()), !dbg !2298
  store i32 %nelr, ptr %nelr.addr, align 4, !tbaa !1779
  call void @llvm.dbg.declare(metadata ptr %nelr.addr, metadata !2291, metadata !DIExpression()), !dbg !2299
  store ptr %old_variables, ptr %old_variables.addr, align 8, !tbaa !1774
  call void @llvm.dbg.declare(metadata ptr %old_variables.addr, metadata !2292, metadata !DIExpression()), !dbg !2300
  store ptr %variables, ptr %variables.addr, align 8, !tbaa !1774
  call void @llvm.dbg.declare(metadata ptr %variables.addr, metadata !2293, metadata !DIExpression()), !dbg !2301
  store ptr %step_factors, ptr %step_factors.addr, align 8, !tbaa !1774
  call void @llvm.dbg.declare(metadata ptr %step_factors.addr, metadata !2294, metadata !DIExpression()), !dbg !2302
  store ptr %fluxes, ptr %fluxes.addr, align 8, !tbaa !1774
  call void @llvm.dbg.declare(metadata ptr %fluxes.addr, metadata !2295, metadata !DIExpression()), !dbg !2303
  call void @llvm.lifetime.start.p0(i64 12, ptr %Dg) #15, !dbg !2304
  call void @llvm.dbg.declare(metadata ptr %Dg, metadata !2296, metadata !DIExpression()), !dbg !2305
  %0 = load i32, ptr %nelr.addr, align 4, !dbg !2306, !tbaa !1779
  %div = sdiv i32 %0, 192, !dbg !2307
  call void @_ZN4dim3C2Ejjj(ptr noundef nonnull align 4 dereferenceable(12) %Dg, i32 noundef %div, i32 noundef 1, i32 noundef 1), !dbg !2305
  call void @llvm.lifetime.start.p0(i64 12, ptr %Db) #15, !dbg !2304
  call void @llvm.dbg.declare(metadata ptr %Db, metadata !2297, metadata !DIExpression()), !dbg !2308
  call void @_ZN4dim3C2Ejjj(ptr noundef nonnull align 4 dereferenceable(12) %Db, i32 noundef 192, i32 noundef 1, i32 noundef 1), !dbg !2308
  call void @llvm.memcpy.p0.p0.i64(ptr align 4 %agg.tmp, ptr align 4 %Dg, i64 12, i1 false), !dbg !2309, !tbaa.struct !2114
  call void @llvm.memcpy.p0.p0.i64(ptr align 4 %agg.tmp1, ptr align 4 %Db, i64 12, i1 false), !dbg !2310, !tbaa.struct !2114
  call void @llvm.memcpy.p0.p0.i64(ptr align 4 %agg.tmp.coerce, ptr align 4 %agg.tmp, i64 12, i1 false), !dbg !2311
  %1 = getelementptr inbounds { i64, i32 }, ptr %agg.tmp.coerce, i32 0, i32 0, !dbg !2311
  %2 = load i64, ptr %1, align 4, !dbg !2311
  %3 = getelementptr inbounds { i64, i32 }, ptr %agg.tmp.coerce, i32 0, i32 1, !dbg !2311
  %4 = load i32, ptr %3, align 4, !dbg !2311
  call void @llvm.memcpy.p0.p0.i64(ptr align 4 %agg.tmp1.coerce, ptr align 4 %agg.tmp1, i64 12, i1 false), !dbg !2311
  %5 = getelementptr inbounds { i64, i32 }, ptr %agg.tmp1.coerce, i32 0, i32 0, !dbg !2311
  %6 = load i64, ptr %5, align 4, !dbg !2311
  %7 = getelementptr inbounds { i64, i32 }, ptr %agg.tmp1.coerce, i32 0, i32 1, !dbg !2311
  %8 = load i32, ptr %7, align 4, !dbg !2311
  %call = call i32 @__cudaPushCallConfiguration(i64 %2, i32 %4, i64 %6, i32 %8, i64 noundef 0, ptr noundef null), !dbg !2311
  %tobool = icmp ne i32 %call, 0, !dbg !2311
  br i1 %tobool, label %kcall.end, label %kcall.configok, !dbg !2312

kcall.configok:                                   ; preds = %entry
  %9 = load i32, ptr %j.addr, align 4, !dbg !2313, !tbaa !1779
  %10 = load i32, ptr %nelr.addr, align 4, !dbg !2314, !tbaa !1779
  %11 = load ptr, ptr %old_variables.addr, align 8, !dbg !2315, !tbaa !1774
  %12 = load ptr, ptr %variables.addr, align 8, !dbg !2316, !tbaa !1774
  %13 = load ptr, ptr %step_factors.addr, align 8, !dbg !2317, !tbaa !1774
  %14 = load ptr, ptr %fluxes.addr, align 8, !dbg !2318, !tbaa !1774
  call void @_Z29__device_stub__cuda_time_stepiiPfS_S_S_(i32 noundef %9, i32 noundef %10, ptr noundef %11, ptr noundef %12, ptr noundef %13, ptr noundef %14) #18, !dbg !2312
  %15 = call i32 @cudaDeviceSynchronize(), !dbg !2312
  br label %kcall.end, !dbg !2312

kcall.end:                                        ; preds = %kcall.configok, %entry
  call void @llvm.lifetime.end.p0(i64 12, ptr %Db) #15, !dbg !2319
  call void @llvm.lifetime.end.p0(i64 12, ptr %Dg) #15, !dbg !2319
  ret void, !dbg !2319
}

; Function Attrs: mustprogress norecurse uwtable
define dso_local noundef i32 @main(i32 noundef %argc, ptr noundef %argv) #10 personality ptr @__gxx_personality_v0 !dbg !2320 {
entry:
  %retval = alloca i32, align 4
  %argc.addr = alloca i32, align 4
  %argv.addr = alloca ptr, align 8
  %data_file_name = alloca ptr, align 8
  %h_ff_variable = alloca [5 x float], align 16
  %angle_of_attack = alloca float, align 4
  %ff_pressure = alloca float, align 4
  %ff_speed_of_sound = alloca float, align 4
  %ff_speed = alloca float, align 4
  %ff_velocity = alloca %struct.float3, align 4
  %h_ff_momentum = alloca %struct.float3, align 4
  %h_ff_flux_contribution_momentum_x = alloca %struct.float3, align 4
  %h_ff_flux_contribution_momentum_y = alloca %struct.float3, align 4
  %h_ff_flux_contribution_momentum_z = alloca %struct.float3, align 4
  %h_ff_flux_contribution_density_energy = alloca %struct.float3, align 4
  %d_ff_variable = alloca ptr, align 8
  %d_ff_mx = alloca ptr, align 8
  %d_ff_my = alloca ptr, align 8
  %d_ff_mz = alloca ptr, align 8
  %d_ff_de = alloca ptr, align 8
  %nel = alloca i32, align 4
  %nelr = alloca i32, align 4
  %areas = alloca ptr, align 8
  %elements_surrounding_elements = alloca ptr, align 8
  %normals = alloca ptr, align 8
  %file = alloca %"class.std::basic_ifstream", align 8
  %exn.slot = alloca ptr, align 8
  %ehselector.slot = alloca i32, align 4
  %ref.tmp = alloca i32, align 4
  %ref.tmp58 = alloca i32, align 4
  %h_areas = alloca ptr, align 8
  %h_elements_surrounding_elements = alloca ptr, align 8
  %h_normals = alloca ptr, align 8
  %i = alloca i32, align 4
  %cleanup.dest.slot = alloca i32, align 4
  %j = alloca i32, align 4
  %k = alloca i32, align 4
  %last = alloca i32, align 4
  %i140 = alloca i32, align 4
  %j149 = alloca i32, align 4
  %k162 = alloca i32, align 4
  %variables = alloca ptr, align 8
  %old_variables = alloca ptr, align 8
  %fluxes = alloca ptr, align 8
  %step_factors = alloca ptr, align 8
  %i229 = alloca i32, align 4
  %j235 = alloca i32, align 4
  store i32 0, ptr %retval, align 4
  store i32 %argc, ptr %argc.addr, align 4, !tbaa !1779
  call void @llvm.dbg.declare(metadata ptr %argc.addr, metadata !2324, metadata !DIExpression()), !dbg !2390
  store ptr %argv, ptr %argv.addr, align 8, !tbaa !1774
  call void @llvm.dbg.declare(metadata ptr %argv.addr, metadata !2325, metadata !DIExpression()), !dbg !2391
  %call = call i32 (ptr, ...) @printf(ptr noundef @.str.4, i32 noundef 128, i32 noundef 64, i32 noundef 64, i32 noundef 192), !dbg !2392
  %0 = load i32, ptr %argc.addr, align 4, !dbg !2393, !tbaa !1779
  %cmp = icmp slt i32 %0, 2, !dbg !2395
  br i1 %cmp, label %if.then, label %if.end, !dbg !2396

if.then:                                          ; preds = %entry
  %call1 = call noundef nonnull align 8 dereferenceable(8) ptr @_ZStlsISt11char_traitsIcEERSt13basic_ostreamIcT_ES5_PKc(ptr noundef nonnull align 8 dereferenceable(8) @_ZSt4cout, ptr noundef @.str.5), !dbg !2397
  %call2 = call noundef nonnull align 8 dereferenceable(8) ptr @_ZNSolsEPFRSoS_E(ptr noundef nonnull align 8 dereferenceable(8) %call1, ptr noundef @_ZSt4endlIcSt11char_traitsIcEERSt13basic_ostreamIT_T0_ES6_), !dbg !2399
  store i32 0, ptr %retval, align 4, !dbg !2400
  br label %return, !dbg !2400

if.end:                                           ; preds = %entry
  call void @llvm.lifetime.start.p0(i64 8, ptr %data_file_name) #15, !dbg !2401
  call void @llvm.dbg.declare(metadata ptr %data_file_name, metadata !2326, metadata !DIExpression()), !dbg !2402
  %1 = load ptr, ptr %argv.addr, align 8, !dbg !2403, !tbaa !1774
  %arrayidx = getelementptr inbounds ptr, ptr %1, i64 1, !dbg !2403
  %2 = load ptr, ptr %arrayidx, align 8, !dbg !2403, !tbaa !1774
  store ptr %2, ptr %data_file_name, align 8, !dbg !2402, !tbaa !1774
  %call3 = call i32 @cudaSetDevice(i32 noundef 0), !dbg !2404
  call void @llvm.lifetime.start.p0(i64 20, ptr %h_ff_variable) #15, !dbg !2405
  call void @llvm.dbg.declare(metadata ptr %h_ff_variable, metadata !2327, metadata !DIExpression()), !dbg !2406
  call void @llvm.lifetime.start.p0(i64 4, ptr %angle_of_attack) #15, !dbg !2407
  call void @llvm.dbg.declare(metadata ptr %angle_of_attack, metadata !2331, metadata !DIExpression()), !dbg !2408
  store float 0.000000e+00, ptr %angle_of_attack, align 4, !dbg !2408, !tbaa !1815
  %arrayidx4 = getelementptr inbounds [5 x float], ptr %h_ff_variable, i64 0, i64 0, !dbg !2409
  store float 0x3FF6666660000000, ptr %arrayidx4, align 16, !dbg !2410, !tbaa !1815
  call void @llvm.lifetime.start.p0(i64 4, ptr %ff_pressure) #15, !dbg !2411
  call void @llvm.dbg.declare(metadata ptr %ff_pressure, metadata !2332, metadata !DIExpression()), !dbg !2412
  store float 1.000000e+00, ptr %ff_pressure, align 4, !dbg !2412, !tbaa !1815
  call void @llvm.lifetime.start.p0(i64 4, ptr %ff_speed_of_sound) #15, !dbg !2413
  call void @llvm.dbg.declare(metadata ptr %ff_speed_of_sound, metadata !2333, metadata !DIExpression()), !dbg !2414
  %3 = load float, ptr %ff_pressure, align 4, !dbg !2415, !tbaa !1815
  %mul = fmul float 0x3FF6666660000000, %3, !dbg !2416
  %arrayidx5 = getelementptr inbounds [5 x float], ptr %h_ff_variable, i64 0, i64 0, !dbg !2417
  %4 = load float, ptr %arrayidx5, align 16, !dbg !2417, !tbaa !1815
  %div = fdiv float %mul, %4, !dbg !2418
  %conv = fpext float %div to double, !dbg !2419
  %call6 = call double @sqrt(double noundef %conv) #15, !dbg !2420
  %conv7 = fptrunc double %call6 to float, !dbg !2420
  store float %conv7, ptr %ff_speed_of_sound, align 4, !dbg !2414, !tbaa !1815
  call void @llvm.lifetime.start.p0(i64 4, ptr %ff_speed) #15, !dbg !2421
  call void @llvm.dbg.declare(metadata ptr %ff_speed, metadata !2334, metadata !DIExpression()), !dbg !2422
  %5 = load float, ptr %ff_speed_of_sound, align 4, !dbg !2423, !tbaa !1815
  %mul8 = fmul float 0x3FF3333340000000, %5, !dbg !2424
  store float %mul8, ptr %ff_speed, align 4, !dbg !2422, !tbaa !1815
  call void @llvm.lifetime.start.p0(i64 12, ptr %ff_velocity) #15, !dbg !2425
  call void @llvm.dbg.declare(metadata ptr %ff_velocity, metadata !2335, metadata !DIExpression()), !dbg !2426
  %6 = load float, ptr %ff_speed, align 4, !dbg !2427, !tbaa !1815
  %call9 = call double @cos(double noundef 0.000000e+00) #15, !dbg !2428
  %conv10 = fptrunc double %call9 to float, !dbg !2428
  %mul11 = fmul float %6, %conv10, !dbg !2429
  %x = getelementptr inbounds %struct.float3, ptr %ff_velocity, i32 0, i32 0, !dbg !2430
  store float %mul11, ptr %x, align 4, !dbg !2431, !tbaa !2432
  %7 = load float, ptr %ff_speed, align 4, !dbg !2434, !tbaa !1815
  %call12 = call double @sin(double noundef 0.000000e+00) #15, !dbg !2435
  %conv13 = fptrunc double %call12 to float, !dbg !2435
  %mul14 = fmul float %7, %conv13, !dbg !2436
  %y = getelementptr inbounds %struct.float3, ptr %ff_velocity, i32 0, i32 1, !dbg !2437
  store float %mul14, ptr %y, align 4, !dbg !2438, !tbaa !2439
  %z = getelementptr inbounds %struct.float3, ptr %ff_velocity, i32 0, i32 2, !dbg !2440
  store float 0.000000e+00, ptr %z, align 4, !dbg !2441, !tbaa !2442
  %arrayidx15 = getelementptr inbounds [5 x float], ptr %h_ff_variable, i64 0, i64 0, !dbg !2443
  %8 = load float, ptr %arrayidx15, align 16, !dbg !2443, !tbaa !1815
  %x16 = getelementptr inbounds %struct.float3, ptr %ff_velocity, i32 0, i32 0, !dbg !2444
  %9 = load float, ptr %x16, align 4, !dbg !2444, !tbaa !2432
  %mul17 = fmul float %8, %9, !dbg !2445
  %arrayidx18 = getelementptr inbounds [5 x float], ptr %h_ff_variable, i64 0, i64 1, !dbg !2446
  store float %mul17, ptr %arrayidx18, align 4, !dbg !2447, !tbaa !1815
  %arrayidx19 = getelementptr inbounds [5 x float], ptr %h_ff_variable, i64 0, i64 0, !dbg !2448
  %10 = load float, ptr %arrayidx19, align 16, !dbg !2448, !tbaa !1815
  %y20 = getelementptr inbounds %struct.float3, ptr %ff_velocity, i32 0, i32 1, !dbg !2449
  %11 = load float, ptr %y20, align 4, !dbg !2449, !tbaa !2439
  %mul21 = fmul float %10, %11, !dbg !2450
  %arrayidx22 = getelementptr inbounds [5 x float], ptr %h_ff_variable, i64 0, i64 2, !dbg !2451
  store float %mul21, ptr %arrayidx22, align 8, !dbg !2452, !tbaa !1815
  %arrayidx23 = getelementptr inbounds [5 x float], ptr %h_ff_variable, i64 0, i64 0, !dbg !2453
  %12 = load float, ptr %arrayidx23, align 16, !dbg !2453, !tbaa !1815
  %z24 = getelementptr inbounds %struct.float3, ptr %ff_velocity, i32 0, i32 2, !dbg !2454
  %13 = load float, ptr %z24, align 4, !dbg !2454, !tbaa !2442
  %mul25 = fmul float %12, %13, !dbg !2455
  %arrayidx26 = getelementptr inbounds [5 x float], ptr %h_ff_variable, i64 0, i64 3, !dbg !2456
  store float %mul25, ptr %arrayidx26, align 4, !dbg !2457, !tbaa !1815
  %arrayidx27 = getelementptr inbounds [5 x float], ptr %h_ff_variable, i64 0, i64 0, !dbg !2458
  %14 = load float, ptr %arrayidx27, align 16, !dbg !2458, !tbaa !1815
  %15 = load float, ptr %ff_speed, align 4, !dbg !2459, !tbaa !1815
  %16 = load float, ptr %ff_speed, align 4, !dbg !2460, !tbaa !1815
  %mul28 = fmul float %15, %16, !dbg !2461
  %mul29 = fmul float 5.000000e-01, %mul28, !dbg !2462
  %17 = load float, ptr %ff_pressure, align 4, !dbg !2463, !tbaa !1815
  %div31 = fdiv float %17, 0x3FD9999980000000, !dbg !2464
  %18 = call float @llvm.fmuladd.f32(float %14, float %mul29, float %div31), !dbg !2465
  %arrayidx32 = getelementptr inbounds [5 x float], ptr %h_ff_variable, i64 0, i64 4, !dbg !2466
  store float %18, ptr %arrayidx32, align 16, !dbg !2467, !tbaa !1815
  call void @llvm.lifetime.start.p0(i64 12, ptr %h_ff_momentum) #15, !dbg !2468
  call void @llvm.dbg.declare(metadata ptr %h_ff_momentum, metadata !2336, metadata !DIExpression()), !dbg !2469
  %arraydecay = getelementptr inbounds [5 x float], ptr %h_ff_variable, i64 0, i64 0, !dbg !2470
  %add.ptr = getelementptr inbounds float, ptr %arraydecay, i64 1, !dbg !2471
  %add.ptr33 = getelementptr inbounds float, ptr %add.ptr, i64 0, !dbg !2472
  %19 = load float, ptr %add.ptr33, align 4, !dbg !2473, !tbaa !1815
  %x34 = getelementptr inbounds %struct.float3, ptr %h_ff_momentum, i32 0, i32 0, !dbg !2474
  store float %19, ptr %x34, align 4, !dbg !2475, !tbaa !2432
  %arraydecay35 = getelementptr inbounds [5 x float], ptr %h_ff_variable, i64 0, i64 0, !dbg !2476
  %add.ptr36 = getelementptr inbounds float, ptr %arraydecay35, i64 1, !dbg !2477
  %add.ptr37 = getelementptr inbounds float, ptr %add.ptr36, i64 1, !dbg !2478
  %20 = load float, ptr %add.ptr37, align 4, !dbg !2479, !tbaa !1815
  %y38 = getelementptr inbounds %struct.float3, ptr %h_ff_momentum, i32 0, i32 1, !dbg !2480
  store float %20, ptr %y38, align 4, !dbg !2481, !tbaa !2439
  %arraydecay39 = getelementptr inbounds [5 x float], ptr %h_ff_variable, i64 0, i64 0, !dbg !2482
  %add.ptr40 = getelementptr inbounds float, ptr %arraydecay39, i64 1, !dbg !2483
  %add.ptr41 = getelementptr inbounds float, ptr %add.ptr40, i64 2, !dbg !2484
  %21 = load float, ptr %add.ptr41, align 4, !dbg !2485, !tbaa !1815
  %z42 = getelementptr inbounds %struct.float3, ptr %h_ff_momentum, i32 0, i32 2, !dbg !2486
  store float %21, ptr %z42, align 4, !dbg !2487, !tbaa !2442
  call void @llvm.lifetime.start.p0(i64 12, ptr %h_ff_flux_contribution_momentum_x) #15, !dbg !2488
  call void @llvm.dbg.declare(metadata ptr %h_ff_flux_contribution_momentum_x, metadata !2337, metadata !DIExpression()), !dbg !2489
  call void @llvm.lifetime.start.p0(i64 12, ptr %h_ff_flux_contribution_momentum_y) #15, !dbg !2490
  call void @llvm.dbg.declare(metadata ptr %h_ff_flux_contribution_momentum_y, metadata !2338, metadata !DIExpression()), !dbg !2491
  call void @llvm.lifetime.start.p0(i64 12, ptr %h_ff_flux_contribution_momentum_z) #15, !dbg !2492
  call void @llvm.dbg.declare(metadata ptr %h_ff_flux_contribution_momentum_z, metadata !2339, metadata !DIExpression()), !dbg !2493
  call void @llvm.lifetime.start.p0(i64 12, ptr %h_ff_flux_contribution_density_energy) #15, !dbg !2494
  call void @llvm.dbg.declare(metadata ptr %h_ff_flux_contribution_density_energy, metadata !2340, metadata !DIExpression()), !dbg !2495
  %arrayidx43 = getelementptr inbounds [5 x float], ptr %h_ff_variable, i64 0, i64 0, !dbg !2496
  %arrayidx44 = getelementptr inbounds [5 x float], ptr %h_ff_variable, i64 0, i64 4, !dbg !2497
  call void @_Z25compute_flux_contributionRfR6float3S_S_S1_S1_S1_S1_S1_(ptr noundef nonnull align 4 dereferenceable(4) %arrayidx43, ptr noundef nonnull align 4 dereferenceable(12) %h_ff_momentum, ptr noundef nonnull align 4 dereferenceable(4) %arrayidx44, ptr noundef nonnull align 4 dereferenceable(4) %ff_pressure, ptr noundef nonnull align 4 dereferenceable(12) %ff_velocity, ptr noundef nonnull align 4 dereferenceable(12) %h_ff_flux_contribution_momentum_x, ptr noundef nonnull align 4 dereferenceable(12) %h_ff_flux_contribution_momentum_y, ptr noundef nonnull align 4 dereferenceable(12) %h_ff_flux_contribution_momentum_z, ptr noundef nonnull align 4 dereferenceable(12) %h_ff_flux_contribution_density_energy), !dbg !2498
  call void @llvm.lifetime.start.p0(i64 8, ptr %d_ff_variable) #15, !dbg !2499
  call void @llvm.dbg.declare(metadata ptr %d_ff_variable, metadata !2341, metadata !DIExpression()), !dbg !2500
  store ptr null, ptr %d_ff_variable, align 8, !dbg !2500, !tbaa !1774
  call void @llvm.lifetime.start.p0(i64 8, ptr %d_ff_mx) #15, !dbg !2501
  call void @llvm.dbg.declare(metadata ptr %d_ff_mx, metadata !2342, metadata !DIExpression()), !dbg !2502
  store ptr null, ptr %d_ff_mx, align 8, !dbg !2502, !tbaa !1774
  call void @llvm.lifetime.start.p0(i64 8, ptr %d_ff_my) #15, !dbg !2501
  call void @llvm.dbg.declare(metadata ptr %d_ff_my, metadata !2344, metadata !DIExpression()), !dbg !2503
  store ptr null, ptr %d_ff_my, align 8, !dbg !2503, !tbaa !1774
  call void @llvm.lifetime.start.p0(i64 8, ptr %d_ff_mz) #15, !dbg !2501
  call void @llvm.dbg.declare(metadata ptr %d_ff_mz, metadata !2345, metadata !DIExpression()), !dbg !2504
  store ptr null, ptr %d_ff_mz, align 8, !dbg !2504, !tbaa !1774
  call void @llvm.lifetime.start.p0(i64 8, ptr %d_ff_de) #15, !dbg !2501
  call void @llvm.dbg.declare(metadata ptr %d_ff_de, metadata !2346, metadata !DIExpression()), !dbg !2505
  store ptr null, ptr %d_ff_de, align 8, !dbg !2505, !tbaa !1774
  %call45 = call noundef i32 @_ZL10cudaMallocIfE9cudaErrorPPT_m(ptr noundef %d_ff_variable, i64 noundef 20), !dbg !2506
  %call46 = call noundef i32 @_ZL10cudaMallocI6float3E9cudaErrorPPT_m(ptr noundef %d_ff_mx, i64 noundef 12), !dbg !2507
  %call47 = call noundef i32 @_ZL10cudaMallocI6float3E9cudaErrorPPT_m(ptr noundef %d_ff_my, i64 noundef 12), !dbg !2508
  %call48 = call noundef i32 @_ZL10cudaMallocI6float3E9cudaErrorPPT_m(ptr noundef %d_ff_mz, i64 noundef 12), !dbg !2509
  %call49 = call noundef i32 @_ZL10cudaMallocI6float3E9cudaErrorPPT_m(ptr noundef %d_ff_de, i64 noundef 12), !dbg !2510
  %22 = load ptr, ptr %d_ff_variable, align 8, !dbg !2511, !tbaa !1774
  %arraydecay50 = getelementptr inbounds [5 x float], ptr %h_ff_variable, i64 0, i64 0, !dbg !2512
  %call51 = call i32 @cudaMemcpy(ptr noundef %22, ptr noundef %arraydecay50, i64 noundef 20, i32 noundef 1), !dbg !2513
  %23 = load ptr, ptr %d_ff_mx, align 8, !dbg !2514, !tbaa !1774
  %call52 = call i32 @cudaMemcpy(ptr noundef %23, ptr noundef %h_ff_flux_contribution_momentum_x, i64 noundef 12, i32 noundef 1), !dbg !2515
  %24 = load ptr, ptr %d_ff_my, align 8, !dbg !2516, !tbaa !1774
  %call53 = call i32 @cudaMemcpy(ptr noundef %24, ptr noundef %h_ff_flux_contribution_momentum_y, i64 noundef 12, i32 noundef 1), !dbg !2517
  %25 = load ptr, ptr %d_ff_mz, align 8, !dbg !2518, !tbaa !1774
  %call54 = call i32 @cudaMemcpy(ptr noundef %25, ptr noundef %h_ff_flux_contribution_momentum_z, i64 noundef 12, i32 noundef 1), !dbg !2519
  %26 = load ptr, ptr %d_ff_de, align 8, !dbg !2520, !tbaa !1774
  %call55 = call i32 @cudaMemcpy(ptr noundef %26, ptr noundef %h_ff_flux_contribution_density_energy, i64 noundef 12, i32 noundef 1), !dbg !2521
  call void @llvm.lifetime.start.p0(i64 4, ptr %nel) #15, !dbg !2522
  call void @llvm.dbg.declare(metadata ptr %nel, metadata !2347, metadata !DIExpression()), !dbg !2523
  call void @llvm.lifetime.start.p0(i64 4, ptr %nelr) #15, !dbg !2524
  call void @llvm.dbg.declare(metadata ptr %nelr, metadata !2348, metadata !DIExpression()), !dbg !2525
  call void @llvm.lifetime.start.p0(i64 8, ptr %areas) #15, !dbg !2526
  call void @llvm.dbg.declare(metadata ptr %areas, metadata !2349, metadata !DIExpression()), !dbg !2527
  call void @llvm.lifetime.start.p0(i64 8, ptr %elements_surrounding_elements) #15, !dbg !2528
  call void @llvm.dbg.declare(metadata ptr %elements_surrounding_elements, metadata !2350, metadata !DIExpression()), !dbg !2529
  call void @llvm.lifetime.start.p0(i64 8, ptr %normals) #15, !dbg !2530
  call void @llvm.dbg.declare(metadata ptr %normals, metadata !2351, metadata !DIExpression()), !dbg !2531
  call void @llvm.lifetime.start.p0(i64 520, ptr %file) #15, !dbg !2532
  call void @llvm.dbg.declare(metadata ptr %file, metadata !2352, metadata !DIExpression()), !dbg !2533
  %27 = load ptr, ptr %data_file_name, align 8, !dbg !2534, !tbaa !1774
  call void @_ZNSt14basic_ifstreamIcSt11char_traitsIcEEC1EPKcSt13_Ios_Openmode(ptr noundef nonnull align 8 dereferenceable(256) %file, ptr noundef %27, i32 noundef 8), !dbg !2533
  %call56 = invoke noundef nonnull align 8 dereferenceable(16) ptr @_ZNSirsERi(ptr noundef nonnull align 8 dereferenceable(16) %file, ptr noundef nonnull align 4 dereferenceable(4) %nel)
          to label %invoke.cont unwind label %lpad, !dbg !2535

invoke.cont:                                      ; preds = %if.end
  %28 = load i32, ptr %nel, align 4, !dbg !2536, !tbaa !1779
  %div57 = sdiv i32 %28, 128, !dbg !2537
  call void @llvm.lifetime.start.p0(i64 4, ptr %ref.tmp) #15, !dbg !2538
  store i32 1, ptr %ref.tmp, align 4, !dbg !2538, !tbaa !1779
  call void @llvm.lifetime.start.p0(i64 4, ptr %ref.tmp58) #15, !dbg !2539
  %29 = load i32, ptr %nel, align 4, !dbg !2539, !tbaa !1779
  %rem = srem i32 %29, 128, !dbg !2540
  store i32 %rem, ptr %ref.tmp58, align 4, !dbg !2539, !tbaa !1779
  %call61 = invoke noundef nonnull align 4 dereferenceable(4) ptr @_ZSt3minIiERKT_S2_S2_(ptr noundef nonnull align 4 dereferenceable(4) %ref.tmp, ptr noundef nonnull align 4 dereferenceable(4) %ref.tmp58)
          to label %invoke.cont60 unwind label %lpad59, !dbg !2541

invoke.cont60:                                    ; preds = %invoke.cont
  %30 = load i32, ptr %call61, align 4, !dbg !2541, !tbaa !1779
  %add = add nsw i32 %div57, %30, !dbg !2542
  %mul62 = mul nsw i32 128, %add, !dbg !2543
  store i32 %mul62, ptr %nelr, align 4, !dbg !2544, !tbaa !1779
  call void @llvm.lifetime.end.p0(i64 4, ptr %ref.tmp58) #15, !dbg !2545
  call void @llvm.lifetime.end.p0(i64 4, ptr %ref.tmp) #15, !dbg !2545
  %31 = load i32, ptr %nelr, align 4, !dbg !2546, !tbaa !1779
  %call64 = invoke i32 (ptr, ...) @printf(ptr noundef @.str.6, i32 noundef %31)
          to label %invoke.cont63 unwind label %lpad, !dbg !2547

invoke.cont63:                                    ; preds = %invoke.cont60
  call void @llvm.lifetime.start.p0(i64 8, ptr %h_areas) #15, !dbg !2548
  call void @llvm.dbg.declare(metadata ptr %h_areas, metadata !2356, metadata !DIExpression()), !dbg !2549
  %32 = load i32, ptr %nelr, align 4, !dbg !2550, !tbaa !1779
  %33 = sext i32 %32 to i64, !dbg !2551
  %34 = call { i64, i1 } @llvm.umul.with.overflow.i64(i64 %33, i64 4), !dbg !2551
  %35 = extractvalue { i64, i1 } %34, 1, !dbg !2551
  %36 = extractvalue { i64, i1 } %34, 0, !dbg !2551
  %37 = select i1 %35, i64 -1, i64 %36, !dbg !2551
  %call67 = invoke noalias noundef nonnull ptr @_Znam(i64 noundef %37) #16
          to label %invoke.cont66 unwind label %lpad65, !dbg !2551, !heapallocsite !255

invoke.cont66:                                    ; preds = %invoke.cont63
  store ptr %call67, ptr %h_areas, align 8, !dbg !2549, !tbaa !1774
  call void @llvm.lifetime.start.p0(i64 8, ptr %h_elements_surrounding_elements) #15, !dbg !2552
  call void @llvm.dbg.declare(metadata ptr %h_elements_surrounding_elements, metadata !2357, metadata !DIExpression()), !dbg !2553
  %38 = load i32, ptr %nelr, align 4, !dbg !2554, !tbaa !1779
  %mul68 = mul nsw i32 %38, 4, !dbg !2555
  %39 = sext i32 %mul68 to i64, !dbg !2556
  %40 = call { i64, i1 } @llvm.umul.with.overflow.i64(i64 %39, i64 4), !dbg !2556
  %41 = extractvalue { i64, i1 } %40, 1, !dbg !2556
  %42 = extractvalue { i64, i1 } %40, 0, !dbg !2556
  %43 = select i1 %41, i64 -1, i64 %42, !dbg !2556
  %call71 = invoke noalias noundef nonnull ptr @_Znam(i64 noundef %43) #16
          to label %invoke.cont70 unwind label %lpad69, !dbg !2556, !heapallocsite !233

invoke.cont70:                                    ; preds = %invoke.cont66
  store ptr %call71, ptr %h_elements_surrounding_elements, align 8, !dbg !2553, !tbaa !1774
  call void @llvm.lifetime.start.p0(i64 8, ptr %h_normals) #15, !dbg !2557
  call void @llvm.dbg.declare(metadata ptr %h_normals, metadata !2358, metadata !DIExpression()), !dbg !2558
  %44 = load i32, ptr %nelr, align 4, !dbg !2559, !tbaa !1779
  %mul72 = mul nsw i32 %44, 3, !dbg !2560
  %mul73 = mul nsw i32 %mul72, 4, !dbg !2561
  %45 = sext i32 %mul73 to i64, !dbg !2562
  %46 = call { i64, i1 } @llvm.umul.with.overflow.i64(i64 %45, i64 4), !dbg !2562
  %47 = extractvalue { i64, i1 } %46, 1, !dbg !2562
  %48 = extractvalue { i64, i1 } %46, 0, !dbg !2562
  %49 = select i1 %47, i64 -1, i64 %48, !dbg !2562
  %call76 = invoke noalias noundef nonnull ptr @_Znam(i64 noundef %49) #16
          to label %invoke.cont75 unwind label %lpad74, !dbg !2562, !heapallocsite !255

invoke.cont75:                                    ; preds = %invoke.cont70
  store ptr %call76, ptr %h_normals, align 8, !dbg !2558, !tbaa !1774
  call void @llvm.lifetime.start.p0(i64 4, ptr %i) #15, !dbg !2563
  call void @llvm.dbg.declare(metadata ptr %i, metadata !2359, metadata !DIExpression()), !dbg !2564
  store i32 0, ptr %i, align 4, !dbg !2564, !tbaa !1779
  br label %for.cond, !dbg !2563

for.cond:                                         ; preds = %for.inc136, %invoke.cont75
  %50 = load i32, ptr %i, align 4, !dbg !2565, !tbaa !1779
  %51 = load i32, ptr %nel, align 4, !dbg !2566, !tbaa !1779
  %cmp77 = icmp slt i32 %50, %51, !dbg !2567
  br i1 %cmp77, label %for.body, label %for.cond.cleanup, !dbg !2568

for.cond.cleanup:                                 ; preds = %for.cond
  store i32 2, ptr %cleanup.dest.slot, align 4
  call void @llvm.lifetime.end.p0(i64 4, ptr %i) #15, !dbg !2569
  br label %for.end139

lpad:                                             ; preds = %invoke.cont60, %if.end
  %52 = landingpad { ptr, i32 }
          cleanup, !dbg !2570
  %53 = extractvalue { ptr, i32 } %52, 0, !dbg !2570
  store ptr %53, ptr %exn.slot, align 8, !dbg !2570
  %54 = extractvalue { ptr, i32 } %52, 1, !dbg !2570
  store i32 %54, ptr %ehselector.slot, align 4, !dbg !2570
  br label %ehcleanup214, !dbg !2570

lpad59:                                           ; preds = %invoke.cont
  %55 = landingpad { ptr, i32 }
          cleanup, !dbg !2570
  %56 = extractvalue { ptr, i32 } %55, 0, !dbg !2570
  store ptr %56, ptr %exn.slot, align 8, !dbg !2570
  %57 = extractvalue { ptr, i32 } %55, 1, !dbg !2570
  store i32 %57, ptr %ehselector.slot, align 4, !dbg !2570
  call void @llvm.lifetime.end.p0(i64 4, ptr %ref.tmp58) #15, !dbg !2545
  call void @llvm.lifetime.end.p0(i64 4, ptr %ref.tmp) #15, !dbg !2545
  br label %ehcleanup214, !dbg !2545

lpad65:                                           ; preds = %invoke.cont63
  %58 = landingpad { ptr, i32 }
          cleanup, !dbg !2570
  %59 = extractvalue { ptr, i32 } %58, 0, !dbg !2570
  store ptr %59, ptr %exn.slot, align 8, !dbg !2570
  %60 = extractvalue { ptr, i32 } %58, 1, !dbg !2570
  store i32 %60, ptr %ehselector.slot, align 4, !dbg !2570
  br label %ehcleanup213, !dbg !2570

lpad69:                                           ; preds = %invoke.cont66
  %61 = landingpad { ptr, i32 }
          cleanup, !dbg !2570
  %62 = extractvalue { ptr, i32 } %61, 0, !dbg !2570
  store ptr %62, ptr %exn.slot, align 8, !dbg !2570
  %63 = extractvalue { ptr, i32 } %61, 1, !dbg !2570
  store i32 %63, ptr %ehselector.slot, align 4, !dbg !2570
  br label %ehcleanup212, !dbg !2570

lpad74:                                           ; preds = %invoke.cont70
  %64 = landingpad { ptr, i32 }
          cleanup, !dbg !2570
  %65 = extractvalue { ptr, i32 } %64, 0, !dbg !2570
  store ptr %65, ptr %exn.slot, align 8, !dbg !2570
  %66 = extractvalue { ptr, i32 } %64, 1, !dbg !2570
  store i32 %66, ptr %ehselector.slot, align 4, !dbg !2570
  br label %ehcleanup211, !dbg !2570

for.body:                                         ; preds = %for.cond
  %67 = load ptr, ptr %h_areas, align 8, !dbg !2571, !tbaa !1774
  %68 = load i32, ptr %i, align 4, !dbg !2572, !tbaa !1779
  %idxprom = sext i32 %68 to i64, !dbg !2571
  %arrayidx78 = getelementptr inbounds float, ptr %67, i64 %idxprom, !dbg !2571
  %call81 = invoke noundef nonnull align 8 dereferenceable(16) ptr @_ZNSirsERf(ptr noundef nonnull align 8 dereferenceable(16) %file, ptr noundef nonnull align 4 dereferenceable(4) %arrayidx78)
          to label %invoke.cont80 unwind label %lpad79, !dbg !2573

invoke.cont80:                                    ; preds = %for.body
  call void @llvm.lifetime.start.p0(i64 4, ptr %j) #15, !dbg !2574
  call void @llvm.dbg.declare(metadata ptr %j, metadata !2361, metadata !DIExpression()), !dbg !2575
  store i32 0, ptr %j, align 4, !dbg !2575, !tbaa !1779
  br label %for.cond82, !dbg !2574

for.cond82:                                       ; preds = %for.inc133, %invoke.cont80
  %69 = load i32, ptr %j, align 4, !dbg !2576, !tbaa !1779
  %cmp83 = icmp slt i32 %69, 4, !dbg !2577
  br i1 %cmp83, label %for.body85, label %for.cond.cleanup84, !dbg !2578

for.cond.cleanup84:                               ; preds = %for.cond82
  store i32 5, ptr %cleanup.dest.slot, align 4
  call void @llvm.lifetime.end.p0(i64 4, ptr %j) #15, !dbg !2579
  br label %for.end135

lpad79:                                           ; preds = %for.body
  %70 = landingpad { ptr, i32 }
          cleanup, !dbg !2580
  %71 = extractvalue { ptr, i32 } %70, 0, !dbg !2580
  store ptr %71, ptr %exn.slot, align 8, !dbg !2580
  %72 = extractvalue { ptr, i32 } %70, 1, !dbg !2580
  store i32 %72, ptr %ehselector.slot, align 4, !dbg !2580
  br label %ehcleanup138, !dbg !2580

for.body85:                                       ; preds = %for.cond82
  %73 = load ptr, ptr %h_elements_surrounding_elements, align 8, !dbg !2581, !tbaa !1774
  %74 = load i32, ptr %i, align 4, !dbg !2582, !tbaa !1779
  %75 = load i32, ptr %j, align 4, !dbg !2583, !tbaa !1779
  %76 = load i32, ptr %nelr, align 4, !dbg !2584, !tbaa !1779
  %mul86 = mul nsw i32 %75, %76, !dbg !2585
  %add87 = add nsw i32 %74, %mul86, !dbg !2586
  %idxprom88 = sext i32 %add87 to i64, !dbg !2581
  %arrayidx89 = getelementptr inbounds i32, ptr %73, i64 %idxprom88, !dbg !2581
  %call92 = invoke noundef nonnull align 8 dereferenceable(16) ptr @_ZNSirsERi(ptr noundef nonnull align 8 dereferenceable(16) %file, ptr noundef nonnull align 4 dereferenceable(4) %arrayidx89)
          to label %invoke.cont91 unwind label %lpad90, !dbg !2587

invoke.cont91:                                    ; preds = %for.body85
  %77 = load ptr, ptr %h_elements_surrounding_elements, align 8, !dbg !2588, !tbaa !1774
  %78 = load i32, ptr %i, align 4, !dbg !2590, !tbaa !1779
  %79 = load i32, ptr %j, align 4, !dbg !2591, !tbaa !1779
  %80 = load i32, ptr %nelr, align 4, !dbg !2592, !tbaa !1779
  %mul93 = mul nsw i32 %79, %80, !dbg !2593
  %add94 = add nsw i32 %78, %mul93, !dbg !2594
  %idxprom95 = sext i32 %add94 to i64, !dbg !2588
  %arrayidx96 = getelementptr inbounds i32, ptr %77, i64 %idxprom95, !dbg !2588
  %81 = load i32, ptr %arrayidx96, align 4, !dbg !2588, !tbaa !1779
  %cmp97 = icmp slt i32 %81, 0, !dbg !2595
  br i1 %cmp97, label %if.then98, label %if.end103, !dbg !2596

if.then98:                                        ; preds = %invoke.cont91
  %82 = load ptr, ptr %h_elements_surrounding_elements, align 8, !dbg !2597, !tbaa !1774
  %83 = load i32, ptr %i, align 4, !dbg !2598, !tbaa !1779
  %84 = load i32, ptr %j, align 4, !dbg !2599, !tbaa !1779
  %85 = load i32, ptr %nelr, align 4, !dbg !2600, !tbaa !1779
  %mul99 = mul nsw i32 %84, %85, !dbg !2601
  %add100 = add nsw i32 %83, %mul99, !dbg !2602
  %idxprom101 = sext i32 %add100 to i64, !dbg !2597
  %arrayidx102 = getelementptr inbounds i32, ptr %82, i64 %idxprom101, !dbg !2597
  store i32 -1, ptr %arrayidx102, align 4, !dbg !2603, !tbaa !1779
  br label %if.end103, !dbg !2597

lpad90:                                           ; preds = %for.body85
  %86 = landingpad { ptr, i32 }
          cleanup, !dbg !2604
  %87 = extractvalue { ptr, i32 } %86, 0, !dbg !2604
  store ptr %87, ptr %exn.slot, align 8, !dbg !2604
  %88 = extractvalue { ptr, i32 } %86, 1, !dbg !2604
  store i32 %88, ptr %ehselector.slot, align 4, !dbg !2604
  br label %ehcleanup, !dbg !2604

if.end103:                                        ; preds = %if.then98, %invoke.cont91
  %89 = load ptr, ptr %h_elements_surrounding_elements, align 8, !dbg !2605, !tbaa !1774
  %90 = load i32, ptr %i, align 4, !dbg !2606, !tbaa !1779
  %91 = load i32, ptr %j, align 4, !dbg !2607, !tbaa !1779
  %92 = load i32, ptr %nelr, align 4, !dbg !2608, !tbaa !1779
  %mul104 = mul nsw i32 %91, %92, !dbg !2609
  %add105 = add nsw i32 %90, %mul104, !dbg !2610
  %idxprom106 = sext i32 %add105 to i64, !dbg !2605
  %arrayidx107 = getelementptr inbounds i32, ptr %89, i64 %idxprom106, !dbg !2605
  %93 = load i32, ptr %arrayidx107, align 4, !dbg !2611, !tbaa !1779
  %dec = add nsw i32 %93, -1, !dbg !2611
  store i32 %dec, ptr %arrayidx107, align 4, !dbg !2611, !tbaa !1779
  call void @llvm.lifetime.start.p0(i64 4, ptr %k) #15, !dbg !2612
  call void @llvm.dbg.declare(metadata ptr %k, metadata !2365, metadata !DIExpression()), !dbg !2613
  store i32 0, ptr %k, align 4, !dbg !2613, !tbaa !1779
  br label %for.cond108, !dbg !2612

for.cond108:                                      ; preds = %for.inc, %if.end103
  %94 = load i32, ptr %k, align 4, !dbg !2614, !tbaa !1779
  %cmp109 = icmp slt i32 %94, 3, !dbg !2616
  br i1 %cmp109, label %for.body111, label %for.cond.cleanup110, !dbg !2617

for.cond.cleanup110:                              ; preds = %for.cond108
  store i32 8, ptr %cleanup.dest.slot, align 4
  call void @llvm.lifetime.end.p0(i64 4, ptr %k) #15, !dbg !2618
  br label %for.end

for.body111:                                      ; preds = %for.cond108
  %95 = load ptr, ptr %h_normals, align 8, !dbg !2619, !tbaa !1774
  %96 = load i32, ptr %i, align 4, !dbg !2621, !tbaa !1779
  %97 = load i32, ptr %j, align 4, !dbg !2622, !tbaa !1779
  %98 = load i32, ptr %k, align 4, !dbg !2623, !tbaa !1779
  %mul112 = mul nsw i32 %98, 4, !dbg !2624
  %add113 = add nsw i32 %97, %mul112, !dbg !2625
  %99 = load i32, ptr %nelr, align 4, !dbg !2626, !tbaa !1779
  %mul114 = mul nsw i32 %add113, %99, !dbg !2627
  %add115 = add nsw i32 %96, %mul114, !dbg !2628
  %idxprom116 = sext i32 %add115 to i64, !dbg !2619
  %arrayidx117 = getelementptr inbounds float, ptr %95, i64 %idxprom116, !dbg !2619
  %call120 = invoke noundef nonnull align 8 dereferenceable(16) ptr @_ZNSirsERf(ptr noundef nonnull align 8 dereferenceable(16) %file, ptr noundef nonnull align 4 dereferenceable(4) %arrayidx117)
          to label %invoke.cont119 unwind label %lpad118, !dbg !2629

invoke.cont119:                                   ; preds = %for.body111
  %100 = load ptr, ptr %h_normals, align 8, !dbg !2630, !tbaa !1774
  %101 = load i32, ptr %i, align 4, !dbg !2631, !tbaa !1779
  %102 = load i32, ptr %j, align 4, !dbg !2632, !tbaa !1779
  %103 = load i32, ptr %k, align 4, !dbg !2633, !tbaa !1779
  %mul121 = mul nsw i32 %103, 4, !dbg !2634
  %add122 = add nsw i32 %102, %mul121, !dbg !2635
  %104 = load i32, ptr %nelr, align 4, !dbg !2636, !tbaa !1779
  %mul123 = mul nsw i32 %add122, %104, !dbg !2637
  %add124 = add nsw i32 %101, %mul123, !dbg !2638
  %idxprom125 = sext i32 %add124 to i64, !dbg !2630
  %arrayidx126 = getelementptr inbounds float, ptr %100, i64 %idxprom125, !dbg !2630
  %105 = load float, ptr %arrayidx126, align 4, !dbg !2630, !tbaa !1815
  %fneg = fneg float %105, !dbg !2639
  %106 = load ptr, ptr %h_normals, align 8, !dbg !2640, !tbaa !1774
  %107 = load i32, ptr %i, align 4, !dbg !2641, !tbaa !1779
  %108 = load i32, ptr %j, align 4, !dbg !2642, !tbaa !1779
  %109 = load i32, ptr %k, align 4, !dbg !2643, !tbaa !1779
  %mul127 = mul nsw i32 %109, 4, !dbg !2644
  %add128 = add nsw i32 %108, %mul127, !dbg !2645
  %110 = load i32, ptr %nelr, align 4, !dbg !2646, !tbaa !1779
  %mul129 = mul nsw i32 %add128, %110, !dbg !2647
  %add130 = add nsw i32 %107, %mul129, !dbg !2648
  %idxprom131 = sext i32 %add130 to i64, !dbg !2640
  %arrayidx132 = getelementptr inbounds float, ptr %106, i64 %idxprom131, !dbg !2640
  store float %fneg, ptr %arrayidx132, align 4, !dbg !2649, !tbaa !1815
  br label %for.inc, !dbg !2650

for.inc:                                          ; preds = %invoke.cont119
  %111 = load i32, ptr %k, align 4, !dbg !2651, !tbaa !1779
  %inc = add nsw i32 %111, 1, !dbg !2651
  store i32 %inc, ptr %k, align 4, !dbg !2651, !tbaa !1779
  br label %for.cond108, !dbg !2618, !llvm.loop !2652

lpad118:                                          ; preds = %for.body111
  %112 = landingpad { ptr, i32 }
          cleanup, !dbg !2654
  %113 = extractvalue { ptr, i32 } %112, 0, !dbg !2654
  store ptr %113, ptr %exn.slot, align 8, !dbg !2654
  %114 = extractvalue { ptr, i32 } %112, 1, !dbg !2654
  store i32 %114, ptr %ehselector.slot, align 4, !dbg !2654
  call void @llvm.lifetime.end.p0(i64 4, ptr %k) #15, !dbg !2618
  br label %ehcleanup, !dbg !2618

for.end:                                          ; preds = %for.cond.cleanup110
  br label %for.inc133, !dbg !2655

for.inc133:                                       ; preds = %for.end
  %115 = load i32, ptr %j, align 4, !dbg !2656, !tbaa !1779
  %inc134 = add nsw i32 %115, 1, !dbg !2656
  store i32 %inc134, ptr %j, align 4, !dbg !2656, !tbaa !1779
  br label %for.cond82, !dbg !2579, !llvm.loop !2657

ehcleanup:                                        ; preds = %lpad118, %lpad90
  call void @llvm.lifetime.end.p0(i64 4, ptr %j) #15, !dbg !2579
  br label %ehcleanup138, !dbg !2579

for.end135:                                       ; preds = %for.cond.cleanup84
  br label %for.inc136, !dbg !2659

for.inc136:                                       ; preds = %for.end135
  %116 = load i32, ptr %i, align 4, !dbg !2660, !tbaa !1779
  %inc137 = add nsw i32 %116, 1, !dbg !2660
  store i32 %inc137, ptr %i, align 4, !dbg !2660, !tbaa !1779
  br label %for.cond, !dbg !2569, !llvm.loop !2661

ehcleanup138:                                     ; preds = %ehcleanup, %lpad79
  call void @llvm.lifetime.end.p0(i64 4, ptr %i) #15, !dbg !2569
  br label %ehcleanup211, !dbg !2569

for.end139:                                       ; preds = %for.cond.cleanup
  call void @llvm.lifetime.start.p0(i64 4, ptr %last) #15, !dbg !2663
  call void @llvm.dbg.declare(metadata ptr %last, metadata !2369, metadata !DIExpression()), !dbg !2664
  %117 = load i32, ptr %nel, align 4, !dbg !2665, !tbaa !1779
  %sub = sub nsw i32 %117, 1, !dbg !2666
  store i32 %sub, ptr %last, align 4, !dbg !2664, !tbaa !1779
  call void @llvm.lifetime.start.p0(i64 4, ptr %i140) #15, !dbg !2667
  call void @llvm.dbg.declare(metadata ptr %i140, metadata !2370, metadata !DIExpression()), !dbg !2668
  %118 = load i32, ptr %nel, align 4, !dbg !2669, !tbaa !1779
  store i32 %118, ptr %i140, align 4, !dbg !2668, !tbaa !1779
  br label %for.cond141, !dbg !2667

for.cond141:                                      ; preds = %for.inc185, %for.end139
  %119 = load i32, ptr %i140, align 4, !dbg !2670, !tbaa !1779
  %120 = load i32, ptr %nelr, align 4, !dbg !2671, !tbaa !1779
  %cmp142 = icmp slt i32 %119, %120, !dbg !2672
  br i1 %cmp142, label %for.body144, label %for.cond.cleanup143, !dbg !2673

for.cond.cleanup143:                              ; preds = %for.cond141
  store i32 11, ptr %cleanup.dest.slot, align 4
  call void @llvm.lifetime.end.p0(i64 4, ptr %i140) #15, !dbg !2674
  br label %for.end187

for.body144:                                      ; preds = %for.cond141
  %121 = load ptr, ptr %h_areas, align 8, !dbg !2675, !tbaa !1774
  %122 = load i32, ptr %last, align 4, !dbg !2676, !tbaa !1779
  %idxprom145 = sext i32 %122 to i64, !dbg !2675
  %arrayidx146 = getelementptr inbounds float, ptr %121, i64 %idxprom145, !dbg !2675
  %123 = load float, ptr %arrayidx146, align 4, !dbg !2675, !tbaa !1815
  %124 = load ptr, ptr %h_areas, align 8, !dbg !2677, !tbaa !1774
  %125 = load i32, ptr %i140, align 4, !dbg !2678, !tbaa !1779
  %idxprom147 = sext i32 %125 to i64, !dbg !2677
  %arrayidx148 = getelementptr inbounds float, ptr %124, i64 %idxprom147, !dbg !2677
  store float %123, ptr %arrayidx148, align 4, !dbg !2679, !tbaa !1815
  call void @llvm.lifetime.start.p0(i64 4, ptr %j149) #15, !dbg !2680
  call void @llvm.dbg.declare(metadata ptr %j149, metadata !2372, metadata !DIExpression()), !dbg !2681
  store i32 0, ptr %j149, align 4, !dbg !2681, !tbaa !1779
  br label %for.cond150, !dbg !2680

for.cond150:                                      ; preds = %for.inc182, %for.body144
  %126 = load i32, ptr %j149, align 4, !dbg !2682, !tbaa !1779
  %cmp151 = icmp slt i32 %126, 4, !dbg !2683
  br i1 %cmp151, label %for.body153, label %for.cond.cleanup152, !dbg !2684

for.cond.cleanup152:                              ; preds = %for.cond150
  store i32 14, ptr %cleanup.dest.slot, align 4
  call void @llvm.lifetime.end.p0(i64 4, ptr %j149) #15, !dbg !2685
  br label %for.end184

for.body153:                                      ; preds = %for.cond150
  %127 = load ptr, ptr %h_elements_surrounding_elements, align 8, !dbg !2686, !tbaa !1774
  %128 = load i32, ptr %last, align 4, !dbg !2687, !tbaa !1779
  %129 = load i32, ptr %j149, align 4, !dbg !2688, !tbaa !1779
  %130 = load i32, ptr %nelr, align 4, !dbg !2689, !tbaa !1779
  %mul154 = mul nsw i32 %129, %130, !dbg !2690
  %add155 = add nsw i32 %128, %mul154, !dbg !2691
  %idxprom156 = sext i32 %add155 to i64, !dbg !2686
  %arrayidx157 = getelementptr inbounds i32, ptr %127, i64 %idxprom156, !dbg !2686
  %131 = load i32, ptr %arrayidx157, align 4, !dbg !2686, !tbaa !1779
  %132 = load ptr, ptr %h_elements_surrounding_elements, align 8, !dbg !2692, !tbaa !1774
  %133 = load i32, ptr %i140, align 4, !dbg !2693, !tbaa !1779
  %134 = load i32, ptr %j149, align 4, !dbg !2694, !tbaa !1779
  %135 = load i32, ptr %nelr, align 4, !dbg !2695, !tbaa !1779
  %mul158 = mul nsw i32 %134, %135, !dbg !2696
  %add159 = add nsw i32 %133, %mul158, !dbg !2697
  %idxprom160 = sext i32 %add159 to i64, !dbg !2692
  %arrayidx161 = getelementptr inbounds i32, ptr %132, i64 %idxprom160, !dbg !2692
  store i32 %131, ptr %arrayidx161, align 4, !dbg !2698, !tbaa !1779
  call void @llvm.lifetime.start.p0(i64 4, ptr %k162) #15, !dbg !2699
  call void @llvm.dbg.declare(metadata ptr %k162, metadata !2376, metadata !DIExpression()), !dbg !2700
  store i32 0, ptr %k162, align 4, !dbg !2700, !tbaa !1779
  br label %for.cond163, !dbg !2699

for.cond163:                                      ; preds = %for.inc179, %for.body153
  %136 = load i32, ptr %k162, align 4, !dbg !2701, !tbaa !1779
  %cmp164 = icmp slt i32 %136, 3, !dbg !2703
  br i1 %cmp164, label %for.body166, label %for.cond.cleanup165, !dbg !2704

for.cond.cleanup165:                              ; preds = %for.cond163
  store i32 17, ptr %cleanup.dest.slot, align 4
  call void @llvm.lifetime.end.p0(i64 4, ptr %k162) #15, !dbg !2705
  br label %for.end181

for.body166:                                      ; preds = %for.cond163
  %137 = load ptr, ptr %h_normals, align 8, !dbg !2706, !tbaa !1774
  %138 = load i32, ptr %last, align 4, !dbg !2707, !tbaa !1779
  %139 = load i32, ptr %j149, align 4, !dbg !2708, !tbaa !1779
  %140 = load i32, ptr %k162, align 4, !dbg !2709, !tbaa !1779
  %mul167 = mul nsw i32 %140, 4, !dbg !2710
  %add168 = add nsw i32 %139, %mul167, !dbg !2711
  %141 = load i32, ptr %nelr, align 4, !dbg !2712, !tbaa !1779
  %mul169 = mul nsw i32 %add168, %141, !dbg !2713
  %add170 = add nsw i32 %138, %mul169, !dbg !2714
  %idxprom171 = sext i32 %add170 to i64, !dbg !2706
  %arrayidx172 = getelementptr inbounds float, ptr %137, i64 %idxprom171, !dbg !2706
  %142 = load float, ptr %arrayidx172, align 4, !dbg !2706, !tbaa !1815
  %143 = load ptr, ptr %h_normals, align 8, !dbg !2715, !tbaa !1774
  %144 = load i32, ptr %last, align 4, !dbg !2716, !tbaa !1779
  %145 = load i32, ptr %j149, align 4, !dbg !2717, !tbaa !1779
  %146 = load i32, ptr %k162, align 4, !dbg !2718, !tbaa !1779
  %mul173 = mul nsw i32 %146, 4, !dbg !2719
  %add174 = add nsw i32 %145, %mul173, !dbg !2720
  %147 = load i32, ptr %nelr, align 4, !dbg !2721, !tbaa !1779
  %mul175 = mul nsw i32 %add174, %147, !dbg !2722
  %add176 = add nsw i32 %144, %mul175, !dbg !2723
  %idxprom177 = sext i32 %add176 to i64, !dbg !2715
  %arrayidx178 = getelementptr inbounds float, ptr %143, i64 %idxprom177, !dbg !2715
  store float %142, ptr %arrayidx178, align 4, !dbg !2724, !tbaa !1815
  br label %for.inc179, !dbg !2715

for.inc179:                                       ; preds = %for.body166
  %148 = load i32, ptr %k162, align 4, !dbg !2725, !tbaa !1779
  %inc180 = add nsw i32 %148, 1, !dbg !2725
  store i32 %inc180, ptr %k162, align 4, !dbg !2725, !tbaa !1779
  br label %for.cond163, !dbg !2705, !llvm.loop !2726

for.end181:                                       ; preds = %for.cond.cleanup165
  br label %for.inc182, !dbg !2728

for.inc182:                                       ; preds = %for.end181
  %149 = load i32, ptr %j149, align 4, !dbg !2729, !tbaa !1779
  %inc183 = add nsw i32 %149, 1, !dbg !2729
  store i32 %inc183, ptr %j149, align 4, !dbg !2729, !tbaa !1779
  br label %for.cond150, !dbg !2685, !llvm.loop !2730

for.end184:                                       ; preds = %for.cond.cleanup152
  br label %for.inc185, !dbg !2732

for.inc185:                                       ; preds = %for.end184
  %150 = load i32, ptr %i140, align 4, !dbg !2733, !tbaa !1779
  %inc186 = add nsw i32 %150, 1, !dbg !2733
  store i32 %inc186, ptr %i140, align 4, !dbg !2733, !tbaa !1779
  br label %for.cond141, !dbg !2674, !llvm.loop !2734

for.end187:                                       ; preds = %for.cond.cleanup143
  %151 = load i32, ptr %nelr, align 4, !dbg !2736, !tbaa !1779
  %call190 = invoke noundef ptr @_Z5allocIfEPT_i(i32 noundef %151)
          to label %invoke.cont189 unwind label %lpad188, !dbg !2737

invoke.cont189:                                   ; preds = %for.end187
  store ptr %call190, ptr %areas, align 8, !dbg !2738, !tbaa !1774
  %152 = load ptr, ptr %areas, align 8, !dbg !2739, !tbaa !1774
  %153 = load ptr, ptr %h_areas, align 8, !dbg !2740, !tbaa !1774
  %154 = load i32, ptr %nelr, align 4, !dbg !2741, !tbaa !1779
  invoke void @_Z6uploadIfEvPT_S1_i(ptr noundef %152, ptr noundef %153, i32 noundef %154)
          to label %invoke.cont191 unwind label %lpad188, !dbg !2742

invoke.cont191:                                   ; preds = %invoke.cont189
  %155 = load i32, ptr %nelr, align 4, !dbg !2743, !tbaa !1779
  %mul192 = mul nsw i32 %155, 4, !dbg !2744
  %call194 = invoke noundef ptr @_Z5allocIiEPT_i(i32 noundef %mul192)
          to label %invoke.cont193 unwind label %lpad188, !dbg !2745

invoke.cont193:                                   ; preds = %invoke.cont191
  store ptr %call194, ptr %elements_surrounding_elements, align 8, !dbg !2746, !tbaa !1774
  %156 = load ptr, ptr %elements_surrounding_elements, align 8, !dbg !2747, !tbaa !1774
  %157 = load ptr, ptr %h_elements_surrounding_elements, align 8, !dbg !2748, !tbaa !1774
  %158 = load i32, ptr %nelr, align 4, !dbg !2749, !tbaa !1779
  %mul195 = mul nsw i32 %158, 4, !dbg !2750
  invoke void @_Z6uploadIiEvPT_S1_i(ptr noundef %156, ptr noundef %157, i32 noundef %mul195)
          to label %invoke.cont196 unwind label %lpad188, !dbg !2751

invoke.cont196:                                   ; preds = %invoke.cont193
  %159 = load i32, ptr %nelr, align 4, !dbg !2752, !tbaa !1779
  %mul197 = mul nsw i32 %159, 3, !dbg !2753
  %mul198 = mul nsw i32 %mul197, 4, !dbg !2754
  %call200 = invoke noundef ptr @_Z5allocIfEPT_i(i32 noundef %mul198)
          to label %invoke.cont199 unwind label %lpad188, !dbg !2755

invoke.cont199:                                   ; preds = %invoke.cont196
  store ptr %call200, ptr %normals, align 8, !dbg !2756, !tbaa !1774
  %160 = load ptr, ptr %normals, align 8, !dbg !2757, !tbaa !1774
  %161 = load ptr, ptr %h_normals, align 8, !dbg !2758, !tbaa !1774
  %162 = load i32, ptr %nelr, align 4, !dbg !2759, !tbaa !1779
  %mul201 = mul nsw i32 %162, 3, !dbg !2760
  %mul202 = mul nsw i32 %mul201, 4, !dbg !2761
  invoke void @_Z6uploadIfEvPT_S1_i(ptr noundef %160, ptr noundef %161, i32 noundef %mul202)
          to label %invoke.cont203 unwind label %lpad188, !dbg !2762

invoke.cont203:                                   ; preds = %invoke.cont199
  %163 = load ptr, ptr %h_areas, align 8, !dbg !2763, !tbaa !1774
  %isnull = icmp eq ptr %163, null, !dbg !2764
  br i1 %isnull, label %delete.end, label %delete.notnull, !dbg !2764

delete.notnull:                                   ; preds = %invoke.cont203
  call void @_ZdaPv(ptr noundef %163) #17, !dbg !2764
  br label %delete.end, !dbg !2764

delete.end:                                       ; preds = %delete.notnull, %invoke.cont203
  %164 = load ptr, ptr %h_elements_surrounding_elements, align 8, !dbg !2765, !tbaa !1774
  %isnull204 = icmp eq ptr %164, null, !dbg !2766
  br i1 %isnull204, label %delete.end206, label %delete.notnull205, !dbg !2766

delete.notnull205:                                ; preds = %delete.end
  call void @_ZdaPv(ptr noundef %164) #17, !dbg !2766
  br label %delete.end206, !dbg !2766

delete.end206:                                    ; preds = %delete.notnull205, %delete.end
  %165 = load ptr, ptr %h_normals, align 8, !dbg !2767, !tbaa !1774
  %isnull207 = icmp eq ptr %165, null, !dbg !2768
  br i1 %isnull207, label %delete.end209, label %delete.notnull208, !dbg !2768

delete.notnull208:                                ; preds = %delete.end206
  call void @_ZdaPv(ptr noundef %165) #17, !dbg !2768
  br label %delete.end209, !dbg !2768

delete.end209:                                    ; preds = %delete.notnull208, %delete.end206
  call void @llvm.lifetime.end.p0(i64 4, ptr %last) #15, !dbg !2769
  call void @llvm.lifetime.end.p0(i64 8, ptr %h_normals) #15, !dbg !2769
  call void @llvm.lifetime.end.p0(i64 8, ptr %h_elements_surrounding_elements) #15, !dbg !2769
  call void @llvm.lifetime.end.p0(i64 8, ptr %h_areas) #15, !dbg !2769
  call void @_ZNSt14basic_ifstreamIcSt11char_traitsIcEED1Ev(ptr noundef nonnull align 8 dereferenceable(256) %file) #15, !dbg !2769
  call void @llvm.lifetime.end.p0(i64 520, ptr %file) #15, !dbg !2769
  call void @llvm.lifetime.start.p0(i64 8, ptr %variables) #15, !dbg !2770
  call void @llvm.dbg.declare(metadata ptr %variables, metadata !2380, metadata !DIExpression()), !dbg !2771
  %166 = load i32, ptr %nelr, align 4, !dbg !2772, !tbaa !1779
  %mul216 = mul nsw i32 %166, 5, !dbg !2773
  %call217 = call noundef ptr @_Z5allocIfEPT_i(i32 noundef %mul216), !dbg !2774
  store ptr %call217, ptr %variables, align 8, !dbg !2771, !tbaa !1774
  %167 = load i32, ptr %nelr, align 4, !dbg !2775, !tbaa !1779
  %168 = load ptr, ptr %variables, align 8, !dbg !2776, !tbaa !1774
  %169 = load ptr, ptr %d_ff_variable, align 8, !dbg !2777, !tbaa !1774
  call void @_Z20initialize_variablesiPfPKf(i32 noundef %167, ptr noundef %168, ptr noundef %169), !dbg !2778
  call void @llvm.lifetime.start.p0(i64 8, ptr %old_variables) #15, !dbg !2779
  call void @llvm.dbg.declare(metadata ptr %old_variables, metadata !2381, metadata !DIExpression()), !dbg !2780
  %170 = load i32, ptr %nelr, align 4, !dbg !2781, !tbaa !1779
  %mul218 = mul nsw i32 %170, 5, !dbg !2782
  %call219 = call noundef ptr @_Z5allocIfEPT_i(i32 noundef %mul218), !dbg !2783
  store ptr %call219, ptr %old_variables, align 8, !dbg !2780, !tbaa !1774
  call void @llvm.lifetime.start.p0(i64 8, ptr %fluxes) #15, !dbg !2784
  call void @llvm.dbg.declare(metadata ptr %fluxes, metadata !2382, metadata !DIExpression()), !dbg !2785
  %171 = load i32, ptr %nelr, align 4, !dbg !2786, !tbaa !1779
  %mul220 = mul nsw i32 %171, 5, !dbg !2787
  %call221 = call noundef ptr @_Z5allocIfEPT_i(i32 noundef %mul220), !dbg !2788
  store ptr %call221, ptr %fluxes, align 8, !dbg !2785, !tbaa !1774
  call void @llvm.lifetime.start.p0(i64 8, ptr %step_factors) #15, !dbg !2789
  call void @llvm.dbg.declare(metadata ptr %step_factors, metadata !2383, metadata !DIExpression()), !dbg !2790
  %172 = load i32, ptr %nelr, align 4, !dbg !2791, !tbaa !1779
  %call222 = call noundef ptr @_Z5allocIfEPT_i(i32 noundef %172), !dbg !2792
  store ptr %call222, ptr %step_factors, align 8, !dbg !2790, !tbaa !1774
  %173 = load i32, ptr %nelr, align 4, !dbg !2793, !tbaa !1779
  %174 = load ptr, ptr %old_variables, align 8, !dbg !2794, !tbaa !1774
  %175 = load ptr, ptr %d_ff_variable, align 8, !dbg !2795, !tbaa !1774
  call void @_Z20initialize_variablesiPfPKf(i32 noundef %173, ptr noundef %174, ptr noundef %175), !dbg !2796
  %176 = load i32, ptr %nelr, align 4, !dbg !2797, !tbaa !1779
  %177 = load ptr, ptr %fluxes, align 8, !dbg !2798, !tbaa !1774
  %178 = load ptr, ptr %d_ff_variable, align 8, !dbg !2799, !tbaa !1774
  call void @_Z20initialize_variablesiPfPKf(i32 noundef %176, ptr noundef %177, ptr noundef %178), !dbg !2800
  %179 = load ptr, ptr %step_factors, align 8, !dbg !2801, !tbaa !1774
  %180 = load i32, ptr %nelr, align 4, !dbg !2802, !tbaa !1779
  %conv223 = sext i32 %180 to i64, !dbg !2802
  %mul224 = mul i64 4, %conv223, !dbg !2803
  %call225 = call i32 @cudaMemset(ptr noundef %179, i32 noundef 0, i64 noundef %mul224), !dbg !2804
  %call226 = call i32 @cudaDeviceSynchronize(), !dbg !2805
  %call227 = call noundef nonnull align 8 dereferenceable(8) ptr @_ZStlsISt11char_traitsIcEERSt13basic_ostreamIcT_ES5_PKc(ptr noundef nonnull align 8 dereferenceable(8) @_ZSt4cout, ptr noundef @.str.7), !dbg !2806
  %call228 = call noundef nonnull align 8 dereferenceable(8) ptr @_ZNSolsEPFRSoS_E(ptr noundef nonnull align 8 dereferenceable(8) %call227, ptr noundef @_ZSt4endlIcSt11char_traitsIcEERSt13basic_ostreamIT_T0_ES6_), !dbg !2807
  call void @llvm.lifetime.start.p0(i64 4, ptr %i229) #15, !dbg !2808
  call void @llvm.dbg.declare(metadata ptr %i229, metadata !2384, metadata !DIExpression()), !dbg !2809
  store i32 0, ptr %i229, align 4, !dbg !2809, !tbaa !1779
  br label %for.cond230, !dbg !2808

for.cond230:                                      ; preds = %for.inc243, %delete.end209
  %181 = load i32, ptr %i229, align 4, !dbg !2810, !tbaa !1779
  %cmp231 = icmp slt i32 %181, 2, !dbg !2811
  br i1 %cmp231, label %for.body233, label %for.cond.cleanup232, !dbg !2812

for.cond.cleanup232:                              ; preds = %for.cond230
  store i32 20, ptr %cleanup.dest.slot, align 4
  call void @llvm.lifetime.end.p0(i64 4, ptr %i229) #15, !dbg !2813
  br label %for.end245

lpad188:                                          ; preds = %invoke.cont199, %invoke.cont196, %invoke.cont193, %invoke.cont191, %invoke.cont189, %for.end187
  %182 = landingpad { ptr, i32 }
          cleanup, !dbg !2570
  %183 = extractvalue { ptr, i32 } %182, 0, !dbg !2570
  store ptr %183, ptr %exn.slot, align 8, !dbg !2570
  %184 = extractvalue { ptr, i32 } %182, 1, !dbg !2570
  store i32 %184, ptr %ehselector.slot, align 4, !dbg !2570
  call void @llvm.lifetime.end.p0(i64 4, ptr %last) #15, !dbg !2769
  br label %ehcleanup211, !dbg !2769

ehcleanup211:                                     ; preds = %lpad188, %ehcleanup138, %lpad74
  call void @llvm.lifetime.end.p0(i64 8, ptr %h_normals) #15, !dbg !2769
  br label %ehcleanup212, !dbg !2769

ehcleanup212:                                     ; preds = %ehcleanup211, %lpad69
  call void @llvm.lifetime.end.p0(i64 8, ptr %h_elements_surrounding_elements) #15, !dbg !2769
  br label %ehcleanup213, !dbg !2769

ehcleanup213:                                     ; preds = %ehcleanup212, %lpad65
  call void @llvm.lifetime.end.p0(i64 8, ptr %h_areas) #15, !dbg !2769
  br label %ehcleanup214, !dbg !2769

ehcleanup214:                                     ; preds = %ehcleanup213, %lpad59, %lpad
  call void @_ZNSt14basic_ifstreamIcSt11char_traitsIcEED1Ev(ptr noundef nonnull align 8 dereferenceable(256) %file) #15, !dbg !2769
  call void @llvm.lifetime.end.p0(i64 520, ptr %file) #15, !dbg !2769
  call void @llvm.lifetime.end.p0(i64 8, ptr %normals) #15, !dbg !2814
  call void @llvm.lifetime.end.p0(i64 8, ptr %elements_surrounding_elements) #15, !dbg !2814
  call void @llvm.lifetime.end.p0(i64 8, ptr %areas) #15, !dbg !2814
  call void @llvm.lifetime.end.p0(i64 4, ptr %nelr) #15, !dbg !2814
  call void @llvm.lifetime.end.p0(i64 4, ptr %nel) #15, !dbg !2814
  call void @llvm.lifetime.end.p0(i64 8, ptr %d_ff_de) #15, !dbg !2814
  call void @llvm.lifetime.end.p0(i64 8, ptr %d_ff_mz) #15, !dbg !2814
  call void @llvm.lifetime.end.p0(i64 8, ptr %d_ff_my) #15, !dbg !2814
  call void @llvm.lifetime.end.p0(i64 8, ptr %d_ff_mx) #15, !dbg !2814
  call void @llvm.lifetime.end.p0(i64 8, ptr %d_ff_variable) #15, !dbg !2814
  call void @llvm.lifetime.end.p0(i64 12, ptr %h_ff_flux_contribution_density_energy) #15, !dbg !2814
  call void @llvm.lifetime.end.p0(i64 12, ptr %h_ff_flux_contribution_momentum_z) #15, !dbg !2814
  call void @llvm.lifetime.end.p0(i64 12, ptr %h_ff_flux_contribution_momentum_y) #15, !dbg !2814
  call void @llvm.lifetime.end.p0(i64 12, ptr %h_ff_flux_contribution_momentum_x) #15, !dbg !2814
  call void @llvm.lifetime.end.p0(i64 12, ptr %h_ff_momentum) #15, !dbg !2814
  call void @llvm.lifetime.end.p0(i64 12, ptr %ff_velocity) #15, !dbg !2814
  call void @llvm.lifetime.end.p0(i64 4, ptr %ff_speed) #15, !dbg !2814
  call void @llvm.lifetime.end.p0(i64 4, ptr %ff_speed_of_sound) #15, !dbg !2814
  call void @llvm.lifetime.end.p0(i64 4, ptr %ff_pressure) #15, !dbg !2814
  call void @llvm.lifetime.end.p0(i64 4, ptr %angle_of_attack) #15, !dbg !2814
  call void @llvm.lifetime.end.p0(i64 20, ptr %h_ff_variable) #15, !dbg !2814
  call void @llvm.lifetime.end.p0(i64 8, ptr %data_file_name) #15, !dbg !2814
  br label %eh.resume, !dbg !2814

for.body233:                                      ; preds = %for.cond230
  %185 = load ptr, ptr %old_variables, align 8, !dbg !2815, !tbaa !1774
  %186 = load ptr, ptr %variables, align 8, !dbg !2816, !tbaa !1774
  %187 = load i32, ptr %nelr, align 4, !dbg !2817, !tbaa !1779
  %mul234 = mul nsw i32 %187, 5, !dbg !2818
  call void @_Z4copyIfEvPT_S1_i(ptr noundef %185, ptr noundef %186, i32 noundef %mul234), !dbg !2819
  %188 = load i32, ptr %nelr, align 4, !dbg !2820, !tbaa !1779
  %189 = load ptr, ptr %variables, align 8, !dbg !2821, !tbaa !1774
  %190 = load ptr, ptr %areas, align 8, !dbg !2822, !tbaa !1774
  %191 = load ptr, ptr %step_factors, align 8, !dbg !2823, !tbaa !1774
  call void @_Z19compute_step_factoriPfS_S_(i32 noundef %188, ptr noundef %189, ptr noundef %190, ptr noundef %191), !dbg !2824
  call void @llvm.lifetime.start.p0(i64 4, ptr %j235) #15, !dbg !2825
  call void @llvm.dbg.declare(metadata ptr %j235, metadata !2386, metadata !DIExpression()), !dbg !2826
  store i32 0, ptr %j235, align 4, !dbg !2826, !tbaa !1779
  br label %for.cond236, !dbg !2825

for.cond236:                                      ; preds = %for.inc240, %for.body233
  %192 = load i32, ptr %j235, align 4, !dbg !2827, !tbaa !1779
  %cmp237 = icmp slt i32 %192, 3, !dbg !2829
  br i1 %cmp237, label %for.body239, label %for.cond.cleanup238, !dbg !2830

for.cond.cleanup238:                              ; preds = %for.cond236
  store i32 23, ptr %cleanup.dest.slot, align 4
  call void @llvm.lifetime.end.p0(i64 4, ptr %j235) #15, !dbg !2831
  br label %for.end242

for.body239:                                      ; preds = %for.cond236
  %193 = load i32, ptr %nelr, align 4, !dbg !2832, !tbaa !1779
  %194 = load ptr, ptr %elements_surrounding_elements, align 8, !dbg !2834, !tbaa !1774
  %195 = load ptr, ptr %normals, align 8, !dbg !2835, !tbaa !1774
  %196 = load ptr, ptr %variables, align 8, !dbg !2836, !tbaa !1774
  %197 = load ptr, ptr %fluxes, align 8, !dbg !2837, !tbaa !1774
  %198 = load ptr, ptr %d_ff_variable, align 8, !dbg !2838, !tbaa !1774
  %199 = load ptr, ptr %d_ff_mx, align 8, !dbg !2839, !tbaa !1774
  %200 = load ptr, ptr %d_ff_my, align 8, !dbg !2840, !tbaa !1774
  %201 = load ptr, ptr %d_ff_mz, align 8, !dbg !2841, !tbaa !1774
  %202 = load ptr, ptr %d_ff_de, align 8, !dbg !2842, !tbaa !1774
  call void @_Z12compute_fluxiPiPfS0_S0_PKfPK6float3S5_S5_S5_(i32 noundef %193, ptr noundef %194, ptr noundef %195, ptr noundef %196, ptr noundef %197, ptr noundef %198, ptr noundef %199, ptr noundef %200, ptr noundef %201, ptr noundef %202), !dbg !2843
  %203 = load i32, ptr %j235, align 4, !dbg !2844, !tbaa !1779
  %204 = load i32, ptr %nelr, align 4, !dbg !2845, !tbaa !1779
  %205 = load ptr, ptr %old_variables, align 8, !dbg !2846, !tbaa !1774
  %206 = load ptr, ptr %variables, align 8, !dbg !2847, !tbaa !1774
  %207 = load ptr, ptr %step_factors, align 8, !dbg !2848, !tbaa !1774
  %208 = load ptr, ptr %fluxes, align 8, !dbg !2849, !tbaa !1774
  call void @_Z9time_stepiiPfS_S_S_(i32 noundef %203, i32 noundef %204, ptr noundef %205, ptr noundef %206, ptr noundef %207, ptr noundef %208), !dbg !2850
  br label %for.inc240, !dbg !2851

for.inc240:                                       ; preds = %for.body239
  %209 = load i32, ptr %j235, align 4, !dbg !2852, !tbaa !1779
  %inc241 = add nsw i32 %209, 1, !dbg !2852
  store i32 %inc241, ptr %j235, align 4, !dbg !2852, !tbaa !1779
  br label %for.cond236, !dbg !2831, !llvm.loop !2853

for.end242:                                       ; preds = %for.cond.cleanup238
  br label %for.inc243, !dbg !2855

for.inc243:                                       ; preds = %for.end242
  %210 = load i32, ptr %i229, align 4, !dbg !2856, !tbaa !1779
  %inc244 = add nsw i32 %210, 1, !dbg !2856
  store i32 %inc244, ptr %i229, align 4, !dbg !2856, !tbaa !1779
  br label %for.cond230, !dbg !2813, !llvm.loop !2857

for.end245:                                       ; preds = %for.cond.cleanup232
  %call246 = call i32 @cudaDeviceSynchronize(), !dbg !2859
  %call247 = call noundef nonnull align 8 dereferenceable(8) ptr @_ZStlsISt11char_traitsIcEERSt13basic_ostreamIcT_ES5_PKc(ptr noundef nonnull align 8 dereferenceable(8) @_ZSt4cout, ptr noundef @.str.8), !dbg !2860
  %call248 = call noundef nonnull align 8 dereferenceable(8) ptr @_ZNSolsEPFRSoS_E(ptr noundef nonnull align 8 dereferenceable(8) %call247, ptr noundef @_ZSt4endlIcSt11char_traitsIcEERSt13basic_ostreamIT_T0_ES6_), !dbg !2861
  %211 = load ptr, ptr %variables, align 8, !dbg !2862, !tbaa !1774
  %212 = load i32, ptr %nel, align 4, !dbg !2863, !tbaa !1779
  %213 = load i32, ptr %nelr, align 4, !dbg !2864, !tbaa !1779
  call void @_Z4dumpPfii(ptr noundef %211, i32 noundef %212, i32 noundef %213), !dbg !2865
  %call249 = call noundef nonnull align 8 dereferenceable(8) ptr @_ZStlsISt11char_traitsIcEERSt13basic_ostreamIcT_ES5_PKc(ptr noundef nonnull align 8 dereferenceable(8) @_ZSt4cout, ptr noundef @.str.9), !dbg !2866
  %call250 = call noundef nonnull align 8 dereferenceable(8) ptr @_ZNSolsEPFRSoS_E(ptr noundef nonnull align 8 dereferenceable(8) %call249, ptr noundef @_ZSt4endlIcSt11char_traitsIcEERSt13basic_ostreamIT_T0_ES6_), !dbg !2867
  %call251 = call noundef nonnull align 8 dereferenceable(8) ptr @_ZStlsISt11char_traitsIcEERSt13basic_ostreamIcT_ES5_PKc(ptr noundef nonnull align 8 dereferenceable(8) @_ZSt4cout, ptr noundef @.str.10), !dbg !2868
  %call252 = call noundef nonnull align 8 dereferenceable(8) ptr @_ZNSolsEPFRSoS_E(ptr noundef nonnull align 8 dereferenceable(8) %call251, ptr noundef @_ZSt4endlIcSt11char_traitsIcEERSt13basic_ostreamIT_T0_ES6_), !dbg !2869
  %214 = load ptr, ptr %areas, align 8, !dbg !2870, !tbaa !1774
  call void @_Z7deallocIfEvPT_(ptr noundef %214), !dbg !2871
  %215 = load ptr, ptr %elements_surrounding_elements, align 8, !dbg !2872, !tbaa !1774
  call void @_Z7deallocIiEvPT_(ptr noundef %215), !dbg !2873
  %216 = load ptr, ptr %normals, align 8, !dbg !2874, !tbaa !1774
  call void @_Z7deallocIfEvPT_(ptr noundef %216), !dbg !2875
  %217 = load ptr, ptr %variables, align 8, !dbg !2876, !tbaa !1774
  call void @_Z7deallocIfEvPT_(ptr noundef %217), !dbg !2877
  %218 = load ptr, ptr %old_variables, align 8, !dbg !2878, !tbaa !1774
  call void @_Z7deallocIfEvPT_(ptr noundef %218), !dbg !2879
  %219 = load ptr, ptr %fluxes, align 8, !dbg !2880, !tbaa !1774
  call void @_Z7deallocIfEvPT_(ptr noundef %219), !dbg !2881
  %220 = load ptr, ptr %step_factors, align 8, !dbg !2882, !tbaa !1774
  call void @_Z7deallocIfEvPT_(ptr noundef %220), !dbg !2883
  %221 = load ptr, ptr %d_ff_variable, align 8, !dbg !2884, !tbaa !1774
  %call253 = call i32 @cudaFree(ptr noundef %221), !dbg !2885
  %222 = load ptr, ptr %d_ff_mx, align 8, !dbg !2886, !tbaa !1774
  %call254 = call i32 @cudaFree(ptr noundef %222), !dbg !2887
  %223 = load ptr, ptr %d_ff_my, align 8, !dbg !2888, !tbaa !1774
  %call255 = call i32 @cudaFree(ptr noundef %223), !dbg !2889
  %224 = load ptr, ptr %d_ff_mz, align 8, !dbg !2890, !tbaa !1774
  %call256 = call i32 @cudaFree(ptr noundef %224), !dbg !2891
  %225 = load ptr, ptr %d_ff_de, align 8, !dbg !2892, !tbaa !1774
  %call257 = call i32 @cudaFree(ptr noundef %225), !dbg !2893
  %call258 = call noundef nonnull align 8 dereferenceable(8) ptr @_ZStlsISt11char_traitsIcEERSt13basic_ostreamIcT_ES5_PKc(ptr noundef nonnull align 8 dereferenceable(8) @_ZSt4cout, ptr noundef @.str.11), !dbg !2894
  %call259 = call noundef nonnull align 8 dereferenceable(8) ptr @_ZNSolsEPFRSoS_E(ptr noundef nonnull align 8 dereferenceable(8) %call258, ptr noundef @_ZSt4endlIcSt11char_traitsIcEERSt13basic_ostreamIT_T0_ES6_), !dbg !2895
  store i32 0, ptr %retval, align 4, !dbg !2896
  store i32 1, ptr %cleanup.dest.slot, align 4
  call void @llvm.lifetime.end.p0(i64 8, ptr %step_factors) #15, !dbg !2814
  call void @llvm.lifetime.end.p0(i64 8, ptr %fluxes) #15, !dbg !2814
  call void @llvm.lifetime.end.p0(i64 8, ptr %old_variables) #15, !dbg !2814
  call void @llvm.lifetime.end.p0(i64 8, ptr %variables) #15, !dbg !2814
  call void @llvm.lifetime.end.p0(i64 8, ptr %normals) #15, !dbg !2814
  call void @llvm.lifetime.end.p0(i64 8, ptr %elements_surrounding_elements) #15, !dbg !2814
  call void @llvm.lifetime.end.p0(i64 8, ptr %areas) #15, !dbg !2814
  call void @llvm.lifetime.end.p0(i64 4, ptr %nelr) #15, !dbg !2814
  call void @llvm.lifetime.end.p0(i64 4, ptr %nel) #15, !dbg !2814
  call void @llvm.lifetime.end.p0(i64 8, ptr %d_ff_de) #15, !dbg !2814
  call void @llvm.lifetime.end.p0(i64 8, ptr %d_ff_mz) #15, !dbg !2814
  call void @llvm.lifetime.end.p0(i64 8, ptr %d_ff_my) #15, !dbg !2814
  call void @llvm.lifetime.end.p0(i64 8, ptr %d_ff_mx) #15, !dbg !2814
  call void @llvm.lifetime.end.p0(i64 8, ptr %d_ff_variable) #15, !dbg !2814
  call void @llvm.lifetime.end.p0(i64 12, ptr %h_ff_flux_contribution_density_energy) #15, !dbg !2814
  call void @llvm.lifetime.end.p0(i64 12, ptr %h_ff_flux_contribution_momentum_z) #15, !dbg !2814
  call void @llvm.lifetime.end.p0(i64 12, ptr %h_ff_flux_contribution_momentum_y) #15, !dbg !2814
  call void @llvm.lifetime.end.p0(i64 12, ptr %h_ff_flux_contribution_momentum_x) #15, !dbg !2814
  call void @llvm.lifetime.end.p0(i64 12, ptr %h_ff_momentum) #15, !dbg !2814
  call void @llvm.lifetime.end.p0(i64 12, ptr %ff_velocity) #15, !dbg !2814
  call void @llvm.lifetime.end.p0(i64 4, ptr %ff_speed) #15, !dbg !2814
  call void @llvm.lifetime.end.p0(i64 4, ptr %ff_speed_of_sound) #15, !dbg !2814
  call void @llvm.lifetime.end.p0(i64 4, ptr %ff_pressure) #15, !dbg !2814
  call void @llvm.lifetime.end.p0(i64 4, ptr %angle_of_attack) #15, !dbg !2814
  call void @llvm.lifetime.end.p0(i64 20, ptr %h_ff_variable) #15, !dbg !2814
  call void @llvm.lifetime.end.p0(i64 8, ptr %data_file_name) #15, !dbg !2814
  br label %return

return:                                           ; preds = %for.end245, %if.then
  %226 = load i32, ptr %retval, align 4, !dbg !2814
  ret i32 %226, !dbg !2814

eh.resume:                                        ; preds = %ehcleanup214
  %exn = load ptr, ptr %exn.slot, align 8, !dbg !2814
  %sel = load i32, ptr %ehselector.slot, align 4, !dbg !2814
  %lpad.val = insertvalue { ptr, i32 } poison, ptr %exn, 0, !dbg !2814
  %lpad.val282 = insertvalue { ptr, i32 } %lpad.val, i32 %sel, 1, !dbg !2814
  resume { ptr, i32 } %lpad.val282, !dbg !2814
}

declare !dbg !1612 i32 @printf(ptr noundef, ...) #5

declare !dbg !2897 i32 @cudaSetDevice(i32 noundef) #5

; Function Attrs: nounwind
declare !dbg !541 double @sqrt(double noundef) #11

; Function Attrs: nounwind
declare !dbg !506 double @cos(double noundef) #11

; Function Attrs: nounwind
declare !dbg !537 double @sin(double noundef) #11

; Function Attrs: nocallback nofree nosync nounwind speculatable willreturn memory(none)
declare float @llvm.fmuladd.f32(float, float, float) #1

; Function Attrs: inlinehint mustprogress nounwind uwtable
define linkonce_odr dso_local void @_Z25compute_flux_contributionRfR6float3S_S_S1_S1_S1_S1_S1_(ptr noundef nonnull align 4 dereferenceable(4) %density, ptr noundef nonnull align 4 dereferenceable(12) %momentum, ptr noundef nonnull align 4 dereferenceable(4) %density_energy, ptr noundef nonnull align 4 dereferenceable(4) %pressure, ptr noundef nonnull align 4 dereferenceable(12) %velocity, ptr noundef nonnull align 4 dereferenceable(12) %fc_momentum_x, ptr noundef nonnull align 4 dereferenceable(12) %fc_momentum_y, ptr noundef nonnull align 4 dereferenceable(12) %fc_momentum_z, ptr noundef nonnull align 4 dereferenceable(12) %fc_density_energy) #12 comdat !dbg !2902 {
entry:
  %density.addr = alloca ptr, align 8
  %momentum.addr = alloca ptr, align 8
  %density_energy.addr = alloca ptr, align 8
  %pressure.addr = alloca ptr, align 8
  %velocity.addr = alloca ptr, align 8
  %fc_momentum_x.addr = alloca ptr, align 8
  %fc_momentum_y.addr = alloca ptr, align 8
  %fc_momentum_z.addr = alloca ptr, align 8
  %fc_density_energy.addr = alloca ptr, align 8
  %de_p = alloca float, align 4
  store ptr %density, ptr %density.addr, align 8, !tbaa !1774
  call void @llvm.dbg.declare(metadata ptr %density.addr, metadata !2908, metadata !DIExpression()), !dbg !2918
  store ptr %momentum, ptr %momentum.addr, align 8, !tbaa !1774
  call void @llvm.dbg.declare(metadata ptr %momentum.addr, metadata !2909, metadata !DIExpression()), !dbg !2919
  store ptr %density_energy, ptr %density_energy.addr, align 8, !tbaa !1774
  call void @llvm.dbg.declare(metadata ptr %density_energy.addr, metadata !2910, metadata !DIExpression()), !dbg !2920
  store ptr %pressure, ptr %pressure.addr, align 8, !tbaa !1774
  call void @llvm.dbg.declare(metadata ptr %pressure.addr, metadata !2911, metadata !DIExpression()), !dbg !2921
  store ptr %velocity, ptr %velocity.addr, align 8, !tbaa !1774
  call void @llvm.dbg.declare(metadata ptr %velocity.addr, metadata !2912, metadata !DIExpression()), !dbg !2922
  store ptr %fc_momentum_x, ptr %fc_momentum_x.addr, align 8, !tbaa !1774
  call void @llvm.dbg.declare(metadata ptr %fc_momentum_x.addr, metadata !2913, metadata !DIExpression()), !dbg !2923
  store ptr %fc_momentum_y, ptr %fc_momentum_y.addr, align 8, !tbaa !1774
  call void @llvm.dbg.declare(metadata ptr %fc_momentum_y.addr, metadata !2914, metadata !DIExpression()), !dbg !2924
  store ptr %fc_momentum_z, ptr %fc_momentum_z.addr, align 8, !tbaa !1774
  call void @llvm.dbg.declare(metadata ptr %fc_momentum_z.addr, metadata !2915, metadata !DIExpression()), !dbg !2925
  store ptr %fc_density_energy, ptr %fc_density_energy.addr, align 8, !tbaa !1774
  call void @llvm.dbg.declare(metadata ptr %fc_density_energy.addr, metadata !2916, metadata !DIExpression()), !dbg !2926
  %0 = load ptr, ptr %velocity.addr, align 8, !dbg !2927, !tbaa !1774
  %x = getelementptr inbounds %struct.float3, ptr %0, i32 0, i32 0, !dbg !2928
  %1 = load float, ptr %x, align 4, !dbg !2928, !tbaa !2432
  %2 = load ptr, ptr %momentum.addr, align 8, !dbg !2929, !tbaa !1774
  %x1 = getelementptr inbounds %struct.float3, ptr %2, i32 0, i32 0, !dbg !2930
  %3 = load float, ptr %x1, align 4, !dbg !2930, !tbaa !2432
  %4 = load ptr, ptr %pressure.addr, align 8, !dbg !2931, !tbaa !1774
  %5 = load float, ptr %4, align 4, !dbg !2931, !tbaa !1815
  %6 = call float @llvm.fmuladd.f32(float %1, float %3, float %5), !dbg !2932
  %7 = load ptr, ptr %fc_momentum_x.addr, align 8, !dbg !2933, !tbaa !1774
  %x2 = getelementptr inbounds %struct.float3, ptr %7, i32 0, i32 0, !dbg !2934
  store float %6, ptr %x2, align 4, !dbg !2935, !tbaa !2432
  %8 = load ptr, ptr %velocity.addr, align 8, !dbg !2936, !tbaa !1774
  %x3 = getelementptr inbounds %struct.float3, ptr %8, i32 0, i32 0, !dbg !2937
  %9 = load float, ptr %x3, align 4, !dbg !2937, !tbaa !2432
  %10 = load ptr, ptr %momentum.addr, align 8, !dbg !2938, !tbaa !1774
  %y = getelementptr inbounds %struct.float3, ptr %10, i32 0, i32 1, !dbg !2939
  %11 = load float, ptr %y, align 4, !dbg !2939, !tbaa !2439
  %mul = fmul float %9, %11, !dbg !2940
  %12 = load ptr, ptr %fc_momentum_x.addr, align 8, !dbg !2941, !tbaa !1774
  %y4 = getelementptr inbounds %struct.float3, ptr %12, i32 0, i32 1, !dbg !2942
  store float %mul, ptr %y4, align 4, !dbg !2943, !tbaa !2439
  %13 = load ptr, ptr %velocity.addr, align 8, !dbg !2944, !tbaa !1774
  %x5 = getelementptr inbounds %struct.float3, ptr %13, i32 0, i32 0, !dbg !2945
  %14 = load float, ptr %x5, align 4, !dbg !2945, !tbaa !2432
  %15 = load ptr, ptr %momentum.addr, align 8, !dbg !2946, !tbaa !1774
  %z = getelementptr inbounds %struct.float3, ptr %15, i32 0, i32 2, !dbg !2947
  %16 = load float, ptr %z, align 4, !dbg !2947, !tbaa !2442
  %mul6 = fmul float %14, %16, !dbg !2948
  %17 = load ptr, ptr %fc_momentum_x.addr, align 8, !dbg !2949, !tbaa !1774
  %z7 = getelementptr inbounds %struct.float3, ptr %17, i32 0, i32 2, !dbg !2950
  store float %mul6, ptr %z7, align 4, !dbg !2951, !tbaa !2442
  %18 = load ptr, ptr %fc_momentum_x.addr, align 8, !dbg !2952, !tbaa !1774
  %y8 = getelementptr inbounds %struct.float3, ptr %18, i32 0, i32 1, !dbg !2953
  %19 = load float, ptr %y8, align 4, !dbg !2953, !tbaa !2439
  %20 = load ptr, ptr %fc_momentum_y.addr, align 8, !dbg !2954, !tbaa !1774
  %x9 = getelementptr inbounds %struct.float3, ptr %20, i32 0, i32 0, !dbg !2955
  store float %19, ptr %x9, align 4, !dbg !2956, !tbaa !2432
  %21 = load ptr, ptr %velocity.addr, align 8, !dbg !2957, !tbaa !1774
  %y10 = getelementptr inbounds %struct.float3, ptr %21, i32 0, i32 1, !dbg !2958
  %22 = load float, ptr %y10, align 4, !dbg !2958, !tbaa !2439
  %23 = load ptr, ptr %momentum.addr, align 8, !dbg !2959, !tbaa !1774
  %y11 = getelementptr inbounds %struct.float3, ptr %23, i32 0, i32 1, !dbg !2960
  %24 = load float, ptr %y11, align 4, !dbg !2960, !tbaa !2439
  %25 = load ptr, ptr %pressure.addr, align 8, !dbg !2961, !tbaa !1774
  %26 = load float, ptr %25, align 4, !dbg !2961, !tbaa !1815
  %27 = call float @llvm.fmuladd.f32(float %22, float %24, float %26), !dbg !2962
  %28 = load ptr, ptr %fc_momentum_y.addr, align 8, !dbg !2963, !tbaa !1774
  %y13 = getelementptr inbounds %struct.float3, ptr %28, i32 0, i32 1, !dbg !2964
  store float %27, ptr %y13, align 4, !dbg !2965, !tbaa !2439
  %29 = load ptr, ptr %velocity.addr, align 8, !dbg !2966, !tbaa !1774
  %y14 = getelementptr inbounds %struct.float3, ptr %29, i32 0, i32 1, !dbg !2967
  %30 = load float, ptr %y14, align 4, !dbg !2967, !tbaa !2439
  %31 = load ptr, ptr %momentum.addr, align 8, !dbg !2968, !tbaa !1774
  %z15 = getelementptr inbounds %struct.float3, ptr %31, i32 0, i32 2, !dbg !2969
  %32 = load float, ptr %z15, align 4, !dbg !2969, !tbaa !2442
  %mul16 = fmul float %30, %32, !dbg !2970
  %33 = load ptr, ptr %fc_momentum_y.addr, align 8, !dbg !2971, !tbaa !1774
  %z17 = getelementptr inbounds %struct.float3, ptr %33, i32 0, i32 2, !dbg !2972
  store float %mul16, ptr %z17, align 4, !dbg !2973, !tbaa !2442
  %34 = load ptr, ptr %fc_momentum_x.addr, align 8, !dbg !2974, !tbaa !1774
  %z18 = getelementptr inbounds %struct.float3, ptr %34, i32 0, i32 2, !dbg !2975
  %35 = load float, ptr %z18, align 4, !dbg !2975, !tbaa !2442
  %36 = load ptr, ptr %fc_momentum_z.addr, align 8, !dbg !2976, !tbaa !1774
  %x19 = getelementptr inbounds %struct.float3, ptr %36, i32 0, i32 0, !dbg !2977
  store float %35, ptr %x19, align 4, !dbg !2978, !tbaa !2432
  %37 = load ptr, ptr %fc_momentum_y.addr, align 8, !dbg !2979, !tbaa !1774
  %z20 = getelementptr inbounds %struct.float3, ptr %37, i32 0, i32 2, !dbg !2980
  %38 = load float, ptr %z20, align 4, !dbg !2980, !tbaa !2442
  %39 = load ptr, ptr %fc_momentum_z.addr, align 8, !dbg !2981, !tbaa !1774
  %y21 = getelementptr inbounds %struct.float3, ptr %39, i32 0, i32 1, !dbg !2982
  store float %38, ptr %y21, align 4, !dbg !2983, !tbaa !2439
  %40 = load ptr, ptr %velocity.addr, align 8, !dbg !2984, !tbaa !1774
  %z22 = getelementptr inbounds %struct.float3, ptr %40, i32 0, i32 2, !dbg !2985
  %41 = load float, ptr %z22, align 4, !dbg !2985, !tbaa !2442
  %42 = load ptr, ptr %momentum.addr, align 8, !dbg !2986, !tbaa !1774
  %z23 = getelementptr inbounds %struct.float3, ptr %42, i32 0, i32 2, !dbg !2987
  %43 = load float, ptr %z23, align 4, !dbg !2987, !tbaa !2442
  %44 = load ptr, ptr %pressure.addr, align 8, !dbg !2988, !tbaa !1774
  %45 = load float, ptr %44, align 4, !dbg !2988, !tbaa !1815
  %46 = call float @llvm.fmuladd.f32(float %41, float %43, float %45), !dbg !2989
  %47 = load ptr, ptr %fc_momentum_z.addr, align 8, !dbg !2990, !tbaa !1774
  %z25 = getelementptr inbounds %struct.float3, ptr %47, i32 0, i32 2, !dbg !2991
  store float %46, ptr %z25, align 4, !dbg !2992, !tbaa !2442
  call void @llvm.lifetime.start.p0(i64 4, ptr %de_p) #15, !dbg !2993
  call void @llvm.dbg.declare(metadata ptr %de_p, metadata !2917, metadata !DIExpression()), !dbg !2994
  %48 = load ptr, ptr %density_energy.addr, align 8, !dbg !2995, !tbaa !1774
  %49 = load float, ptr %48, align 4, !dbg !2995, !tbaa !1815
  %50 = load ptr, ptr %pressure.addr, align 8, !dbg !2996, !tbaa !1774
  %51 = load float, ptr %50, align 4, !dbg !2996, !tbaa !1815
  %add = fadd float %49, %51, !dbg !2997
  store float %add, ptr %de_p, align 4, !dbg !2994, !tbaa !1815
  %52 = load ptr, ptr %velocity.addr, align 8, !dbg !2998, !tbaa !1774
  %x26 = getelementptr inbounds %struct.float3, ptr %52, i32 0, i32 0, !dbg !2999
  %53 = load float, ptr %x26, align 4, !dbg !2999, !tbaa !2432
  %54 = load float, ptr %de_p, align 4, !dbg !3000, !tbaa !1815
  %mul27 = fmul float %53, %54, !dbg !3001
  %55 = load ptr, ptr %fc_density_energy.addr, align 8, !dbg !3002, !tbaa !1774
  %x28 = getelementptr inbounds %struct.float3, ptr %55, i32 0, i32 0, !dbg !3003
  store float %mul27, ptr %x28, align 4, !dbg !3004, !tbaa !2432
  %56 = load ptr, ptr %velocity.addr, align 8, !dbg !3005, !tbaa !1774
  %y29 = getelementptr inbounds %struct.float3, ptr %56, i32 0, i32 1, !dbg !3006
  %57 = load float, ptr %y29, align 4, !dbg !3006, !tbaa !2439
  %58 = load float, ptr %de_p, align 4, !dbg !3007, !tbaa !1815
  %mul30 = fmul float %57, %58, !dbg !3008
  %59 = load ptr, ptr %fc_density_energy.addr, align 8, !dbg !3009, !tbaa !1774
  %y31 = getelementptr inbounds %struct.float3, ptr %59, i32 0, i32 1, !dbg !3010
  store float %mul30, ptr %y31, align 4, !dbg !3011, !tbaa !2439
  %60 = load ptr, ptr %velocity.addr, align 8, !dbg !3012, !tbaa !1774
  %z32 = getelementptr inbounds %struct.float3, ptr %60, i32 0, i32 2, !dbg !3013
  %61 = load float, ptr %z32, align 4, !dbg !3013, !tbaa !2442
  %62 = load float, ptr %de_p, align 4, !dbg !3014, !tbaa !1815
  %mul33 = fmul float %61, %62, !dbg !3015
  %63 = load ptr, ptr %fc_density_energy.addr, align 8, !dbg !3016, !tbaa !1774
  %z34 = getelementptr inbounds %struct.float3, ptr %63, i32 0, i32 2, !dbg !3017
  store float %mul33, ptr %z34, align 4, !dbg !3018, !tbaa !2442
  call void @llvm.lifetime.end.p0(i64 4, ptr %de_p) #15, !dbg !3019
  ret void, !dbg !3019
}

; Function Attrs: inlinehint mustprogress uwtable
define internal noundef i32 @_ZL10cudaMallocIfE9cudaErrorPPT_m(ptr noundef %devPtr, i64 noundef %size) #4 !dbg !3020 {
entry:
  %devPtr.addr = alloca ptr, align 8
  %size.addr = alloca i64, align 8
  store ptr %devPtr, ptr %devPtr.addr, align 8, !tbaa !1774
  call void @llvm.dbg.declare(metadata ptr %devPtr.addr, metadata !3026, metadata !DIExpression()), !dbg !3028
  store i64 %size, ptr %size.addr, align 8, !tbaa !3029
  call void @llvm.dbg.declare(metadata ptr %size.addr, metadata !3027, metadata !DIExpression()), !dbg !3031
  %0 = load ptr, ptr %devPtr.addr, align 8, !dbg !3032, !tbaa !1774
  %1 = load i64, ptr %size.addr, align 8, !dbg !3033, !tbaa !3029
  %call = call i32 @cudaMalloc(ptr noundef %0, i64 noundef %1), !dbg !3034
  ret i32 %call, !dbg !3035
}

; Function Attrs: inlinehint mustprogress uwtable
define internal noundef i32 @_ZL10cudaMallocI6float3E9cudaErrorPPT_m(ptr noundef %devPtr, i64 noundef %size) #4 !dbg !3036 {
entry:
  %devPtr.addr = alloca ptr, align 8
  %size.addr = alloca i64, align 8
  store ptr %devPtr, ptr %devPtr.addr, align 8, !tbaa !1774
  call void @llvm.dbg.declare(metadata ptr %devPtr.addr, metadata !3042, metadata !DIExpression()), !dbg !3046
  store i64 %size, ptr %size.addr, align 8, !tbaa !3029
  call void @llvm.dbg.declare(metadata ptr %size.addr, metadata !3043, metadata !DIExpression()), !dbg !3047
  %0 = load ptr, ptr %devPtr.addr, align 8, !dbg !3048, !tbaa !1774
  %1 = load i64, ptr %size.addr, align 8, !dbg !3049, !tbaa !3029
  %call = call i32 @cudaMalloc(ptr noundef %0, i64 noundef %1), !dbg !3050
  ret i32 %call, !dbg !3051
}

declare !dbg !3052 i32 @cudaMemcpy(ptr noundef, ptr noundef, i64 noundef, i32 noundef) #5

; Function Attrs: mustprogress uwtable
define available_externally void @_ZNSt14basic_ifstreamIcSt11char_traitsIcEEC1EPKcSt13_Ios_Openmode(ptr noundef nonnull align 8 dereferenceable(256) %this, ptr noundef %__s, i32 noundef %__mode) unnamed_addr #0 align 2 personality ptr @__gxx_personality_v0 !dbg !3055 {
entry:
  %this.addr = alloca ptr, align 8
  %__s.addr = alloca ptr, align 8
  %__mode.addr = alloca i32, align 4
  %exn.slot = alloca ptr, align 8
  %ehselector.slot = alloca i32, align 4
  store ptr %this, ptr %this.addr, align 8, !tbaa !1774
  call void @llvm.dbg.declare(metadata ptr %this.addr, metadata !3061, metadata !DIExpression()), !dbg !3065
  store ptr %__s, ptr %__s.addr, align 8, !tbaa !1774
  call void @llvm.dbg.declare(metadata ptr %__s.addr, metadata !3063, metadata !DIExpression()), !dbg !3066
  store i32 %__mode, ptr %__mode.addr, align 4, !tbaa !1935
  call void @llvm.dbg.declare(metadata ptr %__mode.addr, metadata !3064, metadata !DIExpression()), !dbg !3067
  %this1 = load ptr, ptr %this.addr, align 8
  %0 = getelementptr inbounds i8, ptr %this1, i64 256, !dbg !3068
  call void @_ZNSt9basic_iosIcSt11char_traitsIcEEC2Ev(ptr noundef nonnull align 8 dereferenceable(264) %0), !dbg !3069
  invoke void @_ZNSiC2Ev(ptr noundef nonnull align 8 dereferenceable(16) %this1, ptr noundef getelementptr inbounds ([4 x ptr], ptr @_ZTTSt14basic_ifstreamIcSt11char_traitsIcEE, i64 0, i64 1))
          to label %invoke.cont unwind label %lpad, !dbg !3070

invoke.cont:                                      ; preds = %entry
  store ptr getelementptr inbounds ({ [5 x ptr], [5 x ptr] }, ptr @_ZTVSt14basic_ifstreamIcSt11char_traitsIcEE, i32 0, inrange i32 0, i32 3), ptr %this1, align 8, !dbg !3068, !tbaa !1941
  %add.ptr = getelementptr inbounds i8, ptr %this1, i64 256, !dbg !3068
  store ptr getelementptr inbounds ({ [5 x ptr], [5 x ptr] }, ptr @_ZTVSt14basic_ifstreamIcSt11char_traitsIcEE, i32 0, inrange i32 1, i32 3), ptr %add.ptr, align 8, !dbg !3068, !tbaa !1941
  %_M_filebuf = getelementptr inbounds %"class.std::basic_ifstream", ptr %this1, i32 0, i32 1, !dbg !3071
  invoke void @_ZNSt13basic_filebufIcSt11char_traitsIcEEC1Ev(ptr noundef nonnull align 8 dereferenceable(240) %_M_filebuf)
          to label %invoke.cont3 unwind label %lpad2, !dbg !3071

invoke.cont3:                                     ; preds = %invoke.cont
  %vtable = load ptr, ptr %this1, align 8, !dbg !3072, !tbaa !1941
  %vbase.offset.ptr = getelementptr i8, ptr %vtable, i64 -24, !dbg !3072
  %vbase.offset = load i64, ptr %vbase.offset.ptr, align 8, !dbg !3072
  %add.ptr4 = getelementptr inbounds i8, ptr %this1, i64 %vbase.offset, !dbg !3072
  %_M_filebuf5 = getelementptr inbounds %"class.std::basic_ifstream", ptr %this1, i32 0, i32 1, !dbg !3074
  invoke void @_ZNSt9basic_iosIcSt11char_traitsIcEE4initEPSt15basic_streambufIcS1_E(ptr noundef nonnull align 8 dereferenceable(264) %add.ptr4, ptr noundef %_M_filebuf5)
          to label %invoke.cont7 unwind label %lpad6, !dbg !3072

invoke.cont7:                                     ; preds = %invoke.cont3
  %1 = load ptr, ptr %__s.addr, align 8, !dbg !3075, !tbaa !1774
  %2 = load i32, ptr %__mode.addr, align 4, !dbg !3076, !tbaa !1935
  invoke void @_ZNSt14basic_ifstreamIcSt11char_traitsIcEE4openEPKcSt13_Ios_Openmode(ptr noundef nonnull align 8 dereferenceable(256) %this1, ptr noundef %1, i32 noundef %2)
          to label %invoke.cont8 unwind label %lpad6, !dbg !3077

invoke.cont8:                                     ; preds = %invoke.cont7
  ret void, !dbg !3078

lpad:                                             ; preds = %entry
  %3 = landingpad { ptr, i32 }
          cleanup, !dbg !3078
  %4 = extractvalue { ptr, i32 } %3, 0, !dbg !3078
  store ptr %4, ptr %exn.slot, align 8, !dbg !3078
