
kernel.elf:	file format elf64-littleriscv

Disassembly of section .init:

0000000180000000 <_start>:
180000000: f3 22 10 fc 	csrr	t0, nw
180000004: 17 13 00 00 	auipc	t1, 0x1
180000008: 13 03 83 e9 	addi	t1, t1, -0x168
18000000c: 0b 90 62 00 	vx_wspawn	t0, t1
180000010: 93 02 f0 ff 	li	t0, -0x1
180000014: 0b 80 02 00 	vx_tmc	t0
180000018: ef 00 10 64 	jal	0x180000e58 <init_regs>
18000001c: 93 02 10 00 	li	t0, 0x1
180000020: 0b 80 02 00 	vx_tmc	t0
180000024: f3 22 10 fc 	csrr	t0, nw
180000028: 17 13 00 00 	auipc	t1, 0x1
18000002c: 13 03 83 e8 	addi	t1, t1, -0x178
180000030: 0b 90 62 00 	vx_wspawn	t0, t1
180000034: 93 02 f0 ff 	li	t0, -0x1
180000038: 0b 80 02 00 	vx_tmc	t0
18000003c: ef 00 90 68 	jal	0x180000ec4 <__init_tls>
180000040: 93 02 10 00 	li	t0, 0x1
180000044: 0b 80 02 00 	vx_tmc	t0
180000048: 17 55 00 00 	auipc	a0, 0x5
18000004c: 13 05 c5 cf 	addi	a0, a0, -0x304
180000050: 17 56 00 00 	auipc	a2, 0x5
180000054: 13 06 86 d3 	addi	a2, a2, -0x2c8
180000058: 33 06 a6 40 	sub	a2, a2, a0
18000005c: 93 05 00 00 	li	a1, 0x0
180000060: ef 30 80 6f 	jal	0x180003758 <memset>
180000064: ef 00 50 6a 	jal	0x180000f08 <__libc_init_array>
180000068: ef 00 c0 15 	jal	0x1800001c4 <main>
18000006c: 6f 00 40 00 	j	0x180000070 <exit>

Disassembly of section .text:

0000000180000070 <exit>:
180000070: 13 01 01 ff 	addi	sp, sp, -0x10
180000074: 23 34 11 00 	sd	ra, 0x8(sp)
180000078: 23 30 81 00 	sd	s0, 0x0(sp)
18000007c: 13 04 05 00 	mv	s0, a0
180000080: ef 00 d0 71 	jal	0x180000f9c <__funcs_on_exit>
180000084: ef 30 c0 11 	jal	0x1800031a0 <libc_exit_fini>
180000088: ef 30 40 11 	jal	0x18000319c <dummy>
18000008c: 13 05 04 00 	mv	a0, s0
180000090: ef 00 50 5b 	jal	0x180000e44 <_Exit>

0000000180000094 <_Z44cuda_cuda_initialize_variablesiPfPKf_wrapperPv>:
180000094: 97 55 00 00 	auipc	a1, 0x5
180000098: 83 b5 c5 be 	ld	a1, -0x414(a1)
18000009c: b3 85 45 00 	add	a1, a1, tp
1800000a0: 03 a6 05 00 	lw	a2, 0x0(a1)
1800000a4: 23 20 c2 00 	sw	a2, 0x0(tp)
1800000a8: 03 a6 45 00 	lw	a2, 0x4(a1)
1800000ac: 23 22 c2 00 	sw	a2, 0x4(tp)
1800000b0: 83 a5 85 00 	lw	a1, 0x8(a1)
1800000b4: 17 56 00 00 	auipc	a2, 0x5
1800000b8: 03 36 46 bc 	ld	a2, -0x43c(a2)
1800000bc: 23 24 b2 00 	sw	a1, 0x8(tp)
1800000c0: 33 06 46 00 	add	a2, a2, tp
1800000c4: 83 25 06 00 	lw	a1, 0x0(a2)
1800000c8: 23 26 b2 00 	sw	a1, 0xc(tp)
1800000cc: 83 25 46 00 	lw	a1, 0x4(a2)
1800000d0: 23 28 b2 00 	sw	a1, 0x10(tp)
1800000d4: 83 25 86 00 	lw	a1, 0x8(a2)
1800000d8: 23 2a b2 00 	sw	a1, 0x14(tp)
1800000dc: 6f 00 10 41 	j	0x180000cec <cuda_initialize_variablesiPfPKf_wrapper>

00000001800000e0 <_Z44cuda_cuda_compute_step_factoriPfS_S__wrapperPv>:
1800000e0: 97 55 00 00 	auipc	a1, 0x5
1800000e4: 83 b5 05 ba 	ld	a1, -0x460(a1)
1800000e8: b3 85 45 00 	add	a1, a1, tp
1800000ec: 03 a6 05 00 	lw	a2, 0x0(a1)
1800000f0: 23 20 c2 00 	sw	a2, 0x0(tp)
1800000f4: 03 a6 45 00 	lw	a2, 0x4(a1)
1800000f8: 23 22 c2 00 	sw	a2, 0x4(tp)
1800000fc: 83 a5 85 00 	lw	a1, 0x8(a1)
180000100: 17 56 00 00 	auipc	a2, 0x5
180000104: 03 36 86 b7 	ld	a2, -0x488(a2)
180000108: 23 24 b2 00 	sw	a1, 0x8(tp)
18000010c: 33 06 46 00 	add	a2, a2, tp
180000110: 83 25 06 00 	lw	a1, 0x0(a2)
180000114: 23 26 b2 00 	sw	a1, 0xc(tp)
180000118: 83 25 46 00 	lw	a1, 0x4(a2)
18000011c: 23 28 b2 00 	sw	a1, 0x10(tp)
180000120: 83 25 86 00 	lw	a1, 0x8(a2)
180000124: 23 2a b2 00 	sw	a1, 0x14(tp)
180000128: 6f 00 90 46 	j	0x180000d90 <cuda_compute_step_factoriPfS_S__wrapper>

000000018000012c <_Z63cuda_cuda_compute_fluxiPKiPKfS2_PfS2_PK6float3S6_S6_S6__wrapperPv>:
18000012c: 97 55 00 00 	auipc	a1, 0x5
180000130: 83 b5 45 b5 	ld	a1, -0x4ac(a1)
180000134: b3 85 45 00 	add	a1, a1, tp
180000138: 03 a6 05 00 	lw	a2, 0x0(a1)
18000013c: 23 20 c2 00 	sw	a2, 0x0(tp)
180000140: 03 a6 45 00 	lw	a2, 0x4(a1)
180000144: 23 22 c2 00 	sw	a2, 0x4(tp)
180000148: 83 a5 85 00 	lw	a1, 0x8(a1)
18000014c: 17 56 00 00 	auipc	a2, 0x5
180000150: 03 36 c6 b2 	ld	a2, -0x4d4(a2)
180000154: 23 24 b2 00 	sw	a1, 0x8(tp)
180000158: 33 06 46 00 	add	a2, a2, tp
18000015c: 83 25 06 00 	lw	a1, 0x0(a2)
180000160: 23 26 b2 00 	sw	a1, 0xc(tp)
180000164: 83 25 46 00 	lw	a1, 0x4(a2)
180000168: 23 28 b2 00 	sw	a1, 0x10(tp)
18000016c: 83 25 86 00 	lw	a1, 0x8(a2)
180000170: 23 2a b2 00 	sw	a1, 0x14(tp)
180000174: 6f 00 10 43 	j	0x180000da4 <cuda_compute_fluxiPKiPKfS2_PfS2_PK6float3S6_S6_S6__wrapper>

0000000180000178 <_Z37cuda_cuda_time_stepiiPfS_S_S__wrapperPv>:
180000178: 97 55 00 00 	auipc	a1, 0x5
18000017c: 83 b5 85 b0 	ld	a1, -0x4f8(a1)
180000180: b3 85 45 00 	add	a1, a1, tp
180000184: 03 a6 05 00 	lw	a2, 0x0(a1)
180000188: 23 20 c2 00 	sw	a2, 0x0(tp)
18000018c: 03 a6 45 00 	lw	a2, 0x4(a1)
180000190: 23 22 c2 00 	sw	a2, 0x4(tp)
180000194: 83 a5 85 00 	lw	a1, 0x8(a1)
180000198: 17 56 00 00 	auipc	a2, 0x5
18000019c: 03 36 06 ae 	ld	a2, -0x520(a2)
1800001a0: 23 24 b2 00 	sw	a1, 0x8(tp)
1800001a4: 33 06 46 00 	add	a2, a2, tp
1800001a8: 83 25 06 00 	lw	a1, 0x0(a2)
1800001ac: 23 26 b2 00 	sw	a1, 0xc(tp)
1800001b0: 83 25 46 00 	lw	a1, 0x4(a2)
1800001b4: 23 28 b2 00 	sw	a1, 0x10(tp)
1800001b8: 83 25 86 00 	lw	a1, 0x8(a2)
1800001bc: 23 2a b2 00 	sw	a1, 0x14(tp)
1800001c0: 6f 00 d0 42 	j	0x180000dec <cuda_time_stepiiPfS_S_S__wrapper>

00000001800001c4 <main>:
1800001c4: 13 01 01 fd 	addi	sp, sp, -0x30
1800001c8: 23 34 11 02 	sd	ra, 0x28(sp)
1800001cc: 23 30 81 02 	sd	s0, 0x20(sp)
1800001d0: 23 3c 91 00 	sd	s1, 0x18(sp)
1800001d4: 23 38 21 01 	sd	s2, 0x10(sp)
1800001d8: 23 34 31 01 	sd	s3, 0x8(sp)
1800001dc: 23 30 41 01 	sd	s4, 0x0(sp)
1800001e0: 73 24 00 34 	csrr	s0, mscratch
1800001e4: 83 29 44 04 	lw	s3, 0x44(s0)
1800001e8: 93 04 84 04 	addi	s1, s0, 0x48
1800001ec: 93 99 39 00 	slli	s3, s3, 0x3
1800001f0: 03 25 04 00 	lw	a0, 0x0(s0)
1800001f4: 33 89 34 01 	add	s2, s1, s3
1800001f8: 97 55 00 00 	auipc	a1, 0x5
1800001fc: 03 26 44 00 	lw	a2, 0x4(s0)
180000200: 23 a6 a5 b4 	sw	a0, -0x4b4(a1)
180000204: 17 55 00 00 	auipc	a0, 0x5
180000208: 83 25 84 00 	lw	a1, 0x8(s0)
18000020c: 23 22 c5 b4 	sw	a2, -0x4bc(a0)
180000210: 17 55 00 00 	auipc	a0, 0x5
180000214: 03 26 84 01 	lw	a2, 0x18(s0)
180000218: 23 2e b5 b2 	sw	a1, -0x4c4(a0)
18000021c: 17 55 00 00 	auipc	a0, 0x5
180000220: 83 25 04 02 	lw	a1, 0x20(s0)
180000224: 23 2a c5 b2 	sw	a2, -0x4cc(a0)
180000228: 17 55 00 00 	auipc	a0, 0x5
18000022c: 83 26 c4 03 	lw	a3, 0x3c(s0)
180000230: 23 28 b5 b2 	sw	a1, -0x4d0(a0)
180000234: 03 25 c4 01 	lw	a0, 0x1c(s0)
180000238: 97 55 00 00 	auipc	a1, 0x5
18000023c: 23 a4 d5 b2 	sw	a3, -0x4d8(a1)
180000240: 97 56 00 00 	auipc	a3, 0x5
180000244: 83 35 09 00 	ld	a1, 0x0(s2)
180000248: 23 aa a6 b0 	sw	a0, -0x4ec(a3)
18000024c: 33 05 c5 02 	mul	a0, a0, a2
180000250: 17 56 00 00 	auipc	a2, 0x5
180000254: 23 26 a6 b0 	sw	a0, -0x4f4(a2)
180000258: 63 82 05 04 	beqz	a1, 0x18000029c <main+0xd8>
18000025c: 17 35 00 00 	auipc	a0, 0x3
180000260: 13 05 c5 6b 	addi	a0, a0, 0x6bc
180000264: ef 00 10 5e 	jal	0x180001044 <vx_printf>
180000268: 03 35 09 00 	ld	a0, 0x0(s2)
18000026c: 63 08 05 02 	beqz	a0, 0x18000029c <main+0xd8>
180000270: 13 0a 00 00 	li	s4, 0x0
180000274: b3 89 89 00 	add	s3, s3, s0
180000278: 93 89 09 06 	addi	s3, s3, 0x60
18000027c: 03 b5 09 ff 	ld	a0, -0x10(s3)
180000280: 83 b5 89 ff 	ld	a1, -0x8(s3)
180000284: 03 b6 09 00 	ld	a2, 0x0(s3)
180000288: ef 20 50 78 	jal	0x18000320c <memcpy>
18000028c: 03 35 09 00 	ld	a0, 0x0(s2)
180000290: 13 0a 1a 00 	addi	s4, s4, 0x1
180000294: 93 89 89 01 	addi	s3, s3, 0x18
180000298: e3 62 aa fe 	bltu	s4, a0, 0x18000027c <main+0xb8>
18000029c: 03 25 04 04 	lw	a0, 0x40(s0)
1800002a0: 13 15 35 00 	slli	a0, a0, 0x3
1800002a4: 97 55 00 00 	auipc	a1, 0x5
1800002a8: 93 85 c5 99 	addi	a1, a1, -0x664
1800002ac: 33 85 a5 00 	add	a0, a1, a0
1800002b0: 83 36 05 00 	ld	a3, 0x0(a0)
1800002b4: 13 05 30 00 	li	a0, 0x3
1800002b8: 93 05 04 00 	mv	a1, s0
1800002bc: 13 06 00 00 	li	a2, 0x0
1800002c0: 13 87 04 00 	mv	a4, s1
1800002c4: 83 30 81 02 	ld	ra, 0x28(sp)
1800002c8: 03 34 01 02 	ld	s0, 0x20(sp)
1800002cc: 83 34 81 01 	ld	s1, 0x18(sp)
1800002d0: 03 39 01 01 	ld	s2, 0x10(sp)
1800002d4: 83 39 81 00 	ld	s3, 0x8(sp)
1800002d8: 03 3a 01 00 	ld	s4, 0x0(sp)
1800002dc: 13 01 01 03 	addi	sp, sp, 0x30
1800002e0: 6f 10 c0 10 	j	0x1800013ec <vx_spawn_threads>

00000001800002e4 <_Z24cuda_compute_step_factoriPfS_S_>:
1800002e4: 13 01 01 f6 	addi	sp, sp, -0xa0
1800002e8: 23 3c 11 08 	sd	ra, 0x98(sp)
1800002ec: 23 38 81 08 	sd	s0, 0x90(sp)
1800002f0: 23 34 91 08 	sd	s1, 0x88(sp)
1800002f4: 23 30 21 09 	sd	s2, 0x80(sp)
1800002f8: 23 3c 31 07 	sd	s3, 0x78(sp)
1800002fc: 23 38 41 07 	sd	s4, 0x70(sp)
180000300: 23 34 51 07 	sd	s5, 0x68(sp)
180000304: 23 30 61 07 	sd	s6, 0x60(sp)
180000308: 23 3c 71 05 	sd	s7, 0x58(sp)
18000030c: 23 38 81 05 	sd	s8, 0x50(sp)
180000310: 23 34 91 05 	sd	s9, 0x48(sp)
180000314: 23 30 a1 05 	sd	s10, 0x40(sp)
180000318: 23 3c b1 03 	sd	s11, 0x38(sp)
18000031c: 27 38 81 02 	fsd	fs0, 0x30(sp)
180000320: 27 34 91 02 	fsd	fs1, 0x28(sp)
180000324: 27 30 21 03 	fsd	fs2, 0x20(sp)
180000328: 27 3c 31 01 	fsd	fs3, 0x18(sp)
18000032c: 27 38 41 01 	fsd	fs4, 0x10(sp)
180000330: 27 34 51 01 	fsd	fs5, 0x8(sp)
180000334: 13 04 01 0a 	addi	s0, sp, 0xa0
180000338: 17 57 00 00 	auipc	a4, 0x5
18000033c: 03 2a 47 a2 	lw	s4, -0x5dc(a4)
180000340: 23 30 a4 f6 	sd	a0, -0xa0(s0)
180000344: 63 0a 0a 10 	beqz	s4, 0x180000458 <_Z24cuda_compute_step_factoriPfS_S_+0x174>
180000348: 13 89 06 00 	mv	s2, a3
18000034c: 93 89 05 00 	mv	s3, a1
180000350: 13 0b 00 00 	li	s6, 0x0
180000354: 93 0b 02 00 	mv	s7, tp
180000358: 03 3d 04 f6 	ld	s10, -0xa0(s0)
18000035c: 13 1c 1d 00 	slli	s8, s10, 0x1
180000360: b3 0c ac 01 	add	s9, s8, s10
180000364: 13 1d 2d 00 	slli	s10, s10, 0x2
180000368: 17 55 00 00 	auipc	a0, 0x5
18000036c: 87 29 85 9c 	flw	fs3, -0x638(a0)
180000370: 17 55 00 00 	auipc	a0, 0x5
180000374: 07 2a 45 9c 	flw	fs4, -0x63c(a0)
180000378: 37 05 00 3f 	lui	a0, 0x3f000
18000037c: d3 0a 05 f0 	fmv.w.x	fs5, a0
180000380: 97 5d 00 00 	auipc	s11, 0x5
180000384: 93 0a 06 00 	mv	s5, a2
180000388: 03 a5 0d 9d 	lw	a0, -0x630(s11)
18000038c: 83 a5 0b 00 	lw	a1, 0x0(s7)
180000390: b3 85 a5 02 	mul	a1, a1, a0
180000394: 3b 65 ab 02 	remw	a0, s6, a0
180000398: 3b 85 a5 00 	addw	a0, a1, a0
18000039c: 93 14 25 00 	slli	s1, a0, 0x2
1800003a0: b3 85 99 00 	add	a1, s3, s1
1800003a4: 87 a7 05 00 	flw	fa5, 0x0(a1)
1800003a8: 83 35 04 f6 	ld	a1, -0xa0(s0)
1800003ac: bb 05 b5 00 	addw	a1, a0, a1
1800003b0: 93 95 25 00 	slli	a1, a1, 0x2
1800003b4: b3 85 b9 00 	add	a1, s3, a1
1800003b8: 07 a7 05 00 	flw	fa4, 0x0(a1)
1800003bc: bb 05 85 01 	addw	a1, a0, s8
1800003c0: 93 95 25 00 	slli	a1, a1, 0x2
1800003c4: b3 85 b9 00 	add	a1, s3, a1
1800003c8: 87 a6 05 00 	flw	fa3, 0x0(a1)
1800003cc: bb 05 95 01 	addw	a1, a0, s9
1800003d0: 93 95 25 00 	slli	a1, a1, 0x2
1800003d4: b3 85 b9 00 	add	a1, s3, a1
1800003d8: 07 a6 05 00 	flw	fa2, 0x0(a1)
1800003dc: 3b 05 a5 01 	addw	a0, a0, s10
1800003e0: 13 15 25 00 	slli	a0, a0, 0x2
1800003e4: 33 85 a9 00 	add	a0, s3, a0
1800003e8: 87 25 05 00 	flw	fa1, 0x0(a0)
1800003ec: 53 77 f7 18 	fdiv.s	fa4, fa4, fa5
1800003f0: d3 f6 f6 18 	fdiv.s	fa3, fa3, fa5
1800003f4: 53 76 f6 18 	fdiv.s	fa2, fa2, fa5
1800003f8: d3 f6 d6 10 	fmul.s	fa3, fa3, fa3
1800003fc: 43 77 e7 68 	fmadd.s	fa4, fa4, fa4, fa3
180000400: 43 74 c6 70 	fmadd.s	fs0, fa2, fa2, fa4
180000404: 53 f7 57 11 	fmul.s	fa4, fa5, fs5
180000408: 4b 77 87 58 	fnmsub.s	fa4, fa4, fs0, fa1
18000040c: 53 77 37 11 	fmul.s	fa4, fa4, fs3
180000410: 53 77 47 11 	fmul.s	fa4, fa4, fs4
180000414: 53 75 f7 18 	fdiv.s	fa0, fa4, fa5
180000418: ef 00 10 1f 	jal	0x180000e08 <__nv_sqrtf>
18000041c: 33 85 9a 00 	add	a0, s5, s1
180000420: 87 27 05 00 	flw	fa5, 0x0(a0)
180000424: d3 04 a5 20 	fmv.s	fs1, fa0
180000428: 53 85 f7 20 	fmv.s	fa0, fa5
18000042c: ef 00 d0 1d 	jal	0x180000e08 <__nv_sqrtf>
180000430: 53 09 a5 20 	fmv.s	fs2, fa0
180000434: 53 05 84 20 	fmv.s	fa0, fs0
180000438: ef 00 10 1d 	jal	0x180000e08 <__nv_sqrtf>
18000043c: d3 f7 a4 00 	fadd.s	fa5, fs1, fa0
180000440: d3 77 f9 10 	fmul.s	fa5, fs2, fa5
180000444: d3 f7 fa 18 	fdiv.s	fa5, fs5, fa5
180000448: b3 04 99 00 	add	s1, s2, s1
18000044c: 1b 0b 1b 00 	addiw	s6, s6, 0x1
180000450: 27 a0 f4 00 	fsw	fa5, 0x0(s1)
180000454: e3 1a 6a f3 	bne	s4, s6, 0x180000388 <_Z24cuda_compute_step_factoriPfS_S_+0xa4>
180000458: 83 30 81 09 	ld	ra, 0x98(sp)
18000045c: 03 34 01 09 	ld	s0, 0x90(sp)
180000460: 83 34 81 08 	ld	s1, 0x88(sp)
180000464: 03 39 01 08 	ld	s2, 0x80(sp)
180000468: 83 39 81 07 	ld	s3, 0x78(sp)
18000046c: 03 3a 01 07 	ld	s4, 0x70(sp)
180000470: 83 3a 81 06 	ld	s5, 0x68(sp)
180000474: 03 3b 01 06 	ld	s6, 0x60(sp)
180000478: 83 3b 81 05 	ld	s7, 0x58(sp)
18000047c: 03 3c 01 05 	ld	s8, 0x50(sp)
180000480: 83 3c 81 04 	ld	s9, 0x48(sp)
180000484: 03 3d 01 04 	ld	s10, 0x40(sp)
180000488: 83 3d 81 03 	ld	s11, 0x38(sp)
18000048c: 07 34 01 03 	fld	fs0, 0x30(sp)
180000490: 87 34 81 02 	fld	fs1, 0x28(sp)
180000494: 07 39 01 02 	fld	fs2, 0x20(sp)
180000498: 87 39 81 01 	fld	fs3, 0x18(sp)
18000049c: 07 3a 01 01 	fld	fs4, 0x10(sp)
1800004a0: 87 3a 81 00 	fld	fs5, 0x8(sp)
1800004a4: 13 01 01 0a 	addi	sp, sp, 0xa0
1800004a8: 67 80 00 00 	ret

00000001800004ac <_Z17cuda_compute_fluxiPKiPKfS2_PfS2_PK6float3S6_S6_S6_>:
1800004ac: 13 01 01 e0 	addi	sp, sp, -0x200
1800004b0: 23 3c 11 1e 	sd	ra, 0x1f8(sp)
1800004b4: 23 38 81 1e 	sd	s0, 0x1f0(sp)
1800004b8: 23 34 91 1e 	sd	s1, 0x1e8(sp)
1800004bc: 23 30 21 1f 	sd	s2, 0x1e0(sp)
1800004c0: 23 3c 31 1d 	sd	s3, 0x1d8(sp)
1800004c4: 23 38 41 1d 	sd	s4, 0x1d0(sp)
1800004c8: 23 34 51 1d 	sd	s5, 0x1c8(sp)
1800004cc: 23 30 61 1d 	sd	s6, 0x1c0(sp)
1800004d0: 23 3c 71 1b 	sd	s7, 0x1b8(sp)
1800004d4: 23 38 81 1b 	sd	s8, 0x1b0(sp)
1800004d8: 23 34 91 1b 	sd	s9, 0x1a8(sp)
1800004dc: 23 30 a1 1b 	sd	s10, 0x1a0(sp)
1800004e0: 23 3c b1 19 	sd	s11, 0x198(sp)
1800004e4: 27 38 81 18 	fsd	fs0, 0x190(sp)
1800004e8: 27 34 91 18 	fsd	fs1, 0x188(sp)
1800004ec: 27 30 21 19 	fsd	fs2, 0x180(sp)
1800004f0: 27 3c 31 17 	fsd	fs3, 0x178(sp)
1800004f4: 27 38 41 17 	fsd	fs4, 0x170(sp)
1800004f8: 27 34 51 17 	fsd	fs5, 0x168(sp)
1800004fc: 27 30 61 17 	fsd	fs6, 0x160(sp)
180000500: 27 3c 71 15 	fsd	fs7, 0x158(sp)
180000504: 27 38 81 15 	fsd	fs8, 0x150(sp)
180000508: 27 34 91 15 	fsd	fs9, 0x148(sp)
18000050c: 27 30 a1 15 	fsd	fs10, 0x140(sp)
180000510: 27 3c b1 13 	fsd	fs11, 0x138(sp)
180000514: 13 04 01 20 	addi	s0, sp, 0x200
180000518: 97 52 00 00 	auipc	t0, 0x5
18000051c: 83 a2 42 84 	lw	t0, -0x7bc(t0)
180000520: 23 3c 14 e9 	sd	a7, -0x168(s0)
180000524: 23 38 04 e9 	sd	a6, -0x170(s0)
180000528: 23 34 f4 e8 	sd	a5, -0x178(s0)
18000052c: 23 38 e4 e2 	sd	a4, -0x1d0(s0)
180000530: 23 34 c4 e2 	sd	a2, -0x1d8(s0)
180000534: 23 30 b4 e2 	sd	a1, -0x1e0(s0)
180000538: 23 3c 54 e2 	sd	t0, -0x1c8(s0)
18000053c: 63 8c 02 60 	beqz	t0, 0x180000b54 <_Z17cuda_compute_fluxiPKiPKfS2_PfS2_PK6float3S6_S6_S6_+0x6a8>
180000540: 93 8a 06 00 	mv	s5, a3
180000544: 13 06 05 00 	mv	a2, a0
180000548: 93 06 00 00 	li	a3, 0x0
18000054c: 03 35 84 00 	ld	a0, 0x8(s0)
180000550: 23 30 a4 e8 	sd	a0, -0x180(s0)
180000554: 03 35 04 00 	ld	a0, 0x0(s0)
180000558: 23 3c a4 e6 	sd	a0, -0x188(s0)
18000055c: 13 05 02 00 	mv	a0, tp
180000560: 23 3c a4 e0 	sd	a0, -0x1e8(s0)
180000564: 13 15 16 00 	slli	a0, a2, 0x1
180000568: 93 0b 05 00 	mv	s7, a0
18000056c: 33 05 c5 00 	add	a0, a0, a2
180000570: 23 30 a4 ec 	sd	a0, -0x140(s0)
180000574: 13 15 26 00 	slli	a0, a2, 0x2
180000578: 23 3c a4 ea 	sd	a0, -0x148(s0)
18000057c: 1b 09 06 00 	sext.w	s2, a2
180000580: 13 1d 59 00 	slli	s10, s2, 0x5
180000584: 93 1d 29 00 	slli	s11, s2, 0x2
180000588: 13 19 49 00 	slli	s2, s2, 0x4
18000058c: 17 45 00 00 	auipc	a0, 0x4
180000590: 23 38 a4 e0 	sd	a0, -0x1f0(s0)
180000594: 17 45 00 00 	auipc	a0, 0x4
180000598: 87 27 45 7a 	flw	fa5, 0x7a4(a0)
18000059c: 27 2a f4 ea 	fsw	fa5, -0x14c(s0)
1800005a0: 17 45 00 00 	auipc	a0, 0x4
1800005a4: 87 27 c5 79 	flw	fa5, 0x79c(a0)
1800005a8: 27 28 f4 ea 	fsw	fa5, -0x150(s0)
1800005ac: 37 05 00 bf 	lui	a0, 0xbf000
1800005b0: d3 07 05 f0 	fmv.w.x	fa5, a0
1800005b4: 27 26 f4 e0 	fsw	fa5, -0x1f4(s0)
1800005b8: d3 07 00 f0 	fmv.w.x	fa5, zero
1800005bc: 27 24 f4 e0 	fsw	fa5, -0x1f8(s0)
1800005c0: 6f 00 80 05 	j	0x180000618 <_Z17cuda_compute_fluxiPKiPKfS2_PfS2_PK6float3S6_S6_S6_+0x16c>
1800005c4: 83 35 04 e3 	ld	a1, -0x1d0(s0)
1800005c8: 03 35 04 e6 	ld	a0, -0x1a0(s0)
1800005cc: 33 85 a5 00 	add	a0, a1, a0
1800005d0: 27 20 45 01 	fsw	fs4, 0x0(a0)
1800005d4: 03 35 84 e5 	ld	a0, -0x1a8(s0)
1800005d8: 33 85 a5 00 	add	a0, a1, a0
1800005dc: 27 20 35 01 	fsw	fs3, 0x0(a0)
1800005e0: 03 35 04 e5 	ld	a0, -0x1b0(s0)
1800005e4: 33 85 a5 00 	add	a0, a1, a0
1800005e8: 27 20 25 01 	fsw	fs2, 0x0(a0)
1800005ec: 03 35 84 e4 	ld	a0, -0x1b8(s0)
1800005f0: 33 85 a5 00 	add	a0, a1, a0
1800005f4: 27 20 85 00 	fsw	fs0, 0x0(a0)
1800005f8: 03 35 04 e4 	ld	a0, -0x1c0(s0)
1800005fc: 33 85 a5 00 	add	a0, a1, a0
180000600: 83 36 84 e6 	ld	a3, -0x198(s0)
180000604: 9b 86 16 00 	addiw	a3, a3, 0x1
180000608: 27 20 95 00 	fsw	fs1, 0x0(a0)
18000060c: 03 35 84 e3 	ld	a0, -0x1c8(s0)
180000610: 13 06 0c 00 	mv	a2, s8
180000614: 63 80 a6 54 	beq	a3, a0, 0x180000b54 <_Z17cuda_compute_fluxiPKiPKfS2_PfS2_PK6float3S6_S6_S6_+0x6a8>
180000618: 03 35 04 e1 	ld	a0, -0x1f0(s0)
18000061c: 03 25 45 7c 	lw	a0, 0x7c4(a0)
180000620: 83 35 84 e1 	ld	a1, -0x1e8(s0)
180000624: 83 a5 05 00 	lw	a1, 0x0(a1)
180000628: b3 85 a5 02 	mul	a1, a1, a0
18000062c: 23 34 d4 e6 	sd	a3, -0x198(s0)
180000630: 3b e5 a6 02 	remw	a0, a3, a0
180000634: 3b 85 a5 00 	addw	a0, a1, a0
180000638: 13 1a 25 00 	slli	s4, a0, 0x2
18000063c: b3 85 4a 01 	add	a1, s5, s4
180000640: 87 aa 05 00 	flw	fs5, 0x0(a1)
180000644: 13 0c 06 00 	mv	s8, a2
180000648: bb 05 c5 00 	addw	a1, a0, a2
18000064c: 93 95 25 00 	slli	a1, a1, 0x2
180000650: 23 3c b4 e4 	sd	a1, -0x1a8(s0)
180000654: b3 85 ba 00 	add	a1, s5, a1
180000658: 07 ab 05 00 	flw	fs6, 0x0(a1)
18000065c: bb 05 75 01 	addw	a1, a0, s7
180000660: 93 95 25 00 	slli	a1, a1, 0x2
180000664: 23 38 b4 e4 	sd	a1, -0x1b0(s0)
180000668: b3 85 ba 00 	add	a1, s5, a1
18000066c: 87 ab 05 00 	flw	fs7, 0x0(a1)
180000670: 83 35 04 ec 	ld	a1, -0x140(s0)
180000674: bb 05 b5 00 	addw	a1, a0, a1
180000678: 93 95 25 00 	slli	a1, a1, 0x2
18000067c: 23 34 b4 e4 	sd	a1, -0x1b8(s0)
180000680: b3 85 ba 00 	add	a1, s5, a1
180000684: 07 ac 05 00 	flw	fs8, 0x0(a1)
180000688: 83 35 84 eb 	ld	a1, -0x148(s0)
18000068c: 3b 05 b5 00 	addw	a0, a0, a1
180000690: 13 15 25 00 	slli	a0, a0, 0x2
180000694: 23 30 a4 e4 	sd	a0, -0x1c0(s0)
180000698: 33 85 aa 00 	add	a0, s5, a0
18000069c: 87 2c 05 00 	flw	fs9, 0x0(a0)
1800006a0: 53 74 5b 19 	fdiv.s	fs0, fs6, fs5
1800006a4: 53 f9 5b 19 	fdiv.s	fs2, fs7, fs5
1800006a8: d3 79 5c 19 	fdiv.s	fs3, fs8, fs5
1800006ac: d3 77 29 11 	fmul.s	fa5, fs2, fs2
1800006b0: c3 77 84 78 	fmadd.s	fa5, fs0, fs0, fa5
1800006b4: c3 f4 39 79 	fmadd.s	fs1, fs3, fs3, fa5
1800006b8: 53 85 94 20 	fmv.s	fa0, fs1
1800006bc: ef 00 c0 74 	jal	0x180000e08 <__nv_sqrtf>
1800006c0: 27 22 a4 ea 	fsw	fa0, -0x15c(s0)
1800006c4: 87 27 c4 e0 	flw	fa5, -0x1f4(s0)
1800006c8: d3 f7 fa 10 	fmul.s	fa5, fs5, fa5
1800006cc: c3 f4 97 c8 	fmadd.s	fs1, fa5, fs1, fs9
1800006d0: 07 2a 44 eb 	flw	fs4, -0x14c(s0)
1800006d4: 53 fd 44 11 	fmul.s	fs10, fs1, fs4
1800006d8: 87 27 04 eb 	flw	fa5, -0x150(s0)
1800006dc: d3 77 fd 10 	fmul.s	fa5, fs10, fa5
1800006e0: 27 26 54 eb 	fsw	fs5, -0x154(s0)
1800006e4: 53 f5 57 19 	fdiv.s	fa0, fa5, fs5
1800006e8: ef 00 00 72 	jal	0x180000e08 <__nv_sqrtf>
1800006ec: 27 20 a4 ea 	fsw	fa0, -0x160(s0)
1800006f0: 27 2c 64 ef 	fsw	fs6, -0x108(s0)
1800006f4: c3 77 8b d0 	fmadd.s	fa5, fs6, fs0, fs10
1800006f8: 27 26 f4 ee 	fsw	fa5, -0x114(s0)
1800006fc: d3 77 74 11 	fmul.s	fa5, fs0, fs7
180000700: 27 24 f4 ee 	fsw	fa5, -0x118(s0)
180000704: d3 77 84 11 	fmul.s	fa5, fs0, fs8
180000708: 27 22 f4 ee 	fsw	fa5, -0x11c(s0)
18000070c: 27 2a 74 ef 	fsw	fs7, -0x10c(s0)
180000710: c3 f7 2b d1 	fmadd.s	fa5, fs7, fs2, fs10
180000714: 27 20 f4 ee 	fsw	fa5, -0x120(s0)
180000718: d3 77 2c 11 	fmul.s	fa5, fs8, fs2
18000071c: 27 2e f4 ec 	fsw	fa5, -0x124(s0)
180000720: 27 28 84 ef 	fsw	fs8, -0x110(s0)
180000724: 27 2a a4 e7 	fsw	fs10, -0x18c(s0)
180000728: c3 77 3c d1 	fmadd.s	fa5, fs8, fs3, fs10
18000072c: 27 2c f4 ec 	fsw	fa5, -0x128(s0)
180000730: 27 24 94 eb 	fsw	fs9, -0x158(s0)
180000734: c3 f7 44 c9 	fmadd.s	fa5, fs1, fs4, fs9
180000738: 53 77 f4 10 	fmul.s	fa4, fs0, fa5
18000073c: 27 2a e4 ec 	fsw	fa4, -0x12c(s0)
180000740: 53 77 f9 10 	fmul.s	fa4, fs2, fa5
180000744: 27 28 e4 ec 	fsw	fa4, -0x130(s0)
180000748: d3 f7 f9 10 	fmul.s	fa5, fs3, fa5
18000074c: 27 26 f4 ec 	fsw	fa5, -0x134(s0)
180000750: 83 34 84 e2 	ld	s1, -0x1d8(s0)
180000754: b3 84 44 01 	add	s1, s1, s4
180000758: 83 39 04 e2 	ld	s3, -0x1e0(s0)
18000075c: 23 30 44 e7 	sd	s4, -0x1a0(s0)
180000760: b3 89 49 01 	add	s3, s3, s4
180000764: 13 0b 40 00 	li	s6, 0x4
180000768: 87 27 84 e0 	flw	fa5, -0x1f8(s0)
18000076c: 53 84 f7 20 	fmv.s	fs0, fa5
180000770: 53 89 f7 20 	fmv.s	fs2, fa5
180000774: d3 89 f7 20 	fmv.s	fs3, fa5
180000778: d3 84 f7 20 	fmv.s	fs1, fa5
18000077c: 53 8a f7 20 	fmv.s	fs4, fa5
180000780: 6f 00 00 24 	j	0x1800009c0 <_Z17cuda_compute_fluxiPKiPKfS2_PfS2_PK6float3S6_S6_S6_+0x514>
180000784: 13 95 2c 00 	slli	a0, s9, 0x2
180000788: 33 85 aa 00 	add	a0, s5, a0
18000078c: 27 28 84 f2 	fsw	fs0, -0xd0(s0)
180000790: 07 24 05 00 	flw	fs0, 0x0(a0)
180000794: 3b 85 8c 01 	addw	a0, s9, s8
180000798: 13 15 25 00 	slli	a0, a0, 0x2
18000079c: 33 85 aa 00 	add	a0, s5, a0
1800007a0: 27 24 94 f2 	fsw	fs1, -0xd8(s0)
1800007a4: 87 27 05 00 	flw	fa5, 0x0(a0)
1800007a8: 3b 85 7c 01 	addw	a0, s9, s7
1800007ac: 13 15 25 00 	slli	a0, a0, 0x2
1800007b0: 33 85 aa 00 	add	a0, s5, a0
1800007b4: 87 2c 05 00 	flw	fs9, 0x0(a0)
1800007b8: 03 35 04 ec 	ld	a0, -0x140(s0)
1800007bc: 3b 85 ac 00 	addw	a0, s9, a0
1800007c0: 13 15 25 00 	slli	a0, a0, 0x2
1800007c4: 33 85 aa 00 	add	a0, s5, a0
1800007c8: 27 22 74 f3 	fsw	fs7, -0xdc(s0)
1800007cc: 87 2b 05 00 	flw	fs7, 0x0(a0)
1800007d0: 03 35 84 eb 	ld	a0, -0x148(s0)
1800007d4: 3b 85 ac 00 	addw	a0, s9, a0
1800007d8: 13 15 25 00 	slli	a0, a0, 0x2
1800007dc: 33 85 aa 00 	add	a0, s5, a0
1800007e0: 27 2a 54 f3 	fsw	fs5, -0xcc(s0)
1800007e4: 07 26 05 00 	flw	fa2, 0x0(a0)
1800007e8: 27 20 c4 f0 	fsw	fa2, -0x100(s0)
1800007ec: 53 fd 87 18 	fdiv.s	fs10, fa5, fs0
1800007f0: d3 8a f7 20 	fmv.s	fs5, fa5
1800007f4: 27 26 64 f3 	fsw	fs6, -0xd4(s0)
1800007f8: d3 f4 8c 18 	fdiv.s	fs1, fs9, fs0
1800007fc: 53 fb 8b 18 	fdiv.s	fs6, fs7, fs0
180000800: d3 f7 94 10 	fmul.s	fa5, fs1, fs1
180000804: 27 26 94 f0 	fsw	fs1, -0xf4(s0)
180000808: c3 77 ad 79 	fmadd.s	fa5, fs10, fs10, fa5
18000080c: 27 2c 34 f1 	fsw	fs3, -0xe8(s0)
180000810: c3 79 6b 79 	fmadd.s	fs3, fs6, fs6, fa5
180000814: 37 05 00 3f 	lui	a0, 0x3f000
180000818: d3 0d 05 f0 	fmv.w.x	fs11, a0
18000081c: d3 77 b4 11 	fmul.s	fa5, fs0, fs11
180000820: 27 2a 24 f1 	fsw	fs2, -0xec(s0)
180000824: 4b f9 37 61 	fnmsub.s	fs2, fa5, fs3, fa2
180000828: 27 24 44 f1 	fsw	fs4, -0xf8(s0)
18000082c: 07 2a 44 eb 	flw	fs4, -0x14c(s0)
180000830: 53 7c 49 11 	fmul.s	fs8, fs2, fs4
180000834: 87 27 04 eb 	flw	fa5, -0x150(s0)
180000838: d3 77 fc 10 	fmul.s	fa5, fs8, fa5
18000083c: 27 2e a4 ee 	fsw	fa0, -0x104(s0)
180000840: 53 f5 87 18 	fdiv.s	fa0, fa5, fs0
180000844: ef 00 40 5c 	jal	0x180000e08 <__nv_sqrtf>
180000848: 27 22 a4 f0 	fsw	fa0, -0xfc(s0)
18000084c: c3 f7 aa c1 	fmadd.s	fa5, fs5, fs10, fs8
180000850: 27 28 f4 f0 	fsw	fa5, -0xf0(s0)
180000854: 17 45 00 00 	auipc	a0, 0x4
180000858: 87 27 c5 4e 	flw	fa5, 0x4ec(a0)
18000085c: 43 f7 9c c0 	fmadd.s	fa4, fs9, fs1, fs8
180000860: 27 2e e4 f0 	fsw	fa4, -0xe4(s0)
180000864: 43 f7 6b c1 	fmadd.s	fa4, fs7, fs6, fs8
180000868: 27 20 e4 f2 	fsw	fa4, -0xe0(s0)
18000086c: 87 24 04 f0 	flw	fs1, -0x100(s0)
180000870: 43 79 49 49 	fmadd.s	fs2, fs2, fs4, fs1
180000874: 07 27 c4 ef 	flw	fa4, -0x104(s0)
180000878: d3 77 f7 10 	fmul.s	fa5, fa4, fa5
18000087c: 53 fc b7 11 	fmul.s	fs8, fa5, fs11
180000880: 53 85 39 21 	fmv.s	fa0, fs3
180000884: ef 00 40 58 	jal	0x180000e08 <__nv_sqrtf>
180000888: 87 27 44 ea 	flw	fa5, -0x15c(s0)
18000088c: d3 f7 a7 00 	fadd.s	fa5, fa5, fa0
180000890: 07 27 04 ea 	flw	fa4, -0x160(s0)
180000894: d3 77 f7 00 	fadd.s	fa5, fa4, fa5
180000898: 07 27 44 f0 	flw	fa4, -0xfc(s0)
18000089c: d3 77 f7 00 	fadd.s	fa5, fa4, fa5
1800008a0: d3 77 fc 10 	fmul.s	fa5, fs8, fa5
1800008a4: 07 27 c4 ea 	flw	fa4, -0x154(s0)
1800008a8: 53 77 87 08 	fsub.s	fa4, fa4, fs0
1800008ac: 87 26 84 f0 	flw	fa3, -0xf8(s0)
1800008b0: 43 77 f7 68 	fmadd.s	fa4, fa4, fa5, fa3
1800008b4: 87 26 84 ea 	flw	fa3, -0x158(s0)
1800008b8: d3 f6 96 08 	fsub.s	fa3, fa3, fs1
1800008bc: 07 26 84 f2 	flw	fa2, -0xd8(s0)
1800008c0: c3 f6 f6 60 	fmadd.s	fa3, fa3, fa5, fa2
1800008c4: 07 20 84 ef 	flw	ft0, -0x108(s0)
1800008c8: 53 76 50 09 	fsub.s	fa2, ft0, fs5
1800008cc: 87 25 84 f1 	flw	fa1, -0xe8(s0)
1800008d0: 43 76 f6 58 	fmadd.s	fa2, fa2, fa5, fa1
1800008d4: 07 21 44 ef 	flw	ft2, -0x10c(s0)
1800008d8: d3 75 91 09 	fsub.s	fa1, ft2, fs9
1800008dc: 07 25 44 f1 	flw	fa0, -0xec(s0)
1800008e0: c3 f5 f5 50 	fmadd.s	fa1, fa1, fa5, fa0
1800008e4: 87 21 04 ef 	flw	ft3, -0x110(s0)
1800008e8: 53 f5 71 09 	fsub.s	fa0, ft3, fs7
1800008ec: 87 20 04 f3 	flw	ft1, -0xd0(s0)
1800008f0: c3 77 f5 08 	fmadd.s	fa5, fa0, fa5, ft1
1800008f4: 07 25 44 f2 	flw	fa0, -0xdc(s0)
1800008f8: 53 75 b5 11 	fmul.s	fa0, fa0, fs11
1800008fc: 53 70 50 01 	fadd.s	ft0, ft0, fs5
180000900: 43 77 05 70 	fmadd.s	fa4, fa0, ft0, fa4
180000904: 07 20 44 ed 	flw	ft0, -0x12c(s0)
180000908: 43 70 2d 01 	fmadd.s	ft0, fs10, fs2, ft0
18000090c: c3 76 05 68 	fmadd.s	fa3, fa0, ft0, fa3
180000910: 07 20 c4 ee 	flw	ft0, -0x114(s0)
180000914: 87 20 04 f1 	flw	ft1, -0xf0(s0)
180000918: 53 70 10 00 	fadd.s	ft0, ft0, ft1
18000091c: 43 76 05 60 	fmadd.s	fa2, fa0, ft0, fa2
180000920: 07 20 84 ee 	flw	ft0, -0x118(s0)
180000924: 43 70 9d 01 	fmadd.s	ft0, fs10, fs9, ft0
180000928: c3 75 05 58 	fmadd.s	fa1, fa0, ft0, fa1
18000092c: 87 20 44 ee 	flw	ft1, -0x11c(s0)
180000930: c3 70 7d 09 	fmadd.s	ft1, fs10, fs7, ft1
180000934: c3 77 15 78 	fmadd.s	fa5, fa0, ft1, fa5
180000938: 07 25 c4 f2 	flw	fa0, -0xd4(s0)
18000093c: 53 75 b5 11 	fmul.s	fa0, fa0, fs11
180000940: 53 71 91 01 	fadd.s	ft2, ft2, fs9
180000944: 43 77 25 70 	fmadd.s	fa4, fa0, ft2, fa4
180000948: 07 21 04 ed 	flw	ft2, -0x130(s0)
18000094c: 07 22 c4 f0 	flw	ft4, -0xf4(s0)
180000950: 43 71 22 11 	fmadd.s	ft2, ft4, fs2, ft2
180000954: c3 76 25 68 	fmadd.s	fa3, fa0, ft2, fa3
180000958: 43 76 05 60 	fmadd.s	fa2, fa0, ft0, fa2
18000095c: 07 20 04 ee 	flw	ft0, -0x120(s0)
180000960: 07 21 c4 f1 	flw	ft2, -0xe4(s0)
180000964: 53 70 20 00 	fadd.s	ft0, ft0, ft2
180000968: c3 75 05 58 	fmadd.s	fa1, fa0, ft0, fa1
18000096c: 07 20 c4 ed 	flw	ft0, -0x124(s0)
180000970: 43 f0 4b 00 	fmadd.s	ft0, fs7, ft4, ft0
180000974: c3 77 05 78 	fmadd.s	fa5, fa0, ft0, fa5
180000978: 07 25 44 f3 	flw	fa0, -0xcc(s0)
18000097c: 53 75 b5 11 	fmul.s	fa0, fa0, fs11
180000980: 53 f1 71 01 	fadd.s	ft2, ft3, fs7
180000984: 43 7a 25 70 	fmadd.s	fs4, fa0, ft2, fa4
180000988: 07 27 c4 ec 	flw	fa4, -0x134(s0)
18000098c: 43 77 2b 71 	fmadd.s	fa4, fs6, fs2, fa4
180000990: c3 74 e5 68 	fmadd.s	fs1, fa0, fa4, fa3
180000994: c3 79 15 60 	fmadd.s	fs3, fa0, ft1, fa2
180000998: 43 79 05 58 	fmadd.s	fs2, fa0, ft0, fa1
18000099c: 07 27 84 ed 	flw	fa4, -0x128(s0)
1800009a0: 87 26 04 f2 	flw	fa3, -0xe0(s0)
1800009a4: 53 77 d7 00 	fadd.s	fa4, fa4, fa3
1800009a8: 43 74 e5 78 	fmadd.s	fs0, fa0, fa4, fa5
1800009ac: 0b 30 0a 00 	vx_join	s4
1800009b0: 13 0b fb ff 	addi	s6, s6, -0x1
1800009b4: b3 84 b4 01 	add	s1, s1, s11
1800009b8: b3 89 b9 01 	add	s3, s3, s11
1800009bc: e3 04 0b c0 	beqz	s6, 0x1800005c4 <_Z17cuda_compute_fluxiPKiPKfS2_PfS2_PK6float3S6_S6_S6_+0x118>
1800009c0: 87 ab 04 00 	flw	fs7, 0x0(s1)
1800009c4: 33 85 24 01 	add	a0, s1, s2
1800009c8: 07 2b 05 00 	flw	fs6, 0x0(a0)
1800009cc: 33 85 a4 01 	add	a0, s1, s10
1800009d0: 87 2a 05 00 	flw	fs5, 0x0(a0)
1800009d4: 83 ac 09 00 	lw	s9, 0x0(s3)
1800009d8: d3 77 6b 11 	fmul.s	fa5, fs6, fs6
1800009dc: c3 f7 7b 79 	fmadd.s	fa5, fs7, fs7, fa5
1800009e0: 43 f5 5a 79 	fmadd.s	fa0, fs5, fs5, fa5
1800009e4: ef 00 40 42 	jal	0x180000e08 <__nv_sqrtf>
1800009e8: 13 c5 fc ff 	not	a0, s9
1800009ec: 13 55 f5 03 	srli	a0, a0, 0x3f
1800009f0: 0b 2a 05 00 	vx_split	s4, a0
1800009f4: e3 18 05 d8 	bnez	a0, 0x180000784 <_Z17cuda_compute_fluxiPKiPKfS2_PfS2_PK6float3S6_S6_S6_+0x2d8>
1800009f8: 93 a5 fc ff 	slti	a1, s9, -0x1
1800009fc: 0b a5 15 00 	vx_split_n	a0, a1
180000a00: 63 84 05 12 	beqz	a1, 0x180000b28 <_Z17cuda_compute_fluxiPKiPKfS2_PfS2_PK6float3S6_S6_S6_+0x67c>
180000a04: 93 8c 2c 00 	addi	s9, s9, 0x2
180000a08: 13 b6 1c 00 	seqz	a2, s9
180000a0c: 8b 25 16 00 	vx_split_n	a1, a2
180000a10: 63 08 06 10 	beqz	a2, 0x180000b20 <_Z17cuda_compute_fluxiPKiPKfS2_PfS2_PK6float3S6_S6_S6_+0x674>
180000a14: 03 37 84 e8 	ld	a4, -0x178(s0)
180000a18: 87 27 47 00 	flw	fa5, 0x4(a4)
180000a1c: 37 06 00 3f 	lui	a2, 0x3f000
180000a20: 53 07 06 f0 	fmv.w.x	fa4, a2
180000a24: d3 f6 eb 10 	fmul.s	fa3, fs7, fa4
180000a28: 83 37 04 e8 	ld	a5, -0x180(s0)
180000a2c: 07 a6 07 00 	flw	fa2, 0x0(a5)
180000a30: 87 25 84 ef 	flw	fa1, -0x108(s0)
180000a34: d3 f7 f5 00 	fadd.s	fa5, fa1, fa5
180000a38: c3 f7 f6 a0 	fmadd.s	fa5, fa3, fa5, fs4
180000a3c: 83 36 04 e9 	ld	a3, -0x170(s0)
180000a40: 87 a5 06 00 	flw	fa1, 0x0(a3)
180000a44: 07 25 44 ed 	flw	fa0, -0x12c(s0)
180000a48: 53 76 c5 00 	fadd.s	fa2, fa0, fa2
180000a4c: 43 f6 c6 48 	fmadd.s	fa2, fa3, fa2, fs1
180000a50: 03 36 84 e9 	ld	a2, -0x168(s0)
180000a54: 07 25 06 00 	flw	fa0, 0x0(a2)
180000a58: 07 20 c4 ee 	flw	ft0, -0x114(s0)
180000a5c: d3 75 b0 00 	fadd.s	fa1, ft0, fa1
180000a60: 03 38 84 e7 	ld	a6, -0x188(s0)
180000a64: 07 20 08 00 	flw	ft0, 0x0(a6)
180000a68: c3 f5 b6 98 	fmadd.s	fa1, fa3, fa1, fs3
180000a6c: 07 22 84 ee 	flw	ft4, -0x118(s0)
180000a70: 53 75 a2 00 	fadd.s	fa0, ft4, fa0
180000a74: 43 f5 a6 90 	fmadd.s	fa0, fa3, fa0, fs2
180000a78: 87 22 44 ee 	flw	ft5, -0x11c(s0)
180000a7c: 53 f0 02 00 	fadd.s	ft0, ft5, ft0
180000a80: 87 20 87 00 	flw	ft1, 0x8(a4)
180000a84: c3 f6 06 40 	fmadd.s	fa3, fa3, ft0, fs0
180000a88: 53 70 eb 10 	fmul.s	ft0, fs6, fa4
180000a8c: 07 a1 47 00 	flw	ft2, 0x4(a5)
180000a90: 87 21 44 ef 	flw	ft3, -0x10c(s0)
180000a94: d3 f0 11 00 	fadd.s	ft1, ft3, ft1
180000a98: c3 77 10 78 	fmadd.s	fa5, ft0, ft1, fa5
180000a9c: 87 a0 46 00 	flw	ft1, 0x4(a3)
180000aa0: 87 21 04 ed 	flw	ft3, -0x130(s0)
180000aa4: 53 f1 21 00 	fadd.s	ft2, ft3, ft2
180000aa8: 43 76 20 60 	fmadd.s	fa2, ft0, ft2, fa2
180000aac: 07 21 46 00 	flw	ft2, 0x4(a2)
180000ab0: d3 70 12 00 	fadd.s	ft1, ft4, ft1
180000ab4: 87 21 48 00 	flw	ft3, 0x4(a6)
180000ab8: c3 75 10 58 	fmadd.s	fa1, ft0, ft1, fa1
180000abc: 87 20 04 ee 	flw	ft1, -0x120(s0)
180000ac0: d3 f0 20 00 	fadd.s	ft1, ft1, ft2
180000ac4: 43 75 10 50 	fmadd.s	fa0, ft0, ft1, fa0
180000ac8: 07 22 c4 ed 	flw	ft4, -0x124(s0)
180000acc: d3 70 32 00 	fadd.s	ft1, ft4, ft3
180000ad0: 07 21 c7 00 	flw	ft2, 0xc(a4)
180000ad4: c3 76 10 68 	fmadd.s	fa3, ft0, ft1, fa3
180000ad8: 53 f7 ea 10 	fmul.s	fa4, fs5, fa4
180000adc: 07 a0 87 00 	flw	ft0, 0x8(a5)
180000ae0: 87 20 04 ef 	flw	ft1, -0x110(s0)
180000ae4: d3 f0 20 00 	fadd.s	ft1, ft1, ft2
180000ae8: 43 7a 17 78 	fmadd.s	fs4, fa4, ft1, fa5
180000aec: 87 a7 86 00 	flw	fa5, 0x8(a3)
180000af0: 87 20 c4 ec 	flw	ft1, -0x134(s0)
180000af4: 53 f0 00 00 	fadd.s	ft0, ft1, ft0
180000af8: c3 74 07 60 	fmadd.s	fs1, fa4, ft0, fa2
180000afc: 07 26 86 00 	flw	fa2, 0x8(a2)
180000b00: d3 f7 f2 00 	fadd.s	fa5, ft5, fa5
180000b04: 07 20 88 00 	flw	ft0, 0x8(a6)
180000b08: c3 79 f7 58 	fmadd.s	fs3, fa4, fa5, fa1
180000b0c: d3 77 c2 00 	fadd.s	fa5, ft4, fa2
180000b10: 43 79 f7 50 	fmadd.s	fs2, fa4, fa5, fa0
180000b14: 87 27 84 ed 	flw	fa5, -0x128(s0)
180000b18: d3 f7 07 00 	fadd.s	fa5, fa5, ft0
180000b1c: 43 74 f7 68 	fmadd.s	fs0, fa4, fa5, fa3
180000b20: 0b b0 05 00 	vx_join	a1
180000b24: 6f 00 80 02 	j	0x180000b4c <_Z17cuda_compute_fluxiPKiPKfS2_PfS2_PK6float3S6_S6_S6_+0x6a0>
180000b28: 93 8c 1c 00 	addi	s9, s9, 0x1
180000b2c: 13 b6 1c 00 	seqz	a2, s9
180000b30: 8b 25 16 00 	vx_split_n	a1, a2
180000b34: 63 0a 06 00 	beqz	a2, 0x180000b48 <_Z17cuda_compute_fluxiPKiPKfS2_PfS2_PK6float3S6_S6_S6_+0x69c>
180000b38: 87 27 44 e7 	flw	fa5, -0x18c(s0)
180000b3c: c3 f9 77 99 	fmadd.s	fs3, fa5, fs7, fs3
180000b40: 43 f9 67 91 	fmadd.s	fs2, fa5, fs6, fs2
180000b44: 43 f4 57 41 	fmadd.s	fs0, fa5, fs5, fs0
180000b48: 0b b0 05 00 	vx_join	a1
180000b4c: 0b 30 05 00 	vx_join	a0
180000b50: 6f f0 df e5 	j	0x1800009ac <_Z17cuda_compute_fluxiPKiPKfS2_PfS2_PK6float3S6_S6_S6_+0x500>
180000b54: 83 30 81 1f 	ld	ra, 0x1f8(sp)
180000b58: 03 34 01 1f 	ld	s0, 0x1f0(sp)
180000b5c: 83 34 81 1e 	ld	s1, 0x1e8(sp)
180000b60: 03 39 01 1e 	ld	s2, 0x1e0(sp)
180000b64: 83 39 81 1d 	ld	s3, 0x1d8(sp)
180000b68: 03 3a 01 1d 	ld	s4, 0x1d0(sp)
180000b6c: 83 3a 81 1c 	ld	s5, 0x1c8(sp)
180000b70: 03 3b 01 1c 	ld	s6, 0x1c0(sp)
180000b74: 83 3b 81 1b 	ld	s7, 0x1b8(sp)
180000b78: 03 3c 01 1b 	ld	s8, 0x1b0(sp)
180000b7c: 83 3c 81 1a 	ld	s9, 0x1a8(sp)
180000b80: 03 3d 01 1a 	ld	s10, 0x1a0(sp)
180000b84: 83 3d 81 19 	ld	s11, 0x198(sp)
180000b88: 07 34 01 19 	fld	fs0, 0x190(sp)
180000b8c: 87 34 81 18 	fld	fs1, 0x188(sp)
180000b90: 07 39 01 18 	fld	fs2, 0x180(sp)
180000b94: 87 39 81 17 	fld	fs3, 0x178(sp)
180000b98: 07 3a 01 17 	fld	fs4, 0x170(sp)
180000b9c: 87 3a 81 16 	fld	fs5, 0x168(sp)
180000ba0: 07 3b 01 16 	fld	fs6, 0x160(sp)
180000ba4: 87 3b 81 15 	fld	fs7, 0x158(sp)
180000ba8: 07 3c 01 15 	fld	fs8, 0x150(sp)
180000bac: 87 3c 81 14 	fld	fs9, 0x148(sp)
180000bb0: 07 3d 01 14 	fld	fs10, 0x140(sp)
180000bb4: 87 3d 81 13 	fld	fs11, 0x138(sp)
180000bb8: 13 01 01 20 	addi	sp, sp, 0x200
180000bbc: 67 80 00 00 	ret

0000000180000bc0 <_Z14cuda_time_stepiiPfS_S_S_>:
180000bc0: 17 48 00 00 	auipc	a6, 0x4
180000bc4: 03 28 c8 19 	lw	a6, 0x19c(a6)
180000bc8: 63 00 08 12 	beqz	a6, 0x180000ce8 <_Z14cuda_time_stepiiPfS_S_S_+0x128>
180000bcc: 13 01 01 fe 	addi	sp, sp, -0x20
180000bd0: 23 3c 11 00 	sd	ra, 0x18(sp)
180000bd4: 23 38 81 00 	sd	s0, 0x10(sp)
180000bd8: 23 34 91 00 	sd	s1, 0x8(sp)
180000bdc: 13 04 01 02 	addi	s0, sp, 0x20
180000be0: 97 48 00 00 	auipc	a7, 0x4
180000be4: 83 a8 08 17 	lw	a7, 0x170(a7)
180000be8: 03 23 02 00 	lw	t1, 0x0(tp)
180000bec: 93 02 00 00 	li	t0, 0x0
180000bf0: 33 03 13 03 	mul	t1, t1, a7
180000bf4: 93 03 40 00 	li	t2, 0x4
180000bf8: 3b 85 a3 40 	subw	a0, t2, a0
180000bfc: d3 77 05 d0 	fcvt.s.w	fa5, a0
180000c00: 13 95 25 00 	slli	a0, a1, 0x2
180000c04: 93 93 15 00 	slli	t2, a1, 0x1
180000c08: 33 8e b3 00 	add	t3, t2, a1
180000c0c: bb ee 12 03 	remw	t4, t0, a7
180000c10: bb 8e 6e 00 	addw	t4, t4, t1
180000c14: 13 9f 2e 00 	slli	t5, t4, 0x2
180000c18: b3 0f e7 01 	add	t6, a4, t5
180000c1c: 07 a7 0f 00 	flw	fa4, 0x0(t6)
180000c20: b3 0f e6 01 	add	t6, a2, t5
180000c24: 87 a6 0f 00 	flw	fa3, 0x0(t6)
180000c28: b3 8f e7 01 	add	t6, a5, t5
180000c2c: 07 a6 0f 00 	flw	fa2, 0x0(t6)
180000c30: 53 77 f7 18 	fdiv.s	fa4, fa4, fa5
180000c34: c3 76 c7 68 	fmadd.s	fa3, fa4, fa2, fa3
180000c38: 33 8f e6 01 	add	t5, a3, t5
180000c3c: 27 20 df 00 	fsw	fa3, 0x0(t5)
180000c40: 3b 8f ae 00 	addw	t5, t4, a0
180000c44: 13 1f 2f 00 	slli	t5, t5, 0x2
180000c48: b3 0f e6 01 	add	t6, a2, t5
180000c4c: 87 a6 0f 00 	flw	fa3, 0x0(t6)
180000c50: b3 8f e7 01 	add	t6, a5, t5
180000c54: 07 a6 0f 00 	flw	fa2, 0x0(t6)
180000c58: bb 8f be 00 	addw	t6, t4, a1
180000c5c: 93 9f 2f 00 	slli	t6, t6, 0x2
180000c60: b3 04 f6 01 	add	s1, a2, t6
180000c64: 87 a5 04 00 	flw	fa1, 0x0(s1)
180000c68: b3 84 f7 01 	add	s1, a5, t6
180000c6c: 07 a5 04 00 	flw	fa0, 0x0(s1)
180000c70: c3 76 c7 68 	fmadd.s	fa3, fa4, fa2, fa3
180000c74: 33 8f e6 01 	add	t5, a3, t5
180000c78: 27 20 df 00 	fsw	fa3, 0x0(t5)
180000c7c: c3 76 a7 58 	fmadd.s	fa3, fa4, fa0, fa1
180000c80: b3 8f f6 01 	add	t6, a3, t6
180000c84: 27 a0 df 00 	fsw	fa3, 0x0(t6)
180000c88: 3b 8f 7e 00 	addw	t5, t4, t2
180000c8c: 13 1f 2f 00 	slli	t5, t5, 0x2
180000c90: b3 0f e6 01 	add	t6, a2, t5
180000c94: 87 a6 0f 00 	flw	fa3, 0x0(t6)
180000c98: b3 8f e7 01 	add	t6, a5, t5
180000c9c: 07 a6 0f 00 	flw	fa2, 0x0(t6)
180000ca0: bb 8e ce 01 	addw	t4, t4, t3
180000ca4: 93 9e 2e 00 	slli	t4, t4, 0x2
180000ca8: b3 0f d6 01 	add	t6, a2, t4
180000cac: 87 a5 0f 00 	flw	fa1, 0x0(t6)
180000cb0: b3 8f d7 01 	add	t6, a5, t4
180000cb4: 07 a5 0f 00 	flw	fa0, 0x0(t6)
180000cb8: c3 76 c7 68 	fmadd.s	fa3, fa4, fa2, fa3
180000cbc: 33 8f e6 01 	add	t5, a3, t5
180000cc0: 27 20 df 00 	fsw	fa3, 0x0(t5)
180000cc4: 43 77 a7 58 	fmadd.s	fa4, fa4, fa0, fa1
180000cc8: b3 8e d6 01 	add	t4, a3, t4
180000ccc: 9b 82 12 00 	addiw	t0, t0, 0x1
180000cd0: 27 a0 ee 00 	fsw	fa4, 0x0(t4)
180000cd4: e3 1c 58 f2 	bne	a6, t0, 0x180000c0c <_Z14cuda_time_stepiiPfS_S_S_+0x4c>
180000cd8: 83 30 81 01 	ld	ra, 0x18(sp)
180000cdc: 03 34 01 01 	ld	s0, 0x10(sp)
180000ce0: 83 34 81 00 	ld	s1, 0x8(sp)
180000ce4: 13 01 01 02 	addi	sp, sp, 0x20
180000ce8: 67 80 00 00 	ret

0000000180000cec <cuda_initialize_variablesiPfPKf_wrapper>:
180000cec: 97 45 00 00 	auipc	a1, 0x4
180000cf0: 83 a5 05 07 	lw	a1, 0x70(a1)
180000cf4: 63 8c 05 08 	beqz	a1, 0x180000d8c <cuda_initialize_variablesiPfPKf_wrapper+0xa0>
180000cf8: 13 06 00 00 	li	a2, 0x0
180000cfc: 97 46 00 00 	auipc	a3, 0x4
180000d00: 83 a6 46 05 	lw	a3, 0x54(a3)
180000d04: 03 27 02 00 	lw	a4, 0x0(tp)
180000d08: 83 37 05 01 	ld	a5, 0x10(a0)
180000d0c: 83 22 05 00 	lw	t0, 0x0(a0)
180000d10: 03 35 85 00 	ld	a0, 0x8(a0)
180000d14: 33 07 d7 02 	mul	a4, a4, a3
180000d18: 87 a7 07 00 	flw	fa5, 0x0(a5)
180000d1c: 07 a7 47 00 	flw	fa4, 0x4(a5)
180000d20: 87 a6 87 00 	flw	fa3, 0x8(a5)
180000d24: 07 a6 c7 00 	flw	fa2, 0xc(a5)
180000d28: 87 a5 07 01 	flw	fa1, 0x10(a5)
180000d2c: 93 97 22 00 	slli	a5, t0, 0x2
180000d30: b3 07 f5 00 	add	a5, a0, a5
180000d34: 13 98 32 00 	slli	a6, t0, 0x3
180000d38: 33 08 05 01 	add	a6, a0, a6
180000d3c: 93 08 c0 00 	li	a7, 0xc
180000d40: b3 88 12 03 	mul	a7, t0, a7
180000d44: b3 08 15 01 	add	a7, a0, a7
180000d48: 93 92 42 00 	slli	t0, t0, 0x4
180000d4c: b3 02 55 00 	add	t0, a0, t0
180000d50: 3b 63 d6 02 	remw	t1, a2, a3
180000d54: 3b 03 e3 00 	addw	t1, t1, a4
180000d58: 13 13 23 00 	slli	t1, t1, 0x2
180000d5c: b3 03 65 00 	add	t2, a0, t1
180000d60: 27 a0 f3 00 	fsw	fa5, 0x0(t2)
180000d64: b3 83 67 00 	add	t2, a5, t1
180000d68: 27 a0 e3 00 	fsw	fa4, 0x0(t2)
180000d6c: b3 03 68 00 	add	t2, a6, t1
180000d70: 27 a0 d3 00 	fsw	fa3, 0x0(t2)
180000d74: b3 83 68 00 	add	t2, a7, t1
180000d78: 27 a0 c3 00 	fsw	fa2, 0x0(t2)
180000d7c: 33 83 62 00 	add	t1, t0, t1
180000d80: 1b 06 16 00 	addiw	a2, a2, 0x1
180000d84: 27 20 b3 00 	fsw	fa1, 0x0(t1)
180000d88: e3 94 c5 fc 	bne	a1, a2, 0x180000d50 <cuda_initialize_variablesiPfPKf_wrapper+0x64>
180000d8c: 67 80 00 00 	ret

0000000180000d90 <cuda_compute_step_factoriPfS_S__wrapper>:
180000d90: 83 35 85 00 	ld	a1, 0x8(a0)
180000d94: 03 36 05 01 	ld	a2, 0x10(a0)
180000d98: 83 36 85 01 	ld	a3, 0x18(a0)
180000d9c: 03 25 05 00 	lw	a0, 0x0(a0)
180000da0: 6f f0 4f d4 	j	0x1800002e4 <_Z24cuda_compute_step_factoriPfS_S_>

0000000180000da4 <cuda_compute_fluxiPKiPKfS2_PfS2_PK6float3S6_S6_S6__wrapper>:
180000da4: 13 01 01 fe 	addi	sp, sp, -0x20
180000da8: 23 3c 11 00 	sd	ra, 0x18(sp)
180000dac: 83 35 85 00 	ld	a1, 0x8(a0)
180000db0: 03 36 05 01 	ld	a2, 0x10(a0)
180000db4: 83 36 85 01 	ld	a3, 0x18(a0)
180000db8: 03 37 05 02 	ld	a4, 0x20(a0)
180000dbc: 83 37 85 02 	ld	a5, 0x28(a0)
180000dc0: 03 38 05 03 	ld	a6, 0x30(a0)
180000dc4: 83 38 85 03 	ld	a7, 0x38(a0)
180000dc8: 83 32 05 04 	ld	t0, 0x40(a0)
180000dcc: 03 33 85 04 	ld	t1, 0x48(a0)
180000dd0: 03 25 05 00 	lw	a0, 0x0(a0)
180000dd4: 23 34 61 00 	sd	t1, 0x8(sp)
180000dd8: 23 30 51 00 	sd	t0, 0x0(sp)
180000ddc: ef f0 0f ed 	jal	0x1800004ac <_Z17cuda_compute_fluxiPKiPKfS2_PfS2_PK6float3S6_S6_S6_>
180000de0: 83 30 81 01 	ld	ra, 0x18(sp)
180000de4: 13 01 01 02 	addi	sp, sp, 0x20
180000de8: 67 80 00 00 	ret

0000000180000dec <cuda_time_stepiiPfS_S_S__wrapper>:
180000dec: 03 36 05 01 	ld	a2, 0x10(a0)
180000df0: 83 36 85 01 	ld	a3, 0x18(a0)
180000df4: 03 37 05 02 	ld	a4, 0x20(a0)
180000df8: 83 37 85 02 	ld	a5, 0x28(a0)
180000dfc: 83 25 85 00 	lw	a1, 0x8(a0)
180000e00: 03 25 05 00 	lw	a0, 0x0(a0)
180000e04: 6f f0 df db 	j	0x180000bc0 <_Z14cuda_time_stepiiPfS_S_S_>

0000000180000e08 <__nv_sqrtf>:
180000e08: 13 01 01 ff 	addi	sp, sp, -0x10
180000e0c: 23 34 11 00 	sd	ra, 0x8(sp)
180000e10: 23 30 81 00 	sd	s0, 0x0(sp)
180000e14: d3 07 a5 20 	fmv.s	fa5, fa0
180000e18: 53 75 05 58 	fsqrt.s	fa0, fa0
180000e1c: 53 25 a5 a0 	feq.s	a0, fa0, fa0
180000e20: 0b 24 05 00 	vx_split	s0, a0
180000e24: 63 16 05 00 	bnez	a0, 0x180000e30 <__nv_sqrtf+0x28>
180000e28: 53 85 f7 20 	fmv.s	fa0, fa5
180000e2c: ef 20 80 3d 	jal	0x180003204 <sqrtf>
180000e30: 0b 30 04 00 	vx_join	s0
180000e34: 83 30 81 00 	ld	ra, 0x8(sp)
180000e38: 03 34 01 00 	ld	s0, 0x0(sp)
180000e3c: 13 01 01 01 	addi	sp, sp, 0x10
180000e40: 67 80 00 00 	ret

0000000180000e44 <_Exit>:
180000e44: ef 00 90 2a 	jal	0x1800018ec <vx_perf_dump>
180000e48: 93 02 80 08 	li	t0, 0x88
180000e4c: 23 a0 a2 00 	sw	a0, 0x0(t0)
180000e50: 0f 00 f0 0f 	fence
180000e54: 0b 00 00 00 	vx_tmc	zero

0000000180000e58 <init_regs>:
180000e58: 97 41 00 00 	auipc	gp, 0x4
180000e5c: 93 81 81 5e 	addi	gp, gp, 0x5e8
180000e60: 93 02 10 00 	li	t0, 0x1
180000e64: 93 92 02 02 	slli	t0, t0, 0x20
180000e68: 37 01 01 00 	lui	sp, 0x10
180000e6c: 1b 01 f1 ff 	addiw	sp, sp, -0x1
180000e70: 13 11 01 01 	slli	sp, sp, 0x10
180000e74: 33 61 51 00 	or	sp, sp, t0
180000e78: f3 22 40 f1 	csrr	t0, mhartid
180000e7c: 13 93 d2 00 	slli	t1, t0, 0xd
180000e80: 33 01 61 40 	sub	sp, sp, t1
180000e84: 13 03 00 04 	li	t1, 0x40
180000e88: b3 82 62 02 	mul	t0, t0, t1
180000e8c: 17 42 00 00 	auipc	tp, 0x4
180000e90: 13 02 c2 ef 	addi	tp, tp, -0x104
180000e94: 33 02 52 00 	add	tp, tp, t0
180000e98: 67 80 00 00 	ret

0000000180000e9c <init_regs_all>:
180000e9c: 93 02 f0 ff 	li	t0, -0x1
180000ea0: 0b 80 02 00 	vx_tmc	t0
180000ea4: ef f0 5f fb 	jal	0x180000e58 <init_regs>
180000ea8: 0b 00 00 00 	vx_tmc	zero
180000eac: 67 80 00 00 	ret

0000000180000eb0 <init_tls_all>:
180000eb0: 93 02 f0 ff 	li	t0, -0x1
180000eb4: 0b 80 02 00 	vx_tmc	t0
180000eb8: ef 00 c0 00 	jal	0x180000ec4 <__init_tls>
180000ebc: 0b 00 00 00 	vx_tmc	zero
180000ec0: 67 80 00 00 	ret

0000000180000ec4 <__init_tls>:
180000ec4: 13 01 01 ff 	addi	sp, sp, -0x10
180000ec8: 13 06 00 00 	li	a2, 0x0
180000ecc: 97 45 00 00 	auipc	a1, 0x4
180000ed0: 93 85 05 d7 	addi	a1, a1, -0x290
180000ed4: 13 05 02 00 	mv	a0, tp
180000ed8: 23 30 81 00 	sd	s0, 0x0(sp)
180000edc: 23 34 11 00 	sd	ra, 0x8(sp)
180000ee0: 13 04 02 00 	mv	s0, tp
180000ee4: ef 20 80 32 	jal	0x18000320c <memcpy>
180000ee8: 13 05 40 00 	li	a0, 0x4
180000eec: 33 05 a4 00 	add	a0, s0, a0
180000ef0: 03 34 01 00 	ld	s0, 0x0(sp)
180000ef4: 83 30 81 00 	ld	ra, 0x8(sp)
180000ef8: 13 06 00 04 	li	a2, 0x40
180000efc: 93 05 00 00 	li	a1, 0x0
180000f00: 13 01 01 01 	addi	sp, sp, 0x10
180000f04: 6f 20 50 05 	j	0x180003758 <memset>

0000000180000f08 <__libc_init_array>:
180000f08: 13 01 01 fe 	addi	sp, sp, -0x20
180000f0c: 23 38 81 00 	sd	s0, 0x10(sp)
180000f10: 23 30 21 01 	sd	s2, 0x0(sp)
180000f14: 97 47 00 00 	auipc	a5, 0x4
180000f18: 93 87 c7 d2 	addi	a5, a5, -0x2d4
180000f1c: 17 44 00 00 	auipc	s0, 0x4
180000f20: 13 04 44 d2 	addi	s0, s0, -0x2dc
180000f24: 23 3c 11 00 	sd	ra, 0x18(sp)
180000f28: 23 34 91 00 	sd	s1, 0x8(sp)
180000f2c: 33 89 87 40 	sub	s2, a5, s0
180000f30: 63 80 87 02 	beq	a5, s0, 0x180000f50 <__libc_init_array+0x48>
180000f34: 13 59 39 40 	srai	s2, s2, 0x3
180000f38: 93 04 00 00 	li	s1, 0x0
180000f3c: 83 37 04 00 	ld	a5, 0x0(s0)
180000f40: 93 84 14 00 	addi	s1, s1, 0x1
180000f44: 13 04 84 00 	addi	s0, s0, 0x8
180000f48: e7 80 07 00 	jalr	a5
180000f4c: e3 e8 24 ff 	bltu	s1, s2, 0x180000f3c <__libc_init_array+0x34>
180000f50: 97 47 00 00 	auipc	a5, 0x4
180000f54: 93 87 07 cf 	addi	a5, a5, -0x310
180000f58: 17 44 00 00 	auipc	s0, 0x4
180000f5c: 13 04 84 ce 	addi	s0, s0, -0x318
180000f60: 33 89 87 40 	sub	s2, a5, s0
180000f64: 13 59 39 40 	srai	s2, s2, 0x3
180000f68: 63 8e 87 00 	beq	a5, s0, 0x180000f84 <__libc_init_array+0x7c>
180000f6c: 93 04 00 00 	li	s1, 0x0
180000f70: 83 37 04 00 	ld	a5, 0x0(s0)
180000f74: 93 84 14 00 	addi	s1, s1, 0x1
180000f78: 13 04 84 00 	addi	s0, s0, 0x8
180000f7c: e7 80 07 00 	jalr	a5
180000f80: e3 e8 24 ff 	bltu	s1, s2, 0x180000f70 <__libc_init_array+0x68>
180000f84: 83 30 81 01 	ld	ra, 0x18(sp)
180000f88: 03 34 01 01 	ld	s0, 0x10(sp)
180000f8c: 83 34 81 00 	ld	s1, 0x8(sp)
180000f90: 03 39 01 00 	ld	s2, 0x0(sp)
180000f94: 13 01 01 02 	addi	sp, sp, 0x20
180000f98: 67 80 00 00 	ret

0000000180000f9c <__funcs_on_exit>:
180000f9c: 13 01 01 fe 	addi	sp, sp, -0x20
180000fa0: 23 38 81 00 	sd	s0, 0x10(sp)
180000fa4: 97 47 00 00 	auipc	a5, 0x4
180000fa8: 93 87 c7 c9 	addi	a5, a5, -0x364
180000fac: 17 44 00 00 	auipc	s0, 0x4
180000fb0: 13 04 44 c9 	addi	s0, s0, -0x36c
180000fb4: 33 04 f4 40 	sub	s0, s0, a5
180000fb8: 23 34 91 00 	sd	s1, 0x8(sp)
180000fbc: 23 3c 11 00 	sd	ra, 0x18(sp)
180000fc0: 93 54 34 40 	srai	s1, s0, 0x3
180000fc4: 63 80 04 02 	beqz	s1, 0x180000fe4 <__funcs_on_exit+0x48>
180000fc8: 13 04 84 ff 	addi	s0, s0, -0x8
180000fcc: 33 04 f4 00 	add	s0, s0, a5
180000fd0: 83 37 04 00 	ld	a5, 0x0(s0)
180000fd4: 93 84 f4 ff 	addi	s1, s1, -0x1
180000fd8: 13 04 84 ff 	addi	s0, s0, -0x8
180000fdc: e7 80 07 00 	jalr	a5
180000fe0: e3 98 04 fe 	bnez	s1, 0x180000fd0 <__funcs_on_exit+0x34>
180000fe4: 83 30 81 01 	ld	ra, 0x18(sp)
180000fe8: 03 34 01 01 	ld	s0, 0x10(sp)
180000fec: 83 34 81 00 	ld	s1, 0x8(sp)
180000ff0: 13 01 01 02 	addi	sp, sp, 0x20
180000ff4: 67 80 00 00 	ret

0000000180000ff8 <vx_putchar>:
180000ff8: f3 22 40 f1 	csrr	t0, mhartid
180000ffc: 93 f2 f2 03 	andi	t0, t0, 0x3f
180001000: 13 03 00 04 	li	t1, 0x40
180001004: b3 82 62 00 	add	t0, t0, t1
180001008: 23 80 a2 00 	sb	a0, 0x0(t0)
18000100c: 67 80 00 00 	ret

0000000180001010 <__vprintf_cb>:
180001010: 83 37 85 00 	ld	a5, 0x8(a0)
180001014: 13 01 01 ff 	addi	sp, sp, -0x10
180001018: 23 30 81 00 	sd	s0, 0x0(sp)
18000101c: 83 b5 07 00 	ld	a1, 0x0(a5)
180001020: 13 04 05 00 	mv	s0, a0
180001024: 03 35 05 00 	ld	a0, 0x0(a0)
180001028: 23 34 11 00 	sd	ra, 0x8(sp)
18000102c: ef 20 00 14 	jal	0x18000316c <tiny_vprintf>
180001030: 83 30 81 00 	ld	ra, 0x8(sp)
180001034: 23 28 a4 00 	sw	a0, 0x10(s0)
180001038: 03 34 01 00 	ld	s0, 0x0(sp)
18000103c: 13 01 01 01 	addi	sp, sp, 0x10
180001040: 67 80 00 00 	ret

0000000180001044 <vx_printf>:
180001044: 13 01 01 f8 	addi	sp, sp, -0x80
180001048: 23 34 f1 06 	sd	a5, 0x68(sp)
18000104c: 93 07 81 04 	addi	a5, sp, 0x48
180001050: 13 03 05 00 	mv	t1, a0
180001054: 23 34 b1 04 	sd	a1, 0x48(sp)
180001058: 23 34 f1 00 	sd	a5, 0x8(sp)
18000105c: 23 38 f1 00 	sd	a5, 0x10(sp)
180001060: 17 05 00 00 	auipc	a0, 0x0
180001064: 13 05 05 fb 	addi	a0, a0, -0x50
180001068: 93 07 01 01 	addi	a5, sp, 0x10
18000106c: 93 05 81 01 	addi	a1, sp, 0x18
180001070: 23 3c 11 02 	sd	ra, 0x38(sp)
180001074: 23 38 c1 04 	sd	a2, 0x50(sp)
180001078: 23 3c d1 04 	sd	a3, 0x58(sp)
18000107c: 23 30 e1 06 	sd	a4, 0x60(sp)
180001080: 23 38 01 07 	sd	a6, 0x70(sp)
180001084: 23 3c 11 07 	sd	a7, 0x78(sp)
180001088: 23 3c 61 00 	sd	t1, 0x18(sp)
18000108c: 23 30 f1 02 	sd	a5, 0x20(sp)
180001090: ef 00 00 7e 	jal	0x180001870 <vx_serial>
180001094: 83 30 81 03 	ld	ra, 0x38(sp)
180001098: 03 25 81 02 	lw	a0, 0x28(sp)
18000109c: 13 01 01 08 	addi	sp, sp, 0x80
1800010a0: 67 80 00 00 	ret

00000001800010a4 <process_threads>:
1800010a4: 13 01 01 fa 	addi	sp, sp, -0x60
1800010a8: 23 3c 11 04 	sd	ra, 0x58(sp)
1800010ac: 23 38 81 04 	sd	s0, 0x50(sp)
1800010b0: 23 34 91 04 	sd	s1, 0x48(sp)
1800010b4: 23 30 21 05 	sd	s2, 0x40(sp)
1800010b8: 23 3c 31 03 	sd	s3, 0x38(sp)
1800010bc: 23 38 41 03 	sd	s4, 0x30(sp)
1800010c0: 23 34 51 03 	sd	s5, 0x28(sp)
1800010c4: 23 30 61 03 	sd	s6, 0x20(sp)
1800010c8: 23 3c 71 01 	sd	s7, 0x18(sp)
1800010cc: 23 38 81 01 	sd	s8, 0x10(sp)
1800010d0: 23 34 91 01 	sd	s9, 0x8(sp)
1800010d4: 23 30 a1 01 	sd	s10, 0x0(sp)
1800010d8: f3 26 00 34 	csrr	a3, mscratch
1800010dc: f3 25 00 fc 	csrr	a1, nt
1800010e0: 9b 8a 05 00 	sext.w	s5, a1
1800010e4: f3 27 10 cc 	csrr	a5, wid
1800010e8: 1b 87 07 00 	sext.w	a4, a5
1800010ec: 73 26 00 cc 	csrr	a2, tid
1800010f0: 03 a8 86 01 	lw	a6, 0x18(a3)
1800010f4: 03 a5 c6 01 	lw	a0, 0x1c(a3)
1800010f8: 93 88 07 00 	mv	a7, a5
1800010fc: bb 87 07 03 	mulw	a5, a5, a6
180001100: 63 74 e5 00 	bgeu	a0, a4, 0x180001108 <process_threads+0x64>
180001104: 93 08 05 00 	mv	a7, a0
180001108: b3 34 a7 00 	sltu	s1, a4, a0
18000110c: bb 87 17 01 	addw	a5, a5, a7
180001110: bb 84 04 01 	addw	s1, s1, a6
180001114: 03 a7 06 01 	lw	a4, 0x10(a3)
180001118: 17 45 00 00 	auipc	a0, 0x4
18000111c: 13 05 05 c6 	addi	a0, a0, -0x3a0
180001120: 03 2d 05 00 	lw	s10, 0x0(a0)
180001124: 3b 07 e6 00 	addw	a4, a2, a4
180001128: bb 87 b7 02 	mulw	a5, a5, a1
18000112c: 03 2a 45 00 	lw	s4, 0x4(a0)
180001130: 03 bb 06 00 	ld	s6, 0x0(a3)
180001134: 83 bb 86 00 	ld	s7, 0x8(a3)
180001138: bb 84 b4 02 	mulw	s1, s1, a1
18000113c: 3b 84 e7 00 	addw	s0, a5, a4
180001140: bb 84 84 00 	addw	s1, s1, s0
180001144: 63 74 94 04 	bgeu	s0, s1, 0x18000118c <process_threads+0xe8>
180001148: bb 0c 4d 03 	mulw	s9, s10, s4
18000114c: 93 09 f0 ff 	li	s3, -0x1
180001150: 93 d9 09 02 	srli	s3, s3, 0x20
180001154: 13 0c 02 03 	addi	s8, tp, 0x30
180001158: 13 85 0b 00 	mv	a0, s7
18000115c: 3b 57 a4 03 	divuw	a4, s0, s10
180001160: bb 77 a4 03 	remuw	a5, s0, s10
180001164: 3b 77 47 03 	remuw	a4, a4, s4
180001168: b3 f7 f9 00 	and	a5, s3, a5
18000116c: bb 56 94 03 	divuw	a3, s0, s9
180001170: 13 17 07 02 	slli	a4, a4, 0x20
180001174: b3 e7 e7 00 	or	a5, a5, a4
180001178: 3b 84 8a 00 	addw	s0, s5, s0
18000117c: 23 38 f2 02 	sd	a5, 0x30(tp)
180001180: 23 24 dc 00 	sw	a3, 0x8(s8)
180001184: e7 00 0b 00 	jalr	s6
180001188: e3 68 94 fc 	bltu	s0, s1, 0x180001158 <process_threads+0xb4>
18000118c: 83 30 81 05 	ld	ra, 0x58(sp)
180001190: 03 34 01 05 	ld	s0, 0x50(sp)
180001194: 83 34 81 04 	ld	s1, 0x48(sp)
180001198: 03 39 01 04 	ld	s2, 0x40(sp)
18000119c: 83 39 81 03 	ld	s3, 0x38(sp)
1800011a0: 03 3a 01 03 	ld	s4, 0x30(sp)
1800011a4: 83 3a 81 02 	ld	s5, 0x28(sp)
1800011a8: 03 3b 01 02 	ld	s6, 0x20(sp)
1800011ac: 83 3b 81 01 	ld	s7, 0x18(sp)
1800011b0: 03 3c 01 01 	ld	s8, 0x10(sp)
1800011b4: 83 3c 81 00 	ld	s9, 0x8(sp)
1800011b8: 03 3d 01 00 	ld	s10, 0x0(sp)
1800011bc: 13 01 01 06 	addi	sp, sp, 0x60
1800011c0: 67 80 00 00 	ret

00000001800011c4 <process_remaining_threads>:
1800011c4: f3 25 00 34 	csrr	a1, mscratch
1800011c8: 73 27 00 cc 	csrr	a4, tid
1800011cc: 97 46 00 00 	auipc	a3, 0x4
1800011d0: 93 86 c6 ba 	addi	a3, a3, -0x454
1800011d4: 03 a6 45 01 	lw	a2, 0x14(a1)
1800011d8: 83 a7 06 00 	lw	a5, 0x0(a3)
1800011dc: 03 a8 46 00 	lw	a6, 0x4(a3)
1800011e0: 3b 07 c7 00 	addw	a4, a4, a2
1800011e4: bb 56 f7 02 	divuw	a3, a4, a5
1800011e8: 83 b8 05 00 	ld	a7, 0x0(a1)
1800011ec: 03 b5 85 00 	ld	a0, 0x8(a1)
1800011f0: 93 05 02 03 	addi	a1, tp, 0x30
1800011f4: 3b 83 07 03 	mulw	t1, a5, a6
1800011f8: bb 77 f7 02 	remuw	a5, a4, a5
1800011fc: bb f6 06 03 	remuw	a3, a3, a6
180001200: 93 97 07 02 	slli	a5, a5, 0x20
180001204: 93 d7 07 02 	srli	a5, a5, 0x20
180001208: 3b 57 67 02 	divuw	a4, a4, t1
18000120c: 93 96 06 02 	slli	a3, a3, 0x20
180001210: b3 e7 d7 00 	or	a5, a5, a3
180001214: 23 38 f2 02 	sd	a5, 0x30(tp)
180001218: 23 a4 e5 00 	sw	a4, 0x8(a1)
18000121c: 67 80 08 00 	jr	a7

0000000180001220 <process_threads_stub>:
180001220: 13 01 01 ff 	addi	sp, sp, -0x10
180001224: 23 34 11 00 	sd	ra, 0x8(sp)
180001228: 93 07 f0 ff 	li	a5, -0x1
18000122c: 0b 80 07 00 	vx_tmc	a5
180001230: ef f0 5f e7 	jal	0x1800010a4 <process_threads>
180001234: 0b 00 00 00 	vx_tmc	zero
180001238: 83 30 81 00 	ld	ra, 0x8(sp)
18000123c: 13 01 01 01 	addi	sp, sp, 0x10
180001240: 67 80 00 00 	ret

0000000180001244 <process_thread_groups>:
180001244: 13 01 01 fa 	addi	sp, sp, -0x60
180001248: 23 3c 11 04 	sd	ra, 0x58(sp)
18000124c: 23 38 81 04 	sd	s0, 0x50(sp)
180001250: 23 34 91 04 	sd	s1, 0x48(sp)
180001254: 23 30 21 05 	sd	s2, 0x40(sp)
180001258: 23 3c 31 03 	sd	s3, 0x38(sp)
18000125c: 23 38 41 03 	sd	s4, 0x30(sp)
180001260: 23 34 51 03 	sd	s5, 0x28(sp)
180001264: 23 30 61 03 	sd	s6, 0x20(sp)
180001268: 23 3c 71 01 	sd	s7, 0x18(sp)
18000126c: 23 38 81 01 	sd	s8, 0x10(sp)
180001270: 23 34 91 01 	sd	s9, 0x8(sp)
180001274: 23 30 a1 01 	sd	s10, 0x0(sp)
180001278: f3 26 00 34 	csrr	a3, mscratch
18000127c: 73 2f 00 fc 	csrr	t5, nt
180001280: 73 26 10 cc 	csrr	a2, wid
180001284: 1b 05 06 00 	sext.w	a0, a2
180001288: f3 2e 00 cc 	csrr	t4, tid
18000128c: 03 a3 c6 01 	lw	t1, 0x1c(a3)
180001290: 97 45 00 00 	auipc	a1, 0x4
180001294: 93 85 85 ad 	addi	a1, a1, -0x528
180001298: 83 a4 86 01 	lw	s1, 0x18(a3)
18000129c: bb 77 66 02 	remuw	a5, a2, t1
1800012a0: 03 a7 05 00 	lw	a4, 0x0(a1)
1800012a4: 03 ae 45 00 	lw	t3, 0x4(a1)
1800012a8: 83 a5 46 01 	lw	a1, 0x14(a3)
1800012ac: b3 34 95 00 	sltu	s1, a0, s1
1800012b0: 83 bb 06 00 	ld	s7, 0x0(a3)
1800012b4: 03 aa 06 02 	lw	s4, 0x20(a3)
1800012b8: 03 bc 86 00 	ld	s8, 0x8(a3)
1800012bc: bb 84 b4 00 	addw	s1, s1, a1
1800012c0: 83 a5 06 01 	lw	a1, 0x10(a3)
1800012c4: 13 09 f0 ff 	li	s2, -0x1
1800012c8: 17 48 00 00 	auipc	a6, 0x4
1800012cc: 13 08 08 ab 	addi	a6, a6, -0x550
1800012d0: 13 59 09 02 	srli	s2, s2, 0x20
1800012d4: 03 2d 08 00 	lw	s10, 0x0(a6)
1800012d8: 83 2a 48 00 	lw	s5, 0x4(a6)
1800012dc: 13 08 02 02 	addi	a6, tp, 0x20
1800012e0: bb 87 e7 03 	mulw	a5, a5, t5
1800012e4: bb 87 d7 01 	addw	a5, a5, t4
1800012e8: bb d6 e7 02 	divuw	a3, a5, a4
1800012ec: bb 0e c7 03 	mulw	t4, a4, t3
1800012f0: bb f6 c6 03 	remuw	a3, a3, t3
1800012f4: 3b f7 e7 02 	remuw	a4, a5, a4
1800012f8: 93 96 06 02 	slli	a3, a3, 0x20
1800012fc: 3b 56 66 02 	divuw	a2, a2, t1
180001300: 33 77 e9 00 	and	a4, s2, a4
180001304: 33 67 d7 00 	or	a4, a4, a3
180001308: 23 30 e2 02 	sd	a4, 0x20(tp)
18000130c: bb d7 d7 03 	divuw	a5, a5, t4
180001310: 3b 04 b6 00 	addw	s0, a2, a1
180001314: 23 2c c2 00 	sw	a2, 0x18(tp)
180001318: bb 04 9a 02 	mulw	s1, s4, s1
18000131c: 23 24 f8 00 	sw	a5, 0x8(a6)
180001320: bb 84 84 00 	addw	s1, s1, s0
180001324: 3b 0b 5d 03 	mulw	s6, s10, s5
180001328: 63 7e 94 02 	bgeu	s0, s1, 0x180001364 <process_thread_groups+0x120>
18000132c: 93 0c 02 03 	addi	s9, tp, 0x30
180001330: 13 05 0c 00 	mv	a0, s8
180001334: 3b 57 a4 03 	divuw	a4, s0, s10
180001338: bb 77 a4 03 	remuw	a5, s0, s10
18000133c: 3b 77 57 03 	remuw	a4, a4, s5
180001340: b3 77 f9 00 	and	a5, s2, a5
180001344: bb 56 64 03 	divuw	a3, s0, s6
180001348: 13 17 07 02 	slli	a4, a4, 0x20
18000134c: b3 e7 e7 00 	or	a5, a5, a4
180001350: 3b 04 8a 00 	addw	s0, s4, s0
180001354: 23 38 f2 02 	sd	a5, 0x30(tp)
180001358: 23 a4 dc 00 	sw	a3, 0x8(s9)
18000135c: e7 80 0b 00 	jalr	s7
180001360: e3 68 94 fc 	bltu	s0, s1, 0x180001330 <process_thread_groups+0xec>
180001364: 83 30 81 05 	ld	ra, 0x58(sp)
180001368: 03 34 01 05 	ld	s0, 0x50(sp)
18000136c: 83 34 81 04 	ld	s1, 0x48(sp)
180001370: 03 39 01 04 	ld	s2, 0x40(sp)
180001374: 83 39 81 03 	ld	s3, 0x38(sp)
180001378: 03 3a 01 03 	ld	s4, 0x30(sp)
18000137c: 83 3a 81 02 	ld	s5, 0x28(sp)
180001380: 03 3b 01 02 	ld	s6, 0x20(sp)
180001384: 83 3b 81 01 	ld	s7, 0x18(sp)
180001388: 03 3c 01 01 	ld	s8, 0x10(sp)
18000138c: 83 3c 81 00 	ld	s9, 0x8(sp)
180001390: 03 3d 01 00 	ld	s10, 0x0(sp)
180001394: 13 01 01 06 	addi	sp, sp, 0x60
180001398: 67 80 00 00 	ret

000000018000139c <process_thread_groups_stub>:
18000139c: 13 01 01 ff 	addi	sp, sp, -0x10
1800013a0: 23 34 11 00 	sd	ra, 0x8(sp)
1800013a4: 73 27 00 34 	csrr	a4, mscratch
1800013a8: 83 27 c7 01 	lw	a5, 0x1c(a4)
1800013ac: 03 26 47 02 	lw	a2, 0x24(a4)
1800013b0: 73 27 10 cc 	csrr	a4, wid
1800013b4: 3b 77 f7 02 	remuw	a4, a4, a5
1800013b8: 9b 87 f7 ff 	addiw	a5, a5, -0x1
1800013bc: 9b 06 06 00 	sext.w	a3, a2
1800013c0: 63 84 e7 00 	beq	a5, a4, 0x1800013c8 <process_thread_groups_stub+0x2c>
1800013c4: 93 06 f0 ff 	li	a3, -0x1
1800013c8: 0b 80 06 00 	vx_tmc	a3
1800013cc: ef f0 9f e7 	jal	0x180001244 <process_thread_groups>
1800013d0: f3 27 10 cc 	csrr	a5, wid
1800013d4: 9b 87 07 00 	sext.w	a5, a5
1800013d8: 93 b7 17 00 	seqz	a5, a5
1800013dc: 0b 80 07 00 	vx_tmc	a5
1800013e0: 83 30 81 00 	ld	ra, 0x8(sp)
1800013e4: 13 01 01 01 	addi	sp, sp, 0x10
1800013e8: 67 80 00 00 	ret

00000001800013ec <vx_spawn_threads>:
1800013ec: 13 01 01 fc 	addi	sp, sp, -0x40
1800013f0: 23 3c 11 02 	sd	ra, 0x38(sp)
1800013f4: 23 38 81 02 	sd	s0, 0x30(sp)
1800013f8: 63 80 05 2a 	beqz	a1, 0x180001698 <vx_spawn_threads+0x2ac>
1800013fc: 63 0c 06 16 	beqz	a2, 0x180001574 <vx_spawn_threads+0x188>
180001400: 63 14 05 2e 	bnez	a0, 0x1800016e8 <vx_spawn_threads+0x2fc>
180001404: 93 07 10 00 	li	a5, 0x1
180001408: 17 43 00 00 	auipc	t1, 0x4
18000140c: 13 03 03 97 	addi	t1, t1, -0x690
180001410: 97 48 00 00 	auipc	a7, 0x4
180001414: 93 88 88 95 	addi	a7, a7, -0x6a8
180001418: 23 20 f3 00 	sw	a5, 0x0(t1)
18000141c: 23 a0 f8 00 	sw	a5, 0x0(a7)
180001420: 13 08 10 00 	li	a6, 0x1
180001424: 13 06 10 00 	li	a2, 0x1
180001428: 23 22 c3 00 	sw	a2, 0x4(t1)
18000142c: 23 a2 c8 00 	sw	a2, 0x4(a7)
180001430: 93 05 10 00 	li	a1, 0x1
180001434: 13 05 10 00 	li	a0, 0x1
180001438: 23 24 b3 00 	sw	a1, 0x8(t1)
18000143c: 23 a4 a8 00 	sw	a0, 0x8(a7)
180001440: f3 2f 20 fc 	csrr	t6, nw
180001444: f3 25 10 fc 	csrr	a1, nw
180001448: 9b 8e 05 00 	sext.w	t4, a1
18000144c: 73 25 00 fc 	csrr	a0, nt
180001450: 73 2e 20 cc 	csrr	t3, cid
180001454: 3b 86 a5 02 	mulw	a2, a1, a0
180001458: 9b 08 0e 00 	sext.w	a7, t3
18000145c: 13 03 06 00 	mv	t1, a2
180001460: 63 68 f6 3e 	bltu	a2, a5, 0x180001850 <vx_spawn_threads+0x464>
180001464: 13 06 10 00 	li	a2, 0x1
180001468: 63 7c f6 14 	bgeu	a2, a5, 0x1800015c0 <vx_spawn_threads+0x1d4>
18000146c: 3b f6 a7 02 	remuw	a2, a5, a0
180001470: 13 03 f0 ff 	li	t1, -0x1
180001474: 3b d5 a7 02 	divuw	a0, a5, a0
180001478: 63 0a 06 00 	beqz	a2, 0x18000148c <vx_spawn_threads+0xa0>
18000147c: 13 03 10 00 	li	t1, 0x1
180001480: 3b 13 c3 00 	sllw	t1, t1, a2
180001484: 1b 03 f3 ff 	addiw	t1, t1, -0x1
180001488: 1b 05 15 00 	addiw	a0, a0, 0x1
18000148c: 1b 8f f5 ff 	addiw	t5, a1, -0x1
180001490: 1b 86 0f 00 	sext.w	a2, t6
180001494: bb 07 05 03 	mulw	a5, a0, a6
180001498: bb 87 e7 01 	addw	a5, a5, t5
18000149c: 3b df b7 02 	divuw	t5, a5, a1
1800014a0: 93 07 0f 00 	mv	a5, t5
1800014a4: 63 74 e6 01 	bgeu	a2, t5, 0x1800014ac <vx_spawn_threads+0xc0>
1800014a8: 93 87 0f 00 	mv	a5, t6
1800014ac: 1b 86 07 00 	sext.w	a2, a5
1800014b0: 63 f8 c8 0a 	bgeu	a7, a2, 0x180001560 <vx_spawn_threads+0x174>
1800014b4: bb 72 f8 02 	remuw	t0, a6, a5
1800014b8: 3b 56 f8 02 	divuw	a2, a6, a5
1800014bc: 13 8f 02 00 	mv	t5, t0
1800014c0: 63 f4 58 00 	bgeu	a7, t0, 0x1800014c8 <vx_spawn_threads+0xdc>
1800014c4: 1b 06 16 00 	addiw	a2, a2, 0x1
1800014c8: 13 13 03 02 	slli	t1, t1, 0x20
1800014cc: bb d5 a5 02 	divuw	a1, a1, a0
1800014d0: bb 0f c5 02 	mulw	t6, a0, a2
1800014d4: 13 98 05 02 	slli	a6, a1, 0x20
1800014d8: 13 58 08 02 	srli	a6, a6, 0x20
1800014dc: 33 68 68 00 	or	a6, a6, t1
1800014e0: 93 87 0f 00 	mv	a5, t6
1800014e4: 63 e0 fe 27 	bltu	t4, t6, 0x180001744 <vx_spawn_threads+0x358>
1800014e8: 93 05 00 00 	li	a1, 0x0
1800014ec: 13 03 10 00 	li	t1, 0x1
1800014f0: 23 34 d1 00 	sd	a3, 0x8(sp)
1800014f4: 23 38 e1 00 	sd	a4, 0x10(sp)
1800014f8: bb 07 c6 03 	mulw	a5, a2, t3
1800014fc: 63 f4 58 00 	bgeu	a7, t0, 0x180001504 <vx_spawn_threads+0x118>
180001500: 13 0f 0e 00 	mv	t5, t3
180001504: 13 07 f0 ff 	li	a4, -0x1
180001508: 13 57 07 02 	srli	a4, a4, 0x20
18000150c: bb 87 e7 01 	addw	a5, a5, t5
180001510: 93 16 03 02 	slli	a3, t1, 0x20
180001514: b3 77 f7 00 	and	a5, a4, a5
180001518: 13 16 05 02 	slli	a2, a0, 0x20
18000151c: 33 f7 e5 00 	and	a4, a1, a4
180001520: b3 e7 d7 00 	or	a5, a5, a3
180001524: 33 67 c7 00 	or	a4, a4, a2
180001528: 23 3c f1 00 	sd	a5, 0x18(sp)
18000152c: 23 30 e1 02 	sd	a4, 0x20(sp)
180001530: 23 34 01 03 	sd	a6, 0x28(sp)
180001534: 93 07 81 00 	addi	a5, sp, 0x8
180001538: 73 90 07 34 	csrw	mscratch, a5
18000153c: 97 47 00 00 	auipc	a5, 0x4
180001540: 23 a4 a7 82 	sw	a0, -0x7d8(a5)
180001544: 97 07 00 00 	auipc	a5, 0x0
180001548: 93 87 87 e5 	addi	a5, a5, -0x1a8
18000154c: 0b 90 ff 00 	vx_wspawn	t6, a5
180001550: ef f0 df e4 	jal	0x18000139c <process_thread_groups_stub>
180001554: 93 07 10 00 	li	a5, 0x1
180001558: 13 07 00 00 	li	a4, 0x0
18000155c: 0b 90 e7 00 	vx_wspawn	a5, a4
180001560: 13 05 00 00 	li	a0, 0x0
180001564: 83 30 81 03 	ld	ra, 0x38(sp)
180001568: 03 34 01 03 	ld	s0, 0x30(sp)
18000156c: 13 01 01 04 	addi	sp, sp, 0x40
180001570: 67 80 00 00 	ret
180001574: 63 00 05 22 	beqz	a0, 0x180001794 <vx_spawn_threads+0x3a8>
180001578: 03 a8 05 00 	lw	a6, 0x0(a1)
18000157c: 17 33 00 00 	auipc	t1, 0x3
180001580: 13 03 c3 7f 	addi	t1, t1, 0x7fc
180001584: 97 38 00 00 	auipc	a7, 0x3
180001588: 93 88 48 7e 	addi	a7, a7, 0x7e4
18000158c: 93 07 10 00 	li	a5, 0x1
180001590: 23 20 03 01 	sw	a6, 0x0(t1)
180001594: 23 a0 f8 00 	sw	a5, 0x0(a7)
180001598: 63 0e f5 20 	beq	a0, a5, 0x1800017b4 <vx_spawn_threads+0x3c8>
18000159c: 03 a6 45 00 	lw	a2, 0x4(a1)
1800015a0: 13 0e 20 00 	li	t3, 0x2
1800015a4: 23 a2 f8 00 	sw	a5, 0x4(a7)
1800015a8: 23 22 c3 00 	sw	a2, 0x4(t1)
1800015ac: 3b 08 c8 02 	mulw	a6, a6, a2
1800015b0: 63 06 c5 29 	beq	a0, t3, 0x18000183c <vx_spawn_threads+0x450>
1800015b4: 83 a5 85 00 	lw	a1, 0x8(a1)
1800015b8: 3b 08 b8 02 	mulw	a6, a6, a1
1800015bc: 6f 00 80 20 	j	0x1800017c4 <vx_spawn_threads+0x3d8>
1800015c0: 9b 07 f8 ff 	addiw	a5, a6, -0x1
1800015c4: bb 87 67 00 	addw	a5, a5, t1
1800015c8: bb d7 67 02 	divuw	a5, a5, t1
1800015cc: 13 0f 02 02 	addi	t5, tp, 0x20
1800015d0: 23 2c 02 00 	sw	zero, 0x18(tp)
1800015d4: 23 30 02 02 	sd	zero, 0x20(tp)
1800015d8: 97 32 00 00 	auipc	t0, 0x3
1800015dc: 23 a6 02 78 	sw	zero, 0x78c(t0)
1800015e0: 23 24 0f 00 	sw	zero, 0x8(t5)
1800015e4: 1b 86 0f 00 	sext.w	a2, t6
1800015e8: 1b 83 07 00 	sext.w	t1, a5
1800015ec: 63 74 66 00 	bgeu	a2, t1, 0x1800015f4 <vx_spawn_threads+0x208>
1800015f0: 93 87 0f 00 	mv	a5, t6
1800015f4: 1b 86 07 00 	sext.w	a2, a5
1800015f8: e3 f4 c8 f6 	bgeu	a7, a2, 0x180001560 <vx_spawn_threads+0x174>
1800015fc: bb 7f f8 02 	remuw	t6, a6, a5
180001600: bb 57 f8 02 	divuw	a5, a6, a5
180001604: 13 83 0f 00 	mv	t1, t6
180001608: 63 f4 f8 01 	bgeu	a7, t6, 0x180001610 <vx_spawn_threads+0x224>
18000160c: 9b 87 17 00 	addiw	a5, a5, 0x1
180001610: 13 08 10 00 	li	a6, 0x1
180001614: 3b df a7 02 	divuw	t5, a5, a0
180001618: 3b f4 a7 02 	remuw	s0, a5, a0
18000161c: 13 06 0f 00 	mv	a2, t5
180001620: 3b 05 e5 03 	mulw	a0, a0, t5
180001624: 63 f0 ee 03 	bgeu	t4, t5, 0x180001644 <vx_spawn_threads+0x258>
180001628: 13 8f 0e 00 	mv	t5, t4
18000162c: 3b 58 b6 02 	divuw	a6, a2, a1
180001630: 3b 76 b6 02 	remuw	a2, a2, a1
180001634: 13 18 08 02 	slli	a6, a6, 0x20
180001638: 13 58 08 02 	srli	a6, a6, 0x20
18000163c: 13 16 06 02 	slli	a2, a2, 0x20
180001640: 33 68 c8 00 	or	a6, a6, a2
180001644: bb 87 c7 03 	mulw	a5, a5, t3
180001648: 63 e6 f8 11 	bltu	a7, t6, 0x180001754 <vx_spawn_threads+0x368>
18000164c: bb 87 67 00 	addw	a5, a5, t1
180001650: 3b 05 f5 00 	addw	a0, a0, a5
180001654: 23 2c f1 00 	sw	a5, 0x18(sp)
180001658: 23 34 d1 00 	sd	a3, 0x8(sp)
18000165c: 23 38 e1 00 	sd	a4, 0x10(sp)
180001660: 23 2e a1 00 	sw	a0, 0x1c(sp)
180001664: 23 30 01 03 	sd	a6, 0x20(sp)
180001668: 93 07 81 00 	addi	a5, sp, 0x8
18000166c: 73 90 07 34 	csrw	mscratch, a5
180001670: 63 10 0f 16 	bnez	t5, 0x1800017d0 <vx_spawn_threads+0x3e4>
180001674: e3 00 04 ee 	beqz	s0, 0x180001554 <vx_spawn_threads+0x168>
180001678: 93 07 10 00 	li	a5, 0x1
18000167c: bb 97 87 00 	sllw	a5, a5, s0
180001680: 9b 87 f7 ff 	addiw	a5, a5, -0x1
180001684: 0b 80 07 00 	vx_tmc	a5
180001688: ef f0 df b3 	jal	0x1800011c4 <process_remaining_threads>
18000168c: 13 05 10 00 	li	a0, 0x1
180001690: 0b 00 05 00 	vx_tmc	a0
180001694: 6f f0 1f ec 	j	0x180001554 <vx_spawn_threads+0x168>
180001698: 63 00 06 16 	beqz	a2, 0x1800017f8 <vx_spawn_threads+0x40c>
18000169c: 63 00 05 0c 	beqz	a0, 0x18000175c <vx_spawn_threads+0x370>
1800016a0: 83 27 06 00 	lw	a5, 0x0(a2)
1800016a4: 17 33 00 00 	auipc	t1, 0x3
1800016a8: 13 03 43 6d 	addi	t1, t1, 0x6d4
1800016ac: 93 05 10 00 	li	a1, 0x1
1800016b0: 97 38 00 00 	auipc	a7, 0x3
1800016b4: 93 88 88 6b 	addi	a7, a7, 0x6b8
1800016b8: 23 20 b3 00 	sw	a1, 0x0(t1)
1800016bc: 23 a0 f8 00 	sw	a5, 0x0(a7)
1800016c0: 63 02 b5 18 	beq	a0, a1, 0x180001844 <vx_spawn_threads+0x458>
1800016c4: 03 28 46 00 	lw	a6, 0x4(a2)
1800016c8: 13 0e 20 00 	li	t3, 0x2
1800016cc: 23 22 b3 00 	sw	a1, 0x4(t1)
1800016d0: 23 a2 08 01 	sw	a6, 0x4(a7)
1800016d4: bb 87 07 03 	mulw	a5, a5, a6
1800016d8: 63 08 c5 19 	beq	a0, t3, 0x180001868 <vx_spawn_threads+0x47c>
1800016dc: 03 25 86 00 	lw	a0, 0x8(a2)
1800016e0: bb 87 a7 02 	mulw	a5, a5, a0
1800016e4: 6f 00 40 0a 	j	0x180001788 <vx_spawn_threads+0x39c>
1800016e8: 03 a8 05 00 	lw	a6, 0x0(a1)
1800016ec: 83 27 06 00 	lw	a5, 0x0(a2)
1800016f0: 17 33 00 00 	auipc	t1, 0x3
1800016f4: 13 03 83 68 	addi	t1, t1, 0x688
1800016f8: 97 38 00 00 	auipc	a7, 0x3
1800016fc: 93 88 08 67 	addi	a7, a7, 0x670
180001700: 23 20 03 01 	sw	a6, 0x0(t1)
180001704: 23 a0 f8 00 	sw	a5, 0x0(a7)
180001708: 13 0e 10 00 	li	t3, 0x1
18000170c: e3 0c c5 d1 	beq	a0, t3, 0x180001424 <vx_spawn_threads+0x38>
180001710: 83 ae 45 00 	lw	t4, 0x4(a1)
180001714: 03 2e 46 00 	lw	t3, 0x4(a2)
180001718: 93 0f 20 00 	li	t6, 0x2
18000171c: 23 22 d3 01 	sw	t4, 0x4(t1)
180001720: 23 a2 c8 01 	sw	t3, 0x4(a7)
180001724: 3b 08 d8 03 	mulw	a6, a6, t4
180001728: bb 87 c7 03 	mulw	a5, a5, t3
18000172c: 63 02 f5 11 	beq	a0, t6, 0x180001830 <vx_spawn_threads+0x444>
180001730: 83 a5 85 00 	lw	a1, 0x8(a1)
180001734: 03 25 86 00 	lw	a0, 0x8(a2)
180001738: 3b 08 b8 02 	mulw	a6, a6, a1
18000173c: bb 87 a7 02 	mulw	a5, a5, a0
180001740: 6f f0 9f cf 	j	0x180001438 <vx_spawn_threads+0x4c>
180001744: bb 0f b5 02 	mulw	t6, a0, a1
180001748: 3b d3 f7 03 	divuw	t1, a5, t6
18000174c: bb f5 f7 03 	remuw	a1, a5, t6
180001750: 6f f0 1f da 	j	0x1800014f0 <vx_spawn_threads+0x104>
180001754: 13 03 0e 00 	mv	t1, t3
180001758: 6f f0 5f ef 	j	0x18000164c <vx_spawn_threads+0x260>
18000175c: 93 07 10 00 	li	a5, 0x1
180001760: 93 97 07 02 	slli	a5, a5, 0x20
180001764: 93 87 17 00 	addi	a5, a5, 0x1
180001768: 17 33 00 00 	auipc	t1, 0x3
18000176c: 13 03 03 61 	addi	t1, t1, 0x610
180001770: 97 38 00 00 	auipc	a7, 0x3
180001774: 93 88 88 5f 	addi	a7, a7, 0x5f8
180001778: 23 30 f3 00 	sd	a5, 0x0(t1)
18000177c: 23 b0 f8 00 	sd	a5, 0x0(a7)
180001780: 13 05 10 00 	li	a0, 0x1
180001784: 93 07 10 00 	li	a5, 0x1
180001788: 93 05 10 00 	li	a1, 0x1
18000178c: 13 08 10 00 	li	a6, 0x1
180001790: 6f f0 9f ca 	j	0x180001438 <vx_spawn_threads+0x4c>
180001794: 93 07 10 00 	li	a5, 0x1
180001798: 17 33 00 00 	auipc	t1, 0x3
18000179c: 13 03 03 5e 	addi	t1, t1, 0x5e0
1800017a0: 97 38 00 00 	auipc	a7, 0x3
1800017a4: 93 88 88 5c 	addi	a7, a7, 0x5c8
1800017a8: 23 20 f3 00 	sw	a5, 0x0(t1)
1800017ac: 23 a0 f8 00 	sw	a5, 0x0(a7)
1800017b0: 13 08 10 00 	li	a6, 0x1
1800017b4: 93 07 10 00 	li	a5, 0x1
1800017b8: 23 22 f3 00 	sw	a5, 0x4(t1)
1800017bc: 23 a2 f8 00 	sw	a5, 0x4(a7)
1800017c0: 93 05 10 00 	li	a1, 0x1
1800017c4: 13 05 10 00 	li	a0, 0x1
1800017c8: 93 07 10 00 	li	a5, 0x1
1800017cc: 6f f0 df c6 	j	0x180001438 <vx_spawn_threads+0x4c>
1800017d0: 97 07 00 00 	auipc	a5, 0x0
1800017d4: 93 87 07 a5 	addi	a5, a5, -0x5b0
1800017d8: 0b 10 ff 00 	vx_wspawn	t5, a5
1800017dc: 93 07 f0 ff 	li	a5, -0x1
1800017e0: 0b 80 07 00 	vx_tmc	a5
1800017e4: ef f0 1f 8c 	jal	0x1800010a4 <process_threads>
1800017e8: 13 05 10 00 	li	a0, 0x1
1800017ec: 0b 00 05 00 	vx_tmc	a0
1800017f0: e3 02 04 d6 	beqz	s0, 0x180001554 <vx_spawn_threads+0x168>
1800017f4: 6f f0 5f e8 	j	0x180001678 <vx_spawn_threads+0x28c>
1800017f8: 93 07 10 00 	li	a5, 0x1
1800017fc: 93 97 07 02 	slli	a5, a5, 0x20
180001800: 93 87 17 00 	addi	a5, a5, 0x1
180001804: 17 33 00 00 	auipc	t1, 0x3
180001808: 13 03 43 57 	addi	t1, t1, 0x574
18000180c: 97 38 00 00 	auipc	a7, 0x3
180001810: 93 88 c8 55 	addi	a7, a7, 0x55c
180001814: 23 30 f3 00 	sd	a5, 0x0(t1)
180001818: 23 b0 f8 00 	sd	a5, 0x0(a7)
18000181c: 93 05 10 00 	li	a1, 0x1
180001820: 13 05 10 00 	li	a0, 0x1
180001824: 93 07 10 00 	li	a5, 0x1
180001828: 13 08 10 00 	li	a6, 0x1
18000182c: 6f f0 df c0 	j	0x180001438 <vx_spawn_threads+0x4c>
180001830: 93 05 10 00 	li	a1, 0x1
180001834: 13 05 10 00 	li	a0, 0x1
180001838: 6f f0 1f c0 	j	0x180001438 <vx_spawn_threads+0x4c>
18000183c: 93 05 10 00 	li	a1, 0x1
180001840: 6f f0 5f f8 	j	0x1800017c4 <vx_spawn_threads+0x3d8>
180001844: 23 22 a3 00 	sw	a0, 0x4(t1)
180001848: 23 a2 a8 00 	sw	a0, 0x4(a7)
18000184c: 6f f0 df f3 	j	0x180001788 <vx_spawn_threads+0x39c>
180001850: 93 85 07 00 	mv	a1, a5
180001854: 17 25 00 00 	auipc	a0, 0x2
180001858: 13 05 45 10 	addi	a0, a0, 0x104
18000185c: ef f0 8f fe 	jal	0x180001044 <vx_printf>
180001860: 13 05 f0 ff 	li	a0, -0x1
180001864: 6f f0 1f d0 	j	0x180001564 <vx_spawn_threads+0x178>
180001868: 13 05 10 00 	li	a0, 0x1
18000186c: 6f f0 df f1 	j	0x180001788 <vx_spawn_threads+0x39c>

0000000180001870 <vx_serial>:
180001870: 13 01 81 fc 	addi	sp, sp, -0x38
180001874: 23 38 11 02 	sd	ra, 0x30(sp)
180001878: 23 34 51 03 	sd	s5, 0x28(sp)
18000187c: 23 30 41 03 	sd	s4, 0x20(sp)
180001880: 23 3c 31 01 	sd	s3, 0x18(sp)
180001884: 23 38 21 01 	sd	s2, 0x10(sp)
180001888: 23 34 91 00 	sd	s1, 0x8(sp)
18000188c: 23 30 81 00 	sd	s0, 0x0(sp)
180001890: 13 0a 05 00 	mv	s4, a0
180001894: 93 89 05 00 	mv	s3, a1
180001898: 73 29 00 fc 	csrr	s2, nt
18000189c: f3 24 00 cc 	csrr	s1, tid
1800018a0: 13 04 00 00 	li	s0, 0x0

00000001800018a4 <label_loop>:
1800018a4: b3 02 94 40 	sub	t0, s0, s1
1800018a8: 13 b3 12 00 	seqz	t1, t0
1800018ac: 8b 2a 03 00 	vx_split	s5, t1
1800018b0: 63 96 02 00 	bnez	t0, 0x1800018bc <label_join>
1800018b4: 13 85 09 00 	mv	a0, s3
1800018b8: e7 00 0a 00 	jalr	s4

00000001800018bc <label_join>:
1800018bc: 0b b0 0a 00 	vx_join	s5
1800018c0: 13 04 14 00 	addi	s0, s0, 0x1
1800018c4: e3 40 24 ff 	blt	s0, s2, 0x1800018a4 <label_loop>
1800018c8: 83 30 01 03 	ld	ra, 0x30(sp)
1800018cc: 83 3a 81 02 	ld	s5, 0x28(sp)
1800018d0: 03 3a 01 02 	ld	s4, 0x20(sp)
1800018d4: 83 39 81 01 	ld	s3, 0x18(sp)
1800018d8: 03 39 01 01 	ld	s2, 0x10(sp)
1800018dc: 83 34 81 00 	ld	s1, 0x8(sp)
1800018e0: 03 34 01 00 	ld	s0, 0x0(sp)
1800018e4: 13 01 81 03 	addi	sp, sp, 0x38
1800018e8: 67 80 00 00 	ret

00000001800018ec <vx_perf_dump>:
1800018ec: 73 27 20 cc 	csrr	a4, cid
1800018f0: 1b 07 07 00 	sext.w	a4, a4
1800018f4: 13 17 87 00 	slli	a4, a4, 0x8
1800018f8: 93 07 07 08 	addi	a5, a4, 0x80
1800018fc: f3 26 00 b0 	csrr	a3, mcycle
180001900: 23 30 d7 08 	sd	a3, 0x80(a4)
180001904: 73 27 20 b0 	csrr	a4, minstret
180001908: 23 b8 e7 00 	sd	a4, 0x10(a5)
18000190c: 73 27 30 b0 	csrr	a4, mhpmcounter3
180001910: 23 bc e7 00 	sd	a4, 0x18(a5)
180001914: 73 27 40 b0 	csrr	a4, mhpmcounter4
180001918: 23 b0 e7 02 	sd	a4, 0x20(a5)
18000191c: 73 27 50 b0 	csrr	a4, mhpmcounter5
180001920: 23 b4 e7 02 	sd	a4, 0x28(a5)
180001924: 73 27 60 b0 	csrr	a4, mhpmcounter6
180001928: 23 b8 e7 02 	sd	a4, 0x30(a5)
18000192c: 73 27 70 b0 	csrr	a4, mhpmcounter7
180001930: 23 bc e7 02 	sd	a4, 0x38(a5)
180001934: 73 27 80 b0 	csrr	a4, mhpmcounter8
180001938: 23 b0 e7 04 	sd	a4, 0x40(a5)
18000193c: 73 27 90 b0 	csrr	a4, mhpmcounter9
180001940: 23 b4 e7 04 	sd	a4, 0x48(a5)
180001944: 73 27 a0 b0 	csrr	a4, mhpmcounter10
180001948: 23 b8 e7 04 	sd	a4, 0x50(a5)
18000194c: 73 27 b0 b0 	csrr	a4, mhpmcounter11
180001950: 23 bc e7 04 	sd	a4, 0x58(a5)
180001954: 73 27 c0 b0 	csrr	a4, mhpmcounter12
180001958: 23 b0 e7 06 	sd	a4, 0x60(a5)
18000195c: 73 27 d0 b0 	csrr	a4, mhpmcounter13
180001960: 23 b4 e7 06 	sd	a4, 0x68(a5)
180001964: 73 27 e0 b0 	csrr	a4, mhpmcounter14
180001968: 23 b8 e7 06 	sd	a4, 0x70(a5)
18000196c: 73 27 f0 b0 	csrr	a4, mhpmcounter15
180001970: 23 bc e7 06 	sd	a4, 0x78(a5)
180001974: 73 27 00 b1 	csrr	a4, mhpmcounter16
180001978: 23 b0 e7 08 	sd	a4, 0x80(a5)
18000197c: 73 27 10 b1 	csrr	a4, mhpmcounter17
180001980: 23 b4 e7 08 	sd	a4, 0x88(a5)
180001984: 73 27 20 b1 	csrr	a4, mhpmcounter18
180001988: 23 b8 e7 08 	sd	a4, 0x90(a5)
18000198c: 73 27 30 b1 	csrr	a4, mhpmcounter19
180001990: 23 bc e7 08 	sd	a4, 0x98(a5)
180001994: 73 27 40 b1 	csrr	a4, mhpmcounter20
180001998: 23 b0 e7 0a 	sd	a4, 0xa0(a5)
18000199c: 73 27 50 b1 	csrr	a4, mhpmcounter21
1800019a0: 23 b4 e7 0a 	sd	a4, 0xa8(a5)
1800019a4: 73 27 60 b1 	csrr	a4, mhpmcounter22
1800019a8: 23 b8 e7 0a 	sd	a4, 0xb0(a5)
1800019ac: 73 27 70 b1 	csrr	a4, mhpmcounter23
1800019b0: 23 bc e7 0a 	sd	a4, 0xb8(a5)
1800019b4: 73 27 80 b1 	csrr	a4, mhpmcounter24
1800019b8: 23 b0 e7 0c 	sd	a4, 0xc0(a5)
1800019bc: 73 27 90 b1 	csrr	a4, mhpmcounter25
1800019c0: 23 b4 e7 0c 	sd	a4, 0xc8(a5)
1800019c4: 73 27 a0 b1 	csrr	a4, mhpmcounter26
1800019c8: 23 b8 e7 0c 	sd	a4, 0xd0(a5)
1800019cc: 73 27 b0 b1 	csrr	a4, mhpmcounter27
1800019d0: 23 bc e7 0c 	sd	a4, 0xd8(a5)
1800019d4: 73 27 c0 b1 	csrr	a4, mhpmcounter28
1800019d8: 23 b0 e7 0e 	sd	a4, 0xe0(a5)
1800019dc: 73 27 d0 b1 	csrr	a4, mhpmcounter29
1800019e0: 23 b4 e7 0e 	sd	a4, 0xe8(a5)
1800019e4: 73 27 e0 b1 	csrr	a4, mhpmcounter30
1800019e8: 23 b8 e7 0e 	sd	a4, 0xf0(a5)
1800019ec: 73 27 f0 b1 	csrr	a4, mhpmcounter31
1800019f0: 23 bc e7 0e 	sd	a4, 0xf8(a5)
1800019f4: 67 80 00 00 	ret

00000001800019f8 <_out_null>:
1800019f8: 67 80 00 00 	ret

00000001800019fc <_out_rev>:
1800019fc: 13 01 01 fa 	addi	sp, sp, -0x60
180001a00: 23 34 91 04 	sd	s1, 0x48(sp)
180001a04: 23 30 21 05 	sd	s2, 0x40(sp)
180001a08: 23 3c 31 03 	sd	s3, 0x38(sp)
180001a0c: 23 38 41 03 	sd	s4, 0x30(sp)
180001a10: 23 34 51 03 	sd	s5, 0x28(sp)
180001a14: 23 30 61 03 	sd	s6, 0x20(sp)
180001a18: 93 0a 06 00 	mv	s5, a2
180001a1c: 23 38 81 01 	sd	s8, 0x10(sp)
180001a20: 23 34 91 01 	sd	s9, 0x8(sp)
180001a24: 23 30 a1 01 	sd	s10, 0x0(sp)
180001a28: 23 3c 11 04 	sd	ra, 0x58(sp)
180001a2c: 23 38 81 04 	sd	s0, 0x50(sp)
180001a30: 23 3c 71 01 	sd	s7, 0x18(sp)
180001a34: 13 f6 38 00 	andi	a2, a7, 0x3
180001a38: 93 8c 08 00 	mv	s9, a7
180001a3c: 13 09 05 00 	mv	s2, a0
180001a40: 93 89 05 00 	mv	s3, a1
180001a44: 13 8a 06 00 	mv	s4, a3
180001a48: 13 0b 07 00 	mv	s6, a4
180001a4c: 13 8d 07 00 	mv	s10, a5
180001a50: 13 0c 08 00 	mv	s8, a6
180001a54: 93 84 0a 00 	mv	s1, s5
180001a58: 63 1c 06 02 	bnez	a2, 0x180001a90 <_out_rev+0x94>
180001a5c: 93 17 08 02 	slli	a5, a6, 0x20
180001a60: 93 d7 07 02 	srli	a5, a5, 0x20
180001a64: b3 84 a7 41 	sub	s1, a5, s10
180001a68: b3 84 54 01 	add	s1, s1, s5
180001a6c: 13 84 0a 00 	mv	s0, s5
180001a70: 63 70 fd 0c 	bgeu	s10, a5, 0x180001b30 <_out_rev+0x134>
180001a74: 13 06 04 00 	mv	a2, s0
180001a78: 93 06 0a 00 	mv	a3, s4
180001a7c: 13 04 14 00 	addi	s0, s0, 0x1
180001a80: 93 85 09 00 	mv	a1, s3
180001a84: 13 05 00 02 	li	a0, 0x20
180001a88: e7 00 09 00 	jalr	s2
180001a8c: e3 14 94 fe 	bne	s0, s1, 0x180001a74 <_out_rev+0x78>
180001a90: 33 04 ab 01 	add	s0, s6, s10
180001a94: b3 0b 94 00 	add	s7, s0, s1
180001a98: 63 02 0d 02 	beqz	s10, 0x180001abc <_out_rev+0xc0>
180001a9c: 03 45 f4 ff 	lbu	a0, -0x1(s0)
180001aa0: 33 86 8b 40 	sub	a2, s7, s0
180001aa4: 93 06 0a 00 	mv	a3, s4
180001aa8: 13 04 f4 ff 	addi	s0, s0, -0x1
180001aac: 93 85 09 00 	mv	a1, s3
180001ab0: e7 00 09 00 	jalr	s2
180001ab4: e3 14 8b fe 	bne	s6, s0, 0x180001a9c <_out_rev+0xa0>
180001ab8: b3 84 a4 01 	add	s1, s1, s10
180001abc: 93 fc 2c 00 	andi	s9, s9, 0x2
180001ac0: 63 8a 0c 02 	beqz	s9, 0x180001af4 <_out_rev+0xf8>
180001ac4: 13 1c 0c 02 	slli	s8, s8, 0x20
180001ac8: b3 8a 54 41 	sub	s5, s1, s5
180001acc: 13 5c 0c 02 	srli	s8, s8, 0x20
180001ad0: 63 f2 8a 03 	bgeu	s5, s8, 0x180001af4 <_out_rev+0xf8>
180001ad4: 13 86 04 00 	mv	a2, s1
180001ad8: 93 8a 1a 00 	addi	s5, s5, 0x1
180001adc: 93 06 0a 00 	mv	a3, s4
180001ae0: 93 85 09 00 	mv	a1, s3
180001ae4: 13 05 00 02 	li	a0, 0x20
180001ae8: 93 84 14 00 	addi	s1, s1, 0x1
180001aec: e7 00 09 00 	jalr	s2
180001af0: e3 e2 8a ff 	bltu	s5, s8, 0x180001ad4 <_out_rev+0xd8>
180001af4: 83 30 81 05 	ld	ra, 0x58(sp)
180001af8: 03 34 01 05 	ld	s0, 0x50(sp)
180001afc: 03 39 01 04 	ld	s2, 0x40(sp)
180001b00: 83 39 81 03 	ld	s3, 0x38(sp)
180001b04: 03 3a 01 03 	ld	s4, 0x30(sp)
180001b08: 83 3a 81 02 	ld	s5, 0x28(sp)
180001b0c: 03 3b 01 02 	ld	s6, 0x20(sp)
180001b10: 83 3b 81 01 	ld	s7, 0x18(sp)
180001b14: 03 3c 01 01 	ld	s8, 0x10(sp)
180001b18: 83 3c 81 00 	ld	s9, 0x8(sp)
180001b1c: 03 3d 01 00 	ld	s10, 0x0(sp)
180001b20: 13 85 04 00 	mv	a0, s1
180001b24: 83 34 81 04 	ld	s1, 0x48(sp)
180001b28: 13 01 01 06 	addi	sp, sp, 0x60
180001b2c: 67 80 00 00 	ret
180001b30: 93 84 0a 00 	mv	s1, s5
180001b34: 6f f0 df f5 	j	0x180001a90 <_out_rev+0x94>

0000000180001b38 <_ntoa_long_long>:
180001b38: 13 01 01 fb 	addi	sp, sp, -0x50
180001b3c: 23 30 81 04 	sd	s0, 0x40(sp)
180001b40: 03 24 81 05 	lw	s0, 0x58(sp)
180001b44: 23 3c 91 02 	sd	s1, 0x38(sp)
180001b48: 23 38 21 03 	sd	s2, 0x30(sp)
180001b4c: 23 34 31 03 	sd	s3, 0x28(sp)
180001b50: 23 34 11 04 	sd	ra, 0x48(sp)
180001b54: 93 0e 08 00 	mv	t4, a6
180001b58: 13 0e 07 00 	mv	t3, a4
180001b5c: 03 28 01 05 	lw	a6, 0x50(sp)
180001b60: 93 84 07 00 	mv	s1, a5
180001b64: 93 79 04 40 	andi	s3, s0, 0x400
180001b68: 13 79 04 01 	andi	s2, s0, 0x10
180001b6c: 63 1a 07 00 	bnez	a4, 0x180001b80 <_ntoa_long_long+0x48>
180001b70: 13 09 04 00 	mv	s2, s0
180001b74: 13 74 f4 fe 	andi	s0, s0, -0x11
180001b78: 63 9e 09 0a 	bnez	s3, 0x180001c34 <_ntoa_long_long+0xfc>
180001b7c: 13 09 00 00 	li	s2, 0x0
180001b80: 93 77 04 02 	andi	a5, s0, 0x20
180001b84: 93 02 10 06 	li	t0, 0x61
180001b88: 63 9c 07 12 	bnez	a5, 0x180001cc0 <_ntoa_long_long+0x188>
180001b8c: 93 07 00 00 	li	a5, 0x0
180001b90: 13 07 01 00 	mv	a4, sp
180001b94: 93 03 90 00 	li	t2, 0x9
180001b98: 9b 82 62 ff 	addiw	t0, t0, -0xa
180001b9c: 93 00 00 02 	li	ra, 0x20
180001ba0: 6f 00 c0 00 	j	0x180001bac <_ntoa_long_long+0x74>
180001ba4: 63 8c 17 02 	beq	a5, ra, 0x180001bdc <_ntoa_long_long+0xa4>
180001ba8: 13 0e 03 00 	mv	t3, t1
180001bac: 33 7f de 03 	remu	t5, t3, t4
180001bb0: 13 73 ff 0f 	andi	t1, t5, 0xff
180001bb4: 9b 0f 03 03 	addiw	t6, t1, 0x30
180001bb8: 3b 83 62 00 	addw	t1, t0, t1
180001bbc: 13 73 f3 0f 	andi	t1, t1, 0xff
180001bc0: 63 e4 e3 01 	bltu	t2, t5, 0x180001bc8 <_ntoa_long_long+0x90>
180001bc4: 13 f3 ff 0f 	andi	t1, t6, 0xff
180001bc8: 93 87 17 00 	addi	a5, a5, 0x1
180001bcc: 33 0f f7 00 	add	t5, a4, a5
180001bd0: a3 0f 6f fe 	sb	t1, -0x1(t5)
180001bd4: 33 53 de 03 	divu	t1, t3, t4
180001bd8: e3 76 de fd 	bgeu	t3, t4, 0x180001ba4 <_ntoa_long_long+0x6c>
180001bdc: 13 73 24 00 	andi	t1, s0, 0x2
180001be0: 9b 83 0e 00 	sext.w	t2, t4
180001be4: 63 02 03 06 	beqz	t1, 0x180001c48 <_ntoa_long_long+0x110>
180001be8: 63 00 09 12 	beqz	s2, 0x180001d08 <_ntoa_long_long+0x1d0>
180001bec: 63 9e 09 16 	bnez	s3, 0x180001d68 <_ntoa_long_long+0x230>
180001bf0: 63 9c 07 0c 	bnez	a5, 0x180001cc8 <_ntoa_long_long+0x190>
180001bf4: 93 07 00 01 	li	a5, 0x10
180001bf8: 63 80 fe 2c 	beq	t4, a5, 0x180001eb8 <_ntoa_long_long+0x380>
180001bfc: 93 07 20 00 	li	a5, 0x2
180001c00: 63 86 f3 2c 	beq	t2, a5, 0x180001ecc <_ntoa_long_long+0x394>
180001c04: 93 07 00 03 	li	a5, 0x30
180001c08: 23 00 f1 00 	sb	a5, 0x0(sp)
180001c0c: 13 0e 10 00 	li	t3, 0x1
180001c10: 63 9e 04 18 	bnez	s1, 0x180001dac <_ntoa_long_long+0x274>
180001c14: 93 77 44 00 	andi	a5, s0, 0x4
180001c18: 63 86 07 22 	beqz	a5, 0x180001e44 <_ntoa_long_long+0x30c>
180001c1c: 93 07 0e 02 	addi	a5, t3, 0x20
180001c20: b3 88 27 00 	add	a7, a5, sp
180001c24: 13 03 b0 02 	li	t1, 0x2b
180001c28: 93 07 1e 00 	addi	a5, t3, 0x1
180001c2c: 23 80 68 fe 	sb	t1, -0x20(a7)
180001c30: 6f 00 40 0e 	j	0x180001d14 <_ntoa_long_long+0x1dc>
180001c34: 13 79 29 00 	andi	s2, s2, 0x2
180001c38: 63 16 09 18 	bnez	s2, 0x180001dc4 <_ntoa_long_long+0x28c>
180001c3c: 9b 83 0e 00 	sext.w	t2, t4
180001c40: 93 07 00 00 	li	a5, 0x0
180001c44: 13 07 01 00 	mv	a4, sp
180001c48: 13 9e 08 02 	slli	t3, a7, 0x20
180001c4c: 13 5e 0e 02 	srli	t3, t3, 0x20
180001c50: 63 14 08 0e 	bnez	a6, 0x180001d38 <_ntoa_long_long+0x200>
180001c54: e3 fa c7 f9 	bgeu	a5, t3, 0x180001be8 <_ntoa_long_long+0xb0>
180001c58: 13 03 00 02 	li	t1, 0x20
180001c5c: 93 72 14 00 	andi	t0, s0, 0x1
180001c60: 63 8e 67 26 	beq	a5, t1, 0x180001edc <_ntoa_long_long+0x3a4>
180001c64: 13 0f 00 03 	li	t5, 0x30
180001c68: 93 0f 00 02 	li	t6, 0x20
180001c6c: 6f 00 80 00 	j	0x180001c74 <_ntoa_long_long+0x13c>
180001c70: 63 8e f7 11 	beq	a5, t6, 0x180001d8c <_ntoa_long_long+0x254>
180001c74: 93 87 17 00 	addi	a5, a5, 0x1
180001c78: 33 03 f7 00 	add	t1, a4, a5
180001c7c: a3 0f e3 ff 	sb	t5, -0x1(t1)
180001c80: e3 e8 c7 ff 	bltu	a5, t3, 0x180001c70 <_ntoa_long_long+0x138>
180001c84: e3 82 02 f6 	beqz	t0, 0x180001be8 <_ntoa_long_long+0xb0>
180001c88: 13 1f 08 02 	slli	t5, a6, 0x20
180001c8c: 13 5f 0f 02 	srli	t5, t5, 0x20
180001c90: e3 fc e7 f5 	bgeu	a5, t5, 0x180001be8 <_ntoa_long_long+0xb0>
180001c94: 13 03 00 02 	li	t1, 0x20
180001c98: 93 0f 00 03 	li	t6, 0x30
180001c9c: 93 02 00 02 	li	t0, 0x20
180001ca0: 63 96 67 00 	bne	a5, t1, 0x180001cac <_ntoa_long_long+0x174>
180001ca4: 6f 00 00 0f 	j	0x180001d94 <_ntoa_long_long+0x25c>
180001ca8: 63 8a 57 18 	beq	a5, t0, 0x180001e3c <_ntoa_long_long+0x304>
180001cac: 93 87 17 00 	addi	a5, a5, 0x1
180001cb0: 33 03 f7 00 	add	t1, a4, a5
180001cb4: a3 0f f3 ff 	sb	t6, -0x1(t1)
180001cb8: e3 98 e7 ff 	bne	a5, t5, 0x180001ca8 <_ntoa_long_long+0x170>
180001cbc: 6f f0 df f2 	j	0x180001be8 <_ntoa_long_long+0xb0>
180001cc0: 93 02 10 04 	li	t0, 0x41
180001cc4: 6f f0 9f ec 	j	0x180001b8c <_ntoa_long_long+0x54>
180001cc8: 13 9e 08 02 	slli	t3, a7, 0x20
180001ccc: 13 5e 0e 02 	srli	t3, t3, 0x20
180001cd0: 63 08 fe 00 	beq	t3, a5, 0x180001ce0 <_ntoa_long_long+0x1a8>
180001cd4: 93 18 08 02 	slli	a7, a6, 0x20
180001cd8: 93 d8 08 02 	srli	a7, a7, 0x20
180001cdc: 63 96 f8 08 	bne	a7, a5, 0x180001d68 <_ntoa_long_long+0x230>
180001ce0: 93 88 f7 ff 	addi	a7, a5, -0x1
180001ce4: 63 82 08 1a 	beqz	a7, 0x180001e88 <_ntoa_long_long+0x350>
180001ce8: 13 03 00 01 	li	t1, 0x10
180001cec: 63 8e 6e 1e 	beq	t4, t1, 0x180001ee8 <_ntoa_long_long+0x3b0>
180001cf0: 13 03 20 00 	li	t1, 0x2
180001cf4: 63 86 63 12 	beq	t2, t1, 0x180001e20 <_ntoa_long_long+0x2e8>
180001cf8: 93 88 08 02 	addi	a7, a7, 0x20
180001cfc: b3 88 28 00 	add	a7, a7, sp
180001d00: 13 03 00 03 	li	t1, 0x30
180001d04: 23 80 68 fe 	sb	t1, -0x20(a7)
180001d08: 93 08 00 02 	li	a7, 0x20
180001d0c: 13 8e 07 00 	mv	t3, a5
180001d10: e3 90 17 f1 	bne	a5, a7, 0x180001c10 <_ntoa_long_long+0xd8>
180001d14: 93 08 04 00 	mv	a7, s0
180001d18: ef f0 5f ce 	jal	0x1800019fc <_out_rev>
180001d1c: 83 30 81 04 	ld	ra, 0x48(sp)
180001d20: 03 34 01 04 	ld	s0, 0x40(sp)
180001d24: 83 34 81 03 	ld	s1, 0x38(sp)
180001d28: 03 39 01 03 	ld	s2, 0x30(sp)
180001d2c: 83 39 81 02 	ld	s3, 0x28(sp)
180001d30: 13 01 01 05 	addi	sp, sp, 0x50
180001d34: 67 80 00 00 	ret
180001d38: 93 72 14 00 	andi	t0, s0, 0x1
180001d3c: 13 03 04 00 	mv	t1, s0
180001d40: 63 88 02 08 	beqz	t0, 0x180001dd0 <_ntoa_long_long+0x298>
180001d44: 63 98 04 0e 	bnez	s1, 0x180001e34 <_ntoa_long_long+0x2fc>
180001d48: 13 73 c3 00 	andi	t1, t1, 0xc
180001d4c: 63 14 03 0e 	bnez	t1, 0x180001e34 <_ntoa_long_long+0x2fc>
180001d50: e3 fc c7 f3 	bgeu	a5, t3, 0x180001c88 <_ntoa_long_long+0x150>
180001d54: 13 03 00 02 	li	t1, 0x20
180001d58: e3 96 67 f0 	bne	a5, t1, 0x180001c64 <_ntoa_long_long+0x12c>
180001d5c: 63 ec 07 03 	bltu	a5, a6, 0x180001d94 <_ntoa_long_long+0x25c>
180001d60: e3 0a 09 fa 	beqz	s2, 0x180001d14 <_ntoa_long_long+0x1dc>
180001d64: e3 86 09 e8 	beqz	s3, 0x180001bf0 <_ntoa_long_long+0xb8>
180001d68: 93 08 00 01 	li	a7, 0x10
180001d6c: 63 8e 1e 07 	beq	t4, a7, 0x180001de8 <_ntoa_long_long+0x2b0>
180001d70: 93 08 20 00 	li	a7, 0x2
180001d74: 63 8e 13 09 	beq	t2, a7, 0x180001e10 <_ntoa_long_long+0x2d8>
180001d78: 93 08 00 02 	li	a7, 0x20
180001d7c: e3 8c 17 f9 	beq	a5, a7, 0x180001d14 <_ntoa_long_long+0x1dc>
180001d80: 93 88 07 00 	mv	a7, a5
180001d84: 93 87 17 00 	addi	a5, a5, 0x1
180001d88: 6f f0 1f f7 	j	0x180001cf8 <_ntoa_long_long+0x1c0>
180001d8c: 63 82 02 1a 	beqz	t0, 0x180001f30 <_ntoa_long_long+0x3f8>
180001d90: 63 f6 07 0b 	bgeu	a5, a6, 0x180001e3c <_ntoa_long_long+0x304>
180001d94: 93 07 00 02 	li	a5, 0x20
180001d98: e3 0e 09 f6 	beqz	s2, 0x180001d14 <_ntoa_long_long+0x1dc>
180001d9c: 63 90 09 18 	bnez	s3, 0x180001f1c <_ntoa_long_long+0x3e4>
180001da0: e3 1a fe f2 	bne	t3, a5, 0x180001cd4 <_ntoa_long_long+0x19c>
180001da4: 93 08 f0 01 	li	a7, 0x1f
180001da8: 6f f0 1f f4 	j	0x180001ce8 <_ntoa_long_long+0x1b0>
180001dac: 93 07 0e 02 	addi	a5, t3, 0x20
180001db0: b3 88 27 00 	add	a7, a5, sp
180001db4: 13 03 d0 02 	li	t1, 0x2d
180001db8: 93 07 1e 00 	addi	a5, t3, 0x1
180001dbc: 23 80 68 fe 	sb	t1, -0x20(a7)
180001dc0: 6f f0 5f f5 	j	0x180001d14 <_ntoa_long_long+0x1dc>
180001dc4: 13 07 01 00 	mv	a4, sp
180001dc8: e3 86 04 e4 	beqz	s1, 0x180001c14 <_ntoa_long_long+0xdc>
180001dcc: 6f f0 1f fe 	j	0x180001dac <_ntoa_long_long+0x274>
180001dd0: e3 fc c7 e1 	bgeu	a5, t3, 0x180001be8 <_ntoa_long_long+0xb0>
180001dd4: 13 03 00 02 	li	t1, 0x20
180001dd8: e3 96 67 e8 	bne	a5, t1, 0x180001c64 <_ntoa_long_long+0x12c>
180001ddc: e3 0c 09 f2 	beqz	s2, 0x180001d14 <_ntoa_long_long+0x1dc>
180001de0: e3 94 09 f8 	bnez	s3, 0x180001d68 <_ntoa_long_long+0x230>
180001de4: 6f f0 df ee 	j	0x180001cd0 <_ntoa_long_long+0x198>
180001de8: 93 78 04 02 	andi	a7, s0, 0x20
180001dec: 63 8e 08 06 	beqz	a7, 0x180001e68 <_ntoa_long_long+0x330>
180001df0: 93 08 00 02 	li	a7, 0x20
180001df4: e3 80 17 f3 	beq	a5, a7, 0x180001d14 <_ntoa_long_long+0x1dc>
180001df8: 93 88 07 02 	addi	a7, a5, 0x20
180001dfc: b3 88 28 00 	add	a7, a7, sp
180001e00: 13 03 80 05 	li	t1, 0x58
180001e04: 23 80 68 fe 	sb	t1, -0x20(a7)
180001e08: 93 87 17 00 	addi	a5, a5, 0x1
180001e0c: 6f f0 df f6 	j	0x180001d78 <_ntoa_long_long+0x240>
180001e10: 93 08 00 02 	li	a7, 0x20
180001e14: e3 80 17 f1 	beq	a5, a7, 0x180001d14 <_ntoa_long_long+0x1dc>
180001e18: 93 88 07 00 	mv	a7, a5
180001e1c: 93 87 17 00 	addi	a5, a5, 0x1
180001e20: 93 88 08 02 	addi	a7, a7, 0x20
180001e24: b3 88 28 00 	add	a7, a7, sp
180001e28: 13 03 20 06 	li	t1, 0x62
180001e2c: 23 80 68 fe 	sb	t1, -0x20(a7)
180001e30: 6f f0 9f f4 	j	0x180001d78 <_ntoa_long_long+0x240>
180001e34: 1b 08 f8 ff 	addiw	a6, a6, -0x1
180001e38: 6f f0 9f f1 	j	0x180001d50 <_ntoa_long_long+0x218>
180001e3c: 93 07 00 02 	li	a5, 0x20
180001e40: 6f f0 df f9 	j	0x180001ddc <_ntoa_long_long+0x2a4>
180001e44: 93 78 84 00 	andi	a7, s0, 0x8
180001e48: 93 07 0e 00 	mv	a5, t3
180001e4c: e3 84 08 ec 	beqz	a7, 0x180001d14 <_ntoa_long_long+0x1dc>
180001e50: 93 08 0e 02 	addi	a7, t3, 0x20
180001e54: 33 8e 28 00 	add	t3, a7, sp
180001e58: 93 08 00 02 	li	a7, 0x20
180001e5c: 93 87 17 00 	addi	a5, a5, 0x1
180001e60: 23 00 1e ff 	sb	a7, -0x20(t3)
180001e64: 6f f0 1f eb 	j	0x180001d14 <_ntoa_long_long+0x1dc>
180001e68: 93 08 00 02 	li	a7, 0x20
180001e6c: e3 84 17 eb 	beq	a5, a7, 0x180001d14 <_ntoa_long_long+0x1dc>
180001e70: 93 88 07 02 	addi	a7, a5, 0x20
180001e74: b3 88 28 00 	add	a7, a7, sp
180001e78: 13 03 80 07 	li	t1, 0x78
180001e7c: 23 80 68 fe 	sb	t1, -0x20(a7)
180001e80: 93 87 17 00 	addi	a5, a5, 0x1
180001e84: 6f f0 5f ef 	j	0x180001d78 <_ntoa_long_long+0x240>
180001e88: 93 07 00 01 	li	a5, 0x10
180001e8c: e3 98 fe d6 	bne	t4, a5, 0x180001bfc <_ntoa_long_long+0xc4>
180001e90: 93 78 04 02 	andi	a7, s0, 0x20
180001e94: 93 07 80 07 	li	a5, 0x78
180001e98: 63 84 08 00 	beqz	a7, 0x180001ea0 <_ntoa_long_long+0x368>
180001e9c: 93 07 80 05 	li	a5, 0x58
180001ea0: 23 00 f1 00 	sb	a5, 0x0(sp)
180001ea4: 93 07 00 03 	li	a5, 0x30
180001ea8: a3 00 f1 00 	sb	a5, 0x1(sp)
180001eac: 13 0e 20 00 	li	t3, 0x2
180001eb0: e3 82 04 d6 	beqz	s1, 0x180001c14 <_ntoa_long_long+0xdc>
180001eb4: 6f f0 9f ef 	j	0x180001dac <_ntoa_long_long+0x274>
180001eb8: 93 77 04 02 	andi	a5, s0, 0x20
180001ebc: 63 8c 07 00 	beqz	a5, 0x180001ed4 <_ntoa_long_long+0x39c>
180001ec0: 93 07 80 05 	li	a5, 0x58
180001ec4: 23 00 f1 00 	sb	a5, 0x0(sp)
180001ec8: 6f f0 df fd 	j	0x180001ea4 <_ntoa_long_long+0x36c>
180001ecc: 93 07 20 06 	li	a5, 0x62
180001ed0: 6f f0 1f fd 	j	0x180001ea0 <_ntoa_long_long+0x368>
180001ed4: 93 07 80 07 	li	a5, 0x78
180001ed8: 6f f0 9f fc 	j	0x180001ea0 <_ntoa_long_long+0x368>
180001edc: e3 80 02 f0 	beqz	t0, 0x180001ddc <_ntoa_long_long+0x2a4>
180001ee0: e3 12 09 e8 	bnez	s2, 0x180001d64 <_ntoa_long_long+0x22c>
180001ee4: 6f f0 1f e3 	j	0x180001d14 <_ntoa_long_long+0x1dc>
180001ee8: 93 87 e7 ff 	addi	a5, a5, -0x2
180001eec: 93 87 07 02 	addi	a5, a5, 0x20
180001ef0: 13 73 04 02 	andi	t1, s0, 0x20
180001ef4: b3 87 27 00 	add	a5, a5, sp
180001ef8: 63 1a 03 00 	bnez	t1, 0x180001f0c <_ntoa_long_long+0x3d4>
180001efc: 13 03 80 07 	li	t1, 0x78
180001f00: 23 80 67 fe 	sb	t1, -0x20(a5)
180001f04: 93 87 08 00 	mv	a5, a7
180001f08: 6f f0 9f e7 	j	0x180001d80 <_ntoa_long_long+0x248>
180001f0c: 13 03 80 05 	li	t1, 0x58
180001f10: 23 80 67 fe 	sb	t1, -0x20(a5)
180001f14: 93 87 08 00 	mv	a5, a7
180001f18: 6f f0 9f e6 	j	0x180001d80 <_ntoa_long_long+0x248>
180001f1c: 93 08 00 01 	li	a7, 0x10
180001f20: e3 84 1e ed 	beq	t4, a7, 0x180001de8 <_ntoa_long_long+0x2b0>
180001f24: 93 08 20 00 	li	a7, 0x2
180001f28: e3 98 13 e5 	bne	t2, a7, 0x180001d78 <_ntoa_long_long+0x240>
180001f2c: 6f f0 9f de 	j	0x180001d14 <_ntoa_long_long+0x1dc>
180001f30: e3 02 09 de 	beqz	s2, 0x180001d14 <_ntoa_long_long+0x1dc>
180001f34: e3 94 09 fe 	bnez	s3, 0x180001f1c <_ntoa_long_long+0x3e4>
180001f38: e3 9e f8 d8 	bne	a7, a5, 0x180001cd4 <_ntoa_long_long+0x19c>
180001f3c: 93 08 f0 01 	li	a7, 0x1f
180001f40: 6f f0 9f da 	j	0x180001ce8 <_ntoa_long_long+0x1b0>

0000000180001f44 <_out_char>:
180001f44: 63 14 05 00 	bnez	a0, 0x180001f4c <_out_char+0x8>
180001f48: 67 80 00 00 	ret
180001f4c: 6f f0 cf 8a 	j	0x180000ff8 <vx_putchar>

0000000180001f50 <_ftoa>:
180001f50: 53 23 a5 a2 	feq.d	t1, fa0, fa0
180001f54: 93 08 08 00 	mv	a7, a6
180001f58: 63 00 03 20 	beqz	t1, 0x180002158 <_ftoa+0x208>
180001f5c: 17 38 00 00 	auipc	a6, 0x3
180001f60: 87 37 c8 d4 	fld	fa5, -0x2b4(a6)
180001f64: 53 18 f5 a2 	flt.d	a6, fa0, fa5
180001f68: 63 12 08 26 	bnez	a6, 0x1800021cc <_ftoa+0x27c>
180001f6c: 13 01 01 fc 	addi	sp, sp, -0x40
180001f70: 23 34 91 02 	sd	s1, 0x28(sp)
180001f74: 93 84 06 00 	mv	s1, a3
180001f78: 97 36 00 00 	auipc	a3, 0x3
180001f7c: 87 b7 86 d3 	fld	fa5, -0x2c8(a3)
180001f80: d3 96 a7 a2 	flt.d	a3, fa5, fa0
180001f84: 23 38 81 02 	sd	s0, 0x30(sp)
180001f88: 23 3c 11 02 	sd	ra, 0x38(sp)
180001f8c: 23 30 21 03 	sd	s2, 0x20(sp)
180001f90: 93 02 05 00 	mv	t0, a0
180001f94: 93 83 05 00 	mv	t2, a1
180001f98: 13 04 06 00 	mv	s0, a2
180001f9c: 63 9c 06 16 	bnez	a3, 0x180002114 <_ftoa+0x1c4>
180001fa0: 97 36 00 00 	auipc	a3, 0x3
180001fa4: 87 b7 86 cf 	fld	fa5, -0x308(a3)
180001fa8: d3 96 a7 a2 	flt.d	a3, fa5, fa0
180001fac: 63 9a 06 1e 	bnez	a3, 0x1800021a0 <_ftoa+0x250>
180001fb0: 97 36 00 00 	auipc	a3, 0x3
180001fb4: 07 b7 86 d0 	fld	fa4, -0x2f8(a3)
180001fb8: d3 16 e5 a2 	flt.d	a3, fa0, fa4
180001fbc: 63 92 06 1e 	bnez	a3, 0x1800021a0 <_ftoa+0x250>
180001fc0: 53 07 00 f2 	fmv.d.x	fa4, zero
180001fc4: 93 05 00 00 	li	a1, 0x0
180001fc8: d3 16 e5 a2 	flt.d	a3, fa0, fa4
180001fcc: 63 94 06 1c 	bnez	a3, 0x180002194 <_ftoa+0x244>
180001fd0: 93 f6 08 40 	andi	a3, a7, 0x400
180001fd4: 63 8c 06 18 	beqz	a3, 0x18000216c <_ftoa+0x21c>
180001fd8: 93 06 90 00 	li	a3, 0x9
180001fdc: 63 fa e6 38 	bgeu	a3, a4, 0x180002370 <_ftoa+0x420>
180001fe0: 1b 03 77 ff 	addiw	t1, a4, -0x9
180001fe4: 13 13 03 02 	slli	t1, t1, 0x20
180001fe8: 13 53 03 02 	srli	t1, t1, 0x20
180001fec: 13 0e 00 00 	li	t3, 0x0
180001ff0: 13 0f 01 00 	mv	t5, sp
180001ff4: 13 06 00 03 	li	a2, 0x30
180001ff8: 93 06 00 02 	li	a3, 0x20
180001ffc: 13 0e 1e 00 	addi	t3, t3, 0x1
180002000: b3 0e cf 01 	add	t4, t5, t3
180002004: a3 8f ce fe 	sb	a2, -0x1(t4)
180002008: bb 0f c7 41 	subw	t6, a4, t3
18000200c: 63 08 de 2c 	beq	t3, a3, 0x1800022dc <_ftoa+0x38c>
180002010: e3 16 6e fe 	bne	t3, t1, 0x180001ffc <_ftoa+0xac>
180002014: 53 87 f7 22 	fmv.d	fa4, fa5
180002018: d3 16 05 c2 	fcvt.w.d	a3, fa0, rtz
18000201c: 17 37 00 00 	auipc	a4, 0x3
180002020: 87 36 47 ca 	fld	fa3, -0x35c(a4)
180002024: d3 87 06 d2 	fcvt.d.w	fa5, a3
180002028: 1b 8e 06 00 	sext.w	t3, a3
18000202c: d3 77 f5 0a 	fsub.d	fa5, fa0, fa5
180002030: d3 f7 e7 12 	fmul.d	fa5, fa5, fa4
180002034: 53 97 37 c2 	fcvt.lu.d	a4, fa5, rtz
180002038: 53 76 37 d2 	fcvt.d.lu	fa2, a4
18000203c: d3 f7 c7 0a 	fsub.d	fa5, fa5, fa2
180002040: 53 96 f6 a2 	flt.d	a2, fa3, fa5
180002044: 63 0e 06 22 	beqz	a2, 0x180002280 <_ftoa+0x330>
180002048: 13 07 17 00 	addi	a4, a4, 0x1
18000204c: d3 77 37 d2 	fcvt.d.lu	fa5, a4
180002050: 53 06 f7 a2 	fle.d	a2, fa4, fa5
180002054: 63 06 06 00 	beqz	a2, 0x180002060 <_ftoa+0x110>
180002058: 1b 8e 16 00 	addiw	t3, a3, 0x1
18000205c: 13 07 00 00 	li	a4, 0x0
180002060: 63 9a 0f 1c 	bnez	t6, 0x180002234 <_ftoa+0x2e4>
180002064: d3 07 0e d2 	fcvt.d.w	fa5, t3
180002068: 53 75 f5 0a 	fsub.d	fa0, fa0, fa5
18000206c: 53 17 d5 a2 	flt.d	a4, fa0, fa3
180002070: 63 06 07 00 	beqz	a4, 0x18000207c <_ftoa+0x12c>
180002074: 53 97 a6 a2 	flt.d	a4, fa3, fa0
180002078: 63 08 07 00 	beqz	a4, 0x180002088 <_ftoa+0x138>
18000207c: 13 77 1e 00 	andi	a4, t3, 0x1
180002080: 63 04 07 00 	beqz	a4, 0x180002088 <_ftoa+0x138>
180002084: 1b 0e 1e 00 	addiw	t3, t3, 0x1
180002088: 13 06 00 02 	li	a2, 0x20
18000208c: 13 07 a0 00 	li	a4, 0xa
180002090: 63 08 c3 14 	beq	t1, a2, 0x1800021e0 <_ftoa+0x290>
180002094: bb 6e ee 02 	remw	t4, t3, a4
180002098: 13 03 13 00 	addi	t1, t1, 0x1
18000209c: b3 06 6f 00 	add	a3, t5, t1
1800020a0: 3b 4e ee 02 	divw	t3, t3, a4
1800020a4: 9b 8e 0e 03 	addiw	t4, t4, 0x30
1800020a8: a3 8f d6 ff 	sb	t4, -0x1(a3)
1800020ac: e3 12 0e fe 	bnez	t3, 0x180002090 <_ftoa+0x140>
1800020b0: 13 f7 38 00 	andi	a4, a7, 0x3
1800020b4: 93 06 10 00 	li	a3, 0x1
1800020b8: 63 00 d7 2e 	beq	a4, a3, 0x180002398 <_ftoa+0x448>
1800020bc: 13 07 00 02 	li	a4, 0x20
1800020c0: 63 0e e3 00 	beq	t1, a4, 0x1800020dc <_ftoa+0x18c>
1800020c4: 63 86 05 22 	beqz	a1, 0x1800022f0 <_ftoa+0x3a0>
1800020c8: 13 07 03 02 	addi	a4, t1, 0x20
1800020cc: 33 07 27 00 	add	a4, a4, sp
1800020d0: 93 06 d0 02 	li	a3, 0x2d
1800020d4: 23 00 d7 fe 	sb	a3, -0x20(a4)
1800020d8: 13 03 13 00 	addi	t1, t1, 0x1
1800020dc: 13 88 07 00 	mv	a6, a5
1800020e0: 93 86 04 00 	mv	a3, s1
1800020e4: 13 06 04 00 	mv	a2, s0
1800020e8: 93 07 03 00 	mv	a5, t1
1800020ec: 13 07 0f 00 	mv	a4, t5
1800020f0: 93 85 03 00 	mv	a1, t2
1800020f4: 13 85 02 00 	mv	a0, t0
1800020f8: ef f0 5f 90 	jal	0x1800019fc <_out_rev>
1800020fc: 83 30 81 03 	ld	ra, 0x38(sp)
180002100: 03 34 01 03 	ld	s0, 0x30(sp)
180002104: 83 34 81 02 	ld	s1, 0x28(sp)
180002108: 03 39 01 02 	ld	s2, 0x20(sp)
18000210c: 13 01 01 04 	addi	sp, sp, 0x40
180002110: 67 80 00 00 	ret
180002114: 13 f7 48 00 	andi	a4, a7, 0x4
180002118: 63 16 07 06 	bnez	a4, 0x180002184 <_ftoa+0x234>
18000211c: 17 27 00 00 	auipc	a4, 0x2
180002120: 13 07 47 87 	addi	a4, a4, -0x78c
180002124: 93 06 30 00 	li	a3, 0x3
180002128: 13 06 04 00 	mv	a2, s0
18000212c: 03 34 01 03 	ld	s0, 0x30(sp)
180002130: 83 30 81 03 	ld	ra, 0x38(sp)
180002134: 03 39 01 02 	ld	s2, 0x20(sp)
180002138: 13 88 07 00 	mv	a6, a5
18000213c: 93 87 06 00 	mv	a5, a3
180002140: 93 86 04 00 	mv	a3, s1
180002144: 83 34 81 02 	ld	s1, 0x28(sp)
180002148: 93 85 03 00 	mv	a1, t2
18000214c: 13 85 02 00 	mv	a0, t0
180002150: 13 01 01 04 	addi	sp, sp, 0x40
180002154: 6f f0 9f 8a 	j	0x1800019fc <_out_rev>
180002158: 13 88 07 00 	mv	a6, a5
18000215c: 17 27 00 00 	auipc	a4, 0x2
180002160: 13 07 c7 83 	addi	a4, a4, -0x7c4
180002164: 93 07 30 00 	li	a5, 0x3
180002168: 6f f0 5f 89 	j	0x1800019fc <_out_rev>
18000216c: 17 37 00 00 	auipc	a4, 0x3
180002170: 07 37 47 b3 	fld	fa4, -0x4cc(a4)
180002174: 93 0f 60 00 	li	t6, 0x6
180002178: 13 03 00 00 	li	t1, 0x0
18000217c: 13 0f 01 00 	mv	t5, sp
180002180: 6f f0 9f e9 	j	0x180002018 <_ftoa+0xc8>
180002184: 17 27 00 00 	auipc	a4, 0x2
180002188: 13 07 47 80 	addi	a4, a4, -0x7fc
18000218c: 93 06 40 00 	li	a3, 0x4
180002190: 6f f0 9f f9 	j	0x180002128 <_ftoa+0x1d8>
180002194: 53 75 a7 0a 	fsub.d	fa0, fa4, fa0
180002198: 93 05 10 00 	li	a1, 0x1
18000219c: 6f f0 5f e3 	j	0x180001fd0 <_ftoa+0x80>
1800021a0: 13 06 04 00 	mv	a2, s0
1800021a4: 03 34 01 03 	ld	s0, 0x30(sp)
1800021a8: 83 30 81 03 	ld	ra, 0x38(sp)
1800021ac: 03 39 01 02 	ld	s2, 0x20(sp)
1800021b0: 93 86 04 00 	mv	a3, s1
1800021b4: 83 34 81 02 	ld	s1, 0x28(sp)
1800021b8: 13 88 08 00 	mv	a6, a7
1800021bc: 93 85 03 00 	mv	a1, t2
1800021c0: 13 85 02 00 	mv	a0, t0
1800021c4: 13 01 01 04 	addi	sp, sp, 0x40
1800021c8: 6f 00 80 1d 	j	0x1800023a0 <_etoa>
1800021cc: 13 88 07 00 	mv	a6, a5
1800021d0: 17 17 00 00 	auipc	a4, 0x1
1800021d4: 13 07 07 7d 	addi	a4, a4, 0x7d0
1800021d8: 93 07 40 00 	li	a5, 0x4
1800021dc: 6f f0 1f 82 	j	0x1800019fc <_out_rev>
1800021e0: 13 f7 38 00 	andi	a4, a7, 0x3
1800021e4: 93 06 10 00 	li	a3, 0x1
1800021e8: e3 1a d7 ee 	bne	a4, a3, 0x1800020dc <_ftoa+0x18c>
1800021ec: e3 88 07 ee 	beqz	a5, 0x1800020dc <_ftoa+0x18c>
1800021f0: 63 96 05 16 	bnez	a1, 0x18000235c <_ftoa+0x40c>
1800021f4: 13 f7 c8 00 	andi	a4, a7, 0xc
1800021f8: 63 12 07 16 	bnez	a4, 0x18000235c <_ftoa+0x40c>
1800021fc: 13 96 07 02 	slli	a2, a5, 0x20
180002200: 13 56 06 02 	srli	a2, a2, 0x20
180002204: 63 72 c3 0e 	bgeu	t1, a2, 0x1800022e8 <_ftoa+0x398>
180002208: 13 07 00 02 	li	a4, 0x20
18000220c: 93 06 00 03 	li	a3, 0x30
180002210: 13 05 00 02 	li	a0, 0x20
180002214: 63 0c e3 00 	beq	t1, a4, 0x18000222c <_ftoa+0x2dc>
180002218: 13 03 13 00 	addi	t1, t1, 0x1
18000221c: 33 07 6f 00 	add	a4, t5, t1
180002220: a3 0f d7 fe 	sb	a3, -0x1(a4)
180002224: e3 0c c3 e8 	beq	t1, a2, 0x1800020bc <_ftoa+0x16c>
180002228: e3 18 a3 fe 	bne	t1, a0, 0x180002218 <_ftoa+0x2c8>
18000222c: 13 03 00 02 	li	t1, 0x20
180002230: 6f f0 df ea 	j	0x1800020dc <_ftoa+0x18c>
180002234: 9b 80 0f fe 	addiw	ra, t6, -0x20
180002238: bb 80 60 00 	addw	ra, ra, t1
18000223c: 13 06 a0 00 	li	a2, 0xa
180002240: 13 09 90 00 	li	s2, 0x9
180002244: 6f 00 80 02 	j	0x18000226c <_ftoa+0x31c>
180002248: b3 76 c7 02 	remu	a3, a4, a2
18000224c: 1b 88 ff ff 	addiw	a6, t6, -0x1
180002250: 9b 86 06 03 	addiw	a3, a3, 0x30
180002254: a3 0f d5 fe 	sb	a3, -0x1(a0)
180002258: b3 56 c7 02 	divu	a3, a4, a2
18000225c: 63 7c e9 02 	bgeu	s2, a4, 0x180002294 <_ftoa+0x344>
180002260: 93 0f 08 00 	mv	t6, a6
180002264: 13 83 0e 00 	mv	t1, t4
180002268: 13 87 06 00 	mv	a4, a3
18000226c: 93 0e 13 00 	addi	t4, t1, 0x1
180002270: 33 05 df 01 	add	a0, t5, t4
180002274: e3 9a 1f fc 	bne	t6, ra, 0x180002248 <_ftoa+0x2f8>
180002278: 13 03 00 02 	li	t1, 0x20
18000227c: 6f f0 df e0 	j	0x180002088 <_ftoa+0x138>
180002280: d3 96 d7 a2 	flt.d	a3, fa5, fa3
180002284: e3 9e 06 dc 	bnez	a3, 0x180002060 <_ftoa+0x110>
180002288: 63 12 07 0c 	bnez	a4, 0x18000234c <_ftoa+0x3fc>
18000228c: 13 07 17 00 	addi	a4, a4, 0x1
180002290: 6f f0 1f dd 	j	0x180002060 <_ftoa+0x110>
180002294: 13 07 00 02 	li	a4, 0x20
180002298: e3 80 ee fe 	beq	t4, a4, 0x180002278 <_ftoa+0x328>
18000229c: 9b 8f ef ff 	addiw	t6, t6, -0x2
1800022a0: 63 0c 08 06 	beqz	a6, 0x180002318 <_ftoa+0x3c8>
1800022a4: 93 9f 0f 02 	slli	t6, t6, 0x20
1800022a8: 13 03 23 00 	addi	t1, t1, 0x2
1800022ac: 93 df 0f 02 	srli	t6, t6, 0x20
1800022b0: 33 03 f3 01 	add	t1, t1, t6
1800022b4: 13 06 00 03 	li	a2, 0x30
1800022b8: 93 06 00 02 	li	a3, 0x20
1800022bc: 6f 00 80 00 	j	0x1800022c4 <_ftoa+0x374>
1800022c0: 63 8e 6e 04 	beq	t4, t1, 0x18000231c <_ftoa+0x3cc>
1800022c4: 93 8e 1e 00 	addi	t4, t4, 0x1
1800022c8: 33 07 df 01 	add	a4, t5, t4
1800022cc: a3 0f c7 fe 	sb	a2, -0x1(a4)
1800022d0: e3 98 de fe 	bne	t4, a3, 0x1800022c0 <_ftoa+0x370>
1800022d4: 13 03 00 02 	li	t1, 0x20
1800022d8: 6f f0 1f db 	j	0x180002088 <_ftoa+0x138>
1800022dc: 53 87 f7 22 	fmv.d	fa4, fa5
1800022e0: 13 03 00 02 	li	t1, 0x20
1800022e4: 6f f0 5f d3 	j	0x180002018 <_ftoa+0xc8>
1800022e8: 13 07 00 02 	li	a4, 0x20
1800022ec: e3 08 e3 de 	beq	t1, a4, 0x1800020dc <_ftoa+0x18c>
1800022f0: 13 f7 48 00 	andi	a4, a7, 0x4
1800022f4: 63 10 07 04 	bnez	a4, 0x180002334 <_ftoa+0x3e4>
1800022f8: 13 f7 88 00 	andi	a4, a7, 0x8
1800022fc: e3 00 07 de 	beqz	a4, 0x1800020dc <_ftoa+0x18c>
180002300: 13 07 03 02 	addi	a4, t1, 0x20
180002304: 33 07 27 00 	add	a4, a4, sp
180002308: 93 06 00 02 	li	a3, 0x20
18000230c: 23 00 d7 fe 	sb	a3, -0x20(a4)
180002310: 13 03 13 00 	addi	t1, t1, 0x1
180002314: 6f f0 9f dc 	j	0x1800020dc <_ftoa+0x18c>
180002318: 13 83 0e 00 	mv	t1, t4
18000231c: 13 07 03 02 	addi	a4, t1, 0x20
180002320: 33 07 27 00 	add	a4, a4, sp
180002324: 93 06 e0 02 	li	a3, 0x2e
180002328: 13 03 13 00 	addi	t1, t1, 0x1
18000232c: 23 00 d7 fe 	sb	a3, -0x20(a4)
180002330: 6f f0 9f d5 	j	0x180002088 <_ftoa+0x138>
180002334: 13 07 03 02 	addi	a4, t1, 0x20
180002338: 33 07 27 00 	add	a4, a4, sp
18000233c: 93 06 b0 02 	li	a3, 0x2b
180002340: 23 00 d7 fe 	sb	a3, -0x20(a4)
180002344: 13 03 13 00 	addi	t1, t1, 0x1
180002348: 6f f0 5f d9 	j	0x1800020dc <_ftoa+0x18c>
18000234c: 93 76 17 00 	andi	a3, a4, 0x1
180002350: e3 88 06 d0 	beqz	a3, 0x180002060 <_ftoa+0x110>
180002354: 13 07 17 00 	addi	a4, a4, 0x1
180002358: 6f f0 9f d0 	j	0x180002060 <_ftoa+0x110>
18000235c: 9b 87 f7 ff 	addiw	a5, a5, -0x1
180002360: 13 96 07 02 	slli	a2, a5, 0x20
180002364: 13 56 06 02 	srli	a2, a2, 0x20
180002368: e3 60 c3 ea 	bltu	t1, a2, 0x180002208 <_ftoa+0x2b8>
18000236c: 6f f0 1f d5 	j	0x1800020bc <_ftoa+0x16c>
180002370: 93 16 07 02 	slli	a3, a4, 0x20
180002374: 13 d6 d6 01 	srli	a2, a3, 0x1d
180002378: 97 16 00 00 	auipc	a3, 0x1
18000237c: 93 86 06 7d 	addi	a3, a3, 0x7d0
180002380: b3 86 c6 00 	add	a3, a3, a2
180002384: 07 b7 06 00 	fld	fa4, 0x0(a3)
180002388: 93 0f 07 00 	mv	t6, a4
18000238c: 13 03 00 00 	li	t1, 0x0
180002390: 13 0f 01 00 	mv	t5, sp
180002394: 6f f0 5f c8 	j	0x180002018 <_ftoa+0xc8>
180002398: e3 82 07 d2 	beqz	a5, 0x1800020bc <_ftoa+0x16c>
18000239c: 6f f0 5f e5 	j	0x1800021f0 <_ftoa+0x2a0>

00000001800023a0 <_etoa>:
1800023a0: d3 28 a5 a2 	feq.d	a7, fa0, fa0
1800023a4: 13 01 01 f9 	addi	sp, sp, -0x70
1800023a8: 23 30 81 06 	sd	s0, 0x60(sp)
1800023ac: 23 38 21 05 	sd	s2, 0x50(sp)
1800023b0: 23 34 31 05 	sd	s3, 0x48(sp)
1800023b4: 23 30 41 05 	sd	s4, 0x40(sp)
1800023b8: 23 3c 51 03 	sd	s5, 0x38(sp)
1800023bc: 23 38 61 03 	sd	s6, 0x30(sp)
1800023c0: 23 34 11 06 	sd	ra, 0x68(sp)
1800023c4: 23 3c 91 04 	sd	s1, 0x58(sp)
1800023c8: 23 34 71 03 	sd	s7, 0x28(sp)
1800023cc: 23 30 81 03 	sd	s8, 0x20(sp)
1800023d0: 23 3c 91 01 	sd	s9, 0x18(sp)
1800023d4: 13 0a 05 00 	mv	s4, a0
1800023d8: 93 8a 05 00 	mv	s5, a1
1800023dc: 13 09 06 00 	mv	s2, a2
1800023e0: 13 8b 06 00 	mv	s6, a3
1800023e4: 93 89 07 00 	mv	s3, a5
1800023e8: 13 04 08 00 	mv	s0, a6
1800023ec: 63 84 08 2e 	beqz	a7, 0x1800026d4 <_etoa+0x334>
1800023f0: 97 37 00 00 	auipc	a5, 0x3
1800023f4: 87 b7 07 8c 	fld	fa5, -0x740(a5)
1800023f8: d3 97 a7 a2 	flt.d	a5, fa5, fa0
1800023fc: 63 9c 07 2c 	bnez	a5, 0x1800026d4 <_etoa+0x334>
180002400: 97 37 00 00 	auipc	a5, 0x3
180002404: 87 b7 87 8a 	fld	fa5, -0x758(a5)
180002408: d3 17 f5 a2 	flt.d	a5, fa0, fa5
18000240c: 63 94 07 2c 	bnez	a5, 0x1800026d4 <_etoa+0x334>
180002410: d3 07 00 f2 	fmv.d.x	fa5, zero
180002414: d3 06 05 e2 	fmv.x.d	a3, fa0
180002418: d3 17 f5 a2 	flt.d	a5, fa0, fa5
18000241c: 63 86 07 00 	beqz	a5, 0x180002428 <_etoa+0x88>
180002420: d3 17 a5 22 	fneg.d	fa5, fa0
180002424: d3 86 07 e2 	fmv.x.d	a3, fa5
180002428: 93 75 04 40 	andi	a1, s0, 0x400
18000242c: 63 94 05 00 	bnez	a1, 0x180002434 <_etoa+0x94>
180002430: 13 07 60 00 	li	a4, 0x6
180002434: 93 d7 46 03 	srli	a5, a3, 0x34
180002438: 93 f7 f7 7f 	andi	a5, a5, 0x7ff
18000243c: 17 36 00 00 	auipc	a2, 0x3
180002440: 87 36 c6 88 	fld	fa3, -0x774(a2)
180002444: 17 36 00 00 	auipc	a2, 0x3
180002448: 07 37 c6 88 	fld	fa4, -0x774(a2)
18000244c: 9b 87 17 c0 	addiw	a5, a5, -0x3ff
180002450: 53 86 07 d2 	fcvt.d.w	fa2, a5
180002454: 13 06 f0 3f 	li	a2, 0x3ff
180002458: 93 97 c6 00 	slli	a5, a3, 0xc
18000245c: 13 16 46 03 	slli	a2, a2, 0x34
180002460: 93 d7 c7 00 	srli	a5, a5, 0xc
180002464: b3 e7 c7 00 	or	a5, a5, a2
180002468: 43 76 d6 72 	fmadd.d	fa2, fa2, fa3, fa4
18000246c: 53 87 07 f2 	fmv.d.x	fa4, a5
180002470: 17 36 00 00 	auipc	a2, 0x3
180002474: 87 37 86 86 	fld	fa5, -0x798(a2)
180002478: 97 37 00 00 	auipc	a5, 0x3
18000247c: 87 b5 87 86 	fld	fa1, -0x798(a5)
180002480: d3 77 f7 0a 	fsub.d	fa5, fa4, fa5
180002484: 97 37 00 00 	auipc	a5, 0x3
180002488: 87 b6 47 86 	fld	fa3, -0x79c(a5)
18000248c: 97 37 00 00 	auipc	a5, 0x3
180002490: 07 b2 47 83 	fld	ft4, -0x7cc(a5)
180002494: 97 37 00 00 	auipc	a5, 0x3
180002498: 87 b1 c7 85 	fld	ft3, -0x7a4(a5)
18000249c: 97 37 00 00 	auipc	a5, 0x3
1800024a0: 07 b1 c7 85 	fld	ft2, -0x7a4(a5)
1800024a4: 97 37 00 00 	auipc	a5, 0x3
1800024a8: 07 b7 c7 85 	fld	fa4, -0x7a4(a5)
1800024ac: 97 37 00 00 	auipc	a5, 0x3
1800024b0: 87 b0 47 86 	fld	ft1, -0x79c(a5)
1800024b4: c3 f7 b7 62 	fmadd.d	fa5, fa5, fa1, fa2
1800024b8: 97 37 00 00 	auipc	a5, 0x3
1800024bc: 07 b0 87 86 	fld	ft0, -0x798(a5)
1800024c0: 97 37 00 00 	auipc	a5, 0x3
1800024c4: 87 b5 87 84 	fld	fa1, -0x7b8(a5)
1800024c8: 97 37 00 00 	auipc	a5, 0x3
1800024cc: 07 b6 07 85 	fld	fa2, -0x7b0(a5)
1800024d0: 53 96 07 c2 	fcvt.w.d	a2, fa5, rtz
1800024d4: d3 07 06 d2 	fcvt.d.w	fa5, a2
1800024d8: 1b 0c 06 00 	sext.w	s8, a2
1800024dc: c3 f6 d7 22 	fmadd.d	fa3, fa5, fa3, ft4
1800024e0: d3 97 06 c2 	fcvt.w.d	a5, fa3, rtz
1800024e4: d3 86 07 d2 	fcvt.d.w	fa3, a5
1800024e8: 9b 87 f7 3f 	addiw	a5, a5, 0x3ff
1800024ec: 93 97 47 03 	slli	a5, a5, 0x34
1800024f0: d3 f6 36 12 	fmul.d	fa3, fa3, ft3
1800024f4: c7 f7 27 6a 	fmsub.d	fa5, fa5, ft2, fa3
1800024f8: d3 f6 f7 12 	fmul.d	fa3, fa5, fa5
1800024fc: 53 76 f6 0a 	fsub.d	fa2, fa2, fa5
180002500: d3 f7 f7 02 	fadd.d	fa5, fa5, fa5
180002504: 53 f7 e6 1a 	fdiv.d	fa4, fa3, fa4
180002508: 53 77 b7 02 	fadd.d	fa4, fa4, fa1
18000250c: 53 f7 e6 1a 	fdiv.d	fa4, fa3, fa4
180002510: 53 77 17 02 	fadd.d	fa4, fa4, ft1
180002514: d3 f6 e6 1a 	fdiv.d	fa3, fa3, fa4
180002518: 53 87 07 f2 	fmv.d.x	fa4, a5
18000251c: d3 f6 c6 02 	fadd.d	fa3, fa3, fa2
180002520: d3 f7 d7 1a 	fdiv.d	fa5, fa5, fa3
180002524: d3 f7 07 02 	fadd.d	fa5, fa5, ft0
180002528: d3 f7 e7 12 	fmul.d	fa5, fa5, fa4
18000252c: 53 87 06 f2 	fmv.d.x	fa4, a3
180002530: d3 17 f7 a2 	flt.d	a5, fa4, fa5
180002534: 63 86 07 00 	beqz	a5, 0x180002540 <_etoa+0x1a0>
180002538: d3 f7 b7 1a 	fdiv.d	fa5, fa5, fa1
18000253c: 1b 0c f6 ff 	addiw	s8, a2, -0x1
180002540: 9b 0c 3c 06 	addiw	s9, s8, 0x63
180002544: 93 57 b4 00 	srli	a5, s0, 0xb
180002548: 13 06 60 0c 	li	a2, 0xc6
18000254c: b3 3c 96 01 	sltu	s9, a2, s9
180002550: 93 f7 17 00 	andi	a5, a5, 0x1
180002554: 93 8c 4c 00 	addi	s9, s9, 0x4
180002558: 63 84 07 04 	beqz	a5, 0x1800025a0 <_etoa+0x200>
18000255c: d3 86 06 f2 	fmv.d.x	fa3, a3
180002560: 97 27 00 00 	auipc	a5, 0x2
180002564: 07 b7 87 7c 	fld	fa4, 0x7c8(a5)
180002568: d3 07 d7 a2 	fle.d	a5, fa4, fa3
18000256c: 63 82 07 1c 	beqz	a5, 0x180002730 <_etoa+0x390>
180002570: 97 27 00 00 	auipc	a5, 0x2
180002574: 07 b7 07 73 	fld	fa4, 0x730(a5)
180002578: d3 97 e6 a2 	flt.d	a5, fa3, fa4
18000257c: 63 8a 07 1a 	beqz	a5, 0x180002730 <_etoa+0x390>
180002580: 9b 07 07 00 	sext.w	a5, a4
180002584: 13 07 00 00 	li	a4, 0x0
180002588: 63 56 fc 00 	bge	s8, a5, 0x180002594 <_etoa+0x1f4>
18000258c: bb 87 87 41 	subw	a5, a5, s8
180002590: 1b 87 f7 ff 	addiw	a4, a5, -0x1
180002594: 13 64 04 40 	ori	s0, s0, 0x400
180002598: 93 0c 00 00 	li	s9, 0x0
18000259c: 13 0c 00 00 	li	s8, 0x0
1800025a0: 93 07 00 00 	li	a5, 0x0
1800025a4: 63 f4 3c 01 	bgeu	s9, s3, 0x1800025ac <_etoa+0x20c>
1800025a8: bb 87 99 41 	subw	a5, s3, s9
1800025ac: 93 7b 24 00 	andi	s7, s0, 0x2
1800025b0: 63 88 0b 00 	beqz	s7, 0x1800025c0 <_etoa+0x220>
1800025b4: 13 b6 1c 00 	seqz	a2, s9
1800025b8: 33 06 c0 40 	neg	a2, a2
1800025bc: b3 f7 c7 00 	and	a5, a5, a2
1800025c0: 63 10 0c 16 	bnez	s8, 0x180002720 <_etoa+0x380>
1800025c4: d3 07 00 f2 	fmv.d.x	fa5, zero
1800025c8: 53 16 f5 a2 	flt.d	a2, fa0, fa5
1800025cc: 63 08 06 00 	beqz	a2, 0x1800025dc <_etoa+0x23c>
1800025d0: d3 87 06 f2 	fmv.d.x	fa5, a3
1800025d4: d3 97 f7 22 	fneg.d	fa5, fa5
1800025d8: d3 86 07 e2 	fmv.x.d	a3, fa5
1800025dc: 53 85 06 f2 	fmv.d.x	fa0, a3
1800025e0: 37 f8 ff ff 	lui	a6, 0xfffff
1800025e4: 13 08 f8 7f 	addi	a6, a6, 0x7ff
1800025e8: 33 78 04 01 	and	a6, s0, a6
1800025ec: 93 06 0b 00 	mv	a3, s6
1800025f0: 13 06 09 00 	mv	a2, s2
1800025f4: 93 85 0a 00 	mv	a1, s5
1800025f8: 13 05 0a 00 	mv	a0, s4
1800025fc: ef f0 5f 95 	jal	0x180001f50 <_ftoa>
180002600: 93 04 05 00 	mv	s1, a0
180002604: 63 8c 0c 08 	beqz	s9, 0x18000269c <_etoa+0x2fc>
180002608: 13 74 04 02 	andi	s0, s0, 0x20
18000260c: 13 05 50 06 	li	a0, 0x65
180002610: 63 04 04 00 	beqz	s0, 0x180002618 <_etoa+0x278>
180002614: 13 05 50 04 	li	a0, 0x45
180002618: 13 86 04 00 	mv	a2, s1
18000261c: 93 06 0b 00 	mv	a3, s6
180002620: 93 85 0a 00 	mv	a1, s5
180002624: e7 00 0a 00 	jalr	s4
180002628: 1b 57 fc 41 	sraiw	a4, s8, 0x1f
18000262c: b3 46 ec 00 	xor	a3, s8, a4
180002630: 9b 87 fc ff 	addiw	a5, s9, -0x1
180002634: 93 05 50 00 	li	a1, 0x5
180002638: 13 86 14 00 	addi	a2, s1, 0x1
18000263c: 23 34 b1 00 	sd	a1, 0x8(sp)
180002640: 23 30 f1 00 	sd	a5, 0x0(sp)
180002644: 3b 87 e6 40 	subw	a4, a3, a4
180002648: 93 08 00 00 	li	a7, 0x0
18000264c: 13 08 a0 00 	li	a6, 0xa
180002650: 9b 57 fc 01 	srliw	a5, s8, 0x1f
180002654: 93 06 0b 00 	mv	a3, s6
180002658: 93 85 0a 00 	mv	a1, s5
18000265c: 13 05 0a 00 	mv	a0, s4
180002660: ef f0 8f cd 	jal	0x180001b38 <_ntoa_long_long>
180002664: 93 04 05 00 	mv	s1, a0
180002668: 63 8a 0b 02 	beqz	s7, 0x18000269c <_etoa+0x2fc>
18000266c: 93 99 09 02 	slli	s3, s3, 0x20
180002670: 33 09 25 41 	sub	s2, a0, s2
180002674: 93 d9 09 02 	srli	s3, s3, 0x20
180002678: 63 72 39 03 	bgeu	s2, s3, 0x18000269c <_etoa+0x2fc>
18000267c: 13 86 04 00 	mv	a2, s1
180002680: 13 09 19 00 	addi	s2, s2, 0x1
180002684: 93 06 0b 00 	mv	a3, s6
180002688: 93 85 0a 00 	mv	a1, s5
18000268c: 13 05 00 02 	li	a0, 0x20
180002690: 93 84 14 00 	addi	s1, s1, 0x1
180002694: e7 00 0a 00 	jalr	s4
180002698: e3 62 39 ff 	bltu	s2, s3, 0x18000267c <_etoa+0x2dc>
18000269c: 83 30 81 06 	ld	ra, 0x68(sp)
1800026a0: 03 34 01 06 	ld	s0, 0x60(sp)
1800026a4: 03 39 01 05 	ld	s2, 0x50(sp)
1800026a8: 83 39 81 04 	ld	s3, 0x48(sp)
1800026ac: 03 3a 01 04 	ld	s4, 0x40(sp)
1800026b0: 83 3a 81 03 	ld	s5, 0x38(sp)
1800026b4: 03 3b 01 03 	ld	s6, 0x30(sp)
1800026b8: 83 3b 81 02 	ld	s7, 0x28(sp)
1800026bc: 03 3c 01 02 	ld	s8, 0x20(sp)
1800026c0: 83 3c 81 01 	ld	s9, 0x18(sp)
1800026c4: 13 85 04 00 	mv	a0, s1
1800026c8: 83 34 81 05 	ld	s1, 0x58(sp)
1800026cc: 13 01 01 07 	addi	sp, sp, 0x70
1800026d0: 67 80 00 00 	ret
1800026d4: 13 08 04 00 	mv	a6, s0
1800026d8: 03 34 01 06 	ld	s0, 0x60(sp)
1800026dc: 83 30 81 06 	ld	ra, 0x68(sp)
1800026e0: 83 34 81 05 	ld	s1, 0x58(sp)
1800026e4: 83 3b 81 02 	ld	s7, 0x28(sp)
1800026e8: 03 3c 01 02 	ld	s8, 0x20(sp)
1800026ec: 83 3c 81 01 	ld	s9, 0x18(sp)
1800026f0: 93 87 09 00 	mv	a5, s3
1800026f4: 93 06 0b 00 	mv	a3, s6
1800026f8: 83 39 81 04 	ld	s3, 0x48(sp)
1800026fc: 03 3b 01 03 	ld	s6, 0x30(sp)
180002700: 13 06 09 00 	mv	a2, s2
180002704: 93 85 0a 00 	mv	a1, s5
180002708: 03 39 01 05 	ld	s2, 0x50(sp)
18000270c: 83 3a 81 03 	ld	s5, 0x38(sp)
180002710: 13 05 0a 00 	mv	a0, s4
180002714: 03 3a 01 04 	ld	s4, 0x40(sp)
180002718: 13 01 01 07 	addi	sp, sp, 0x70
18000271c: 6f f0 5f 83 	j	0x180001f50 <_ftoa>
180002720: 53 87 06 f2 	fmv.d.x	fa4, a3
180002724: d3 77 f7 1a 	fdiv.d	fa5, fa4, fa5
180002728: d3 86 07 e2 	fmv.x.d	a3, fa5
18000272c: 6f f0 9f e9 	j	0x1800025c4 <_etoa+0x224>
180002730: e3 08 07 e6 	beqz	a4, 0x1800025a0 <_etoa+0x200>
180002734: e3 86 05 e6 	beqz	a1, 0x1800025a0 <_etoa+0x200>
180002738: 1b 07 f7 ff 	addiw	a4, a4, -0x1
18000273c: 6f f0 5f e6 	j	0x1800025a0 <_etoa+0x200>

0000000180002740 <_vsnprintf>:
180002740: 13 01 01 f6 	addi	sp, sp, -0xa0
180002744: 23 34 91 08 	sd	s1, 0x88(sp)
180002748: 23 30 21 09 	sd	s2, 0x80(sp)
18000274c: 23 3c 31 07 	sd	s3, 0x78(sp)
180002750: 23 34 51 07 	sd	s5, 0x68(sp)
180002754: 23 38 81 05 	sd	s8, 0x50(sp)
180002758: 23 3c 11 08 	sd	ra, 0x98(sp)
18000275c: 23 38 81 08 	sd	s0, 0x90(sp)
180002760: 23 38 41 07 	sd	s4, 0x70(sp)
180002764: 23 30 61 07 	sd	s6, 0x60(sp)
180002768: 23 3c 71 05 	sd	s7, 0x58(sp)
18000276c: 23 34 91 05 	sd	s9, 0x48(sp)
180002770: 23 30 a1 05 	sd	s10, 0x40(sp)
180002774: 23 3c b1 03 	sd	s11, 0x38(sp)
180002778: 13 89 05 00 	mv	s2, a1
18000277c: 93 04 06 00 	mv	s1, a2
180002780: 93 8a 06 00 	mv	s5, a3
180002784: 13 0c 07 00 	mv	s8, a4
180002788: 97 f9 ff ff 	auipc	s3, 0xfffff
18000278c: 93 89 09 27 	addi	s3, s3, 0x270
180002790: 63 84 05 00 	beqz	a1, 0x180002798 <_vsnprintf+0x58>
180002794: 93 09 05 00 	mv	s3, a0
180002798: 03 c5 0a 00 	lbu	a0, 0x0(s5)
18000279c: 93 0b 00 00 	li	s7, 0x0
1800027a0: 63 0e 05 6a 	beqz	a0, 0x180002e5c <_vsnprintf+0x71c>
1800027a4: b7 97 00 00 	lui	a5, 0x9
1800027a8: 93 87 17 04 	addi	a5, a5, 0x41
1800027ac: 13 0a 50 02 	li	s4, 0x25
1800027b0: 17 1b 00 00 	auipc	s6, 0x1
1800027b4: 13 0b 8b 1f 	addi	s6, s6, 0x1f8
1800027b8: 23 3c f1 00 	sd	a5, 0x18(sp)
1800027bc: 6f 00 00 02 	j	0x1800027dc <_vsnprintf+0x9c>
1800027c0: 13 86 0b 00 	mv	a2, s7
1800027c4: 93 86 04 00 	mv	a3, s1
1800027c8: 93 05 09 00 	mv	a1, s2
1800027cc: 93 8b 1b 00 	addi	s7, s7, 0x1
1800027d0: e7 80 09 00 	jalr	s3
1800027d4: 03 c5 0a 00 	lbu	a0, 0x0(s5)
1800027d8: 63 06 05 1a 	beqz	a0, 0x180002984 <_vsnprintf+0x244>
1800027dc: 93 8a 1a 00 	addi	s5, s5, 0x1
1800027e0: e3 10 45 ff 	bne	a0, s4, 0x1800027c0 <_vsnprintf+0x80>
1800027e4: 13 04 00 00 	li	s0, 0x0
1800027e8: 13 07 00 01 	li	a4, 0x10
1800027ec: 03 c5 0a 00 	lbu	a0, 0x0(s5)
1800027f0: 93 86 1a 00 	addi	a3, s5, 0x1
1800027f4: 9b 07 05 fe 	addiw	a5, a0, -0x20
1800027f8: 93 f7 f7 0f 	andi	a5, a5, 0xff
1800027fc: 63 6c f7 00 	bltu	a4, a5, 0x180002814 <_vsnprintf+0xd4>
180002800: 93 97 27 00 	slli	a5, a5, 0x2
180002804: b3 87 67 01 	add	a5, a5, s6
180002808: 83 a7 07 00 	lw	a5, 0x0(a5)
18000280c: b3 87 67 01 	add	a5, a5, s6
180002810: 67 80 07 00 	jr	a5
180002814: 9b 07 05 fd 	addiw	a5, a0, -0x30
180002818: 93 f7 f7 0f 	andi	a5, a5, 0xff
18000281c: 13 07 90 00 	li	a4, 0x9
180002820: 63 72 f7 1c 	bgeu	a4, a5, 0x1800029e4 <_vsnprintf+0x2a4>
180002824: 13 07 a0 02 	li	a4, 0x2a
180002828: 93 0d 00 00 	li	s11, 0x0
18000282c: 63 06 e5 22 	beq	a0, a4, 0x180002a58 <_vsnprintf+0x318>
180002830: 13 07 e0 02 	li	a4, 0x2e
180002834: 93 0c 00 00 	li	s9, 0x0
180002838: 63 06 e5 1e 	beq	a0, a4, 0x180002a24 <_vsnprintf+0x2e4>
18000283c: 1b 06 85 f9 	addiw	a2, a0, -0x68
180002840: 13 76 f6 0f 	andi	a2, a2, 0xff
180002844: 13 07 20 01 	li	a4, 0x12
180002848: 63 60 c7 08 	bltu	a4, a2, 0x1800028c8 <_vsnprintf+0x188>
18000284c: 97 17 00 00 	auipc	a5, 0x1
180002850: 93 87 07 1a 	addi	a5, a5, 0x1a0
180002854: 13 16 26 00 	slli	a2, a2, 0x2
180002858: 33 06 f6 00 	add	a2, a2, a5
18000285c: 03 27 06 00 	lw	a4, 0x0(a2)
180002860: 33 07 f7 00 	add	a4, a4, a5
180002864: 67 00 07 00 	jr	a4
180002868: 13 64 14 00 	ori	s0, s0, 0x1
18000286c: 1b 04 04 00 	sext.w	s0, s0
180002870: 93 8a 06 00 	mv	s5, a3
180002874: 6f f0 9f f7 	j	0x1800027ec <_vsnprintf+0xac>
180002878: 13 64 24 00 	ori	s0, s0, 0x2
18000287c: 1b 04 04 00 	sext.w	s0, s0
180002880: 93 8a 06 00 	mv	s5, a3
180002884: 6f f0 9f f6 	j	0x1800027ec <_vsnprintf+0xac>
180002888: 13 64 44 00 	ori	s0, s0, 0x4
18000288c: 1b 04 04 00 	sext.w	s0, s0
180002890: 93 8a 06 00 	mv	s5, a3
180002894: 6f f0 9f f5 	j	0x1800027ec <_vsnprintf+0xac>
180002898: 13 64 04 01 	ori	s0, s0, 0x10
18000289c: 1b 04 04 00 	sext.w	s0, s0
1800028a0: 93 8a 06 00 	mv	s5, a3
1800028a4: 6f f0 9f f4 	j	0x1800027ec <_vsnprintf+0xac>
1800028a8: 13 64 84 00 	ori	s0, s0, 0x8
1800028ac: 1b 04 04 00 	sext.w	s0, s0
1800028b0: 93 8a 06 00 	mv	s5, a3
1800028b4: 6f f0 9f f3 	j	0x1800027ec <_vsnprintf+0xac>
1800028b8: 03 c5 1a 00 	lbu	a0, 0x1(s5)
1800028bc: 13 64 04 10 	ori	s0, s0, 0x100
1800028c0: 1b 04 04 00 	sext.w	s0, s0
1800028c4: 93 86 16 00 	addi	a3, a3, 0x1
1800028c8: 13 07 70 06 	li	a4, 0x67
1800028cc: 93 8a 06 00 	mv	s5, a3
1800028d0: 63 6c a7 02 	bltu	a4, a0, 0x180002908 <_vsnprintf+0x1c8>
1800028d4: 13 07 40 02 	li	a4, 0x24
1800028d8: e3 74 a7 ee 	bgeu	a4, a0, 0x1800027c0 <_vsnprintf+0x80>
1800028dc: 1b 07 b5 fd 	addiw	a4, a0, -0x25
1800028e0: 13 77 f7 0f 	andi	a4, a4, 0xff
1800028e4: 93 06 20 04 	li	a3, 0x42
1800028e8: e3 ec e6 ec 	bltu	a3, a4, 0x1800027c0 <_vsnprintf+0x80>
1800028ec: 97 17 00 00 	auipc	a5, 0x1
1800028f0: 93 87 c7 14 	addi	a5, a5, 0x14c
1800028f4: 13 17 27 00 	slli	a4, a4, 0x2
1800028f8: 33 07 f7 00 	add	a4, a4, a5
1800028fc: 03 27 07 00 	lw	a4, 0x0(a4)
180002900: 33 07 f7 00 	add	a4, a4, a5
180002904: 67 00 07 00 	jr	a4
180002908: 1b 07 75 f9 	addiw	a4, a0, -0x69
18000290c: 13 77 f7 0f 	andi	a4, a4, 0xff
180002910: 93 06 f0 00 	li	a3, 0xf
180002914: e3 e6 e6 ea 	bltu	a3, a4, 0x1800027c0 <_vsnprintf+0x80>
180002918: 83 37 81 01 	ld	a5, 0x18(sp)
18000291c: 93 06 10 00 	li	a3, 0x1
180002920: b3 96 e6 00 	sll	a3, a3, a4
180002924: b3 f6 f6 00 	and	a3, a3, a5
180002928: 63 92 06 4e 	bnez	a3, 0x180002e0c <_vsnprintf+0x6cc>
18000292c: 93 06 a0 00 	li	a3, 0xa
180002930: 63 00 d7 2a 	beq	a4, a3, 0x180002bd0 <_vsnprintf+0x490>
180002934: 93 07 70 00 	li	a5, 0x7
180002938: e3 14 f7 e8 	bne	a4, a5, 0x1800027c0 <_vsnprintf+0x80>
18000293c: 93 67 14 02 	ori	a5, s0, 0x21
180002940: 03 37 0c 00 	ld	a4, 0x0(s8)
180002944: 9b 87 07 00 	sext.w	a5, a5
180002948: 23 34 f1 00 	sd	a5, 0x8(sp)
18000294c: 93 07 00 01 	li	a5, 0x10
180002950: 13 86 0b 00 	mv	a2, s7
180002954: 23 30 f1 00 	sd	a5, 0x0(sp)
180002958: 93 88 0c 00 	mv	a7, s9
18000295c: 13 08 00 01 	li	a6, 0x10
180002960: 93 07 00 00 	li	a5, 0x0
180002964: 93 86 04 00 	mv	a3, s1
180002968: 93 05 09 00 	mv	a1, s2
18000296c: 13 85 09 00 	mv	a0, s3
180002970: ef f0 8f 9c 	jal	0x180001b38 <_ntoa_long_long>
180002974: 93 0b 05 00 	mv	s7, a0
180002978: 03 c5 0a 00 	lbu	a0, 0x0(s5)
18000297c: 13 0c 8c 00 	addi	s8, s8, 0x8
180002980: e3 1e 05 e4 	bnez	a0, 0x1800027dc <_vsnprintf+0x9c>
180002984: 1b 84 0b 00 	sext.w	s0, s7
180002988: 63 e4 9b 00 	bltu	s7, s1, 0x180002990 <_vsnprintf+0x250>
18000298c: 93 8b f4 ff 	addi	s7, s1, -0x1
180002990: 93 86 04 00 	mv	a3, s1
180002994: 13 86 0b 00 	mv	a2, s7
180002998: 93 05 09 00 	mv	a1, s2
18000299c: 13 05 00 00 	li	a0, 0x0
1800029a0: e7 80 09 00 	jalr	s3
1800029a4: 83 30 81 09 	ld	ra, 0x98(sp)
1800029a8: 13 05 04 00 	mv	a0, s0
1800029ac: 03 34 01 09 	ld	s0, 0x90(sp)
1800029b0: 83 34 81 08 	ld	s1, 0x88(sp)
1800029b4: 03 39 01 08 	ld	s2, 0x80(sp)
1800029b8: 83 39 81 07 	ld	s3, 0x78(sp)
1800029bc: 03 3a 01 07 	ld	s4, 0x70(sp)
1800029c0: 83 3a 81 06 	ld	s5, 0x68(sp)
1800029c4: 03 3b 01 06 	ld	s6, 0x60(sp)
1800029c8: 83 3b 81 05 	ld	s7, 0x58(sp)
1800029cc: 03 3c 01 05 	ld	s8, 0x50(sp)
1800029d0: 83 3c 81 04 	ld	s9, 0x48(sp)
1800029d4: 03 3d 01 04 	ld	s10, 0x40(sp)
1800029d8: 83 3d 81 03 	ld	s11, 0x38(sp)
1800029dc: 13 01 01 0a 	addi	sp, sp, 0xa0
1800029e0: 67 80 00 00 	ret
1800029e4: 93 0d 00 00 	li	s11, 0x0
1800029e8: 13 06 90 00 	li	a2, 0x9
1800029ec: 1b 97 2d 00 	slliw	a4, s11, 0x2
1800029f0: 3b 07 b7 01 	addw	a4, a4, s11
1800029f4: 1b 17 17 00 	slliw	a4, a4, 0x1
1800029f8: 3b 07 a7 00 	addw	a4, a4, a0
1800029fc: 03 c5 06 00 	lbu	a0, 0x0(a3)
180002a00: 9b 0d 07 fd 	addiw	s11, a4, -0x30
180002a04: 93 8a 06 00 	mv	s5, a3
180002a08: 1b 07 05 fd 	addiw	a4, a0, -0x30
180002a0c: 13 77 f7 0f 	andi	a4, a4, 0xff
180002a10: 93 86 16 00 	addi	a3, a3, 0x1
180002a14: e3 7c e6 fc 	bgeu	a2, a4, 0x1800029ec <_vsnprintf+0x2ac>
180002a18: 13 07 e0 02 	li	a4, 0x2e
180002a1c: 93 0c 00 00 	li	s9, 0x0
180002a20: e3 1e e5 e0 	bne	a0, a4, 0x18000283c <_vsnprintf+0xfc>
180002a24: 03 c5 1a 00 	lbu	a0, 0x1(s5)
180002a28: 13 64 04 40 	ori	s0, s0, 0x400
180002a2c: 93 05 90 00 	li	a1, 0x9
180002a30: 1b 07 05 fd 	addiw	a4, a0, -0x30
180002a34: 13 77 f7 0f 	andi	a4, a4, 0xff
180002a38: 13 86 06 00 	mv	a2, a3
180002a3c: 1b 04 04 00 	sext.w	s0, s0
180002a40: 63 f0 e5 24 	bgeu	a1, a4, 0x180002c80 <_vsnprintf+0x540>
180002a44: 13 07 a0 02 	li	a4, 0x2a
180002a48: 63 08 e5 26 	beq	a0, a4, 0x180002cb8 <_vsnprintf+0x578>
180002a4c: 93 8a 06 00 	mv	s5, a3
180002a50: 93 86 16 00 	addi	a3, a3, 0x1
180002a54: 6f f0 9f de 	j	0x18000283c <_vsnprintf+0xfc>
180002a58: 03 27 0c 00 	lw	a4, 0x0(s8)
180002a5c: 13 0c 8c 00 	addi	s8, s8, 0x8
180002a60: 9b 0d 07 00 	sext.w	s11, a4
180002a64: 63 4a 07 00 	bltz	a4, 0x180002a78 <_vsnprintf+0x338>
180002a68: 03 c5 1a 00 	lbu	a0, 0x1(s5)
180002a6c: 93 8a 06 00 	mv	s5, a3
180002a70: 93 86 16 00 	addi	a3, a3, 0x1
180002a74: 6f f0 df db 	j	0x180002830 <_vsnprintf+0xf0>
180002a78: 13 64 24 00 	ori	s0, s0, 0x2
180002a7c: 03 c5 1a 00 	lbu	a0, 0x1(s5)
180002a80: 1b 04 04 00 	sext.w	s0, s0
180002a84: 93 8a 06 00 	mv	s5, a3
180002a88: bb 0d e0 40 	negw	s11, a4
180002a8c: 93 86 16 00 	addi	a3, a3, 0x1
180002a90: 6f f0 1f da 	j	0x180002830 <_vsnprintf+0xf0>
180002a94: 13 07 70 06 	li	a4, 0x67
180002a98: 63 0e e5 30 	beq	a0, a4, 0x180002db4 <_vsnprintf+0x674>
180002a9c: 13 07 70 04 	li	a4, 0x47
180002aa0: 63 06 e5 38 	beq	a0, a4, 0x180002e2c <_vsnprintf+0x6ec>
180002aa4: 13 07 50 04 	li	a4, 0x45
180002aa8: 63 0a e5 38 	beq	a0, a4, 0x180002e3c <_vsnprintf+0x6fc>
180002aac: 07 35 0c 00 	fld	fa0, 0x0(s8)
180002ab0: 13 86 0b 00 	mv	a2, s7
180002ab4: 13 08 04 00 	mv	a6, s0
180002ab8: 93 87 0d 00 	mv	a5, s11
180002abc: 13 87 0c 00 	mv	a4, s9
180002ac0: 93 86 04 00 	mv	a3, s1
180002ac4: 93 05 09 00 	mv	a1, s2
180002ac8: 13 85 09 00 	mv	a0, s3
180002acc: ef f0 5f 8d 	jal	0x1800023a0 <_etoa>
180002ad0: 13 0c 8c 00 	addi	s8, s8, 0x8
180002ad4: 93 0b 05 00 	mv	s7, a0
180002ad8: 6f f0 df cf 	j	0x1800027d4 <_vsnprintf+0x94>
180002adc: 03 c5 1a 00 	lbu	a0, 0x1(s5)
180002ae0: 13 07 c0 06 	li	a4, 0x6c
180002ae4: e3 1c e5 dc 	bne	a0, a4, 0x1800028bc <_vsnprintf+0x17c>
180002ae8: 13 64 04 30 	ori	s0, s0, 0x300
180002aec: 03 c5 2a 00 	lbu	a0, 0x2(s5)
180002af0: 1b 04 04 00 	sext.w	s0, s0
180002af4: 93 86 3a 00 	addi	a3, s5, 0x3
180002af8: 6f f0 1f dd 	j	0x1800028c8 <_vsnprintf+0x188>
180002afc: 03 c5 1a 00 	lbu	a0, 0x1(s5)
180002b00: 13 07 80 06 	li	a4, 0x68
180002b04: 63 02 e5 34 	beq	a0, a4, 0x180002e48 <_vsnprintf+0x708>
180002b08: 13 64 04 08 	ori	s0, s0, 0x80
180002b0c: 1b 04 04 00 	sext.w	s0, s0
180002b10: 93 86 16 00 	addi	a3, a3, 0x1
180002b14: 6f f0 5f db 	j	0x1800028c8 <_vsnprintf+0x188>
180002b18: 13 07 60 04 	li	a4, 0x46
180002b1c: 63 06 e5 28 	beq	a0, a4, 0x180002da8 <_vsnprintf+0x668>
180002b20: 07 35 0c 00 	fld	fa0, 0x0(s8)
180002b24: 13 86 0b 00 	mv	a2, s7
180002b28: 13 08 04 00 	mv	a6, s0
180002b2c: 93 87 0d 00 	mv	a5, s11
180002b30: 13 87 0c 00 	mv	a4, s9
180002b34: 93 86 04 00 	mv	a3, s1
180002b38: 93 05 09 00 	mv	a1, s2
180002b3c: 13 85 09 00 	mv	a0, s3
180002b40: ef f0 0f c1 	jal	0x180001f50 <_ftoa>
180002b44: 13 0c 8c 00 	addi	s8, s8, 0x8
180002b48: 93 0b 05 00 	mv	s7, a0
180002b4c: 6f f0 9f c8 	j	0x1800027d4 <_vsnprintf+0x94>
180002b50: 13 78 24 00 	andi	a6, s0, 0x2
180002b54: 13 0d 8c 00 	addi	s10, s8, 0x8
180002b58: 93 8c 1b 00 	addi	s9, s7, 0x1
180002b5c: 63 0c 08 30 	beqz	a6, 0x180002e74 <_vsnprintf+0x734>
180002b60: 03 45 0c 00 	lbu	a0, 0x0(s8)
180002b64: 93 86 04 00 	mv	a3, s1
180002b68: 13 86 0b 00 	mv	a2, s7
180002b6c: 93 05 09 00 	mv	a1, s2
180002b70: e7 80 09 00 	jalr	s3
180002b74: 13 07 10 00 	li	a4, 0x1
180002b78: 63 76 b7 3d 	bgeu	a4, s11, 0x180002f44 <_vsnprintf+0x804>
180002b7c: 9b 87 ed ff 	addiw	a5, s11, -0x2
180002b80: 93 97 07 02 	slli	a5, a5, 0x20
180002b84: 93 8e 2b 00 	addi	t4, s7, 0x2
180002b88: 93 d7 07 02 	srli	a5, a5, 0x20
180002b8c: b3 8b fe 00 	add	s7, t4, a5
180002b90: 13 86 0c 00 	mv	a2, s9
180002b94: 93 86 04 00 	mv	a3, s1
180002b98: 93 8c 1c 00 	addi	s9, s9, 0x1
180002b9c: 93 05 09 00 	mv	a1, s2
180002ba0: 13 05 00 02 	li	a0, 0x20
180002ba4: e7 80 09 00 	jalr	s3
180002ba8: e3 94 7c ff 	bne	s9, s7, 0x180002b90 <_vsnprintf+0x450>
180002bac: 13 0c 0d 00 	mv	s8, s10
180002bb0: 6f f0 5f c2 	j	0x1800027d4 <_vsnprintf+0x94>
180002bb4: 13 86 0b 00 	mv	a2, s7
180002bb8: 93 86 04 00 	mv	a3, s1
180002bbc: 93 05 09 00 	mv	a1, s2
180002bc0: 13 05 50 02 	li	a0, 0x25
180002bc4: 93 8b 1b 00 	addi	s7, s7, 0x1
180002bc8: e7 80 09 00 	jalr	s3
180002bcc: 6f f0 9f c0 	j	0x1800027d4 <_vsnprintf+0x94>
180002bd0: 83 37 0c 00 	ld	a5, 0x0(s8)
180002bd4: 93 06 f0 ff 	li	a3, -0x1
180002bd8: 23 38 f1 00 	sd	a5, 0x10(sp)
180002bdc: 93 07 8c 00 	addi	a5, s8, 0x8
180002be0: 23 34 f1 02 	sd	a5, 0x28(sp)
180002be4: 63 9c 0c 0e 	bnez	s9, 0x180002cdc <_vsnprintf+0x59c>
180002be8: 03 3d 01 01 	ld	s10, 0x10(sp)
180002bec: 03 45 0d 00 	lbu	a0, 0x0(s10)
180002bf0: 63 0e 05 4e 	beqz	a0, 0x1800030ec <_vsnprintf+0x9ac>
180002bf4: b3 06 dd 00 	add	a3, s10, a3
180002bf8: 6f 00 80 00 	j	0x180002c00 <_vsnprintf+0x4c0>
180002bfc: 63 08 dd 00 	beq	s10, a3, 0x180002c0c <_vsnprintf+0x4cc>
180002c00: 03 47 1d 00 	lbu	a4, 0x1(s10)
180002c04: 13 0d 1d 00 	addi	s10, s10, 0x1
180002c08: e3 1a 07 fe 	bnez	a4, 0x180002bfc <_vsnprintf+0x4bc>
180002c0c: 83 37 01 01 	ld	a5, 0x10(sp)
180002c10: 3b 0d fd 40 	subw	s10, s10, a5
180002c14: 93 77 04 40 	andi	a5, s0, 0x400
180002c18: 23 30 f1 02 	sd	a5, 0x20(sp)
180002c1c: 63 8a 07 00 	beqz	a5, 0x180002c30 <_vsnprintf+0x4f0>
180002c20: 13 87 0c 00 	mv	a4, s9
180002c24: 63 74 9d 01 	bgeu	s10, s9, 0x180002c2c <_vsnprintf+0x4ec>
180002c28: 13 07 0d 00 	mv	a4, s10
180002c2c: 1b 0d 07 00 	sext.w	s10, a4
180002c30: 13 74 24 00 	andi	s0, s0, 0x2
180002c34: 63 0e 04 28 	beqz	s0, 0x180002ed0 <_vsnprintf+0x790>
180002c38: 63 08 05 18 	beqz	a0, 0x180002dc8 <_vsnprintf+0x688>
180002c3c: 83 37 01 02 	ld	a5, 0x20(sp)
180002c40: 63 94 07 0a 	bnez	a5, 0x180002ce8 <_vsnprintf+0x5a8>
180002c44: 13 8c 0b 00 	mv	s8, s7
180002c48: 13 06 0c 00 	mv	a2, s8
180002c4c: 93 86 04 00 	mv	a3, s1
180002c50: 93 05 09 00 	mv	a1, s2
180002c54: e7 80 09 00 	jalr	s3
180002c58: 83 37 01 01 	ld	a5, 0x10(sp)
180002c5c: 13 0c 1c 00 	addi	s8, s8, 0x1
180002c60: b3 06 7c 41 	sub	a3, s8, s7
180002c64: b3 86 d7 00 	add	a3, a5, a3
180002c68: 03 c5 06 00 	lbu	a0, 0x0(a3)
180002c6c: e3 1e 05 fc 	bnez	a0, 0x180002c48 <_vsnprintf+0x508>
180002c70: 93 0b 0c 00 	mv	s7, s8
180002c74: 63 1a 04 14 	bnez	s0, 0x180002dc8 <_vsnprintf+0x688>
180002c78: 03 3c 81 02 	ld	s8, 0x28(sp)
180002c7c: 6f f0 9f b5 	j	0x1800027d4 <_vsnprintf+0x94>
180002c80: 93 06 90 00 	li	a3, 0x9
180002c84: 1b 97 2c 00 	slliw	a4, s9, 0x2
180002c88: 3b 07 97 01 	addw	a4, a4, s9
180002c8c: 13 06 16 00 	addi	a2, a2, 0x1
180002c90: 1b 17 17 00 	slliw	a4, a4, 0x1
180002c94: 3b 07 a7 00 	addw	a4, a4, a0
180002c98: 03 45 06 00 	lbu	a0, 0x0(a2)
180002c9c: 9b 0c 07 fd 	addiw	s9, a4, -0x30
180002ca0: 1b 07 05 fd 	addiw	a4, a0, -0x30
180002ca4: 13 77 f7 0f 	andi	a4, a4, 0xff
180002ca8: e3 fe e6 fc 	bgeu	a3, a4, 0x180002c84 <_vsnprintf+0x544>
180002cac: 93 0a 06 00 	mv	s5, a2
180002cb0: 93 06 16 00 	addi	a3, a2, 0x1
180002cb4: 6f f0 9f b8 	j	0x18000283c <_vsnprintf+0xfc>
180002cb8: 03 27 0c 00 	lw	a4, 0x0(s8)
180002cbc: 03 c5 2a 00 	lbu	a0, 0x2(s5)
180002cc0: 93 8a 2a 00 	addi	s5, s5, 0x2
180002cc4: 93 48 f7 ff 	not	a7, a4
180002cc8: 93 d8 f8 43 	srai	a7, a7, 0x3f
180002ccc: b3 fc e8 00 	and	s9, a7, a4
180002cd0: 13 0c 8c 00 	addi	s8, s8, 0x8
180002cd4: 93 86 1a 00 	addi	a3, s5, 0x1
180002cd8: 6f f0 5f b6 	j	0x18000283c <_vsnprintf+0xfc>
180002cdc: 93 96 0c 02 	slli	a3, s9, 0x20
180002ce0: 93 d6 06 02 	srli	a3, a3, 0x20
180002ce4: 6f f0 5f f0 	j	0x180002be8 <_vsnprintf+0x4a8>
180002ce8: 93 98 0c 02 	slli	a7, s9, 0x20
180002cec: 93 d8 08 02 	srli	a7, a7, 0x20
180002cf0: b3 8c 78 01 	add	s9, a7, s7
180002cf4: 13 86 0b 00 	mv	a2, s7
180002cf8: 63 88 cc 16 	beq	s9, a2, 0x180002e68 <_vsnprintf+0x728>
180002cfc: 93 86 04 00 	mv	a3, s1
180002d00: 93 05 09 00 	mv	a1, s2
180002d04: 13 0c 16 00 	addi	s8, a2, 0x1
180002d08: e7 80 09 00 	jalr	s3
180002d0c: 83 37 01 01 	ld	a5, 0x10(sp)
180002d10: b3 06 7c 41 	sub	a3, s8, s7
180002d14: b3 86 d7 00 	add	a3, a5, a3
180002d18: 03 c5 06 00 	lbu	a0, 0x0(a3)
180002d1c: e3 0a 05 f4 	beqz	a0, 0x180002c70 <_vsnprintf+0x530>
180002d20: 13 06 0c 00 	mv	a2, s8
180002d24: 6f f0 5f fd 	j	0x180002cf8 <_vsnprintf+0x5b8>
180002d28: 13 07 20 06 	li	a4, 0x62
180002d2c: 63 04 e5 26 	beq	a0, a4, 0x180002f94 <_vsnprintf+0x854>
180002d30: 13 07 80 05 	li	a4, 0x58
180002d34: 63 0c e5 2a 	beq	a0, a4, 0x180002fec <_vsnprintf+0x8ac>
180002d38: 13 77 04 40 	andi	a4, s0, 0x400
180002d3c: 63 14 07 1e 	bnez	a4, 0x180002f24 <_vsnprintf+0x7e4>
180002d40: 93 76 f4 fe 	andi	a3, s0, -0x11
180002d44: 9b 86 06 00 	sext.w	a3, a3
180002d48: 13 f7 06 20 	andi	a4, a3, 0x200
180002d4c: 13 04 8c 00 	addi	s0, s8, 0x8
180002d50: 13 86 06 00 	mv	a2, a3
180002d54: 63 1e 07 1e 	bnez	a4, 0x180002f50 <_vsnprintf+0x810>
180002d58: 13 f7 06 10 	andi	a4, a3, 0x100
180002d5c: 63 18 07 2e 	bnez	a4, 0x18000304c <_vsnprintf+0x90c>
180002d60: 13 77 06 04 	andi	a4, a2, 0x40
180002d64: 83 27 0c 00 	lw	a5, 0x0(s8)
180002d68: 63 08 07 30 	beqz	a4, 0x180003078 <_vsnprintf+0x938>
180002d6c: 93 f7 f7 0f 	andi	a5, a5, 0xff
180002d70: 13 87 07 00 	mv	a4, a5
180002d74: 13 86 0b 00 	mv	a2, s7
180002d78: 23 34 d1 00 	sd	a3, 0x8(sp)
180002d7c: 23 30 b1 01 	sd	s11, 0x0(sp)
180002d80: 93 88 0c 00 	mv	a7, s9
180002d84: 13 08 a0 00 	li	a6, 0xa
180002d88: 9b d7 f7 01 	srliw	a5, a5, 0x1f
180002d8c: 93 86 04 00 	mv	a3, s1
180002d90: 93 05 09 00 	mv	a1, s2
180002d94: 13 85 09 00 	mv	a0, s3
180002d98: ef e0 1f da 	jal	0x180001b38 <_ntoa_long_long>
180002d9c: 93 0b 05 00 	mv	s7, a0
180002da0: 13 0c 04 00 	mv	s8, s0
180002da4: 6f f0 1f a3 	j	0x1800027d4 <_vsnprintf+0x94>
180002da8: 13 64 04 02 	ori	s0, s0, 0x20
180002dac: 1b 04 04 00 	sext.w	s0, s0
180002db0: 6f f0 1f d7 	j	0x180002b20 <_vsnprintf+0x3e0>
180002db4: 37 17 00 00 	lui	a4, 0x1
180002db8: 13 07 07 80 	addi	a4, a4, -0x800
180002dbc: 33 67 e4 00 	or	a4, s0, a4
180002dc0: 1b 04 07 00 	sext.w	s0, a4
180002dc4: 6f f0 9f ce 	j	0x180002aac <_vsnprintf+0x36c>
180002dc8: 13 84 0b 00 	mv	s0, s7
180002dcc: e3 76 bd eb 	bgeu	s10, s11, 0x180002c78 <_vsnprintf+0x538>
180002dd0: 9b 87 fd ff 	addiw	a5, s11, -0x1
180002dd4: bb 87 a7 41 	subw	a5, a5, s10
180002dd8: 93 97 07 02 	slli	a5, a5, 0x20
180002ddc: 93 d7 07 02 	srli	a5, a5, 0x20
180002de0: 93 8e 1b 00 	addi	t4, s7, 0x1
180002de4: b3 8b d7 01 	add	s7, a5, t4
180002de8: 13 06 04 00 	mv	a2, s0
180002dec: 93 86 04 00 	mv	a3, s1
180002df0: 13 04 14 00 	addi	s0, s0, 0x1
180002df4: 93 05 09 00 	mv	a1, s2
180002df8: 13 05 00 02 	li	a0, 0x20
180002dfc: e7 80 09 00 	jalr	s3
180002e00: e3 14 74 ff 	bne	s0, s7, 0x180002de8 <_vsnprintf+0x6a8>
180002e04: 03 3c 81 02 	ld	s8, 0x28(sp)
180002e08: 6f f0 df 9c 	j	0x1800027d4 <_vsnprintf+0x94>
180002e0c: 13 07 80 07 	li	a4, 0x78
180002e10: 63 1a e5 20 	bne	a0, a4, 0x180003024 <_vsnprintf+0x8e4>
180002e14: 13 77 04 40 	andi	a4, s0, 0x400
180002e18: 63 0c 07 2e 	beqz	a4, 0x180003110 <_vsnprintf+0x9d0>
180002e1c: 93 76 24 ff 	andi	a3, s0, -0xe
180002e20: 9b 86 06 00 	sext.w	a3, a3
180002e24: 13 08 00 01 	li	a6, 0x10
180002e28: 6f 00 00 18 	j	0x180002fa8 <_vsnprintf+0x868>
180002e2c: 37 17 00 00 	lui	a4, 0x1
180002e30: 13 07 07 80 	addi	a4, a4, -0x800
180002e34: 33 67 e4 00 	or	a4, s0, a4
180002e38: 1b 04 07 00 	sext.w	s0, a4
180002e3c: 13 64 04 02 	ori	s0, s0, 0x20
180002e40: 1b 04 04 00 	sext.w	s0, s0
180002e44: 6f f0 9f c6 	j	0x180002aac <_vsnprintf+0x36c>
180002e48: 13 64 04 0c 	ori	s0, s0, 0xc0
180002e4c: 03 c5 2a 00 	lbu	a0, 0x2(s5)
180002e50: 1b 04 04 00 	sext.w	s0, s0
180002e54: 93 86 3a 00 	addi	a3, s5, 0x3
180002e58: 6f f0 1f a7 	j	0x1800028c8 <_vsnprintf+0x188>
180002e5c: 13 04 00 00 	li	s0, 0x0
180002e60: e3 e8 9b b2 	bltu	s7, s1, 0x180002990 <_vsnprintf+0x250>
180002e64: 6f f0 9f b2 	j	0x18000298c <_vsnprintf+0x24c>
180002e68: 93 8b 0c 00 	mv	s7, s9
180002e6c: e3 06 04 e0 	beqz	s0, 0x180002c78 <_vsnprintf+0x538>
180002e70: 6f f0 9f f5 	j	0x180002dc8 <_vsnprintf+0x688>
180002e74: 13 07 10 00 	li	a4, 0x1
180002e78: 63 7c b7 0b 	bgeu	a4, s11, 0x180002f30 <_vsnprintf+0x7f0>
180002e7c: 9b 87 ed ff 	addiw	a5, s11, -0x2
180002e80: 13 94 07 02 	slli	s0, a5, 0x20
180002e84: 13 54 04 02 	srli	s0, s0, 0x20
180002e88: b3 0c 94 01 	add	s9, s0, s9
180002e8c: 93 8d 0b 00 	mv	s11, s7
180002e90: 13 86 0d 00 	mv	a2, s11
180002e94: 93 86 04 00 	mv	a3, s1
180002e98: 93 8d 1d 00 	addi	s11, s11, 0x1
180002e9c: 93 05 09 00 	mv	a1, s2
180002ea0: 13 05 00 02 	li	a0, 0x20
180002ea4: e7 80 09 00 	jalr	s3
180002ea8: e3 94 9d ff 	bne	s11, s9, 0x180002e90 <_vsnprintf+0x750>
180002eac: 03 45 0c 00 	lbu	a0, 0x0(s8)
180002eb0: 93 8e 2b 00 	addi	t4, s7, 0x2
180002eb4: 93 86 04 00 	mv	a3, s1
180002eb8: 13 86 0d 00 	mv	a2, s11
180002ebc: 93 05 09 00 	mv	a1, s2
180002ec0: b3 8b 8e 00 	add	s7, t4, s0
180002ec4: 13 0c 0d 00 	mv	s8, s10
180002ec8: e7 80 09 00 	jalr	s3
180002ecc: 6f f0 9f 90 	j	0x1800027d4 <_vsnprintf+0x94>
180002ed0: 63 76 bd 23 	bgeu	s10, s11, 0x1800030fc <_vsnprintf+0x9bc>
180002ed4: 1b 87 fd ff 	addiw	a4, s11, -0x1
180002ed8: 3b 0d a7 41 	subw	s10, a4, s10
180002edc: 13 1d 0d 02 	slli	s10, s10, 0x20
180002ee0: 13 5d 0d 02 	srli	s10, s10, 0x20
180002ee4: 13 8c 1b 00 	addi	s8, s7, 0x1
180002ee8: 33 0d 8d 01 	add	s10, s10, s8
180002eec: 6f 00 80 00 	j	0x180002ef4 <_vsnprintf+0x7b4>
180002ef0: 13 0c 1c 00 	addi	s8, s8, 0x1
180002ef4: 13 86 0b 00 	mv	a2, s7
180002ef8: 93 86 04 00 	mv	a3, s1
180002efc: 93 05 09 00 	mv	a1, s2
180002f00: 13 05 00 02 	li	a0, 0x20
180002f04: 93 0b 0c 00 	mv	s7, s8
180002f08: e7 80 09 00 	jalr	s3
180002f0c: e3 12 ac ff 	bne	s8, s10, 0x180002ef0 <_vsnprintf+0x7b0>
180002f10: 83 37 01 01 	ld	a5, 0x10(sp)
180002f14: 1b 8d 1d 00 	addiw	s10, s11, 0x1
180002f18: 03 c5 07 00 	lbu	a0, 0x0(a5)
180002f1c: e3 10 05 d2 	bnez	a0, 0x180002c3c <_vsnprintf+0x4fc>
180002f20: 6f f0 9f d5 	j	0x180002c78 <_vsnprintf+0x538>
180002f24: 93 76 e4 fe 	andi	a3, s0, -0x12
180002f28: 9b 86 06 00 	sext.w	a3, a3
180002f2c: 6f f0 df e1 	j	0x180002d48 <_vsnprintf+0x608>
180002f30: 03 45 0c 00 	lbu	a0, 0x0(s8)
180002f34: 93 86 04 00 	mv	a3, s1
180002f38: 13 86 0b 00 	mv	a2, s7
180002f3c: 93 05 09 00 	mv	a1, s2
180002f40: e7 80 09 00 	jalr	s3
180002f44: 93 8b 0c 00 	mv	s7, s9
180002f48: 13 0c 0d 00 	mv	s8, s10
180002f4c: 6f f0 9f 88 	j	0x1800027d4 <_vsnprintf+0x94>
180002f50: 83 37 0c 00 	ld	a5, 0x0(s8)
180002f54: 23 34 d1 00 	sd	a3, 0x8(sp)
180002f58: 13 86 0b 00 	mv	a2, s7
180002f5c: 13 d7 f7 43 	srai	a4, a5, 0x3f
180002f60: b3 46 f7 00 	xor	a3, a4, a5
180002f64: 23 30 b1 01 	sd	s11, 0x0(sp)
180002f68: 93 88 0c 00 	mv	a7, s9
180002f6c: 13 08 a0 00 	li	a6, 0xa
180002f70: 93 d7 f7 03 	srli	a5, a5, 0x3f
180002f74: 33 87 e6 40 	sub	a4, a3, a4
180002f78: 93 86 04 00 	mv	a3, s1
180002f7c: 93 05 09 00 	mv	a1, s2
180002f80: 13 85 09 00 	mv	a0, s3
180002f84: ef e0 5f bb 	jal	0x180001b38 <_ntoa_long_long>
180002f88: 93 0b 05 00 	mv	s7, a0
180002f8c: 13 0c 04 00 	mv	s8, s0
180002f90: 6f f0 5f 84 	j	0x1800027d4 <_vsnprintf+0x94>
180002f94: 13 77 04 40 	andi	a4, s0, 0x400
180002f98: 63 0a 07 12 	beqz	a4, 0x1800030cc <_vsnprintf+0x98c>
180002f9c: 93 76 24 ff 	andi	a3, s0, -0xe
180002fa0: 9b 86 06 00 	sext.w	a3, a3
180002fa4: 13 08 20 00 	li	a6, 0x2
180002fa8: 13 f7 06 20 	andi	a4, a3, 0x200
180002fac: 13 04 8c 00 	addi	s0, s8, 0x8
180002fb0: 13 86 06 00 	mv	a2, a3
180002fb4: 63 1a 07 04 	bnez	a4, 0x180003008 <_vsnprintf+0x8c8>
180002fb8: 13 f7 06 10 	andi	a4, a3, 0x100
180002fbc: 63 1a 07 0e 	bnez	a4, 0x1800030b0 <_vsnprintf+0x970>
180002fc0: 13 77 06 04 	andi	a4, a2, 0x40
180002fc4: 63 0e 07 0c 	beqz	a4, 0x1800030a0 <_vsnprintf+0x960>
180002fc8: 03 47 0c 00 	lbu	a4, 0x0(s8)
180002fcc: 13 17 07 02 	slli	a4, a4, 0x20
180002fd0: 13 86 0b 00 	mv	a2, s7
180002fd4: 23 34 d1 00 	sd	a3, 0x8(sp)
180002fd8: 23 30 b1 01 	sd	s11, 0x0(sp)
180002fdc: 93 88 0c 00 	mv	a7, s9
180002fe0: 93 07 00 00 	li	a5, 0x0
180002fe4: 13 57 07 02 	srli	a4, a4, 0x20
180002fe8: 6f f0 5f da 	j	0x180002d8c <_vsnprintf+0x64c>
180002fec: 13 77 04 40 	andi	a4, s0, 0x400
180002ff0: 63 0c 07 10 	beqz	a4, 0x180003108 <_vsnprintf+0x9c8>
180002ff4: 93 76 24 ff 	andi	a3, s0, -0xe
180002ff8: 9b 86 06 00 	sext.w	a3, a3
180002ffc: 93 e6 06 02 	ori	a3, a3, 0x20
180003000: 13 08 00 01 	li	a6, 0x10
180003004: 6f f0 5f fa 	j	0x180002fa8 <_vsnprintf+0x868>
180003008: 03 37 0c 00 	ld	a4, 0x0(s8)
18000300c: 13 86 0b 00 	mv	a2, s7
180003010: 23 34 d1 00 	sd	a3, 0x8(sp)
180003014: 23 30 b1 01 	sd	s11, 0x0(sp)
180003018: 93 88 0c 00 	mv	a7, s9
18000301c: 93 07 00 00 	li	a5, 0x0
180003020: 6f f0 9f f5 	j	0x180002f78 <_vsnprintf+0x838>
180003024: 13 07 f0 06 	li	a4, 0x6f
180003028: 63 1c e5 0e 	bne	a0, a4, 0x180003120 <_vsnprintf+0x9e0>
18000302c: 93 76 34 ff 	andi	a3, s0, -0xd
180003030: 13 77 04 40 	andi	a4, s0, 0x400
180003034: 13 08 80 00 	li	a6, 0x8
180003038: 9b 86 06 00 	sext.w	a3, a3
18000303c: e3 06 07 f6 	beqz	a4, 0x180002fa8 <_vsnprintf+0x868>
180003040: 93 76 24 ff 	andi	a3, s0, -0xe
180003044: 9b 86 06 00 	sext.w	a3, a3
180003048: 6f f0 1f f6 	j	0x180002fa8 <_vsnprintf+0x868>
18000304c: 83 37 0c 00 	ld	a5, 0x0(s8)
180003050: 23 34 d1 00 	sd	a3, 0x8(sp)
180003054: 13 86 0b 00 	mv	a2, s7
180003058: 13 d7 f7 43 	srai	a4, a5, 0x3f
18000305c: b3 46 f7 00 	xor	a3, a4, a5
180003060: 23 30 b1 01 	sd	s11, 0x0(sp)
180003064: 93 88 0c 00 	mv	a7, s9
180003068: 13 08 a0 00 	li	a6, 0xa
18000306c: 93 d7 f7 03 	srli	a5, a5, 0x3f
180003070: 33 87 e6 40 	sub	a4, a3, a4
180003074: 6f f0 9f d1 	j	0x180002d8c <_vsnprintf+0x64c>
180003078: 13 76 06 08 	andi	a2, a2, 0x80
18000307c: 63 00 06 06 	beqz	a2, 0x1800030dc <_vsnprintf+0x99c>
180003080: 9b 97 07 01 	slliw	a5, a5, 0x10
180003084: 9b d7 07 41 	sraiw	a5, a5, 0x10
180003088: 1b d6 f7 40 	sraiw	a2, a5, 0xf
18000308c: 33 c7 c7 00 	xor	a4, a5, a2
180003090: 3b 07 c7 40 	subw	a4, a4, a2
180003094: 13 17 07 03 	slli	a4, a4, 0x30
180003098: 13 57 07 03 	srli	a4, a4, 0x30
18000309c: 6f f0 9f cd 	j	0x180002d74 <_vsnprintf+0x634>
1800030a0: 13 76 06 08 	andi	a2, a2, 0x80
1800030a4: 63 08 06 04 	beqz	a2, 0x1800030f4 <_vsnprintf+0x9b4>
1800030a8: 03 57 0c 00 	lhu	a4, 0x0(s8)
1800030ac: 6f f0 1f f2 	j	0x180002fcc <_vsnprintf+0x88c>
1800030b0: 03 37 0c 00 	ld	a4, 0x0(s8)
1800030b4: 13 86 0b 00 	mv	a2, s7
1800030b8: 23 34 d1 00 	sd	a3, 0x8(sp)
1800030bc: 23 30 b1 01 	sd	s11, 0x0(sp)
1800030c0: 93 88 0c 00 	mv	a7, s9
1800030c4: 93 07 00 00 	li	a5, 0x0
1800030c8: 6f f0 5f cc 	j	0x180002d8c <_vsnprintf+0x64c>
1800030cc: 93 76 34 ff 	andi	a3, s0, -0xd
1800030d0: 9b 86 06 00 	sext.w	a3, a3
1800030d4: 13 08 20 00 	li	a6, 0x2
1800030d8: 6f f0 1f ed 	j	0x180002fa8 <_vsnprintf+0x868>
1800030dc: 1b d6 f7 41 	sraiw	a2, a5, 0x1f
1800030e0: 33 c7 c7 00 	xor	a4, a5, a2
1800030e4: 3b 07 c7 40 	subw	a4, a4, a2
1800030e8: 6f f0 df c8 	j	0x180002d74 <_vsnprintf+0x634>
1800030ec: 13 0d 00 00 	li	s10, 0x0
1800030f0: 6f f0 5f b2 	j	0x180002c14 <_vsnprintf+0x4d4>
1800030f4: 03 27 0c 00 	lw	a4, 0x0(s8)
1800030f8: 6f f0 5f ed 	j	0x180002fcc <_vsnprintf+0x88c>
1800030fc: 1b 0d 1d 00 	addiw	s10, s10, 0x1
180003100: e3 1e 05 b2 	bnez	a0, 0x180002c3c <_vsnprintf+0x4fc>
180003104: 6f f0 5f b7 	j	0x180002c78 <_vsnprintf+0x538>
180003108: 13 64 04 02 	ori	s0, s0, 0x20
18000310c: 1b 04 04 00 	sext.w	s0, s0
180003110: 93 76 34 ff 	andi	a3, s0, -0xd
180003114: 9b 86 06 00 	sext.w	a3, a3
180003118: 13 08 00 01 	li	a6, 0x10
18000311c: 6f f0 df e8 	j	0x180002fa8 <_vsnprintf+0x868>
180003120: 93 76 f4 fe 	andi	a3, s0, -0x11
180003124: 13 06 90 06 	li	a2, 0x69
180003128: 13 07 04 00 	mv	a4, s0
18000312c: 9b 86 06 00 	sext.w	a3, a3
180003130: 63 1c c5 00 	bne	a0, a2, 0x180003148 <_vsnprintf+0xa08>
180003134: 13 78 04 40 	andi	a6, s0, 0x400
180003138: e3 08 08 c0 	beqz	a6, 0x180002d48 <_vsnprintf+0x608>
18000313c: 13 77 e7 fe 	andi	a4, a4, -0x12
180003140: 9b 06 07 00 	sext.w	a3, a4
180003144: 6f f0 5f c0 	j	0x180002d48 <_vsnprintf+0x608>
180003148: 13 78 04 40 	andi	a6, s0, 0x400
18000314c: 63 08 08 00 	beqz	a6, 0x18000315c <_vsnprintf+0xa1c>
180003150: 13 84 06 00 	mv	s0, a3
180003154: 13 08 a0 00 	li	a6, 0xa
180003158: 6f f0 9f ee 	j	0x180003040 <_vsnprintf+0x900>
18000315c: 13 77 37 fe 	andi	a4, a4, -0x1d
180003160: 9b 06 07 00 	sext.w	a3, a4
180003164: 13 08 a0 00 	li	a6, 0xa
180003168: 6f f0 1f e4 	j	0x180002fa8 <_vsnprintf+0x868>

000000018000316c <tiny_vprintf>:
18000316c: 13 01 01 fe 	addi	sp, sp, -0x20
180003170: 93 06 05 00 	mv	a3, a0
180003174: 13 87 05 00 	mv	a4, a1
180003178: 13 06 f0 ff 	li	a2, -0x1
18000317c: 93 05 81 00 	addi	a1, sp, 0x8
180003180: 17 f5 ff ff 	auipc	a0, 0xfffff
180003184: 13 05 45 dc 	addi	a0, a0, -0x23c
180003188: 23 3c 11 00 	sd	ra, 0x18(sp)
18000318c: ef f0 4f db 	jal	0x180002740 <_vsnprintf>
180003190: 83 30 81 01 	ld	ra, 0x18(sp)
180003194: 13 01 01 02 	addi	sp, sp, 0x20
180003198: 67 80 00 00 	ret

000000018000319c <dummy>:
18000319c: 67 80 00 00 	ret

00000001800031a0 <libc_exit_fini>:
1800031a0: 13 01 01 fe 	addi	sp, sp, -0x20
1800031a4: 23 3c 11 00 	sd	ra, 0x18(sp)
1800031a8: 23 38 81 00 	sd	s0, 0x10(sp)
1800031ac: 23 34 91 00 	sd	s1, 0x8(sp)
1800031b0: 23 30 21 01 	sd	s2, 0x0(sp)
1800031b4: 17 25 00 00 	auipc	a0, 0x2
1800031b8: 03 34 45 ad 	ld	s0, -0x52c(a0)
1800031bc: 17 25 00 00 	auipc	a0, 0x2
1800031c0: 83 34 45 ad 	ld	s1, -0x52c(a0)
1800031c4: 1b 05 04 00 	sext.w	a0, s0
1800031c8: 9b 84 04 00 	sext.w	s1, s1
1800031cc: 63 f0 a4 02 	bgeu	s1, a0, 0x1800031ec <libc_exit_fini+0x4c>
1800031d0: 13 15 04 02 	slli	a0, s0, 0x20
1800031d4: 13 55 05 02 	srli	a0, a0, 0x20
1800031d8: 83 35 85 ff 	ld	a1, -0x8(a0)
1800031dc: 1b 09 85 ff 	addiw	s2, a0, -0x8
1800031e0: e7 80 05 00 	jalr	a1
1800031e4: 13 04 84 ff 	addi	s0, s0, -0x8
1800031e8: e3 e4 24 ff 	bltu	s1, s2, 0x1800031d0 <libc_exit_fini+0x30>
1800031ec: 83 30 81 01 	ld	ra, 0x18(sp)
1800031f0: 03 34 01 01 	ld	s0, 0x10(sp)
1800031f4: 83 34 81 00 	ld	s1, 0x8(sp)
1800031f8: 03 39 01 00 	ld	s2, 0x0(sp)
1800031fc: 13 01 01 02 	addi	sp, sp, 0x20
180003200: 6f f0 df f9 	j	0x18000319c <dummy>

0000000180003204 <sqrtf>:
180003204: 53 75 05 58 	fsqrt.s	fa0, fa0
180003208: 67 80 00 00 	ret

000000018000320c <memcpy>:
18000320c: 13 01 01 fe 	addi	sp, sp, -0x20
180003210: 23 3c 81 00 	sd	s0, 0x18(sp)
180003214: 23 38 91 00 	sd	s1, 0x10(sp)
180003218: 23 34 21 01 	sd	s2, 0x8(sp)
18000321c: 23 30 31 01 	sd	s3, 0x0(sp)
180003220: 93 f6 35 00 	andi	a3, a1, 0x3
180003224: b3 36 d0 00 	snez	a3, a3
180003228: 33 37 c0 00 	snez	a4, a2
18000322c: b3 f7 e6 00 	and	a5, a3, a4
180003230: 0b a7 17 00 	vx_split_n	a4, a5
180003234: 93 06 05 00 	mv	a3, a0
180003238: 63 8c 07 04 	beqz	a5, 0x180003290 <memcpy+0x84>
18000323c: 93 87 15 00 	addi	a5, a1, 0x1
180003240: 73 28 40 cc 	csrr	a6, tmask
180003244: 93 82 05 00 	mv	t0, a1
180003248: 13 03 05 00 	mv	t1, a0
18000324c: 93 08 06 00 	mv	a7, a2
180003250: 03 c6 02 00 	lbu	a2, 0x0(t0)
180003254: 93 85 12 00 	addi	a1, t0, 0x1
180003258: 93 06 13 00 	addi	a3, t1, 0x1
18000325c: 23 00 c3 00 	sb	a2, 0x0(t1)
180003260: 1b 86 f8 ff 	addiw	a2, a7, -0x1
180003264: 93 f2 37 00 	andi	t0, a5, 0x3
180003268: 93 b2 12 00 	seqz	t0, t0
18000326c: 93 88 f8 ff 	addi	a7, a7, -0x1
180003270: 93 b8 18 00 	seqz	a7, a7
180003274: b3 e3 12 01 	or	t2, t0, a7
180003278: 93 87 17 00 	addi	a5, a5, 0x1
18000327c: 8b d0 03 01 	vx_pred_n	t2, a6
180003280: 93 82 05 00 	mv	t0, a1
180003284: 13 83 06 00 	mv	t1, a3
180003288: 93 08 06 00 	mv	a7, a2
18000328c: e3 82 03 fc 	beqz	t2, 0x180003250 <memcpy+0x44>
180003290: 0b 30 07 00 	vx_join	a4
180003294: 13 08 00 00 	li	a6, 0x0
180003298: 93 fe 36 00 	andi	t4, a3, 0x3
18000329c: 33 33 d0 01 	snez	t1, t4
1800032a0: 0b 27 13 00 	vx_split_n	a4, t1
1800032a4: 93 02 10 00 	li	t0, 0x1
1800032a8: 63 08 03 38 	beqz	t1, 0x180003638 <memcpy+0x42c>
1800032ac: 93 37 06 02 	sltiu	a5, a2, 0x20
1800032b0: 13 c3 17 00 	xori	t1, a5, 0x1
1800032b4: 8b 22 13 00 	vx_split_n	t0, t1
1800032b8: 93 88 05 00 	mv	a7, a1
1800032bc: 93 87 06 00 	mv	a5, a3
1800032c0: 13 08 06 00 	mv	a6, a2
1800032c4: 63 0a 03 1e 	beqz	t1, 0x1800034b8 <memcpy+0x2ac>
1800032c8: 03 a3 05 00 	lw	t1, 0x0(a1)
1800032cc: 93 a7 3e 00 	slti	a5, t4, 0x3
1800032d0: 13 ce 17 00 	xori	t3, a5, 0x1
1800032d4: 8b 23 1e 00 	vx_split_n	t2, t3
1800032d8: 13 0f 10 00 	li	t5, 0x1
1800032dc: 63 06 0e 08 	beqz	t3, 0x180003368 <memcpy+0x15c>
1800032e0: 93 87 16 00 	addi	a5, a3, 0x1
1800032e4: 23 80 66 00 	sb	t1, 0x0(a3)
1800032e8: 13 08 f6 ff 	addi	a6, a2, -0x1
1800032ec: 93 88 05 01 	addi	a7, a1, 0x10
1800032f0: 73 2e 40 cc 	csrr	t3, tmask
1800032f4: 13 0f 03 00 	mv	t5, t1
1800032f8: 83 af 48 ff 	lw	t6, -0xc(a7)
1800032fc: 1b 5f 8f 00 	srliw	t5, t5, 0x8
180003300: 13 94 8f 01 	slli	s0, t6, 0x18
180003304: 83 a4 88 ff 	lw	s1, -0x8(a7)
180003308: 33 6f e4 01 	or	t5, s0, t5
18000330c: 23 a0 e7 01 	sw	t5, 0x0(a5)
180003310: 1b df 8f 00 	srliw	t5, t6, 0x8
180003314: 93 9f 84 01 	slli	t6, s1, 0x18
180003318: 03 a4 c8 ff 	lw	s0, -0x4(a7)
18000331c: 33 ef ef 01 	or	t5, t6, t5
180003320: 23 a2 e7 01 	sw	t5, 0x4(a5)
180003324: 9b df 84 00 	srliw	t6, s1, 0x8
180003328: 93 14 84 01 	slli	s1, s0, 0x18
18000332c: 03 af 08 00 	lw	t5, 0x0(a7)
180003330: b3 ef f4 01 	or	t6, s1, t6
180003334: 23 a4 f7 01 	sw	t6, 0x8(a5)
180003338: 9b 5f 84 00 	srliw	t6, s0, 0x8
18000333c: 13 14 8f 01 	slli	s0, t5, 0x18
180003340: b3 6f f4 01 	or	t6, s0, t6
180003344: 23 a6 f7 01 	sw	t6, 0xc(a5)
180003348: 93 87 07 01 	addi	a5, a5, 0x10
18000334c: 1b 08 08 ff 	addiw	a6, a6, -0x10
180003350: 93 88 08 01 	addi	a7, a7, 0x10
180003354: 93 3f 38 01 	sltiu	t6, a6, 0x13
180003358: 8b d0 cf 01 	vx_pred_n	t6, t3
18000335c: e3 8e 0f f8 	beqz	t6, 0x1800032f8 <memcpy+0xec>
180003360: 13 0f 00 00 	li	t5, 0x0
180003364: 93 88 18 ff 	addi	a7, a7, -0xf
180003368: 13 8e 05 01 	addi	t3, a1, 0x10
18000336c: 0b b0 03 00 	vx_join	t2
180003370: 8b 23 1f 00 	vx_split_n	t2, t5
180003374: 63 00 0f 14 	beqz	t5, 0x1800034b4 <memcpy+0x2a8>
180003378: 93 8e ee ff 	addi	t4, t4, -0x2
18000337c: 33 34 d0 01 	snez	s0, t4
180003380: 0b 2f 14 00 	vx_split_n	t5, s0
180003384: 93 0f 10 00 	li	t6, 0x1
180003388: 93 5e 83 00 	srli	t4, t1, 0x8
18000338c: 63 0c 04 08 	beqz	s0, 0x180003424 <memcpy+0x218>
180003390: 23 80 66 00 	sb	t1, 0x0(a3)
180003394: a3 80 d6 01 	sb	t4, 0x1(a3)
180003398: 13 58 03 01 	srli	a6, t1, 0x10
18000339c: 93 87 36 00 	addi	a5, a3, 0x3
1800033a0: 23 81 06 01 	sb	a6, 0x2(a3)
1800033a4: 13 08 d6 ff 	addi	a6, a2, -0x3
1800033a8: 93 88 05 01 	addi	a7, a1, 0x10
1800033ac: f3 2f 40 cc 	csrr	t6, tmask
1800033b0: 13 04 03 00 	mv	s0, t1
1800033b4: 83 a4 48 ff 	lw	s1, -0xc(a7)
1800033b8: 1b 54 84 01 	srliw	s0, s0, 0x18
1800033bc: 13 99 84 00 	slli	s2, s1, 0x8
1800033c0: 83 a9 88 ff 	lw	s3, -0x8(a7)
1800033c4: 33 64 89 00 	or	s0, s2, s0
1800033c8: 23 a0 87 00 	sw	s0, 0x0(a5)
1800033cc: 1b d4 84 01 	srliw	s0, s1, 0x18
1800033d0: 93 94 89 00 	slli	s1, s3, 0x8
1800033d4: 03 a9 c8 ff 	lw	s2, -0x4(a7)
1800033d8: 33 e4 84 00 	or	s0, s1, s0
1800033dc: 23 a2 87 00 	sw	s0, 0x4(a5)
1800033e0: 9b d4 89 01 	srliw	s1, s3, 0x18
1800033e4: 93 19 89 00 	slli	s3, s2, 0x8
1800033e8: 03 a4 08 00 	lw	s0, 0x0(a7)
1800033ec: b3 e4 99 00 	or	s1, s3, s1
1800033f0: 23 a4 97 00 	sw	s1, 0x8(a5)
1800033f4: 9b 54 89 01 	srliw	s1, s2, 0x18
1800033f8: 13 19 84 00 	slli	s2, s0, 0x8
1800033fc: b3 64 99 00 	or	s1, s2, s1
180003400: 23 a6 97 00 	sw	s1, 0xc(a5)
180003404: 93 87 07 01 	addi	a5, a5, 0x10
180003408: 1b 08 08 ff 	addiw	a6, a6, -0x10
18000340c: 93 88 08 01 	addi	a7, a7, 0x10
180003410: 93 34 18 01 	sltiu	s1, a6, 0x11
180003414: 8b d0 f4 01 	vx_pred_n	s1, t6
180003418: e3 8e 04 f8 	beqz	s1, 0x1800033b4 <memcpy+0x1a8>
18000341c: 93 0f 00 00 	li	t6, 0x0
180003420: 93 88 38 ff 	addi	a7, a7, -0xd
180003424: 0b 30 0f 00 	vx_join	t5
180003428: 0b af 1f 00 	vx_split_n	t5, t6
18000342c: 63 82 0f 08 	beqz	t6, 0x1800034b0 <memcpy+0x2a4>
180003430: 23 80 66 00 	sb	t1, 0x0(a3)
180003434: 93 87 26 00 	addi	a5, a3, 0x2
180003438: a3 80 d6 01 	sb	t4, 0x1(a3)
18000343c: 13 08 e6 ff 	addi	a6, a2, -0x2
180003440: f3 28 40 cc 	csrr	a7, tmask
180003444: 83 2e 4e ff 	lw	t4, -0xc(t3)
180003448: 1b 53 03 01 	srliw	t1, t1, 0x10
18000344c: 93 9f 0e 01 	slli	t6, t4, 0x10
180003450: 03 24 8e ff 	lw	s0, -0x8(t3)
180003454: 33 e3 6f 00 	or	t1, t6, t1
180003458: 23 a0 67 00 	sw	t1, 0x0(a5)
18000345c: 1b d3 0e 01 	srliw	t1, t4, 0x10
180003460: 93 1e 04 01 	slli	t4, s0, 0x10
180003464: 83 2f ce ff 	lw	t6, -0x4(t3)
180003468: 33 e3 6e 00 	or	t1, t4, t1
18000346c: 23 a2 67 00 	sw	t1, 0x4(a5)
180003470: 9b 5e 04 01 	srliw	t4, s0, 0x10
180003474: 13 94 0f 01 	slli	s0, t6, 0x10
180003478: 03 23 0e 00 	lw	t1, 0x0(t3)
18000347c: b3 6e d4 01 	or	t4, s0, t4
180003480: 23 a4 d7 01 	sw	t4, 0x8(a5)
180003484: 9b de 0f 01 	srliw	t4, t6, 0x10
180003488: 93 1f 03 01 	slli	t6, t1, 0x10
18000348c: b3 ee df 01 	or	t4, t6, t4
180003490: 23 a6 d7 01 	sw	t4, 0xc(a5)
180003494: 93 87 07 01 	addi	a5, a5, 0x10
180003498: 1b 08 08 ff 	addiw	a6, a6, -0x10
18000349c: 13 0e 0e 01 	addi	t3, t3, 0x10
1800034a0: 93 3e 28 01 	sltiu	t4, a6, 0x12
1800034a4: 8b d0 1e 01 	vx_pred_n	t4, a7
1800034a8: e3 8e 0e f8 	beqz	t4, 0x180003444 <memcpy+0x238>
1800034ac: 93 08 2e ff 	addi	a7, t3, -0xe
1800034b0: 0b 30 0f 00 	vx_join	t5
1800034b4: 0b b0 03 00 	vx_join	t2
1800034b8: 0b b0 02 00 	vx_join	t0
1800034bc: 9b 02 08 00 	sext.w	t0, a6
1800034c0: 93 b2 02 01 	sltiu	t0, t0, 0x10
1800034c4: 13 c3 12 00 	xori	t1, t0, 0x1
1800034c8: 8b 22 13 00 	vx_split_n	t0, t1
1800034cc: 63 08 03 08 	beqz	t1, 0x18000355c <memcpy+0x350>
1800034d0: 03 c3 08 00 	lbu	t1, 0x0(a7)
1800034d4: 83 c3 18 00 	lbu	t2, 0x1(a7)
1800034d8: 03 ce 28 00 	lbu	t3, 0x2(a7)
1800034dc: 23 80 67 00 	sb	t1, 0x0(a5)
1800034e0: a3 80 77 00 	sb	t2, 0x1(a5)
1800034e4: 03 c3 38 00 	lbu	t1, 0x3(a7)
1800034e8: 23 81 c7 01 	sb	t3, 0x2(a5)
1800034ec: 83 c3 48 00 	lbu	t2, 0x4(a7)
1800034f0: 03 ce 58 00 	lbu	t3, 0x5(a7)
1800034f4: a3 81 67 00 	sb	t1, 0x3(a5)
1800034f8: 03 c3 68 00 	lbu	t1, 0x6(a7)
1800034fc: 23 82 77 00 	sb	t2, 0x4(a5)
180003500: a3 82 c7 01 	sb	t3, 0x5(a5)
180003504: 83 c3 78 00 	lbu	t2, 0x7(a7)
180003508: 23 83 67 00 	sb	t1, 0x6(a5)
18000350c: 03 c3 88 00 	lbu	t1, 0x8(a7)
180003510: 03 ce 98 00 	lbu	t3, 0x9(a7)
180003514: a3 83 77 00 	sb	t2, 0x7(a5)
180003518: 83 c3 a8 00 	lbu	t2, 0xa(a7)
18000351c: 23 84 67 00 	sb	t1, 0x8(a5)
180003520: a3 84 c7 01 	sb	t3, 0x9(a5)
180003524: 03 c3 b8 00 	lbu	t1, 0xb(a7)
180003528: 23 85 77 00 	sb	t2, 0xa(a5)
18000352c: 83 c3 c8 00 	lbu	t2, 0xc(a7)
180003530: 03 ce d8 00 	lbu	t3, 0xd(a7)
180003534: a3 85 67 00 	sb	t1, 0xb(a5)
180003538: 03 c3 e8 00 	lbu	t1, 0xe(a7)
18000353c: 23 86 77 00 	sb	t2, 0xc(a5)
180003540: a3 86 c7 01 	sb	t3, 0xd(a5)
180003544: 83 c3 f8 00 	lbu	t2, 0xf(a7)
180003548: 23 87 67 00 	sb	t1, 0xe(a5)
18000354c: 93 88 08 01 	addi	a7, a7, 0x10
180003550: 13 83 07 01 	addi	t1, a5, 0x10
180003554: a3 87 77 00 	sb	t2, 0xf(a5)
180003558: 93 07 03 00 	mv	a5, t1
18000355c: 0b b0 02 00 	vx_join	t0
180003560: 93 12 c8 03 	slli	t0, a6, 0x3c
180003564: 13 d3 f2 03 	srli	t1, t0, 0x3f
180003568: 8b 22 13 00 	vx_split_n	t0, t1
18000356c: 63 08 03 04 	beqz	t1, 0x1800035bc <memcpy+0x3b0>
180003570: 03 c3 08 00 	lbu	t1, 0x0(a7)
180003574: 83 c3 18 00 	lbu	t2, 0x1(a7)
180003578: 03 ce 28 00 	lbu	t3, 0x2(a7)
18000357c: 23 80 67 00 	sb	t1, 0x0(a5)
180003580: a3 80 77 00 	sb	t2, 0x1(a5)
180003584: 03 c3 38 00 	lbu	t1, 0x3(a7)
180003588: 23 81 c7 01 	sb	t3, 0x2(a5)
18000358c: 83 c3 48 00 	lbu	t2, 0x4(a7)
180003590: 03 ce 58 00 	lbu	t3, 0x5(a7)
180003594: a3 81 67 00 	sb	t1, 0x3(a5)
180003598: 03 c3 68 00 	lbu	t1, 0x6(a7)
18000359c: 23 82 77 00 	sb	t2, 0x4(a5)
1800035a0: a3 82 c7 01 	sb	t3, 0x5(a5)
1800035a4: 83 c3 78 00 	lbu	t2, 0x7(a7)
1800035a8: 23 83 67 00 	sb	t1, 0x6(a5)
1800035ac: 93 88 88 00 	addi	a7, a7, 0x8
1800035b0: 13 83 87 00 	addi	t1, a5, 0x8
1800035b4: a3 83 77 00 	sb	t2, 0x7(a5)
1800035b8: 93 07 03 00 	mv	a5, t1
1800035bc: 0b b0 02 00 	vx_join	t0
1800035c0: 93 12 d8 03 	slli	t0, a6, 0x3d
1800035c4: 13 d3 f2 03 	srli	t1, t0, 0x3f
1800035c8: 8b 22 13 00 	vx_split_n	t0, t1
1800035cc: 63 08 03 02 	beqz	t1, 0x1800035fc <memcpy+0x3f0>
1800035d0: 03 c3 08 00 	lbu	t1, 0x0(a7)
1800035d4: 83 c3 18 00 	lbu	t2, 0x1(a7)
1800035d8: 03 ce 28 00 	lbu	t3, 0x2(a7)
1800035dc: 23 80 67 00 	sb	t1, 0x0(a5)
1800035e0: a3 80 77 00 	sb	t2, 0x1(a5)
1800035e4: 03 c3 38 00 	lbu	t1, 0x3(a7)
1800035e8: 23 81 c7 01 	sb	t3, 0x2(a5)
1800035ec: 93 88 48 00 	addi	a7, a7, 0x4
1800035f0: 93 83 47 00 	addi	t2, a5, 0x4
1800035f4: a3 81 67 00 	sb	t1, 0x3(a5)
1800035f8: 93 87 03 00 	mv	a5, t2
1800035fc: 0b b0 02 00 	vx_join	t0
180003600: 93 12 e8 03 	slli	t0, a6, 0x3e
180003604: 13 d3 f2 03 	srli	t1, t0, 0x3f
180003608: 8b 22 13 00 	vx_split_n	t0, t1
18000360c: 63 00 03 02 	beqz	t1, 0x18000362c <memcpy+0x420>
180003610: 03 c3 08 00 	lbu	t1, 0x0(a7)
180003614: 83 c3 18 00 	lbu	t2, 0x1(a7)
180003618: 23 80 67 00 	sb	t1, 0x0(a5)
18000361c: 13 83 27 00 	addi	t1, a5, 0x2
180003620: 93 88 28 00 	addi	a7, a7, 0x2
180003624: a3 80 77 00 	sb	t2, 0x1(a5)
180003628: 93 07 03 00 	mv	a5, t1
18000362c: 0b b0 02 00 	vx_join	t0
180003630: 93 02 00 00 	li	t0, 0x0
180003634: 13 78 18 00 	andi	a6, a6, 0x1
180003638: 0b 30 07 00 	vx_join	a4
18000363c: 0b a7 12 00 	vx_split_n	a4, t0
180003640: 63 84 02 0e 	beqz	t0, 0x180003728 <memcpy+0x51c>
180003644: 93 37 06 01 	sltiu	a5, a2, 0x10
180003648: 13 c8 17 00 	xori	a6, a5, 0x1
18000364c: 8b 27 18 00 	vx_split_n	a5, a6
180003650: 63 00 08 04 	beqz	a6, 0x180003690 <memcpy+0x484>
180003654: 73 28 40 cc 	csrr	a6, tmask
180003658: 83 a8 05 00 	lw	a7, 0x0(a1)
18000365c: 83 a2 45 00 	lw	t0, 0x4(a1)
180003660: 03 a3 85 00 	lw	t1, 0x8(a1)
180003664: 83 a3 c5 00 	lw	t2, 0xc(a1)
180003668: 23 a0 16 01 	sw	a7, 0x0(a3)
18000366c: 23 a2 56 00 	sw	t0, 0x4(a3)
180003670: 23 a4 66 00 	sw	t1, 0x8(a3)
180003674: 23 a6 76 00 	sw	t2, 0xc(a3)
180003678: 93 85 05 01 	addi	a1, a1, 0x10
18000367c: 93 86 06 01 	addi	a3, a3, 0x10
180003680: 1b 06 06 ff 	addiw	a2, a2, -0x10
180003684: 93 38 06 01 	sltiu	a7, a2, 0x10
180003688: 8b d0 08 01 	vx_pred_n	a7, a6
18000368c: e3 86 08 fc 	beqz	a7, 0x180003658 <memcpy+0x44c>
180003690: 0b b0 07 00 	vx_join	a5
180003694: 93 37 86 00 	sltiu	a5, a2, 0x8
180003698: 13 c8 17 00 	xori	a6, a5, 0x1
18000369c: 8b 27 18 00 	vx_split_n	a5, a6
1800036a0: 63 00 08 02 	beqz	a6, 0x1800036c0 <memcpy+0x4b4>
1800036a4: 03 a8 05 00 	lw	a6, 0x0(a1)
1800036a8: 83 a8 45 00 	lw	a7, 0x4(a1)
1800036ac: 93 85 85 00 	addi	a1, a1, 0x8
1800036b0: 23 a0 06 01 	sw	a6, 0x0(a3)
1800036b4: 13 88 86 00 	addi	a6, a3, 0x8
1800036b8: 23 a2 16 01 	sw	a7, 0x4(a3)
1800036bc: 93 06 08 00 	mv	a3, a6
1800036c0: 0b b0 07 00 	vx_join	a5
1800036c4: 93 17 d6 03 	slli	a5, a2, 0x3d
1800036c8: 13 d8 f7 03 	srli	a6, a5, 0x3f
1800036cc: 8b 27 18 00 	vx_split_n	a5, a6
1800036d0: 63 0c 08 00 	beqz	a6, 0x1800036e8 <memcpy+0x4dc>
1800036d4: 03 a8 05 00 	lw	a6, 0x0(a1)
1800036d8: 93 85 45 00 	addi	a1, a1, 0x4
1800036dc: 93 88 46 00 	addi	a7, a3, 0x4
1800036e0: 23 a0 06 01 	sw	a6, 0x0(a3)
1800036e4: 93 86 08 00 	mv	a3, a7
1800036e8: 0b b0 07 00 	vx_join	a5
1800036ec: 93 17 e6 03 	slli	a5, a2, 0x3e
1800036f0: 13 d8 f7 03 	srli	a6, a5, 0x3f
1800036f4: 8b 27 18 00 	vx_split_n	a5, a6
1800036f8: 63 00 08 02 	beqz	a6, 0x180003718 <memcpy+0x50c>
1800036fc: 03 c8 05 00 	lbu	a6, 0x0(a1)
180003700: 83 c8 15 00 	lbu	a7, 0x1(a1)
180003704: 23 80 06 01 	sb	a6, 0x0(a3)
180003708: 13 88 26 00 	addi	a6, a3, 0x2
18000370c: 93 85 25 00 	addi	a1, a1, 0x2
180003710: a3 80 16 01 	sb	a7, 0x1(a3)
180003714: 93 06 08 00 	mv	a3, a6
180003718: 0b b0 07 00 	vx_join	a5
18000371c: 13 78 16 00 	andi	a6, a2, 0x1
180003720: 93 88 05 00 	mv	a7, a1
180003724: 93 87 06 00 	mv	a5, a3
180003728: 0b 30 07 00 	vx_join	a4
18000372c: 8b 25 18 00 	vx_split_n	a1, a6
180003730: 63 06 08 00 	beqz	a6, 0x18000373c <memcpy+0x530>
180003734: 03 c6 08 00 	lbu	a2, 0x0(a7)
180003738: 23 80 c7 00 	sb	a2, 0x0(a5)
18000373c: 0b b0 05 00 	vx_join	a1
180003740: 03 34 81 01 	ld	s0, 0x18(sp)
180003744: 83 34 01 01 	ld	s1, 0x10(sp)
180003748: 03 39 81 00 	ld	s2, 0x8(sp)
18000374c: 83 39 01 00 	ld	s3, 0x0(sp)
180003750: 13 01 01 02 	addi	sp, sp, 0x20
180003754: 67 80 00 00 	ret

0000000180003758 <memset>:
180003758: 33 37 c0 00 	snez	a4, a2
18000375c: 8b 26 17 00 	vx_split_n	a3, a4
180003760: 63 06 07 1a 	beqz	a4, 0x18000390c <memset+0x1b4>
180003764: 23 00 b5 00 	sb	a1, 0x0(a0)
180003768: 13 07 f6 ff 	addi	a4, a2, -0x1
18000376c: 13 17 07 02 	slli	a4, a4, 0x20
180003770: 13 57 07 02 	srli	a4, a4, 0x20
180003774: 33 07 e5 00 	add	a4, a0, a4
180003778: 23 00 b7 00 	sb	a1, 0x0(a4)
18000377c: 13 37 36 00 	sltiu	a4, a2, 0x3
180003780: 93 47 17 00 	xori	a5, a4, 0x1
180003784: 0b a7 17 00 	vx_split_n	a4, a5
180003788: 63 80 07 18 	beqz	a5, 0x180003908 <memset+0x1b0>
18000378c: a3 00 b5 00 	sb	a1, 0x1(a0)
180003790: 23 01 b5 00 	sb	a1, 0x2(a0)
180003794: 93 07 e6 ff 	addi	a5, a2, -0x2
180003798: 93 97 07 02 	slli	a5, a5, 0x20
18000379c: 93 d7 07 02 	srli	a5, a5, 0x20
1800037a0: b3 07 f5 00 	add	a5, a0, a5
1800037a4: 23 80 b7 00 	sb	a1, 0x0(a5)
1800037a8: 93 07 d6 ff 	addi	a5, a2, -0x3
1800037ac: 93 97 07 02 	slli	a5, a5, 0x20
1800037b0: 93 d7 07 02 	srli	a5, a5, 0x20
1800037b4: b3 07 f5 00 	add	a5, a0, a5
1800037b8: 23 80 b7 00 	sb	a1, 0x0(a5)
1800037bc: 93 37 76 00 	sltiu	a5, a2, 0x7
1800037c0: 13 c8 17 00 	xori	a6, a5, 0x1
1800037c4: 8b 27 18 00 	vx_split_n	a5, a6
1800037c8: 63 0e 08 12 	beqz	a6, 0x180003904 <memset+0x1ac>
1800037cc: a3 01 b5 00 	sb	a1, 0x3(a0)
1800037d0: 13 08 c6 ff 	addi	a6, a2, -0x4
1800037d4: 13 18 08 02 	slli	a6, a6, 0x20
1800037d8: 13 58 08 02 	srli	a6, a6, 0x20
1800037dc: 33 08 05 01 	add	a6, a0, a6
1800037e0: 23 00 b8 00 	sb	a1, 0x0(a6)
1800037e4: 13 38 96 00 	sltiu	a6, a2, 0x9
1800037e8: 93 48 18 00 	xori	a7, a6, 0x1
1800037ec: 0b a8 18 00 	vx_split_n	a6, a7
1800037f0: 63 88 08 10 	beqz	a7, 0x180003900 <memset+0x1a8>
1800037f4: bb 08 a0 40 	negw	a7, a0
1800037f8: 93 f8 38 00 	andi	a7, a7, 0x3
1800037fc: b3 02 15 01 	add	t0, a0, a7
180003800: 3b 06 16 41 	subw	a2, a2, a7
180003804: 13 73 c6 ff 	andi	t1, a2, -0x4
180003808: 93 95 85 03 	slli	a1, a1, 0x38
18000380c: b7 13 10 10 	lui	t2, 0x10101
180003810: 93 93 43 00 	slli	t2, t2, 0x4
180003814: 93 83 03 10 	addi	t2, t2, 0x100
180003818: b3 b3 75 02 	mulhu	t2, a1, t2
18000381c: 23 a0 72 00 	sw	t2, 0x0(t0)
180003820: 9b 55 26 00 	srliw	a1, a2, 0x2
180003824: 93 95 25 00 	slli	a1, a1, 0x2
180003828: 33 8e b2 00 	add	t3, t0, a1
18000382c: 23 2e 7e fe 	sw	t2, -0x4(t3)
180003830: 93 35 93 00 	sltiu	a1, t1, 0x9
180003834: 13 c6 15 00 	xori	a2, a1, 0x1
180003838: 8b 25 16 00 	vx_split_n	a1, a2
18000383c: 63 00 06 0c 	beqz	a2, 0x1800038fc <memset+0x1a4>
180003840: 23 a2 72 00 	sw	t2, 0x4(t0)
180003844: 23 a4 72 00 	sw	t2, 0x8(t0)
180003848: 23 2a 7e fe 	sw	t2, -0xc(t3)
18000384c: 23 2c 7e fe 	sw	t2, -0x8(t3)
180003850: 13 36 93 01 	sltiu	a2, t1, 0x19
180003854: 93 4e 16 00 	xori	t4, a2, 0x1
180003858: 0b a6 1e 00 	vx_split_n	a2, t4
18000385c: 63 8e 0e 08 	beqz	t4, 0x1800038f8 <memset+0x1a0>
180003860: 23 a6 72 00 	sw	t2, 0xc(t0)
180003864: 23 a8 72 00 	sw	t2, 0x10(t0)
180003868: 23 aa 72 00 	sw	t2, 0x14(t0)
18000386c: 23 ac 72 00 	sw	t2, 0x18(t0)
180003870: 23 22 7e fe 	sw	t2, -0x1c(t3)
180003874: 23 24 7e fe 	sw	t2, -0x18(t3)
180003878: 23 26 7e fe 	sw	t2, -0x14(t3)
18000387c: 23 28 7e fe 	sw	t2, -0x10(t3)
180003880: 93 fe 42 00 	andi	t4, t0, 0x4
180003884: 13 8f 8e 01 	addi	t5, t4, 0x18
180003888: 3b 0e e3 41 	subw	t3, t1, t5
18000388c: 13 3e 0e 02 	sltiu	t3, t3, 0x20
180003890: 93 4f 1e 00 	xori	t6, t3, 0x1
180003894: 0b ae 1f 00 	vx_split_n	t3, t6
180003898: 63 8e 0f 04 	beqz	t6, 0x1800038f4 <memset+0x19c>
18000389c: 93 93 03 02 	slli	t2, t2, 0x20
1800038a0: 93 df 03 02 	srli	t6, t2, 0x20
1800038a4: b3 e3 f3 01 	or	t2, t2, t6
1800038a8: b3 82 e2 01 	add	t0, t0, t5
1800038ac: 3b 03 d3 41 	subw	t1, t1, t4
1800038b0: 13 03 83 fc 	addi	t1, t1, -0x38
1800038b4: 1b 53 53 00 	srliw	t1, t1, 0x5
1800038b8: 13 13 53 00 	slli	t1, t1, 0x5
1800038bc: b3 e8 1e 01 	or	a7, t4, a7
1800038c0: b3 68 13 01 	or	a7, t1, a7
1800038c4: b3 88 a8 00 	add	a7, a7, a0
1800038c8: 93 88 88 03 	addi	a7, a7, 0x38
1800038cc: 73 23 40 cc 	csrr	t1, tmask
1800038d0: 23 b0 72 00 	sd	t2, 0x0(t0)
1800038d4: 23 b4 72 00 	sd	t2, 0x8(t0)
1800038d8: 23 b8 72 00 	sd	t2, 0x10(t0)
1800038dc: 23 bc 72 00 	sd	t2, 0x18(t0)
1800038e0: 93 82 02 02 	addi	t0, t0, 0x20
1800038e4: b3 ce 12 01 	xor	t4, t0, a7
1800038e8: 93 be 1e 00 	seqz	t4, t4
1800038ec: 8b d0 6e 00 	vx_pred_n	t4, t1
1800038f0: e3 80 0e fe 	beqz	t4, 0x1800038d0 <memset+0x178>
1800038f4: 0b 30 0e 00 	vx_join	t3
1800038f8: 0b 30 06 00 	vx_join	a2
1800038fc: 0b b0 05 00 	vx_join	a1
180003900: 0b 30 08 00 	vx_join	a6
180003904: 0b b0 07 00 	vx_join	a5
180003908: 0b 30 07 00 	vx_join	a4
18000390c: 0b b0 06 00 	vx_join	a3
180003910: 67 80 00 00 	ret

Disassembly of section .rodata:

0000000180003918 <.rodata>:
180003918: 43 48 45 43 	fmadd.d	fa6, fa0, fs4, fs0, rmm
18000391c: 4b 3a 20 63 	fnmsub.d	fs4, ft0, fs2, fa2, rup
180003920: 75 64       	<unknown>
180003922: 61 6d       	<unknown>
180003924: 65 6d       	<unknown>
180003926: 63 70 79 74 	bgeu	s2, t2, 0x180004066 <STARTUP_ADDR+0x4066>
18000392a: 6f 73 79 6d 	jal	t1, 0x18009b800 <_end+0x96a78>
18000392e: 62 6f       	<unknown>
180003930: 6c 2c       	<unknown>
180003932: 20 6e       	<unknown>
180003934: 75 6d       	<unknown>
180003936: 62 65       	<unknown>
180003938: 72 20       	<unknown>
18000393a: 6f 66 20 63 	jal	a2, 0x180009f6c <_end+0x51e4>
18000393e: 75 64       	<unknown>
180003940: 61 6d       	<unknown>
180003942: 65 6d       	<unknown>
180003944: 63 70 79 74 	bgeu	s2, t2, 0x180004084 <STARTUP_ADDR+0x4084>
180003948: 6f 73 79 6d 	jal	t1, 0x18009b81e <_end+0x96a96>
18000394c: 62 6f       	<unknown>
18000394e: 6c 3d       	<unknown>
180003950: 25 64       	<unknown>
180003952: 20 0a       	<unknown>
180003954: 00 00       	<unknown>
180003956: 00 00       	<unknown>
180003958: 65 72       	<unknown>
18000395a: 72 6f       	<unknown>
18000395c: 72 3a       	<unknown>
18000395e: 20 67       	<unknown>
180003960: 72 6f       	<unknown>
180003962: 75 70       	<unknown>
180003964: 5f 73 69 7a 	<unknown>
180003968: 65 20       	<unknown>
18000396a: 3e 20       	<unknown>
18000396c: 74 68       	<unknown>
18000396e: 72 65       	<unknown>
180003970: 61 64       	<unknown>
180003972: 73 5f 70 65 	csrrwi	t5, 0x657, 0x0
180003976: 72 5f       	<unknown>
180003978: 63 6f 72 65 	bltu	tp, s7, 0x180003fd6 <STARTUP_ADDR+0x3fd6>
18000397c: 20 28       	<unknown>
18000397e: 25 64       	<unknown>
180003980: 2c 25       	<unknown>
180003982: 64 29       	<unknown>
180003984: 0a 00       	<unknown>
180003986: 00 00       	<unknown>
180003988: 66 6e       	<unknown>
18000398a: 69 2b       	<unknown>
18000398c: 00 00       	<unknown>
18000398e: 00 00       	<unknown>
180003990: 66 6e       	<unknown>
180003992: 69 00       	<unknown>
180003994: 00 00       	<unknown>
180003996: 00 00       	<unknown>
180003998: 6e 61       	<unknown>
18000399a: 6e 00       	<unknown>
18000399c: 00 00       	<unknown>
18000399e: 00 00       	<unknown>
1800039a0: 66 6e       	<unknown>
1800039a2: 69 2d       	<unknown>
1800039a4: 00 00       	<unknown>
1800039a6: 00 00       	<unknown>
1800039a8: 00 ef       	<unknown>
1800039aa: ff ff 6c ee 	<unknown>
1800039ae: ff ff 6c ee 	<unknown>
1800039b2: ff ff f0 ee 	<unknown>
1800039b6: ff ff 6c ee 	<unknown>
1800039ba: ff ff 6c ee 	<unknown>
1800039be: ff ff 6c ee 	<unknown>
1800039c2: ff ff 6c ee 	<unknown>
1800039c6: ff ff 6c ee 	<unknown>
1800039ca: ff ff 6c ee 	<unknown>
1800039ce: ff ff 6c ee 	<unknown>
1800039d2: ff ff e0 ee 	<unknown>
1800039d6: ff ff 6c ee 	<unknown>
1800039da: ff ff d0 ee 	<unknown>
1800039de: ff ff 6c ee 	<unknown>
1800039e2: ff ff 6c ee 	<unknown>
1800039e6: ff ff c0 ee 	<unknown>
1800039ea: ff ff 10 f1 	<unknown>
1800039ee: ff ff dc ee 	<unknown>
1800039f2: ff ff cc ee 	<unknown>
1800039f6: ff ff dc ee 	<unknown>
1800039fa: ff ff f0 f0 	<unknown>
1800039fe: ff ff dc ee 	<unknown>
180003a02: ff ff dc ee 	<unknown>
180003a06: ff ff dc ee 	<unknown>
180003a0a: ff ff dc ee 	<unknown>
180003a0e: ff ff dc ee 	<unknown>
180003a12: ff ff dc ee 	<unknown>
180003a16: ff ff dc ee 	<unknown>
180003a1a: ff ff cc ee 	<unknown>
180003a1e: ff ff dc ee 	<unknown>
180003a22: ff ff dc ee 	<unknown>
180003a26: ff ff dc ee 	<unknown>
180003a2a: ff ff dc ee 	<unknown>
180003a2e: ff ff dc ee 	<unknown>
180003a32: ff ff cc ee 	<unknown>
180003a36: ff ff 7c f1 	<unknown>
180003a3a: ff ff 88 ed 	<unknown>
180003a3e: ff ff 88 ed 	<unknown>
180003a42: ff ff 88 ed 	<unknown>
180003a46: ff ff 88 ed 	<unknown>
180003a4a: ff ff 88 ed 	<unknown>
180003a4e: ff ff 88 ed 	<unknown>
180003a52: ff ff 88 ed 	<unknown>
180003a56: ff ff 88 ed 	<unknown>
180003a5a: ff ff 88 ed 	<unknown>
180003a5e: ff ff 88 ed 	<unknown>
180003a62: ff ff 88 ed 	<unknown>
180003a66: ff ff 88 ed 	<unknown>
180003a6a: ff ff 88 ed 	<unknown>
180003a6e: ff ff 88 ed 	<unknown>
180003a72: ff ff 88 ed 	<unknown>
180003a76: ff ff 88 ed 	<unknown>
180003a7a: ff ff 88 ed 	<unknown>
180003a7e: ff ff 88 ed 	<unknown>
180003a82: ff ff 88 ed 	<unknown>
180003a86: ff ff 88 ed 	<unknown>
180003a8a: ff ff 88 ed 	<unknown>
180003a8e: ff ff 88 ed 	<unknown>
180003a92: ff ff 88 ed 	<unknown>
180003a96: ff ff 88 ed 	<unknown>
180003a9a: ff ff 88 ed 	<unknown>
180003a9e: ff ff 88 ed 	<unknown>
180003aa2: ff ff 88 ed 	<unknown>
180003aa6: ff ff 88 ed 	<unknown>
180003aaa: ff ff 88 ed 	<unknown>
180003aae: ff ff 88 ed 	<unknown>
180003ab2: ff ff 88 ed 	<unknown>
180003ab6: ff ff 5c f0 	<unknown>
180003aba: ff ff e0 f0 	<unknown>
180003abe: ff ff 5c f0 	<unknown>
180003ac2: ff ff 88 ed 	<unknown>
180003ac6: ff ff 88 ed 	<unknown>
180003aca: ff ff 88 ed 	<unknown>
180003ace: ff ff 88 ed 	<unknown>
180003ad2: ff ff 88 ed 	<unknown>
180003ad6: ff ff 88 ed 	<unknown>
180003ada: ff ff 88 ed 	<unknown>
180003ade: ff ff 88 ed 	<unknown>
180003ae2: ff ff 88 ed 	<unknown>
180003ae6: ff ff 88 ed 	<unknown>
180003aea: ff ff 88 ed 	<unknown>
180003aee: ff ff 88 ed 	<unknown>
180003af2: ff ff 88 ed 	<unknown>
180003af6: ff ff 88 ed 	<unknown>
180003afa: ff ff 88 ed 	<unknown>
180003afe: ff ff 88 ed 	<unknown>
180003b02: ff ff f0 f2 	<unknown>
180003b06: ff ff 88 ed 	<unknown>
180003b0a: ff ff 88 ed 	<unknown>
180003b0e: ff ff 88 ed 	<unknown>
180003b12: ff ff 88 ed 	<unknown>
180003b16: ff ff 88 ed 	<unknown>
180003b1a: ff ff 88 ed 	<unknown>
180003b1e: ff ff 88 ed 	<unknown>
180003b22: ff ff 88 ed 	<unknown>
180003b26: ff ff 88 ed 	<unknown>
180003b2a: ff ff f0 f2 	<unknown>
180003b2e: ff ff 18 f1 	<unknown>
180003b32: ff ff f0 f2 	<unknown>
180003b36: ff ff 5c f0 	<unknown>
180003b3a: ff ff e0 f0 	<unknown>
180003b3e: ff ff 5c f0 	<unknown>
180003b42: ff ff 00 00 	<unknown>
180003b46: 00 00       	<unknown>

0000000180003b48 <pow10.0>:
180003b48: 00 00       	<unknown>
180003b4a: 00 00       	<unknown>
180003b4c: 00 00       	<unknown>
180003b4e: f0 3f       	<unknown>
180003b50: 00 00       	<unknown>
180003b52: 00 00       	<unknown>
180003b54: 00 00       	<unknown>
180003b56: 24 40       	<unknown>
180003b58: 00 00       	<unknown>
180003b5a: 00 00       	<unknown>
180003b5c: 00 00       	<unknown>
180003b5e: 59 40       	<unknown>
180003b60: 00 00       	<unknown>
180003b62: 00 00       	<unknown>
180003b64: 00 40       	<unknown>
180003b66: 8f 40 00 00 	<unknown>
180003b6a: 00 00       	<unknown>
180003b6c: 00 88       	<unknown>
180003b6e: c3 40 00 00 	fmadd.s	ft1, ft0, ft0, ft0, rmm
180003b72: 00 00       	<unknown>
180003b74: 00 6a       	<unknown>
180003b76: f8 40       	<unknown>
180003b78: 00 00       	<unknown>
180003b7a: 00 00       	<unknown>
180003b7c: 80 84       	<unknown>
180003b7e: 2e 41       	<unknown>
180003b80: 00 00       	<unknown>
180003b82: 00 00       	<unknown>
180003b84: d0 12       	<unknown>
180003b86: 63 41 00 00 	bltz	zero, 0x180003b88 <pow10.0+0x40>
180003b8a: 00 00       	<unknown>
180003b8c: 84 d7       	<unknown>
180003b8e: 97 41 00 00 	auipc	gp, 0x4
180003b92: 00 00       	<unknown>
180003b94: 65 cd       	<unknown>
180003b96: cd 41       	<unknown>

Disassembly of section .eh_frame:

0000000180003b98 <.eh_frame>:
180003b98: 10 00       	<unknown>
180003b9a: 00 00       	<unknown>
180003b9c: 00 00       	<unknown>
180003b9e: 00 00       	<unknown>
180003ba0: 01 7a       	<unknown>
180003ba2: 52 00       	<unknown>
180003ba4: 01 78       	<unknown>
180003ba6: 01 01       	<unknown>
180003ba8: 1b 0c 02 00 	sext.w	s8, tp
180003bac: 10 00       	<unknown>
180003bae: 00 00       	<unknown>
180003bb0: 18 00       	<unknown>
180003bb2: 00 00       	<unknown>
180003bb4: e0 c4       	<unknown>
180003bb6: ff ff 4c 00 	<unknown>
180003bba: 00 00       	<unknown>
180003bbc: 00 00       	<unknown>
180003bbe: 00 00       	<unknown>
180003bc0: 10 00       	<unknown>
180003bc2: 00 00       	<unknown>
180003bc4: 2c 00       	<unknown>
180003bc6: 00 00       	<unknown>
180003bc8: 18 c5       	<unknown>
180003bca: ff ff 4c 00 	<unknown>
180003bce: 00 00       	<unknown>
180003bd0: 00 00       	<unknown>
180003bd2: 00 00       	<unknown>
180003bd4: 10 00       	<unknown>
180003bd6: 00 00       	<unknown>
180003bd8: 40 00       	<unknown>
180003bda: 00 00       	<unknown>
180003bdc: 50 c5       	<unknown>
180003bde: ff ff 4c 00 	<unknown>
180003be2: 00 00       	<unknown>
180003be4: 00 00       	<unknown>
180003be6: 00 00       	<unknown>
180003be8: 10 00       	<unknown>
180003bea: 00 00       	<unknown>
180003bec: 54 00       	<unknown>
180003bee: 00 00       	<unknown>
180003bf0: 88 c5       	<unknown>
180003bf2: ff ff 4c 00 	<unknown>
180003bf6: 00 00       	<unknown>
180003bf8: 00 00       	<unknown>
180003bfa: 00 00       	<unknown>
180003bfc: 20 00       	<unknown>
180003bfe: 00 00       	<unknown>
180003c00: 68 00       	<unknown>
180003c02: 00 00       	<unknown>
180003c04: c0 c5       	<unknown>
180003c06: ff ff 20 01 	<unknown>
180003c0a: 00 00       	<unknown>
180003c0c: 00 44       	<unknown>
180003c0e: 0e 30       	<unknown>
180003c10: 58 81       	<unknown>
180003c12: 01 88       	<unknown>
180003c14: 02 89       	<unknown>
180003c16: 03 92 04 93 	lh	tp, -0x6d0(s1)
180003c1a: 05 94       	<unknown>
180003c1c: 06 00       	<unknown>
180003c1e: 00 00       	<unknown>
180003c20: 18 00       	<unknown>
180003c22: 00 00       	<unknown>
180003c24: 8c 00       	<unknown>
180003c26: 00 00       	<unknown>
180003c28: e0 d1       	<unknown>
180003c2a: ff ff 3c 00 	<unknown>
180003c2e: 00 00       	<unknown>
180003c30: 00 44       	<unknown>
180003c32: 0e 10       	<unknown>
180003c34: 48 81       	<unknown>
180003c36: 01 88       	<unknown>
180003c38: 02 00       	<unknown>
180003c3a: 00 00       	<unknown>

Disassembly of section .tbss:

0000000180004c40 <__tbss_start>:
...

Disassembly of section .data:

0000000180004c40 <callbacks>:
180004c40: 94 00       	<unknown>
180004c42: 00 80       	<unknown>
180004c44: 01 00       	<unknown>
180004c46: 00 00       	<unknown>
180004c48: e0 00       	<unknown>
180004c4a: 00 80       	<unknown>
180004c4c: 01 00       	<unknown>
180004c4e: 00 00       	<unknown>
180004c50: 2c 01       	<unknown>
180004c52: 00 80       	<unknown>
180004c54: 01 00       	<unknown>
180004c56: 00 00       	<unknown>
180004c58: 78 01       	<unknown>
180004c5a: 00 80       	<unknown>
180004c5c: 01 00       	<unknown>
180004c5e: 00 00       	<unknown>

Disassembly of section .got:

0000000180004c60 <.got>:
180004c60: ff ff ff ff 	<unknown>
180004c64: ff ff ff ff 	<unknown>
		...

0000000180004c70 <_GLOBAL_OFFSET_TABLE_>:
		...
180004c78: 20 00       	<unknown>
180004c7a: 00 00       	<unknown>
180004c7c: 00 00       	<unknown>
180004c7e: 00 00       	<unknown>
180004c80: 30 00       	<unknown>
180004c82: 00 00       	<unknown>
180004c84: 00 00       	<unknown>
180004c86: 00 00       	<unknown>
180004c88: 40 4c       	<unknown>
180004c8a: 00 80       	<unknown>
180004c8c: 01 00       	<unknown>
180004c8e: 00 00       	<unknown>
180004c90: 40 4c       	<unknown>
180004c92: 00 80       	<unknown>
180004c94: 01 00       	<unknown>
180004c96: 00 00       	<unknown>

Disassembly of section .sdata:

0000000180004c98 <__SDATA_BEGIN__>:
180004c98: 00 00       	<unknown>
180004c9a: 00 00       	<unknown>
180004c9c: 65 cd       	<unknown>
180004c9e: cd 41       	<unknown>
180004ca0: 00 00       	<unknown>
180004ca2: 00 00       	<unknown>
180004ca4: 80 84       	<unknown>
180004ca6: 2e 41       	<unknown>
180004ca8: ff ff ff ff 	<unknown>
180004cac: ff ff ef ff 	<unknown>
180004cb0: ff ff ff ff 	<unknown>
180004cb4: ff ff ef 7f 	<unknown>
180004cb8: 00 00       	<unknown>
180004cba: 00 00       	<unknown>
180004cbc: 65 cd       	<unknown>
180004cbe: cd c1       	<unknown>
180004cc0: 00 00       	<unknown>
180004cc2: 00 00       	<unknown>
180004cc4: 00 00       	<unknown>
180004cc6: e0 3f       	<unknown>
180004cc8: fb 79 9f 50 	<unknown>
180004ccc: 13 44 d3 3f 	xori	s0, t1, 0x3fd
180004cd0: b3 c8 60 8b 	<unknown>
180004cd4: 28 8a       	<unknown>
180004cd6: c6 3f       	<unknown>
180004cd8: 00 00       	<unknown>
180004cda: 00 00       	<unknown>
180004cdc: 00 00       	<unknown>
180004cde: f8 3f       	<unknown>
180004ce0: 61 43       	<unknown>
180004ce2: 6f 63 a7 87 	jal	t1, 0x17ff7ad5c <__tbss_size+0x17ff7ad1c>
180004ce6: d2 3f       	<unknown>
180004ce8: 71 a3       	<unknown>
180004cea: 79 09       	<unknown>
180004cec: 4f 93 0a 40 	fnmadd.s	ft6, fs5, ft0, fs0, rtz
180004cf0: ef 39 fa fe 	jal	s3, 0x17ffa8cde <__tbss_size+0x17ffa8c9e>
180004cf4: 42 2e       	<unknown>
180004cf6: e6 3f       	<unknown>
180004cf8: 16 55       	<unknown>
180004cfa: b5 bb       	<unknown>
180004cfc: b1 6b       	<unknown>
180004cfe: 02 40       	<unknown>
180004d00: 00 00       	<unknown>
180004d02: 00 00       	<unknown>
180004d04: 00 00       	<unknown>
180004d06: 2c 40       	<unknown>
180004d08: 00 00       	<unknown>
180004d0a: 00 00       	<unknown>
180004d0c: 00 00       	<unknown>
180004d0e: 24 40       	<unknown>
180004d10: 00 00       	<unknown>
180004d12: 00 00       	<unknown>
180004d14: 00 00       	<unknown>
180004d16: 18 40       	<unknown>
180004d18: 00 00       	<unknown>
180004d1a: 00 00       	<unknown>
180004d1c: 00 00       	<unknown>
180004d1e: 00 40       	<unknown>
180004d20: 00 00       	<unknown>
180004d22: 00 00       	<unknown>
180004d24: 00 00       	<unknown>
180004d26: f0 3f       	<unknown>
180004d28: 2d 43       	<unknown>
180004d2a: 1c eb       	<unknown>
180004d2c: e2 36       	<unknown>
180004d2e: 1a 3f       	<unknown>
180004d30: cc cc       	<unknown>
180004d32: cc 3e       	<unknown>
180004d34: 33 33 b3 3f 	<unknown>
180004d38: cc cc       	<unknown>
180004d3a: cc 3e       	<unknown>
180004d3c: 33 33 b3 3f 	<unknown>
180004d40: cd cc       	<unknown>
180004d42: 4c be       	<unknown>

Disassembly of section .sbss:

0000000180004d44 <grid_size_x>:
...

0000000180004d48 <grid_size_y>:
...

0000000180004d4c <grid_size_z>:
...

0000000180004d50 <block_size_x>:
...

0000000180004d54 <block_size_y>:
...

0000000180004d58 <block_size_z>:
...

0000000180004d5c <block_size>:
...

0000000180004d60 <dyn_shared_mem_size>:
...

0000000180004d64 <__warps_per_group>:
...

Disassembly of section .bss:

0000000180004d68 <blockDim>:
...

0000000180004d78 <gridDim>:
...

Disassembly of section .comment:

0000000000000000 <.comment>:
       0: 63 6c 61 6e  	bltu	sp, t1, 0x6f8 <.comment+0x6f8>
       4: 67 20 76 65  	<unknown>
       8: 72 73        	<unknown>
       a: 69 6f        	<unknown>
       c: 6e 20        	<unknown>
       e: 31 38        	<unknown>
      10: 2e 31        	<unknown>
      12: 2e 37        	<unknown>
      14: 20 28        	<unknown>
      16: 68 74        	<unknown>
      18: 74 70        	<unknown>
      1a: 73 3a 2f 2f  	csrrc	s4, 0x2f2, t5
      1e: 67 69 74 68  	<unknown>
      22: 75 62        	<unknown>
      24: 2e 63        	<unknown>
      26: 6f 6d 2f 76  	jal	s10, 0xf6788 <.comment+0xf6788>
      2a: 6f 72 74 65  	jal	tp, 0x47e80 <.comment+0x47e80>
      2e: 78 67        	<unknown>
      30: 70 67        	<unknown>
      32: 70 75        	<unknown>
      34: 2f 6c 6c 76  	<unknown>
      38: 6d 2e        	<unknown>
      3a: 67 69 74 20  	<unknown>
      3e: 61 35        	<unknown>
      40: 65 62        	<unknown>
      42: 66 37        	<unknown>
      44: 66 32        	<unknown>
      46: 63 31 66 32  	<unknown>
      4a: 34 36        	<unknown>
      4c: 61 35        	<unknown>
      4e: 65 33        	<unknown>
      50: 61 30        	<unknown>
      52: 38 31        	<unknown>
      54: 61 34        	<unknown>
      56: 66 64        	<unknown>
      58: 31 35        	<unknown>
      5a: 37 36 32 34  	lui	a2, 0x34323
      5e: 37 65 35 37  	lui	a0, 0x37356
      62: 34 62        	<unknown>
      64: 33 30 29 00  	sltu	zero, s2, sp
      68: 63 6c 61 6e  	bltu	sp, t1, 0x760 <.comment+0x760>
      6c: 67 20 76 65  	<unknown>
      70: 72 73        	<unknown>
      72: 69 6f        	<unknown>
      74: 6e 20        	<unknown>
      76: 33 2e 38 2e  	<unknown>
      7a: 30 20        	<unknown>
      7c: 28 74        	<unknown>
      7e: 61 67        	<unknown>
      80: 73 2f 52 45  	csrrs	t5, 0x455, tp
      84: 4c 45        	<unknown>
      86: 41 53        	<unknown>
      88: 45 5f        	<unknown>
      8a: 33 38 30 2f  	<unknown>
      8e: 66 69        	<unknown>
      90: 6e 61        	<unknown>
      92: 6c 29        	<unknown>
      94: 00 63        	<unknown>
      96: 6c 61        	<unknown>
      98: 6e 67        	<unknown>
      9a: 20 76        	<unknown>
      9c: 65 72        	<unknown>
      9e: 73 69 6f 6e  	csrrsi	s2, 0x6e6, 0x1e
      a2: 20 31        	<unknown>
      a4: 38 2e        	<unknown>
      a6: 31 2e        	<unknown>
      a8: 37 20 28 68  	lui	zero, 0x68282
      ac: 74 74        	<unknown>
      ae: 70 73        	<unknown>
      b0: 3a 2f        	<unknown>
      b2: 2f 67 69 74  	<unknown>
      b6: 68 75        	<unknown>
      b8: 62 2e        	<unknown>
      ba: 63 6f 6d 2f  	bltu	s10, s6, 0x3b8 <.comment+0x3b8>
      be: 76 6f        	<unknown>
      c0: 72 74        	<unknown>
      c2: 65 78        	<unknown>
      c4: 67 70 67 70  	<unknown>
      c8: 75 2f        	<unknown>
      ca: 6c 6c        	<unknown>
      cc: 76 6d        	<unknown>
      ce: 2e 67        	<unknown>
      d0: 69 74        	<unknown>
      d2: 20 35        	<unknown>
      d4: 32 31        	<unknown>
      d6: 32 62        	<unknown>
      d8: 31 30        	<unknown>
      da: 31 36        	<unknown>
      dc: 30 65        	<unknown>
      de: 36 33        	<unknown>
      e0: 63 39 61 39  	<unknown>
      e4: 38 38        	<unknown>
      e6: 33 63 33 66  	<unknown>
      ea: 62 38        	<unknown>
      ec: 62 30        	<unknown>
      ee: 38 64        	<unknown>
      f0: 30 31        	<unknown>
      f2: 35 62        	<unknown>
      f4: 36 36        	<unknown>
      f6: 37 64 64 61  	lui	s0, 0x61646
      fa: 62 29        	<unknown>
      fc: 00 47        	<unknown>
      fe: 43 43 3a 20  	fmadd.s	ft6, fs4, ft3, ft4, rmm
     102: 28 67        	<unknown>
     104: 32 65        	<unknown>
     106: 65 35        	<unknown>
     108: 65 34        	<unknown>
     10a: 33 30 30 31  	<unknown>
     10e: 38 2d        	<unknown>
     110: 64 69        	<unknown>
     112: 72 74        	<unknown>
     114: 79 29        	<unknown>
     116: 20 31        	<unknown>
     118: 32 2e        	<unknown>
     11a: 32 2e        	<unknown>
     11c: 30 00        	<unknown>
     11e: 63 6c 61 6e  	bltu	sp, t1, 0x816 <.comment+0x816>
     122: 67 20 76 65  	<unknown>
     126: 72 73        	<unknown>
     128: 69 6f        	<unknown>
     12a: 6e 20        	<unknown>
     12c: 31 38        	<unknown>
     12e: 2e 31        	<unknown>
     130: 2e 36        	<unknown>
     132: 20 28        	<unknown>
     134: 68 74        	<unknown>
     136: 74 70        	<unknown>
     138: 73 3a 2f 2f  	csrrc	s4, 0x2f2, t5
     13c: 67 69 74 68  	<unknown>
     140: 75 62        	<unknown>
     142: 2e 63        	<unknown>
     144: 6f 6d 2f 6c  	jal	s10, 0xf6806 <.comment+0xf6806>
     148: 6c 76        	<unknown>
     14a: 6d 2f        	<unknown>
     14c: 6c 6c        	<unknown>
     14e: 76 6d        	<unknown>
     150: 2d 70        	<unknown>
     152: 72 6f        	<unknown>
     154: 6a 65        	<unknown>
     156: 63 74 2e 67  	bgeu	t3, s2, 0x7be <.comment+0x7be>
     15a: 69 74        	<unknown>
     15c: 20 31        	<unknown>
     15e: 64 36        	<unknown>
     160: 31 62        	<unknown>
     162: 34 30        	<unknown>
     164: 34 34        	<unknown>
     166: 64 64        	<unknown>
     168: 64 64        	<unknown>
     16a: 61 36        	<unknown>
     16c: 35 65        	<unknown>
     16e: 39 38        	<unknown>
     170: 65 37        	<unknown>
     172: 39 32        	<unknown>
     174: 38 66        	<unknown>
     176: 64 33        	<unknown>
     178: 39 35        	<unknown>
     17a: 65 36        	<unknown>
     17c: 61 39        	<unknown>
     17e: 35 31        	<unknown>
     180: 63 35 61 38  	<unknown>
     184: 66 29        	<unknown>
     186: 00           	<unknown>

Disassembly of section .riscv.attributes:

0000000000000000 <.riscv.attributes>:
       0: 41 4f        	<unknown>
       2: 00 00        	<unknown>
       4: 00 72        	<unknown>
       6: 69 73        	<unknown>
       8: 63 76 00 01  	bgeu	zero, a6, 0x14 <.comment+0x14>
       c: 45 00        	<unknown>
       e: 00 00        	<unknown>
      10: 04 10        	<unknown>
      12: 05 72        	<unknown>
      14: 76 36        	<unknown>
      16: 34 69        	<unknown>
      18: 32 70        	<unknown>
      1a: 31 5f        	<unknown>
      1c: 6d 32        	<unknown>
      1e: 70 30        	<unknown>
      20: 5f 61 32 70  	<unknown>
      24: 31 5f        	<unknown>
      26: 66 32        	<unknown>
      28: 70 32        	<unknown>
      2a: 5f 64 32 70  	<unknown>
      2e: 32 5f        	<unknown>
      30: 7a 69        	<unknown>
      32: 63 6f 6e 64  	bltu	t3, t1, 0x690 <.comment+0x690>
      36: 31 70        	<unknown>
      38: 30 5f        	<unknown>
      3a: 7a 69        	<unknown>
      3c: 63 73 72 32  	bgeu	tp, t2, 0x362 <.comment+0x362>
      40: 70 30        	<unknown>
      42: 5f 7a 6d 6d  	<unknown>
      46: 75 6c        	<unknown>
      48: 31 70        	<unknown>
      4a: 30 00        	<unknown>
      4c: 08 01        	<unknown>
      4e: 0a 0b        	<unknown>

Disassembly of section .debug_frame:

0000000000000000 <.debug_frame>:
       0: 0c 00        	<unknown>
       2: 00 00        	<unknown>
       4: ff ff ff ff  	<unknown>
       8: 01 00        	<unknown>
       a: 01 78        	<unknown>
       c: 01 0c        	<unknown>
       e: 02 00        	<unknown>
      10: 24 00        	<unknown>
		...
      26: 00 00        	<unknown>
      28: 40 0e        	<unknown>
      2a: 10 48        	<unknown>
      2c: 81 01        	<unknown>
      2e: 88 02        	<unknown>
      30: 44 0c        	<unknown>
      32: 08 00        	<unknown>
      34: 00 00        	<unknown>
      36: 00 00        	<unknown>
      38: 44 00        	<unknown>
      3a: 00 00        	<unknown>
      3c: 00 00        	<unknown>
      3e: 00 00        	<unknown>
      40: e4 02        	<unknown>
      42: 00 80        	<unknown>
      44: 01 00        	<unknown>
      46: 00 00        	<unknown>
      48: c8 01        	<unknown>
      4a: 00 00        	<unknown>
      4c: 00 00        	<unknown>
      4e: 00 00        	<unknown>
      50: 44 0e        	<unknown>
      52: a0 01        	<unknown>
      54: 02 4c        	<unknown>
      56: 81 01        	<unknown>
      58: 88 02        	<unknown>
      5a: 89 03        	<unknown>
      5c: 92 04        	<unknown>
      5e: 93 05 94 06  	addi	a1, s0, 0x69
      62: 95 07        	<unknown>
      64: 96 08        	<unknown>
      66: 97 09 98 0a  	auipc	s3, 0xa980
      6a: 99 0b        	<unknown>
      6c: 9a 0c        	<unknown>
      6e: 9b 0d a8 0e  	addiw	s11, a6, 0xea
      72: a9 0f        	<unknown>
      74: b2 10        	<unknown>
      76: b3 11 b4 12  	<unknown>
      7a: b5 13        	<unknown>
      7c: 44 0c        	<unknown>
      7e: 08 00        	<unknown>
      80: 54 00        	<unknown>
      82: 00 00        	<unknown>
      84: 00 00        	<unknown>
      86: 00 00        	<unknown>
      88: ac 04        	<unknown>
      8a: 00 80        	<unknown>
      8c: 01 00        	<unknown>
      8e: 00 00        	<unknown>
      90: 14 07        	<unknown>
      92: 00 00        	<unknown>
      94: 00 00        	<unknown>
      96: 00 00        	<unknown>
      98: 44 0e        	<unknown>
      9a: 80 04        	<unknown>
      9c: 02 64        	<unknown>
      9e: 81 01        	<unknown>
      a0: 88 02        	<unknown>
      a2: 89 03        	<unknown>
      a4: 92 04        	<unknown>
      a6: 93 05 94 06  	addi	a1, s0, 0x69
      aa: 95 07        	<unknown>
      ac: 96 08        	<unknown>
      ae: 97 09 98 0a  	auipc	s3, 0xa980
      b2: 99 0b        	<unknown>
      b4: 9a 0c        	<unknown>
      b6: 9b 0d a8 0e  	addiw	s11, a6, 0xea
      ba: a9 0f        	<unknown>
      bc: b2 10        	<unknown>
      be: b3 11 b4 12  	<unknown>
      c2: b5 13        	<unknown>
      c4: b6 14        	<unknown>
      c6: b7 15 b8 16  	lui	a1, 0x16b81
      ca: b9 17        	<unknown>
      cc: ba 18        	<unknown>
      ce: bb 19 44 0c  	<unknown>
      d2: 08 00        	<unknown>
      d4: 00 00        	<unknown>
      d6: 00 00        	<unknown>
      d8: 24 00        	<unknown>
      da: 00 00        	<unknown>
      dc: 00 00        	<unknown>
      de: 00 00        	<unknown>
      e0: c0 0b        	<unknown>
      e2: 00 80        	<unknown>
      e4: 01 00        	<unknown>
      e6: 00 00        	<unknown>
      e8: 2c 01        	<unknown>
      ea: 00 00        	<unknown>
      ec: 00 00        	<unknown>
      ee: 00 00        	<unknown>
      f0: 50 0e        	<unknown>
      f2: 20 4c        	<unknown>
      f4: 81 01        	<unknown>
      f6: 88 02        	<unknown>
      f8: 89 03        	<unknown>
      fa: 44 0c        	<unknown>
      fc: 08 00        	<unknown>
      fe: 00 00        	<unknown>
     100: 14 00        	<unknown>
     102: 00 00        	<unknown>
     104: 00 00        	<unknown>
     106: 00 00        	<unknown>
     108: ec 0c        	<unknown>
     10a: 00 80        	<unknown>
     10c: 01 00        	<unknown>
     10e: 00 00        	<unknown>
     110: a4 00        	<unknown>
     112: 00 00        	<unknown>
     114: 00 00        	<unknown>
     116: 00 00        	<unknown>
     118: 14 00        	<unknown>
     11a: 00 00        	<unknown>
     11c: 00 00        	<unknown>
     11e: 00 00        	<unknown>
     120: 90 0d        	<unknown>
     122: 00 80        	<unknown>
     124: 01 00        	<unknown>
     126: 00 00        	<unknown>
     128: 14 00        	<unknown>
     12a: 00 00        	<unknown>
     12c: 00 00        	<unknown>
     12e: 00 00        	<unknown>
     130: 1c 00        	<unknown>
     132: 00 00        	<unknown>
     134: 00 00        	<unknown>
     136: 00 00        	<unknown>
     138: a4 0d        	<unknown>
     13a: 00 80        	<unknown>
     13c: 01 00        	<unknown>
     13e: 00 00        	<unknown>
     140: 48 00        	<unknown>
     142: 00 00        	<unknown>
     144: 00 00        	<unknown>
     146: 00 00        	<unknown>
     148: 44 0e        	<unknown>
     14a: 20 44        	<unknown>
     14c: 81 01        	<unknown>
     14e: 00 00        	<unknown>
     150: 14 00        	<unknown>
     152: 00 00        	<unknown>
     154: 00 00        	<unknown>
     156: 00 00        	<unknown>
     158: ec 0d        	<unknown>
     15a: 00 80        	<unknown>
     15c: 01 00        	<unknown>
     15e: 00 00        	<unknown>
     160: 1c 00        	<unknown>
     162: 00 00        	<unknown>
     164: 00 00        	<unknown>
     166: 00 00        	<unknown>

Disassembly of section .symtab:

0000000000000000 <.symtab>:
		...
      1c: 03 00 01 00  	lb	zero, 0x0(sp)
      20: 00 00        	<unknown>
      22: 00 80        	<unknown>
      24: 01 00        	<unknown>
		...
      32: 00 00        	<unknown>
      34: 03 00 02 00  	lb	zero, 0x0(tp)
      38: 70 00        	<unknown>
      3a: 00 80        	<unknown>
      3c: 01 00        	<unknown>
		...
      4a: 00 00        	<unknown>
      4c: 03 00 03 00  	lb	zero, 0x0(t1)
      50: 18 39        	<unknown>
      52: 00 80        	<unknown>
      54: 01 00        	<unknown>
		...
      62: 00 00        	<unknown>
      64: 03 00 04 00  	lb	zero, 0x0(s0)
      68: 98 3b        	<unknown>
      6a: 00 80        	<unknown>
      6c: 01 00        	<unknown>
		...
      7a: 00 00        	<unknown>
      7c: 03 00 05 00  	lb	zero, 0x0(a0)
      80: 40 4c        	<unknown>
      82: 00 80        	<unknown>
      84: 01 00        	<unknown>
		...
      92: 00 00        	<unknown>
      94: 03 00 06 00  	lb	zero, 0x0(a2)
      98: 40 4c        	<unknown>
      9a: 00 80        	<unknown>
      9c: 01 00        	<unknown>
		...
      aa: 00 00        	<unknown>
      ac: 03 00 07 00  	lb	zero, 0x0(a4)
      b0: 60 4c        	<unknown>
      b2: 00 80        	<unknown>
      b4: 01 00        	<unknown>
		...
      c2: 00 00        	<unknown>
      c4: 03 00 08 00  	lb	zero, 0x0(a6)
      c8: 98 4c        	<unknown>
      ca: 00 80        	<unknown>
      cc: 01 00        	<unknown>
		...
      da: 00 00        	<unknown>
      dc: 03 00 09 00  	lb	zero, 0x0(s2)
      e0: 44 4d        	<unknown>
      e2: 00 80        	<unknown>
      e4: 01 00        	<unknown>
		...
      f2: 00 00        	<unknown>
      f4: 03 00 0a 00  	lb	zero, 0x0(s4)
      f8: 68 4d        	<unknown>
      fa: 00 80        	<unknown>
      fc: 01 00        	<unknown>
		...
     10a: 00 00        	<unknown>
     10c: 03 00 0b 00  	lb	zero, 0x0(s6)
		...
     124: 03 00 0c 00  	lb	zero, 0x0(s8)
		...
     13c: 03 00 0d 00  	lb	zero, 0x0(s10)
		...
     150: 01 00        	<unknown>
     152: 00 00        	<unknown>
     154: 04 00        	<unknown>
     156: f1 ff        	<unknown>
		...
     168: 0e 00        	<unknown>
     16a: 00 00        	<unknown>
     16c: 00 00        	<unknown>
     16e: 01 00        	<unknown>
     170: 00 00        	<unknown>
     172: 00 80        	<unknown>
     174: 01 00        	<unknown>
		...
     17e: 00 00        	<unknown>
     180: 3f 00 00 00  	<unknown>
     184: 02 00        	<unknown>
     186: 02 00        	<unknown>
     188: 9c 0e        	<unknown>
     18a: 00 80        	<unknown>
     18c: 01 00        	<unknown>
		...
     196: 00 00        	<unknown>
     198: 4d 00        	<unknown>
     19a: 00 00        	<unknown>
     19c: 02 00        	<unknown>
     19e: 02 00        	<unknown>
     1a0: 58 0e        	<unknown>
     1a2: 00 80        	<unknown>
     1a4: 01 00        	<unknown>
		...
     1ae: 00 00        	<unknown>
     1b0: 57 00 00 00  	<unknown>
     1b4: 02 00        	<unknown>
     1b6: 02 00        	<unknown>
     1b8: b0 0e        	<unknown>
     1ba: 00 80        	<unknown>
     1bc: 01 00        	<unknown>
		...
     1c6: 00 00        	<unknown>
     1c8: 0e 00        	<unknown>
     1ca: 00 00        	<unknown>
     1cc: 00 00        	<unknown>
     1ce: 02 00        	<unknown>
     1d0: 44 0e        	<unknown>
     1d2: 00 80        	<unknown>
     1d4: 01 00        	<unknown>
		...
     1de: 00 00        	<unknown>
     1e0: 64 00        	<unknown>
     1e2: 00 00        	<unknown>
     1e4: 04 00        	<unknown>
     1e6: f1 ff        	<unknown>
		...
     1f8: 6b 00 00 00  	<unknown>
     1fc: 02 00        	<unknown>
     1fe: 02 00        	<unknown>
     200: 9c 31        	<unknown>
     202: 00 80        	<unknown>
     204: 01 00        	<unknown>
     206: 00 00        	<unknown>
     208: 04 00        	<unknown>
     20a: 00 00        	<unknown>
     20c: 00 00        	<unknown>
     20e: 00 00        	<unknown>
     210: 71 00        	<unknown>
     212: 00 00        	<unknown>
     214: 00 00        	<unknown>
     216: 02 00        	<unknown>
     218: 9c 31        	<unknown>
     21a: 00 80        	<unknown>
     21c: 01 00        	<unknown>
		...
     226: 00 00        	<unknown>
     228: c8 06        	<unknown>
     22a: 00 00        	<unknown>
     22c: 02 00        	<unknown>
     22e: 02 00        	<unknown>
     230: a0 31        	<unknown>
     232: 00 80        	<unknown>
     234: 01 00        	<unknown>
     236: 00 00        	<unknown>
     238: 64 00        	<unknown>
     23a: 00 00        	<unknown>
     23c: 00 00        	<unknown>
     23e: 00 00        	<unknown>
     240: 76 00        	<unknown>
     242: 00 00        	<unknown>
     244: 00 00        	<unknown>
     246: 02 00        	<unknown>
     248: a0 31        	<unknown>
     24a: 00 80        	<unknown>
     24c: 01 00        	<unknown>
		...
     256: 00 00        	<unknown>
     258: 7b 00 00 00  	<unknown>
     25c: 00 00        	<unknown>
     25e: 02 00        	<unknown>
     260: 70 00        	<unknown>
     262: 00 80        	<unknown>
     264: 01 00        	<unknown>
		...
     26e: 00 00        	<unknown>
     270: 80 00        	<unknown>
     272: 00 00        	<unknown>
     274: 00 00        	<unknown>
     276: 0b 00 67 00  	<unknown>
		...
     286: 00 00        	<unknown>
     288: 85 00        	<unknown>
     28a: 00 00        	<unknown>
     28c: 00 00        	<unknown>
     28e: 0c 00        	<unknown>
     290: e1 02        	<unknown>
		...
     29e: 00 00        	<unknown>
     2a0: 8a 00        	<unknown>
     2a2: 00 00        	<unknown>
     2a4: 04 00        	<unknown>
     2a6: f1 ff        	<unknown>
		...
     2bc: 00 00        	<unknown>
     2be: 02 00        	<unknown>
     2c0: 94 00        	<unknown>
     2c2: 00 80        	<unknown>
     2c4: 01 00        	<unknown>
		...
     2ce: 00 00        	<unknown>
     2d0: 7b 00 00 00  	<unknown>
     2d4: 00 00        	<unknown>
     2d6: 02 00        	<unknown>
     2d8: 94 00        	<unknown>
     2da: 00 80        	<unknown>
     2dc: 01 00        	<unknown>
		...
     2ee: 02 00        	<unknown>
     2f0: e0 00        	<unknown>
     2f2: 00 80        	<unknown>
     2f4: 01 00        	<unknown>
		...
     306: 02 00        	<unknown>
     308: e0 00        	<unknown>
     30a: 00 80        	<unknown>
     30c: 01 00        	<unknown>
		...
     316: 00 00        	<unknown>
     318: 9d 00        	<unknown>
     31a: 00 00        	<unknown>
     31c: 00 00        	<unknown>
     31e: 02 00        	<unknown>
     320: e0 00        	<unknown>
     322: 00 80        	<unknown>
     324: 01 00        	<unknown>
		...
     336: 02 00        	<unknown>
     338: 2c 01        	<unknown>
     33a: 00 80        	<unknown>
     33c: 01 00        	<unknown>
		...
     34e: 02 00        	<unknown>
     350: 2c 01        	<unknown>
     352: 00 80        	<unknown>
     354: 01 00        	<unknown>
		...
     35e: 00 00        	<unknown>
     360: a2 00        	<unknown>
     362: 00 00        	<unknown>
     364: 00 00        	<unknown>
     366: 02 00        	<unknown>
     368: 2c 01        	<unknown>
     36a: 00 80        	<unknown>
     36c: 01 00        	<unknown>
		...
     37e: 02 00        	<unknown>
     380: 78 01        	<unknown>
     382: 00 80        	<unknown>
     384: 01 00        	<unknown>
		...
     396: 02 00        	<unknown>
     398: 78 01        	<unknown>
     39a: 00 80        	<unknown>
     39c: 01 00        	<unknown>
		...
     3a6: 00 00        	<unknown>
     3a8: a7 00 00 00  	<unknown>
     3ac: 00 00        	<unknown>
     3ae: 02 00        	<unknown>
     3b0: 78 01        	<unknown>
     3b2: 00 80        	<unknown>
     3b4: 01 00        	<unknown>
		...
     3c6: 02 00        	<unknown>
     3c8: c4 01        	<unknown>
     3ca: 00 80        	<unknown>
     3cc: 01 00        	<unknown>
		...
     3de: 02 00        	<unknown>
     3e0: c4 01        	<unknown>
     3e2: 00 80        	<unknown>
     3e4: 01 00        	<unknown>
		...
     3ee: 00 00        	<unknown>
     3f0: ac 00        	<unknown>
     3f2: 00 00        	<unknown>
     3f4: 00 00        	<unknown>
     3f6: 02 00        	<unknown>
     3f8: c4 01        	<unknown>
     3fa: 00 80        	<unknown>
     3fc: 01 00        	<unknown>
		...
     40e: 02 00        	<unknown>
     410: e4 02        	<unknown>
     412: 00 80        	<unknown>
     414: 01 00        	<unknown>
		...
     41e: 00 00        	<unknown>
     420: b1 00        	<unknown>
     422: 00 00        	<unknown>
     424: 00 00        	<unknown>
     426: 09 00        	<unknown>
     428: 44 4d        	<unknown>
     42a: 00 80        	<unknown>
     42c: 01 00        	<unknown>
		...
     436: 00 00        	<unknown>
     438: b6 00        	<unknown>
     43a: 00 00        	<unknown>
     43c: 00 00        	<unknown>
     43e: 05 00        	<unknown>
     440: 40 4c        	<unknown>
     442: 00 80        	<unknown>
     444: 01 00        	<unknown>
		...
     44e: 00 00        	<unknown>
     450: bb 00 00 00  	addw	ra, zero, zero
     454: 00 00        	<unknown>
     456: 05 00        	<unknown>
     458: 44 4c        	<unknown>
     45a: 00 80        	<unknown>
     45c: 01 00        	<unknown>
		...
     466: 00 00        	<unknown>
     468: c1 00        	<unknown>
     46a: 00 00        	<unknown>
     46c: 00 00        	<unknown>
     46e: 05 00        	<unknown>
     470: 48 4c        	<unknown>
     472: 00 80        	<unknown>
     474: 01 00        	<unknown>
		...
     47e: 00 00        	<unknown>
     480: c7 00 00 00  	fmsub.s	ft1, ft0, ft0, ft0, rne
     484: 00 00        	<unknown>
     486: 05 00        	<unknown>
     488: 4c 4c        	<unknown>
     48a: 00 80        	<unknown>
     48c: 01 00        	<unknown>
		...
     496: 00 00        	<unknown>
     498: cd 00        	<unknown>
     49a: 00 00        	<unknown>
     49c: 00 00        	<unknown>
     49e: 05 00        	<unknown>
     4a0: 50 4c        	<unknown>
     4a2: 00 80        	<unknown>
     4a4: 01 00        	<unknown>
		...
     4ae: 00 00        	<unknown>
     4b0: d3 00 00 00  	fadd.s	ft1, ft0, ft0, rne
     4b4: 00 00        	<unknown>
     4b6: 05 00        	<unknown>
     4b8: 54 4c        	<unknown>
     4ba: 00 80        	<unknown>
     4bc: 01 00        	<unknown>
		...
     4c6: 00 00        	<unknown>
     4c8: d9 00        	<unknown>
     4ca: 00 00        	<unknown>
     4cc: 00 00        	<unknown>
     4ce: 06 00        	<unknown>
     4d0: 40 4c        	<unknown>
     4d2: 00 80        	<unknown>
     4d4: 01 00        	<unknown>
		...
     4de: 00 00        	<unknown>
     4e0: df 00 00 00  	<unknown>
     4e4: 00 00        	<unknown>
     4e6: 03 00 18 39  	lb	zero, 0x391(a6)
     4ea: 00 80        	<unknown>
     4ec: 01 00        	<unknown>
		...
     4f6: 00 00        	<unknown>
     4f8: e5 00        	<unknown>
     4fa: 00 00        	<unknown>
     4fc: 00 00        	<unknown>
     4fe: 0b 00 67 00  	<unknown>
		...
     50e: 00 00        	<unknown>
     510: eb 00 00 00  	<unknown>
     514: 00 00        	<unknown>
     516: 0c 00        	<unknown>
		...
     528: f1 00        	<unknown>
     52a: 00 00        	<unknown>
     52c: 00 00        	<unknown>
     52e: 04 00        	<unknown>
     530: 98 3b        	<unknown>
     532: 00 80        	<unknown>
     534: 01 00        	<unknown>
		...
     53e: 00 00        	<unknown>
     540: f7 00 00 00  	<unknown>
     544: 04 00        	<unknown>
     546: f1 ff        	<unknown>
		...
     558: 14 01        	<unknown>
     55a: 00 00        	<unknown>
     55c: 00 00        	<unknown>
     55e: 08 00        	<unknown>
     560: 30 4d        	<unknown>
     562: 00 80        	<unknown>
     564: 01 00        	<unknown>
		...
     576: 02 00        	<unknown>
     578: e4 02        	<unknown>
     57a: 00 80        	<unknown>
     57c: 01 00        	<unknown>
		...
     586: 00 00        	<unknown>
     588: 7b 00 00 00  	<unknown>
     58c: 00 00        	<unknown>
     58e: 02 00        	<unknown>
     590: e4 02        	<unknown>
     592: 00 80        	<unknown>
     594: 01 00        	<unknown>
		...
     5a6: 02 00        	<unknown>
     5a8: ac 04        	<unknown>
     5aa: 00 80        	<unknown>
     5ac: 01 00        	<unknown>
		...
     5be: 02 00        	<unknown>
     5c0: ac 04        	<unknown>
     5c2: 00 80        	<unknown>
     5c4: 01 00        	<unknown>
		...
     5ce: 00 00        	<unknown>
     5d0: 9d 00        	<unknown>
     5d2: 00 00        	<unknown>
     5d4: 00 00        	<unknown>
     5d6: 02 00        	<unknown>
     5d8: ac 04        	<unknown>
     5da: 00 80        	<unknown>
     5dc: 01 00        	<unknown>
		...
     5ee: 02 00        	<unknown>
     5f0: c0 0b        	<unknown>
     5f2: 00 80        	<unknown>
     5f4: 01 00        	<unknown>
		...
     606: 02 00        	<unknown>
     608: c0 0b        	<unknown>
     60a: 00 80        	<unknown>
     60c: 01 00        	<unknown>
		...
     616: 00 00        	<unknown>
     618: a2 00        	<unknown>
     61a: 00 00        	<unknown>
     61c: 00 00        	<unknown>
     61e: 02 00        	<unknown>
     620: c0 0b        	<unknown>
     622: 00 80        	<unknown>
     624: 01 00        	<unknown>
		...
     636: 02 00        	<unknown>
     638: d0 0b        	<unknown>
     63a: 00 80        	<unknown>
     63c: 01 00        	<unknown>
		...
     64e: 02 00        	<unknown>
     650: ec 0c        	<unknown>
     652: 00 80        	<unknown>
     654: 01 00        	<unknown>
		...
     666: 02 00        	<unknown>
     668: ec 0c        	<unknown>
     66a: 00 80        	<unknown>
     66c: 01 00        	<unknown>
		...
     676: 00 00        	<unknown>
     678: a7 00 00 00  	<unknown>
     67c: 00 00        	<unknown>
     67e: 02 00        	<unknown>
     680: ec 0c        	<unknown>
     682: 00 80        	<unknown>
     684: 01 00        	<unknown>
		...
     696: 02 00        	<unknown>
     698: 90 0d        	<unknown>
     69a: 00 80        	<unknown>
     69c: 01 00        	<unknown>
		...
     6ae: 02 00        	<unknown>
     6b0: 90 0d        	<unknown>
     6b2: 00 80        	<unknown>
     6b4: 01 00        	<unknown>
		...
     6be: 00 00        	<unknown>
     6c0: ac 00        	<unknown>
     6c2: 00 00        	<unknown>
     6c4: 00 00        	<unknown>
     6c6: 02 00        	<unknown>
     6c8: 90 0d        	<unknown>
     6ca: 00 80        	<unknown>
     6cc: 01 00        	<unknown>
		...
     6de: 02 00        	<unknown>
     6e0: a4 0d        	<unknown>
     6e2: 00 80        	<unknown>
     6e4: 01 00        	<unknown>
		...
     6f6: 02 00        	<unknown>
     6f8: a4 0d        	<unknown>
     6fa: 00 80        	<unknown>
     6fc: 01 00        	<unknown>
		...
     706: 00 00        	<unknown>
     708: 19 01        	<unknown>
     70a: 00 00        	<unknown>
     70c: 00 00        	<unknown>
     70e: 02 00        	<unknown>
     710: a4 0d        	<unknown>
     712: 00 80        	<unknown>
     714: 01 00        	<unknown>
		...
     726: 02 00        	<unknown>
     728: ec 0d        	<unknown>
     72a: 00 80        	<unknown>
     72c: 01 00        	<unknown>
		...
     73e: 02 00        	<unknown>
     740: ec 0d        	<unknown>
     742: 00 80        	<unknown>
     744: 01 00        	<unknown>
		...
     74e: 00 00        	<unknown>
     750: 1e 01        	<unknown>
     752: 00 00        	<unknown>
     754: 00 00        	<unknown>
     756: 02 00        	<unknown>
     758: ec 0d        	<unknown>
     75a: 00 80        	<unknown>
     75c: 01 00        	<unknown>
		...
     76e: 02 00        	<unknown>
     770: 08 0e        	<unknown>
     772: 00 80        	<unknown>
     774: 01 00        	<unknown>
		...
     77e: 00 00        	<unknown>
     780: b6 00        	<unknown>
     782: 00 00        	<unknown>
     784: 00 00        	<unknown>
     786: 0b 00 67 00  	<unknown>
		...
     796: 00 00        	<unknown>
     798: bb 00 00 00  	addw	ra, zero, zero
     79c: 00 00        	<unknown>
     79e: 0b 00 68 00  	<unknown>
		...
     7ae: 00 00        	<unknown>
     7b0: c1 00        	<unknown>
     7b2: 00 00        	<unknown>
     7b4: 00 00        	<unknown>
     7b6: 0c 00        	<unknown>
     7b8: 43 00 00 00  	fmadd.s	ft0, ft0, ft0, ft0, rne
		...
     7cc: 00 00        	<unknown>
     7ce: 0d 00        	<unknown>
		...
     7e0: c7 00 00 00  	fmsub.s	ft1, ft0, ft0, ft0, rne
     7e4: 00 00        	<unknown>
     7e6: 0d 00        	<unknown>
		...
     7f8: 23 01 00 00  	sb	zero, 0x2(zero)
     7fc: 04 00        	<unknown>
     7fe: f1 ff        	<unknown>
		...
     814: 00 00        	<unknown>
     816: 02 00        	<unknown>
     818: 08 0e        	<unknown>
     81a: 00 80        	<unknown>
     81c: 01 00        	<unknown>
		...
     826: 00 00        	<unknown>
     828: 7b 00 00 00  	<unknown>
     82c: 00 00        	<unknown>
     82e: 02 00        	<unknown>
     830: 08 0e        	<unknown>
     832: 00 80        	<unknown>
     834: 01 00        	<unknown>
		...
     846: 02 00        	<unknown>
     848: 44 0e        	<unknown>
     84a: 00 80        	<unknown>
     84c: 01 00        	<unknown>
		...
     856: 00 00        	<unknown>
     858: 36 01        	<unknown>
     85a: 00 00        	<unknown>
     85c: 00 00        	<unknown>
     85e: 0b 00 67 00  	<unknown>
		...
     86e: 00 00        	<unknown>
     870: 3c 01        	<unknown>
     872: 00 00        	<unknown>
     874: 00 00        	<unknown>
     876: 0c 00        	<unknown>
     878: 86 00        	<unknown>
		...
     886: 00 00        	<unknown>
     888: 42 01        	<unknown>
     88a: 00 00        	<unknown>
     88c: 00 00        	<unknown>
     88e: 04 00        	<unknown>
     890: 70 3b        	<unknown>
     892: 00 80        	<unknown>
     894: 01 00        	<unknown>
		...
     89e: 00 00        	<unknown>
     8a0: 48 01        	<unknown>
     8a2: 00 00        	<unknown>
     8a4: 04 00        	<unknown>
     8a6: f1 ff        	<unknown>
		...
     8b8: 0e 00        	<unknown>
     8ba: 00 00        	<unknown>
     8bc: 00 00        	<unknown>
     8be: 02 00        	<unknown>
     8c0: c4 0e        	<unknown>
     8c2: 00 80        	<unknown>
     8c4: 01 00        	<unknown>
		...
     8ce: 00 00        	<unknown>
     8d0: 0e 00        	<unknown>
     8d2: 00 00        	<unknown>
     8d4: 00 00        	<unknown>
     8d6: 02 00        	<unknown>
     8d8: 08 0f        	<unknown>
     8da: 00 80        	<unknown>
     8dc: 01 00        	<unknown>
		...
     8e6: 00 00        	<unknown>
     8e8: 0e 00        	<unknown>
     8ea: 00 00        	<unknown>
     8ec: 00 00        	<unknown>
     8ee: 02 00        	<unknown>
     8f0: 9c 0f        	<unknown>
     8f2: 00 80        	<unknown>
     8f4: 01 00        	<unknown>
		...
     8fe: 00 00        	<unknown>
     900: 56 01        	<unknown>
     902: 00 00        	<unknown>
     904: 04 00        	<unknown>
     906: f1 ff        	<unknown>
		...
     918: 0e 00        	<unknown>
     91a: 00 00        	<unknown>
     91c: 00 00        	<unknown>
     91e: 02 00        	<unknown>
     920: f8 0f        	<unknown>
     922: 00 80        	<unknown>
     924: 01 00        	<unknown>
		...
     92e: 00 00        	<unknown>
     930: 63 01 00 00  	beqz	zero, 0x932 <.symtab+0x932>
     934: 04 00        	<unknown>
     936: f1 ff        	<unknown>
		...
     948: 6e 01        	<unknown>
     94a: 00 00        	<unknown>
     94c: 02 00        	<unknown>
     94e: 02 00        	<unknown>
     950: 10 10        	<unknown>
     952: 00 80        	<unknown>
     954: 01 00        	<unknown>
     956: 00 00        	<unknown>
     958: 34 00        	<unknown>
     95a: 00 00        	<unknown>
     95c: 00 00        	<unknown>
     95e: 00 00        	<unknown>
     960: 0e 00        	<unknown>
     962: 00 00        	<unknown>
     964: 00 00        	<unknown>
     966: 02 00        	<unknown>
     968: 10 10        	<unknown>
     96a: 00 80        	<unknown>
     96c: 01 00        	<unknown>
		...
     976: 00 00        	<unknown>
     978: 0e 00        	<unknown>
     97a: 00 00        	<unknown>
     97c: 00 00        	<unknown>
     97e: 02 00        	<unknown>
     980: 44 10        	<unknown>
     982: 00 80        	<unknown>
     984: 01 00        	<unknown>
		...
     98e: 00 00        	<unknown>
     990: 7b 01 00 00  	<unknown>
     994: 04 00        	<unknown>
     996: f1 ff        	<unknown>
		...
     9a8: 86 01        	<unknown>
     9aa: 00 00        	<unknown>
     9ac: 02 00        	<unknown>
     9ae: 02 00        	<unknown>
     9b0: a4 10        	<unknown>
     9b2: 00 80        	<unknown>
     9b4: 01 00        	<unknown>
     9b6: 00 00        	<unknown>
     9b8: 20 01        	<unknown>
     9ba: 00 00        	<unknown>
     9bc: 00 00        	<unknown>
     9be: 00 00        	<unknown>
     9c0: 0e 00        	<unknown>
     9c2: 00 00        	<unknown>
     9c4: 00 00        	<unknown>
     9c6: 02 00        	<unknown>
     9c8: a4 10        	<unknown>
     9ca: 00 80        	<unknown>
     9cc: 01 00        	<unknown>
		...
     9d6: 00 00        	<unknown>
     9d8: 96 01        	<unknown>
     9da: 00 00        	<unknown>
     9dc: 02 00        	<unknown>
     9de: 02 00        	<unknown>
     9e0: c4 11        	<unknown>
     9e2: 00 80        	<unknown>
     9e4: 01 00        	<unknown>
     9e6: 00 00        	<unknown>
     9e8: 5c 00        	<unknown>
     9ea: 00 00        	<unknown>
     9ec: 00 00        	<unknown>
     9ee: 00 00        	<unknown>
     9f0: 0e 00        	<unknown>
     9f2: 00 00        	<unknown>
     9f4: 00 00        	<unknown>
     9f6: 02 00        	<unknown>
     9f8: c4 11        	<unknown>
     9fa: 00 80        	<unknown>
     9fc: 01 00        	<unknown>
		...
     a06: 00 00        	<unknown>
     a08: b0 01        	<unknown>
     a0a: 00 00        	<unknown>
     a0c: 02 00        	<unknown>
     a0e: 02 00        	<unknown>
     a10: 20 12        	<unknown>
     a12: 00 80        	<unknown>
     a14: 01 00        	<unknown>
     a16: 00 00        	<unknown>
     a18: 24 00        	<unknown>
     a1a: 00 00        	<unknown>
     a1c: 00 00        	<unknown>
     a1e: 00 00        	<unknown>
     a20: 0e 00        	<unknown>
     a22: 00 00        	<unknown>
     a24: 00 00        	<unknown>
     a26: 02 00        	<unknown>
     a28: 20 12        	<unknown>
     a2a: 00 80        	<unknown>
     a2c: 01 00        	<unknown>
		...
     a36: 00 00        	<unknown>
     a38: c5 01        	<unknown>
     a3a: 00 00        	<unknown>
     a3c: 02 00        	<unknown>
     a3e: 02 00        	<unknown>
     a40: 44 12        	<unknown>
     a42: 00 80        	<unknown>
     a44: 01 00        	<unknown>
     a46: 00 00        	<unknown>
     a48: 58 01        	<unknown>
     a4a: 00 00        	<unknown>
     a4c: 00 00        	<unknown>
     a4e: 00 00        	<unknown>
     a50: 0e 00        	<unknown>
     a52: 00 00        	<unknown>
     a54: 00 00        	<unknown>
     a56: 02 00        	<unknown>
     a58: 44 12        	<unknown>
     a5a: 00 80        	<unknown>
     a5c: 01 00        	<unknown>
		...
     a66: 00 00        	<unknown>
     a68: db 01 00 00  	<unknown>
     a6c: 02 00        	<unknown>
     a6e: 02 00        	<unknown>
     a70: 9c 13        	<unknown>
     a72: 00 80        	<unknown>
     a74: 01 00        	<unknown>
     a76: 00 00        	<unknown>
     a78: 50 00        	<unknown>
     a7a: 00 00        	<unknown>
     a7c: 00 00        	<unknown>
     a7e: 00 00        	<unknown>
     a80: 0e 00        	<unknown>
     a82: 00 00        	<unknown>
     a84: 00 00        	<unknown>
     a86: 02 00        	<unknown>
     a88: 9c 13        	<unknown>
     a8a: 00 80        	<unknown>
     a8c: 01 00        	<unknown>
		...
     a96: 00 00        	<unknown>
     a98: 0e 00        	<unknown>
     a9a: 00 00        	<unknown>
     a9c: 00 00        	<unknown>
     a9e: 02 00        	<unknown>
     aa0: ec 13        	<unknown>
     aa2: 00 80        	<unknown>
     aa4: 01 00        	<unknown>
		...
     aae: 00 00        	<unknown>
     ab0: f6 01        	<unknown>
     ab2: 00 00        	<unknown>
     ab4: 04 00        	<unknown>
     ab6: f1 ff        	<unknown>
		...
     ac8: 0e 00        	<unknown>
     aca: 00 00        	<unknown>
     acc: 00 00        	<unknown>
     ace: 02 00        	<unknown>
     ad0: 70 18        	<unknown>
     ad2: 00 80        	<unknown>
     ad4: 01 00        	<unknown>
		...
     ade: 00 00        	<unknown>
     ae0: 04 02        	<unknown>
     ae2: 00 00        	<unknown>
     ae4: 00 00        	<unknown>
     ae6: 02 00        	<unknown>
     ae8: a4 18        	<unknown>
     aea: 00 80        	<unknown>
     aec: 01 00        	<unknown>
		...
     af6: 00 00        	<unknown>
     af8: 0f 02 00 00  	<unknown>
     afc: 00 00        	<unknown>
     afe: 02 00        	<unknown>
     b00: bc 18        	<unknown>
     b02: 00 80        	<unknown>
     b04: 01 00        	<unknown>
		...
     b0e: 00 00        	<unknown>
     b10: 1a 02        	<unknown>
     b12: 00 00        	<unknown>
     b14: 04 00        	<unknown>
     b16: f1 ff        	<unknown>
		...
     b28: 0e 00        	<unknown>
     b2a: 00 00        	<unknown>
     b2c: 00 00        	<unknown>
     b2e: 02 00        	<unknown>
     b30: ec 18        	<unknown>
     b32: 00 80        	<unknown>
     b34: 01 00        	<unknown>
		...
     b3e: 00 00        	<unknown>
     b40: 24 02        	<unknown>
     b42: 00 00        	<unknown>
     b44: 04 00        	<unknown>
     b46: f1 ff        	<unknown>
		...
     b58: 31 02        	<unknown>
     b5a: 00 00        	<unknown>
     b5c: 02 00        	<unknown>
     b5e: 02 00        	<unknown>
     b60: f8 19        	<unknown>
     b62: 00 80        	<unknown>
     b64: 01 00        	<unknown>
     b66: 00 00        	<unknown>
     b68: 04 00        	<unknown>
     b6a: 00 00        	<unknown>
     b6c: 00 00        	<unknown>
     b6e: 00 00        	<unknown>
     b70: 0e 00        	<unknown>
     b72: 00 00        	<unknown>
     b74: 00 00        	<unknown>
     b76: 02 00        	<unknown>
     b78: f8 19        	<unknown>
     b7a: 00 80        	<unknown>
     b7c: 01 00        	<unknown>
		...
     b86: 00 00        	<unknown>
     b88: 3b 02 00 00  	addw	tp, zero, zero
     b8c: 02 00        	<unknown>
     b8e: 02 00        	<unknown>
     b90: fc 19        	<unknown>
     b92: 00 80        	<unknown>
     b94: 01 00        	<unknown>
     b96: 00 00        	<unknown>
     b98: 3c 01        	<unknown>
     b9a: 00 00        	<unknown>
     b9c: 00 00        	<unknown>
     b9e: 00 00        	<unknown>
     ba0: 0e 00        	<unknown>
     ba2: 00 00        	<unknown>
     ba4: 00 00        	<unknown>
     ba6: 02 00        	<unknown>
     ba8: fc 19        	<unknown>
     baa: 00 80        	<unknown>
     bac: 01 00        	<unknown>
		...
     bb6: 00 00        	<unknown>
     bb8: 44 02        	<unknown>
     bba: 00 00        	<unknown>
     bbc: 02 00        	<unknown>
     bbe: 02 00        	<unknown>
     bc0: 38 1b        	<unknown>
     bc2: 00 80        	<unknown>
     bc4: 01 00        	<unknown>
     bc6: 00 00        	<unknown>
     bc8: 0c 04        	<unknown>
     bca: 00 00        	<unknown>
     bcc: 00 00        	<unknown>
     bce: 00 00        	<unknown>
     bd0: 0e 00        	<unknown>
     bd2: 00 00        	<unknown>
     bd4: 00 00        	<unknown>
     bd6: 02 00        	<unknown>
     bd8: 38 1b        	<unknown>
     bda: 00 80        	<unknown>
     bdc: 01 00        	<unknown>
		...
     be6: 00 00        	<unknown>
     be8: 4f 02 00 00  	fnmadd.s	ft4, ft0, ft0, ft0, rne
     bec: 02 00        	<unknown>
     bee: 02 00        	<unknown>
     bf0: 38 1b        	<unknown>
     bf2: 00 80        	<unknown>
     bf4: 01 00        	<unknown>
     bf6: 00 00        	<unknown>
     bf8: 0c 04        	<unknown>
     bfa: 00 00        	<unknown>
     bfc: 00 00        	<unknown>
     bfe: 00 00        	<unknown>
     c00: 5f 02 00 00  	<unknown>
     c04: 02 00        	<unknown>
     c06: 02 00        	<unknown>
     c08: 44 1f        	<unknown>
     c0a: 00 80        	<unknown>
     c0c: 01 00        	<unknown>
     c0e: 00 00        	<unknown>
     c10: 0c 00        	<unknown>
     c12: 00 00        	<unknown>
     c14: 00 00        	<unknown>
     c16: 00 00        	<unknown>
     c18: 0e 00        	<unknown>
     c1a: 00 00        	<unknown>
     c1c: 00 00        	<unknown>
     c1e: 02 00        	<unknown>
     c20: 44 1f        	<unknown>
     c22: 00 80        	<unknown>
     c24: 01 00        	<unknown>
		...
     c2e: 00 00        	<unknown>
     c30: 69 02        	<unknown>
     c32: 00 00        	<unknown>
     c34: 02 00        	<unknown>
     c36: 02 00        	<unknown>
     c38: 50 1f        	<unknown>
     c3a: 00 80        	<unknown>
     c3c: 01 00        	<unknown>
     c3e: 00 00        	<unknown>
     c40: 50 04        	<unknown>
     c42: 00 00        	<unknown>
     c44: 00 00        	<unknown>
     c46: 00 00        	<unknown>
     c48: 0e 00        	<unknown>
     c4a: 00 00        	<unknown>
     c4c: 00 00        	<unknown>
     c4e: 02 00        	<unknown>
     c50: 50 1f        	<unknown>
     c52: 00 80        	<unknown>
     c54: 01 00        	<unknown>
		...
     c5e: 00 00        	<unknown>
     c60: 6f 02 00 00  	jal	tp, 0xc60 <.symtab+0xc60>
     c64: 02 00        	<unknown>
     c66: 02 00        	<unknown>
     c68: a0 23        	<unknown>
     c6a: 00 80        	<unknown>
     c6c: 01 00        	<unknown>
     c6e: 00 00        	<unknown>
     c70: a0 03        	<unknown>
     c72: 00 00        	<unknown>
     c74: 00 00        	<unknown>
     c76: 00 00        	<unknown>
     c78: 75 02        	<unknown>
     c7a: 00 00        	<unknown>
     c7c: 01 00        	<unknown>
     c7e: 03 00 48 3b  	lb	zero, 0x3b4(a6)
     c82: 00 80        	<unknown>
     c84: 01 00        	<unknown>
     c86: 00 00        	<unknown>
     c88: 50 00        	<unknown>
     c8a: 00 00        	<unknown>
     c8c: 00 00        	<unknown>
     c8e: 00 00        	<unknown>
     c90: 0e 00        	<unknown>
     c92: 00 00        	<unknown>
     c94: 00 00        	<unknown>
     c96: 02 00        	<unknown>
     c98: a0 23        	<unknown>
     c9a: 00 80        	<unknown>
     c9c: 01 00        	<unknown>
		...
     ca6: 00 00        	<unknown>
     ca8: 7d 02        	<unknown>
     caa: 00 00        	<unknown>
     cac: 02 00        	<unknown>
     cae: 02 00        	<unknown>
     cb0: 40 27        	<unknown>
     cb2: 00 80        	<unknown>
     cb4: 01 00        	<unknown>
     cb6: 00 00        	<unknown>
     cb8: 2c 0a        	<unknown>
     cba: 00 00        	<unknown>
     cbc: 00 00        	<unknown>
     cbe: 00 00        	<unknown>
     cc0: 0e 00        	<unknown>
     cc2: 00 00        	<unknown>
     cc4: 00 00        	<unknown>
     cc6: 02 00        	<unknown>
     cc8: 40 27        	<unknown>
     cca: 00 80        	<unknown>
     ccc: 01 00        	<unknown>
		...
     cd6: 00 00        	<unknown>
     cd8: 0e 00        	<unknown>
     cda: 00 00        	<unknown>
     cdc: 00 00        	<unknown>
     cde: 02 00        	<unknown>
     ce0: 6c 31        	<unknown>
     ce2: 00 80        	<unknown>
     ce4: 01 00        	<unknown>
		...
     cee: 00 00        	<unknown>
     cf0: 88 02        	<unknown>
     cf2: 00 00        	<unknown>
     cf4: 04 00        	<unknown>
     cf6: f1 ff        	<unknown>
		...
     d08: 71 00        	<unknown>
     d0a: 00 00        	<unknown>
     d0c: 00 00        	<unknown>
     d0e: 02 00        	<unknown>
     d10: 04 32        	<unknown>
     d12: 00 80        	<unknown>
     d14: 01 00        	<unknown>
		...
     d1e: 00 00        	<unknown>
     d20: 14 01        	<unknown>
     d22: 00 00        	<unknown>
     d24: 00 00        	<unknown>
     d26: 0b 00 67 00  	<unknown>
		...
     d36: 00 00        	<unknown>
     d38: 90 02        	<unknown>
     d3a: 00 00        	<unknown>
     d3c: 00 00        	<unknown>
     d3e: 0c 00        	<unknown>
     d40: 24 03        	<unknown>
		...
     d4e: 00 00        	<unknown>
     d50: 95 02        	<unknown>
     d52: 00 00        	<unknown>
     d54: 04 00        	<unknown>
     d56: f1 ff        	<unknown>
		...
     d68: 71 00        	<unknown>
     d6a: 00 00        	<unknown>
     d6c: 00 00        	<unknown>
     d6e: 02 00        	<unknown>
     d70: 0c 32        	<unknown>
     d72: 00 80        	<unknown>
     d74: 01 00        	<unknown>
		...
     d7e: 00 00        	<unknown>
     d80: 14 01        	<unknown>
     d82: 00 00        	<unknown>
     d84: 00 00        	<unknown>
     d86: 0b 00 67 00  	<unknown>
		...
     d96: 00 00        	<unknown>
     d98: 90 02        	<unknown>
     d9a: 00 00        	<unknown>
     d9c: 00 00        	<unknown>
     d9e: 0c 00        	<unknown>
     da0: 67 03 00 00  	jalr	t1, zero <.symtab>
		...
     db0: 9e 02        	<unknown>
     db2: 00 00        	<unknown>
     db4: 04 00        	<unknown>
     db6: f1 ff        	<unknown>
		...
     dc8: 71 00        	<unknown>
     dca: 00 00        	<unknown>
     dcc: 00 00        	<unknown>
     dce: 02 00        	<unknown>
     dd0: 58 37        	<unknown>
     dd2: 00 80        	<unknown>
     dd4: 01 00        	<unknown>
		...
     dde: 00 00        	<unknown>
     de0: 14 01        	<unknown>
     de2: 00 00        	<unknown>
     de4: 00 00        	<unknown>
     de6: 0b 00 67 00  	<unknown>
		...
     df6: 00 00        	<unknown>
     df8: 90 02        	<unknown>
     dfa: 00 00        	<unknown>
     dfc: 00 00        	<unknown>
     dfe: 0c 00        	<unknown>
     e00: aa 03        	<unknown>
		...
     e12: 00 00        	<unknown>
     e14: 04 00        	<unknown>
     e16: f1 ff        	<unknown>
		...
     e28: a7 02 00 00  	<unknown>
     e2c: 00 00        	<unknown>
     e2e: 05 00        	<unknown>
     e30: 40 4c        	<unknown>
     e32: 00 80        	<unknown>
     e34: 01 00        	<unknown>
		...
     e3e: 00 00        	<unknown>
     e40: b8 02        	<unknown>
     e42: 00 00        	<unknown>
     e44: 00 00        	<unknown>
     e46: 05 00        	<unknown>
     e48: 40 4c        	<unknown>
     e4a: 00 80        	<unknown>
     e4c: 01 00        	<unknown>
		...
     e56: 00 00        	<unknown>
     e58: c5 02        	<unknown>
     e5a: 00 00        	<unknown>
     e5c: 00 00        	<unknown>
     e5e: 05 00        	<unknown>
     e60: 40 4c        	<unknown>
     e62: 00 80        	<unknown>
     e64: 01 00        	<unknown>
		...
     e6e: 00 00        	<unknown>
     e70: d8 02        	<unknown>
     e72: 00 00        	<unknown>
     e74: 00 00        	<unknown>
     e76: 04 00        	<unknown>
     e78: 3c 4c        	<unknown>
     e7a: 00 80        	<unknown>
     e7c: 01 00        	<unknown>
		...
     e86: 00 00        	<unknown>
     e88: e6 02        	<unknown>
     e8a: 00 00        	<unknown>
     e8c: 00 00        	<unknown>
     e8e: 05 00        	<unknown>
     e90: 40 4c        	<unknown>
     e92: 00 80        	<unknown>
     e94: 01 00        	<unknown>
		...
     e9e: 00 00        	<unknown>
     ea0: f7 02 00 00  	<unknown>
     ea4: 00 00        	<unknown>
     ea6: f1 ff        	<unknown>
     ea8: 04 00        	<unknown>
		...
     eb6: 00 00        	<unknown>
     eb8: 05 03        	<unknown>
     eba: 00 00        	<unknown>
     ebc: 00 00        	<unknown>
     ebe: 05 00        	<unknown>
     ec0: 40 4c        	<unknown>
     ec2: 00 80        	<unknown>
     ec4: 01 00        	<unknown>
		...
     ece: 00 00        	<unknown>
     ed0: 19 03        	<unknown>
     ed2: 00 00        	<unknown>
     ed4: 01 00        	<unknown>
     ed6: 07 00 70 4c  	<unknown>
     eda: 00 80        	<unknown>
     edc: 01 00        	<unknown>
		...
     ee6: 00 00        	<unknown>
     ee8: 2f 03 00 00  	<unknown>
     eec: 00 00        	<unknown>
     eee: 05 00        	<unknown>
     ef0: 40 4c        	<unknown>
     ef2: 00 80        	<unknown>
     ef4: 01 00        	<unknown>
		...
     efe: 00 00        	<unknown>
     f00: 42 03        	<unknown>
     f02: 00 00        	<unknown>
     f04: 00 00        	<unknown>
     f06: 05 00        	<unknown>
     f08: 40 4c        	<unknown>
     f0a: 00 80        	<unknown>
     f0c: 01 00        	<unknown>
		...
     f16: 00 00        	<unknown>
     f18: 58 03        	<unknown>
     f1a: 00 00        	<unknown>
     f1c: 16 00        	<unknown>
     f1e: 05 00        	<unknown>
     f20: 20 00        	<unknown>
     f22: 00 00        	<unknown>
     f24: 00 00        	<unknown>
     f26: 00 00        	<unknown>
     f28: 0c 00        	<unknown>
     f2a: 00 00        	<unknown>
     f2c: 00 00        	<unknown>
     f2e: 00 00        	<unknown>
     f30: 62 03        	<unknown>
     f32: 00 00        	<unknown>
     f34: 11 00        	<unknown>
     f36: 09 00        	<unknown>
     f38: 4c 4d        	<unknown>
     f3a: 00 80        	<unknown>
     f3c: 01 00        	<unknown>
     f3e: 00 00        	<unknown>
     f40: 04 00        	<unknown>
     f42: 00 00        	<unknown>
     f44: 00 00        	<unknown>
     f46: 00 00        	<unknown>
     f48: 6e 03        	<unknown>
     f4a: 00 00        	<unknown>
     f4c: 16 00        	<unknown>
     f4e: 05 00        	<unknown>
		...
     f58: 04 00        	<unknown>
     f5a: 00 00        	<unknown>
     f5c: 00 00        	<unknown>
     f5e: 00 00        	<unknown>
     f60: 7c 03        	<unknown>
     f62: 00 00        	<unknown>
     f64: 16 00        	<unknown>
     f66: 05 00        	<unknown>
     f68: 10 00        	<unknown>
     f6a: 00 00        	<unknown>
     f6c: 00 00        	<unknown>
     f6e: 00 00        	<unknown>
     f70: 04 00        	<unknown>
     f72: 00 00        	<unknown>
     f74: 00 00        	<unknown>
     f76: 00 00        	<unknown>
     f78: 88 03        	<unknown>
     f7a: 00 00        	<unknown>
     f7c: 16 00        	<unknown>
     f7e: 05 00        	<unknown>
     f80: 30 00        	<unknown>
     f82: 00 00        	<unknown>
     f84: 00 00        	<unknown>
     f86: 00 00        	<unknown>
     f88: 0c 00        	<unknown>
     f8a: 00 00        	<unknown>
     f8c: 00 00        	<unknown>
     f8e: 00 00        	<unknown>
     f90: 91 03        	<unknown>
     f92: 00 00        	<unknown>
     f94: 12 00        	<unknown>
     f96: 02 00        	<unknown>
     f98: 90 0d        	<unknown>
     f9a: 00 80        	<unknown>
     f9c: 01 00        	<unknown>
     f9e: 00 00        	<unknown>
     fa0: 14 00        	<unknown>
     fa2: 00 00        	<unknown>
     fa4: 00 00        	<unknown>
     fa6: 00 00        	<unknown>
     fa8: b9 03        	<unknown>
     faa: 00 00        	<unknown>
     fac: 12 00        	<unknown>
     fae: 02 00        	<unknown>
     fb0: ec 0c        	<unknown>
     fb2: 00 80        	<unknown>
     fb4: 01 00        	<unknown>
     fb6: 00 00        	<unknown>
     fb8: a4 00        	<unknown>
     fba: 00 00        	<unknown>
     fbc: 00 00        	<unknown>
     fbe: 00 00        	<unknown>
     fc0: e1 03        	<unknown>
     fc2: 00 00        	<unknown>
     fc4: 12 00        	<unknown>
     fc6: 02 00        	<unknown>
     fc8: a4 0d        	<unknown>
     fca: 00 80        	<unknown>
     fcc: 01 00        	<unknown>
     fce: 00 00        	<unknown>
     fd0: 48 00        	<unknown>
     fd2: 00 00        	<unknown>
     fd4: 00 00        	<unknown>
     fd6: 00 00        	<unknown>
     fd8: 1c 04        	<unknown>
     fda: 00 00        	<unknown>
     fdc: 10 00        	<unknown>
     fde: 08 00        	<unknown>
     fe0: 98 4c        	<unknown>
     fe2: 00 80        	<unknown>
     fe4: 01 00        	<unknown>
		...
     fee: 00 00        	<unknown>
     ff0: f2 06        	<unknown>
     ff2: 00 00        	<unknown>
     ff4: 12 00        	<unknown>
     ff6: 02 00        	<unknown>
     ff8: 04 32        	<unknown>
     ffa: 00 80        	<unknown>
     ffc: 01 00        	<unknown>
     ffe: 00 00        	<unknown>
    1000: 08 00        	<unknown>
    1002: 00 00        	<unknown>
    1004: 00 00        	<unknown>
    1006: 00 00        	<unknown>
    1008: 2c 04        	<unknown>
    100a: 00 00        	<unknown>
    100c: 12 00        	<unknown>
    100e: 02 00        	<unknown>
    1010: 0c 32        	<unknown>
    1012: 00 80        	<unknown>
    1014: 01 00        	<unknown>
    1016: 00 00        	<unknown>
    1018: 4c 05        	<unknown>
    101a: 00 00        	<unknown>
    101c: 00 00        	<unknown>
    101e: 00 00        	<unknown>
    1020: 33 04 00 00  	add	s0, zero, zero
    1024: 12 00        	<unknown>
    1026: 02 00        	<unknown>
    1028: 94 00        	<unknown>
    102a: 00 80        	<unknown>
    102c: 01 00        	<unknown>
    102e: 00 00        	<unknown>
    1030: 4c 00        	<unknown>
    1032: 00 00        	<unknown>
    1034: 00 00        	<unknown>
    1036: 00 00        	<unknown>
    1038: 66 04        	<unknown>
    103a: 00 00        	<unknown>
    103c: 10 00        	<unknown>
    103e: f1 ff        	<unknown>
    1040: 40 54        	<unknown>
    1042: 00 80        	<unknown>
    1044: 01 00        	<unknown>
		...
    104e: 00 00        	<unknown>
    1050: 77 04 00 00  	<unknown>
    1054: 12 00        	<unknown>
    1056: 02 00        	<unknown>
    1058: ec 13        	<unknown>
    105a: 00 80        	<unknown>
    105c: 01 00        	<unknown>
    105e: 00 00        	<unknown>
    1060: 84 04        	<unknown>
    1062: 00 00        	<unknown>
    1064: 00 00        	<unknown>
    1066: 00 00        	<unknown>
    1068: 88 04        	<unknown>
    106a: 00 00        	<unknown>
    106c: 12 00        	<unknown>
    106e: 02 00        	<unknown>
    1070: e4 02        	<unknown>
    1072: 00 80        	<unknown>
    1074: 01 00        	<unknown>
    1076: 00 00        	<unknown>
    1078: c8 01        	<unknown>
    107a: 00 00        	<unknown>
    107c: 00 00        	<unknown>
    107e: 00 00        	<unknown>
    1080: ac 04        	<unknown>
    1082: 00 00        	<unknown>
    1084: 16 00        	<unknown>
    1086: 05 00        	<unknown>
    1088: 0c 00        	<unknown>
    108a: 00 00        	<unknown>
    108c: 00 00        	<unknown>
    108e: 00 00        	<unknown>
    1090: 04 00        	<unknown>
    1092: 00 00        	<unknown>
    1094: 00 00        	<unknown>
    1096: 00 00        	<unknown>
    1098: b8 04        	<unknown>
    109a: 00 00        	<unknown>
    109c: 11 00        	<unknown>
    109e: 09 00        	<unknown>
    10a0: 50 4d        	<unknown>
    10a2: 00 80        	<unknown>
    10a4: 01 00        	<unknown>
    10a6: 00 00        	<unknown>
    10a8: 04 00        	<unknown>
    10aa: 00 00        	<unknown>
    10ac: 00 00        	<unknown>
    10ae: 00 00        	<unknown>
    10b0: c5 04        	<unknown>
    10b2: 00 00        	<unknown>
    10b4: 12 00        	<unknown>
    10b6: 02 00        	<unknown>
    10b8: 08 0f        	<unknown>
    10ba: 00 80        	<unknown>
    10bc: 01 00        	<unknown>
    10be: 00 00        	<unknown>
    10c0: 94 00        	<unknown>
    10c2: 00 00        	<unknown>
    10c4: 00 00        	<unknown>
    10c6: 00 00        	<unknown>
    10c8: d7 04 00 00  	<unknown>
    10cc: 12 00        	<unknown>
    10ce: 02 00        	<unknown>
    10d0: 44 0e        	<unknown>
    10d2: 00 80        	<unknown>
    10d4: 01 00        	<unknown>
		...
    10de: 00 00        	<unknown>
    10e0: dd 04        	<unknown>
    10e2: 00 00        	<unknown>
    10e4: 12 00        	<unknown>
    10e6: 02 00        	<unknown>
    10e8: c4 0e        	<unknown>
    10ea: 00 80        	<unknown>
    10ec: 01 00        	<unknown>
    10ee: 00 00        	<unknown>
    10f0: 44 00        	<unknown>
    10f2: 00 00        	<unknown>
    10f4: 00 00        	<unknown>
    10f6: 00 00        	<unknown>
    10f8: e8 04        	<unknown>
    10fa: 00 00        	<unknown>
    10fc: 11 00        	<unknown>
    10fe: 0a 00        	<unknown>
    1100: 68 4d        	<unknown>
    1102: 00 80        	<unknown>
    1104: 01 00        	<unknown>
    1106: 00 00        	<unknown>
    1108: 0c 00        	<unknown>
    110a: 00 00        	<unknown>
    110c: 00 00        	<unknown>
    110e: 00 00        	<unknown>
    1110: f1 04        	<unknown>
    1112: 00 00        	<unknown>
    1114: 11 00        	<unknown>
    1116: 06 00        	<unknown>
    1118: 40 4c        	<unknown>
    111a: 00 80        	<unknown>
    111c: 01 00        	<unknown>
    111e: 00 00        	<unknown>
    1120: 20 00        	<unknown>
    1122: 00 00        	<unknown>
    1124: 00 00        	<unknown>
    1126: 00 00        	<unknown>
    1128: fb 04 00 00  	<unknown>
    112c: 12 00        	<unknown>
    112e: 02 00        	<unknown>
    1130: 70 18        	<unknown>
    1132: 00 80        	<unknown>
    1134: 01 00        	<unknown>
		...
    113e: 00 00        	<unknown>
    1140: 05 05        	<unknown>
    1142: 00 00        	<unknown>
    1144: 11 00        	<unknown>
    1146: 09 00        	<unknown>
    1148: 64 4d        	<unknown>
    114a: 00 80        	<unknown>
    114c: 01 00        	<unknown>
    114e: 00 00        	<unknown>
    1150: 04 00        	<unknown>
    1152: 00 00        	<unknown>
    1154: 00 00        	<unknown>
    1156: 00 00        	<unknown>
    1158: 17 05 00 00  	auipc	a0, 0x0
    115c: 11 00        	<unknown>
    115e: 09 00        	<unknown>
    1160: 54 4d        	<unknown>
    1162: 00 80        	<unknown>
    1164: 01 00        	<unknown>
    1166: 00 00        	<unknown>
    1168: 04 00        	<unknown>
    116a: 00 00        	<unknown>
    116c: 00 00        	<unknown>
    116e: 00 00        	<unknown>
    1170: 24 05        	<unknown>
    1172: 00 00        	<unknown>
    1174: 12 00        	<unknown>
    1176: 02 00        	<unknown>
    1178: 44 10        	<unknown>
    117a: 00 80        	<unknown>
    117c: 01 00        	<unknown>
    117e: 00 00        	<unknown>
    1180: 60 00        	<unknown>
    1182: 00 00        	<unknown>
    1184: 00 00        	<unknown>
    1186: 00 00        	<unknown>
    1188: 2e 05        	<unknown>
    118a: 00 00        	<unknown>
    118c: 12 00        	<unknown>
    118e: 02 00        	<unknown>
    1190: ac 04        	<unknown>
    1192: 00 80        	<unknown>
    1194: 01 00        	<unknown>
    1196: 00 00        	<unknown>
    1198: 14 07        	<unknown>
    119a: 00 00        	<unknown>
    119c: 00 00        	<unknown>
    119e: 00 00        	<unknown>
    11a0: 65 05        	<unknown>
    11a2: 00 00        	<unknown>
    11a4: 12 02        	<unknown>
    11a6: 02 00        	<unknown>
    11a8: 9c 0f        	<unknown>
    11aa: 00 80        	<unknown>
    11ac: 01 00        	<unknown>
    11ae: 00 00        	<unknown>
    11b0: 5c 00        	<unknown>
    11b2: 00 00        	<unknown>
    11b4: 00 00        	<unknown>
    11b6: 00 00        	<unknown>
    11b8: 75 05        	<unknown>
    11ba: 00 00        	<unknown>
    11bc: 10 00        	<unknown>
    11be: f1 ff        	<unknown>
		...
    11d0: 82 05        	<unknown>
    11d2: 00 00        	<unknown>
    11d4: 10 00        	<unknown>
    11d6: f1 ff        	<unknown>
    11d8: 40 00        	<unknown>
		...
    11e6: 00 00        	<unknown>
    11e8: 8e 05        	<unknown>
    11ea: 00 00        	<unknown>
    11ec: 12 00        	<unknown>
    11ee: 02 00        	<unknown>
    11f0: e0 00        	<unknown>
    11f2: 00 80        	<unknown>
    11f4: 01 00        	<unknown>
    11f6: 00 00        	<unknown>
    11f8: 4c 00        	<unknown>
    11fa: 00 00        	<unknown>
    11fc: 00 00        	<unknown>
    11fe: 00 00        	<unknown>
    1200: df 02 00 00  	<unknown>
    1204: 12 00        	<unknown>
    1206: 01 00        	<unknown>
    1208: 00 00        	<unknown>
    120a: 00 80        	<unknown>
    120c: 01 00        	<unknown>
    120e: 00 00        	<unknown>
    1210: 70 00        	<unknown>
    1212: 00 00        	<unknown>
    1214: 00 00        	<unknown>
    1216: 00 00        	<unknown>
    1218: c1 05        	<unknown>
    121a: 00 00        	<unknown>
    121c: 11 00        	<unknown>
    121e: 0a 00        	<unknown>
    1220: 78 4d        	<unknown>
    1222: 00 80        	<unknown>
    1224: 01 00        	<unknown>
    1226: 00 00        	<unknown>
    1228: 0c 00        	<unknown>
    122a: 00 00        	<unknown>
    122c: 00 00        	<unknown>
    122e: 00 00        	<unknown>
    1230: c9 05        	<unknown>
    1232: 00 00        	<unknown>
    1234: 10 00        	<unknown>
    1236: 0a 00        	<unknown>
    1238: 88 4d        	<unknown>
    123a: 00 80        	<unknown>
    123c: 01 00        	<unknown>
		...
    1246: 00 00        	<unknown>
    1248: d5 05        	<unknown>
    124a: 00 00        	<unknown>
    124c: 11 00        	<unknown>
    124e: 09 00        	<unknown>
    1250: 44 4d        	<unknown>
    1252: 00 80        	<unknown>
    1254: 01 00        	<unknown>
    1256: 00 00        	<unknown>
    1258: 04 00        	<unknown>
    125a: 00 00        	<unknown>
    125c: 00 00        	<unknown>
    125e: 00 00        	<unknown>
    1260: e1 05        	<unknown>
    1262: 00 00        	<unknown>
    1264: 10 00        	<unknown>
    1266: 09 00        	<unknown>
    1268: 44 4d        	<unknown>
    126a: 00 80        	<unknown>
    126c: 01 00        	<unknown>
		...
    1276: 00 00        	<unknown>
    1278: ed 05        	<unknown>
    127a: 00 00        	<unknown>
    127c: 12 00        	<unknown>
    127e: 02 00        	<unknown>
    1280: 58 37        	<unknown>
    1282: 00 80        	<unknown>
    1284: 01 00        	<unknown>
    1286: 00 00        	<unknown>
    1288: bc 01        	<unknown>
    128a: 00 00        	<unknown>
    128c: 00 00        	<unknown>
    128e: 00 00        	<unknown>
    1290: f4 05        	<unknown>
    1292: 00 00        	<unknown>
    1294: 12 00        	<unknown>
    1296: 02 00        	<unknown>
    1298: c4 01        	<unknown>
    129a: 00 80        	<unknown>
    129c: 01 00        	<unknown>
    129e: 00 00        	<unknown>
    12a0: 20 01        	<unknown>
    12a2: 00 00        	<unknown>
    12a4: 00 00        	<unknown>
    12a6: 00 00        	<unknown>
    12a8: f9 05        	<unknown>
    12aa: 00 00        	<unknown>
    12ac: 22 00        	<unknown>
    12ae: 02 00        	<unknown>
    12b0: 9c 31        	<unknown>
    12b2: 00 80        	<unknown>
    12b4: 01 00        	<unknown>
    12b6: 00 00        	<unknown>
    12b8: 04 00        	<unknown>
    12ba: 00 00        	<unknown>
    12bc: 00 00        	<unknown>
    12be: 00 00        	<unknown>
    12c0: 06 06        	<unknown>
    12c2: 00 00        	<unknown>
    12c4: 16 00        	<unknown>
    12c6: 05 00        	<unknown>
    12c8: 14 00        	<unknown>
    12ca: 00 00        	<unknown>
    12cc: 00 00        	<unknown>
    12ce: 00 00        	<unknown>
    12d0: 04 00        	<unknown>
    12d2: 00 00        	<unknown>
    12d4: 00 00        	<unknown>
    12d6: 00 00        	<unknown>
    12d8: 12 06        	<unknown>
    12da: 00 00        	<unknown>
    12dc: 16 00        	<unknown>
    12de: 05 00        	<unknown>
    12e0: 18 00        	<unknown>
    12e2: 00 00        	<unknown>
    12e4: 00 00        	<unknown>
    12e6: 00 00        	<unknown>
    12e8: 04 00        	<unknown>
    12ea: 00 00        	<unknown>
    12ec: 00 00        	<unknown>
    12ee: 00 00        	<unknown>
    12f0: d1 06        	<unknown>
    12f2: 00 00        	<unknown>
    12f4: 22 00        	<unknown>
    12f6: 02 00        	<unknown>
    12f8: 9c 31        	<unknown>
    12fa: 00 80        	<unknown>
    12fc: 01 00        	<unknown>
    12fe: 00 00        	<unknown>
    1300: 04 00        	<unknown>
    1302: 00 00        	<unknown>
    1304: 00 00        	<unknown>
    1306: 00 00        	<unknown>
    1308: 23 06 00 00  	sb	zero, 0xc(zero)
    130c: 12 00        	<unknown>
    130e: 02 00        	<unknown>
    1310: c0 0b        	<unknown>
    1312: 00 80        	<unknown>
    1314: 01 00        	<unknown>
    1316: 00 00        	<unknown>
    1318: 2c 01        	<unknown>
    131a: 00 00        	<unknown>
    131c: 00 00        	<unknown>
    131e: 00 00        	<unknown>
    1320: 40 06        	<unknown>
    1322: 00 00        	<unknown>
    1324: 11 00        	<unknown>
    1326: 09 00        	<unknown>
    1328: 5c 4d        	<unknown>
    132a: 00 80        	<unknown>
    132c: 01 00        	<unknown>
    132e: 00 00        	<unknown>
    1330: 04 00        	<unknown>
    1332: 00 00        	<unknown>
    1334: 00 00        	<unknown>
    1336: 00 00        	<unknown>
    1338: 4b 06 00 00  	fnmsub.s	fa2, ft0, ft0, ft0, rne
    133c: 16 00        	<unknown>
    133e: 05 00        	<unknown>
    1340: 08 00        	<unknown>
    1342: 00 00        	<unknown>
    1344: 00 00        	<unknown>
    1346: 00 00        	<unknown>
    1348: 04 00        	<unknown>
    134a: 00 00        	<unknown>
    134c: 00 00        	<unknown>
    134e: 00 00        	<unknown>
    1350: 59 06        	<unknown>
    1352: 00 00        	<unknown>
    1354: 11 00        	<unknown>
    1356: 09 00        	<unknown>
    1358: 48 4d        	<unknown>
    135a: 00 80        	<unknown>
    135c: 01 00        	<unknown>
    135e: 00 00        	<unknown>
    1360: 04 00        	<unknown>
    1362: 00 00        	<unknown>
    1364: 00 00        	<unknown>
    1366: 00 00        	<unknown>
    1368: 65 06        	<unknown>
    136a: 00 00        	<unknown>
    136c: 16 00        	<unknown>
    136e: 05 00        	<unknown>
    1370: 04 00        	<unknown>
    1372: 00 00        	<unknown>
    1374: 00 00        	<unknown>
    1376: 00 00        	<unknown>
    1378: 04 00        	<unknown>
    137a: 00 00        	<unknown>
    137c: 00 00        	<unknown>
    137e: 00 00        	<unknown>
    1380: 73 06 00 00  	<unknown>
    1384: 12 00        	<unknown>
    1386: 02 00        	<unknown>
    1388: 2c 01        	<unknown>
    138a: 00 80        	<unknown>
    138c: 01 00        	<unknown>
    138e: 00 00        	<unknown>
    1390: 4c 00        	<unknown>
    1392: 00 00        	<unknown>
    1394: 00 00        	<unknown>
    1396: 00 00        	<unknown>
    1398: b9 06        	<unknown>
    139a: 00 00        	<unknown>
    139c: 10 00        	<unknown>
    139e: f1 ff        	<unknown>
    13a0: 00 00        	<unknown>
    13a2: 00 80        	<unknown>
    13a4: 01 00        	<unknown>
		...
    13ae: 00 00        	<unknown>
    13b0: c6 06        	<unknown>
    13b2: 00 00        	<unknown>
    13b4: 22 02        	<unknown>
    13b6: 02 00        	<unknown>
    13b8: a0 31        	<unknown>
    13ba: 00 80        	<unknown>
    13bc: 01 00        	<unknown>
    13be: 00 00        	<unknown>
    13c0: 64 00        	<unknown>
    13c2: 00 00        	<unknown>
    13c4: 00 00        	<unknown>
    13c6: 00 00        	<unknown>
    13c8: d7 06 00 00  	<unknown>
    13cc: 10 00        	<unknown>
    13ce: 06 00        	<unknown>
    13d0: 40 4c        	<unknown>
    13d2: 00 80        	<unknown>
    13d4: 01 00        	<unknown>
		...
    13de: 00 00        	<unknown>
    13e0: e6 06        	<unknown>
    13e2: 00 00        	<unknown>
    13e4: 10 00        	<unknown>
    13e6: 08 00        	<unknown>
    13e8: 44 4d        	<unknown>
    13ea: 00 80        	<unknown>
    13ec: 01 00        	<unknown>
		...
    13f6: 00 00        	<unknown>
    13f8: b3 02 00 00  	add	t0, zero, zero
    13fc: 10 00        	<unknown>
    13fe: 0a 00        	<unknown>
    1400: 88 4d        	<unknown>
    1402: 00 80        	<unknown>
    1404: 01 00        	<unknown>
		...
    140e: 00 00        	<unknown>
    1410: 70 05        	<unknown>
    1412: 00 00        	<unknown>
    1414: 12 00        	<unknown>
    1416: 02 00        	<unknown>
    1418: 70 00        	<unknown>
    141a: 00 80        	<unknown>
    141c: 01 00        	<unknown>
    141e: 00 00        	<unknown>
    1420: 24 00        	<unknown>
    1422: 00 00        	<unknown>
    1424: 00 00        	<unknown>
    1426: 00 00        	<unknown>
    1428: ed 06        	<unknown>
    142a: 00 00        	<unknown>
    142c: 12 00        	<unknown>
    142e: 02 00        	<unknown>
    1430: 08 0e        	<unknown>
    1432: 00 80        	<unknown>
    1434: 01 00        	<unknown>
    1436: 00 00        	<unknown>
    1438: 3c 00        	<unknown>
    143a: 00 00        	<unknown>
    143c: 00 00        	<unknown>
    143e: 00 00        	<unknown>
    1440: f8 06        	<unknown>
    1442: 00 00        	<unknown>
    1444: 12 00        	<unknown>
    1446: 02 00        	<unknown>
    1448: ec 0d        	<unknown>
    144a: 00 80        	<unknown>
    144c: 01 00        	<unknown>
    144e: 00 00        	<unknown>
    1450: 1c 00        	<unknown>
    1452: 00 00        	<unknown>
    1454: 00 00        	<unknown>
    1456: 00 00        	<unknown>
    1458: 19 07        	<unknown>
    145a: 00 00        	<unknown>
    145c: 12 00        	<unknown>
    145e: 02 00        	<unknown>
    1460: ec 18        	<unknown>
    1462: 00 80        	<unknown>
    1464: 01 00        	<unknown>
    1466: 00 00        	<unknown>
    1468: 0c 01        	<unknown>
    146a: 00 00        	<unknown>
    146c: 00 00        	<unknown>
    146e: 00 00        	<unknown>
    1470: 26 07        	<unknown>
    1472: 00 00        	<unknown>
    1474: 11 00        	<unknown>
    1476: 09 00        	<unknown>
    1478: 60 4d        	<unknown>
    147a: 00 80        	<unknown>
    147c: 01 00        	<unknown>
    147e: 00 00        	<unknown>
    1480: 04 00        	<unknown>
    1482: 00 00        	<unknown>
    1484: 00 00        	<unknown>
    1486: 00 00        	<unknown>
    1488: 3a 07        	<unknown>
    148a: 00 00        	<unknown>
    148c: 12 00        	<unknown>
    148e: 02 00        	<unknown>
    1490: f8 0f        	<unknown>
    1492: 00 80        	<unknown>
    1494: 01 00        	<unknown>
		...
    149e: 00 00        	<unknown>
    14a0: 45 07        	<unknown>
    14a2: 00 00        	<unknown>
    14a4: 12 00        	<unknown>
    14a6: 02 00        	<unknown>
    14a8: 6c 31        	<unknown>
    14aa: 00 80        	<unknown>
    14ac: 01 00        	<unknown>
    14ae: 00 00        	<unknown>
    14b0: 30 00        	<unknown>
    14b2: 00 00        	<unknown>
    14b4: 00 00        	<unknown>
    14b6: 00 00        	<unknown>
    14b8: 52 07        	<unknown>
    14ba: 00 00        	<unknown>
    14bc: 11 00        	<unknown>
    14be: 09 00        	<unknown>
    14c0: 58 4d        	<unknown>
    14c2: 00 80        	<unknown>
    14c4: 01 00        	<unknown>
    14c6: 00 00        	<unknown>
    14c8: 04 00        	<unknown>
    14ca: 00 00        	<unknown>
    14cc: 00 00        	<unknown>
    14ce: 00 00        	<unknown>
    14d0: 5f 07 00 00  	<unknown>
    14d4: 12 00        	<unknown>
    14d6: 02 00        	<unknown>
    14d8: 78 01        	<unknown>
    14da: 00 80        	<unknown>
    14dc: 01 00        	<unknown>
    14de: 00 00        	<unknown>
    14e0: 4c 00        	<unknown>
    14e2: 00 00        	<unknown>
    14e4: 00 00        	<unknown>
    14e6: 00 00        	<unknown>

Disassembly of section .strtab:

0000000000000000 <.strtab>:
       0: 00 76        	<unknown>
       2: 78 5f        	<unknown>
       4: 73 74 61 72  	csrrci	s0, 0x726, 0x2
       8: 74 2e        	<unknown>
       a: 53 2e 6f 00  	fadd.s	ft8, ft10, ft6, rdn
       e: 24 78        	<unknown>
      10: 72 76        	<unknown>
      12: 36 34        	<unknown>
      14: 69 32        	<unknown>
      16: 70 31        	<unknown>
      18: 5f 6d 32 70  	<unknown>
      1c: 30 5f        	<unknown>
      1e: 61 32        	<unknown>
      20: 70 31        	<unknown>
      22: 5f 66 32 70  	<unknown>
      26: 32 5f        	<unknown>
      28: 64 32        	<unknown>
      2a: 70 32        	<unknown>
      2c: 5f 7a 69 63  	<unknown>
      30: 73 72 32 70  	csrrci	tp, 0x703, 0x4
      34: 30 5f        	<unknown>
      36: 7a 6d        	<unknown>
      38: 6d 75        	<unknown>
      3a: 6c 31        	<unknown>
      3c: 70 30        	<unknown>
      3e: 00 69        	<unknown>
      40: 6e 69        	<unknown>
      42: 74 5f        	<unknown>
      44: 72 65        	<unknown>
      46: 67 73 5f 61  	<unknown>
      4a: 6c 6c        	<unknown>
      4c: 00 69        	<unknown>
      4e: 6e 69        	<unknown>
      50: 74 5f        	<unknown>
      52: 72 65        	<unknown>
      54: 67 73 00 69  	<unknown>
      58: 6e 69        	<unknown>
      5a: 74 5f        	<unknown>
      5c: 74 6c        	<unknown>
      5e: 73 5f 61 6c  	csrrwi	t5, 0x6c6, 0x2
      62: 6c 00        	<unknown>
      64: 65 78        	<unknown>
      66: 69 74        	<unknown>
      68: 2e 63        	<unknown>
      6a: 00 64        	<unknown>
      6c: 75 6d        	<unknown>
      6e: 6d 79        	<unknown>
      70: 00 24        	<unknown>
      72: 78 2e        	<unknown>
      74: 30 00        	<unknown>
      76: 24 78        	<unknown>
      78: 2e 31        	<unknown>
      7a: 00 24        	<unknown>
      7c: 78 2e        	<unknown>
      7e: 32 00        	<unknown>
      80: 24 64        	<unknown>
      82: 2e 33        	<unknown>
      84: 00 24        	<unknown>
      86: 64 2e        	<unknown>
      88: 34 00        	<unknown>
      8a: 6b 65 72 6e  	<unknown>
      8e: 65 6c        	<unknown>
      90: 5f 77 72 61  	<unknown>
      94: 70 70        	<unknown>
      96: 65 72        	<unknown>
      98: 2e 63        	<unknown>
      9a: 70 70        	<unknown>
      9c: 00 24        	<unknown>
      9e: 78 2e        	<unknown>
      a0: 33 00 24 78  	<unknown>
      a4: 2e 34        	<unknown>
      a6: 00 24        	<unknown>
      a8: 78 2e        	<unknown>
      aa: 35 00        	<unknown>
      ac: 24 78        	<unknown>
      ae: 2e 36        	<unknown>
      b0: 00 24        	<unknown>
      b2: 64 2e        	<unknown>
      b4: 38 00        	<unknown>
      b6: 24 64        	<unknown>
      b8: 2e 39        	<unknown>
      ba: 00 24        	<unknown>
      bc: 64 2e        	<unknown>
      be: 31 30        	<unknown>
      c0: 00 24        	<unknown>
      c2: 64 2e        	<unknown>
      c4: 31 31        	<unknown>
      c6: 00 24        	<unknown>
      c8: 64 2e        	<unknown>
      ca: 31 32        	<unknown>
      cc: 00 24        	<unknown>
      ce: 64 2e        	<unknown>
      d0: 31 33        	<unknown>
      d2: 00 24        	<unknown>
      d4: 64 2e        	<unknown>
      d6: 31 34        	<unknown>
      d8: 00 24        	<unknown>
      da: 64 2e        	<unknown>
      dc: 31 35        	<unknown>
      de: 00 24        	<unknown>
      e0: 64 2e        	<unknown>
      e2: 31 36        	<unknown>
      e4: 00 24        	<unknown>
      e6: 64 2e        	<unknown>
      e8: 31 37        	<unknown>
      ea: 00 24        	<unknown>
      ec: 64 2e        	<unknown>
      ee: 31 38        	<unknown>
      f0: 00 24        	<unknown>
      f2: 64 2e        	<unknown>
      f4: 31 39        	<unknown>
      f6: 00 65        	<unknown>
      f8: 75 6c        	<unknown>
      fa: 65 72        	<unknown>
      fc: 33 64 5f 6e  	<unknown>
     100: 6f 5f 6d 65  	jal	t5, 0xd5756 <.symtab+0xd5756>
     104: 6d 63        	<unknown>
     106: 70 79        	<unknown>
     108: 74 6f        	<unknown>
     10a: 73 79 6d 62  	csrrci	s2, 0x626, 0x1a
     10e: 6f 6c 2e 63  	jal	s8, 0xe6740 <.symtab+0xe6740>
     112: 75 00        	<unknown>
     114: 24 64        	<unknown>
     116: 2e 31        	<unknown>
     118: 00 24        	<unknown>
     11a: 78 2e        	<unknown>
     11c: 37 00 24 78  	lui	zero, 0x78240
     120: 2e 38        	<unknown>
     122: 00 63        	<unknown>
     124: 75 64        	<unknown>
     126: 61 4b        	<unknown>
     128: 65 72        	<unknown>
     12a: 6e 65        	<unknown>
     12c: 6c 49        	<unknown>
     12e: 6d 70        	<unknown>
     130: 6c 2e        	<unknown>
     132: 63 70 70 00  	bgeu	zero, t2, 0x132 <.symtab+0x132>
     136: 24 64        	<unknown>
     138: 2e 34        	<unknown>
     13a: 33 00 24 64  	<unknown>
     13e: 2e 34        	<unknown>
     140: 34 00        	<unknown>
     142: 24 64        	<unknown>
     144: 2e 34        	<unknown>
     146: 35 00        	<unknown>
     148: 76 78        	<unknown>
     14a: 5f 73 79 73  	<unknown>
     14e: 63 61 6c 6c  	bltu	s8, t1, 0x810 <.symtab+0x810>
     152: 73 2e 63 00  	csrrs	t3, 0x6, t1
     156: 76 78        	<unknown>
     158: 5f 70 72 69  	<unknown>
     15c: 6e 74        	<unknown>
     15e: 2e 53        	<unknown>
     160: 2e 6f        	<unknown>
     162: 00 76        	<unknown>
     164: 78 5f        	<unknown>
     166: 70 72        	<unknown>
     168: 69 6e        	<unknown>
     16a: 74 2e        	<unknown>
     16c: 63 00 5f 5f  	beq	t5, s5, 0x74c <.symtab+0x74c>
     170: 76 70        	<unknown>
     172: 72 69        	<unknown>
     174: 6e 74        	<unknown>
     176: 66 5f        	<unknown>
     178: 63 62 00 76  	bltu	zero, zero, 0x8dc <.symtab+0x8dc>
     17c: 78 5f        	<unknown>
     17e: 73 70 61 77  	csrci	0x776, 0x2
     182: 6e 2e        	<unknown>
     184: 63 00 70 72  	beq	zero, t2, 0x8a4 <.symtab+0x8a4>
     188: 6f 63 65 73  	jal	t1, 0x568be <.symtab+0x568be>
     18c: 73 5f 74 68  	csrrwi	t5, 0x687, 0x8
     190: 72 65        	<unknown>
     192: 61 64        	<unknown>
     194: 73 00 70 72  	<unknown>
     198: 6f 63 65 73  	jal	t1, 0x568ce <.symtab+0x568ce>
     19c: 73 5f 72 65  	csrrwi	t5, 0x657, 0x4
     1a0: 6d 61        	<unknown>
     1a2: 69 6e        	<unknown>
     1a4: 69 6e        	<unknown>
     1a6: 67 5f 74 68  	<unknown>
     1aa: 72 65        	<unknown>
     1ac: 61 64        	<unknown>
     1ae: 73 00 70 72  	<unknown>
     1b2: 6f 63 65 73  	jal	t1, 0x568e8 <.symtab+0x568e8>
     1b6: 73 5f 74 68  	csrrwi	t5, 0x687, 0x8
     1ba: 72 65        	<unknown>
     1bc: 61 64        	<unknown>
     1be: 73 5f 73 74  	csrrwi	t5, mseccfg, 0x6
     1c2: 75 62        	<unknown>
     1c4: 00 70        	<unknown>
     1c6: 72 6f        	<unknown>
     1c8: 63 65 73 73  	bltu	t1, s7, 0x8f2 <.symtab+0x8f2>
     1cc: 5f 74 68 72  	<unknown>
     1d0: 65 61        	<unknown>
     1d2: 64 5f        	<unknown>
     1d4: 67 72 6f 75  	<unknown>
     1d8: 70 73        	<unknown>
     1da: 00 70        	<unknown>
     1dc: 72 6f        	<unknown>
     1de: 63 65 73 73  	bltu	t1, s7, 0x908 <.symtab+0x908>
     1e2: 5f 74 68 72  	<unknown>
     1e6: 65 61        	<unknown>
     1e8: 64 5f        	<unknown>
     1ea: 67 72 6f 75  	<unknown>
     1ee: 70 73        	<unknown>
     1f0: 5f 73 74 75  	<unknown>
     1f4: 62 00        	<unknown>
     1f6: 76 78        	<unknown>
     1f8: 5f 73 65 72  	<unknown>
     1fc: 69 61        	<unknown>
     1fe: 6c 2e        	<unknown>
     200: 53 2e 6f 00  	fadd.s	ft8, ft10, ft6, rdn
     204: 6c 61        	<unknown>
     206: 62 65        	<unknown>
     208: 6c 5f        	<unknown>
     20a: 6c 6f        	<unknown>
     20c: 6f 70 00 6c  	j	0x78cc <.symtab+0x78cc>
     210: 61 62        	<unknown>
     212: 65 6c        	<unknown>
     214: 5f 6a 6f 69  	<unknown>
     218: 6e 00        	<unknown>
     21a: 76 78        	<unknown>
     21c: 5f 70 65 72  	<unknown>
     220: 66 2e        	<unknown>
     222: 63 00 74 69  	beq	s0, s7, 0x8a2 <.symtab+0x8a2>
     226: 6e 79        	<unknown>
     228: 70 72        	<unknown>
     22a: 69 6e        	<unknown>
     22c: 74 66        	<unknown>
     22e: 2e 63        	<unknown>
     230: 00 5f        	<unknown>
     232: 6f 75 74 5f  	jal	a0, 0x48028 <.symtab+0x48028>
     236: 6e 75        	<unknown>
     238: 6c 6c        	<unknown>
     23a: 00 5f        	<unknown>
     23c: 6f 75 74 5f  	jal	a0, 0x48032 <.symtab+0x48032>
     240: 72 65        	<unknown>
     242: 76 00        	<unknown>
     244: 5f 6e 74 6f  	<unknown>
     248: 61 5f        	<unknown>
     24a: 6c 6f        	<unknown>
     24c: 6e 67        	<unknown>
     24e: 00 5f        	<unknown>
     250: 6e 74        	<unknown>
     252: 6f 61 5f 6c  	jal	sp, 0xf7116 <.symtab+0xf7116>
     256: 6f 6e 67 5f  	jal	t3, 0x7684c <.symtab+0x7684c>
     25a: 6c 6f        	<unknown>
     25c: 6e 67        	<unknown>
     25e: 00 5f        	<unknown>
     260: 6f 75 74 5f  	jal	a0, 0x48056 <.symtab+0x48056>
     264: 63 68 61 72  	bltu	sp, t1, 0x994 <.symtab+0x994>
     268: 00 5f        	<unknown>
     26a: 66 74        	<unknown>
     26c: 6f 61 00 5f  	jal	sp, 0x685c <.symtab+0x685c>
     270: 65 74        	<unknown>
     272: 6f 61 00 70  	jal	sp, 0x6972 <.symtab+0x6972>
     276: 6f 77 31 30  	jal	a4, 0x17d78 <.symtab+0x17d78>
     27a: 2e 30        	<unknown>
     27c: 00 5f        	<unknown>
     27e: 76 73        	<unknown>
     280: 6e 70        	<unknown>
     282: 72 69        	<unknown>
     284: 6e 74        	<unknown>
     286: 66 00        	<unknown>
     288: 73 71 72 74  	csrrci	sp, mseccfg, 0x4
     28c: 66 2e        	<unknown>
     28e: 63 00 24 64  	beq	s0, sp, 0x8ce <.symtab+0x8ce>
     292: 2e 32        	<unknown>
     294: 00 6d        	<unknown>
     296: 65 6d        	<unknown>
     298: 63 70 79 2e  	bgeu	s2, t2, 0x578 <.symtab+0x578>
     29c: 63 00 6d 65  	beq	s10, s6, 0x8dc <.symtab+0x8dc>
     2a0: 6d 73        	<unknown>
     2a2: 65 74        	<unknown>
     2a4: 2e 63        	<unknown>
     2a6: 00 5f        	<unknown>
     2a8: 5f 66 69 6e  	<unknown>
     2ac: 69 5f        	<unknown>
     2ae: 61 72        	<unknown>
     2b0: 72 61        	<unknown>
     2b2: 79 5f        	<unknown>
     2b4: 65 6e        	<unknown>
     2b6: 64 00        	<unknown>
     2b8: 5f 5f 74 62  	<unknown>
     2bc: 73 73 5f 73  	csrrci	t1, 0x735, 0x1e
     2c0: 74 61        	<unknown>
     2c2: 72 74        	<unknown>
     2c4: 00 5f        	<unknown>
     2c6: 5f 66 69 6e  	<unknown>
     2ca: 69 5f        	<unknown>
     2cc: 61 72        	<unknown>
     2ce: 72 61        	<unknown>
     2d0: 79 5f        	<unknown>
     2d2: 73 74 61 72  	csrrci	s0, 0x726, 0x2
     2d6: 74 00        	<unknown>
     2d8: 5f 5f 74 64  	<unknown>
     2dc: 61 74        	<unknown>
     2de: 61 5f        	<unknown>
     2e0: 73 74 61 72  	csrrci	s0, 0x726, 0x2
     2e4: 74 00        	<unknown>
     2e6: 5f 5f 69 6e  	<unknown>
     2ea: 69 74        	<unknown>
     2ec: 5f 61 72 72  	<unknown>
     2f0: 61 79        	<unknown>
     2f2: 5f 65 6e 64  	<unknown>
     2f6: 00 5f        	<unknown>
     2f8: 5f 74 62 73  	<unknown>
     2fc: 73 5f 6f 66  	csrrwi	t5, 0x666, 0x1e
     300: 66 73        	<unknown>
     302: 65 74        	<unknown>
     304: 00 5f        	<unknown>
     306: 5f 70 72 65  	<unknown>
     30a: 69 6e        	<unknown>
     30c: 69 74        	<unknown>
     30e: 5f 61 72 72  	<unknown>
     312: 61 79        	<unknown>
     314: 5f 65 6e 64  	<unknown>
     318: 00 5f        	<unknown>
     31a: 47 4c 4f 42  	fmsub.d	fs8, ft10, ft4, fs0, rmm
     31e: 41 4c        	<unknown>
     320: 5f 4f 46 46  	<unknown>
     324: 53 45 54 5f  	<unknown>
     328: 54 41        	<unknown>
     32a: 42 4c        	<unknown>
     32c: 45 5f        	<unknown>
     32e: 00 5f        	<unknown>
     330: 5f 69 6e 69  	<unknown>
     334: 74 5f        	<unknown>
     336: 61 72        	<unknown>
     338: 72 61        	<unknown>
     33a: 79 5f        	<unknown>
     33c: 73 74 61 72  	csrrci	s0, 0x726, 0x2
     340: 74 00        	<unknown>
     342: 5f 5f 70 72  	<unknown>
     346: 65 69        	<unknown>
     348: 6e 69        	<unknown>
     34a: 74 5f        	<unknown>
     34c: 61 72        	<unknown>
     34e: 72 61        	<unknown>
     350: 79 5f        	<unknown>
     352: 73 74 61 72  	csrrci	s0, 0x726, 0x2
     356: 74 00        	<unknown>
     358: 74 68        	<unknown>
     35a: 72 65        	<unknown>
     35c: 61 64        	<unknown>
     35e: 49 64        	<unknown>
     360: 78 00        	<unknown>
     362: 67 72 69 64  	<unknown>
     366: 5f 73 69 7a  	<unknown>
     36a: 65 5f        	<unknown>
     36c: 7a 00        	<unknown>
     36e: 62 6c        	<unknown>
     370: 6f 63 6b 5f  	jal	t1, 0xb6966 <.symtab+0xb6966>
     374: 69 6e        	<unknown>
     376: 64 65        	<unknown>
     378: 78 5f        	<unknown>
     37a: 78 00        	<unknown>
     37c: 74 68        	<unknown>
     37e: 72 65        	<unknown>
     380: 61 64        	<unknown>
     382: 5f 69 64 5f  	<unknown>
     386: 79 00        	<unknown>
     388: 62 6c        	<unknown>
     38a: 6f 63 6b 49  	jal	t1, 0xb6820 <.symtab+0xb6820>
     38e: 64 78        	<unknown>
     390: 00 63        	<unknown>
     392: 75 64        	<unknown>
     394: 61 5f        	<unknown>
     396: 63 6f 6d 70  	bltu	s10, t1, 0xab4 <.symtab+0xab4>
     39a: 75 74        	<unknown>
     39c: 65 5f        	<unknown>
     39e: 73 74 65 70  	csrrci	s0, 0x706, 0xa
     3a2: 5f 66 61 63  	<unknown>
     3a6: 74 6f        	<unknown>
     3a8: 72 69        	<unknown>
     3aa: 50 66        	<unknown>
     3ac: 53 5f 53 5f  	<unknown>
     3b0: 5f 77 72 61  	<unknown>
     3b4: 70 70        	<unknown>
     3b6: 65 72        	<unknown>
     3b8: 00 63        	<unknown>
     3ba: 75 64        	<unknown>
     3bc: 61 5f        	<unknown>
     3be: 69 6e        	<unknown>
     3c0: 69 74        	<unknown>
     3c2: 69 61        	<unknown>
     3c4: 6c 69        	<unknown>
     3c6: 7a 65        	<unknown>
     3c8: 5f 76 61 72  	<unknown>
     3cc: 69 61        	<unknown>
     3ce: 62 6c        	<unknown>
     3d0: 65 73        	<unknown>
     3d2: 69 50        	<unknown>
     3d4: 66 50        	<unknown>
     3d6: 4b 66 5f 77  	<unknown>
     3da: 72 61        	<unknown>
     3dc: 70 70        	<unknown>
     3de: 65 72        	<unknown>
     3e0: 00 63        	<unknown>
     3e2: 75 64        	<unknown>
     3e4: 61 5f        	<unknown>
     3e6: 63 6f 6d 70  	bltu	s10, t1, 0xb04 <.symtab+0xb04>
     3ea: 75 74        	<unknown>
     3ec: 65 5f        	<unknown>
     3ee: 66 6c        	<unknown>
     3f0: 75 78        	<unknown>
     3f2: 69 50        	<unknown>
     3f4: 4b 69 50 4b  	<unknown>
     3f8: 66 53        	<unknown>
     3fa: 32 5f        	<unknown>
     3fc: 50 66        	<unknown>
     3fe: 53 32 5f 50  	<unknown>
     402: 4b 36 66 6c  	<unknown>
     406: 6f 61 74 33  	jal	sp, 0x46f3c <.symtab+0x46f3c>
     40a: 53 36 5f 53  	<unknown>
     40e: 36 5f        	<unknown>
     410: 53 36 5f 5f  	<unknown>
     414: 77 72 61 70  	<unknown>
     418: 70 65        	<unknown>
     41a: 72 00        	<unknown>
     41c: 5f 5f 53 44  	<unknown>
     420: 41 54        	<unknown>
     422: 41 5f        	<unknown>
     424: 42 45        	<unknown>
     426: 47 49 4e 5f  	<unknown>
     42a: 5f 00 6d 65  	<unknown>
     42e: 6d 63        	<unknown>
     430: 70 79        	<unknown>
     432: 00 5f        	<unknown>
     434: 5a 34        	<unknown>
     436: 34 63        	<unknown>
     438: 75 64        	<unknown>
     43a: 61 5f        	<unknown>
     43c: 63 75 64 61  	bgeu	s0, s6, 0xa46 <.symtab+0xa46>
     440: 5f 69 6e 69  	<unknown>
     444: 74 69        	<unknown>
     446: 61 6c        	<unknown>
     448: 69 7a        	<unknown>
     44a: 65 5f        	<unknown>
     44c: 76 61        	<unknown>
     44e: 72 69        	<unknown>
     450: 61 62        	<unknown>
     452: 6c 65        	<unknown>
     454: 73 69 50 66  	csrrsi	s2, 0x665, 0x0
     458: 50 4b        	<unknown>
     45a: 66 5f        	<unknown>
     45c: 77 72 61 70  	<unknown>
     460: 70 65        	<unknown>
     462: 72 50        	<unknown>
     464: 76 00        	<unknown>
     466: 5f 5f 67 6c  	<unknown>
     46a: 6f 62 61 6c  	jal	tp, 0x16b30 <.symtab+0x16b30>
     46e: 5f 70 6f 69  	<unknown>
     472: 6e 74        	<unknown>
     474: 65 72        	<unknown>
     476: 00 76        	<unknown>
     478: 78 5f        	<unknown>
     47a: 73 70 61 77  	csrci	0x776, 0x2
     47e: 6e 5f        	<unknown>
     480: 74 68        	<unknown>
     482: 72 65        	<unknown>
     484: 61 64        	<unknown>
     486: 73 00 5f 5a  	<unknown>
     48a: 32 34        	<unknown>
     48c: 63 75 64 61  	bgeu	s0, s6, 0xa96 <.symtab+0xa96>
     490: 5f 63 6f 6d  	<unknown>
     494: 70 75        	<unknown>
     496: 74 65        	<unknown>
     498: 5f 73 74 65  	<unknown>
     49c: 70 5f        	<unknown>
     49e: 66 61        	<unknown>
     4a0: 63 74 6f 72  	bgeu	t5, t1, 0xbc8 <.symtab+0xbc8>
     4a4: 69 50        	<unknown>
     4a6: 66 53        	<unknown>
     4a8: 5f 53 5f 00  	<unknown>
     4ac: 74 68        	<unknown>
     4ae: 72 65        	<unknown>
     4b0: 61 64        	<unknown>
     4b2: 5f 69 64 5f  	<unknown>
     4b6: 78 00        	<unknown>
     4b8: 62 6c        	<unknown>
     4ba: 6f 63 6b 5f  	jal	t1, 0xb6ab0 <.symtab+0xb6ab0>
     4be: 73 69 7a 65  	csrrsi	s2, 0x657, 0x14
     4c2: 5f 78 00 5f  	<unknown>
     4c6: 5f 6c 69 62  	<unknown>
     4ca: 63 5f 69 6e  	bge	s2, t1, 0xbc8 <.symtab+0xbc8>
     4ce: 69 74        	<unknown>
     4d0: 5f 61 72 72  	<unknown>
     4d4: 61 79        	<unknown>
     4d6: 00 5f        	<unknown>
     4d8: 45 78        	<unknown>
     4da: 69 74        	<unknown>
     4dc: 00 5f        	<unknown>
     4de: 5f 69 6e 69  	<unknown>
     4e2: 74 5f        	<unknown>
     4e4: 74 6c        	<unknown>
     4e6: 73 00 62 6c  	<unknown>
     4ea: 6f 63 6b 44  	jal	t1, 0xb6930 <.symtab+0xb6930>
     4ee: 69 6d        	<unknown>
     4f0: 00 63        	<unknown>
     4f2: 61 6c        	<unknown>
     4f4: 6c 62        	<unknown>
     4f6: 61 63        	<unknown>
     4f8: 6b 73 00 76  	<unknown>
     4fc: 78 5f        	<unknown>
     4fe: 73 65 72 69  	csrrsi	a0, 0x697, 0x4
     502: 61 6c        	<unknown>
     504: 00 5f        	<unknown>
     506: 5f 77 61 72  	<unknown>
     50a: 70 73        	<unknown>
     50c: 5f 70 65 72  	<unknown>
     510: 5f 67 72 6f  	<unknown>
     514: 75 70        	<unknown>
     516: 00 62        	<unknown>
     518: 6c 6f        	<unknown>
     51a: 63 6b 5f 73  	bltu	t5, s5, 0xc50 <.symtab+0xc50>
     51e: 69 7a        	<unknown>
     520: 65 5f        	<unknown>
     522: 79 00        	<unknown>
     524: 76 78        	<unknown>
     526: 5f 70 72 69  	<unknown>
     52a: 6e 74        	<unknown>
     52c: 66 00        	<unknown>
     52e: 5f 5a 31 37  	<unknown>
     532: 63 75 64 61  	bgeu	s0, s6, 0xb3c <.symtab+0xb3c>
     536: 5f 63 6f 6d  	<unknown>
     53a: 70 75        	<unknown>
     53c: 74 65        	<unknown>
     53e: 5f 66 6c 75  	<unknown>
     542: 78 69        	<unknown>
     544: 50 4b        	<unknown>
     546: 69 50        	<unknown>
     548: 4b 66 53 32  	<unknown>
     54c: 5f 50 66 53  	<unknown>
     550: 32 5f        	<unknown>
     552: 50 4b        	<unknown>
     554: 36 66        	<unknown>
     556: 6c 6f        	<unknown>
     558: 61 74        	<unknown>
     55a: 33 53 36 5f  	<unknown>
     55e: 53 36 5f 53  	<unknown>
     562: 36 5f        	<unknown>
     564: 00 5f        	<unknown>
     566: 5f 66 75 6e  	<unknown>
     56a: 63 73 5f 6f  	bgeu	t5, s5, 0xc50 <.symtab+0xc50>
     56e: 6e 5f        	<unknown>
     570: 65 78        	<unknown>
     572: 69 74        	<unknown>
     574: 00 5f        	<unknown>
     576: 5f 74 64 61  	<unknown>
     57a: 74 61        	<unknown>
     57c: 5f 73 69 7a  	<unknown>
     580: 65 00        	<unknown>
     582: 5f 5f 74 62  	<unknown>
     586: 73 73 5f 73  	csrrci	t1, 0x735, 0x1e
     58a: 69 7a        	<unknown>
     58c: 65 00        	<unknown>
     58e: 5f 5a 34 34  	<unknown>
     592: 63 75 64 61  	bgeu	s0, s6, 0xb9c <.symtab+0xb9c>
     596: 5f 63 75 64  	<unknown>
     59a: 61 5f        	<unknown>
     59c: 63 6f 6d 70  	bltu	s10, t1, 0xcba <.symtab+0xcba>
     5a0: 75 74        	<unknown>
     5a2: 65 5f        	<unknown>
     5a4: 73 74 65 70  	csrrci	s0, 0x706, 0xa
     5a8: 5f 66 61 63  	<unknown>
     5ac: 74 6f        	<unknown>
     5ae: 72 69        	<unknown>
     5b0: 50 66        	<unknown>
     5b2: 53 5f 53 5f  	<unknown>
     5b6: 5f 77 72 61  	<unknown>
     5ba: 70 70        	<unknown>
     5bc: 65 72        	<unknown>
     5be: 50 76        	<unknown>
     5c0: 00 67        	<unknown>
     5c2: 72 69        	<unknown>
     5c4: 64 44        	<unknown>
     5c6: 69 6d        	<unknown>
     5c8: 00 5f        	<unknown>
     5ca: 5f 42 53 53  	<unknown>
     5ce: 5f 45 4e 44  	<unknown>
     5d2: 5f 5f 00 67  	<unknown>
     5d6: 72 69        	<unknown>
     5d8: 64 5f        	<unknown>
     5da: 73 69 7a 65  	csrrsi	s2, 0x657, 0x14
     5de: 5f 78 00 5f  	<unknown>
     5e2: 5f 62 73 73  	<unknown>
     5e6: 5f 73 74 61  	<unknown>
     5ea: 72 74        	<unknown>
     5ec: 00 6d        	<unknown>
     5ee: 65 6d        	<unknown>
     5f0: 73 65 74 00  	csrrsi	a0, 0x7, 0x8
     5f4: 6d 61        	<unknown>
     5f6: 69 6e        	<unknown>
     5f8: 00 5f        	<unknown>
     5fa: 5f 73 74 64  	<unknown>
     5fe: 69 6f        	<unknown>
     600: 5f 65 78 69  	<unknown>
     604: 74 00        	<unknown>
     606: 74 68        	<unknown>
     608: 72 65        	<unknown>
     60a: 61 64        	<unknown>
     60c: 5f 69 64 5f  	<unknown>
     610: 7a 00        	<unknown>
     612: 5f 5f 6c 6f  	<unknown>
     616: 63 61 6c 5f  	bltu	s8, s6, 0xbf8 <.symtab+0xbf8>
     61a: 67 72 6f 75  	<unknown>
     61e: 70 5f        	<unknown>
     620: 69 64        	<unknown>
     622: 00 5f        	<unknown>
     624: 5a 31        	<unknown>
     626: 34 63        	<unknown>
     628: 75 64        	<unknown>
     62a: 61 5f        	<unknown>
     62c: 74 69        	<unknown>
     62e: 6d 65        	<unknown>
     630: 5f 73 74 65  	<unknown>
     634: 70 69        	<unknown>
     636: 69 50        	<unknown>
     638: 66 53        	<unknown>
     63a: 5f 53 5f 53  	<unknown>
     63e: 5f 00 62 6c  	<unknown>
     642: 6f 63 6b 5f  	jal	t1, 0xb6c38 <.symtab+0xb6c38>
     646: 73 69 7a 65  	csrrsi	s2, 0x657, 0x14
     64a: 00 62        	<unknown>
     64c: 6c 6f        	<unknown>
     64e: 63 6b 5f 69  	bltu	t5, s5, 0xce4 <.symtab+0xce4>
     652: 6e 64        	<unknown>
     654: 65 78        	<unknown>
     656: 5f 7a 00 67  	<unknown>
     65a: 72 69        	<unknown>
     65c: 64 5f        	<unknown>
     65e: 73 69 7a 65  	csrrsi	s2, 0x657, 0x14
     662: 5f 79 00 62  	<unknown>
     666: 6c 6f        	<unknown>
     668: 63 6b 5f 69  	bltu	t5, s5, 0xcfe <.symtab+0xcfe>
     66c: 6e 64        	<unknown>
     66e: 65 78        	<unknown>
     670: 5f 79 00 5f  	<unknown>
     674: 5a 36        	<unknown>
     676: 33 63 75 64  	<unknown>
     67a: 61 5f        	<unknown>
     67c: 63 75 64 61  	bgeu	s0, s6, 0xc86 <.symtab+0xc86>
     680: 5f 63 6f 6d  	<unknown>
     684: 70 75        	<unknown>
     686: 74 65        	<unknown>
     688: 5f 66 6c 75  	<unknown>
     68c: 78 69        	<unknown>
     68e: 50 4b        	<unknown>
     690: 69 50        	<unknown>
     692: 4b 66 53 32  	<unknown>
     696: 5f 50 66 53  	<unknown>
     69a: 32 5f        	<unknown>
     69c: 50 4b        	<unknown>
     69e: 36 66        	<unknown>
     6a0: 6c 6f        	<unknown>
     6a2: 61 74        	<unknown>
     6a4: 33 53 36 5f  	<unknown>
     6a8: 53 36 5f 53  	<unknown>
     6ac: 36 5f        	<unknown>
     6ae: 5f 77 72 61  	<unknown>
     6b2: 70 70        	<unknown>
     6b4: 65 72        	<unknown>
     6b6: 50 76        	<unknown>
     6b8: 00 53        	<unknown>
     6ba: 54 41        	<unknown>
     6bc: 52 54        	<unknown>
     6be: 55 50        	<unknown>
     6c0: 5f 41 44 44  	<unknown>
     6c4: 52 00        	<unknown>
     6c6: 5f 5f 6c 69  	<unknown>
     6ca: 62 63        	<unknown>
     6cc: 5f 65 78 69  	<unknown>
     6d0: 74 5f        	<unknown>
     6d2: 66 69        	<unknown>
     6d4: 6e 69        	<unknown>
     6d6: 00 5f        	<unknown>
     6d8: 5f 44 41 54  	<unknown>
     6dc: 41 5f        	<unknown>
     6de: 42 45        	<unknown>
     6e0: 47 49 4e 5f  	<unknown>
     6e4: 5f 00 5f 65  	<unknown>
     6e8: 64 61        	<unknown>
     6ea: 74 61        	<unknown>
     6ec: 00 5f        	<unknown>
     6ee: 5f 6e 76 5f  	<unknown>
     6f2: 73 71 72 74  	csrrci	sp, mseccfg, 0x4
     6f6: 66 00        	<unknown>
     6f8: 63 75 64 61  	bgeu	s0, s6, 0xd02 <.symtab+0xd02>
     6fc: 5f 74 69 6d  	<unknown>
     700: 65 5f        	<unknown>
     702: 73 74 65 70  	csrrci	s0, 0x706, 0xa
     706: 69 69        	<unknown>
     708: 50 66        	<unknown>
     70a: 53 5f 53 5f  	<unknown>
     70e: 53 5f 5f 77  	<unknown>
     712: 72 61        	<unknown>
     714: 70 70        	<unknown>
     716: 65 72        	<unknown>
     718: 00 76        	<unknown>
     71a: 78 5f        	<unknown>
     71c: 70 65        	<unknown>
     71e: 72 66        	<unknown>
     720: 5f 64 75 6d  	<unknown>
     724: 70 00        	<unknown>
     726: 64 79        	<unknown>
     728: 6e 5f        	<unknown>
     72a: 73 68 61 72  	csrrsi	a6, 0x726, 0x2
     72e: 65 64        	<unknown>
     730: 5f 6d 65 6d  	<unknown>
     734: 5f 73 69 7a  	<unknown>
     738: 65 00        	<unknown>
     73a: 76 78        	<unknown>
     73c: 5f 70 75 74  	<unknown>
     740: 63 68 61 72  	bltu	sp, t1, 0xe70 <.symtab+0xe70>
     744: 00 74        	<unknown>
     746: 69 6e        	<unknown>
     748: 79 5f        	<unknown>
     74a: 76 70        	<unknown>
     74c: 72 69        	<unknown>
     74e: 6e 74        	<unknown>
     750: 66 00        	<unknown>
     752: 62 6c        	<unknown>
     754: 6f 63 6b 5f  	jal	t1, 0xb6d4a <.symtab+0xb6d4a>
     758: 73 69 7a 65  	csrrsi	s2, 0x657, 0x14
     75c: 5f 7a 00 5f  	<unknown>
     760: 5a 33        	<unknown>
     762: 37 63 75 64  	lui	t1, 0x64756
     766: 61 5f        	<unknown>
     768: 63 75 64 61  	bgeu	s0, s6, 0xd72 <.symtab+0xd72>
     76c: 5f 74 69 6d  	<unknown>
     770: 65 5f        	<unknown>
     772: 73 74 65 70  	csrrci	s0, 0x706, 0xa
     776: 69 69        	<unknown>
     778: 50 66        	<unknown>
     77a: 53 5f 53 5f  	<unknown>
     77e: 53 5f 5f 77  	<unknown>
     782: 72 61        	<unknown>
     784: 70 70        	<unknown>
     786: 65 72        	<unknown>
     788: 50 76        	<unknown>
     78a: 00           	<unknown>

Disassembly of section .shstrtab:

0000000000000000 <.shstrtab>:
       0: 00 2e        	<unknown>
       2: 73 79 6d 74  	csrrci	s2, 0x746, 0x1a
       6: 61 62        	<unknown>
       8: 00 2e        	<unknown>
       a: 73 74 72 74  	csrrci	s0, mseccfg, 0x4
       e: 61 62        	<unknown>
      10: 00 2e        	<unknown>
      12: 73 68 73 74  	csrrsi	a6, mseccfg, 0x6
      16: 72 74        	<unknown>
      18: 61 62        	<unknown>
      1a: 00 2e        	<unknown>
      1c: 69 6e        	<unknown>
      1e: 69 74        	<unknown>
      20: 00 2e        	<unknown>
      22: 74 65        	<unknown>
      24: 78 74        	<unknown>
      26: 00 2e        	<unknown>
      28: 72 6f        	<unknown>
      2a: 64 61        	<unknown>
      2c: 74 61        	<unknown>
      2e: 00 2e        	<unknown>
      30: 65 68        	<unknown>
      32: 5f 66 72 61  	<unknown>
      36: 6d 65        	<unknown>
      38: 00 2e        	<unknown>
      3a: 74 62        	<unknown>
      3c: 73 73 00 2e  	csrrci	t1, 0x2e0, 0x0
      40: 64 61        	<unknown>
      42: 74 61        	<unknown>
      44: 00 2e        	<unknown>
      46: 67 6f 74 00  	<unknown>
      4a: 2e 73        	<unknown>
      4c: 64 61        	<unknown>
      4e: 74 61        	<unknown>
      50: 00 2e        	<unknown>
      52: 73 62 73 73  	csrrsi	tp, 0x737, 0x6
      56: 00 2e        	<unknown>
      58: 62 73        	<unknown>
      5a: 73 00 2e 63  	<unknown>
      5e: 6f 6d 6d 65  	jal	s10, 0xd66b4 <.symtab+0xd66b4>
      62: 6e 74        	<unknown>
      64: 00 2e        	<unknown>
      66: 72 69        	<unknown>
      68: 73 63 76 2e  	csrrsi	t1, 0x2e7, 0xc
      6c: 61 74        	<unknown>
      6e: 74 72        	<unknown>
      70: 69 62        	<unknown>
      72: 75 74        	<unknown>
      74: 65 73        	<unknown>
      76: 00 2e        	<unknown>
      78: 64 65        	<unknown>
      7a: 62 75        	<unknown>
      7c: 67 5f 66 72  	<unknown>
      80: 61 6d        	<unknown>
      82: 65 00        	<unknown>
